ccollections
defaultdict
p0
(c__builtin__
list
p1
tp2
Rp3
S'Gadget2_polysink//predict.c'
p4
(lp5
(S'MPI_Allreduce()'
p6
S'168'
p7
tp8
a(S'MPI_Allreduce()'
p9
S'169'
p10
tp11
a(S'MPI_Allreduce()'
p12
S'216'
p13
tp14
a(S'MPI_Barrier()'
p15
S'217'
p16
tp17
a(S'MPI_Barrier()'
p18
S'251'
p19
tp20
a(S'MPI_Allgather()'
p21
S'252'
p22
tp23
a(S'MPI_Allgather()'
p24
S'253'
p25
tp26
a(S'MPI_Allgather()'
p27
S'254'
p28
tp29
a(S'MPI_Allgather()'
p30
S'255'
p31
tp32
a(S'MPI_Allgather()'
p33
S'256'
p34
tp35
a(S'MPI_Allgather()'
p36
S'257'
p37
tp38
a(S'MPI_Allgather()'
p39
S'258'
p40
tp41
a(S'MPI_Allgather()'
p42
S'259'
p43
tp44
a(S'MPI_Barrier()'
p45
S'260'
p46
tp47
a(S'MPI_Barrier()'
p48
S'399'
p49
tp50
a(S'MPI_Allreduce()'
p51
S'400'
p52
tp53
a(S'MPI_Barrier()'
p54
S'436'
p55
tp56
a(S'MPI_Allgather()'
p57
S'437'
p58
tp59
a(S'MPI_Allgather()'
p60
S'438'
p61
tp62
a(S'MPI_Allgather()'
p63
S'439'
p64
tp65
a(S'MPI_Allgather()'
p66
S'440'
p67
tp68
a(S'MPI_Allgather()'
p69
S'441'
p70
tp71
a(S'MPI_Allgather()'
p72
S'442'
p73
tp74
a(S'MPI_Allgather()'
p75
S'443'
p76
tp77
a(S'MPI_Allgather()'
p78
S'444'
p79
tp80
a(S'MPI_Barrier()'
p81
S'445'
p82
tp83
a(S'MPI_Barrier()'
p84
S'450'
p85
tp86
a(S'MPI_Barrier()'
p87
S'505'
p88
tp89
a(S'MPI_Allreduce()'
p90
S'506'
p91
tp92
a(S'MPI_Allreduce()'
p93
S'507'
p94
tp95
a(S'MPI_Allreduce()'
p96
S'508'
p97
tp98
a(S'MPI_Allreduce()'
p99
S'509'
p100
tp101
a(S'MPI_Allreduce()'
p102
S'510'
p103
tp104
a(S'MPI_Allreduce()'
p105
S'511'
p106
tp107
a(S'MPI_Allreduce()'
p108
S'512'
p109
tp110
a(S'MPI_Allreduce()'
p111
S'513'
p112
tp113
a(S'MPI_Allreduce()'
p114
S'514'
p115
tp116
a(S'MPI_Allreduce()'
p117
S'515'
p118
tp119
a(S'MPI_Allreduce()'
p120
S'516'
p121
tp122
a(S'MPI_Barrier()'
p123
S'517'
p124
tp125
a(S'MPI_Barrier()'
p126
S'560'
p127
tp128
a(S'MPI_Allreduce()'
p129
S'584'
p130
tp131
a(S'MPI_Allreduce()'
p132
S'585'
p133
tp134
a(S'MPI_Allreduce()'
p135
S'586'
p136
tp137
a(S'MPI_Allreduce()'
p138
S'587'
p139
tp140
asS'Gadget2_polysink//density.c'
p141
(lp142
(S'MPI_Allgather()'
p143
S'100'
p144
tp145
a(S'MPI_Allgather()'
p146
S'160'
p147
tp148
a(S'MPI_Sendrecv()'
p149
S'193'
p150
tp151
a(S'X_MPI_BYTE()'
p152
S'198'
p153
tp154
a(S'MPI_Barrier()'
p155
S'218'
p156
tp157
a(S'MPI_Sendrecv()'
p158
S'246'
p159
tp160
a(S'X_MPI_BYTE()'
p161
S'248'
p162
tp163
a(S'X_MPI_BYTE()'
p164
S'251'
p165
tp166
a(S'MPI_Allgather()'
p167
S'282'
p168
tp169
a(S'MPI_Allgather()'
p170
S'398'
p171
tp172
a(S'MPI_Reduce()'
p173
S'448'
p174
tp175
a(S'MPI_Reduce()'
p176
S'449'
p177
tp178
a(S'MPI_Reduce()'
p179
S'450'
p180
tp181
a(S'MPI_Reduce()'
p182
S'451'
p183
tp184
asS'Gadget2_polysink//endrun.c'
p185
(lp186
(S'MPI_Abort()'
p187
S'49'
p188
tp189
a(S'MPI_Finalize()'
p190
S'54'
p191
tp192
asS'Gadget2_polysink//begrun.c'
p193
(lp194
(S'MPI_Bcast()'
p195
S'789'
p196
tp197
a(S'MPI_Finalize()'
p198
S'793'
p199
tp200
a(S'MPI_Bcast()'
p201
S'798'
p202
tp203
asS'Gadget2_polysink//restart.c'
p204
(lp205
(S'MPI_Bcast()'
p206
S'99'
p207
tp208
a(S'MPI_Bcast()'
p209
S'278'
p210
tp211
a(S'MPI_Barrier()'
p212
S'282'
p213
tp214
asS'Gadget2_polysink//timestep.c'
p215
(lp216
(S'MPI_Allreduce()'
p217
S'106'
p218
tp219
a(S'MPI_Allreduce()'
p220
S'107'
p221
tp222
a(S'MPI_Allreduce()'
p223
S'162'
p224
tp225
a(S'MPI_Allreduce()'
p226
S'642'
p227
tp228
a(S'MPI_Allreduce()'
p229
S'643'
p230
tp231
a(S'MPI_Allgather()'
p232
S'646'
p233
tp234
asS'Gadget2_polysink//pm_periodic.c'
p235
(lp236
(S'MPI_Allreduce()'
p237
S'80'
p238
tp239
a(S'MPI_Allreduce()'
p240
S'82'
p241
tp242
a(S'MPI_Allgather()'
p243
S'85'
p244
tp245
a(S'MPI_Allgather()'
p246
S'94'
p247
tp248
a(S'MPI_Allreduce()'
p249
S'102'
p250
tp251
a(S'MPI_Allreduce()'
p252
S'120'
p253
tp254
a(S'MPI_Allgather()'
p255
S'236'
p256
tp257
a(S'MPI_Allgather()'
p258
S'237'
p259
tp260
a(S'MPI_Sendrecv()'
p261
S'329'
p262
tp263
a(S'MPI_Sendrecv()'
p264
S'563'
p265
tp266
a(S'X_MPI_BYTE()'
p267
S'565'
p268
tp269
a(S'MPI_Allgather()'
p270
S'745'
p271
tp272
a(S'MPI_Allgather()'
p273
S'746'
p274
tp275
a(S'MPI_Sendrecv()'
p276
S'838'
p277
tp278
a(S'MPI_Sendrecv()'
p279
S'1071'
p280
tp281
a(S'X_MPI_BYTE()'
p282
S'1073'
p283
tp284
asS'Gadget2_polysink//forcetree.c'
p285
(lp286
(S'MPI_Sendrecv()'
p287
S'719'
p288
tp289
a(S'X_MPI_BYTE()'
p290
S'721'
p291
tp292
a(S'X_MPI_BYTE()'
p293
S'724'
p294
tp295
a(S'MPI_Sendrecv()'
p296
S'907'
p297
tp298
a(S'X_MPI_BYTE()'
p299
S'909'
p300
tp301
a(S'X_MPI_BYTE()'
p302
S'912'
p303
tp304
a(S'MPI_Sendrecv()'
p305
S'1037'
p306
tp307
a(S'X_MPI_BYTE()'
p308
S'1039'
p309
tp310
a(S'X_MPI_BYTE()'
p311
S'1042'
p312
tp313
a(S'MPI_Bcast()'
p314
S'2966'
p315
tp316
a(S'MPI_Bcast()'
p317
S'2967'
p318
tp319
a(S'MPI_Bcast()'
p320
S'2968'
p321
tp322
a(S'MPI_Bcast()'
p323
S'2969'
p324
tp325
a(S'MPI_Bcast()'
p326
S'2971'
p327
tp328
a(S'MPI_Bcast()'
p329
S'2972'
p330
tp331
a(S'MPI_Bcast()'
p332
S'2973'
p333
tp334
a(S'MPI_Bcast()'
p335
S'2974'
p336
tp337
asS'Gadget2_polysink//potential.c'
p338
(lp339
(S'MPI_Allgather()'
p340
S'66'
p341
tp342
a(S'MPI_Allgather()'
p343
S'132'
p344
tp345
a(S'MPI_Sendrecv()'
p346
S'160'
p347
tp348
a(S'MPI_Sendrecv()'
p349
S'207'
p350
tp351
a(S'X_MPI_BYTE()'
p352
S'209'
p353
tp354
a(S'X_MPI_BYTE()'
p355
S'212'
p356
tp357
a(S'MPI_Allgather()'
p358
S'232'
p359
tp360
asS'Gadget2_polysink//domain.c'
p361
(lp362
(S'MPI_Allgather()'
p363
S'106'
p364
tp365
a(S'MPI_Allgather()'
p366
S'107'
p367
tp368
a(S'MPI_Allgather()'
p369
S'173'
p370
tp371
a(S'MPI_Ssend()'
p372
S'671'
p373
tp374
a(S'MPI_Ssend()'
p375
S'674'
p376
tp377
a(S'MPI_Ssend()'
p378
S'678'
p379
tp380
a(S'MPI_Recv()'
p381
S'706'
p382
tp383
a(S'X_MPI_COMM_WORLD()'
p384
S'707'
p385
tp386
a(S'MPI_Recv()'
p387
S'708'
p388
tp389
a(S'X_MPI_COMM_WORLD()'
p390
S'709'
p391
tp392
a(S'MPI_Recv()'
p393
S'710'
p394
tp395
a(S'MPI_Recv()'
p396
S'717'
p397
tp398
a(S'MPI_Recv()'
p399
S'719'
p400
tp401
a(S'MPI_Allgather()'
p402
S'760'
p403
tp404
a(S'MPI_Allgather()'
p405
S'761'
p406
tp407
a(S'MPI_Allreduce()'
p408
S'836'
p409
tp410
a(S'MPI_Allreduce()'
p411
S'837'
p412
tp413
a(S'MPI_Allreduce()'
p414
S'838'
p415
tp416
a(S'MPI_Allreduce()'
p417
S'873'
p418
tp419
a(S'MPI_Allreduce()'
p420
S'874'
p421
tp422
a(S'MPI_Allgather()'
p423
S'939'
p424
tp425
a(S'MPI_Allgatherv()'
p426
S'957'
p427
tp428
asS'Gadget2_polysink//gravtree_forcetest.c'
p429
(lp430
(S'MPI_Allreduce()'
p431
S'68'
p432
tp433
a(S'MPI_Allgather()'
p434
S'132'
p435
tp436
a(S'MPI_Sendrecv()'
p437
S'160'
p438
tp439
a(S'MPI_Sendrecv()'
p440
S'205'
p441
tp442
a(S'X_MPI_BYTE()'
p443
S'207'
p444
tp445
a(S'X_MPI_BYTE()'
p446
S'210'
p447
tp448
a(S'MPI_Allreduce()'
p449
S'231'
p450
tp451
a(S'MPI_Barrier()'
p452
S'313'
p453
tp454
a(S'MPI_Gather()'
p455
S'327'
p456
tp457
a(S'MPI_Gather()'
p458
S'328'
p459
tp460
asS'Gadget2_polysink//global.c'
p461
(lp462
(S'MPI_Reduce()'
p463
S'130'
p464
tp465
a(S'MPI_Reduce()'
p466
S'131'
p467
tp468
a(S'MPI_Reduce()'
p469
S'132'
p470
tp471
a(S'MPI_Reduce()'
p472
S'133'
p473
tp474
a(S'MPI_Reduce()'
p475
S'134'
p476
tp477
a(S'MPI_Reduce()'
p478
S'136'
p479
tp480
a(S'MPI_Reduce()'
p481
S'138'
p482
tp483
a(S'MPI_Bcast()'
p484
S'209'
p485
tp486
asS'Gadget2_polysink//io.c'
p487
(lp488
(S'MPI_Allgather()'
p489
S'83'
p490
tp491
a(S'MPI_Barrier()'
p492
S'111'
p493
tp494
a(S'MPI_Recv()'
p495
S'804'
p496
tp497
a(S'MPI_Send()'
p498
S'810'
p499
tp500
a(S'MPI_Send()'
p501
S'814'
p502
tp503
a(S'MPI_Recv()'
p504
S'815'
p505
tp506
a(S'MPI_Send()'
p507
S'995'
p508
tp509
a(S'MPI_Recv()'
p510
S'998'
p511
tp512
a(S'MPI_Recv()'
p513
S'1012'
p514
tp515
a(S'MPI_Ssend()'
p516
S'1016'
p517
tp518
asS'Gadget2_polysink//run.c'
p519
(lp520
(S'MPI_Barrier()'
p521
S'84'
p522
tp523
a(S'MPI_Barrier()'
p524
S'90'
p525
tp526
a(S'MPI_Barrier()'
p527
S'94'
p528
tp529
a(S'MPI_Barrier()'
p530
S'105'
p531
tp532
a(S'MPI_Barrier()'
p533
S'147'
p534
tp535
a(S'MPI_Bcast()'
p536
S'148'
p537
tp538
a(S'MPI_Bcast()'
p539
S'204'
p540
tp541
a(S'MPI_Barrier()'
p542
S'209'
p543
tp544
a(S'MPI_Bcast()'
p545
S'237'
p546
tp547
a(S'MPI_Allreduce()'
p548
S'286'
p549
tp550
a(S'MPI_Allreduce()'
p551
S'294'
p552
tp553
a(S'MPI_Allgather()'
p554
S'316'
p555
tp556
a(S'MPI_Bcast()'
p557
S'505'
p558
tp559
a(S'MPI_Bcast()'
p560
S'506'
p561
tp562
a(S'MPI_Bcast()'
p563
S'507'
p564
tp565
a(S'MPI_Recv()'
p566
S'601'
p567
tp568
a(S'MPI_Recv()'
p569
S'602'
p570
tp571
a(S'MPI_Send()'
p572
S'628'
p573
tp574
a(S'MPI_Send()'
p575
S'629'
p576
tp577
a(S'MPI_Barrier()'
p578
S'631'
p579
tp580
a(S'MPI_Send()'
p581
S'635'
p582
tp583
a(S'MPI_Send()'
p584
S'636'
p585
tp586
a(S'MPI_Recv()'
p587
S'640'
p588
tp589
a(S'MPI_Recv()'
p590
S'641'
p591
tp592
a(S'MPI_Barrier()'
p593
S'643'
p594
tp595
a(S'MPI_Allreduce()'
p596
S'665'
p597
tp598
a(S'MPI_Barrier()'
p599
S'691'
p600
tp601
a(S'MPI_Allgather()'
p602
S'692'
p603
tp604
a(S'MPI_Allgather()'
p605
S'693'
p606
tp607
a(S'MPI_Allgather()'
p608
S'694'
p609
tp610
a(S'MPI_Allgather()'
p611
S'695'
p612
tp613
a(S'MPI_Barrier()'
p614
S'696'
p615
tp616
a(S'MPI_Bcast()'
p617
S'776'
p618
tp619
a(S'MPI_Bcast()'
p620
S'779'
p621
tp622
a(S'MPI_Bcast()'
p623
S'780'
p624
tp625
a(S'MPI_Bcast()'
p626
S'781'
p627
tp628
a(S'MPI_Bcast()'
p629
S'782'
p630
tp631
a(S'MPI_Barrier()'
p632
S'837'
p633
tp634
a(S'MPI_Allreduce()'
p635
S'838'
p636
tp637
a(S'MPI_Allreduce()'
p638
S'839'
p639
tp640
a(S'MPI_Allreduce()'
p641
S'840'
p642
tp643
a(S'MPI_Allreduce()'
p644
S'841'
p645
tp646
a(S'MPI_Allreduce()'
p647
S'842'
p648
tp649
a(S'MPI_Allreduce()'
p650
S'843'
p651
tp652
a(S'MPI_Allreduce()'
p653
S'844'
p654
tp655
a(S'MPI_Allreduce()'
p656
S'845'
p657
tp658
a(S'MPI_Allreduce()'
p659
S'846'
p660
tp661
a(S'MPI_Allreduce()'
p662
S'847'
p663
tp664
a(S'MPI_Barrier()'
p665
S'848'
p666
tp667
a(S'MPI_Barrier()'
p668
S'880'
p669
tp670
a(S'MPI_Barrier()'
p671
S'904'
p672
tp673
a(S'MPI_Allreduce()'
p674
S'905'
p675
tp676
a(S'MPI_Allreduce()'
p677
S'906'
p678
tp679
a(S'MPI_Allreduce()'
p680
S'907'
p681
tp682
a(S'MPI_Allreduce()'
p683
S'908'
p684
tp685
a(S'MPI_Barrier()'
p686
S'909'
p687
tp688
a(S'MPI_Allreduce()'
p689
S'949'
p690
tp691
a(S'MPI_Barrier()'
p692
S'950'
p693
tp694
a(S'MPI_Barrier()'
p695
S'986'
p696
tp697
a(S'MPI_Allgather()'
p698
S'987'
p699
tp700
a(S'MPI_Allgather()'
p701
S'988'
p702
tp703
a(S'MPI_Allgather()'
p704
S'989'
p705
tp706
a(S'MPI_Allgather()'
p707
S'990'
p708
tp709
a(S'MPI_Allgather()'
p710
S'991'
p711
tp712
a(S'MPI_Allgather()'
p713
S'992'
p714
tp715
a(S'MPI_Allgather()'
p716
S'993'
p717
tp718
a(S'MPI_Allgather()'
p719
S'994'
p720
tp721
a(S'MPI_Barrier()'
p722
S'995'
p723
tp724
a(S'MPI_Allreduce()'
p725
S'1064'
p726
tp727
a(S'MPI_Barrier()'
p728
S'1102'
p729
tp730
a(S'MPI_Allreduce()'
p731
S'1103'
p732
tp733
a(S'MPI_Allreduce()'
p734
S'1104'
p735
tp736
a(S'MPI_Allreduce()'
p737
S'1105'
p738
tp739
a(S'MPI_Allreduce()'
p740
S'1106'
p741
tp742
a(S'MPI_Allreduce()'
p743
S'1107'
p744
tp745
a(S'MPI_Allreduce()'
p746
S'1108'
p747
tp748
a(S'MPI_Allreduce()'
p749
S'1109'
p750
tp751
a(S'MPI_Allreduce()'
p752
S'1110'
p753
tp754
a(S'MPI_Allreduce()'
p755
S'1111'
p756
tp757
a(S'MPI_Allreduce()'
p758
S'1112'
p759
tp760
a(S'MPI_Barrier()'
p761
S'1113'
p762
tp763
a(S'MPI_Barrier()'
p764
S'1156'
p765
tp766
a(S'MPI_Barrier()'
p767
S'1177'
p768
tp769
a(S'MPI_Allreduce()'
p770
S'1178'
p771
tp772
a(S'MPI_Allreduce()'
p773
S'1179'
p774
tp775
asS'Gadget2_polysink//init.c'
p776
(lp777
(S'MPI_Allreduce()'
p778
S'204'
p779
tp780
asS'Gadget2_polysink//pm_nonperiodic.c'
p781
(lp782
(S'MPI_Allreduce()'
p783
S'85'
p784
tp785
a(S'MPI_Allreduce()'
p786
S'86'
p787
tp788
a(S'MPI_Allreduce()'
p789
S'209'
p790
tp791
a(S'MPI_Allgather()'
p792
S'212'
p793
tp794
a(S'MPI_Allgather()'
p795
S'223'
p796
tp797
a(S'MPI_Allreduce()'
p798
S'228'
p799
tp800
a(S'MPI_Allreduce()'
p801
S'271'
p802
tp803
a(S'MPI_Allreduce()'
p804
S'551'
p805
tp806
a(S'MPI_Allgather()'
p807
S'562'
p808
tp809
a(S'MPI_Allgather()'
p810
S'563'
p811
tp812
a(S'MPI_Sendrecv()'
p813
S'658'
p814
tp815
a(S'MPI_Allgather()'
p816
S'768'
p817
tp818
a(S'MPI_Allgather()'
p819
S'769'
p820
tp821
a(S'MPI_Sendrecv()'
p822
S'855'
p823
tp824
a(S'X_MPI_BYTE()'
p825
S'857'
p826
tp827
a(S'MPI_Allreduce()'
p828
S'1056'
p829
tp830
a(S'MPI_Allgather()'
p831
S'1069'
p832
tp833
a(S'MPI_Allgather()'
p834
S'1070'
p835
tp836
a(S'MPI_Sendrecv()'
p837
S'1165'
p838
tp839
a(S'MPI_Allgather()'
p840
S'1275'
p841
tp842
a(S'MPI_Allgather()'
p843
S'1276'
p844
tp845
a(S'MPI_Sendrecv()'
p846
S'1362'
p847
tp848
a(S'X_MPI_BYTE()'
p849
S'1364'
p850
tp851
asS'Gadget2_polysink//main.c'
p852
(lp853
(S'MPI_Init()'
p854
S'26'
p855
tp856
a(S'MPI_Comm_rank()'
p857
S'27'
p858
tp859
a(S'MPI_Comm_size()'
p860
S'28'
p861
tp862
a(S'MPI_Finalize()'
p863
S'73'
p864
tp865
asS'Gadget2_polysink//gravtree.c'
p866
(lp867
(S'MPI_Allgather()'
p868
S'75'
p869
tp870
a(S'MPI_Allgather()'
p871
S'159'
p872
tp873
a(S'MPI_Sendrecv()'
p874
S'191'
p875
tp876
a(S'MPI_Barrier()'
p877
S'221'
p878
tp879
a(S'MPI_Sendrecv()'
p880
S'248'
p881
tp882
a(S'X_MPI_BYTE()'
p883
S'250'
p884
tp885
a(S'X_MPI_BYTE()'
p886
S'253'
p887
tp888
a(S'MPI_Allgather()'
p889
S'278'
p890
tp891
a(S'MPI_Gather()'
p892
S'381'
p893
tp894
a(S'MPI_Gather()'
p895
S'382'
p896
tp897
a(S'MPI_Gather()'
p898
S'383'
p899
tp900
a(S'MPI_Gather()'
p901
S'384'
p902
tp903
a(S'MPI_Gather()'
p904
S'385'
p905
tp906
a(S'MPI_Gather()'
p907
S'386'
p908
tp909
a(S'MPI_Reduce()'
p910
S'387'
p911
tp912
a(S'MPI_Reduce()'
p913
S'388'
p914
tp915
asS'Gadget2_polysink//hydra.c'
p916
(lp917
(S'MPI_Allgather()'
p918
S'109'
p919
tp920
a(S'MPI_Allgather()'
p921
S'200'
p922
tp923
a(S'MPI_Sendrecv()'
p924
S'234'
p925
tp926
a(S'MPI_Barrier()'
p927
S'259'
p928
tp929
a(S'MPI_Sendrecv()'
p930
S'287'
p931
tp932
a(S'X_MPI_BYTE()'
p933
S'289'
p934
tp935
a(S'X_MPI_BYTE()'
p936
S'292'
p937
tp938
a(S'MPI_Allgather()'
p939
S'321'
p940
tp941
a(S'MPI_Reduce()'
p942
S'372'
p943
tp944
a(S'MPI_Reduce()'
p945
S'373'
p946
tp947
a(S'MPI_Reduce()'
p948
S'374'
p949
tp950
asS'Gadget2_polysink//read_ic.c'
p951
(lp952
(S'MPI_Barrier()'
p953
S'69'
p954
tp955
a(S'MPI_Barrier()'
p956
S'101'
p957
tp958
a(S'MPI_Barrier()'
p959
S'192'
p960
tp961
a(S'MPI_Ssend()'
p962
S'363'
p963
tp964
a(S'MPI_Recv()'
p965
S'366'
p966
tp967
a(S'MPI_Ssend()'
p968
S'582'
p969
tp970
a(S'MPI_Recv()'
p971
S'586'
p972
tp973
a(S'MPI_Bcast()'
p974
S'711'
p975
tp976
a(S'MPI_Bcast()'
p977
S'744'
p978
tp979
as.