ccollections
defaultdict
p0
(c__builtin__
list
p1
tp2
Rp3
S'BUT-FIT-PRL//pro.cpp'
p4
(lp5
(S'MPI_Init()'
p6
S'25'
p7
tp8
a(S'MPI_Comm_rank()'
p9
S'27'
p10
tp11
a(S'MPI_Allgather()'
p12
S'57'
p13
tp14
a(S'MPI_Allgather()'
p15
S'62'
p16
tp17
a(S'MPI_Allgather()'
p18
S'72'
p19
tp20
a(S'MPI_Allgather()'
p21
S'77'
p22
tp23
a(S'MPI_Allgather()'
p24
S'88'
p25
tp26
a(S'MPI_Allgather()'
p27
S'93'
p28
tp29
a(S'MPI_Allgather()'
p30
S'101'
p31
tp32
a(S'MPI_Allgather()'
p33
S'106'
p34
tp35
a(S'MPI_Allgather()'
p36
S'113'
p37
tp38
a(S'MPI_Allgather()'
p39
S'121'
p40
tp41
a(S'MPI_Send()'
p42
S'127'
p43
tp44
a(S'MPI_Recv()'
p45
S'137'
p46
tp47
a(S'MPI_Finalize()'
p48
S'153'
p49
tp50
as.