ccollections
defaultdict
p0
(c__builtin__
list
p1
tp2
Rp3
S'geosci/lmp/alt/compute_temp_deform.cpp'
p4
(lp5
(S'MPI_Allreduce()'
p6
S'149'
p7
tp8
a(S'MPI_Allreduce()'
p9
S'198'
p10
tp11
asS'geosci/lmp/alt/USER-MISC/improper_cossq.cpp'
p12
(lp13
(S'MPI_Comm_rank()'
p14
S'110'
p15
tp16
a(S'MPI_Bcast()'
p17
S'309'
p18
tp19
a(S'MPI_Bcast()'
p20
S'310'
p21
tp22
asS'geosci/lmp/alt/MANYBODY/pair_comb.cpp'
p23
(lp24
(S'MPI_Bcast()'
p25
S'617'
p26
tp27
a(S'MPI_Bcast()'
p28
S'619'
p29
tp30
a(S'MPI_Bcast()'
p31
S'620'
p32
tp33
a(S'MPI_Bcast()'
p34
S'639'
p35
tp36
a(S'MPI_Bcast()'
p37
S'641'
p38
tp39
a(S'MPI_Bcast()'
p40
S'642'
p41
tp42
a(S'MPI_Allreduce()'
p43
S'1780'
p44
tp45
asS'geosci/lmp/alt/USER-PHONON/fix_phonon.cpp'
p46
(lp47
(S'MPI_Comm_rank()'
p48
S'65'
p49
tp50
a(S'MPI_Comm_size()'
p51
S'66'
p52
tp53
a(S'MPI_Gather()'
p54
S'380'
p55
tp56
a(S'MPI_Gatherv()'
p57
S'383'
p58
tp59
a(S'MPI_Scatterv()'
p60
S'390'
p61
tp62
a(S'MPI_Allreduce()'
p63
S'527'
p64
tp65
a(S'MPI_Allreduce()'
p66
S'528'
p67
tp68
a(S'MPI_Gatherv()'
p69
S'678'
p70
tp71
asS'geosci/lmp/alt/MISC/pair_nm_cut.cpp'
p72
(lp73
(S'MPI_Allreduce()'
p74
S'275'
p75
tp76
a(S'MPI_Bcast()'
p77
S'330'
p78
tp79
a(S'MPI_Bcast()'
p80
S'339'
p81
tp82
a(S'MPI_Bcast()'
p83
S'340'
p84
tp85
a(S'MPI_Bcast()'
p86
S'341'
p87
tp88
a(S'MPI_Bcast()'
p89
S'342'
p90
tp91
a(S'MPI_Bcast()'
p92
S'343'
p93
tp94
a(S'MPI_Bcast()'
p95
S'372'
p96
tp97
a(S'MPI_Bcast()'
p98
S'373'
p99
tp100
a(S'MPI_Bcast()'
p101
S'374'
p102
tp103
a(S'MPI_Bcast()'
p104
S'375'
p105
tp106
asS'geosci/lmp/alt/compute_temp_profile.cpp'
p107
(lp108
(S'MPI_Allreduce()'
p109
S'248'
p110
tp111
a(S'MPI_Allreduce()'
p112
S'295'
p113
tp114
a(S'MPI_Allreduce()'
p115
S'337'
p116
tp117
a(S'MPI_Allreduce()'
p118
S'472'
p119
tp120
asS'geosci/lmp/alt/USER-REAXC/reaxc_allocate.cpp'
p121
(lp122
(S'MPI_Abort()'
p123
S'443'
p124
tp125
a(S'MPI_Abort()'
p126
S'481'
p127
tp128
a(S'MPI_Abort()'
p129
S'514'
p130
tp131
a(S'MPI_Abort()'
p132
S'542'
p133
tp134
a(S'MPI_Allreduce()'
p135
S'604'
p136
tp137
a(S'MPI_Abort()'
p138
S'828'
p139
tp140
a(S'MPI_Abort()'
p141
S'839'
p142
tp143
a(S'MPI_Abort()'
p144
S'853'
p145
tp146
a(S'MPI_Abort()'
p147
S'877'
p148
tp149
a(S'MPI_Abort()'
p150
S'949'
p151
tp152
a(S'MPI_Abort()'
p153
S'1028'
p154
tp155
a(S'MPI_Barrier()'
p156
S'1036'
p157
tp158
asS'geosci/lmp/alt/pair_soft.cpp'
p159
(lp160
(S'MPI_Bcast()'
p161
S'248'
p162
tp163
a(S'MPI_Bcast()'
p164
S'254'
p165
tp166
a(S'MPI_Bcast()'
p167
S'255'
p168
tp169
a(S'MPI_Bcast()'
p170
S'280'
p171
tp172
a(S'MPI_Bcast()'
p173
S'281'
p174
tp175
asS'geosci/lmp/alt/fix_spring_self.cpp'
p176
(lp177
(S'MPI_Allreduce()'
p178
S'199'
p179
tp180
asS'geosci/lmp/alt/USER-REAXC/reaxc_lookup.cpp'
p181
(lp182
(S'MPI_Allreduce()'
p183
S'235'
p184
tp185
a(S'X_MPI_INT()'
p186
S'236'
p187
tp188
asS'geosci/lmp/alt/fix_print.cpp'
p189
(lp190
(S'MPI_Comm_rank()'
p191
S'37'
p192
tp193
asS'geosci/lmp/alt/improper_ring.cpp'
p194
(lp195
(S'MPI_Bcast()'
p196
S'336'
p197
tp198
a(S'MPI_Bcast()'
p199
S'337'
p200
tp201
asS'geosci/lmp/alt/pair_meam_sw_spline.cpp'
p202
(lp203
(S'MPI_Bcast()'
p204
S'688'
p205
tp206
a(S'MPI_Bcast()'
p207
S'689'
p208
tp209
a(S'MPI_Bcast()'
p210
S'690'
p211
tp212
a(S'MPI_Bcast()'
p213
S'691'
p214
tp215
a(S'MPI_Bcast()'
p216
S'692'
p217
tp218
a(S'MPI_Bcast()'
p219
S'693'
p220
tp221
a(S'MPI_Bcast()'
p222
S'694'
p223
tp224
a(S'MPI_Bcast()'
p225
S'695'
p226
tp227
a(S'MPI_Bcast()'
p228
S'696'
p229
tp230
a(S'MPI_Bcast()'
p231
S'704'
p232
tp233
a(S'MPI_Bcast()'
p234
S'705'
p235
tp236
a(S'MPI_Bcast()'
p237
S'706'
p238
tp239
a(S'MPI_Bcast()'
p240
S'707'
p241
tp242
a(S'MPI_Bcast()'
p243
S'708'
p244
tp245
asS'geosci/lmp/alt/special.cpp'
p246
(lp247
(S'MPI_Comm_rank()'
p248
S'34'
p249
tp250
a(S'MPI_Comm_size()'
p251
S'35'
p252
tp253
a(S'MPI_Barrier()'
p254
S'61'
p255
tp256
a(S'MPI_Allreduce()'
p257
S'124'
p258
tp259
a(S'MPI_Allreduce()'
p260
S'236'
p261
tp262
a(S'MPI_Allreduce()'
p263
S'352'
p264
tp265
a(S'MPI_Comm_rank()'
p266
S'500'
p267
tp268
a(S'MPI_Allreduce()'
p269
S'562'
p270
tp271
a(S'MPI_Allreduce()'
p272
S'655'
p273
tp274
a(S'MPI_Allreduce()'
p275
S'739'
p276
tp277
a(S'MPI_Allreduce()'
p278
S'771'
p279
tp280
a(S'MPI_Allreduce()'
p281
S'845'
p282
tp283
asS'geosci/lmp/alt/FLD/pair_lubricate.cpp'
p284
(lp285
(S'MPI_Allreduce()'
p286
S'453'
p287
tp288
a(S'MPI_Bcast()'
p289
S'714'
p290
tp291
a(S'MPI_Bcast()'
p292
S'720'
p293
tp294
a(S'MPI_Bcast()'
p295
S'721'
p296
tp297
a(S'MPI_Bcast()'
p298
S'761'
p299
tp300
a(S'MPI_Bcast()'
p301
S'762'
p302
tp303
a(S'MPI_Bcast()'
p304
S'763'
p305
tp306
a(S'MPI_Bcast()'
p307
S'764'
p308
tp309
a(S'MPI_Bcast()'
p310
S'765'
p311
tp312
a(S'MPI_Bcast()'
p313
S'766'
p314
tp315
a(S'MPI_Bcast()'
p316
S'767'
p317
tp318
a(S'MPI_Bcast()'
p319
S'768'
p320
tp321
a(S'MPI_Bcast()'
p322
S'769'
p323
tp324
asS'geosci/lmp/alt/pair_lj_gromacs_coul_gromacs.cpp'
p325
(lp326
(S'MPI_Bcast()'
p327
S'378'
p328
tp329
a(S'MPI_Bcast()'
p330
S'384'
p331
tp332
a(S'MPI_Bcast()'
p333
S'385'
p334
tp335
a(S'MPI_Bcast()'
p336
S'418'
p337
tp338
a(S'MPI_Bcast()'
p339
S'419'
p340
tp341
a(S'MPI_Bcast()'
p342
S'420'
p343
tp344
a(S'MPI_Bcast()'
p345
S'421'
p346
tp347
a(S'MPI_Bcast()'
p348
S'422'
p349
tp350
a(S'MPI_Bcast()'
p351
S'423'
p352
tp353
asS'geosci/lmp/alt/GPU/pair_coul_long_gpu.cpp'
p354
(lp355
(S'MPI_Wtime()'
p356
S'126'
p357
tp358
asS'geosci/lmp/alt/USER-CG-CMM/angle_cg_cmm.cpp'
p359
(lp360
(S'MPI_Bcast()'
p361
S'374'
p362
tp363
a(S'MPI_Bcast()'
p364
S'375'
p365
tp366
a(S'MPI_Bcast()'
p367
S'376'
p368
tp369
a(S'MPI_Bcast()'
p370
S'377'
p371
tp372
a(S'MPI_Bcast()'
p373
S'378'
p374
tp375
a(S'MPI_Bcast()'
p376
S'379'
p377
tp378
asS'geosci/lmp/alt/pair_meam_spline.cpp'
p379
(lp380
(S'MPI_Bcast()'
p381
S'652'
p382
tp383
a(S'MPI_Bcast()'
p384
S'653'
p385
tp386
a(S'MPI_Bcast()'
p387
S'654'
p388
tp389
a(S'MPI_Bcast()'
p390
S'655'
p391
tp392
a(S'MPI_Bcast()'
p393
S'656'
p394
tp395
a(S'MPI_Bcast()'
p396
S'657'
p397
tp398
a(S'MPI_Bcast()'
p399
S'658'
p400
tp401
a(S'MPI_Bcast()'
p402
S'659'
p403
tp404
a(S'MPI_Bcast()'
p405
S'660'
p406
tp407
a(S'MPI_Bcast()'
p408
S'668'
p409
tp410
a(S'MPI_Bcast()'
p411
S'669'
p412
tp413
a(S'MPI_Bcast()'
p414
S'670'
p415
tp416
a(S'MPI_Bcast()'
p417
S'671'
p418
tp419
a(S'MPI_Bcast()'
p420
S'672'
p421
tp422
asS'geosci/lmp/alt/FLD/pair_lubricateU.cpp'
p423
(lp424
(S'MPI_Allreduce()'
p425
S'293'
p426
tp427
a(S'MPI_Allreduce()'
p428
S'320'
p429
tp430
a(S'MPI_Allreduce()'
p431
S'339'
p432
tp433
a(S'MPI_Allreduce()'
p434
S'489'
p435
tp436
a(S'MPI_Allreduce()'
p437
S'515'
p438
tp439
a(S'MPI_Allreduce()'
p440
S'534'
p441
tp442
a(S'MPI_Allreduce()'
p443
S'1924'
p444
tp445
a(S'MPI_Bcast()'
p446
S'1996'
p447
tp448
a(S'MPI_Bcast()'
p449
S'2002'
p450
tp451
a(S'MPI_Bcast()'
p452
S'2003'
p453
tp454
a(S'MPI_Bcast()'
p455
S'2041'
p456
tp457
a(S'MPI_Bcast()'
p458
S'2042'
p459
tp460
a(S'MPI_Bcast()'
p461
S'2043'
p462
tp463
a(S'MPI_Bcast()'
p464
S'2044'
p465
tp466
a(S'MPI_Bcast()'
p467
S'2045'
p468
tp469
a(S'MPI_Bcast()'
p470
S'2046'
p471
tp472
a(S'MPI_Bcast()'
p473
S'2047'
p474
tp475
a(S'MPI_Bcast()'
p476
S'2048'
p477
tp478
asS'geosci/lmp/alt/pair_dsmc.cpp'
p479
(lp480
(S'MPI_Bcast()'
p481
S'351'
p482
tp483
a(S'MPI_Bcast()'
p484
S'357'
p485
tp486
a(S'MPI_Bcast()'
p487
S'358'
p488
tp489
a(S'MPI_Bcast()'
p490
S'390'
p491
tp492
a(S'MPI_Bcast()'
p493
S'391'
p494
tp495
a(S'MPI_Bcast()'
p496
S'392'
p497
tp498
a(S'MPI_Bcast()'
p499
S'393'
p500
tp501
a(S'MPI_Bcast()'
p502
S'394'
p503
tp504
asS'geosci/lmp/alt/REPLICA/neb.cpp'
p505
(lp506
(S'MPI_Comm_rank()'
p507
S'67'
p508
tp509
a(S'MPI_Comm_free()'
p510
S'93'
p511
tp512
a(S'MPI_Comm_rank()'
p513
S'130'
p514
tp515
a(S'MPI_Comm_split()'
p516
S'162'
p517
tp518
a(S'MPI_Bcast()'
p519
S'349'
p520
tp521
a(S'MPI_Bcast()'
p522
S'350'
p523
tp524
a(S'MPI_Bcast()'
p525
S'351'
p526
tp527
a(S'MPI_Bcast()'
p528
S'352'
p529
tp530
a(S'MPI_Allreduce()'
p531
S'437'
p532
tp533
a(S'MPI_Allreduce()'
p534
S'440'
p535
tp536
a(S'MPI_Allgather()'
p537
S'450'
p538
tp539
asS'geosci/lmp/alt/KSPACE/pair_lj_long_coul_long.cpp'
p540
(lp541
(S'MPI_Bcast()'
p542
S'394'
p543
tp544
a(S'MPI_Bcast()'
p545
S'401'
p546
tp547
a(S'MPI_Bcast()'
p548
S'402'
p549
tp550
a(S'MPI_Bcast()'
p551
S'403'
p552
tp553
a(S'MPI_Bcast()'
p554
S'438'
p555
tp556
a(S'MPI_Bcast()'
p557
S'439'
p558
tp559
a(S'MPI_Bcast()'
p560
S'440'
p561
tp562
a(S'MPI_Bcast()'
p563
S'441'
p564
tp565
a(S'MPI_Bcast()'
p566
S'442'
p567
tp568
a(S'MPI_Bcast()'
p569
S'443'
p570
tp571
a(S'MPI_Bcast()'
p572
S'444'
p573
tp574
asS'geosci/lmp/alt/pair_yukawa.cpp'
p575
(lp576
(S'MPI_Bcast()'
p577
S'255'
p578
tp579
a(S'MPI_Bcast()'
p580
S'261'
p581
tp582
a(S'MPI_Bcast()'
p583
S'262'
p584
tp585
a(S'MPI_Bcast()'
p586
S'291'
p587
tp588
a(S'MPI_Bcast()'
p589
S'292'
p590
tp591
a(S'MPI_Bcast()'
p592
S'293'
p593
tp594
a(S'MPI_Bcast()'
p595
S'294'
p596
tp597
asS'geosci/lmp/alt/compute_ke.cpp'
p598
(lp599
(S'MPI_Allreduce()'
p600
S'69'
p601
tp602
asS'geosci/lmp/alt/domain.cpp'
p603
(lp604
(S'MPI_Allreduce()'
p605
S'331'
p606
tp607
a(S'MPI_Allreduce()'
p608
S'605'
p609
tp610
a(S'MPI_Allreduce()'
p611
S'659'
p612
tp613
a(S'MPI_Allreduce()'
p614
S'678'
p615
tp616
asS'geosci/lmp/alt/neighbor.cpp'
p617
(lp618
(S'MPI_Comm_rank()'
p619
S'74'
p620
tp621
a(S'MPI_Comm_size()'
p622
S'75'
p623
tp624
a(S'MPI_Allreduce()'
p625
S'1291'
p626
tp627
asS'geosci/lmp/alt/GPU/pair_lj_sf_dipole_sf_gpu.cpp'
p628
(lp629
(S'MPI_Wtime()'
p630
S'122'
p631
tp632
asS'geosci/lmp/alt/compute_temp_com.cpp'
p633
(lp634
(S'MPI_Allreduce()'
p635
S'115'
p636
tp637
a(S'MPI_Allreduce()'
p638
S'159'
p639
tp640
asS'geosci/lmp/alt/pair_coul_dsf.cpp'
p641
(lp642
(S'MPI_Bcast()'
p643
S'261'
p644
tp645
a(S'MPI_Bcast()'
p646
S'289'
p647
tp648
a(S'MPI_Bcast()'
p649
S'290'
p650
tp651
a(S'MPI_Bcast()'
p652
S'291'
p653
tp654
a(S'MPI_Bcast()'
p655
S'292'
p656
tp657
asS'geosci/lmp/alt/KSPACE/pppm.h'
p658
(lp659
(S'X_MPI_FFT_SCALAR()'
p660
S'28'
p661
tp662
a(S'X_MPI_FFT_SCALAR()'
p663
S'31'
p664
tp665
asS'geosci/lmp/alt/USER-CUDA/comm_cuda.cpp'
p666
(lp667
(S'MPI_Irecv()'
p668
S'219'
p669
tp670
a(S'MPI_Send()'
p671
S'229'
p672
tp673
a(S'MPI_Wait()'
p674
S'230'
p675
tp676
a(S'MPI_Irecv()'
p677
S'243'
p678
tp679
a(S'MPI_Send()'
p680
S'253'
p681
tp682
a(S'MPI_Wait()'
p683
S'254'
p684
tp685
a(S'MPI_Irecv()'
p686
S'259'
p687
tp688
a(S'MPI_Send()'
p689
S'269'
p690
tp691
a(S'MPI_Wait()'
p692
S'270'
p693
tp694
a(S'MPI_Irecv()'
p695
S'363'
p696
tp697
a(S'MPI_Send()'
p698
S'373'
p699
tp700
a(S'MPI_Wait()'
p701
S'374'
p702
tp703
a(S'MPI_Irecv()'
p704
S'448'
p705
tp706
a(S'MPI_Send()'
p707
S'462'
p708
tp709
a(S'MPI_Wait()'
p710
S'463'
p711
tp712
a(S'MPI_Irecv()'
p713
S'491'
p714
tp715
a(S'MPI_Send()'
p716
S'496'
p717
tp718
a(S'MPI_Wait()'
p719
S'497'
p720
tp721
a(S'MPI_Irecv()'
p722
S'508'
p723
tp724
a(S'MPI_Send()'
p725
S'518'
p726
tp727
a(S'MPI_Wait()'
p728
S'519'
p729
tp730
a(S'MPI_Irecv()'
p731
S'587'
p732
tp733
a(S'MPI_Send()'
p734
S'597'
p735
tp736
a(S'MPI_Wait()'
p737
S'598'
p738
tp739
a(S'MPI_Irecv()'
p740
S'652'
p741
tp742
a(S'MPI_Send()'
p743
S'654'
p744
tp745
a(S'MPI_Wait()'
p746
S'655'
p747
tp748
a(S'MPI_Irecv()'
p749
S'692'
p750
tp751
a(S'MPI_Send()'
p752
S'704'
p753
tp754
a(S'MPI_Wait()'
p755
S'706'
p756
tp757
a(S'MPI_Irecv()'
p758
S'710'
p759
tp760
a(S'MPI_Send()'
p761
S'713'
p762
tp763
a(S'MPI_Wait()'
p764
S'714'
p765
tp766
a(S'MPI_Sendrecv()'
p767
S'815'
p768
tp769
a(S'MPI_Sendrecv()'
p770
S'819'
p771
tp772
a(S'MPI_Irecv()'
p773
S'825'
p774
tp775
a(S'MPI_Send()'
p776
S'827'
p777
tp778
a(S'MPI_Wait()'
p779
S'828'
p780
tp781
a(S'MPI_Irecv()'
p782
S'831'
p783
tp784
a(S'MPI_Send()'
p785
S'833'
p786
tp787
a(S'MPI_Wait()'
p788
S'834'
p789
tp790
a(S'MPI_Sendrecv()'
p791
S'971'
p792
tp793
a(S'MPI_Irecv()'
p794
S'975'
p795
tp796
a(S'MPI_Send()'
p797
S'977'
p798
tp799
a(S'MPI_Wait()'
p800
S'978'
p801
tp802
a(S'MPI_Sendrecv()'
p803
S'1107'
p804
tp805
a(S'MPI_Irecv()'
p806
S'1111'
p807
tp808
a(S'MPI_Send()'
p809
S'1113'
p810
tp811
a(S'MPI_Wait()'
p812
S'1114'
p813
tp814
a(S'MPI_Irecv()'
p815
S'1198'
p816
tp817
a(S'MPI_Send()'
p818
S'1200'
p819
tp820
a(S'MPI_Wait()'
p821
S'1201'
p822
tp823
asS'geosci/lmp/alt/improper_fourier.cpp'
p824
(lp825
(S'MPI_Comm_rank()'
p826
S'157'
p827
tp828
a(S'MPI_Bcast()'
p829
S'338'
p830
tp831
a(S'MPI_Bcast()'
p832
S'339'
p833
tp834
a(S'MPI_Bcast()'
p835
S'340'
p836
tp837
a(S'MPI_Bcast()'
p838
S'341'
p839
tp840
a(S'MPI_Bcast()'
p841
S'342'
p842
tp843
asS'geosci/lmp/alt/fix_wall.cpp'
p844
(lp845
(S'MPI_Allreduce()'
p846
S'357'
p847
tp848
a(S'MPI_Allreduce()'
p849
S'372'
p850
tp851
asS'geosci/lmp/alt/GPU/pppm_gpu.cpp'
p852
(lp853
(S'MPI_Allreduce()'
p854
S'291'
p855
tp856
a(S'MPI_Allreduce()'
p857
S'304'
p858
tp859
asS'geosci/lmp/alt/USER-CUDA/pair_tersoff_zbl_cuda.cpp'
p860
(lp861
(S'MPI_Bcast()'
p862
S'101'
p863
tp864
a(S'MPI_Bcast()'
p865
S'103'
p866
tp867
a(S'MPI_Bcast()'
p868
S'104'
p869
tp870
a(S'MPI_Bcast()'
p871
S'123'
p872
tp873
a(S'MPI_Bcast()'
p874
S'125'
p875
tp876
a(S'MPI_Bcast()'
p877
S'126'
p878
tp879
asS'geosci/lmp/alt/MISC/compute_msd_nongauss.cpp'
p880
(lp881
(S'MPI_Allreduce()'
p882
S'100'
p883
tp884
asS'geosci/lmp/alt/pair_list.cpp'
p885
(lp886
(S'MPI_Allreduce()'
p887
S'183'
p888
tp889
asS'geosci/lmp/alt/read_restart.cpp'
p890
(lp891
(S'MPI_Comm_rank()'
p892
S'77'
p893
tp894
a(S'MPI_Comm_size()'
p895
S'78'
p896
tp897
a(S'MPI_Bcast()'
p898
S'89'
p899
tp900
a(S'MPI_Bcast()'
p901
S'90'
p902
tp903
a(S'MPI_Bcast()'
p904
S'122'
p905
tp906
a(S'MPI_Bcast()'
p907
S'191'
p908
tp909
a(S'MPI_Allreduce()'
p910
S'306'
p911
tp912
a(S'MPI_Allreduce()'
p913
S'348'
p914
tp915
a(S'MPI_Bcast()'
p916
S'717'
p917
tp918
a(S'MPI_Bcast()'
p919
S'742'
p920
tp921
a(S'MPI_Bcast()'
p922
S'756'
p923
tp924
a(S'MPI_Bcast()'
p925
S'766'
p926
tp927
a(S'MPI_Bcast()'
p928
S'776'
p929
tp930
a(S'MPI_Bcast()'
p931
S'786'
p932
tp933
a(S'MPI_Bcast()'
p934
S'842'
p935
tp936
a(S'MPI_Bcast()'
p937
S'857'
p938
tp939
a(S'MPI_Bcast()'
p940
S'873'
p941
tp942
a(S'MPI_Bcast()'
p943
S'879'
p944
tp945
a(S'MPI_Bcast()'
p946
S'894'
p947
tp948
asS'geosci/lmp/alt/GPU/pair_born_gpu.cpp'
p949
(lp950
(S'MPI_Wtime()'
p951
S'116'
p952
tp953
asS'geosci/lmp/alt/compute_erotate_sphere.cpp'
p954
(lp955
(S'MPI_Allreduce()'
p956
S'72'
p957
tp958
asS'geosci/lmp/alt/pair_beck.cpp'
p959
(lp960
(S'MPI_Bcast()'
p961
S'285'
p962
tp963
a(S'MPI_Bcast()'
p964
S'295'
p965
tp966
a(S'MPI_Bcast()'
p967
S'296'
p968
tp969
a(S'MPI_Bcast()'
p970
S'297'
p971
tp972
a(S'MPI_Bcast()'
p973
S'298'
p974
tp975
a(S'MPI_Bcast()'
p976
S'299'
p977
tp978
a(S'MPI_Bcast()'
p979
S'300'
p980
tp981
a(S'MPI_Bcast()'
p982
S'326'
p983
tp984
a(S'MPI_Bcast()'
p985
S'327'
p986
tp987
asS'geosci/lmp/alt/USER-CUDA/fft3d_cuda.cpp'
p988
(lp989
(S'MPI_Comm_rank()'
p990
S'182'
p991
tp992
a(S'MPI_Comm_size()'
p993
S'183'
p994
tp995
a(S'MPI_Allreduce()'
p996
S'222'
p997
tp998
a(S'MPI_Allreduce()'
p999
S'286'
p1000
tp1001
a(S'MPI_Allreduce()'
p1002
S'324'
p1003
tp1004
asS'geosci/lmp/alt/RIGID/fix_rigid.cpp'
p1005
(lp1006
(S'MPI_Comm_rank()'
p1007
S'70'
p1008
tp1009
a(S'MPI_Comm_size()'
p1010
S'71'
p1011
tp1012
a(S'MPI_Allreduce()'
p1013
S'132'
p1014
tp1015
a(S'MPI_Allreduce()'
p1016
S'143'
p1017
tp1018
a(S'MPI_Allreduce()'
p1019
S'198'
p1020
tp1021
a(S'MPI_Allreduce()'
p1022
S'503'
p1023
tp1024
a(S'MPI_Allreduce()'
p1025
S'689'
p1026
tp1027
a(S'MPI_Allreduce()'
p1028
S'738'
p1029
tp1030
a(S'MPI_Bcast()'
p1031
S'868'
p1032
tp1033
a(S'MPI_Allreduce()'
p1034
S'926'
p1035
tp1036
a(S'MPI_Allreduce()'
p1037
S'1145'
p1038
tp1039
a(S'MPI_Allreduce()'
p1040
S'1146'
p1041
tp1042
a(S'MPI_Allreduce()'
p1043
S'1568'
p1044
tp1045
a(S'MPI_Allreduce()'
p1046
S'1664'
p1047
tp1048
a(S'MPI_Allreduce()'
p1049
S'1785'
p1050
tp1051
a(S'MPI_Allreduce()'
p1052
S'1984'
p1053
tp1054
a(S'MPI_Allreduce()'
p1055
S'2107'
p1056
tp1057
a(S'MPI_Bcast()'
p1058
S'2156'
p1059
tp1060
asS'geosci/lmp/alt/timer.cpp'
p1061
(lp1062
(S'MPI_Wtime()'
p1063
S'47'
p1064
tp1065
a(S'MPI_Barrier()'
p1066
S'65'
p1067
tp1068
a(S'MPI_Barrier()'
p1069
S'73'
p1070
tp1071
asS'geosci/lmp/alt/GPU/pair_lj_cut_coul_dsf_gpu.cpp'
p1072
(lp1073
(S'MPI_Wtime()'
p1074
S'132'
p1075
tp1076
asS'geosci/lmp/alt/fix_nve_limit.cpp'
p1077
(lp1078
(S'MPI_Allreduce()'
p1079
S'227'
p1080
tp1081
asS'geosci/lmp/alt/set.cpp'
p1082
(lp1083
(S'MPI_Allreduce()'
p1084
S'413'
p1085
tp1086
asS'geosci/lmp/alt/fix_ave_correlate.cpp'
p1087
(lp1088
(S'MPI_Comm_rank()'
p1089
S'51'
p1090
tp1091
asS'geosci/lmp/alt/USER-OMP/fix_rigid_nh_omp.cpp'
p1092
(lp1093
(S'MPI_Allreduce()'
p1094
S'415'
p1095
tp1096
asS'geosci/lmp/alt/read_dump.cpp'
p1097
(lp1098
(S'MPI_Comm_rank()'
p1099
S'50'
p1100
tp1101
a(S'MPI_Comm_size()'
p1102
S'51'
p1103
tp1104
a(S'MPI_Allreduce()'
p1105
S'136'
p1106
tp1107
a(S'MPI_Allreduce()'
p1108
S'138'
p1109
tp1110
a(S'MPI_Allreduce()'
p1111
S'140'
p1112
tp1113
a(S'MPI_Allreduce()'
p1114
S'142'
p1115
tp1116
a(S'MPI_Bcast()'
p1117
S'246'
p1118
tp1119
a(S'MPI_Bcast()'
p1120
S'296'
p1121
tp1122
a(S'MPI_Bcast()'
p1123
S'316'
p1124
tp1125
a(S'MPI_Bcast()'
p1126
S'317'
p1127
tp1128
a(S'MPI_Bcast()'
p1129
S'318'
p1130
tp1131
a(S'MPI_Bcast()'
p1132
S'352'
p1133
tp1134
a(S'MPI_Bcast()'
p1135
S'353'
p1136
tp1137
a(S'MPI_Bcast()'
p1138
S'354'
p1139
tp1140
a(S'MPI_Bcast()'
p1141
S'355'
p1142
tp1143
a(S'MPI_Bcast()'
p1144
S'470'
p1145
tp1146
a(S'MPI_Allreduce()'
p1147
S'479'
p1148
tp1149
a(S'MPI_Allreduce()'
p1150
S'492'
p1151
tp1152
a(S'MPI_Allreduce()'
p1153
S'800'
p1154
tp1155
asS'geosci/lmp/alt/angle_cosine_shift_exp.cpp'
p1156
(lp1157
(S'MPI_Bcast()'
p1158
S'257'
p1159
tp1160
a(S'MPI_Bcast()'
p1161
S'258'
p1162
tp1163
a(S'MPI_Bcast()'
p1164
S'259'
p1165
tp1166
a(S'MPI_Bcast()'
p1167
S'260'
p1168
tp1169
a(S'MPI_Bcast()'
p1170
S'261'
p1171
tp1172
asS'geosci/lmp/alt/MISC/fix_gld.cpp'
p1173
(lp1174
(S'MPI_Allreduce()'
p1175
S'364'
p1176
tp1177
asS'geosci/lmp/alt/fix_restrain.cpp'
p1178
(lp1179
(S'MPI_Comm_rank()'
p1180
S'512'
p1181
tp1182
a(S'MPI_Allreduce()'
p1183
S'622'
p1184
tp1185
asS'geosci/lmp/alt/USER-AWPMD/pair_awpmd_cut.cpp'
p1186
(lp1187
(S'MPI_Bcast()'
p1188
S'618'
p1189
tp1190
a(S'MPI_Bcast()'
p1191
S'621'
p1192
tp1193
a(S'MPI_Bcast()'
p1194
S'648'
p1195
tp1196
a(S'MPI_Bcast()'
p1197
S'649'
p1198
tp1199
a(S'MPI_Bcast()'
p1200
S'650'
p1201
tp1202
asS'geosci/lmp/alt/compute_event_displace.cpp'
p1203
(lp1204
(S'MPI_Allreduce()'
p1205
S'142'
p1206
tp1207
asS'geosci/lmp/alt/REPLICA/fix_neb.cpp'
p1208
(lp1209
(S'MPI_Recv()'
p1210
S'149'
p1211
tp1212
a(S'MPI_Irecv()'
p1213
S'161'
p1214
tp1215
a(S'MPI_Send()'
p1216
S'163'
p1217
tp1218
a(S'MPI_Irecv()'
p1219
S'167'
p1220
tp1221
a(S'MPI_Send()'
p1222
S'169'
p1223
tp1224
a(S'MPI_Allreduce()'
p1225
S'184'
p1226
tp1227
asS'geosci/lmp/alt/USER-OMP/pppm_cg_omp.cpp'
p1228
(lp1229
(S'MPI_Allreduce()'
p1230
S'299'
p1231
tp1232
asS'geosci/lmp/alt/USER-MOLFILE/dump_molfile.cpp'
p1233
(lp1234
(S'MPI_Allreduce()'
p1235
S'197'
p1236
tp1237
a(S'MPI_Allreduce()'
p1238
S'198'
p1239
tp1240
a(S'MPI_Irecv()'
p1241
S'243'
p1242
tp1243
a(S'MPI_Send()'
p1244
S'244'
p1245
tp1246
a(S'MPI_Wait()'
p1247
S'245'
p1248
tp1249
a(S'MPI_Get_count()'
p1250
S'246'
p1251
tp1252
a(S'MPI_Recv()'
p1253
S'254'
p1254
tp1255
a(S'MPI_Rsend()'
p1256
S'255'
p1257
tp1258
asS'geosci/lmp/alt/write_restart.cpp'
p1259
(lp1260
(S'MPI_Comm_rank()'
p1261
S'66'
p1262
tp1263
a(S'MPI_Comm_size()'
p1264
S'67'
p1265
tp1266
a(S'MPI_Allreduce()'
p1267
S'136'
p1268
tp1269
a(S'MPI_Allreduce()'
p1270
S'183'
p1271
tp1272
a(S'MPI_Irecv()'
p1273
S'259'
p1274
tp1275
a(S'MPI_Send()'
p1276
S'260'
p1277
tp1278
a(S'MPI_Wait()'
p1279
S'261'
p1280
tp1281
a(S'MPI_Get_count()'
p1282
S'262'
p1283
tp1284
a(S'MPI_Recv()'
p1285
S'271'
p1286
tp1287
a(S'MPI_Rsend()'
p1288
S'272'
p1289
tp1290
asS'geosci/lmp/alt/fix_imd.cpp'
p1291
(lp1292
(S'MPI_Comm_rank()'
p1293
S'495'
p1294
tp1295
a(S'MPI_Bcast()'
p1296
S'525'
p1297
tp1298
a(S'MPI_Allreduce()'
p1299
S'698'
p1300
tp1301
a(S'MPI_Bcast()'
p1302
S'705'
p1303
tp1304
a(S'MPI_Bcast()'
p1305
S'706'
p1306
tp1307
a(S'MPI_Irecv()'
p1308
S'733'
p1309
tp1310
a(S'MPI_Send()'
p1311
S'734'
p1312
tp1313
a(S'MPI_Wait()'
p1314
S'735'
p1315
tp1316
a(S'MPI_Get_count()'
p1317
S'736'
p1318
tp1319
a(S'MPI_Recv()'
p1320
S'765'
p1321
tp1322
a(S'MPI_Rsend()'
p1323
S'766'
p1324
tp1325
a(S'MPI_Bcast()'
p1326
S'818'
p1327
tp1328
a(S'MPI_Bcast()'
p1329
S'819'
p1330
tp1331
a(S'MPI_Bcast()'
p1332
S'952'
p1333
tp1334
a(S'MPI_Bcast()'
p1335
S'953'
p1336
tp1337
a(S'MPI_Bcast()'
p1338
S'954'
p1339
tp1340
a(S'MPI_Bcast()'
p1341
S'955'
p1342
tp1343
a(S'MPI_Bcast()'
p1344
S'968'
p1345
tp1346
a(S'MPI_Allreduce()'
p1347
S'1007'
p1348
tp1349
a(S'MPI_Irecv()'
p1350
S'1072'
p1351
tp1352
a(S'MPI_Send()'
p1353
S'1073'
p1354
tp1355
a(S'MPI_Wait()'
p1356
S'1074'
p1357
tp1358
a(S'MPI_Get_count()'
p1359
S'1075'
p1360
tp1361
a(S'MPI_Recv()'
p1362
S'1147'
p1363
tp1364
a(S'MPI_Rsend()'
p1365
S'1148'
p1366
tp1367
asS'geosci/lmp/alt/min_cg.cpp'
p1368
(lp1369
(S'MPI_Allreduce()'
p1370
S'106'
p1371
tp1372
a(S'MPI_Allreduce()'
p1373
S'156'
p1374
tp1375
asS'geosci/lmp/alt/KSPACE/pair_tip4p_long.cpp'
p1376
(lp1377
(S'MPI_Bcast()'
p1378
S'474'
p1379
tp1380
a(S'MPI_Bcast()'
p1381
S'475'
p1382
tp1383
a(S'MPI_Bcast()'
p1384
S'476'
p1385
tp1386
a(S'MPI_Bcast()'
p1387
S'477'
p1388
tp1389
a(S'MPI_Bcast()'
p1390
S'478'
p1391
tp1392
asS'geosci/lmp/alt/GPU/pair_born_coul_long_gpu.cpp'
p1393
(lp1394
(S'MPI_Wtime()'
p1395
S'135'
p1396
tp1397
asS'geosci/lmp/alt/fix_addtorque.cpp'
p1398
(lp1399
(S'MPI_Allreduce()'
p1400
S'215'
p1401
tp1402
a(S'MPI_Allreduce()'
p1403
S'271'
p1404
tp1405
a(S'MPI_Allreduce()'
p1406
S'286'
p1407
tp1408
asS'geosci/lmp/alt/USER-REAXC/reaxc_init_md.cpp'
p1409
(lp1410
(S'MPI_Barrier()'
p1411
S'262'
p1412
tp1413
a(S'MPI_Abort()'
p1414
S'354'
p1415
tp1416
a(S'MPI_Comm_size()'
p1417
S'415'
p1418
tp1419
a(S'MPI_Address()'
p1420
S'429'
p1421
tp1422
a(S'MPI_Address()'
p1423
S'430'
p1424
tp1425
a(S'MPI_Address()'
p1426
S'431'
p1427
tp1428
a(S'MPI_Address()'
p1429
S'432'
p1430
tp1431
a(S'MPI_Address()'
p1432
S'433'
p1433
tp1434
a(S'MPI_Address()'
p1435
S'434'
p1436
tp1437
a(S'MPI_Address()'
p1438
S'435'
p1439
tp1440
a(S'MPI_Address()'
p1441
S'436'
p1442
tp1443
a(S'MPI_Address()'
p1444
S'437'
p1445
tp1446
a(S'MPI_Address()'
p1447
S'438'
p1448
tp1449
a(S'MPI_Address()'
p1450
S'439'
p1451
tp1452
a(S'MPI_Type_struct()'
p1453
S'448'
p1454
tp1455
a(S'MPI_Type_commit()'
p1456
S'449'
p1457
tp1458
a(S'MPI_Address()'
p1459
S'455'
p1460
tp1461
a(S'MPI_Address()'
p1462
S'456'
p1463
tp1464
a(S'MPI_Address()'
p1465
S'457'
p1466
tp1467
a(S'MPI_Address()'
p1468
S'458'
p1469
tp1470
a(S'MPI_Address()'
p1471
S'459'
p1472
tp1473
a(S'MPI_Address()'
p1474
S'460'
p1475
tp1476
a(S'MPI_Type_struct()'
p1477
S'468'
p1478
tp1479
a(S'MPI_Type_commit()'
p1480
S'469'
p1481
tp1482
a(S'MPI_Address()'
p1483
S'473'
p1484
tp1485
a(S'MPI_Type_struct()'
p1486
S'477'
p1487
tp1488
a(S'MPI_Type_commit()'
p1489
S'478'
p1490
tp1491
a(S'MPI_Address()'
p1492
S'482'
p1493
tp1494
a(S'MPI_Type_struct()'
p1495
S'486'
p1496
tp1497
a(S'MPI_Type_commit()'
p1498
S'487'
p1499
tp1500
a(S'MPI_Address()'
p1501
S'494'
p1502
tp1503
a(S'MPI_Address()'
p1504
S'495'
p1505
tp1506
a(S'MPI_Address()'
p1507
S'496'
p1508
tp1509
a(S'MPI_Address()'
p1510
S'497'
p1511
tp1512
a(S'MPI_Address()'
p1513
S'498'
p1514
tp1515
a(S'MPI_Type_struct()'
p1516
S'507'
p1517
tp1518
a(S'MPI_Type_commit()'
p1519
S'508'
p1520
tp1521
a(S'MPI_Abort()'
p1522
S'534'
p1523
tp1524
a(S'MPI_Abort()'
p1525
S'569'
p1526
tp1527
a(S'MPI_Abort()'
p1528
S'591'
p1529
tp1530
a(S'MPI_Abort()'
p1531
S'604'
p1532
tp1533
a(S'MPI_Abort()'
p1534
S'616'
p1535
tp1536
a(S'MPI_Abort()'
p1537
S'624'
p1538
tp1539
a(S'MPI_Abort()'
p1540
S'669'
p1541
tp1542
a(S'MPI_Abort()'
p1543
S'691'
p1544
tp1545
a(S'MPI_Abort()'
p1546
S'704'
p1547
tp1548
a(S'MPI_Abort()'
p1549
S'716'
p1550
tp1551
a(S'MPI_Abort()'
p1552
S'724'
p1553
tp1554
a(S'MPI_Abort()'
p1555
S'754'
p1556
tp1557
a(S'MPI_Abort()'
p1558
S'764'
p1559
tp1560
a(S'MPI_Abort()'
p1561
S'774'
p1562
tp1563
a(S'MPI_Abort()'
p1564
S'786'
p1565
tp1566
a(S'MPI_Abort()'
p1567
S'797'
p1568
tp1569
a(S'MPI_Abort()'
p1570
S'807'
p1571
tp1572
a(S'MPI_Abort()'
p1573
S'818'
p1574
tp1575
a(S'MPI_Abort()'
p1576
S'849'
p1577
tp1578
a(S'MPI_Abort()'
p1579
S'859'
p1580
tp1581
a(S'MPI_Abort()'
p1582
S'869'
p1583
tp1584
a(S'MPI_Abort()'
p1585
S'881'
p1586
tp1587
a(S'MPI_Abort()'
p1588
S'892'
p1589
tp1590
a(S'MPI_Abort()'
p1591
S'902'
p1592
tp1593
a(S'MPI_Abort()'
p1594
S'913'
p1595
tp1596
asS'geosci/lmp/alt/USER-CUDA/modify_cuda.cpp'
p1597
(lp1598
(S'MPI_Allreduce()'
p1599
S'223'
p1600
tp1601
asS'geosci/lmp/alt/GPU/pair_eam_alloy_gpu.cpp'
p1602
(lp1603
(S'MPI_Bcast()'
p1604
S'143'
p1605
tp1606
a(S'MPI_Bcast()'
p1607
S'144'
p1608
tp1609
a(S'MPI_Bcast()'
p1610
S'170'
p1611
tp1612
a(S'MPI_Bcast()'
p1613
S'171'
p1614
tp1615
a(S'MPI_Bcast()'
p1616
S'172'
p1617
tp1618
a(S'MPI_Bcast()'
p1619
S'173'
p1620
tp1621
a(S'MPI_Bcast()'
p1622
S'174'
p1623
tp1624
a(S'MPI_Bcast()'
p1625
S'188'
p1626
tp1627
a(S'MPI_Bcast()'
p1628
S'191'
p1629
tp1630
a(S'MPI_Bcast()'
p1631
S'193'
p1632
tp1633
a(S'MPI_Bcast()'
p1634
S'199'
p1635
tp1636
asS'geosci/lmp/alt/bond_harmonic_shift_cut.cpp'
p1637
(lp1638
(S'MPI_Bcast()'
p1639
S'184'
p1640
tp1641
a(S'MPI_Bcast()'
p1642
S'185'
p1643
tp1644
a(S'MPI_Bcast()'
p1645
S'186'
p1646
tp1647
asS'geosci/lmp/alt/write_data.cpp'
p1648
(lp1649
(S'MPI_Comm_rank()'
p1650
S'47'
p1651
tp1652
a(S'MPI_Comm_size()'
p1653
S'48'
p1654
tp1655
a(S'MPI_Allreduce()'
p1656
S'135'
p1657
tp1658
a(S'MPI_Allreduce()'
p1659
S'144'
p1660
tp1661
a(S'MPI_Allreduce()'
p1662
S'148'
p1663
tp1664
a(S'MPI_Allreduce()'
p1665
S'299'
p1666
tp1667
a(S'MPI_Irecv()'
p1668
S'321'
p1669
tp1670
a(S'MPI_Send()'
p1671
S'322'
p1672
tp1673
a(S'MPI_Wait()'
p1674
S'323'
p1675
tp1676
a(S'MPI_Get_count()'
p1677
S'324'
p1678
tp1679
a(S'MPI_Recv()'
p1680
S'332'
p1681
tp1682
a(S'MPI_Rsend()'
p1683
S'333'
p1684
tp1685
a(S'MPI_Allreduce()'
p1686
S'352'
p1687
tp1688
a(S'MPI_Irecv()'
p1689
S'374'
p1690
tp1691
a(S'MPI_Send()'
p1692
S'375'
p1693
tp1694
a(S'MPI_Wait()'
p1695
S'376'
p1696
tp1697
a(S'MPI_Get_count()'
p1698
S'377'
p1699
tp1700
a(S'MPI_Recv()'
p1701
S'385'
p1702
tp1703
a(S'MPI_Rsend()'
p1704
S'386'
p1705
tp1706
a(S'MPI_Allreduce()'
p1707
S'403'
p1708
tp1709
a(S'MPI_Irecv()'
p1710
S'426'
p1711
tp1712
a(S'MPI_Send()'
p1713
S'427'
p1714
tp1715
a(S'MPI_Wait()'
p1716
S'428'
p1717
tp1718
a(S'MPI_Get_count()'
p1719
S'429'
p1720
tp1721
a(S'MPI_Recv()'
p1722
S'438'
p1723
tp1724
a(S'MPI_Rsend()'
p1725
S'439'
p1726
tp1727
a(S'MPI_Allreduce()'
p1728
S'456'
p1729
tp1730
a(S'MPI_Irecv()'
p1731
S'479'
p1732
tp1733
a(S'MPI_Send()'
p1734
S'480'
p1735
tp1736
a(S'MPI_Wait()'
p1737
S'481'
p1738
tp1739
a(S'MPI_Get_count()'
p1740
S'482'
p1741
tp1742
a(S'MPI_Recv()'
p1743
S'491'
p1744
tp1745
a(S'MPI_Rsend()'
p1746
S'492'
p1747
tp1748
a(S'MPI_Allreduce()'
p1749
S'527'
p1750
tp1751
a(S'MPI_Irecv()'
p1752
S'550'
p1753
tp1754
a(S'MPI_Send()'
p1755
S'551'
p1756
tp1757
a(S'MPI_Wait()'
p1758
S'552'
p1759
tp1760
a(S'MPI_Get_count()'
p1761
S'553'
p1762
tp1763
a(S'MPI_Recv()'
p1764
S'562'
p1765
tp1766
a(S'MPI_Rsend()'
p1767
S'563'
p1768
tp1769
a(S'MPI_Allreduce()'
p1770
S'598'
p1771
tp1772
a(S'MPI_Irecv()'
p1773
S'621'
p1774
tp1775
a(S'MPI_Send()'
p1776
S'622'
p1777
tp1778
a(S'MPI_Wait()'
p1779
S'623'
p1780
tp1781
a(S'MPI_Get_count()'
p1782
S'624'
p1783
tp1784
a(S'MPI_Recv()'
p1785
S'633'
p1786
tp1787
a(S'MPI_Rsend()'
p1788
S'634'
p1789
tp1790
a(S'MPI_Allreduce()'
p1791
S'651'
p1792
tp1793
a(S'MPI_Irecv()'
p1794
S'674'
p1795
tp1796
a(S'MPI_Send()'
p1797
S'675'
p1798
tp1799
a(S'MPI_Wait()'
p1800
S'676'
p1801
tp1802
a(S'MPI_Get_count()'
p1803
S'677'
p1804
tp1805
a(S'MPI_Recv()'
p1806
S'686'
p1807
tp1808
a(S'MPI_Rsend()'
p1809
S'687'
p1810
tp1811
asS'geosci/lmp/alt/USER-REAXC/fix_reaxc_bonds.cpp'
p1812
(lp1813
(S'MPI_Comm_rank()'
p1814
S'51'
p1815
tp1816
a(S'MPI_Comm_size()'
p1817
S'52'
p1818
tp1819
a(S'MPI_Comm_rank()'
p1820
S'85'
p1821
tp1822
a(S'MPI_Allreduce()'
p1823
S'159'
p1824
tp1825
a(S'MPI_Allreduce()'
p1826
S'160'
p1827
tp1828
a(S'MPI_Irecv()'
p1829
S'277'
p1830
tp1831
a(S'MPI_Wait()'
p1832
S'278'
p1833
tp1834
a(S'MPI_Isend()'
p1835
S'310'
p1836
tp1837
a(S'MPI_Wait()'
p1838
S'311'
p1839
tp1840
asS'geosci/lmp/alt/GPU/pair_lj_sdk_coul_long_gpu.cpp'
p1841
(lp1842
(S'MPI_Wtime()'
p1843
S'133'
p1844
tp1845
asS'geosci/lmp/alt/min.cpp'
p1846
(lp1847
(S'MPI_Allreduce()'
p1848
S'219'
p1849
tp1850
a(S'MPI_Allreduce()'
p1851
S'735'
p1852
tp1853
a(S'MPI_Allreduce()'
p1854
S'766'
p1855
tp1856
asS'geosci/lmp/alt/dihedral_fourier.cpp'
p1857
(lp1858
(S'MPI_Comm_rank()'
p1859
S'149'
p1860
tp1861
a(S'MPI_Bcast()'
p1862
S'374'
p1863
tp1864
a(S'MPI_Bcast()'
p1865
S'394'
p1866
tp1867
a(S'MPI_Bcast()'
p1868
S'395'
p1869
tp1870
a(S'MPI_Bcast()'
p1871
S'396'
p1872
tp1873
asS'geosci/lmp/alt/MOLECULE/pair_tip4p_cut.cpp'
p1874
(lp1875
(S'MPI_Bcast()'
p1876
S'471'
p1877
tp1878
a(S'MPI_Bcast()'
p1879
S'506'
p1880
tp1881
a(S'MPI_Bcast()'
p1882
S'507'
p1883
tp1884
a(S'MPI_Bcast()'
p1885
S'508'
p1886
tp1887
a(S'MPI_Bcast()'
p1888
S'509'
p1889
tp1890
a(S'MPI_Bcast()'
p1891
S'510'
p1892
tp1893
a(S'MPI_Bcast()'
p1894
S'512'
p1895
tp1896
asS'geosci/lmp/alt/dihedral_hybrid.cpp'
p1897
(lp1898
(S'MPI_Bcast()'
p1899
S'321'
p1900
tp1901
a(S'MPI_Bcast()'
p1902
S'330'
p1903
tp1904
a(S'MPI_Bcast()'
p1905
S'333'
p1906
tp1907
asS'geosci/lmp/alt/FLD/pair_lubricateU_poly.cpp'
p1908
(lp1909
(S'MPI_Allreduce()'
p1910
S'234'
p1911
tp1912
a(S'MPI_Allreduce()'
p1913
S'260'
p1914
tp1915
a(S'MPI_Allreduce()'
p1916
S'279'
p1917
tp1918
a(S'MPI_Allreduce()'
p1919
S'1259'
p1920
tp1921
asS'geosci/lmp/alt/fix_addforce.cpp'
p1922
(lp1923
(S'MPI_Allreduce()'
p1924
S'327'
p1925
tp1926
a(S'MPI_Allreduce()'
p1927
S'342'
p1928
tp1929
asS'geosci/lmp/alt/pair_edip.cpp'
p1930
(lp1931
(S'MPI_Bcast()'
p1932
S'906'
p1933
tp1934
a(S'MPI_Bcast()'
p1935
S'908'
p1936
tp1937
a(S'MPI_Bcast()'
p1938
S'909'
p1939
tp1940
a(S'MPI_Bcast()'
p1941
S'928'
p1942
tp1943
a(S'MPI_Bcast()'
p1944
S'930'
p1945
tp1946
a(S'MPI_Bcast()'
p1947
S'931'
p1948
tp1949
asS'geosci/lmp/alt/USER-CUDA/pair_gran_hooke_cuda.cpp'
p1950
(lp1951
(S'MPI_Allreduce()'
p1952
S'211'
p1953
tp1954
a(S'X_MPI_DOUBLE()'
p1955
S'212'
p1956
tp1957
a(S'MPI_Allreduce()'
p1958
S'213'
p1959
tp1960
a(S'X_MPI_DOUBLE()'
p1961
S'214'
p1962
tp1963
asS'geosci/lmp/alt/neb.cpp'
p1964
(lp1965
(S'MPI_Comm_rank()'
p1966
S'67'
p1967
tp1968
a(S'MPI_Comm_free()'
p1969
S'93'
p1970
tp1971
a(S'MPI_Comm_rank()'
p1972
S'130'
p1973
tp1974
a(S'MPI_Comm_split()'
p1975
S'162'
p1976
tp1977
a(S'MPI_Bcast()'
p1978
S'349'
p1979
tp1980
a(S'MPI_Bcast()'
p1981
S'350'
p1982
tp1983
a(S'MPI_Bcast()'
p1984
S'351'
p1985
tp1986
a(S'MPI_Bcast()'
p1987
S'352'
p1988
tp1989
a(S'MPI_Allreduce()'
p1990
S'437'
p1991
tp1992
a(S'MPI_Allreduce()'
p1993
S'440'
p1994
tp1995
a(S'MPI_Allgather()'
p1996
S'450'
p1997
tp1998
asS'geosci/lmp/alt/USER-MISC/bond_harmonic_shift.cpp'
p1999
(lp2000
(S'MPI_Bcast()'
p2001
S'183'
p2002
tp2003
a(S'MPI_Bcast()'
p2004
S'184'
p2005
tp2006
a(S'MPI_Bcast()'
p2007
S'185'
p2008
tp2009
asS'geosci/lmp/alt/change_box.cpp'
p2010
(lp2011
(S'MPI_Allreduce()'
p2012
S'374'
p2013
tp2014
asS'geosci/lmp/alt/MISC/compute_ti.cpp'
p2015
(lp2016
(S'MPI_Allreduce()'
p2017
S'178'
p2018
tp2019
a(S'MPI_Allreduce()'
p2020
S'191'
p2021
tp2022
a(S'MPI_Allreduce()'
p2023
S'232'
p2024
tp2025
asS'geosci/lmp/alt/USER-CUDA/fix_set_force_cuda.cpp'
p2026
(lp2027
(S'MPI_Allreduce()'
p2028
S'179'
p2029
tp2030
asS'geosci/lmp/alt/POEMS/fix_poems.cpp'
p2031
(lp2032
(S'MPI_Comm_rank()'
p2033
S'75'
p2034
tp2035
a(S'MPI_Allreduce()'
p2036
S'166'
p2037
tp2038
a(S'MPI_Allreduce()'
p2039
S'176'
p2040
tp2041
a(S'MPI_Allreduce()'
p2042
S'205'
p2043
tp2044
a(S'MPI_Allreduce()'
p2045
S'237'
p2046
tp2047
a(S'MPI_Allreduce()'
p2048
S'409'
p2049
tp2050
a(S'MPI_Allreduce()'
p2051
S'450'
p2052
tp2053
a(S'MPI_Allreduce()'
p2054
S'585'
p2055
tp2056
a(S'MPI_Allreduce()'
p2057
S'650'
p2058
tp2059
a(S'MPI_Allreduce()'
p2060
S'760'
p2061
tp2062
a(S'MPI_Allreduce()'
p2063
S'854'
p2064
tp2065
a(S'MPI_Allreduce()'
p2066
S'868'
p2067
tp2068
a(S'MPI_Bcast()'
p2069
S'916'
p2070
tp2071
a(S'MPI_Bcast()'
p2072
S'918'
p2073
tp2074
a(S'MPI_Allreduce()'
p2075
S'1002'
p2076
tp2077
a(S'MPI_Comm_size()'
p2078
S'1007'
p2079
tp2080
a(S'MPI_Allgather()'
p2081
S'1011'
p2082
tp2083
a(S'MPI_Allgatherv()'
p2084
S'1022'
p2085
tp2086
a(S'MPI_Allgatherv()'
p2087
S'1025'
p2088
tp2089
a(S'MPI_Allreduce()'
p2090
S'1084'
p2091
tp2092
asS'geosci/lmp/alt/USER-OMP/pair_eam_alloy_omp.cpp'
p2093
(lp2094
(S'MPI_Bcast()'
p2095
S'143'
p2096
tp2097
a(S'MPI_Bcast()'
p2098
S'144'
p2099
tp2100
a(S'MPI_Bcast()'
p2101
S'170'
p2102
tp2103
a(S'MPI_Bcast()'
p2104
S'171'
p2105
tp2106
a(S'MPI_Bcast()'
p2107
S'172'
p2108
tp2109
a(S'MPI_Bcast()'
p2110
S'173'
p2111
tp2112
a(S'MPI_Bcast()'
p2113
S'174'
p2114
tp2115
a(S'MPI_Bcast()'
p2116
S'188'
p2117
tp2118
a(S'MPI_Bcast()'
p2119
S'191'
p2120
tp2121
a(S'MPI_Bcast()'
p2122
S'193'
p2123
tp2124
a(S'MPI_Bcast()'
p2125
S'199'
p2126
tp2127
asS'geosci/lmp/alt/RIGID/fix_rigid_nh.cpp'
p2128
(lp2129
(S'MPI_Allreduce()'
p2130
S'682'
p2131
tp2132
asS'geosci/lmp/alt/MOLECULE/angle_harmonic.cpp'
p2133
(lp2134
(S'MPI_Bcast()'
p2135
S'218'
p2136
tp2137
a(S'MPI_Bcast()'
p2138
S'219'
p2139
tp2140
asS'geosci/lmp/alt/USER-REAXC/reaxc_io_tools.cpp'
p2141
(lp2142
(S'MPI_Bcast()'
p2143
S'190'
p2144
tp2145
a(S'MPI_Abort()'
p2146
S'743'
p2147
tp2148
a(S'MPI_Abort()'
p2149
S'771'
p2150
tp2151
asS'geosci/lmp/alt/USER-MISC/pair_meam_spline.cpp'
p2152
(lp2153
(S'MPI_Bcast()'
p2154
S'652'
p2155
tp2156
a(S'MPI_Bcast()'
p2157
S'653'
p2158
tp2159
a(S'MPI_Bcast()'
p2160
S'654'
p2161
tp2162
a(S'MPI_Bcast()'
p2163
S'655'
p2164
tp2165
a(S'MPI_Bcast()'
p2166
S'656'
p2167
tp2168
a(S'MPI_Bcast()'
p2169
S'657'
p2170
tp2171
a(S'MPI_Bcast()'
p2172
S'658'
p2173
tp2174
a(S'MPI_Bcast()'
p2175
S'659'
p2176
tp2177
a(S'MPI_Bcast()'
p2178
S'660'
p2179
tp2180
a(S'MPI_Bcast()'
p2181
S'668'
p2182
tp2183
a(S'MPI_Bcast()'
p2184
S'669'
p2185
tp2186
a(S'MPI_Bcast()'
p2187
S'670'
p2188
tp2189
a(S'MPI_Bcast()'
p2190
S'671'
p2191
tp2192
a(S'MPI_Bcast()'
p2193
S'672'
p2194
tp2195
asS'geosci/lmp/alt/compute_slice.cpp'
p2196
(lp2197
(S'MPI_Comm_rank()'
p2198
S'39'
p2199
tp2200
asS'geosci/lmp/alt/MISC/fix_ttm.cpp'
p2201
(lp2202
(S'MPI_Comm_rank()'
p2203
S'78'
p2204
tp2205
a(S'MPI_Bcast()'
p2206
S'151'
p2207
tp2208
a(S'MPI_Allreduce()'
p2209
S'398'
p2210
tp2211
a(S'MPI_Allreduce()'
p2212
S'507'
p2213
tp2214
a(S'X_MPI_INT()'
p2215
S'508'
p2216
tp2217
a(S'MPI_Allreduce()'
p2218
S'509'
p2219
tp2220
a(S'X_MPI_DOUBLE()'
p2221
S'510'
p2222
tp2223
a(S'MPI_Allreduce()'
p2224
S'511'
p2225
tp2226
asS'geosci/lmp/alt/KSPACE/ewald_disp.cpp'
p2227
(lp2228
(S'MPI_Allreduce()'
p2229
S'541'
p2230
tp2231
a(S'MPI_Allreduce()'
p2232
S'750'
p2233
tp2234
a(S'MPI_Allreduce()'
p2235
S'879'
p2236
tp2237
a(S'MPI_Allreduce()'
p2238
S'1191'
p2239
tp2240
a(S'MPI_Allreduce()'
p2241
S'1351'
p2242
tp2243
a(S'MPI_Allreduce()'
p2244
S'1364'
p2245
tp2246
asS'geosci/lmp/alt/SRD/fix_srd.cpp'
p2247
(lp2248
(S'MPI_Allreduce()'
p2249
S'412'
p2250
tp2251
a(S'MPI_Allreduce()'
p2252
S'797'
p2253
tp2254
a(S'MPI_Irecv()'
p2255
S'1077'
p2256
tp2257
a(S'MPI_Irecv()'
p2258
S'1080'
p2259
tp2260
a(S'MPI_Send()'
p2261
S'1084'
p2262
tp2263
a(S'MPI_Send()'
p2264
S'1089'
p2265
tp2266
a(S'MPI_Wait()'
p2267
S'1093'
p2268
tp2269
a(S'MPI_Wait()'
p2270
S'1097'
p2271
tp2272
a(S'MPI_Allreduce()'
p2273
S'2468'
p2274
tp2275
a(S'MPI_Allreduce()'
p2276
S'2470'
p2277
tp2278
a(S'MPI_Allreduce()'
p2279
S'2476'
p2280
tp2281
a(S'MPI_Allreduce()'
p2282
S'2478'
p2283
tp2284
a(S'MPI_Allreduce()'
p2285
S'2480'
p2286
tp2287
a(S'MPI_Allreduce()'
p2288
S'2514'
p2289
tp2290
a(S'MPI_Allreduce()'
p2291
S'2581'
p2292
tp2293
a(S'MPI_Allreduce()'
p2294
S'2599'
p2295
tp2296
a(S'MPI_Allreduce()'
p2297
S'3712'
p2298
tp2299
a(S'MPI_Allreduce()'
p2300
S'3713'
p2301
tp2302
a(S'MPI_Allreduce()'
p2303
S'3745'
p2304
tp2305
a(S'MPI_Allreduce()'
p2306
S'3750'
p2307
tp2308
asS'geosci/lmp/alt/USER-MISC/dihedral_quadratic.cpp'
p2309
(lp2310
(S'MPI_Comm_rank()'
p2311
S'161'
p2312
tp2313
a(S'MPI_Bcast()'
p2314
S'329'
p2315
tp2316
a(S'MPI_Bcast()'
p2317
S'330'
p2318
tp2319
asS'geosci/lmp/alt/USER-REAXC/pair_reax_c.cpp'
p2320
(lp2321
(S'MPI_Comm_rank()'
p2322
S'91'
p2323
tp2324
a(S'MPI_Wtime()'
p2325
S'481'
p2326
tp2327
asS'geosci/lmp/alt/compute_pair.cpp'
p2328
(lp2329
(S'MPI_Allreduce()'
p2330
S'105'
p2331
tp2332
a(S'MPI_Allreduce()'
p2333
S'119'
p2334
tp2335
asS'geosci/lmp/alt/PERI/pair_peri_pmb.cpp'
p2336
(lp2337
(S'MPI_Bcast()'
p2338
S'425'
p2339
tp2340
a(S'MPI_Bcast()'
p2341
S'433'
p2342
tp2343
a(S'MPI_Bcast()'
p2344
S'434'
p2345
tp2346
a(S'MPI_Bcast()'
p2347
S'435'
p2348
tp2349
a(S'MPI_Bcast()'
p2350
S'436'
p2351
tp2352
asS'geosci/lmp/alt/GPU/pair_coul_dsf_gpu.cpp'
p2353
(lp2354
(S'MPI_Wtime()'
p2355
S'131'
p2356
tp2357
asS'geosci/mod/nbody.cc~'
p2358
(lp2359
(S'MPI_Allgather()'
p2360
S'80'
p2361
tp2362
a(S'MPI_Allgather()'
p2363
S'81'
p2364
tp2365
a(S'MPI_Allgather()'
p2366
S'82'
p2367
tp2368
a(S'MPI_Init()'
p2369
S'90'
p2370
tp2371
a(S'MPI_Comm_size()'
p2372
S'91'
p2373
tp2374
a(S'MPI_Comm_rank()'
p2375
S'92'
p2376
tp2377
a(S'MPI_Allgather()'
p2378
S'123'
p2379
tp2380
a(S'MPI_Allgather()'
p2381
S'124'
p2382
tp2383
a(S'MPI_Allgather()'
p2384
S'125'
p2385
tp2386
a(S'MPI_Allgather()'
p2387
S'126'
p2388
tp2389
a(S'MPI_Allgather()'
p2390
S'127'
p2391
tp2392
a(S'MPI_Allgather()'
p2393
S'128'
p2394
tp2395
a(S'MPI_Finalize()'
p2396
S'182'
p2397
tp2398
asS'geosci/lmp/alt/BODY/compute_body_local.cpp'
p2399
(lp2400
(S'MPI_Allreduce()'
p2401
S'99'
p2402
tp2403
asS'geosci/lmp/alt/GPU/pair_yukawa_colloid_gpu.cpp'
p2404
(lp2405
(S'MPI_Wtime()'
p2406
S'120'
p2407
tp2408
asS'geosci/lmp/alt/atom_vec_line.cpp'
p2409
(lp2410
(S'MPI_Abort()'
p2411
S'1295'
p2412
tp2413
a(S'MPI_Abort()'
p2414
S'1302'
p2415
tp2416
asS'geosci/lmp/alt/GPU/pair_gauss_gpu.cpp'
p2417
(lp2418
(S'MPI_Wtime()'
p2419
S'113'
p2420
tp2421
asS'geosci/lmp/alt/compute_pressure.cpp'
p2422
(lp2423
(S'MPI_Allreduce()'
p2424
S'266'
p2425
tp2426
asS'geosci/lmp/alt/USER-EFF/compute_temp_deform_eff.cpp'
p2427
(lp2428
(S'MPI_Allreduce()'
p2429
S'114'
p2430
tp2431
a(S'MPI_Allreduce()'
p2432
S'168'
p2433
tp2434
a(S'MPI_Allreduce()'
p2435
S'223'
p2436
tp2437
asS'geosci/lmp/alt/MANYBODY/pair_lcbop.cpp'
p2438
(lp2439
(S'MPI_Comm_rank()'
p2440
S'973'
p2441
tp2442
a(S'MPI_Bcast()'
p2443
S'1064'
p2444
tp2445
a(S'MPI_Bcast()'
p2446
S'1065'
p2447
tp2448
a(S'MPI_Bcast()'
p2449
S'1066'
p2450
tp2451
a(S'MPI_Bcast()'
p2452
S'1067'
p2453
tp2454
a(S'MPI_Bcast()'
p2455
S'1068'
p2456
tp2457
a(S'MPI_Bcast()'
p2458
S'1069'
p2459
tp2460
a(S'MPI_Bcast()'
p2461
S'1070'
p2462
tp2463
a(S'MPI_Bcast()'
p2464
S'1071'
p2465
tp2466
a(S'MPI_Bcast()'
p2467
S'1072'
p2468
tp2469
a(S'MPI_Bcast()'
p2470
S'1073'
p2471
tp2472
a(S'MPI_Bcast()'
p2473
S'1074'
p2474
tp2475
a(S'MPI_Bcast()'
p2476
S'1075'
p2477
tp2478
a(S'MPI_Bcast()'
p2479
S'1076'
p2480
tp2481
a(S'MPI_Bcast()'
p2482
S'1077'
p2483
tp2484
a(S'MPI_Bcast()'
p2485
S'1078'
p2486
tp2487
a(S'MPI_Bcast()'
p2488
S'1079'
p2489
tp2490
a(S'MPI_Bcast()'
p2491
S'1080'
p2492
tp2493
a(S'MPI_Bcast()'
p2494
S'1081'
p2495
tp2496
a(S'MPI_Bcast()'
p2497
S'1082'
p2498
tp2499
a(S'MPI_Bcast()'
p2500
S'1083'
p2501
tp2502
a(S'MPI_Bcast()'
p2503
S'1084'
p2504
tp2505
a(S'MPI_Bcast()'
p2506
S'1085'
p2507
tp2508
a(S'MPI_Bcast()'
p2509
S'1086'
p2510
tp2511
a(S'MPI_Bcast()'
p2512
S'1087'
p2513
tp2514
a(S'MPI_Bcast()'
p2515
S'1088'
p2516
tp2517
a(S'MPI_Bcast()'
p2518
S'1089'
p2519
tp2520
a(S'MPI_Bcast()'
p2521
S'1090'
p2522
tp2523
a(S'MPI_Bcast()'
p2524
S'1091'
p2525
tp2526
a(S'MPI_Bcast()'
p2527
S'1093'
p2528
tp2529
a(S'MPI_Bcast()'
p2530
S'1094'
p2531
tp2532
a(S'MPI_Bcast()'
p2533
S'1096'
p2534
tp2535
asS'geosci/lmp/alt/pair_coul_cut.cpp'
p2536
(lp2537
(S'MPI_Bcast()'
p2538
S'250'
p2539
tp2540
a(S'MPI_Bcast()'
p2541
S'253'
p2542
tp2543
a(S'MPI_Bcast()'
p2544
S'280'
p2545
tp2546
a(S'MPI_Bcast()'
p2547
S'281'
p2548
tp2549
a(S'MPI_Bcast()'
p2550
S'282'
p2551
tp2552
asS'geosci/lmp/alt/REPLICA/prd.cpp'
p2553
(lp2554
(S'MPI_Comm_rank()'
p2555
S'103'
p2556
tp2557
a(S'MPI_Comm_size()'
p2558
S'104'
p2559
tp2560
a(S'MPI_Comm_split()'
p2561
S'109'
p2562
tp2563
a(S'MPI_Bcast()'
p2564
S'282'
p2565
tp2566
a(S'MPI_Bcast()'
p2567
S'361'
p2568
tp2569
a(S'MPI_Comm_free()'
p2570
S'426'
p2571
tp2572
a(S'X_MPI_INT()'
p2573
S'568'
p2574
tp2575
a(S'MPI_Bcast()'
p2576
S'569'
p2577
tp2578
a(S'MPI_Scan()'
p2579
S'587'
p2580
tp2581
a(S'MPI_Bcast()'
p2582
S'588'
p2583
tp2584
a(S'X_MPI_INT()'
p2585
S'597'
p2586
tp2587
a(S'MPI_Bcast()'
p2588
S'598'
p2589
tp2590
a(S'MPI_Bcast()'
p2591
S'724'
p2592
tp2593
a(S'MPI_Bcast()'
p2594
S'725'
p2595
tp2596
a(S'MPI_Gather()'
p2597
S'731'
p2598
tp2599
a(S'MPI_Gatherv()'
p2600
S'735'
p2601
tp2602
a(S'MPI_Gatherv()'
p2603
S'737'
p2604
tp2605
a(S'MPI_Gatherv()'
p2606
S'742'
p2607
tp2608
a(S'MPI_Bcast()'
p2609
S'747'
p2610
tp2611
a(S'MPI_Bcast()'
p2612
S'748'
p2613
tp2614
a(S'MPI_Bcast()'
p2615
S'749'
p2616
tp2617
a(S'MPI_Bcast()'
p2618
S'752'
p2619
tp2620
a(S'MPI_Bcast()'
p2621
S'753'
p2622
tp2623
a(S'MPI_Bcast()'
p2624
S'754'
p2625
tp2626
asS'geosci/lmp/alt/GPU/pair_lj_charmm_coul_long_gpu.cpp'
p2627
(lp2628
(S'MPI_Wtime()'
p2629
S'132'
p2630
tp2631
asS'geosci/lmp/alt/USER-OMP/fix_rigid_omp.cpp'
p2632
(lp2633
(S'MPI_Allreduce()'
p2634
S'253'
p2635
tp2636
asS'geosci/lmp/alt/compute_property_molecule.cpp'
p2637
(lp2638
(S'MPI_Allreduce()'
p2639
S'161'
p2640
tp2641
asS'geosci/lmp/alt/KSPACE/pppm_tip4p.cpp'
p2642
(lp2643
(S'MPI_Allreduce()'
p2644
S'103'
p2645
tp2646
asS'geosci/lmp/alt/fix_rigid_small.cpp'
p2647
(lp2648
(S'MPI_Comm_rank()'
p2649
S'78'
p2650
tp2651
a(S'MPI_Comm_size()'
p2652
S'79'
p2653
tp2654
a(S'MPI_Allreduce()'
p2655
S'117'
p2656
tp2657
a(S'MPI_Allreduce()'
p2658
S'222'
p2659
tp2660
a(S'MPI_Allreduce()'
p2661
S'224'
p2662
tp2663
a(S'MPI_Allreduce()'
p2664
S'857'
p2665
tp2666
a(S'MPI_Allreduce()'
p2667
S'892'
p2668
tp2669
a(S'MPI_Allreduce()'
p2670
S'1245'
p2671
tp2672
a(S'MPI_Allreduce()'
p2673
S'1385'
p2674
tp2675
a(S'MPI_Allreduce()'
p2676
S'1547'
p2677
tp2678
a(S'MPI_Bcast()'
p2679
S'2158'
p2680
tp2681
a(S'MPI_Allreduce()'
p2682
S'2267'
p2683
tp2684
a(S'MPI_Irecv()'
p2685
S'2309'
p2686
tp2687
a(S'MPI_Send()'
p2688
S'2310'
p2689
tp2690
a(S'MPI_Wait()'
p2691
S'2311'
p2692
tp2693
a(S'MPI_Get_count()'
p2694
S'2312'
p2695
tp2696
a(S'MPI_Recv()'
p2697
S'2325'
p2698
tp2699
a(S'MPI_Rsend()'
p2700
S'2326'
p2701
tp2702
a(S'MPI_Allreduce()'
p2703
S'2957'
p2704
tp2705
a(S'MPI_Allreduce()'
p2706
S'2993'
p2707
tp2708
a(S'MPI_Allreduce()'
p2709
S'3033'
p2710
tp2711
asS'geosci/lmp/alt/CLASS2/bond_class2.cpp'
p2712
(lp2713
(S'MPI_Bcast()'
p2714
S'190'
p2715
tp2716
a(S'MPI_Bcast()'
p2717
S'191'
p2718
tp2719
a(S'MPI_Bcast()'
p2720
S'192'
p2721
tp2722
a(S'MPI_Bcast()'
p2723
S'193'
p2724
tp2725
asS'geosci/lmp/alt/USER-REAXC/reaxc_system_props.cpp'
p2726
(lp2727
(S'MPI_Allreduce()'
p2728
S'78'
p2729
tp2730
a(S'MPI_Reduce()'
p2731
S'108'
p2732
tp2733
a(S'MPI_Allreduce()'
p2734
S'157'
p2735
tp2736
a(S'MPI_Allreduce()'
p2737
S'190'
p2738
tp2739
a(S'MPI_Allreduce()'
p2740
S'191'
p2741
tp2742
a(S'MPI_Allreduce()'
p2743
S'192'
p2744
tp2745
a(S'MPI_Reduce()'
p2746
S'217'
p2747
tp2748
a(S'MPI_Bcast()'
p2749
S'253'
p2750
tp2751
a(S'MPI_Allreduce()'
p2752
S'328'
p2753
tp2754
a(S'MPI_Allreduce()'
p2755
S'330'
p2756
tp2757
asS'geosci/lmp/alt/pair_morse.cpp'
p2758
(lp2759
(S'MPI_Bcast()'
p2760
S'265'
p2761
tp2762
a(S'MPI_Bcast()'
p2763
S'273'
p2764
tp2765
a(S'MPI_Bcast()'
p2766
S'274'
p2767
tp2768
a(S'MPI_Bcast()'
p2769
S'275'
p2770
tp2771
a(S'MPI_Bcast()'
p2772
S'276'
p2773
tp2774
a(S'MPI_Bcast()'
p2775
S'303'
p2776
tp2777
a(S'MPI_Bcast()'
p2778
S'304'
p2779
tp2780
a(S'MPI_Bcast()'
p2781
S'305'
p2782
tp2783
asS'geosci/lmp/alt/fix_shear_history.cpp'
p2784
(lp2785
(S'MPI_Allreduce()'
p2786
S'440'
p2787
tp2788
asS'geosci/lmp/alt/fix_ave_histo.cpp'
p2789
(lp2790
(S'MPI_Comm_rank()'
p2791
S'52'
p2792
tp2793
a(S'MPI_Allreduce()'
p2794
S'743'
p2795
tp2796
a(S'MPI_Allreduce()'
p2797
S'744'
p2798
tp2799
a(S'MPI_Allreduce()'
p2800
S'745'
p2801
tp2802
a(S'MPI_Allreduce()'
p2803
S'746'
p2804
tp2805
asS'geosci/lmp/alt/pair_buck_coul_cut.cpp'
p2806
(lp2807
(S'MPI_Allreduce()'
p2808
S'307'
p2809
tp2810
a(S'MPI_Bcast()'
p2811
S'363'
p2812
tp2813
a(S'MPI_Bcast()'
p2814
S'372'
p2815
tp2816
a(S'MPI_Bcast()'
p2817
S'373'
p2818
tp2819
a(S'MPI_Bcast()'
p2820
S'374'
p2821
tp2822
a(S'MPI_Bcast()'
p2823
S'375'
p2824
tp2825
a(S'MPI_Bcast()'
p2826
S'376'
p2827
tp2828
a(S'MPI_Bcast()'
p2829
S'407'
p2830
tp2831
a(S'MPI_Bcast()'
p2832
S'408'
p2833
tp2834
a(S'MPI_Bcast()'
p2835
S'409'
p2836
tp2837
a(S'MPI_Bcast()'
p2838
S'410'
p2839
tp2840
a(S'MPI_Bcast()'
p2841
S'411'
p2842
tp2843
asS'geosci/lmp/alt/USER-OMP/pppm_disp_omp.cpp'
p2844
(lp2845
(S'MPI_Allreduce()'
p2846
S'388'
p2847
tp2848
asS'geosci/lmp/alt/dihedral_cosine_shift_exp.cpp'
p2849
(lp2850
(S'MPI_Comm_rank()'
p2851
S'137'
p2852
tp2853
a(S'MPI_Bcast()'
p2854
S'328'
p2855
tp2856
a(S'MPI_Bcast()'
p2857
S'329'
p2858
tp2859
a(S'MPI_Bcast()'
p2860
S'330'
p2861
tp2862
a(S'MPI_Bcast()'
p2863
S'331'
p2864
tp2865
a(S'MPI_Bcast()'
p2866
S'332'
p2867
tp2868
asS'geosci/lmp/alt/fix_bond_swap.cpp'
p2869
(lp2870
(S'MPI_Allreduce()'
p2871
S'693'
p2872
tp2873
asS'geosci/lmp/alt/fix_gcmc.cpp'
p2874
(lp2875
(S'MPI_Allreduce()'
p2876
S'261'
p2877
tp2878
a(S'MPI_Allreduce()'
p2879
S'277'
p2880
tp2881
a(S'MPI_Allreduce()'
p2882
S'336'
p2883
tp2884
a(S'MPI_Allreduce()'
p2885
S'452'
p2886
tp2887
a(S'MPI_Allreduce()'
p2888
S'486'
p2889
tp2890
a(S'MPI_Allreduce()'
p2891
S'553'
p2892
tp2893
a(S'MPI_Allreduce()'
p2894
S'607'
p2895
tp2896
a(S'MPI_Allreduce()'
p2897
S'681'
p2898
tp2899
a(S'MPI_Allreduce()'
p2900
S'792'
p2901
tp2902
a(S'MPI_Allreduce()'
p2903
S'802'
p2904
tp2905
a(S'MPI_Allreduce()'
p2906
S'943'
p2907
tp2908
a(S'MPI_Allreduce()'
p2909
S'962'
p2910
tp2911
a(S'MPI_Allreduce()'
p2912
S'1018'
p2913
tp2914
a(S'MPI_Allreduce()'
p2915
S'1031'
p2916
tp2917
a(S'MPI_Allreduce()'
p2918
S'1043'
p2919
tp2920
a(S'MPI_Bcast()'
p2921
S'1119'
p2922
tp2923
a(S'MPI_Bcast()'
p2924
S'1120'
p2925
tp2926
a(S'MPI_Allreduce()'
p2927
S'1234'
p2928
tp2929
a(S'MPI_Scan()'
p2930
S'1235'
p2931
tp2932
asS'geosci/lmp/alt/GPU/pair_table_gpu.cpp'
p2933
(lp2934
(S'MPI_Wtime()'
p2935
S'120'
p2936
tp2937
asS'geosci/lmp/alt/GRANULAR/fix_pour.cpp'
p2938
(lp2939
(S'MPI_Comm_rank()'
p2940
S'205'
p2941
tp2942
a(S'MPI_Comm_size()'
p2943
S'206'
p2944
tp2945
a(S'MPI_Allreduce()'
p2946
S'392'
p2947
tp2948
a(S'MPI_Allgather()'
p2949
S'405'
p2950
tp2951
a(S'MPI_Allgatherv()'
p2952
S'430'
p2953
tp2954
asS'geosci/lmp/alt/MOLECULE/angle_table.cpp'
p2955
(lp2956
(S'MPI_Comm_rank()'
p2957
S'221'
p2958
tp2959
a(S'MPI_Bcast()'
p2960
S'295'
p2961
tp2962
a(S'MPI_Bcast()'
p2963
S'296'
p2964
tp2965
a(S'MPI_Bcast()'
p2966
S'528'
p2967
tp2968
a(S'MPI_Comm_rank()'
p2969
S'531'
p2970
tp2971
a(S'MPI_Bcast()'
p2972
S'538'
p2973
tp2974
a(S'MPI_Bcast()'
p2975
S'539'
p2976
tp2977
a(S'MPI_Bcast()'
p2978
S'540'
p2979
tp2980
a(S'MPI_Bcast()'
p2981
S'542'
p2982
tp2983
a(S'MPI_Bcast()'
p2984
S'544'
p2985
tp2986
a(S'MPI_Bcast()'
p2987
S'545'
p2988
tp2989
a(S'MPI_Bcast()'
p2990
S'547'
p2991
tp2992
asS'geosci/lmp/alt/fix_neb.cpp'
p2993
(lp2994
(S'MPI_Recv()'
p2995
S'149'
p2996
tp2997
a(S'MPI_Irecv()'
p2998
S'161'
p2999
tp3000
a(S'MPI_Send()'
p3001
S'163'
p3002
tp3003
a(S'MPI_Irecv()'
p3004
S'167'
p3005
tp3006
a(S'MPI_Send()'
p3007
S'169'
p3008
tp3009
a(S'MPI_Allreduce()'
p3010
S'184'
p3011
tp3012
asS'geosci/lmp/alt/GPU/pair_eam_fs_gpu.cpp'
p3013
(lp3014
(S'MPI_Bcast()'
p3015
S'143'
p3016
tp3017
a(S'MPI_Bcast()'
p3018
S'144'
p3019
tp3020
a(S'MPI_Bcast()'
p3021
S'170'
p3022
tp3023
a(S'MPI_Bcast()'
p3024
S'171'
p3025
tp3026
a(S'MPI_Bcast()'
p3027
S'172'
p3028
tp3029
a(S'MPI_Bcast()'
p3030
S'173'
p3031
tp3032
a(S'MPI_Bcast()'
p3033
S'174'
p3034
tp3035
a(S'MPI_Bcast()'
p3036
S'190'
p3037
tp3038
a(S'MPI_Bcast()'
p3039
S'193'
p3040
tp3041
a(S'MPI_Bcast()'
p3042
S'197'
p3043
tp3044
a(S'MPI_Bcast()'
p3045
S'204'
p3046
tp3047
asS'geosci/lmp/alt/REPLICA/tad.cpp'
p3048
(lp3049
(S'MPI_Comm_rank()'
p3050
S'127'
p3051
tp3052
a(S'MPI_Comm_size()'
p3053
S'128'
p3054
tp3055
a(S'MPI_Bcast()'
p3056
S'290'
p3057
tp3058
a(S'MPI_Bcast()'
p3059
S'309'
p3060
tp3061
a(S'MPI_Bcast()'
p3062
S'319'
p3063
tp3064
a(S'MPI_Bcast()'
p3065
S'355'
p3066
tp3067
a(S'MPI_Bcast()'
p3068
S'361'
p3069
tp3070
a(S'MPI_Bcast()'
p3071
S'368'
p3072
tp3073
a(S'MPI_Bcast()'
p3074
S'670'
p3075
tp3076
a(S'MPI_Bcast()'
p3077
S'690'
p3078
tp3079
a(S'MPI_Barrier()'
p3080
S'749'
p3081
tp3082
a(S'MPI_Barrier()'
p3083
S'752'
p3084
tp3085
asS'geosci/lmp/alt/MOLECULE/improper_umbrella.cpp'
p3086
(lp3087
(S'MPI_Comm_rank()'
p3088
S'128'
p3089
tp3090
a(S'MPI_Bcast()'
p3091
S'305'
p3092
tp3093
a(S'MPI_Bcast()'
p3094
S'306'
p3095
tp3096
a(S'MPI_Bcast()'
p3097
S'307'
p3098
tp3099
asS'geosci/lmp/alt/fix_heat.cpp'
p3100
(lp3101
(S'MPI_Allreduce()'
p3102
S'321'
p3103
tp3104
a(S'MPI_Allreduce()'
p3105
S'322'
p3106
tp3107
asS'geosci/lmp/alt/compute_cluster_atom.cpp'
p3108
(lp3109
(S'MPI_Allreduce()'
p3110
S'182'
p3111
tp3112
asS'geosci/lmp/alt/KSPACE/pair_buck_long_coul_long.cpp'
p3113
(lp3114
(S'MPI_Bcast()'
p3115
S'385'
p3116
tp3117
a(S'MPI_Bcast()'
p3118
S'393'
p3119
tp3120
a(S'MPI_Bcast()'
p3121
S'394'
p3122
tp3123
a(S'MPI_Bcast()'
p3124
S'395'
p3125
tp3126
a(S'MPI_Bcast()'
p3127
S'396'
p3128
tp3129
a(S'MPI_Bcast()'
p3130
S'431'
p3131
tp3132
a(S'MPI_Bcast()'
p3133
S'432'
p3134
tp3135
a(S'MPI_Bcast()'
p3136
S'433'
p3137
tp3138
a(S'MPI_Bcast()'
p3139
S'434'
p3140
tp3141
a(S'MPI_Bcast()'
p3142
S'435'
p3143
tp3144
a(S'MPI_Bcast()'
p3145
S'436'
p3146
tp3147
a(S'MPI_Bcast()'
p3148
S'437'
p3149
tp3150
asS'geosci/lmp/alt/pair_buck.cpp'
p3151
(lp3152
(S'MPI_Allreduce()'
p3153
S'252'
p3154
tp3155
a(S'MPI_Bcast()'
p3156
S'307'
p3157
tp3158
a(S'MPI_Bcast()'
p3159
S'315'
p3160
tp3161
a(S'MPI_Bcast()'
p3162
S'316'
p3163
tp3164
a(S'MPI_Bcast()'
p3165
S'317'
p3166
tp3167
a(S'MPI_Bcast()'
p3168
S'318'
p3169
tp3170
a(S'MPI_Bcast()'
p3171
S'347'
p3172
tp3173
a(S'MPI_Bcast()'
p3174
S'348'
p3175
tp3176
a(S'MPI_Bcast()'
p3177
S'349'
p3178
tp3179
a(S'MPI_Bcast()'
p3180
S'350'
p3181
tp3182
asS'geosci/lmp/alt/fix_rigid_nh.cpp'
p3183
(lp3184
(S'MPI_Allreduce()'
p3185
S'682'
p3186
tp3187
asS'geosci/lmp/alt/GPU/pair_buck_gpu.cpp'
p3188
(lp3189
(S'MPI_Wtime()'
p3190
S'114'
p3191
tp3192
asS'geosci/lmp/alt/USER-CUDA/fix_freeze_cuda.cpp'
p3193
(lp3194
(S'MPI_Allreduce()'
p3195
S'133'
p3196
tp3197
asS'geosci/lmp/alt/USER-REAXC/reaxc_reset_tools.cpp'
p3198
(lp3199
(S'MPI_Abort()'
p3200
S'203'
p3201
tp3202
a(S'MPI_Abort()'
p3203
S'233'
p3204
tp3205
a(S'MPI_Barrier()'
p3206
S'255'
p3207
tp3208
asS'geosci/lmp/alt/compute_temp_sphere.cpp'
p3209
(lp3210
(S'MPI_Allreduce()'
p3211
S'157'
p3212
tp3213
a(S'MPI_Allreduce()'
p3214
S'199'
p3215
tp3216
a(S'MPI_Allreduce()'
p3217
S'246'
p3218
tp3219
a(S'MPI_Allreduce()'
p3220
S'309'
p3221
tp3222
asS'geosci/lmp/alt/USER-EFF/pair_eff_cut.cpp'
p3223
(lp3224
(S'MPI_Bcast()'
p3225
S'973'
p3226
tp3227
a(S'MPI_Bcast()'
p3228
S'976'
p3229
tp3230
a(S'MPI_Bcast()'
p3231
S'1003'
p3232
tp3233
a(S'MPI_Bcast()'
p3234
S'1004'
p3235
tp3236
a(S'MPI_Bcast()'
p3237
S'1005'
p3238
tp3239
asS'geosci/lmp/alt/KSPACE/remap.cpp'
p3240
(lp3241
(S'MPI_Irecv()'
p3242
S'78'
p3243
tp3244
a(S'X_MPI_FFT_SCALAR()'
p3245
S'79'
p3246
tp3247
a(S'MPI_Send()'
p3248
S'87'
p3249
tp3250
a(S'MPI_Waitany()'
p3251
S'106'
p3252
tp3253
a(S'MPI_Comm_rank()'
p3254
S'152'
p3255
tp3256
a(S'MPI_Comm_size()'
p3257
S'153'
p3258
tp3259
a(S'MPI_Allgather()'
p3260
S'191'
p3261
tp3262
a(S'MPI_Allgather()'
p3263
S'251'
p3264
tp3265
a(S'MPI_Comm_dup()'
p3266
S'400'
p3267
tp3268
a(S'MPI_Comm_free()'
p3269
S'416'
p3270
tp3271
asS'geosci/lmp/alt/fix_indent.cpp'
p3272
(lp3273
(S'MPI_Allreduce()'
p3274
S'376'
p3275
tp3276
a(S'MPI_Allreduce()'
p3277
S'391'
p3278
tp3279
asS'geosci/lmp/alt/main.cpp'
p3280
(lp3281
(S'MPI_Init()'
p3282
S'27'
p3283
tp3284
a(S'MPI_Finalize()'
p3285
S'33'
p3286
tp3287
asS'geosci/lmp/alt/dihedral_table.cpp'
p3288
(lp3289
(S'MPI_Comm_rank()'
p3290
S'768'
p3291
tp3292
a(S'MPI_Bcast()'
p3293
S'968'
p3294
tp3295
a(S'MPI_Bcast()'
p3296
S'969'
p3297
tp3298
a(S'MPI_Bcast()'
p3299
S'1319'
p3300
tp3301
a(S'MPI_Comm_rank()'
p3302
S'1322'
p3303
tp3304
a(S'MPI_Bcast()'
p3305
S'1329'
p3306
tp3307
a(S'MPI_Bcast()'
p3308
S'1330'
p3309
tp3310
a(S'MPI_Bcast()'
p3311
S'1331'
p3312
tp3313
a(S'MPI_Bcast()'
p3314
S'1333'
p3315
tp3316
a(S'MPI_Bcast()'
p3317
S'1334'
p3318
tp3319
asS'geosci/lmp/alt/DIPOLE/pair_lj_cut_dipole_long.cpp'
p3320
(lp3321
(S'MPI_Bcast()'
p3322
S'498'
p3323
tp3324
a(S'MPI_Bcast()'
p3325
S'505'
p3326
tp3327
a(S'MPI_Bcast()'
p3328
S'506'
p3329
tp3330
a(S'MPI_Bcast()'
p3331
S'507'
p3332
tp3333
a(S'MPI_Bcast()'
p3334
S'536'
p3335
tp3336
a(S'MPI_Bcast()'
p3337
S'537'
p3338
tp3339
a(S'MPI_Bcast()'
p3340
S'538'
p3341
tp3342
a(S'MPI_Bcast()'
p3343
S'539'
p3344
tp3345
asS'geosci/lmp/alt/REPLICA/verlet_split.cpp'
p3346
(lp3347
(S'MPI_Bcast()'
p3348
S'72'
p3349
tp3350
a(S'MPI_Bcast()'
p3351
S'85'
p3352
tp3353
a(S'MPI_Comm_split()'
p3354
S'121'
p3355
tp3356
a(S'MPI_Comm_rank()'
p3357
S'122'
p3358
tp3359
a(S'MPI_Allreduce()'
p3360
S'132'
p3361
tp3362
a(S'MPI_Comm_free()'
p3363
S'208'
p3364
tp3365
a(S'MPI_Barrier()'
p3366
S'274'
p3367
tp3368
a(S'MPI_Bcast()'
p3369
S'316'
p3370
tp3371
a(S'MPI_Gather()'
p3372
S'439'
p3373
tp3374
a(S'MPI_Gatherv()'
p3375
S'461'
p3376
tp3377
a(S'MPI_Gatherv()'
p3378
S'473'
p3379
tp3380
a(S'MPI_Gatherv()'
p3381
S'474'
p3382
tp3383
a(S'MPI_Gatherv()'
p3384
S'498'
p3385
tp3386
a(S'X_MPI_DOUBLE()'
p3387
S'499'
p3388
tp3389
a(S'MPI_Send()'
p3390
S'506'
p3391
tp3392
a(S'MPI_Recv()'
p3393
S'509'
p3394
tp3395
a(S'MPI_Send()'
p3396
S'517'
p3397
tp3398
a(S'MPI_Send()'
p3399
S'518'
p3400
tp3401
a(S'MPI_Recv()'
p3402
S'520'
p3403
tp3404
a(S'MPI_Recv()'
p3405
S'521'
p3406
tp3407
a(S'MPI_Scatterv()'
p3408
S'548'
p3409
tp3410
asS'geosci/lmp/alt/STUBS/mpi.h'
p3411
(lp3412
(S'X_MPI_COMM_WORLD()'
p3413
S'27'
p3414
tp3415
a(S'X_MPI_SUCCESS()'
p3416
S'29'
p3417
tp3418
a(S'X_MPI_INT()'
p3419
S'31'
p3420
tp3421
a(S'X_MPI_FLOAT()'
p3422
S'32'
p3423
tp3424
a(S'X_MPI_DOUBLE()'
p3425
S'33'
p3426
tp3427
a(S'X_MPI_CHAR()'
p3428
S'34'
p3429
tp3430
a(S'X_MPI_BYTE()'
p3431
S'35'
p3432
tp3433
a(S'X_MPI_LONG_LONG()'
p3434
S'36'
p3435
tp3436
a(S'X_MPI_DOUBLE_INT()'
p3437
S'37'
p3438
tp3439
a(S'X_MPI_SUM()'
p3440
S'39'
p3441
tp3442
a(S'X_MPI_MAX()'
p3443
S'40'
p3444
tp3445
a(S'X_MPI_MIN()'
p3446
S'41'
p3447
tp3448
a(S'X_MPI_MAXLOC()'
p3449
S'42'
p3450
tp3451
a(S'X_MPI_MINLOC()'
p3452
S'43'
p3453
tp3454
a(S'X_MPI_LOR()'
p3455
S'44'
p3456
tp3457
a(S'X_MPI_UNDEFINED()'
p3458
S'46'
p3459
tp3460
a(S'X_MPI_COMM_NULL()'
p3461
S'47'
p3462
tp3463
a(S'X_MPI_ANY_SOURCE()'
p3464
S'49'
p3465
tp3466
a(S'X_MPI_Comm()'
p3467
S'51'
p3468
tp3469
a(S'X_MPI_Request()'
p3470
S'52'
p3471
tp3472
a(S'X_MPI_Datatype()'
p3473
S'53'
p3474
tp3475
a(S'X_MPI_Op()'
p3476
S'54'
p3477
tp3478
a(S'X_MPI_IN_PLACE()'
p3479
S'56'
p3480
tp3481
a(S'X_MPI_MAX_PROCESSOR_NAME()'
p3482
S'58'
p3483
tp3484
asS'geosci/lmp/alt/USER-CUDA/domain_cuda.cpp'
p3485
(lp3486
(S'MPI_Allreduce()'
p3487
S'166'
p3488
tp3489
asS'geosci/lmp/alt/group.cpp'
p3490
(lp3491
(S'MPI_Comm_rank()'
p3492
S'49'
p3493
tp3494
a(S'MPI_Allreduce()'
p3495
S'380'
p3496
tp3497
a(S'MPI_Bcast()'
p3498
S'485'
p3499
tp3500
a(S'MPI_Bcast()'
p3501
S'497'
p3502
tp3503
a(S'MPI_Bcast()'
p3504
S'501'
p3505
tp3506
a(S'MPI_Allreduce()'
p3507
S'528'
p3508
tp3509
a(S'MPI_Allreduce()'
p3510
S'551'
p3511
tp3512
a(S'MPI_Allreduce()'
p3513
S'581'
p3514
tp3515
a(S'MPI_Allreduce()'
p3516
S'615'
p3517
tp3518
a(S'MPI_Allreduce()'
p3519
S'636'
p3520
tp3521
a(S'MPI_Allreduce()'
p3522
S'660'
p3523
tp3524
a(S'MPI_Allreduce()'
p3525
S'700'
p3526
tp3527
a(S'MPI_Allreduce()'
p3528
S'744'
p3529
tp3530
a(S'MPI_Allreduce()'
p3531
S'796'
p3532
tp3533
a(S'MPI_Allreduce()'
p3534
S'850'
p3535
tp3536
a(S'MPI_Allreduce()'
p3537
S'896'
p3538
tp3539
a(S'MPI_Allreduce()'
p3540
S'944'
p3541
tp3542
a(S'MPI_Allreduce()'
p3543
S'974'
p3544
tp3545
a(S'MPI_Allreduce()'
p3546
S'1001'
p3547
tp3548
a(S'MPI_Allreduce()'
p3549
S'1034'
p3550
tp3551
a(S'MPI_Allreduce()'
p3552
S'1071'
p3553
tp3554
a(S'MPI_Allreduce()'
p3555
S'1109'
p3556
tp3557
a(S'MPI_Allreduce()'
p3558
S'1149'
p3559
tp3560
a(S'MPI_Allreduce()'
p3561
S'1193'
p3562
tp3563
a(S'MPI_Allreduce()'
p3564
S'1235'
p3565
tp3566
a(S'MPI_Allreduce()'
p3567
S'1271'
p3568
tp3569
a(S'MPI_Allreduce()'
p3570
S'1308'
p3571
tp3572
a(S'MPI_Allreduce()'
p3573
S'1357'
p3574
tp3575
a(S'MPI_Allreduce()'
p3576
S'1407'
p3577
tp3578
asS'geosci/lmp/alt/pair_born_coul_wolf.cpp'
p3579
(lp3580
(S'MPI_Bcast()'
p3581
S'363'
p3582
tp3583
a(S'MPI_Bcast()'
p3584
S'373'
p3585
tp3586
a(S'MPI_Bcast()'
p3587
S'374'
p3588
tp3589
a(S'MPI_Bcast()'
p3590
S'375'
p3591
tp3592
a(S'MPI_Bcast()'
p3593
S'376'
p3594
tp3595
a(S'MPI_Bcast()'
p3596
S'377'
p3597
tp3598
a(S'MPI_Bcast()'
p3599
S'378'
p3600
tp3601
a(S'MPI_Bcast()'
p3602
S'409'
p3603
tp3604
a(S'MPI_Bcast()'
p3605
S'410'
p3606
tp3607
a(S'MPI_Bcast()'
p3608
S'411'
p3609
tp3610
a(S'MPI_Bcast()'
p3611
S'412'
p3612
tp3613
a(S'MPI_Bcast()'
p3614
S'413'
p3615
tp3616
asS'geosci/lmp/alt/CLASS2/pair_lj_class2_coul_long.cpp'
p3617
(lp3618
(S'MPI_Allreduce()'
p3619
S'355'
p3620
tp3621
a(S'MPI_Bcast()'
p3622
S'404'
p3623
tp3624
a(S'MPI_Bcast()'
p3625
S'411'
p3626
tp3627
a(S'MPI_Bcast()'
p3628
S'412'
p3629
tp3630
a(S'MPI_Bcast()'
p3631
S'413'
p3632
tp3633
a(S'MPI_Bcast()'
p3634
S'448'
p3635
tp3636
a(S'MPI_Bcast()'
p3637
S'449'
p3638
tp3639
a(S'MPI_Bcast()'
p3640
S'450'
p3641
tp3642
a(S'MPI_Bcast()'
p3643
S'451'
p3644
tp3645
a(S'MPI_Bcast()'
p3646
S'452'
p3647
tp3648
a(S'MPI_Bcast()'
p3649
S'453'
p3650
tp3651
a(S'MPI_Bcast()'
p3652
S'454'
p3653
tp3654
asS'geosci/lmp/alt/fix_wall_region.cpp'
p3655
(lp3656
(S'MPI_Allreduce()'
p3657
S'119'
p3658
tp3659
a(S'MPI_Allreduce()'
p3660
S'263'
p3661
tp3662
a(S'MPI_Allreduce()'
p3663
S'278'
p3664
tp3665
asS'geosci/lmp/alt/GPU/pair_soft_gpu.cpp'
p3666
(lp3667
(S'MPI_Wtime()'
p3668
S'115'
p3669
tp3670
asS'geosci/lmp/alt/CLASS2/dihedral_class2.cpp'
p3671
(lp3672
(S'MPI_Comm_rank()'
p3673
S'205'
p3674
tp3675
a(S'MPI_Bcast()'
p3676
S'877'
p3677
tp3678
a(S'MPI_Bcast()'
p3679
S'878'
p3680
tp3681
a(S'MPI_Bcast()'
p3682
S'879'
p3683
tp3684
a(S'MPI_Bcast()'
p3685
S'880'
p3686
tp3687
a(S'MPI_Bcast()'
p3688
S'881'
p3689
tp3690
a(S'MPI_Bcast()'
p3691
S'882'
p3692
tp3693
a(S'MPI_Bcast()'
p3694
S'884'
p3695
tp3696
a(S'MPI_Bcast()'
p3697
S'885'
p3698
tp3699
a(S'MPI_Bcast()'
p3700
S'886'
p3701
tp3702
a(S'MPI_Bcast()'
p3703
S'887'
p3704
tp3705
a(S'MPI_Bcast()'
p3706
S'889'
p3707
tp3708
a(S'MPI_Bcast()'
p3709
S'890'
p3710
tp3711
a(S'MPI_Bcast()'
p3712
S'891'
p3713
tp3714
a(S'MPI_Bcast()'
p3715
S'892'
p3716
tp3717
a(S'MPI_Bcast()'
p3718
S'894'
p3719
tp3720
a(S'MPI_Bcast()'
p3721
S'895'
p3722
tp3723
a(S'MPI_Bcast()'
p3724
S'896'
p3725
tp3726
a(S'MPI_Bcast()'
p3727
S'897'
p3728
tp3729
a(S'MPI_Bcast()'
p3730
S'899'
p3731
tp3732
a(S'MPI_Bcast()'
p3733
S'900'
p3734
tp3735
a(S'MPI_Bcast()'
p3736
S'901'
p3737
tp3738
a(S'MPI_Bcast()'
p3739
S'902'
p3740
tp3741
a(S'MPI_Bcast()'
p3742
S'904'
p3743
tp3744
a(S'MPI_Bcast()'
p3745
S'905'
p3746
tp3747
a(S'MPI_Bcast()'
p3748
S'906'
p3749
tp3750
a(S'MPI_Bcast()'
p3751
S'907'
p3752
tp3753
a(S'MPI_Bcast()'
p3754
S'909'
p3755
tp3756
a(S'MPI_Bcast()'
p3757
S'910'
p3758
tp3759
a(S'MPI_Bcast()'
p3760
S'911'
p3761
tp3762
a(S'MPI_Bcast()'
p3763
S'913'
p3764
tp3765
a(S'MPI_Bcast()'
p3766
S'914'
p3767
tp3768
a(S'MPI_Bcast()'
p3769
S'915'
p3770
tp3771
asS'geosci/lmp/alt/SHOCK/fix_msst.cpp'
p3772
(lp3773
(S'MPI_Allreduce()'
p3774
S'301'
p3775
tp3776
a(S'MPI_Allreduce()'
p3777
S'958'
p3778
tp3779
asS'geosci/lmp/alt/MOLECULE/bond_morse.cpp'
p3780
(lp3781
(S'MPI_Bcast()'
p3782
S'180'
p3783
tp3784
a(S'MPI_Bcast()'
p3785
S'181'
p3786
tp3787
a(S'MPI_Bcast()'
p3788
S'182'
p3789
tp3790
asS'geosci/lmp/alt/compute_pe.cpp'
p3791
(lp3792
(S'MPI_Allreduce()'
p3793
S'88'
p3794
tp3795
asS'geosci/lmp/alt/USER-MISC/compute_temp_rotate.cpp'
p3796
(lp3797
(S'MPI_Allreduce()'
p3798
S'146'
p3799
tp3800
a(S'MPI_Allreduce()'
p3801
S'210'
p3802
tp3803
asS'geosci/lmp/alt/compute_reduce_region.cpp'
p3804
(lp3805
(S'MPI_Allreduce()'
p3806
S'235'
p3807
tp3808
a(S'MPI_Allreduce()'
p3809
S'245'
p3810
tp3811
asS'geosci/lmp/alt/error.cpp'
p3812
(lp3813
(S'MPI_Barrier()'
p3814
S'34'
p3815
tp3816
a(S'MPI_Finalize()'
p3817
S'50'
p3818
tp3819
a(S'MPI_Abort()'
p3820
S'64'
p3821
tp3822
a(S'MPI_Barrier()'
p3823
S'88'
p3824
tp3825
a(S'MPI_Comm_rank()'
p3826
S'91'
p3827
tp3828
a(S'MPI_Finalize()'
p3829
S'103'
p3830
tp3831
a(S'MPI_Comm_rank()'
p3832
S'117'
p3833
tp3834
a(S'MPI_Abort()'
p3835
S'124'
p3836
tp3837
a(S'MPI_Barrier()'
p3838
S'159'
p3839
tp3840
a(S'MPI_Finalize()'
p3841
S'165'
p3842
tp3843
asS'geosci/lmp/alt/compute_heat_flux.cpp'
p3844
(lp3845
(S'MPI_Allreduce()'
p3846
S'167'
p3847
tp3848
asS'geosci/lmp/alt/MISC/fix_thermal_conductivity.cpp'
p3849
(lp3850
(S'MPI_Comm_rank()'
p3851
S'43'
p3852
tp3853
a(S'MPI_Allreduce()'
p3854
S'246'
p3855
tp3856
a(S'MPI_Sendrecv()'
p3857
S'285'
p3858
tp3859
a(S'MPI_Sendrecv()'
p3860
S'304'
p3861
tp3862
a(S'MPI_Allreduce()'
p3863
S'321'
p3864
tp3865
asS'geosci/lmp/alt/USER-OMP/pair_eam_fs_omp.cpp'
p3866
(lp3867
(S'MPI_Bcast()'
p3868
S'143'
p3869
tp3870
a(S'MPI_Bcast()'
p3871
S'144'
p3872
tp3873
a(S'MPI_Bcast()'
p3874
S'170'
p3875
tp3876
a(S'MPI_Bcast()'
p3877
S'171'
p3878
tp3879
a(S'MPI_Bcast()'
p3880
S'172'
p3881
tp3882
a(S'MPI_Bcast()'
p3883
S'173'
p3884
tp3885
a(S'MPI_Bcast()'
p3886
S'174'
p3887
tp3888
a(S'MPI_Bcast()'
p3889
S'190'
p3890
tp3891
a(S'MPI_Bcast()'
p3892
S'193'
p3893
tp3894
a(S'MPI_Bcast()'
p3895
S'197'
p3896
tp3897
a(S'MPI_Bcast()'
p3898
S'204'
p3899
tp3900
asS'geosci/lmp/alt/ASPHERE/compute_temp_asphere.cpp'
p3901
(lp3902
(S'MPI_Allreduce()'
p3903
S'169'
p3904
tp3905
a(S'MPI_Allreduce()'
p3906
S'260'
p3907
tp3908
a(S'MPI_Allreduce()'
p3909
S'370'
p3910
tp3911
asS'geosci/lmp/alt/KSPACE/fft3d.cpp'
p3912
(lp3913
(S'MPI_Comm_rank()'
p3914
S'389'
p3915
tp3916
a(S'MPI_Comm_size()'
p3917
S'390'
p3918
tp3919
a(S'MPI_Allreduce()'
p3920
S'412'
p3921
tp3922
a(S'MPI_Allreduce()'
p3923
S'475'
p3924
tp3925
a(S'MPI_Allreduce()'
p3926
S'518'
p3927
tp3928
a(S'MPI_Allreduce()'
p3929
S'704'
p3930
tp3931
asS'geosci/lmp/alt/delete_bonds.cpp'
p3932
(lp3933
(S'MPI_Allreduce()'
p3934
S'402'
p3935
tp3936
a(S'X_MPI_SUM()'
p3937
S'403'
p3938
tp3939
a(S'MPI_Allreduce()'
p3940
S'410'
p3941
tp3942
a(S'X_MPI_SUM()'
p3943
S'411'
p3944
tp3945
a(S'MPI_Allreduce()'
p3946
S'418'
p3947
tp3948
a(S'MPI_Allreduce()'
p3949
S'426'
p3950
tp3951
a(S'MPI_Allreduce()'
p3952
S'447'
p3953
tp3954
a(S'MPI_Allreduce()'
p3955
S'449'
p3956
tp3957
a(S'MPI_Allreduce()'
p3958
S'463'
p3959
tp3960
a(S'MPI_Allreduce()'
p3961
S'465'
p3962
tp3963
a(S'MPI_Allreduce()'
p3964
S'479'
p3965
tp3966
a(S'MPI_Allreduce()'
p3967
S'481'
p3968
tp3969
a(S'MPI_Allreduce()'
p3970
S'495'
p3971
tp3972
a(S'MPI_Allreduce()'
p3973
S'497'
p3974
tp3975
asS'geosci/lmp/alt/MOLECULE/pair_lj_cut_tip4p_cut.cpp'
p3976
(lp3977
(S'MPI_Allreduce()'
p3978
S'546'
p3979
tp3980
a(S'MPI_Bcast()'
p3981
S'609'
p3982
tp3983
a(S'MPI_Bcast()'
p3984
S'616'
p3985
tp3986
a(S'MPI_Bcast()'
p3987
S'617'
p3988
tp3989
a(S'MPI_Bcast()'
p3990
S'618'
p3991
tp3992
a(S'MPI_Bcast()'
p3993
S'663'
p3994
tp3995
a(S'MPI_Bcast()'
p3996
S'664'
p3997
tp3998
a(S'MPI_Bcast()'
p3999
S'665'
p4000
tp4001
a(S'MPI_Bcast()'
p4002
S'666'
p4003
tp4004
a(S'MPI_Bcast()'
p4005
S'667'
p4006
tp4007
a(S'MPI_Bcast()'
p4008
S'669'
p4009
tp4010
a(S'MPI_Bcast()'
p4011
S'670'
p4012
tp4013
a(S'MPI_Bcast()'
p4014
S'671'
p4015
tp4016
a(S'MPI_Bcast()'
p4017
S'672'
p4018
tp4019
a(S'MPI_Bcast()'
p4020
S'673'
p4021
tp4022
asS'geosci/lmp/alt/KSPACE/pppm_cg.cpp'
p4023
(lp4024
(S'MPI_Reduce()'
p4025
S'130'
p4026
tp4027
a(S'MPI_Reduce()'
p4028
S'131'
p4029
tp4030
a(S'MPI_Reduce()'
p4031
S'136'
p4032
tp4033
a(S'MPI_Allreduce()'
p4034
S'212'
p4035
tp4036
a(S'MPI_Allreduce()'
p4037
S'225'
p4038
tp4039
a(S'MPI_Allreduce()'
p4040
S'593'
p4041
tp4042
a(S'MPI_Allreduce()'
p4043
S'608'
p4044
tp4045
asS'geosci/lmp/alt/pair_lj_gromacs.cpp'
p4046
(lp4047
(S'MPI_Bcast()'
p4048
S'341'
p4049
tp4050
a(S'MPI_Bcast()'
p4051
S'349'
p4052
tp4053
a(S'MPI_Bcast()'
p4054
S'350'
p4055
tp4056
a(S'MPI_Bcast()'
p4057
S'351'
p4058
tp4059
a(S'MPI_Bcast()'
p4060
S'352'
p4061
tp4062
a(S'MPI_Bcast()'
p4063
S'382'
p4064
tp4065
a(S'MPI_Bcast()'
p4066
S'383'
p4067
tp4068
a(S'MPI_Bcast()'
p4069
S'384'
p4070
tp4071
a(S'MPI_Bcast()'
p4072
S'385'
p4073
tp4074
asS'geosci/lmp/alt/min_quickmin.cpp'
p4075
(lp4076
(S'MPI_Allreduce()'
p4077
S'104'
p4078
tp4079
a(S'MPI_Allreduce()'
p4080
S'111'
p4081
tp4082
a(S'MPI_Allreduce()'
p4083
S'123'
p4084
tp4085
a(S'MPI_Allreduce()'
p4086
S'130'
p4087
tp4088
a(S'MPI_Allreduce()'
p4089
S'155'
p4090
tp4091
a(S'MPI_Allreduce()'
p4092
S'162'
p4093
tp4094
a(S'MPI_Allreduce()'
p4095
S'209'
p4096
tp4097
a(S'MPI_Allreduce()'
p4098
S'224'
p4099
tp4100
asS'geosci/lmp/alt/REAX/fix_reax_bonds.cpp'
p4101
(lp4102
(S'MPI_Comm_rank()'
p4103
S'42'
p4104
tp4105
a(S'MPI_Comm_size()'
p4106
S'113'
p4107
tp4108
a(S'MPI_Allreduce()'
p4109
S'122'
p4110
tp4111
a(S'MPI_Allreduce()'
p4112
S'123'
p4113
tp4114
a(S'MPI_Irecv()'
p4115
S'195'
p4116
tp4117
a(S'MPI_Send()'
p4118
S'196'
p4119
tp4120
a(S'MPI_Wait()'
p4121
S'197'
p4122
tp4123
a(S'MPI_Recv()'
p4124
S'236'
p4125
tp4126
a(S'MPI_Rsend()'
p4127
S'237'
p4128
tp4129
asS'geosci/lmp/alt/USER-OMP/ewald_omp.cpp'
p4130
(lp4131
(S'MPI_Allreduce()'
p4132
S'86'
p4133
tp4134
a(S'MPI_Allreduce()'
p4135
S'87'
p4136
tp4137
asS'geosci/lmp/alt/MEAM/pair_meam.cpp'
p4138
(lp4139
(S'MPI_Bcast()'
p4140
S'516'
p4141
tp4142
a(S'MPI_Bcast()'
p4143
S'518'
p4144
tp4145
a(S'MPI_Bcast()'
p4146
S'519'
p4147
tp4148
a(S'MPI_Bcast()'
p4149
S'538'
p4150
tp4151
a(S'MPI_Bcast()'
p4152
S'540'
p4153
tp4154
a(S'MPI_Bcast()'
p4155
S'541'
p4156
tp4157
a(S'MPI_Bcast()'
p4158
S'672'
p4159
tp4160
a(S'MPI_Bcast()'
p4161
S'674'
p4162
tp4163
a(S'MPI_Bcast()'
p4164
S'675'
p4165
tp4166
asS'geosci/lmp/alt/USER-MISC/fix_addtorque.cpp'
p4167
(lp4168
(S'MPI_Allreduce()'
p4169
S'215'
p4170
tp4171
a(S'MPI_Allreduce()'
p4172
S'271'
p4173
tp4174
a(S'MPI_Allreduce()'
p4175
S'286'
p4176
tp4177
asS'geosci/lmp/alt/fix_gravity.cpp'
p4178
(lp4179
(S'MPI_Allreduce()'
p4180
S'348'
p4181
tp4182
asS'geosci/lmp/alt/USER-CG-CMM/pair_cmm_common.cpp'
p4183
(lp4184
(S'MPI_Allreduce()'
p4185
S'305'
p4186
tp4187
a(S'MPI_Bcast()'
p4188
S'357'
p4189
tp4190
a(S'MPI_Bcast()'
p4191
S'369'
p4192
tp4193
a(S'MPI_Bcast()'
p4194
S'370'
p4195
tp4196
a(S'MPI_Bcast()'
p4197
S'371'
p4198
tp4199
a(S'MPI_Bcast()'
p4200
S'372'
p4201
tp4202
a(S'MPI_Bcast()'
p4203
S'374'
p4204
tp4205
a(S'MPI_Bcast()'
p4206
S'375'
p4207
tp4208
a(S'MPI_Bcast()'
p4209
S'411'
p4210
tp4211
a(S'MPI_Bcast()'
p4212
S'412'
p4213
tp4214
a(S'MPI_Bcast()'
p4215
S'413'
p4216
tp4217
a(S'MPI_Bcast()'
p4218
S'414'
p4219
tp4220
a(S'MPI_Bcast()'
p4221
S'415'
p4222
tp4223
a(S'MPI_Bcast()'
p4224
S'416'
p4225
tp4226
asS'geosci/lmp/alt/USER-MISC/fix_imd.cpp'
p4227
(lp4228
(S'MPI_Comm_rank()'
p4229
S'495'
p4230
tp4231
a(S'MPI_Bcast()'
p4232
S'525'
p4233
tp4234
a(S'MPI_Allreduce()'
p4235
S'698'
p4236
tp4237
a(S'MPI_Bcast()'
p4238
S'705'
p4239
tp4240
a(S'MPI_Bcast()'
p4241
S'706'
p4242
tp4243
a(S'MPI_Irecv()'
p4244
S'733'
p4245
tp4246
a(S'MPI_Send()'
p4247
S'734'
p4248
tp4249
a(S'MPI_Wait()'
p4250
S'735'
p4251
tp4252
a(S'MPI_Get_count()'
p4253
S'736'
p4254
tp4255
a(S'MPI_Recv()'
p4256
S'765'
p4257
tp4258
a(S'MPI_Rsend()'
p4259
S'766'
p4260
tp4261
a(S'MPI_Bcast()'
p4262
S'818'
p4263
tp4264
a(S'MPI_Bcast()'
p4265
S'819'
p4266
tp4267
a(S'MPI_Bcast()'
p4268
S'952'
p4269
tp4270
a(S'MPI_Bcast()'
p4271
S'953'
p4272
tp4273
a(S'MPI_Bcast()'
p4274
S'954'
p4275
tp4276
a(S'MPI_Bcast()'
p4277
S'955'
p4278
tp4279
a(S'MPI_Bcast()'
p4280
S'968'
p4281
tp4282
a(S'MPI_Allreduce()'
p4283
S'1007'
p4284
tp4285
a(S'MPI_Irecv()'
p4286
S'1072'
p4287
tp4288
a(S'MPI_Send()'
p4289
S'1073'
p4290
tp4291
a(S'MPI_Wait()'
p4292
S'1074'
p4293
tp4294
a(S'MPI_Get_count()'
p4295
S'1075'
p4296
tp4297
a(S'MPI_Recv()'
p4298
S'1147'
p4299
tp4300
a(S'MPI_Rsend()'
p4301
S'1148'
p4302
tp4303
asS'geosci/lmp/alt/dihedral_quadratic.cpp'
p4304
(lp4305
(S'MPI_Comm_rank()'
p4306
S'161'
p4307
tp4308
a(S'MPI_Bcast()'
p4309
S'329'
p4310
tp4311
a(S'MPI_Bcast()'
p4312
S'330'
p4313
tp4314
asS'geosci/lmp/alt/fix_langevin.cpp'
p4315
(lp4316
(S'MPI_Allreduce()'
p4317
S'593'
p4318
tp4319
a(S'MPI_Allreduce()'
p4320
S'850'
p4321
tp4322
asS'geosci/lmp/alt/USER-CG-CMM/angle_sdk.cpp'
p4323
(lp4324
(S'MPI_Bcast()'
p4325
S'339'
p4326
tp4327
a(S'MPI_Bcast()'
p4328
S'340'
p4329
tp4330
a(S'MPI_Bcast()'
p4331
S'341'
p4332
tp4333
asS'geosci/lmp/alt/MOLECULE/improper_cvff.cpp'
p4334
(lp4335
(S'MPI_Comm_rank()'
p4336
S'151'
p4337
tp4338
a(S'MPI_Bcast()'
p4339
S'343'
p4340
tp4341
a(S'MPI_Bcast()'
p4342
S'344'
p4343
tp4344
a(S'MPI_Bcast()'
p4345
S'345'
p4346
tp4347
asS'geosci/lmp/alt/pair_lj_smooth.cpp'
p4348
(lp4349
(S'MPI_Bcast()'
p4350
S'354'
p4351
tp4352
a(S'MPI_Bcast()'
p4353
S'362'
p4354
tp4355
a(S'MPI_Bcast()'
p4356
S'363'
p4357
tp4358
a(S'MPI_Bcast()'
p4359
S'364'
p4360
tp4361
a(S'MPI_Bcast()'
p4362
S'365'
p4363
tp4364
a(S'MPI_Bcast()'
p4365
S'395'
p4366
tp4367
a(S'MPI_Bcast()'
p4368
S'396'
p4369
tp4370
a(S'MPI_Bcast()'
p4371
S'397'
p4372
tp4373
a(S'MPI_Bcast()'
p4374
S'398'
p4375
tp4376
asS'geosci/lmp/alt/fix_tmd.cpp'
p4377
(lp4378
(S'MPI_Comm_rank()'
p4379
S'53'
p4380
tp4381
a(S'MPI_Allreduce()'
p4382
S'115'
p4383
tp4384
a(S'MPI_Allreduce()'
p4385
S'218'
p4386
tp4387
a(S'MPI_Allreduce()'
p4388
S'260'
p4389
tp4390
a(S'MPI_Bcast()'
p4391
S'417'
p4392
tp4393
a(S'MPI_Bcast()'
p4394
S'418'
p4395
tp4396
a(S'MPI_Bcast()'
p4397
S'419'
p4398
tp4399
a(S'MPI_Bcast()'
p4400
S'420'
p4401
tp4402
a(S'MPI_Allreduce()'
p4403
S'503'
p4404
tp4405
asS'geosci/lmp/alt/USER-OMP/fix_qeq_comb_omp.cpp'
p4406
(lp4407
(S'MPI_Allreduce()'
p4408
S'166'
p4409
tp4410
a(S'MPI_Allreduce()'
p4411
S'168'
p4412
tp4413
asS'geosci/lmp/alt/pair_lj_cut_dipole_cut.cpp'
p4414
(lp4415
(S'MPI_Bcast()'
p4416
S'442'
p4417
tp4418
a(S'MPI_Bcast()'
p4419
S'450'
p4420
tp4421
a(S'MPI_Bcast()'
p4422
S'451'
p4423
tp4424
a(S'MPI_Bcast()'
p4425
S'452'
p4426
tp4427
a(S'MPI_Bcast()'
p4428
S'453'
p4429
tp4430
a(S'MPI_Bcast()'
p4431
S'482'
p4432
tp4433
a(S'MPI_Bcast()'
p4434
S'483'
p4435
tp4436
a(S'MPI_Bcast()'
p4437
S'484'
p4438
tp4439
a(S'MPI_Bcast()'
p4440
S'485'
p4441
tp4442
asS'geosci/lmp/alt/USER-MISC/angle_fourier_simple.cpp'
p4443
(lp4444
(S'MPI_Bcast()'
p4445
S'240'
p4446
tp4447
a(S'MPI_Bcast()'
p4448
S'241'
p4449
tp4450
a(S'MPI_Bcast()'
p4451
S'242'
p4452
tp4453
asS'geosci/lmp/alt/pair_hybrid.cpp'
p4454
(lp4455
(S'MPI_Bcast()'
p4456
S'620'
p4457
tp4458
a(S'MPI_Bcast()'
p4459
S'634'
p4460
tp4461
a(S'MPI_Bcast()'
p4462
S'637'
p4463
tp4464
asS'geosci/lmp/alt/KSPACE/remap.h'
p4465
(lp4466
(S'X_MPI_FFT_SCALAR()'
p4467
S'18'
p4468
tp4469
a(S'X_MPI_FFT_SCALAR()'
p4470
S'21'
p4471
tp4472
asS'geosci/lmp/alt/lmptype.h'
p4473
(lp4474
(S'X_MPI_LL()'
p4475
S'65'
p4476
tp4477
a(S'X_MPI_LL()'
p4478
S'68'
p4479
tp4480
a(S'X_MPI_LMP_TAGINT()'
p4481
S'85'
p4482
tp4483
a(S'X_MPI_LMP_BIGINT()'
p4484
S'86'
p4485
tp4486
a(S'X_MPI_LMP_TAGINT()'
p4487
S'115'
p4488
tp4489
a(S'X_MPI_LMP_BIGINT()'
p4490
S'116'
p4491
tp4492
a(S'X_MPI_LMP_TAGINT()'
p4493
S'144'
p4494
tp4495
a(S'X_MPI_LMP_BIGINT()'
p4496
S'145'
p4497
tp4498
asS'geosci/lmp/alt/MC/fix_gcmc.cpp'
p4499
(lp4500
(S'MPI_Allreduce()'
p4501
S'261'
p4502
tp4503
a(S'MPI_Allreduce()'
p4504
S'277'
p4505
tp4506
a(S'MPI_Allreduce()'
p4507
S'336'
p4508
tp4509
a(S'MPI_Allreduce()'
p4510
S'452'
p4511
tp4512
a(S'MPI_Allreduce()'
p4513
S'486'
p4514
tp4515
a(S'MPI_Allreduce()'
p4516
S'553'
p4517
tp4518
a(S'MPI_Allreduce()'
p4519
S'607'
p4520
tp4521
a(S'MPI_Allreduce()'
p4522
S'681'
p4523
tp4524
a(S'MPI_Allreduce()'
p4525
S'792'
p4526
tp4527
a(S'MPI_Allreduce()'
p4528
S'802'
p4529
tp4530
a(S'MPI_Allreduce()'
p4531
S'943'
p4532
tp4533
a(S'MPI_Allreduce()'
p4534
S'962'
p4535
tp4536
a(S'MPI_Allreduce()'
p4537
S'1018'
p4538
tp4539
a(S'MPI_Allreduce()'
p4540
S'1031'
p4541
tp4542
a(S'MPI_Allreduce()'
p4543
S'1043'
p4544
tp4545
a(S'MPI_Bcast()'
p4546
S'1119'
p4547
tp4548
a(S'MPI_Bcast()'
p4549
S'1120'
p4550
tp4551
a(S'MPI_Allreduce()'
p4552
S'1234'
p4553
tp4554
a(S'MPI_Scan()'
p4555
S'1235'
p4556
tp4557
asS'geosci/lmp/alt/compute_rdf.cpp'
p4558
(lp4559
(S'MPI_Allreduce()'
p4560
S'155'
p4561
tp4562
a(S'MPI_Allreduce()'
p4563
S'157'
p4564
tp4565
a(S'MPI_Allreduce()'
p4566
S'265'
p4567
tp4568
asS'geosci/lmp/alt/fix_rigid_omp.cpp'
p4569
(lp4570
(S'MPI_Allreduce()'
p4571
S'253'
p4572
tp4573
asS'geosci/lmp/alt/MISC/fix_efield.cpp'
p4574
(lp4575
(S'MPI_Allreduce()'
p4576
S'423'
p4577
tp4578
a(S'MPI_Allreduce()'
p4579
S'436'
p4580
tp4581
asS'geosci/lmp/alt/KSPACE/pair_lj_cut_coul_long.cpp'
p4582
(lp4583
(S'MPI_Allreduce()'
p4584
S'780'
p4585
tp4586
a(S'MPI_Bcast()'
p4587
S'831'
p4588
tp4589
a(S'MPI_Bcast()'
p4590
S'838'
p4591
tp4592
a(S'MPI_Bcast()'
p4593
S'839'
p4594
tp4595
a(S'MPI_Bcast()'
p4596
S'840'
p4597
tp4598
a(S'MPI_Bcast()'
p4599
S'875'
p4600
tp4601
a(S'MPI_Bcast()'
p4602
S'876'
p4603
tp4604
a(S'MPI_Bcast()'
p4605
S'877'
p4606
tp4607
a(S'MPI_Bcast()'
p4608
S'878'
p4609
tp4610
a(S'MPI_Bcast()'
p4611
S'879'
p4612
tp4613
a(S'MPI_Bcast()'
p4614
S'880'
p4615
tp4616
a(S'MPI_Bcast()'
p4617
S'881'
p4618
tp4619
asS'geosci/lmp/alt/angle_fourier.cpp'
p4620
(lp4621
(S'MPI_Bcast()'
p4622
S'234'
p4623
tp4624
a(S'MPI_Bcast()'
p4625
S'235'
p4626
tp4627
a(S'MPI_Bcast()'
p4628
S'236'
p4629
tp4630
a(S'MPI_Bcast()'
p4631
S'237'
p4632
tp4633
asS'geosci/lmp/alt/MC/fix_bond_swap.cpp'
p4634
(lp4635
(S'MPI_Allreduce()'
p4636
S'693'
p4637
tp4638
asS'geosci/lmp/alt/USER-OMP/msm_cg_omp.cpp'
p4639
(lp4640
(S'MPI_Reduce()'
p4641
S'129'
p4642
tp4643
a(S'MPI_Reduce()'
p4644
S'130'
p4645
tp4646
a(S'MPI_Reduce()'
p4647
S'135'
p4648
tp4649
a(S'MPI_Allreduce()'
p4650
S'250'
p4651
tp4652
a(S'MPI_Allreduce()'
p4653
S'262'
p4654
tp4655
asS'geosci/lmp/alt/angle_hybrid.cpp'
p4656
(lp4657
(S'MPI_Bcast()'
p4658
S'332'
p4659
tp4660
a(S'MPI_Bcast()'
p4661
S'341'
p4662
tp4663
a(S'MPI_Bcast()'
p4664
S'344'
p4665
tp4666
asS'geosci/lmp/alt/USER-COLVARS/fix_colvars.cpp'
p4667
(lp4668
(S'MPI_Bcast()'
p4669
S'477'
p4670
tp4671
a(S'MPI_Bcast()'
p4672
S'493'
p4673
tp4674
a(S'MPI_Allreduce()'
p4675
S'518'
p4676
tp4677
a(S'MPI_Irecv()'
p4678
S'571'
p4679
tp4680
a(S'MPI_Send()'
p4681
S'572'
p4682
tp4683
a(S'MPI_Wait()'
p4684
S'573'
p4685
tp4686
a(S'MPI_Get_count()'
p4687
S'574'
p4688
tp4689
a(S'MPI_Recv()'
p4690
S'626'
p4691
tp4692
a(S'MPI_Rsend()'
p4693
S'627'
p4694
tp4695
a(S'MPI_Allreduce()'
p4696
S'689'
p4697
tp4698
a(S'MPI_Irecv()'
p4699
S'727'
p4700
tp4701
a(S'MPI_Send()'
p4702
S'728'
p4703
tp4704
a(S'MPI_Wait()'
p4705
S'729'
p4706
tp4707
a(S'MPI_Get_count()'
p4708
S'730'
p4709
tp4710
a(S'MPI_Recv()'
p4711
S'769'
p4712
tp4713
a(S'MPI_Rsend()'
p4714
S'770'
p4715
tp4716
a(S'MPI_Bcast()'
p4717
S'782'
p4718
tp4719
a(S'MPI_Bcast()'
p4720
S'783'
p4721
tp4722
a(S'MPI_Bcast()'
p4723
S'796'
p4724
tp4725
a(S'MPI_Allreduce()'
p4726
S'839'
p4727
tp4728
a(S'MPI_Irecv()'
p4729
S'870'
p4730
tp4731
a(S'MPI_Send()'
p4732
S'871'
p4733
tp4734
a(S'MPI_Wait()'
p4735
S'872'
p4736
tp4737
a(S'MPI_Get_count()'
p4738
S'873'
p4739
tp4740
a(S'MPI_Recv()'
p4741
S'900'
p4742
tp4743
a(S'MPI_Rsend()'
p4744
S'901'
p4745
tp4746
asS'geosci/lmp/alt/USER-OMP/pair_comb_omp.cpp'
p4747
(lp4748
(S'MPI_Allreduce()'
p4749
S'535'
p4750
tp4751
asS'geosci/lmp/alt/angle_quartic.cpp'
p4752
(lp4753
(S'MPI_Bcast()'
p4754
S'241'
p4755
tp4756
a(S'MPI_Bcast()'
p4757
S'242'
p4758
tp4759
a(S'MPI_Bcast()'
p4760
S'243'
p4761
tp4762
a(S'MPI_Bcast()'
p4763
S'244'
p4764
tp4765
asS'geosci/lmp/alt/MANYBODY/pair_eam_alloy.cpp'
p4766
(lp4767
(S'MPI_Bcast()'
p4768
S'144'
p4769
tp4770
a(S'MPI_Bcast()'
p4771
S'145'
p4772
tp4773
a(S'MPI_Bcast()'
p4774
S'171'
p4775
tp4776
a(S'MPI_Bcast()'
p4777
S'172'
p4778
tp4779
a(S'MPI_Bcast()'
p4780
S'173'
p4781
tp4782
a(S'MPI_Bcast()'
p4783
S'174'
p4784
tp4785
a(S'MPI_Bcast()'
p4786
S'175'
p4787
tp4788
a(S'MPI_Bcast()'
p4789
S'189'
p4790
tp4791
a(S'MPI_Bcast()'
p4792
S'192'
p4793
tp4794
a(S'MPI_Bcast()'
p4795
S'194'
p4796
tp4797
a(S'MPI_Bcast()'
p4798
S'200'
p4799
tp4800
asS'geosci/lmp/alt/USER-REAXC/reaxc_traj.cpp'
p4801
(lp4802
(S'MPI_Type_extent()'
p4803
S'51'
p4804
tp4805
a(S'MPI_Type_struct()'
p4806
S'69'
p4807
tp4808
a(S'MPI_Type_commit()'
p4809
S'70'
p4810
tp4811
a(S'MPI_File_set_view()'
p4812
S'72'
p4813
tp4814
a(S'MPI_Abort()'
p4815
S'91'
p4816
tp4817
a(S'MPI_File_set_view()'
p4818
S'105'
p4819
tp4820
a(S'MPI_File_write()'
p4821
S'111'
p4822
tp4823
a(S'MPI_File_write_all()'
p4824
S'341'
p4825
tp4826
a(S'MPI_File_write()'
p4827
S'396'
p4828
tp4829
a(S'MPI_Send()'
p4830
S'402'
p4831
tp4832
a(S'MPI_Recv()'
p4833
S'408'
p4834
tp4835
a(S'X_MPI_CHAR()'
p4836
S'409'
p4837
tp4838
a(S'MPI_Get_count()'
p4839
S'410'
p4840
tp4841
a(S'MPI_Send()'
p4842
S'419'
p4843
tp4844
a(S'MPI_Recv()'
p4845
S'425'
p4846
tp4847
a(S'X_MPI_CHAR()'
p4848
S'426'
p4849
tp4850
a(S'MPI_Get_count()'
p4851
S'427'
p4852
tp4853
a(S'MPI_File_delete()'
p4854
S'480'
p4855
tp4856
a(S'MPI_Type_contiguous()'
p4857
S'493'
p4858
tp4859
a(S'MPI_Type_commit()'
p4860
S'494'
p4861
tp4862
a(S'MPI_Type_contiguous()'
p4863
S'496'
p4864
tp4865
a(S'MPI_Type_commit()'
p4866
S'497'
p4867
tp4868
a(S'MPI_Type_contiguous()'
p4869
S'499'
p4870
tp4871
a(S'MPI_Type_commit()'
p4872
S'501'
p4873
tp4874
a(S'MPI_Type_contiguous()'
p4875
S'503'
p4876
tp4877
a(S'MPI_Type_commit()'
p4878
S'505'
p4879
tp4880
a(S'MPI_Type_contiguous()'
p4881
S'507'
p4882
tp4883
a(S'MPI_Type_commit()'
p4884
S'509'
p4885
tp4886
a(S'MPI_File_write_all()'
p4887
S'672'
p4888
tp4889
a(S'MPI_Abort()'
p4890
S'742'
p4891
tp4892
a(S'MPI_File_write()'
p4893
S'753'
p4894
tp4895
a(S'MPI_Send()'
p4896
S'759'
p4897
tp4898
a(S'MPI_Recv()'
p4899
S'765'
p4900
tp4901
a(S'X_MPI_CHAR()'
p4902
S'766'
p4903
tp4904
a(S'MPI_Get_count()'
p4905
S'767'
p4906
tp4907
a(S'MPI_Send()'
p4908
S'776'
p4909
tp4910
a(S'MPI_Recv()'
p4911
S'782'
p4912
tp4913
a(S'X_MPI_CHAR()'
p4914
S'783'
p4915
tp4916
a(S'MPI_Get_count()'
p4917
S'784'
p4918
tp4919
a(S'MPI_Allreduce()'
p4920
S'820'
p4921
tp4922
a(S'MPI_Abort()'
p4923
S'857'
p4924
tp4925
a(S'MPI_File_write()'
p4926
S'872'
p4927
tp4928
a(S'MPI_Send()'
p4929
S'878'
p4930
tp4931
a(S'MPI_Recv()'
p4932
S'884'
p4933
tp4934
a(S'X_MPI_CHAR()'
p4935
S'885'
p4936
tp4937
a(S'MPI_Get_count()'
p4938
S'886'
p4939
tp4940
a(S'MPI_Send()'
p4941
S'895'
p4942
tp4943
a(S'MPI_Recv()'
p4944
S'901'
p4945
tp4946
a(S'X_MPI_CHAR()'
p4947
S'902'
p4948
tp4949
a(S'MPI_Get_count()'
p4950
S'903'
p4951
tp4952
a(S'MPI_Allreduce()'
p4953
S'950'
p4954
tp4955
a(S'MPI_File_write()'
p4956
S'995'
p4957
tp4958
a(S'MPI_Send()'
p4959
S'1001'
p4960
tp4961
a(S'MPI_Recv()'
p4962
S'1007'
p4963
tp4964
a(S'X_MPI_CHAR()'
p4965
S'1008'
p4966
tp4967
a(S'MPI_Get_count()'
p4968
S'1009'
p4969
tp4970
a(S'MPI_Send()'
p4971
S'1018'
p4972
tp4973
a(S'MPI_Recv()'
p4974
S'1024'
p4975
tp4976
a(S'X_MPI_CHAR()'
p4977
S'1025'
p4978
tp4979
a(S'MPI_Get_count()'
p4980
S'1026'
p4981
tp4982
a(S'MPI_File_close()'
p4983
S'1068'
p4984
tp4985
asS'geosci/lmp/alt/KSPACE/pppm.cpp'
p4986
(lp4987
(S'MPI_Comm_rank()'
p4988
S'83'
p4989
tp4990
a(S'MPI_Comm_size()'
p4991
S'84'
p4992
tp4993
a(S'MPI_Allreduce()'
p4994
S'260'
p4995
tp4996
a(S'MPI_Allreduce()'
p4997
S'262'
p4998
tp4999
a(S'MPI_Allreduce()'
p5000
S'336'
p5001
tp5002
a(S'MPI_Allreduce()'
p5003
S'337'
p5004
tp5005
a(S'MPI_Allreduce()'
p5006
S'686'
p5007
tp5008
a(S'MPI_Allreduce()'
p5009
S'699'
p5010
tp5011
a(S'MPI_Allreduce()'
p5012
S'1231'
p5013
tp5014
a(S'MPI_Allreduce()'
p5015
S'1782'
p5016
tp5017
a(S'MPI_Allreduce()'
p5018
S'2937'
p5019
tp5020
a(S'MPI_Allreduce()'
p5021
S'2950'
p5022
tp5023
a(S'MPI_Barrier()'
p5024
S'2989'
p5025
tp5026
a(S'MPI_Wtime()'
p5027
S'2990'
p5028
tp5029
a(S'MPI_Barrier()'
p5030
S'3001'
p5031
tp5032
a(S'MPI_Wtime()'
p5033
S'3002'
p5034
tp5035
a(S'MPI_Barrier()'
p5036
S'3019'
p5037
tp5038
a(S'MPI_Wtime()'
p5039
S'3020'
p5040
tp5041
a(S'MPI_Barrier()'
p5042
S'3031'
p5043
tp5044
a(S'MPI_Wtime()'
p5045
S'3032'
p5046
tp5047
a(S'MPI_Allreduce()'
p5048
S'3151'
p5049
tp5050
a(S'MPI_Allreduce()'
p5051
S'3159'
p5052
tp5053
a(S'MPI_Allreduce()'
p5054
S'3471'
p5055
tp5056
a(S'MPI_Allreduce()'
p5057
S'3474'
p5058
tp5059
a(S'MPI_Allreduce()'
p5060
S'3477'
p5061
tp5062
a(S'MPI_Allreduce()'
p5063
S'3480'
p5064
tp5065
a(S'MPI_Allreduce()'
p5066
S'3483'
p5067
tp5068
a(S'MPI_Allreduce()'
p5069
S'3486'
p5070
tp5071
asS'geosci/lmp/alt/pair_coul_debye.cpp'
p5072
(lp5073
(S'MPI_Bcast()'
p5074
S'156'
p5075
tp5076
a(S'MPI_Bcast()'
p5077
S'157'
p5078
tp5079
a(S'MPI_Bcast()'
p5080
S'158'
p5081
tp5082
a(S'MPI_Bcast()'
p5083
S'159'
p5084
tp5085
asS'geosci/lmp/alt/fix_deposit.cpp'
p5086
(lp5087
(S'MPI_Allreduce()'
p5088
S'140'
p5089
tp5090
a(S'MPI_Allreduce()'
p5091
S'269'
p5092
tp5093
a(S'MPI_Allreduce()'
p5094
S'291'
p5095
tp5096
a(S'MPI_Allreduce()'
p5097
S'349'
p5098
tp5099
asS'geosci/lmp/alt/fix_smd.cpp'
p5100
(lp5101
(S'MPI_Allreduce()'
p5102
S'427'
p5103
tp5104
asS'geosci/lmp/alt/pair_dpd_tstat.cpp'
p5105
(lp5106
(S'MPI_Bcast()'
p5107
S'226'
p5108
tp5109
a(S'MPI_Bcast()'
p5110
S'227'
p5111
tp5112
a(S'MPI_Bcast()'
p5113
S'228'
p5114
tp5115
a(S'MPI_Bcast()'
p5116
S'229'
p5117
tp5118
a(S'MPI_Bcast()'
p5119
S'230'
p5120
tp5121
asS'geosci/lmp/alt/GPU/pair_born_coul_wolf_gpu.cpp'
p5122
(lp5123
(S'MPI_Wtime()'
p5124
S'126'
p5125
tp5126
asS'geosci/lmp/alt/modify.cpp'
p5127
(lp5128
(S'MPI_Allreduce()'
p5129
S'243'
p5130
tp5131
a(S'MPI_Bcast()'
p5132
S'1024'
p5133
tp5134
a(S'MPI_Bcast()'
p5135
S'1040'
p5136
tp5137
a(S'MPI_Bcast()'
p5138
S'1043'
p5139
tp5140
a(S'MPI_Bcast()'
p5141
S'1046'
p5142
tp5143
a(S'MPI_Bcast()'
p5144
S'1049'
p5145
tp5146
a(S'MPI_Bcast()'
p5147
S'1052'
p5148
tp5149
a(S'MPI_Bcast()'
p5150
S'1055'
p5151
tp5152
a(S'MPI_Bcast()'
p5153
S'1063'
p5154
tp5155
a(S'MPI_Bcast()'
p5156
S'1079'
p5157
tp5158
a(S'MPI_Bcast()'
p5159
S'1082'
p5160
tp5161
a(S'MPI_Bcast()'
p5162
S'1085'
p5163
tp5164
a(S'MPI_Bcast()'
p5165
S'1088'
p5166
tp5167
a(S'MPI_Bcast()'
p5168
S'1091'
p5169
tp5170
asS'geosci/lmp/alt/MOLECULE/dihedral_helix.cpp'
p5171
(lp5172
(S'MPI_Comm_rank()'
p5173
S'165'
p5174
tp5175
a(S'MPI_Bcast()'
p5176
S'328'
p5177
tp5178
a(S'MPI_Bcast()'
p5179
S'329'
p5180
tp5181
a(S'MPI_Bcast()'
p5182
S'330'
p5183
tp5184
asS'geosci/lmp/alt/MC/fix_bond_break.cpp'
p5185
(lp5186
(S'MPI_Comm_rank()'
p5187
S'40'
p5188
tp5189
a(S'MPI_Allreduce()'
p5190
S'295'
p5191
tp5192
asS'geosci/lmp/alt/GPU/pair_lj_cut_dipole_cut_gpu.cpp'
p5193
(lp5194
(S'MPI_Wtime()'
p5195
S'123'
p5196
tp5197
asS'geosci/lmp/alt/kspace.h'
p5198
(lp5199
(S'X_MPI_FFT_SCALAR()'
p5200
S'21'
p5201
tp5202
a(S'X_MPI_FFT_SCALAR()'
p5203
S'24'
p5204
tp5205
asS'geosci/lmp/alt/MOLECULE/bond_harmonic.cpp'
p5206
(lp5207
(S'MPI_Bcast()'
p5208
S'171'
p5209
tp5210
a(S'MPI_Bcast()'
p5211
S'172'
p5212
tp5213
asS'geosci/lmp/alt/compute_cna_atom.cpp'
p5214
(lp5215
(S'MPI_Allreduce()'
p5216
S'188'
p5217
tp5218
a(S'MPI_Allreduce()'
p5219
S'349'
p5220
tp5221
asS'geosci/lmp/alt/USER-MISC/pair_lj_sf_dipole_sf.cpp'
p5222
(lp5223
(S'MPI_Bcast()'
p5224
S'469'
p5225
tp5226
a(S'MPI_Bcast()'
p5227
S'477'
p5228
tp5229
a(S'MPI_Bcast()'
p5230
S'478'
p5231
tp5232
a(S'MPI_Bcast()'
p5233
S'479'
p5234
tp5235
a(S'MPI_Bcast()'
p5236
S'480'
p5237
tp5238
a(S'MPI_Bcast()'
p5239
S'507'
p5240
tp5241
a(S'MPI_Bcast()'
p5242
S'508'
p5243
tp5244
a(S'MPI_Bcast()'
p5245
S'509'
p5246
tp5247
asS'geosci/lmp/alt/MOLECULE/improper_harmonic.cpp'
p5248
(lp5249
(S'MPI_Comm_rank()'
p5250
S'125'
p5251
tp5252
a(S'MPI_Bcast()'
p5253
S'283'
p5254
tp5255
a(S'MPI_Bcast()'
p5256
S'284'
p5257
tp5258
asS'geosci/lmp/alt/read_data.cpp'
p5259
(lp5260
(S'MPI_Comm_rank()'
p5261
S'56'
p5262
tp5263
a(S'MPI_Bcast()'
p5264
S'156'
p5265
tp5266
a(S'MPI_Bcast()'
p5267
S'157'
p5268
tp5269
a(S'MPI_Bcast()'
p5270
S'158'
p5271
tp5272
a(S'MPI_Bcast()'
p5273
S'159'
p5274
tp5275
a(S'MPI_Allreduce()'
p5276
S'583'
p5277
tp5278
a(S'MPI_Allreduce()'
p5279
S'605'
p5280
tp5281
a(S'MPI_Allreduce()'
p5282
S'612'
p5283
tp5284
a(S'MPI_Allreduce()'
p5285
S'619'
p5286
tp5287
a(S'MPI_Bcast()'
p5288
S'771'
p5289
tp5290
a(S'MPI_Bcast()'
p5291
S'772'
p5292
tp5293
a(S'MPI_Bcast()'
p5294
S'773'
p5295
tp5296
a(S'MPI_Allreduce()'
p5297
S'815'
p5298
tp5299
a(S'MPI_Allreduce()'
p5300
S'850'
p5301
tp5302
a(S'MPI_Allreduce()'
p5303
S'885'
p5304
tp5305
a(S'MPI_Allreduce()'
p5306
S'920'
p5307
tp5308
a(S'MPI_Bcast()'
p5309
S'1503'
p5310
tp5311
a(S'MPI_Bcast()'
p5312
S'1504'
p5313
tp5314
asS'geosci/lmp/alt/pair_dpd.cpp'
p5315
(lp5316
(S'MPI_Bcast()'
p5317
S'314'
p5318
tp5319
a(S'MPI_Bcast()'
p5320
S'321'
p5321
tp5322
a(S'MPI_Bcast()'
p5323
S'322'
p5324
tp5325
a(S'MPI_Bcast()'
p5326
S'323'
p5327
tp5328
a(S'MPI_Bcast()'
p5329
S'352'
p5330
tp5331
a(S'MPI_Bcast()'
p5332
S'353'
p5333
tp5334
a(S'MPI_Bcast()'
p5335
S'354'
p5336
tp5337
a(S'MPI_Bcast()'
p5338
S'355'
p5339
tp5340
asS'geosci/lmp/alt/REAX/pair_reax.cpp'
p5341
(lp5342
(S'MPI_Allreduce()'
p5343
S'886'
p5344
tp5345
a(S'MPI_Allreduce()'
p5346
S'979'
p5347
tp5348
a(S'MPI_Allreduce()'
p5349
S'987'
p5350
tp5351
a(S'MPI_Allreduce()'
p5352
S'1002'
p5353
tp5354
a(S'MPI_Allreduce()'
p5355
S'1016'
p5356
tp5357
asS'geosci/lmp/alt/MANYBODY/pair_adp.cpp'
p5358
(lp5359
(S'MPI_Bcast()'
p5360
S'567'
p5361
tp5362
a(S'MPI_Bcast()'
p5363
S'568'
p5364
tp5365
a(S'MPI_Bcast()'
p5366
S'594'
p5367
tp5368
a(S'MPI_Bcast()'
p5369
S'595'
p5370
tp5371
a(S'MPI_Bcast()'
p5372
S'596'
p5373
tp5374
a(S'MPI_Bcast()'
p5375
S'597'
p5376
tp5377
a(S'MPI_Bcast()'
p5378
S'598'
p5379
tp5380
a(S'MPI_Bcast()'
p5381
S'616'
p5382
tp5383
a(S'MPI_Bcast()'
p5384
S'619'
p5385
tp5386
a(S'MPI_Bcast()'
p5387
S'621'
p5388
tp5389
a(S'MPI_Bcast()'
p5390
S'627'
p5391
tp5392
a(S'MPI_Bcast()'
p5393
S'633'
p5394
tp5395
a(S'MPI_Bcast()'
p5396
S'639'
p5397
tp5398
asS'geosci/lmp/alt/USER-MISC/angle_cosine_shift_exp.cpp'
p5399
(lp5400
(S'MPI_Bcast()'
p5401
S'257'
p5402
tp5403
a(S'MPI_Bcast()'
p5404
S'258'
p5405
tp5406
a(S'MPI_Bcast()'
p5407
S'259'
p5408
tp5409
a(S'MPI_Bcast()'
p5410
S'260'
p5411
tp5412
a(S'MPI_Bcast()'
p5413
S'261'
p5414
tp5415
asS'geosci/lmp/alt/finish.cpp'
p5416
(lp5417
(S'MPI_Comm_rank()'
p5418
S'50'
p5419
tp5420
a(S'MPI_Comm_size()'
p5421
S'51'
p5422
tp5423
a(S'MPI_Allreduce()'
p5424
S'56'
p5425
tp5426
a(S'MPI_Allreduce()'
p5427
S'91'
p5428
tp5429
a(S'MPI_Allreduce()'
p5430
S'190'
p5431
tp5432
a(S'MPI_Allreduce()'
p5433
S'202'
p5434
tp5435
a(S'MPI_Allreduce()'
p5436
S'214'
p5437
tp5438
a(S'MPI_Allreduce()'
p5439
S'226'
p5440
tp5441
a(S'MPI_Allreduce()'
p5442
S'250'
p5443
tp5444
a(S'MPI_Allreduce()'
p5445
S'262'
p5446
tp5447
a(S'MPI_Allreduce()'
p5448
S'274'
p5449
tp5450
a(S'MPI_Allreduce()'
p5451
S'287'
p5452
tp5453
a(S'MPI_Allreduce()'
p5454
S'300'
p5455
tp5456
a(S'MPI_Allreduce()'
p5457
S'312'
p5458
tp5459
a(S'MPI_Allreduce()'
p5460
S'333'
p5461
tp5462
a(S'MPI_Allreduce()'
p5463
S'346'
p5464
tp5465
a(S'MPI_Allreduce()'
p5466
S'360'
p5467
tp5468
a(S'MPI_Allreduce()'
p5469
S'373'
p5470
tp5471
a(S'MPI_Allreduce()'
p5472
S'385'
p5473
tp5474
a(S'MPI_Allreduce()'
p5475
S'397'
p5476
tp5477
a(S'MPI_Allreduce()'
p5478
S'409'
p5479
tp5480
a(S'MPI_Allreduce()'
p5481
S'443'
p5482
tp5483
a(S'MPI_Allreduce()'
p5484
S'455'
p5485
tp5486
a(S'MPI_Allreduce()'
p5487
S'459'
p5488
tp5489
a(S'MPI_Allreduce()'
p5490
S'607'
p5491
tp5492
a(S'MPI_Allreduce()'
p5493
S'616'
p5494
tp5495
a(S'MPI_Allreduce()'
p5496
S'675'
p5497
tp5498
a(S'MPI_Allreduce()'
p5499
S'677'
p5500
tp5501
a(S'MPI_Allreduce()'
p5502
S'679'
p5503
tp5504
a(S'MPI_Allreduce()'
p5505
S'681'
p5506
tp5507
a(S'MPI_Allreduce()'
p5508
S'695'
p5509
tp5510
asS'geosci/lmp/alt/USER-MISC/pair_list.cpp'
p5511
(lp5512
(S'MPI_Allreduce()'
p5513
S'183'
p5514
tp5515
asS'geosci/lmp/alt/USER-MISC/pair_nb3b_harmonic.cpp'
p5516
(lp5517
(S'MPI_Bcast()'
p5518
S'355'
p5519
tp5520
a(S'MPI_Bcast()'
p5521
S'357'
p5522
tp5523
a(S'MPI_Bcast()'
p5524
S'358'
p5525
tp5526
a(S'MPI_Bcast()'
p5527
S'377'
p5528
tp5529
a(S'MPI_Bcast()'
p5530
S'379'
p5531
tp5532
a(S'MPI_Bcast()'
p5533
S'380'
p5534
tp5535
asS'geosci/lmp/alt/MANYBODY/pair_eam.cpp'
p5536
(lp5537
(S'MPI_Bcast()'
p5538
S'460'
p5539
tp5540
a(S'MPI_Bcast()'
p5541
S'461'
p5542
tp5543
a(S'MPI_Bcast()'
p5544
S'462'
p5545
tp5546
a(S'MPI_Bcast()'
p5547
S'463'
p5548
tp5549
a(S'MPI_Bcast()'
p5550
S'464'
p5551
tp5552
a(S'MPI_Bcast()'
p5553
S'465'
p5554
tp5555
a(S'MPI_Bcast()'
p5556
S'472'
p5557
tp5558
a(S'MPI_Bcast()'
p5559
S'475'
p5560
tp5561
a(S'MPI_Bcast()'
p5562
S'478'
p5563
tp5564
asS'geosci/lmp/alt/USER-MISC/pair_coul_diel.cpp'
p5565
(lp5566
(S'MPI_Bcast()'
p5567
S'292'
p5568
tp5569
a(S'MPI_Bcast()'
p5570
S'293'
p5571
tp5572
a(S'MPI_Bcast()'
p5573
S'294'
p5574
tp5575
a(S'MPI_Bcast()'
p5576
S'321'
p5577
tp5578
a(S'MPI_Bcast()'
p5579
S'322'
p5580
tp5581
a(S'MPI_Bcast()'
p5582
S'323'
p5583
tp5584
asS'geosci/lmp/alt/compute_inertia_molecule.cpp'
p5585
(lp5586
(S'MPI_Allreduce()'
p5587
S'75'
p5588
tp5589
a(S'MPI_Allreduce()'
p5590
S'136'
p5591
tp5592
a(S'X_MPI_DOUBLE()'
p5593
S'137'
p5594
tp5595
a(S'MPI_Allreduce()'
p5596
S'169'
p5597
tp5598
a(S'X_MPI_DOUBLE()'
p5599
S'170'
p5600
tp5601
asS'geosci/lmp/alt/USER-REAXC/reaxc_tool_box.cpp'
p5602
(lp5603
(S'MPI_Comm_size()'
p5604
S'43'
p5605
tp5606
a(S'MPI_Gather()'
p5607
S'46'
p5608
tp5609
a(S'MPI_Scatter()'
p5610
S'52'
p5611
tp5612
a(S'MPI_Gather()'
p5613
S'57'
p5614
tp5615
a(S'MPI_Scatter()'
p5616
S'58'
p5617
tp5618
a(S'MPI_Gather()'
p5619
S'69'
p5620
tp5621
a(S'MPI_Bcast()'
p5622
S'76'
p5623
tp5624
a(S'MPI_Abort()'
p5625
S'288'
p5626
tp5627
a(S'MPI_Abort()'
p5628
S'345'
p5629
tp5630
a(S'MPI_Abort()'
p5631
S'423'
p5632
tp5633
a(S'MPI_Abort()'
p5634
S'453'
p5635
tp5636
asS'geosci/lmp/alt/bond_hybrid.cpp'
p5637
(lp5638
(S'MPI_Bcast()'
p5639
S'320'
p5640
tp5641
a(S'MPI_Bcast()'
p5642
S'329'
p5643
tp5644
a(S'MPI_Bcast()'
p5645
S'332'
p5646
tp5647
asS'geosci/lmp/alt/delete_atoms.cpp'
p5648
(lp5649
(S'MPI_Allreduce()'
p5650
S'98'
p5651
tp5652
asS'geosci/lmp/alt/GPU/pair_gayberne_gpu.cpp'
p5653
(lp5654
(S'MPI_Wtime()'
p5655
S'140'
p5656
tp5657
asS'geosci/lmp/alt/GPU/pair_lj_cut_coul_msm_gpu.cpp'
p5658
(lp5659
(S'MPI_Wtime()'
p5660
S'122'
p5661
tp5662
asS'geosci/lmp/alt/GRANULAR/pair_gran_hooke_history.cpp'
p5663
(lp5664
(S'MPI_Allreduce()'
p5665
S'503'
p5666
tp5667
a(S'X_MPI_DOUBLE()'
p5668
S'504'
p5669
tp5670
a(S'MPI_Allreduce()'
p5671
S'505'
p5672
tp5673
a(S'X_MPI_DOUBLE()'
p5674
S'506'
p5675
tp5676
a(S'MPI_Bcast()'
p5677
S'565'
p5678
tp5679
a(S'MPI_Bcast()'
p5680
S'597'
p5681
tp5682
a(S'MPI_Bcast()'
p5683
S'598'
p5684
tp5685
a(S'MPI_Bcast()'
p5686
S'599'
p5687
tp5688
a(S'MPI_Bcast()'
p5689
S'600'
p5690
tp5691
a(S'MPI_Bcast()'
p5692
S'601'
p5693
tp5694
a(S'MPI_Bcast()'
p5695
S'602'
p5696
tp5697
asS'geosci/lmp/alt/GPU/pair_lj_cut_coul_cut_gpu.cpp'
p5698
(lp5699
(S'MPI_Wtime()'
p5700
S'120'
p5701
tp5702
asS'geosci/lmp/alt/input.cpp'
p5703
(lp5704
(S'MPI_Comm_rank()'
p5705
S'62'
p5706
tp5707
a(S'MPI_Bcast()'
p5708
S'180'
p5709
tp5710
a(S'MPI_Bcast()'
p5711
S'187'
p5712
tp5713
a(S'MPI_Bcast()'
p5714
S'194'
p5715
tp5716
asS'geosci/lmp/alt/pair_table.cpp'
p5717
(lp5718
(S'MPI_Comm_rank()'
p5719
S'256'
p5720
tp5721
a(S'MPI_Bcast()'
p5722
S'433'
p5723
tp5724
a(S'MPI_Comm_rank()'
p5725
S'436'
p5726
tp5727
a(S'MPI_Bcast()'
p5728
S'443'
p5729
tp5730
a(S'MPI_Bcast()'
p5731
S'444'
p5732
tp5733
a(S'MPI_Bcast()'
p5734
S'445'
p5735
tp5736
a(S'MPI_Bcast()'
p5737
S'447'
p5738
tp5739
a(S'MPI_Bcast()'
p5740
S'449'
p5741
tp5742
a(S'MPI_Bcast()'
p5743
S'450'
p5744
tp5745
a(S'MPI_Bcast()'
p5746
S'452'
p5747
tp5748
a(S'MPI_Bcast()'
p5749
S'454'
p5750
tp5751
a(S'MPI_Bcast()'
p5752
S'455'
p5753
tp5754
a(S'MPI_Bcast()'
p5755
S'897'
p5756
tp5757
a(S'MPI_Bcast()'
p5758
S'898'
p5759
tp5760
asS'geosci/lmp/alt/improper_cossq.cpp'
p5761
(lp5762
(S'MPI_Comm_rank()'
p5763
S'110'
p5764
tp5765
a(S'MPI_Bcast()'
p5766
S'309'
p5767
tp5768
a(S'MPI_Bcast()'
p5769
S'310'
p5770
tp5771
asS'geosci/lmp/alt/USER-REAXC/reaxc_forces.cpp'
p5772
(lp5773
(S'MPI_Barrier()'
p5774
S'103'
p5775
tp5776
a(S'MPI_Barrier()'
p5777
S'109'
p5778
tp5779
a(S'MPI_Barrier()'
p5780
S'135'
p5781
tp5782
a(S'MPI_Abort()'
p5783
S'217'
p5784
tp5785
a(S'MPI_Abort()'
p5786
S'244'
p5787
tp5788
a(S'MPI_Barrier()'
p5789
S'519'
p5790
tp5791
a(S'MPI_Barrier()'
p5792
S'695'
p5793
tp5794
a(S'MPI_Barrier()'
p5795
S'829'
p5796
tp5797
a(S'MPI_Barrier()'
p5798
S'884'
p5799
tp5800
a(S'MPI_Barrier()'
p5801
S'900'
p5802
tp5803
a(S'MPI_Barrier()'
p5804
S'917'
p5805
tp5806
a(S'MPI_Barrier()'
p5807
S'933'
p5808
tp5809
asS'geosci/lmp/alt/KSPACE/pppm_old.h'
p5810
(lp5811
(S'X_MPI_FFT_SCALAR()'
p5812
S'28'
p5813
tp5814
a(S'X_MPI_FFT_SCALAR()'
p5815
S'31'
p5816
tp5817
asS'geosci/lmp/alt/ASPHERE/pair_gayberne.cpp'
p5818
(lp5819
(S'MPI_Bcast()'
p5820
S'466'
p5821
tp5822
a(S'MPI_Bcast()'
p5823
S'469'
p5824
tp5825
a(S'MPI_Bcast()'
p5826
S'473'
p5827
tp5828
a(S'MPI_Bcast()'
p5829
S'480'
p5830
tp5831
a(S'MPI_Bcast()'
p5832
S'481'
p5833
tp5834
a(S'MPI_Bcast()'
p5835
S'482'
p5836
tp5837
a(S'MPI_Bcast()'
p5838
S'517'
p5839
tp5840
a(S'MPI_Bcast()'
p5841
S'518'
p5842
tp5843
a(S'MPI_Bcast()'
p5844
S'519'
p5845
tp5846
a(S'MPI_Bcast()'
p5847
S'520'
p5848
tp5849
a(S'MPI_Bcast()'
p5850
S'521'
p5851
tp5852
a(S'MPI_Bcast()'
p5853
S'522'
p5854
tp5855
asS'geosci/lmp/alt/compute_temp_ramp.cpp'
p5856
(lp5857
(S'MPI_Allreduce()'
p5858
S'173'
p5859
tp5860
a(S'MPI_Allreduce()'
p5861
S'220'
p5862
tp5863
asS'geosci/lmp/alt/GPU/pair_buck_coul_long_gpu.cpp'
p5864
(lp5865
(S'MPI_Wtime()'
p5866
S'130'
p5867
tp5868
asS'geosci/lmp/alt/fix_shake.cpp'
p5869
(lp5870
(S'MPI_Comm_rank()'
p5871
S'53'
p5872
tp5873
a(S'MPI_Comm_size()'
p5874
S'54'
p5875
tp5876
a(S'MPI_Allreduce()'
p5877
S'359'
p5878
tp5879
a(S'MPI_Allreduce()'
p5880
S'364'
p5881
tp5882
a(S'MPI_Allreduce()'
p5883
S'366'
p5884
tp5885
a(S'MPI_Allreduce()'
p5886
S'612'
p5887
tp5888
a(S'MPI_Allreduce()'
p5889
S'797'
p5890
tp5891
a(S'MPI_Allreduce()'
p5892
S'911'
p5893
tp5894
a(S'MPI_Allreduce()'
p5895
S'920'
p5896
tp5897
a(S'MPI_Allreduce()'
p5898
S'1107'
p5899
tp5900
a(S'MPI_Allreduce()'
p5901
S'1109'
p5902
tp5903
a(S'MPI_Allreduce()'
p5904
S'1111'
p5905
tp5906
a(S'MPI_Allreduce()'
p5907
S'1113'
p5908
tp5909
a(S'MPI_Allreduce()'
p5910
S'2156'
p5911
tp5912
a(S'MPI_Allreduce()'
p5913
S'2157'
p5914
tp5915
a(S'MPI_Allreduce()'
p5916
S'2158'
p5917
tp5918
a(S'MPI_Allreduce()'
p5919
S'2159'
p5920
tp5921
a(S'MPI_Allreduce()'
p5922
S'2161'
p5923
tp5924
a(S'MPI_Allreduce()'
p5925
S'2162'
p5926
tp5927
a(S'MPI_Allreduce()'
p5928
S'2163'
p5929
tp5930
a(S'MPI_Allreduce()'
p5931
S'2164'
p5932
tp5933
asS'geosci/lmp/alt/fix_ave_spatial.cpp'
p5934
(lp5935
(S'MPI_Comm_rank()'
p5936
S'54'
p5937
tp5938
a(S'MPI_Allreduce()'
p5939
S'693'
p5940
tp5941
a(S'MPI_Allreduce()'
p5942
S'728'
p5943
tp5944
a(S'MPI_Allreduce()'
p5945
S'729'
p5946
tp5947
a(S'X_MPI_DOUBLE()'
p5948
S'730'
p5949
tp5950
a(S'MPI_Allreduce()'
p5951
S'740'
p5952
tp5953
a(S'X_MPI_DOUBLE()'
p5954
S'741'
p5955
tp5956
asS'geosci/lmp/alt/pair_lj_cut_coul_debye.cpp'
p5957
(lp5958
(S'MPI_Bcast()'
p5959
S'180'
p5960
tp5961
a(S'MPI_Bcast()'
p5962
S'181'
p5963
tp5964
a(S'MPI_Bcast()'
p5965
S'182'
p5966
tp5967
a(S'MPI_Bcast()'
p5968
S'183'
p5969
tp5970
a(S'MPI_Bcast()'
p5971
S'184'
p5972
tp5973
asS'geosci/lmp/alt/compute_group_group.cpp'
p5974
(lp5975
(S'MPI_Allreduce()'
p5976
S'293'
p5977
tp5978
a(S'MPI_Allreduce()'
p5979
S'359'
p5980
tp5981
a(S'MPI_Allreduce()'
p5982
S'362'
p5983
tp5984
a(S'MPI_Allreduce()'
p5985
S'365'
p5986
tp5987
a(S'MPI_Allreduce()'
p5988
S'390'
p5989
tp5990
a(S'MPI_Allreduce()'
p5991
S'393'
p5992
tp5993
asS'geosci/lmp/alt/fix_bond_create.cpp'
p5994
(lp5995
(S'MPI_Comm_rank()'
p5996
S'44'
p5997
tp5998
a(S'MPI_Allreduce()'
p5999
S'452'
p6000
tp6001
asS'geosci/lmp/alt/RIGID/fix_rigid_small.cpp'
p6002
(lp6003
(S'MPI_Comm_rank()'
p6004
S'78'
p6005
tp6006
a(S'MPI_Comm_size()'
p6007
S'79'
p6008
tp6009
a(S'MPI_Allreduce()'
p6010
S'117'
p6011
tp6012
a(S'MPI_Allreduce()'
p6013
S'222'
p6014
tp6015
a(S'MPI_Allreduce()'
p6016
S'224'
p6017
tp6018
a(S'MPI_Allreduce()'
p6019
S'857'
p6020
tp6021
a(S'MPI_Allreduce()'
p6022
S'892'
p6023
tp6024
a(S'MPI_Allreduce()'
p6025
S'1245'
p6026
tp6027
a(S'MPI_Allreduce()'
p6028
S'1385'
p6029
tp6030
a(S'MPI_Allreduce()'
p6031
S'1547'
p6032
tp6033
a(S'MPI_Bcast()'
p6034
S'2158'
p6035
tp6036
a(S'MPI_Allreduce()'
p6037
S'2267'
p6038
tp6039
a(S'MPI_Irecv()'
p6040
S'2309'
p6041
tp6042
a(S'MPI_Send()'
p6043
S'2310'
p6044
tp6045
a(S'MPI_Wait()'
p6046
S'2311'
p6047
tp6048
a(S'MPI_Get_count()'
p6049
S'2312'
p6050
tp6051
a(S'MPI_Recv()'
p6052
S'2325'
p6053
tp6054
a(S'MPI_Rsend()'
p6055
S'2326'
p6056
tp6057
a(S'MPI_Allreduce()'
p6058
S'2957'
p6059
tp6060
a(S'MPI_Allreduce()'
p6061
S'2993'
p6062
tp6063
a(S'MPI_Allreduce()'
p6064
S'3033'
p6065
tp6066
asS'geosci/lmp/alt/replicate.cpp'
p6067
(lp6068
(S'MPI_Allreduce()'
p6069
S'79'
p6070
tp6071
a(S'MPI_Allreduce()'
p6072
S'88'
p6073
tp6074
a(S'MPI_Allreduce()'
p6075
S'104'
p6076
tp6077
a(S'MPI_Bcast()'
p6078
S'271'
p6079
tp6080
a(S'MPI_Bcast()'
p6081
S'272'
p6082
tp6083
a(S'MPI_Allreduce()'
p6084
S'361'
p6085
tp6086
asS'geosci/lmp/alt/MISC/fix_orient_fcc.cpp'
p6087
(lp6088
(S'MPI_Comm_rank()'
p6089
S'61'
p6090
tp6091
a(S'MPI_Bcast()'
p6092
S'133'
p6093
tp6094
a(S'MPI_Bcast()'
p6095
S'134'
p6096
tp6097
a(S'MPI_Allreduce()'
p6098
S'436'
p6099
tp6100
a(S'MPI_Allreduce()'
p6101
S'440'
p6102
tp6103
a(S'MPI_Allreduce()'
p6104
S'441'
p6105
tp6106
a(S'MPI_Allreduce()'
p6107
S'474'
p6108
tp6109
asS'geosci/lmp/alt/USER-EFF/fix_langevin_eff.cpp'
p6110
(lp6111
(S'MPI_Allreduce()'
p6112
S'162'
p6113
tp6114
a(S'MPI_Allreduce()'
p6115
S'225'
p6116
tp6117
a(S'MPI_Allreduce()'
p6118
S'336'
p6119
tp6120
a(S'MPI_Allreduce()'
p6121
S'441'
p6122
tp6123
asS'geosci/lmp/alt/MANYBODY/pair_sw.cpp'
p6124
(lp6125
(S'MPI_Bcast()'
p6126
S'363'
p6127
tp6128
a(S'MPI_Bcast()'
p6129
S'365'
p6130
tp6131
a(S'MPI_Bcast()'
p6132
S'366'
p6133
tp6134
a(S'MPI_Bcast()'
p6135
S'385'
p6136
tp6137
a(S'MPI_Bcast()'
p6138
S'387'
p6139
tp6140
a(S'MPI_Bcast()'
p6141
S'388'
p6142
tp6143
asS'geosci/lmp/alt/comm.cpp'
p6144
(lp6145
(S'MPI_Comm_rank()'
p6146
S'65'
p6147
tp6148
a(S'MPI_Comm_size()'
p6149
S'66'
p6150
tp6151
a(S'MPI_Bcast()'
p6152
S'107'
p6153
tp6154
a(S'MPI_Recv()'
p6155
S'180'
p6156
tp6157
a(S'MPI_Recv()'
p6158
S'183'
p6159
tp6160
a(S'MPI_Bcast()'
p6161
S'187'
p6162
tp6163
a(S'MPI_Bcast()'
p6164
S'188'
p6165
tp6166
a(S'MPI_Send()'
p6167
S'306'
p6168
tp6169
a(S'MPI_Send()'
p6170
S'309'
p6171
tp6172
a(S'MPI_Allreduce()'
p6173
S'543'
p6174
tp6175
a(S'MPI_Irecv()'
p6176
S'705'
p6177
tp6178
a(S'MPI_Irecv()'
p6179
S'713'
p6180
tp6181
a(S'MPI_Irecv()'
p6182
S'722'
p6183
tp6184
a(S'MPI_Irecv()'
p6185
S'772'
p6186
tp6187
a(S'MPI_Send()'
p6188
S'777'
p6189
tp6190
a(S'MPI_Irecv()'
p6191
S'782'
p6192
tp6193
a(S'MPI_Sendrecv()'
p6194
S'886'
p6195
tp6196
a(S'MPI_Sendrecv()'
p6197
S'890'
p6198
tp6199
a(S'MPI_Irecv()'
p6200
S'896'
p6201
tp6202
a(S'MPI_Send()'
p6203
S'898'
p6204
tp6205
a(S'MPI_Wait()'
p6206
S'899'
p6207
tp6208
a(S'MPI_Irecv()'
p6209
S'902'
p6210
tp6211
a(S'MPI_Send()'
p6212
S'904'
p6213
tp6214
a(S'MPI_Wait()'
p6215
S'905'
p6216
tp6217
a(S'MPI_Sendrecv()'
p6218
S'1058'
p6219
tp6220
a(S'MPI_Irecv()'
p6221
S'1128'
p6222
tp6223
a(S'MPI_Send()'
p6224
S'1131'
p6225
tp6226
a(S'MPI_Irecv()'
p6227
S'1164'
p6228
tp6229
a(S'MPI_Send()'
p6230
S'1167'
p6231
tp6232
a(S'MPI_Irecv()'
p6233
S'1202'
p6234
tp6235
a(S'MPI_Send()'
p6236
S'1205'
p6237
tp6238
a(S'MPI_Irecv()'
p6239
S'1239'
p6240
tp6241
a(S'MPI_Send()'
p6242
S'1242'
p6243
tp6244
a(S'MPI_Irecv()'
p6245
S'1277'
p6246
tp6247
a(S'MPI_Send()'
p6248
S'1280'
p6249
tp6250
a(S'MPI_Irecv()'
p6251
S'1314'
p6252
tp6253
a(S'MPI_Send()'
p6254
S'1317'
p6255
tp6256
a(S'MPI_Irecv()'
p6257
S'1351'
p6258
tp6259
a(S'MPI_Send()'
p6260
S'1354'
p6261
tp6262
a(S'MPI_Irecv()'
p6263
S'1387'
p6264
tp6265
a(S'MPI_Send()'
p6266
S'1390'
p6267
tp6268
a(S'MPI_Irecv()'
p6269
S'1424'
p6270
tp6271
a(S'MPI_Send()'
p6272
S'1427'
p6273
tp6274
a(S'MPI_Irecv()'
p6275
S'1460'
p6276
tp6277
a(S'MPI_Send()'
p6278
S'1463'
p6279
tp6280
a(S'MPI_Irecv()'
p6281
S'1503'
p6282
tp6283
a(S'MPI_Send()'
p6284
S'1506'
p6285
tp6286
a(S'MPI_Allreduce()'
p6287
S'1539'
p6288
tp6289
a(S'MPI_Irecv()'
p6290
S'1553'
p6291
tp6292
a(S'MPI_Send()'
p6293
S'1554'
p6294
tp6295
a(S'MPI_Wait()'
p6296
S'1555'
p6297
tp6298
a(S'MPI_Get_count()'
p6299
S'1556'
p6300
tp6301
a(S'MPI_Bcast()'
p6302
S'1594'
p6303
tp6304
a(S'MPI_Bcast()'
p6305
S'1596'
p6306
tp6307
asS'geosci/lmp/alt/GPU/pair_lj_cut_coul_long_gpu.cpp'
p6308
(lp6309
(S'MPI_Wtime()'
p6310
S'130'
p6311
tp6312
asS'geosci/lmp/alt/USER-CG-CMM/pair_cg_cmm_coul_long.cpp'
p6313
(lp6314
(S'MPI_Bcast()'
p6315
S'243'
p6316
tp6317
a(S'MPI_Bcast()'
p6318
S'244'
p6319
tp6320
asS'geosci/lmp/alt/USER-REAXC/fix_reaxc_species.cpp'
p6321
(lp6322
(S'MPI_Comm_rank()'
p6323
S'61'
p6324
tp6325
a(S'MPI_Comm_size()'
p6326
S'62'
p6327
tp6328
a(S'MPI_Allreduce()'
p6329
S'555'
p6330
tp6331
a(S'MPI_Allreduce()'
p6332
S'558'
p6333
tp6334
a(S'MPI_Allreduce()'
p6335
S'583'
p6336
tp6337
a(S'MPI_Allreduce()'
p6338
S'587'
p6339
tp6340
a(S'MPI_Allreduce()'
p6341
S'588'
p6342
tp6343
a(S'MPI_Allreduce()'
p6344
S'605'
p6345
tp6346
a(S'MPI_Allreduce()'
p6347
S'621'
p6348
tp6349
a(S'MPI_Allreduce()'
p6350
S'670'
p6351
tp6352
a(S'MPI_Allreduce()'
p6353
S'673'
p6354
tp6355
a(S'MPI_Allreduce()'
p6356
S'862'
p6357
tp6358
a(S'MPI_Reduce()'
p6359
S'867'
p6360
tp6361
a(S'MPI_Reduce()'
p6362
S'871'
p6363
tp6364
a(S'MPI_Reduce()'
p6365
S'874'
p6366
tp6367
asS'geosci/lmp/alt/pair_coul_diel.cpp'
p6368
(lp6369
(S'MPI_Bcast()'
p6370
S'292'
p6371
tp6372
a(S'MPI_Bcast()'
p6373
S'293'
p6374
tp6375
a(S'MPI_Bcast()'
p6376
S'294'
p6377
tp6378
a(S'MPI_Bcast()'
p6379
S'321'
p6380
tp6381
a(S'MPI_Bcast()'
p6382
S'322'
p6383
tp6384
a(S'MPI_Bcast()'
p6385
S'323'
p6386
tp6387
asS'geosci/lmp/alt/create_atoms.cpp'
p6388
(lp6389
(S'MPI_Allreduce()'
p6390
S'221'
p6391
tp6392
asS'geosci/lmp/alt/USER-CG-CMM/pair_lj_sdk.cpp'
p6393
(lp6394
(S'MPI_Bcast()'
p6395
S'385'
p6396
tp6397
a(S'MPI_Bcast()'
p6398
S'393'
p6399
tp6400
a(S'MPI_Bcast()'
p6401
S'394'
p6402
tp6403
a(S'MPI_Bcast()'
p6404
S'395'
p6405
tp6406
a(S'MPI_Bcast()'
p6407
S'396'
p6408
tp6409
a(S'MPI_Bcast()'
p6410
S'426'
p6411
tp6412
a(S'MPI_Bcast()'
p6413
S'427'
p6414
tp6415
a(S'MPI_Bcast()'
p6416
S'428'
p6417
tp6418
a(S'MPI_Bcast()'
p6419
S'429'
p6420
tp6421
asS'geosci/lmp/alt/atom_vec_body.cpp'
p6422
(lp6423
(S'MPI_Bcast()'
p6424
S'1254'
p6425
tp6426
a(S'MPI_Bcast()'
p6427
S'1259'
p6428
tp6429
a(S'MPI_Bcast()'
p6430
S'1262'
p6431
tp6432
asS'geosci/lmp/alt/GPU/pair_colloid_gpu.cpp'
p6433
(lp6434
(S'MPI_Wtime()'
p6435
S'117'
p6436
tp6437
asS'geosci/lmp/alt/KSPACE/pair_lj_charmm_coul_long.cpp'
p6438
(lp6439
(S'MPI_Bcast()'
p6440
S'869'
p6441
tp6442
a(S'MPI_Bcast()'
p6443
S'877'
p6444
tp6445
a(S'MPI_Bcast()'
p6446
S'878'
p6447
tp6448
a(S'MPI_Bcast()'
p6449
S'879'
p6450
tp6451
a(S'MPI_Bcast()'
p6452
S'880'
p6453
tp6454
a(S'MPI_Bcast()'
p6455
S'915'
p6456
tp6457
a(S'MPI_Bcast()'
p6458
S'916'
p6459
tp6460
a(S'MPI_Bcast()'
p6461
S'917'
p6462
tp6463
a(S'MPI_Bcast()'
p6464
S'918'
p6465
tp6466
a(S'MPI_Bcast()'
p6467
S'919'
p6468
tp6469
a(S'MPI_Bcast()'
p6470
S'920'
p6471
tp6472
a(S'MPI_Bcast()'
p6473
S'921'
p6474
tp6475
asS'geosci/lmp/alt/KSPACE/pair_coul_long.cpp'
p6476
(lp6477
(S'MPI_Bcast()'
p6478
S'311'
p6479
tp6480
a(S'MPI_Bcast()'
p6481
S'312'
p6482
tp6483
a(S'MPI_Bcast()'
p6484
S'313'
p6485
tp6486
a(S'MPI_Bcast()'
p6487
S'314'
p6488
tp6489
a(S'MPI_Bcast()'
p6490
S'315'
p6491
tp6492
asS'geosci/lmp/alt/FLD/pair_lubricate_poly.cpp'
p6493
(lp6494
(S'MPI_Allreduce()'
p6495
S'438'
p6496
tp6497
a(S'MPI_Allreduce()'
p6498
S'541'
p6499
tp6500
asS'geosci/lmp/alt/USER-MISC/angle_quartic.cpp'
p6501
(lp6502
(S'MPI_Bcast()'
p6503
S'241'
p6504
tp6505
a(S'MPI_Bcast()'
p6506
S'242'
p6507
tp6508
a(S'MPI_Bcast()'
p6509
S'243'
p6510
tp6511
a(S'MPI_Bcast()'
p6512
S'244'
p6513
tp6514
asS'geosci/lmp/alt/USER-CUDA/fix_shake_cuda.cpp'
p6515
(lp6516
(S'MPI_Comm_rank()'
p6517
S'61'
p6518
tp6519
a(S'MPI_Comm_size()'
p6520
S'62'
p6521
tp6522
a(S'MPI_Allreduce()'
p6523
S'436'
p6524
tp6525
a(S'MPI_Allreduce()'
p6526
S'442'
p6527
tp6528
a(S'MPI_Allreduce()'
p6529
S'444'
p6530
tp6531
a(S'MPI_Allreduce()'
p6532
S'783'
p6533
tp6534
a(S'MPI_Allreduce()'
p6535
S'917'
p6536
tp6537
a(S'MPI_Irecv()'
p6538
S'982'
p6539
tp6540
a(S'MPI_Send()'
p6541
S'983'
p6542
tp6543
a(S'MPI_Wait()'
p6544
S'984'
p6545
tp6546
a(S'MPI_Get_count()'
p6547
S'985'
p6548
tp6549
a(S'MPI_Allreduce()'
p6550
S'1032'
p6551
tp6552
a(S'MPI_Allreduce()'
p6553
S'1113'
p6554
tp6555
a(S'MPI_Irecv()'
p6556
S'1152'
p6557
tp6558
a(S'MPI_Send()'
p6559
S'1153'
p6560
tp6561
a(S'MPI_Wait()'
p6562
S'1154'
p6563
tp6564
a(S'MPI_Get_count()'
p6565
S'1155'
p6566
tp6567
a(S'MPI_Allreduce()'
p6568
S'1188'
p6569
tp6570
a(S'MPI_Allreduce()'
p6571
S'1201'
p6572
tp6573
a(S'MPI_Allreduce()'
p6574
S'1305'
p6575
tp6576
a(S'MPI_Irecv()'
p6577
S'1364'
p6578
tp6579
a(S'MPI_Send()'
p6580
S'1365'
p6581
tp6582
a(S'MPI_Wait()'
p6583
S'1366'
p6584
tp6585
a(S'MPI_Get_count()'
p6586
S'1367'
p6587
tp6588
a(S'MPI_Allreduce()'
p6589
S'1456'
p6590
tp6591
a(S'MPI_Allreduce()'
p6592
S'1458'
p6593
tp6594
a(S'MPI_Allreduce()'
p6595
S'1460'
p6596
tp6597
a(S'MPI_Allreduce()'
p6598
S'1462'
p6599
tp6600
a(S'MPI_Allreduce()'
p6601
S'2433'
p6602
tp6603
a(S'MPI_Allreduce()'
p6604
S'2434'
p6605
tp6606
a(S'MPI_Allreduce()'
p6607
S'2435'
p6608
tp6609
a(S'MPI_Allreduce()'
p6610
S'2436'
p6611
tp6612
a(S'MPI_Allreduce()'
p6613
S'2438'
p6614
tp6615
a(S'MPI_Allreduce()'
p6616
S'2439'
p6617
tp6618
a(S'MPI_Allreduce()'
p6619
S'2440'
p6620
tp6621
a(S'MPI_Allreduce()'
p6622
S'2441'
p6623
tp6624
asS'geosci/lmp/alt/KSPACE/commgrid.cpp'
p6625
(lp6626
(S'MPI_Comm_rank()'
p6627
S'34'
p6628
tp6629
a(S'MPI_Comm_rank()'
p6630
S'82'
p6631
tp6632
a(S'MPI_Sendrecv()'
p6633
S'147'
p6634
tp6635
a(S'MPI_Sendrecv()'
p6636
S'153'
p6637
tp6638
a(S'MPI_Sendrecv()'
p6639
S'159'
p6640
tp6641
a(S'MPI_Sendrecv()'
p6642
S'165'
p6643
tp6644
a(S'MPI_Sendrecv()'
p6645
S'171'
p6646
tp6647
a(S'MPI_Sendrecv()'
p6648
S'177'
p6649
tp6650
a(S'MPI_Allreduce()'
p6651
S'198'
p6652
tp6653
a(S'MPI_Sendrecv()'
p6654
S'244'
p6655
tp6656
a(S'MPI_Allreduce()'
p6657
S'260'
p6658
tp6659
a(S'MPI_Sendrecv()'
p6660
S'286'
p6661
tp6662
a(S'MPI_Allreduce()'
p6663
S'302'
p6664
tp6665
a(S'MPI_Sendrecv()'
p6666
S'328'
p6667
tp6668
a(S'MPI_Allreduce()'
p6669
S'344'
p6670
tp6671
a(S'MPI_Sendrecv()'
p6672
S'370'
p6673
tp6674
a(S'MPI_Allreduce()'
p6675
S'386'
p6676
tp6677
a(S'MPI_Sendrecv()'
p6678
S'412'
p6679
tp6680
a(S'MPI_Allreduce()'
p6681
S'428'
p6682
tp6683
a(S'MPI_Sendrecv()'
p6684
S'454'
p6685
tp6686
a(S'MPI_Allreduce()'
p6687
S'470'
p6688
tp6689
a(S'MPI_Irecv()'
p6690
S'500'
p6691
tp6692
a(S'MPI_Send()'
p6693
S'502'
p6694
tp6695
a(S'MPI_Wait()'
p6696
S'504'
p6697
tp6698
a(S'MPI_Irecv()'
p6699
S'527'
p6700
tp6701
a(S'MPI_Send()'
p6702
S'529'
p6703
tp6704
a(S'MPI_Wait()'
p6705
S'531'
p6706
tp6707
asS'geosci/lmp/alt/DIPOLE/pair_lj_long_dipole_long.cpp'
p6708
(lp6709
(S'MPI_Bcast()'
p6710
S'368'
p6711
tp6712
a(S'MPI_Bcast()'
p6713
S'375'
p6714
tp6715
a(S'MPI_Bcast()'
p6716
S'376'
p6717
tp6718
a(S'MPI_Bcast()'
p6719
S'377'
p6720
tp6721
a(S'MPI_Bcast()'
p6722
S'408'
p6723
tp6724
a(S'MPI_Bcast()'
p6725
S'409'
p6726
tp6727
a(S'MPI_Bcast()'
p6728
S'410'
p6729
tp6730
a(S'MPI_Bcast()'
p6731
S'411'
p6732
tp6733
a(S'MPI_Bcast()'
p6734
S'412'
p6735
tp6736
asS'geosci/lmp/alt/pair_lj_long_dipole_long.cpp'
p6737
(lp6738
(S'MPI_Bcast()'
p6739
S'368'
p6740
tp6741
a(S'MPI_Bcast()'
p6742
S'375'
p6743
tp6744
a(S'MPI_Bcast()'
p6745
S'376'
p6746
tp6747
a(S'MPI_Bcast()'
p6748
S'377'
p6749
tp6750
a(S'MPI_Bcast()'
p6751
S'408'
p6752
tp6753
a(S'MPI_Bcast()'
p6754
S'409'
p6755
tp6756
a(S'MPI_Bcast()'
p6757
S'410'
p6758
tp6759
a(S'MPI_Bcast()'
p6760
S'411'
p6761
tp6762
a(S'MPI_Bcast()'
p6763
S'412'
p6764
tp6765
asS'geosci/lmp/alt/MOLECULE/bond_nonlinear.cpp'
p6766
(lp6767
(S'MPI_Bcast()'
p6768
S'175'
p6769
tp6770
a(S'MPI_Bcast()'
p6771
S'176'
p6772
tp6773
a(S'MPI_Bcast()'
p6774
S'177'
p6775
tp6776
asS'geosci/lmp/alt/MC/fix_bond_create.cpp'
p6777
(lp6778
(S'MPI_Comm_rank()'
p6779
S'44'
p6780
tp6781
a(S'MPI_Allreduce()'
p6782
S'452'
p6783
tp6784
asS'geosci/lmp/alt/USER-OMP/pppm_tip4p_omp.cpp'
p6785
(lp6786
(S'MPI_Allreduce()'
p6787
S'298'
p6788
tp6789
a(S'MPI_Allreduce()'
p6790
S'381'
p6791
tp6792
asS'geosci/lmp/alt/GPU/pair_resquared_gpu.cpp'
p6793
(lp6794
(S'MPI_Wtime()'
p6795
S'142'
p6796
tp6797
asS'geosci/lmp/alt/GPU/pair_lj_class2_gpu.cpp'
p6798
(lp6799
(S'MPI_Wtime()'
p6800
S'112'
p6801
tp6802
asS'geosci/lmp/alt/KSPACE/msm_cg.cpp'
p6803
(lp6804
(S'MPI_Reduce()'
p6805
S'128'
p6806
tp6807
a(S'MPI_Reduce()'
p6808
S'129'
p6809
tp6810
a(S'MPI_Reduce()'
p6811
S'134'
p6812
tp6813
a(S'MPI_Allreduce()'
p6814
S'249'
p6815
tp6816
a(S'MPI_Allreduce()'
p6817
S'261'
p6818
tp6819
asS'geosci/lmp/alt/temper.cpp'
p6820
(lp6821
(S'MPI_Comm_free()'
p6822
S'51'
p6823
tp6824
a(S'MPI_Comm_rank()'
p6825
S'118'
p6826
tp6827
a(S'MPI_Comm_split()'
p6828
S'136'
p6829
tp6830
a(S'MPI_Allgather()'
p6831
S'150'
p6832
tp6833
a(S'MPI_Bcast()'
p6834
S'151'
p6835
tp6836
a(S'MPI_Bcast()'
p6837
S'159'
p6838
tp6839
a(S'MPI_Allgather()'
p6840
S'168'
p6841
tp6842
a(S'MPI_Bcast()'
p6843
S'171'
p6844
tp6845
a(S'MPI_Send()'
p6846
S'255'
p6847
tp6848
a(S'MPI_Recv()'
p6849
S'257'
p6850
tp6851
a(S'MPI_Send()'
p6852
S'268'
p6853
tp6854
a(S'MPI_Recv()'
p6855
S'270'
p6856
tp6857
a(S'MPI_Bcast()'
p6858
S'283'
p6859
tp6860
a(S'MPI_Allgather()'
p6861
S'303'
p6862
tp6863
a(S'MPI_Bcast()'
p6864
S'306'
p6865
tp6866
asS'geosci/lmp/alt/displace_atoms.cpp'
p6867
(lp6868
(S'MPI_Allreduce()'
p6869
S'281'
p6870
tp6871
asS'geosci/lmp/alt/USER-REAXC/reaxc_control.cpp'
p6872
(lp6873
(S'MPI_Abort()'
p6874
S'48'
p6875
tp6876
a(S'MPI_Abort()'
p6877
S'381'
p6878
tp6879
asS'geosci/lmp/alt/compute_com_molecule.cpp'
p6880
(lp6881
(S'MPI_Allreduce()'
p6882
S'72'
p6883
tp6884
a(S'MPI_Allreduce()'
p6885
S'129'
p6886
tp6887
a(S'X_MPI_DOUBLE()'
p6888
S'130'
p6889
tp6890
asS'geosci/lmp/alt/USER-MISC/improper_ring.cpp'
p6891
(lp6892
(S'MPI_Bcast()'
p6893
S'336'
p6894
tp6895
a(S'MPI_Bcast()'
p6896
S'337'
p6897
tp6898
asS'geosci/lmp/alt/USER-MISC/angle_dipole.cpp'
p6899
(lp6900
(S'MPI_Bcast()'
p6901
S'178'
p6902
tp6903
a(S'MPI_Bcast()'
p6904
S'179'
p6905
tp6906
asS'geosci/lmp/alt/MOLECULE/bond_fene_expand.cpp'
p6907
(lp6908
(S'MPI_Bcast()'
p6909
S'234'
p6910
tp6911
a(S'MPI_Bcast()'
p6912
S'235'
p6913
tp6914
a(S'MPI_Bcast()'
p6915
S'236'
p6916
tp6917
a(S'MPI_Bcast()'
p6918
S'237'
p6919
tp6920
a(S'MPI_Bcast()'
p6921
S'238'
p6922
tp6923
asS'geosci/lmp/alt/GPU/pair_yukawa_gpu.cpp'
p6924
(lp6925
(S'MPI_Wtime()'
p6926
S'114'
p6927
tp6928
asS'geosci/lmp/alt/angle_dipole.cpp'
p6929
(lp6930
(S'MPI_Bcast()'
p6931
S'178'
p6932
tp6933
a(S'MPI_Bcast()'
p6934
S'179'
p6935
tp6936
asS'geosci/lmp/alt/GPU/pair_lj_expand_gpu.cpp'
p6937
(lp6938
(S'MPI_Wtime()'
p6939
S'114'
p6940
tp6941
asS'geosci/lmp/alt/USER-CUDA/fix_aveforce_cuda.cpp'
p6942
(lp6943
(S'MPI_Allreduce()'
p6944
S'215'
p6945
tp6946
asS'geosci/lmp/alt/VORONOI/compute_voronoi_atom.cpp'
p6947
(lp6948
(S'MPI_Allreduce()'
p6949
S'368'
p6950
tp6951
asS'geosci/lmp/alt/GPU/pair_buck_coul_cut_gpu.cpp'
p6952
(lp6953
(S'MPI_Wtime()'
p6954
S'121'
p6955
tp6956
asS'geosci/lmp/alt/USER-MISC/improper_fourier.cpp'
p6957
(lp6958
(S'MPI_Comm_rank()'
p6959
S'157'
p6960
tp6961
a(S'MPI_Bcast()'
p6962
S'338'
p6963
tp6964
a(S'MPI_Bcast()'
p6965
S'339'
p6966
tp6967
a(S'MPI_Bcast()'
p6968
S'340'
p6969
tp6970
a(S'MPI_Bcast()'
p6971
S'341'
p6972
tp6973
a(S'MPI_Bcast()'
p6974
S'342'
p6975
tp6976
asS'geosci/lmp/alt/USER-MISC/pair_cdeam.cpp'
p6977
(lp6978
(S'MPI_Bcast()'
p6979
S'491'
p6980
tp6981
a(S'MPI_Bcast()'
p6982
S'493'
p6983
tp6984
asS'geosci/lmp/alt/KSPACE/pppm_old.cpp'
p6985
(lp6986
(S'MPI_Comm_rank()'
p6987
S'75'
p6988
tp6989
a(S'MPI_Comm_size()'
p6990
S'76'
p6991
tp6992
a(S'MPI_Allreduce()'
p6993
S'208'
p6994
tp6995
a(S'MPI_Allreduce()'
p6996
S'210'
p6997
tp6998
a(S'MPI_Sendrecv()'
p6999
S'357'
p7000
tp7001
a(S'MPI_Sendrecv()'
p7002
S'364'
p7003
tp7004
a(S'MPI_Sendrecv()'
p7005
S'371'
p7006
tp7007
a(S'MPI_Sendrecv()'
p7008
S'378'
p7009
tp7010
a(S'MPI_Sendrecv()'
p7011
S'385'
p7012
tp7013
a(S'MPI_Sendrecv()'
p7014
S'392'
p7015
tp7016
a(S'MPI_Allreduce()'
p7017
S'408'
p7018
tp7019
a(S'MPI_Allreduce()'
p7020
S'495'
p7021
tp7022
a(S'MPI_Allreduce()'
p7023
S'496'
p7024
tp7025
a(S'MPI_Allreduce()'
p7026
S'497'
p7027
tp7028
a(S'MPI_Allreduce()'
p7029
S'750'
p7030
tp7031
a(S'MPI_Allreduce()'
p7032
S'763'
p7033
tp7034
a(S'MPI_Irecv()'
p7035
S'1227'
p7036
tp7037
a(S'MPI_Send()'
p7038
S'1228'
p7039
tp7040
a(S'MPI_Wait()'
p7041
S'1229'
p7042
tp7043
a(S'MPI_Irecv()'
p7044
S'1251'
p7045
tp7046
a(S'MPI_Send()'
p7047
S'1252'
p7048
tp7049
a(S'MPI_Wait()'
p7050
S'1253'
p7051
tp7052
a(S'MPI_Irecv()'
p7053
S'1275'
p7054
tp7055
a(S'MPI_Send()'
p7056
S'1276'
p7057
tp7058
a(S'MPI_Wait()'
p7059
S'1277'
p7060
tp7061
a(S'MPI_Irecv()'
p7062
S'1299'
p7063
tp7064
a(S'MPI_Send()'
p7065
S'1300'
p7066
tp7067
a(S'MPI_Wait()'
p7068
S'1301'
p7069
tp7070
a(S'MPI_Irecv()'
p7071
S'1323'
p7072
tp7073
a(S'MPI_Send()'
p7074
S'1324'
p7075
tp7076
a(S'MPI_Wait()'
p7077
S'1325'
p7078
tp7079
a(S'MPI_Irecv()'
p7080
S'1347'
p7081
tp7082
a(S'MPI_Send()'
p7083
S'1348'
p7084
tp7085
a(S'MPI_Wait()'
p7086
S'1349'
p7087
tp7088
a(S'MPI_Irecv()'
p7089
S'1398'
p7090
tp7091
a(S'MPI_Send()'
p7092
S'1399'
p7093
tp7094
a(S'MPI_Wait()'
p7095
S'1400'
p7096
tp7097
a(S'MPI_Irecv()'
p7098
S'1428'
p7099
tp7100
a(S'MPI_Send()'
p7101
S'1429'
p7102
tp7103
a(S'MPI_Wait()'
p7104
S'1430'
p7105
tp7106
a(S'MPI_Irecv()'
p7107
S'1458'
p7108
tp7109
a(S'MPI_Send()'
p7110
S'1459'
p7111
tp7112
a(S'MPI_Wait()'
p7113
S'1460'
p7114
tp7115
a(S'MPI_Irecv()'
p7116
S'1488'
p7117
tp7118
a(S'MPI_Send()'
p7119
S'1489'
p7120
tp7121
a(S'MPI_Wait()'
p7122
S'1490'
p7123
tp7124
a(S'MPI_Irecv()'
p7125
S'1518'
p7126
tp7127
a(S'MPI_Send()'
p7128
S'1519'
p7129
tp7130
a(S'MPI_Wait()'
p7131
S'1520'
p7132
tp7133
a(S'MPI_Irecv()'
p7134
S'1548'
p7135
tp7136
a(S'MPI_Send()'
p7137
S'1549'
p7138
tp7139
a(S'MPI_Wait()'
p7140
S'1550'
p7141
tp7142
a(S'MPI_Irecv()'
p7143
S'1595'
p7144
tp7145
a(S'MPI_Send()'
p7146
S'1597'
p7147
tp7148
a(S'MPI_Wait()'
p7149
S'1598'
p7150
tp7151
a(S'MPI_Irecv()'
p7152
S'1638'
p7153
tp7154
a(S'MPI_Send()'
p7155
S'1640'
p7156
tp7157
a(S'MPI_Wait()'
p7158
S'1641'
p7159
tp7160
a(S'MPI_Irecv()'
p7161
S'1681'
p7162
tp7163
a(S'MPI_Send()'
p7164
S'1683'
p7165
tp7166
a(S'MPI_Wait()'
p7167
S'1684'
p7168
tp7169
a(S'MPI_Irecv()'
p7170
S'1724'
p7171
tp7172
a(S'MPI_Send()'
p7173
S'1726'
p7174
tp7175
a(S'MPI_Wait()'
p7176
S'1727'
p7177
tp7178
a(S'MPI_Irecv()'
p7179
S'1767'
p7180
tp7181
a(S'MPI_Send()'
p7182
S'1769'
p7183
tp7184
a(S'MPI_Wait()'
p7185
S'1770'
p7186
tp7187
a(S'MPI_Irecv()'
p7188
S'1810'
p7189
tp7190
a(S'MPI_Send()'
p7191
S'1812'
p7192
tp7193
a(S'MPI_Wait()'
p7194
S'1813'
p7195
tp7196
a(S'MPI_Allreduce()'
p7197
S'2453'
p7198
tp7199
a(S'MPI_Allreduce()'
p7200
S'2466'
p7201
tp7202
a(S'MPI_Barrier()'
p7203
S'2506'
p7204
tp7205
a(S'MPI_Wtime()'
p7206
S'2507'
p7207
tp7208
a(S'MPI_Barrier()'
p7209
S'2516'
p7210
tp7211
a(S'MPI_Wtime()'
p7212
S'2517'
p7213
tp7214
a(S'MPI_Barrier()'
p7215
S'2533'
p7216
tp7217
a(S'MPI_Wtime()'
p7218
S'2534'
p7219
tp7220
a(S'MPI_Barrier()'
p7221
S'2543'
p7222
tp7223
a(S'MPI_Wtime()'
p7224
S'2544'
p7225
tp7226
a(S'MPI_Allreduce()'
p7227
S'2654'
p7228
tp7229
a(S'MPI_Allreduce()'
p7230
S'2662'
p7231
tp7232
asS'geosci/lmp/alt/KSPACE/pair_born_coul_long.cpp'
p7233
(lp7234
(S'MPI_Allreduce()'
p7235
S'343'
p7236
tp7237
a(S'MPI_Bcast()'
p7238
S'427'
p7239
tp7240
a(S'MPI_Bcast()'
p7241
S'437'
p7242
tp7243
a(S'MPI_Bcast()'
p7244
S'438'
p7245
tp7246
a(S'MPI_Bcast()'
p7247
S'439'
p7248
tp7249
a(S'MPI_Bcast()'
p7250
S'440'
p7251
tp7252
a(S'MPI_Bcast()'
p7253
S'441'
p7254
tp7255
a(S'MPI_Bcast()'
p7256
S'442'
p7257
tp7258
a(S'MPI_Bcast()'
p7259
S'477'
p7260
tp7261
a(S'MPI_Bcast()'
p7262
S'478'
p7263
tp7264
a(S'MPI_Bcast()'
p7265
S'479'
p7266
tp7267
a(S'MPI_Bcast()'
p7268
S'480'
p7269
tp7270
a(S'MPI_Bcast()'
p7271
S'481'
p7272
tp7273
a(S'MPI_Bcast()'
p7274
S'482'
p7275
tp7276
a(S'MPI_Bcast()'
p7277
S'483'
p7278
tp7279
asS'geosci/lmp/alt/PERI/fix_peri_neigh.cpp'
p7280
(lp7281
(S'MPI_Allreduce()'
p7282
S'202'
p7283
tp7284
a(S'MPI_Allreduce()'
p7285
S'345'
p7286
tp7287
asS'geosci/lmp/alt/library.cpp'
p7288
(lp7289
(S'MPI_Initialized()'
p7290
S'59'
p7291
tp7292
a(S'MPI_Init()'
p7293
S'64'
p7294
tp7295
a(S'MPI_Allreduce()'
p7296
S'428'
p7297
tp7298
a(S'MPI_Allreduce()'
p7299
S'455'
p7300
tp7301
asS'geosci/lmp/alt/USER-REAXC/reaxc_list.cpp'
p7302
(lp7303
(S'MPI_Abort()'
p7304
S'91'
p7305
tp7306
a(S'MPI_Abort()'
p7307
S'132'
p7308
tp7309
asS'geosci/lmp/alt/USER-REAXC/reaxc_valence_angles.cpp'
p7310
(lp7311
(S'MPI_Abort()'
p7312
S'551'
p7313
tp7314
asS'geosci/lmp/alt/MOLECULE/pair_lj_charmm_coul_charmm.cpp'
p7315
(lp7316
(S'MPI_Bcast()'
p7317
S'380'
p7318
tp7319
a(S'MPI_Bcast()'
p7320
S'388'
p7321
tp7322
a(S'MPI_Bcast()'
p7323
S'389'
p7324
tp7325
a(S'MPI_Bcast()'
p7326
S'390'
p7327
tp7328
a(S'MPI_Bcast()'
p7329
S'391'
p7330
tp7331
a(S'MPI_Bcast()'
p7332
S'447'
p7333
tp7334
a(S'MPI_Bcast()'
p7335
S'448'
p7336
tp7337
a(S'MPI_Bcast()'
p7338
S'449'
p7339
tp7340
a(S'MPI_Bcast()'
p7341
S'450'
p7342
tp7343
a(S'MPI_Bcast()'
p7344
S'451'
p7345
tp7346
a(S'MPI_Bcast()'
p7347
S'452'
p7348
tp7349
asS'geosci/lmp/alt/MISC/fix_viscosity.cpp'
p7350
(lp7351
(S'MPI_Comm_rank()'
p7352
S'44'
p7353
tp7354
a(S'MPI_Allreduce()'
p7355
S'255'
p7356
tp7357
a(S'MPI_Sendrecv()'
p7358
S'278'
p7359
tp7360
a(S'MPI_Sendrecv()'
p7361
S'289'
p7362
tp7363
a(S'MPI_Allreduce()'
p7364
S'300'
p7365
tp7366
asS'geosci/lmp/alt/pair_lj_sf.cpp'
p7367
(lp7368
(S'MPI_Bcast()'
p7369
S'295'
p7370
tp7371
a(S'MPI_Bcast()'
p7372
S'302'
p7373
tp7374
a(S'MPI_Bcast()'
p7375
S'303'
p7376
tp7377
a(S'MPI_Bcast()'
p7378
S'304'
p7379
tp7380
a(S'MPI_Bcast()'
p7381
S'332'
p7382
tp7383
a(S'MPI_Bcast()'
p7384
S'333'
p7385
tp7386
a(S'MPI_Bcast()'
p7387
S'334'
p7388
tp7389
asS'geosci/lmp/alt/KSPACE/msm.cpp'
p7390
(lp7391
(S'MPI_Comm_rank()'
p7392
S'60'
p7393
tp7394
a(S'MPI_Allreduce()'
p7395
S'190'
p7396
tp7397
a(S'MPI_Allreduce()'
p7398
S'192'
p7399
tp7400
a(S'MPI_Allreduce()'
p7401
S'224'
p7402
tp7403
a(S'MPI_Allreduce()'
p7404
S'581'
p7405
tp7406
a(S'MPI_Allreduce()'
p7407
S'593'
p7408
tp7409
a(S'MPI_Comm_free()'
p7410
S'689'
p7411
tp7412
a(S'MPI_Allreduce()'
p7413
S'1328'
p7414
tp7415
a(S'MPI_Comm_split()'
p7416
S'1342'
p7417
tp7418
a(S'MPI_Cart_create()'
p7419
S'1355'
p7420
tp7421
a(S'MPI_Cart_get()'
p7422
S'1356'
p7423
tp7424
a(S'MPI_Cart_shift()'
p7425
S'1357'
p7426
tp7427
a(S'MPI_Cart_shift()'
p7428
S'1358'
p7429
tp7430
a(S'MPI_Cart_shift()'
p7431
S'1359'
p7432
tp7433
a(S'MPI_Comm_free()'
p7434
S'1361'
p7435
tp7436
a(S'MPI_Allreduce()'
p7437
S'2439'
p7438
tp7439
a(S'MPI_Allreduce()'
p7440
S'2497'
p7441
tp7442
asS'geosci/lmp/alt/dihedral_nharmonic.cpp'
p7443
(lp7444
(S'MPI_Comm_rank()'
p7445
S'156'
p7446
tp7447
a(S'MPI_Bcast()'
p7448
S'319'
p7449
tp7450
a(S'MPI_Bcast()'
p7451
S'331'
p7452
tp7453
asS'geosci/lmp/alt/MOLECULE/dihedral_harmonic.cpp'
p7454
(lp7455
(S'MPI_Comm_rank()'
p7456
S'137'
p7457
tp7458
a(S'MPI_Bcast()'
p7459
S'336'
p7460
tp7461
a(S'MPI_Bcast()'
p7462
S'337'
p7463
tp7464
a(S'MPI_Bcast()'
p7465
S'338'
p7466
tp7467
asS'geosci/lmp/alt/USER-REAXC/reaxc_nonbonded.cpp'
p7468
(lp7469
(S'MPI_Barrier()'
p7470
S'252'
p7471
tp7472
asS'geosci/lmp/alt/ASPHERE/pair_resquared.cpp'
p7473
(lp7474
(S'MPI_Bcast()'
p7475
S'446'
p7476
tp7477
a(S'MPI_Bcast()'
p7478
S'449'
p7479
tp7480
a(S'MPI_Bcast()'
p7481
S'453'
p7482
tp7483
a(S'MPI_Bcast()'
p7484
S'460'
p7485
tp7486
a(S'MPI_Bcast()'
p7487
S'461'
p7488
tp7489
a(S'MPI_Bcast()'
p7490
S'462'
p7491
tp7492
a(S'MPI_Bcast()'
p7493
S'489'
p7494
tp7495
a(S'MPI_Bcast()'
p7496
S'490'
p7497
tp7498
asS'geosci/lmp/alt/MOLECULE/dihedral_opls.cpp'
p7499
(lp7500
(S'MPI_Comm_rank()'
p7501
S'164'
p7502
tp7503
a(S'MPI_Bcast()'
p7504
S'338'
p7505
tp7506
a(S'MPI_Bcast()'
p7507
S'339'
p7508
tp7509
a(S'MPI_Bcast()'
p7510
S'340'
p7511
tp7512
a(S'MPI_Bcast()'
p7513
S'341'
p7514
tp7515
asS'geosci/lmp/alt/COLLOID/fix_wall_colloid.cpp'
p7516
(lp7517
(S'MPI_Allreduce()'
p7518
S'54'
p7519
tp7520
asS'geosci/lmp/alt/USER-CUDA/pppm_cuda.cpp'
p7521
(lp7522
(S'MPI_Comm_rank()'
p7523
S'122'
p7524
tp7525
a(S'MPI_Comm_size()'
p7526
S'123'
p7527
tp7528
a(S'MPI_Allreduce()'
p7529
S'284'
p7530
tp7531
a(S'MPI_Allreduce()'
p7532
S'286'
p7533
tp7534
a(S'MPI_Sendrecv()'
p7535
S'432'
p7536
tp7537
a(S'MPI_Sendrecv()'
p7538
S'439'
p7539
tp7540
a(S'MPI_Sendrecv()'
p7541
S'446'
p7542
tp7543
a(S'MPI_Sendrecv()'
p7544
S'453'
p7545
tp7546
a(S'MPI_Sendrecv()'
p7547
S'460'
p7548
tp7549
a(S'MPI_Sendrecv()'
p7550
S'467'
p7551
tp7552
a(S'MPI_Allreduce()'
p7553
S'483'
p7554
tp7555
a(S'MPI_Allreduce()'
p7556
S'570'
p7557
tp7558
a(S'MPI_Allreduce()'
p7559
S'571'
p7560
tp7561
a(S'MPI_Allreduce()'
p7562
S'572'
p7563
tp7564
a(S'MPI_Allreduce()'
p7565
S'800'
p7566
tp7567
a(S'MPI_Allreduce()'
p7568
S'813'
p7569
tp7570
a(S'MPI_Allreduce()'
p7571
S'1277'
p7572
tp7573
a(S'MPI_Allreduce()'
p7574
S'1422'
p7575
tp7576
asS'geosci/lmp/alt/MOLECULE/angle_cosine_periodic.cpp'
p7577
(lp7578
(S'MPI_Bcast()'
p7579
S'259'
p7580
tp7581
a(S'MPI_Bcast()'
p7582
S'260'
p7583
tp7584
a(S'MPI_Bcast()'
p7585
S'261'
p7586
tp7587
asS'geosci/lmp/alt/USER-OMP/pppm_disp_tip4p_omp.cpp'
p7588
(lp7589
(S'MPI_Allreduce()'
p7590
S'400'
p7591
tp7592
a(S'MPI_Allreduce()'
p7593
S'469'
p7594
tp7595
asS'geosci/lmp/alt/MANYBODY/pair_tersoff_zbl.cpp'
p7596
(lp7597
(S'MPI_Bcast()'
p7598
S'100'
p7599
tp7600
a(S'MPI_Bcast()'
p7601
S'102'
p7602
tp7603
a(S'MPI_Bcast()'
p7604
S'103'
p7605
tp7606
a(S'MPI_Bcast()'
p7607
S'122'
p7608
tp7609
a(S'MPI_Bcast()'
p7610
S'124'
p7611
tp7612
a(S'MPI_Bcast()'
p7613
S'125'
p7614
tp7615
asS'geosci/lmp/alt/MOLECULE/bond_quartic.cpp'
p7616
(lp7617
(S'MPI_Bcast()'
p7618
S'287'
p7619
tp7620
a(S'MPI_Bcast()'
p7621
S'288'
p7622
tp7623
a(S'MPI_Bcast()'
p7624
S'289'
p7625
tp7626
a(S'MPI_Bcast()'
p7627
S'290'
p7628
tp7629
a(S'MPI_Bcast()'
p7630
S'291'
p7631
tp7632
asS'geosci/lmp/alt/MOLECULE/angle_charmm.cpp'
p7633
(lp7634
(S'MPI_Bcast()'
p7635
S'254'
p7636
tp7637
a(S'MPI_Bcast()'
p7638
S'255'
p7639
tp7640
a(S'MPI_Bcast()'
p7641
S'256'
p7642
tp7643
a(S'MPI_Bcast()'
p7644
S'257'
p7645
tp7646
asS'geosci/lmp/alt/fix_drag.cpp'
p7647
(lp7648
(S'MPI_Allreduce()'
p7649
S'145'
p7650
tp7651
asS'geosci/lmp/alt/angle_fourier_simple.cpp'
p7652
(lp7653
(S'MPI_Bcast()'
p7654
S'240'
p7655
tp7656
a(S'MPI_Bcast()'
p7657
S'241'
p7658
tp7659
a(S'MPI_Bcast()'
p7660
S'242'
p7661
tp7662
asS'geosci/lmp/alt/KSPACE/pppm_stagger.cpp'
p7663
(lp7664
(S'MPI_Allreduce()'
p7665
S'211'
p7666
tp7667
a(S'MPI_Allreduce()'
p7668
S'224'
p7669
tp7670
a(S'MPI_Allreduce()'
p7671
S'357'
p7672
tp7673
a(S'MPI_Allreduce()'
p7674
S'454'
p7675
tp7676
a(S'MPI_Allreduce()'
p7677
S'669'
p7678
tp7679
asS'geosci/lmp/alt/compute_temp_region.cpp'
p7680
(lp7681
(S'MPI_Allreduce()'
p7682
S'126'
p7683
tp7684
a(S'MPI_Allreduce()'
p7685
S'165'
p7686
tp7687
asS'geosci/lmp/alt/pair_gauss.cpp'
p7688
(lp7689
(S'MPI_Bcast()'
p7690
S'271'
p7691
tp7692
a(S'MPI_Bcast()'
p7693
S'278'
p7694
tp7695
a(S'MPI_Bcast()'
p7696
S'279'
p7697
tp7698
a(S'MPI_Bcast()'
p7699
S'280'
p7700
tp7701
a(S'MPI_Bcast()'
p7702
S'307'
p7703
tp7704
a(S'MPI_Bcast()'
p7705
S'308'
p7706
tp7707
a(S'MPI_Bcast()'
p7708
S'309'
p7709
tp7710
asS'geosci/lmp/alt/pair_gauss_cut.cpp'
p7711
(lp7712
(S'MPI_Allreduce()'
p7713
S'252'
p7714
tp7715
a(S'MPI_Bcast()'
p7716
S'293'
p7717
tp7718
a(S'MPI_Bcast()'
p7719
S'301'
p7720
tp7721
a(S'MPI_Bcast()'
p7722
S'302'
p7723
tp7724
a(S'MPI_Bcast()'
p7725
S'303'
p7726
tp7727
a(S'MPI_Bcast()'
p7728
S'304'
p7729
tp7730
a(S'MPI_Bcast()'
p7731
S'332'
p7732
tp7733
a(S'MPI_Bcast()'
p7734
S'333'
p7735
tp7736
a(S'MPI_Bcast()'
p7737
S'334'
p7738
tp7739
asS'geosci/lmp/alt/fix_aveforce.cpp'
p7740
(lp7741
(S'MPI_Allreduce()'
p7742
S'218'
p7743
tp7744
a(S'MPI_Allreduce()'
p7745
S'280'
p7746
tp7747
asS'geosci/lmp/alt/pair_tersoff_table.cpp'
p7748
(lp7749
(S'MPI_Bcast()'
p7750
S'880'
p7751
tp7752
a(S'MPI_Bcast()'
p7753
S'882'
p7754
tp7755
a(S'MPI_Bcast()'
p7756
S'883'
p7757
tp7758
a(S'MPI_Bcast()'
p7759
S'902'
p7760
tp7761
a(S'MPI_Bcast()'
p7762
S'904'
p7763
tp7764
a(S'MPI_Bcast()'
p7765
S'905'
p7766
tp7767
asS'geosci/lmp/alt/pair_lj_sf_dipole_sf.cpp'
p7768
(lp7769
(S'MPI_Bcast()'
p7770
S'469'
p7771
tp7772
a(S'MPI_Bcast()'
p7773
S'477'
p7774
tp7775
a(S'MPI_Bcast()'
p7776
S'478'
p7777
tp7778
a(S'MPI_Bcast()'
p7779
S'479'
p7780
tp7781
a(S'MPI_Bcast()'
p7782
S'480'
p7783
tp7784
a(S'MPI_Bcast()'
p7785
S'507'
p7786
tp7787
a(S'MPI_Bcast()'
p7788
S'508'
p7789
tp7790
a(S'MPI_Bcast()'
p7791
S'509'
p7792
tp7793
asS'geosci/lmp/alt/MC/pair_dsmc.cpp'
p7794
(lp7795
(S'MPI_Bcast()'
p7796
S'351'
p7797
tp7798
a(S'MPI_Bcast()'
p7799
S'357'
p7800
tp7801
a(S'MPI_Bcast()'
p7802
S'358'
p7803
tp7804
a(S'MPI_Bcast()'
p7805
S'390'
p7806
tp7807
a(S'MPI_Bcast()'
p7808
S'391'
p7809
tp7810
a(S'MPI_Bcast()'
p7811
S'392'
p7812
tp7813
a(S'MPI_Bcast()'
p7814
S'393'
p7815
tp7816
a(S'MPI_Bcast()'
p7817
S'394'
p7818
tp7819
asS'geosci/lmp/alt/MISC/fix_evaporate.cpp'
p7820
(lp7821
(S'MPI_Allreduce()'
p7822
S'131'
p7823
tp7824
a(S'MPI_Allreduce()'
p7825
S'148'
p7826
tp7827
a(S'MPI_Allreduce()'
p7828
S'199'
p7829
tp7830
a(S'MPI_Scan()'
p7831
S'200'
p7832
tp7833
a(S'MPI_Allreduce()'
p7834
S'259'
p7835
tp7836
a(S'MPI_Bcast()'
p7837
S'260'
p7838
tp7839
a(S'MPI_Allreduce()'
p7840
S'323'
p7841
tp7842
a(S'MPI_Allreduce()'
p7843
S'325'
p7844
tp7845
a(S'MPI_Scan()'
p7846
S'326'
p7847
tp7848
a(S'MPI_Allreduce()'
p7849
S'350'
p7850
tp7851
asS'geosci/lmp/alt/pair_lj_cut_dipole_long.cpp'
p7852
(lp7853
(S'MPI_Bcast()'
p7854
S'498'
p7855
tp7856
a(S'MPI_Bcast()'
p7857
S'505'
p7858
tp7859
a(S'MPI_Bcast()'
p7860
S'506'
p7861
tp7862
a(S'MPI_Bcast()'
p7863
S'507'
p7864
tp7865
a(S'MPI_Bcast()'
p7866
S'536'
p7867
tp7868
a(S'MPI_Bcast()'
p7869
S'537'
p7870
tp7871
a(S'MPI_Bcast()'
p7872
S'538'
p7873
tp7874
a(S'MPI_Bcast()'
p7875
S'539'
p7876
tp7877
asS'geosci/lmp/alt/GRANULAR/fix_freeze.cpp'
p7878
(lp7879
(S'MPI_Allreduce()'
p7880
S'127'
p7881
tp7882
asS'geosci/lmp/alt/USER-MISC/angle_cosine_shift.cpp'
p7883
(lp7884
(S'MPI_Bcast()'
p7885
S'230'
p7886
tp7887
a(S'MPI_Bcast()'
p7888
S'231'
p7889
tp7890
a(S'MPI_Bcast()'
p7891
S'232'
p7892
tp7893
a(S'MPI_Bcast()'
p7894
S'233'
p7895
tp7896
asS'geosci/lmp/alt/pair_lj_cubic.cpp'
p7897
(lp7898
(S'MPI_Bcast()'
p7899
S'290'
p7900
tp7901
a(S'MPI_Bcast()'
p7902
S'298'
p7903
tp7904
a(S'MPI_Bcast()'
p7905
S'299'
p7906
tp7907
a(S'MPI_Bcast()'
p7908
S'300'
p7909
tp7910
a(S'MPI_Bcast()'
p7911
S'301'
p7912
tp7913
a(S'MPI_Bcast()'
p7914
S'325'
p7915
tp7916
asS'geosci/lmp/alt/atom.cpp'
p7917
(lp7918
(S'MPI_Allreduce()'
p7919
S'476'
p7920
tp7921
a(S'MPI_Scan()'
p7922
S'484'
p7923
tp7924
a(S'MPI_Allreduce()'
p7925
S'511'
p7926
tp7927
a(S'MPI_Allreduce()'
p7928
S'512'
p7929
tp7930
a(S'MPI_Allreduce()'
p7931
S'1105'
p7932
tp7933
a(S'MPI_Allreduce()'
p7934
S'1108'
p7935
tp7936
a(S'MPI_Allreduce()'
p7937
S'1144'
p7938
tp7939
a(S'MPI_Allreduce()'
p7940
S'1148'
p7941
tp7942
asS'geosci/lmp/alt/compute_msd.cpp'
p7943
(lp7944
(S'MPI_Allreduce()'
p7945
S'201'
p7946
tp7947
asS'geosci/lmp/alt/USER-MISC/dihedral_table.cpp'
p7948
(lp7949
(S'MPI_Comm_rank()'
p7950
S'768'
p7951
tp7952
a(S'MPI_Bcast()'
p7953
S'968'
p7954
tp7955
a(S'MPI_Bcast()'
p7956
S'969'
p7957
tp7958
a(S'MPI_Bcast()'
p7959
S'1319'
p7960
tp7961
a(S'MPI_Comm_rank()'
p7962
S'1322'
p7963
tp7964
a(S'MPI_Bcast()'
p7965
S'1329'
p7966
tp7967
a(S'MPI_Bcast()'
p7968
S'1330'
p7969
tp7970
a(S'MPI_Bcast()'
p7971
S'1331'
p7972
tp7973
a(S'MPI_Bcast()'
p7974
S'1333'
p7975
tp7976
a(S'MPI_Bcast()'
p7977
S'1334'
p7978
tp7979
asS'geosci/lmp/alt/USER-MISC/bond_harmonic_shift_cut.cpp'
p7980
(lp7981
(S'MPI_Bcast()'
p7982
S'184'
p7983
tp7984
a(S'MPI_Bcast()'
p7985
S'185'
p7986
tp7987
a(S'MPI_Bcast()'
p7988
S'186'
p7989
tp7990
asS'geosci/lmp/alt/min_linesearch.cpp'
p7991
(lp7992
(S'MPI_Allreduce()'
p7993
S'201'
p7994
tp7995
a(S'MPI_Allreduce()'
p7996
S'217'
p7997
tp7998
a(S'MPI_Allreduce()'
p7999
S'225'
p8000
tp8001
a(S'MPI_Allreduce()'
p8002
S'350'
p8003
tp8004
a(S'MPI_Allreduce()'
p8005
S'366'
p8006
tp8007
a(S'MPI_Allreduce()'
p8008
S'374'
p8009
tp8010
a(S'MPI_Allreduce()'
p8011
S'437'
p8012
tp8013
a(S'MPI_Allreduce()'
p8014
S'627'
p8015
tp8016
a(S'MPI_Allreduce()'
p8017
S'648'
p8018
tp8019
a(S'MPI_Allreduce()'
p8020
S'656'
p8021
tp8022
a(S'MPI_Allreduce()'
p8023
S'910'
p8024
tp8025
asS'geosci/lmp/alt/MANYBODY/pair_tersoff_mod.cpp'
p8026
(lp8027
(S'MPI_Bcast()'
p8028
S'83'
p8029
tp8030
a(S'MPI_Bcast()'
p8031
S'85'
p8032
tp8033
a(S'MPI_Bcast()'
p8034
S'86'
p8035
tp8036
a(S'MPI_Bcast()'
p8037
S'105'
p8038
tp8039
a(S'MPI_Bcast()'
p8040
S'107'
p8041
tp8042
a(S'MPI_Bcast()'
p8043
S'108'
p8044
tp8045
asS'geosci/lmp/alt/USER-OMP/pppm_omp.cpp'
p8046
(lp8047
(S'MPI_Allreduce()'
p8048
S'297'
p8049
tp8050
asS'geosci/lmp/alt/improper_hybrid.cpp'
p8051
(lp8052
(S'MPI_Bcast()'
p8053
S'309'
p8054
tp8055
a(S'MPI_Bcast()'
p8056
S'318'
p8057
tp8058
a(S'MPI_Bcast()'
p8059
S'321'
p8060
tp8061
asS'geosci/lmp/alt/USER-CUDA/pair_eam_alloy_cuda.cpp'
p8062
(lp8063
(S'MPI_Bcast()'
p8064
S'147'
p8065
tp8066
a(S'MPI_Bcast()'
p8067
S'148'
p8068
tp8069
a(S'MPI_Bcast()'
p8070
S'174'
p8071
tp8072
a(S'MPI_Bcast()'
p8073
S'175'
p8074
tp8075
a(S'MPI_Bcast()'
p8076
S'176'
p8077
tp8078
a(S'MPI_Bcast()'
p8079
S'177'
p8080
tp8081
a(S'MPI_Bcast()'
p8082
S'178'
p8083
tp8084
a(S'MPI_Bcast()'
p8085
S'191'
p8086
tp8087
a(S'MPI_Bcast()'
p8088
S'194'
p8089
tp8090
a(S'MPI_Bcast()'
p8091
S'196'
p8092
tp8093
a(S'MPI_Bcast()'
p8094
S'202'
p8095
tp8096
asS'geosci/lmp/alt/USER-REAXC/reaxc_basic_comm.cpp'
p8097
(lp8098
(S'MPI_Irecv()'
p8099
S'90'
p8100
tp8101
a(S'MPI_Irecv()'
p8102
S'95'
p8103
tp8104
a(S'MPI_Send()'
p8105
S'101'
p8106
tp8107
a(S'MPI_Send()'
p8108
S'107'
p8109
tp8110
a(S'MPI_Irecv()'
p8111
S'184'
p8112
tp8113
a(S'MPI_Irecv()'
p8114
S'188'
p8115
tp8116
a(S'MPI_Send()'
p8117
S'192'
p8118
tp8119
a(S'MPI_Send()'
p8120
S'196'
p8121
tp8122
a(S'MPI_Wait()'
p8123
S'209'
p8124
tp8125
a(S'MPI_Wait()'
p8126
S'214'
p8127
tp8128
a(S'MPI_Allreduce()'
p8129
S'235'
p8130
tp8131
a(S'MPI_Allreduce()'
p8132
S'251'
p8133
tp8134
a(S'MPI_Allreduce()'
p8135
S'267'
p8136
tp8137
a(S'MPI_Gather()'
p8138
S'281'
p8139
tp8140
a(S'MPI_Gatherv()'
p8141
S'294'
p8142
tp8143
a(S'X_MPI_INT()'
p8144
S'296'
p8145
tp8146
a(S'MPI_Gatherv()'
p8147
S'312'
p8148
tp8149
asS'geosci/lmp/alt/USER-REAXC/fix_qeq_reax.cpp'
p8150
(lp8151
(S'MPI_Bcast()'
p8152
S'206'
p8153
tp8154
a(S'MPI_Bcast()'
p8155
S'207'
p8156
tp8157
a(S'MPI_Bcast()'
p8158
S'208'
p8159
tp8160
a(S'MPI_Wtime()'
p8161
S'459'
p8162
tp8163
a(S'MPI_Allreduce()'
p8164
S'826'
p8165
tp8166
a(S'MPI_Allreduce()'
p8167
S'843'
p8168
tp8169
a(S'MPI_Allreduce()'
p8170
S'859'
p8171
tp8172
asS'geosci/lmp/alt/angle_cosine_shift.cpp'
p8173
(lp8174
(S'MPI_Bcast()'
p8175
S'230'
p8176
tp8177
a(S'MPI_Bcast()'
p8178
S'231'
p8179
tp8180
a(S'MPI_Bcast()'
p8181
S'232'
p8182
tp8183
a(S'MPI_Bcast()'
p8184
S'233'
p8185
tp8186
asS'geosci/lmp/alt/fix_rigid_nh_omp.cpp'
p8187
(lp8188
(S'MPI_Allreduce()'
p8189
S'415'
p8190
tp8191
asS'geosci/lmp/alt/REPLICA/compute_event_displace.cpp'
p8192
(lp8193
(S'MPI_Allreduce()'
p8194
S'142'
p8195
tp8196
asS'geosci/lmp/alt/KSPACE/ewald.cpp'
p8197
(lp8198
(S'MPI_Allreduce()'
p8199
S'126'
p8200
tp8201
a(S'MPI_Allreduce()'
p8202
S'128'
p8203
tp8204
a(S'MPI_Allreduce()'
p8205
S'396'
p8206
tp8207
a(S'MPI_Allreduce()'
p8208
S'397'
p8209
tp8210
a(S'MPI_Allreduce()'
p8211
S'1188'
p8212
tp8213
a(S'MPI_Allreduce()'
p8214
S'1201'
p8215
tp8216
a(S'MPI_Allreduce()'
p8217
S'1334'
p8218
tp8219
a(S'MPI_Allreduce()'
p8220
S'1335'
p8221
tp8222
a(S'MPI_Allreduce()'
p8223
S'1337'
p8224
tp8225
a(S'MPI_Allreduce()'
p8226
S'1338'
p8227
tp8228
a(S'MPI_Allreduce()'
p8229
S'1420'
p8230
tp8231
a(S'MPI_Allreduce()'
p8232
S'1423'
p8233
tp8234
a(S'MPI_Allreduce()'
p8235
S'1426'
p8236
tp8237
a(S'MPI_Allreduce()'
p8238
S'1429'
p8239
tp8240
a(S'MPI_Allreduce()'
p8241
S'1432'
p8242
tp8243
a(S'MPI_Allreduce()'
p8244
S'1435'
p8245
tp8246
asS'geosci/lmp/alt/KSPACE/commgrid.h'
p8247
(lp8248
(S'X_MPI_FFT_SCALAR()'
p8249
S'21'
p8250
tp8251
a(S'X_MPI_FFT_SCALAR()'
p8252
S'24'
p8253
tp8254
asS'geosci/lmp/alt/REPLICA/temper.cpp'
p8255
(lp8256
(S'MPI_Comm_free()'
p8257
S'51'
p8258
tp8259
a(S'MPI_Comm_rank()'
p8260
S'118'
p8261
tp8262
a(S'MPI_Comm_split()'
p8263
S'136'
p8264
tp8265
a(S'MPI_Allgather()'
p8266
S'150'
p8267
tp8268
a(S'MPI_Bcast()'
p8269
S'151'
p8270
tp8271
a(S'MPI_Bcast()'
p8272
S'159'
p8273
tp8274
a(S'MPI_Allgather()'
p8275
S'168'
p8276
tp8277
a(S'MPI_Bcast()'
p8278
S'171'
p8279
tp8280
a(S'MPI_Send()'
p8281
S'255'
p8282
tp8283
a(S'MPI_Recv()'
p8284
S'257'
p8285
tp8286
a(S'MPI_Send()'
p8287
S'268'
p8288
tp8289
a(S'MPI_Recv()'
p8290
S'270'
p8291
tp8292
a(S'MPI_Bcast()'
p8293
S'283'
p8294
tp8295
a(S'MPI_Allgather()'
p8296
S'303'
p8297
tp8298
a(S'MPI_Bcast()'
p8299
S'306'
p8300
tp8301
asS'geosci/lmp/alt/pair_lj_cut.cpp'
p8302
(lp8303
(S'MPI_Allreduce()'
p8304
S'588'
p8305
tp8306
a(S'MPI_Bcast()'
p8307
S'638'
p8308
tp8309
a(S'MPI_Bcast()'
p8310
S'645'
p8311
tp8312
a(S'MPI_Bcast()'
p8313
S'646'
p8314
tp8315
a(S'MPI_Bcast()'
p8316
S'647'
p8317
tp8318
a(S'MPI_Bcast()'
p8319
S'677'
p8320
tp8321
a(S'MPI_Bcast()'
p8322
S'678'
p8323
tp8324
a(S'MPI_Bcast()'
p8325
S'679'
p8326
tp8327
a(S'MPI_Bcast()'
p8328
S'680'
p8329
tp8330
asS'geosci/lmp/alt/GPU/pair_lj_cut_gpu.cpp'
p8331
(lp8332
(S'MPI_Wtime()'
p8333
S'113'
p8334
tp8335
asS'geosci/lmp/alt/COLLOID/pair_colloid.cpp'
p8336
(lp8337
(S'MPI_Bcast()'
p8338
S'399'
p8339
tp8340
a(S'MPI_Bcast()'
p8341
S'408'
p8342
tp8343
a(S'MPI_Bcast()'
p8344
S'409'
p8345
tp8346
a(S'MPI_Bcast()'
p8347
S'410'
p8348
tp8349
a(S'MPI_Bcast()'
p8350
S'411'
p8351
tp8352
a(S'MPI_Bcast()'
p8353
S'412'
p8354
tp8355
a(S'MPI_Bcast()'
p8356
S'440'
p8357
tp8358
a(S'MPI_Bcast()'
p8359
S'441'
p8360
tp8361
a(S'MPI_Bcast()'
p8362
S'442'
p8363
tp8364
asS'geosci/lmp/alt/MANYBODY/pair_airebo.cpp'
p8365
(lp8366
(S'MPI_Comm_rank()'
p8367
S'3323'
p8368
tp8369
a(S'MPI_Bcast()'
p8370
S'3818'
p8371
tp8372
a(S'MPI_Bcast()'
p8373
S'3819'
p8374
tp8375
a(S'MPI_Bcast()'
p8376
S'3821'
p8377
tp8378
a(S'MPI_Bcast()'
p8379
S'3822'
p8380
tp8381
a(S'MPI_Bcast()'
p8382
S'3823'
p8383
tp8384
a(S'MPI_Bcast()'
p8385
S'3824'
p8386
tp8387
a(S'MPI_Bcast()'
p8388
S'3825'
p8389
tp8390
a(S'MPI_Bcast()'
p8391
S'3828'
p8392
tp8393
a(S'MPI_Bcast()'
p8394
S'3829'
p8395
tp8396
a(S'MPI_Bcast()'
p8397
S'3830'
p8398
tp8399
a(S'MPI_Bcast()'
p8400
S'3831'
p8401
tp8402
a(S'MPI_Bcast()'
p8403
S'3833'
p8404
tp8405
a(S'MPI_Bcast()'
p8406
S'3834'
p8407
tp8408
a(S'MPI_Bcast()'
p8409
S'3835'
p8410
tp8411
a(S'MPI_Bcast()'
p8412
S'3836'
p8413
tp8414
a(S'MPI_Bcast()'
p8415
S'3837'
p8416
tp8417
a(S'MPI_Bcast()'
p8418
S'3838'
p8419
tp8420
a(S'MPI_Bcast()'
p8421
S'3840'
p8422
tp8423
a(S'MPI_Bcast()'
p8424
S'3841'
p8425
tp8426
a(S'MPI_Bcast()'
p8427
S'3842'
p8428
tp8429
a(S'MPI_Bcast()'
p8430
S'3843'
p8431
tp8432
a(S'MPI_Bcast()'
p8433
S'3844'
p8434
tp8435
a(S'MPI_Bcast()'
p8436
S'3846'
p8437
tp8438
a(S'MPI_Bcast()'
p8439
S'3847'
p8440
tp8441
a(S'MPI_Bcast()'
p8442
S'3848'
p8443
tp8444
a(S'MPI_Bcast()'
p8445
S'3849'
p8446
tp8447
a(S'MPI_Bcast()'
p8448
S'3851'
p8449
tp8450
a(S'MPI_Bcast()'
p8451
S'3852'
p8452
tp8453
a(S'MPI_Bcast()'
p8454
S'3853'
p8455
tp8456
a(S'MPI_Bcast()'
p8457
S'3855'
p8458
tp8459
a(S'MPI_Bcast()'
p8460
S'3856'
p8461
tp8462
a(S'MPI_Bcast()'
p8463
S'3857'
p8464
tp8465
a(S'MPI_Bcast()'
p8466
S'3858'
p8467
tp8468
a(S'MPI_Bcast()'
p8469
S'3859'
p8470
tp8471
a(S'MPI_Bcast()'
p8472
S'3861'
p8473
tp8474
a(S'MPI_Bcast()'
p8475
S'3862'
p8476
tp8477
a(S'MPI_Bcast()'
p8478
S'3863'
p8479
tp8480
a(S'MPI_Bcast()'
p8481
S'3864'
p8482
tp8483
a(S'MPI_Bcast()'
p8484
S'3866'
p8485
tp8486
a(S'MPI_Bcast()'
p8487
S'3867'
p8488
tp8489
a(S'MPI_Bcast()'
p8490
S'3868'
p8491
tp8492
a(S'MPI_Bcast()'
p8493
S'3869'
p8494
tp8495
a(S'MPI_Bcast()'
p8496
S'3870'
p8497
tp8498
a(S'MPI_Bcast()'
p8499
S'3871'
p8500
tp8501
a(S'MPI_Bcast()'
p8502
S'3873'
p8503
tp8504
a(S'MPI_Bcast()'
p8505
S'3874'
p8506
tp8507
asS'geosci/lmp/alt/MOLECULE/dihedral_multi_harmonic.cpp'
p8508
(lp8509
(S'MPI_Comm_rank()'
p8510
S'155'
p8511
tp8512
a(S'MPI_Bcast()'
p8513
S'324'
p8514
tp8515
a(S'MPI_Bcast()'
p8516
S'325'
p8517
tp8518
a(S'MPI_Bcast()'
p8519
S'326'
p8520
tp8521
a(S'MPI_Bcast()'
p8522
S'327'
p8523
tp8524
a(S'MPI_Bcast()'
p8525
S'328'
p8526
tp8527
asS'geosci/lmp/alt/KSPACE/pppm_disp.h'
p8528
(lp8529
(S'X_MPI_FFT_SCALAR()'
p8530
S'28'
p8531
tp8532
a(S'X_MPI_FFT_SCALAR()'
p8533
S'31'
p8534
tp8535
asS'geosci/lmp/alt/USER-MISC/pair_tersoff_table.cpp'
p8536
(lp8537
(S'MPI_Bcast()'
p8538
S'880'
p8539
tp8540
a(S'MPI_Bcast()'
p8541
S'882'
p8542
tp8543
a(S'MPI_Bcast()'
p8544
S'883'
p8545
tp8546
a(S'MPI_Bcast()'
p8547
S'902'
p8548
tp8549
a(S'MPI_Bcast()'
p8550
S'904'
p8551
tp8552
a(S'MPI_Bcast()'
p8553
S'905'
p8554
tp8555
asS'geosci/lmp/alt/variable.cpp'
p8556
(lp8557
(S'MPI_Comm_rank()'
p8558
S'79'
p8559
tp8560
a(S'MPI_Bcast()'
p8561
S'487'
p8562
tp8563
a(S'MPI_Allreduce()'
p8564
S'3349'
p8565
tp8566
a(S'MPI_Bcast()'
p8567
S'3874'
p8568
tp8569
a(S'MPI_Bcast()'
p8570
S'3876'
p8571
tp8572
a(S'MPI_Bcast()'
p8573
S'3916'
p8574
tp8575
a(S'MPI_Bcast()'
p8576
S'3919'
p8577
tp8578
asS'geosci/lmp/alt/procmap.cpp'
p8579
(lp8580
(S'MPI_Get_processor_name()'
p8581
S'160'
p8582
tp8583
a(S'MPI_Allgather()'
p8584
S'163'
p8585
tp8586
a(S'X_MPI_MAX_PROCESSOR_NAME()'
p8587
S'164'
p8588
tp8589
a(S'MPI_Comm_rank()'
p8590
S'282'
p8591
tp8592
a(S'MPI_Bcast()'
p8593
S'302'
p8594
tp8595
a(S'MPI_Bcast()'
p8596
S'303'
p8597
tp8598
a(S'MPI_Bcast()'
p8599
S'330'
p8600
tp8601
a(S'MPI_Cart_create()'
p8602
S'358'
p8603
tp8604
a(S'MPI_Cart_get()'
p8605
S'359'
p8606
tp8607
a(S'MPI_Cart_shift()'
p8608
S'360'
p8609
tp8610
a(S'MPI_Cart_shift()'
p8611
S'361'
p8612
tp8613
a(S'MPI_Cart_shift()'
p8614
S'362'
p8615
tp8616
a(S'MPI_Cart_rank()'
p8617
S'370'
p8618
tp8619
a(S'MPI_Comm_free()'
p8620
S'373'
p8621
tp8622
a(S'MPI_Comm_rank()'
p8623
S'388'
p8624
tp8625
a(S'MPI_Comm_rank()'
p8626
S'411'
p8627
tp8628
a(S'MPI_Comm_rank()'
p8629
S'461'
p8630
tp8631
a(S'MPI_Comm_split()'
p8632
S'534'
p8633
tp8634
a(S'MPI_Comm_rank()'
p8635
S'536'
p8636
tp8637
a(S'MPI_Comm_split()'
p8638
S'542'
p8639
tp8640
a(S'MPI_Comm_rank()'
p8641
S'544'
p8642
tp8643
a(S'MPI_Comm_split()'
p8644
S'549'
p8645
tp8646
a(S'MPI_Cart_create()'
p8647
S'557'
p8648
tp8649
a(S'MPI_Cart_get()'
p8650
S'558'
p8651
tp8652
a(S'MPI_Bcast()'
p8653
S'563'
p8654
tp8655
a(S'MPI_Comm_size()'
p8656
S'577'
p8657
tp8658
a(S'MPI_Allgather()'
p8659
S'581'
p8660
tp8661
a(S'MPI_Comm_free()'
p8662
S'604'
p8663
tp8664
a(S'MPI_Comm_free()'
p8665
S'605'
p8666
tp8667
a(S'MPI_Comm_free()'
p8668
S'606'
p8669
tp8670
a(S'MPI_Comm_rank()'
p8671
S'617'
p8672
tp8673
a(S'MPI_Comm_size()'
p8674
S'618'
p8675
tp8676
a(S'MPI_Comm_rank()'
p8677
S'654'
p8678
tp8679
a(S'MPI_Comm_size()'
p8680
S'655'
p8681
tp8682
a(S'MPI_Comm_rank()'
p8683
S'686'
p8684
tp8685
a(S'MPI_Get_processor_name()'
p8686
S'692'
p8687
tp8688
a(S'MPI_Send()'
p8689
S'698'
p8690
tp8691
a(S'MPI_Recv()'
p8692
S'699'
p8693
tp8694
a(S'MPI_Recv()'
p8695
S'700'
p8696
tp8697
a(S'MPI_Recv()'
p8698
S'709'
p8699
tp8700
a(S'MPI_Send()'
p8701
S'710'
p8702
tp8703
a(S'MPI_Send()'
p8704
S'711'
p8705
tp8706
asS'geosci/lmp/alt/pair_nb3b_harmonic.cpp'
p8707
(lp8708
(S'MPI_Bcast()'
p8709
S'355'
p8710
tp8711
a(S'MPI_Bcast()'
p8712
S'357'
p8713
tp8714
a(S'MPI_Bcast()'
p8715
S'358'
p8716
tp8717
a(S'MPI_Bcast()'
p8718
S'377'
p8719
tp8720
a(S'MPI_Bcast()'
p8721
S'379'
p8722
tp8723
a(S'MPI_Bcast()'
p8724
S'380'
p8725
tp8726
asS'geosci/lmp/alt/USER-COLVARS/group_ndx.cpp'
p8727
(lp8728
(S'MPI_Irecv()'
p8729
S'100'
p8730
tp8731
a(S'MPI_Send()'
p8732
S'101'
p8733
tp8734
a(S'MPI_Wait()'
p8735
S'102'
p8736
tp8737
a(S'MPI_Get_count()'
p8738
S'103'
p8739
tp8740
a(S'MPI_Recv()'
p8741
S'110'
p8742
tp8743
a(S'MPI_Rsend()'
p8744
S'111'
p8745
tp8746
asS'geosci/lmp/alt/compute_reduce.cpp'
p8747
(lp8748
(S'MPI_Comm_rank()'
p8749
S'71'
p8750
tp8751
a(S'MPI_Allreduce()'
p8752
S'346'
p8753
tp8754
a(S'MPI_Allreduce()'
p8755
S'348'
p8756
tp8757
a(S'MPI_Allreduce()'
p8758
S'350'
p8759
tp8760
a(S'MPI_Allreduce()'
p8761
S'352'
p8762
tp8763
a(S'MPI_Allreduce()'
p8764
S'374'
p8765
tp8766
a(S'MPI_Allreduce()'
p8767
S'379'
p8768
tp8769
a(S'MPI_Allreduce()'
p8770
S'386'
p8771
tp8772
a(S'MPI_Bcast()'
p8773
S'394'
p8774
tp8775
a(S'MPI_Allreduce()'
p8776
S'401'
p8777
tp8778
a(S'MPI_Allreduce()'
p8779
S'408'
p8780
tp8781
a(S'MPI_Bcast()'
p8782
S'416'
p8783
tp8784
a(S'MPI_Allreduce()'
p8785
S'422'
p8786
tp8787
a(S'MPI_Allreduce()'
p8788
S'607'
p8789
tp8790
a(S'MPI_Allreduce()'
p8791
S'617'
p8792
tp8793
asS'geosci/lmp/alt/GPU/pair_morse_gpu.cpp'
p8794
(lp8795
(S'MPI_Wtime()'
p8796
S'112'
p8797
tp8798
asS'geosci/lmp/alt/GPU/pair_lj96_cut_gpu.cpp'
p8799
(lp8800
(S'MPI_Wtime()'
p8801
S'113'
p8802
tp8803
asS'geosci/lmp/alt/MOLECULE/dihedral_charmm.cpp'
p8804
(lp8805
(S'MPI_Comm_rank()'
p8806
S'150'
p8807
tp8808
a(S'MPI_Bcast()'
p8809
S'416'
p8810
tp8811
a(S'MPI_Bcast()'
p8812
S'417'
p8813
tp8814
a(S'MPI_Bcast()'
p8815
S'418'
p8816
tp8817
a(S'MPI_Bcast()'
p8818
S'419'
p8819
tp8820
a(S'MPI_Bcast()'
p8821
S'420'
p8822
tp8823
asS'geosci/lmp/alt/MISC/pair_nm_cut_coul_long.cpp'
p8824
(lp8825
(S'MPI_Allreduce()'
p8826
S'372'
p8827
tp8828
a(S'MPI_Bcast()'
p8829
S'428'
p8830
tp8831
a(S'MPI_Bcast()'
p8832
S'437'
p8833
tp8834
a(S'MPI_Bcast()'
p8835
S'438'
p8836
tp8837
a(S'MPI_Bcast()'
p8838
S'439'
p8839
tp8840
a(S'MPI_Bcast()'
p8841
S'440'
p8842
tp8843
a(S'MPI_Bcast()'
p8844
S'441'
p8845
tp8846
a(S'MPI_Bcast()'
p8847
S'476'
p8848
tp8849
a(S'MPI_Bcast()'
p8850
S'477'
p8851
tp8852
a(S'MPI_Bcast()'
p8853
S'478'
p8854
tp8855
a(S'MPI_Bcast()'
p8856
S'479'
p8857
tp8858
a(S'MPI_Bcast()'
p8859
S'480'
p8860
tp8861
a(S'MPI_Bcast()'
p8862
S'481'
p8863
tp8864
a(S'MPI_Bcast()'
p8865
S'482'
p8866
tp8867
asS'geosci/mod/nbody.cc'
p8868
(lp8869
(S'MPI_Allgather()'
p8870
S'64'
p8871
tp8872
a(S'MPI_Allgather()'
p8873
S'65'
p8874
tp8875
a(S'MPI_Allgather()'
p8876
S'66'
p8877
tp8878
a(S'MPI_Init()'
p8879
S'73'
p8880
tp8881
a(S'MPI_Comm_size()'
p8882
S'74'
p8883
tp8884
a(S'MPI_Comm_rank()'
p8885
S'75'
p8886
tp8887
a(S'MPI_Allgather()'
p8888
S'100'
p8889
tp8890
a(S'MPI_Allgather()'
p8891
S'101'
p8892
tp8893
a(S'MPI_Allgather()'
p8894
S'102'
p8895
tp8896
a(S'MPI_Allgather()'
p8897
S'103'
p8898
tp8899
a(S'MPI_Allgather()'
p8900
S'104'
p8901
tp8902
a(S'MPI_Allgather()'
p8903
S'105'
p8904
tp8905
a(S'MPI_Finalize()'
p8906
S'157'
p8907
tp8908
asS'geosci/lmp/alt/dump_image.cpp'
p8909
(lp8910
(S'MPI_Allreduce()'
p8911
S'524'
p8912
tp8913
asS'geosci/lmp/alt/fix_rigid.cpp'
p8914
(lp8915
(S'MPI_Comm_rank()'
p8916
S'70'
p8917
tp8918
a(S'MPI_Comm_size()'
p8919
S'71'
p8920
tp8921
a(S'MPI_Allreduce()'
p8922
S'132'
p8923
tp8924
a(S'MPI_Allreduce()'
p8925
S'143'
p8926
tp8927
a(S'MPI_Allreduce()'
p8928
S'198'
p8929
tp8930
a(S'MPI_Allreduce()'
p8931
S'503'
p8932
tp8933
a(S'MPI_Allreduce()'
p8934
S'689'
p8935
tp8936
a(S'MPI_Allreduce()'
p8937
S'738'
p8938
tp8939
a(S'MPI_Bcast()'
p8940
S'868'
p8941
tp8942
a(S'MPI_Allreduce()'
p8943
S'926'
p8944
tp8945
a(S'MPI_Allreduce()'
p8946
S'1145'
p8947
tp8948
a(S'MPI_Allreduce()'
p8949
S'1146'
p8950
tp8951
a(S'MPI_Allreduce()'
p8952
S'1568'
p8953
tp8954
a(S'MPI_Allreduce()'
p8955
S'1664'
p8956
tp8957
a(S'MPI_Allreduce()'
p8958
S'1785'
p8959
tp8960
a(S'MPI_Allreduce()'
p8961
S'1984'
p8962
tp8963
a(S'MPI_Allreduce()'
p8964
S'2107'
p8965
tp8966
a(S'MPI_Bcast()'
p8967
S'2156'
p8968
tp8969
asS'geosci/lmp/alt/pair_mie_cut.cpp'
p8970
(lp8971
(S'MPI_Allreduce()'
p8972
S'613'
p8973
tp8974
a(S'MPI_Bcast()'
p8975
S'665'
p8976
tp8977
a(S'MPI_Bcast()'
p8978
S'674'
p8979
tp8980
a(S'MPI_Bcast()'
p8981
S'675'
p8982
tp8983
a(S'MPI_Bcast()'
p8984
S'676'
p8985
tp8986
a(S'MPI_Bcast()'
p8987
S'677'
p8988
tp8989
a(S'MPI_Bcast()'
p8990
S'678'
p8991
tp8992
a(S'MPI_Bcast()'
p8993
S'708'
p8994
tp8995
a(S'MPI_Bcast()'
p8996
S'709'
p8997
tp8998
a(S'MPI_Bcast()'
p8999
S'710'
p9000
tp9001
a(S'MPI_Bcast()'
p9002
S'711'
p9003
tp9004
asS'geosci/lmp/alt/GPU/pair_mie_cut_gpu.cpp'
p9005
(lp9006
(S'MPI_Wtime()'
p9007
S'115'
p9008
tp9009
asS'geosci/lmp/alt/USER-REAXC/reaxc_ffield.cpp'
p9010
(lp9011
(S'MPI_Abort()'
p9012
S'56'
p9013
tp9014
a(S'MPI_Abort()'
p9015
S'222'
p9016
tp9017
a(S'MPI_Abort()'
p9018
S'242'
p9019
tp9020
a(S'MPI_Abort()'
p9021
S'310'
p9022
tp9023
asS'geosci/lmp/alt/universe.cpp'
p9024
(lp9025
(S'MPI_Comm_rank()'
p9026
S'37'
p9027
tp9028
a(S'MPI_Comm_size()'
p9029
S'38'
p9030
tp9031
a(S'MPI_Bcast()'
p9032
S'133'
p9033
tp9034
a(S'MPI_Comm_rank()'
p9035
S'140'
p9036
tp9037
a(S'MPI_Comm_split()'
p9038
S'144'
p9039
tp9040
a(S'MPI_Comm_rank()'
p9041
S'145'
p9042
tp9043
a(S'MPI_Comm_size()'
p9044
S'146'
p9045
tp9046
asS'geosci/lmp/alt/pair.cpp'
p9047
(lp9048
(S'MPI_Comm_rank()'
p9049
S'1480'
p9050
tp9051
asS'geosci/lmp/alt/USER-EFF/compute_temp_eff.cpp'
p9052
(lp9053
(S'MPI_Allreduce()'
p9054
S'85'
p9055
tp9056
a(S'MPI_Allreduce()'
p9057
S'122'
p9058
tp9059
a(S'MPI_Allreduce()'
p9060
S'164'
p9061
tp9062
asS'geosci/lmp/alt/pair_lj_cut_coul_cut.cpp'
p9063
(lp9064
(S'MPI_Allreduce()'
p9065
S'307'
p9066
tp9067
a(S'MPI_Bcast()'
p9068
S'358'
p9069
tp9070
a(S'MPI_Bcast()'
p9071
S'366'
p9072
tp9073
a(S'MPI_Bcast()'
p9074
S'367'
p9075
tp9076
a(S'MPI_Bcast()'
p9077
S'368'
p9078
tp9079
a(S'MPI_Bcast()'
p9080
S'369'
p9081
tp9082
a(S'MPI_Bcast()'
p9083
S'400'
p9084
tp9085
a(S'MPI_Bcast()'
p9086
S'401'
p9087
tp9088
a(S'MPI_Bcast()'
p9089
S'402'
p9090
tp9091
a(S'MPI_Bcast()'
p9092
S'403'
p9093
tp9094
a(S'MPI_Bcast()'
p9095
S'404'
p9096
tp9097
asS'geosci/lmp/alt/CLASS2/pair_lj_class2_coul_cut.cpp'
p9098
(lp9099
(S'MPI_Allreduce()'
p9100
S'313'
p9101
tp9102
a(S'MPI_Bcast()'
p9103
S'363'
p9104
tp9105
a(S'MPI_Bcast()'
p9106
S'371'
p9107
tp9108
a(S'MPI_Bcast()'
p9109
S'372'
p9110
tp9111
a(S'MPI_Bcast()'
p9112
S'373'
p9113
tp9114
a(S'MPI_Bcast()'
p9115
S'374'
p9116
tp9117
a(S'MPI_Bcast()'
p9118
S'405'
p9119
tp9120
a(S'MPI_Bcast()'
p9121
S'406'
p9122
tp9123
a(S'MPI_Bcast()'
p9124
S'407'
p9125
tp9126
a(S'MPI_Bcast()'
p9127
S'408'
p9128
tp9129
a(S'MPI_Bcast()'
p9130
S'409'
p9131
tp9132
asS'geosci/lmp/alt/lammps.cpp'
p9133
(lp9134
(S'MPI_Comm_split()'
p9135
S'263'
p9136
tp9137
a(S'MPI_Comm_rank()'
p9138
S'264'
p9139
tp9140
a(S'MPI_Type_size()'
p9141
S'360'
p9142
tp9143
a(S'MPI_Type_size()'
p9144
S'364'
p9145
tp9146
a(S'MPI_Comm_rank()'
p9147
S'400'
p9148
tp9149
asS'geosci/lmp/alt/compute_temp_partial.cpp'
p9150
(lp9151
(S'MPI_Allreduce()'
p9152
S'122'
p9153
tp9154
a(S'MPI_Allreduce()'
p9155
S'158'
p9156
tp9157
asS'geosci/lmp/alt/SHOCK/fix_append_atoms.cpp'
p9158
(lp9159
(S'MPI_Allreduce()'
p9160
S'322'
p9161
tp9162
a(S'MPI_Barrier()'
p9163
S'493'
p9164
tp9165
a(S'MPI_Allreduce()'
p9166
S'494'
p9167
tp9168
asS'geosci/lmp/alt/KSPACE/pair_lj_cut_tip4p_long.cpp'
p9169
(lp9170
(S'MPI_Bcast()'
p9171
S'539'
p9172
tp9173
a(S'MPI_Bcast()'
p9174
S'540'
p9175
tp9176
a(S'MPI_Bcast()'
p9177
S'541'
p9178
tp9179
a(S'MPI_Bcast()'
p9180
S'542'
p9181
tp9182
a(S'MPI_Bcast()'
p9183
S'543'
p9184
tp9185
a(S'MPI_Bcast()'
p9186
S'545'
p9187
tp9188
a(S'MPI_Bcast()'
p9189
S'546'
p9190
tp9191
a(S'MPI_Bcast()'
p9192
S'547'
p9193
tp9194
a(S'MPI_Bcast()'
p9195
S'548'
p9196
tp9197
a(S'MPI_Bcast()'
p9198
S'549'
p9199
tp9200
a(S'MPI_Bcast()'
p9201
S'550'
p9202
tp9203
a(S'MPI_Bcast()'
p9204
S'551'
p9205
tp9206
asS'geosci/lmp/alt/neigh_bond.cpp'
p9207
(lp9208
(S'MPI_Allreduce()'
p9209
S'136'
p9210
tp9211
a(S'MPI_Allreduce()'
p9212
S'274'
p9213
tp9214
a(S'MPI_Allreduce()'
p9215
S'440'
p9216
tp9217
asS'geosci/lmp/alt/pair_born.cpp'
p9218
(lp9219
(S'MPI_Allreduce()'
p9220
S'272'
p9221
tp9222
a(S'MPI_Bcast()'
p9223
S'332'
p9224
tp9225
a(S'MPI_Bcast()'
p9226
S'342'
p9227
tp9228
a(S'MPI_Bcast()'
p9229
S'343'
p9230
tp9231
a(S'MPI_Bcast()'
p9232
S'344'
p9233
tp9234
a(S'MPI_Bcast()'
p9235
S'345'
p9236
tp9237
a(S'MPI_Bcast()'
p9238
S'346'
p9239
tp9240
a(S'MPI_Bcast()'
p9241
S'347'
p9242
tp9243
a(S'MPI_Bcast()'
p9244
S'376'
p9245
tp9246
a(S'MPI_Bcast()'
p9247
S'377'
p9248
tp9249
a(S'MPI_Bcast()'
p9250
S'378'
p9251
tp9252
a(S'MPI_Bcast()'
p9253
S'379'
p9254
tp9255
asS'geosci/lmp/alt/pair_coul_wolf.cpp'
p9256
(lp9257
(S'MPI_Bcast()'
p9258
S'259'
p9259
tp9260
a(S'MPI_Bcast()'
p9261
S'287'
p9262
tp9263
a(S'MPI_Bcast()'
p9264
S'288'
p9265
tp9266
a(S'MPI_Bcast()'
p9267
S'289'
p9268
tp9269
a(S'MPI_Bcast()'
p9270
S'290'
p9271
tp9272
asS'geosci/lmp/alt/USER-CUDA/pair_eam_fs_cuda.cpp'
p9273
(lp9274
(S'MPI_Bcast()'
p9275
S'147'
p9276
tp9277
a(S'MPI_Bcast()'
p9278
S'148'
p9279
tp9280
a(S'MPI_Bcast()'
p9281
S'174'
p9282
tp9283
a(S'MPI_Bcast()'
p9284
S'175'
p9285
tp9286
a(S'MPI_Bcast()'
p9287
S'176'
p9288
tp9289
a(S'MPI_Bcast()'
p9290
S'177'
p9291
tp9292
a(S'MPI_Bcast()'
p9293
S'178'
p9294
tp9295
a(S'MPI_Bcast()'
p9296
S'193'
p9297
tp9298
a(S'MPI_Bcast()'
p9299
S'196'
p9300
tp9301
a(S'MPI_Bcast()'
p9302
S'200'
p9303
tp9304
a(S'MPI_Bcast()'
p9305
S'207'
p9306
tp9307
asS'geosci/lmp/alt/USER-MISC/pair_meam_sw_spline.cpp'
p9308
(lp9309
(S'MPI_Bcast()'
p9310
S'688'
p9311
tp9312
a(S'MPI_Bcast()'
p9313
S'689'
p9314
tp9315
a(S'MPI_Bcast()'
p9316
S'690'
p9317
tp9318
a(S'MPI_Bcast()'
p9319
S'691'
p9320
tp9321
a(S'MPI_Bcast()'
p9322
S'692'
p9323
tp9324
a(S'MPI_Bcast()'
p9325
S'693'
p9326
tp9327
a(S'MPI_Bcast()'
p9328
S'694'
p9329
tp9330
a(S'MPI_Bcast()'
p9331
S'695'
p9332
tp9333
a(S'MPI_Bcast()'
p9334
S'696'
p9335
tp9336
a(S'MPI_Bcast()'
p9337
S'704'
p9338
tp9339
a(S'MPI_Bcast()'
p9340
S'705'
p9341
tp9342
a(S'MPI_Bcast()'
p9343
S'706'
p9344
tp9345
a(S'MPI_Bcast()'
p9346
S'707'
p9347
tp9348
a(S'MPI_Bcast()'
p9349
S'708'
p9350
tp9351
asS'geosci/lmp/alt/compute_msd_molecule.cpp'
p9352
(lp9353
(S'MPI_Allreduce()'
p9354
S'74'
p9355
tp9356
a(S'MPI_Allreduce()'
p9357
S'146'
p9358
tp9359
a(S'X_MPI_DOUBLE()'
p9360
S'147'
p9361
tp9362
asS'geosci/lmp/alt/atom_map.cpp'
p9363
(lp9364
(S'MPI_Allreduce()'
p9365
S'45'
p9366
tp9367
asS'geosci/lmp/alt/image.cpp'
p9368
(lp9369
(S'MPI_Comm_rank()'
p9370
S'51'
p9371
tp9372
a(S'MPI_Comm_size()'
p9373
S'52'
p9374
tp9375
a(S'MPI_Irecv()'
p9376
S'298'
p9377
tp9378
a(S'MPI_Irecv()'
p9379
S'299'
p9380
tp9381
a(S'MPI_Irecv()'
p9382
S'301'
p9383
tp9384
a(S'MPI_Send()'
p9385
S'321'
p9386
tp9387
a(S'MPI_Send()'
p9388
S'322'
p9389
tp9390
a(S'MPI_Bcast()'
p9391
S'335'
p9392
tp9393
a(S'MPI_Bcast()'
p9394
S'336'
p9395
tp9396
a(S'MPI_Bcast()'
p9397
S'337'
p9398
tp9399
a(S'MPI_Gather()'
p9400
S'340'
p9401
tp9402
asS'geosci/lmp/alt/compute_atom_molecule.cpp'
p9403
(lp9404
(S'MPI_Comm_rank()'
p9405
S'238'
p9406
tp9407
a(S'MPI_Allreduce()'
p9408
S'239'
p9409
tp9410
a(S'MPI_Allreduce()'
p9411
S'271'
p9412
tp9413
a(S'X_MPI_DOUBLE()'
p9414
S'272'
p9415
tp9416
asS'geosci/lmp/alt/MANYBODY/pair_eam_fs.cpp'
p9417
(lp9418
(S'MPI_Bcast()'
p9419
S'144'
p9420
tp9421
a(S'MPI_Bcast()'
p9422
S'145'
p9423
tp9424
a(S'MPI_Bcast()'
p9425
S'171'
p9426
tp9427
a(S'MPI_Bcast()'
p9428
S'172'
p9429
tp9430
a(S'MPI_Bcast()'
p9431
S'173'
p9432
tp9433
a(S'MPI_Bcast()'
p9434
S'174'
p9435
tp9436
a(S'MPI_Bcast()'
p9437
S'175'
p9438
tp9439
a(S'MPI_Bcast()'
p9440
S'191'
p9441
tp9442
a(S'MPI_Bcast()'
p9443
S'194'
p9444
tp9445
a(S'MPI_Bcast()'
p9446
S'198'
p9447
tp9448
a(S'MPI_Bcast()'
p9449
S'205'
p9450
tp9451
asS'geosci/lmp/alt/USER-MISC/pair_edip.cpp'
p9452
(lp9453
(S'MPI_Bcast()'
p9454
S'906'
p9455
tp9456
a(S'MPI_Bcast()'
p9457
S'908'
p9458
tp9459
a(S'MPI_Bcast()'
p9460
S'909'
p9461
tp9462
a(S'MPI_Bcast()'
p9463
S'928'
p9464
tp9465
a(S'MPI_Bcast()'
p9466
S'930'
p9467
tp9468
a(S'MPI_Bcast()'
p9469
S'931'
p9470
tp9471
asS'geosci/lmp/alt/dump.cpp'
p9472
(lp9473
(S'MPI_Comm_rank()'
p9474
S'46'
p9475
tp9476
a(S'MPI_Comm_size()'
p9477
S'47'
p9478
tp9479
a(S'MPI_Comm_split()'
p9480
S'108'
p9481
tp9482
a(S'MPI_Allreduce()'
p9483
S'210'
p9484
tp9485
a(S'MPI_Allreduce()'
p9486
S'211'
p9487
tp9488
a(S'MPI_Allreduce()'
p9489
S'288'
p9490
tp9491
a(S'MPI_Allreduce()'
p9492
S'300'
p9493
tp9494
a(S'MPI_Irecv()'
p9495
S'338'
p9496
tp9497
a(S'MPI_Send()'
p9498
S'339'
p9499
tp9500
a(S'MPI_Wait()'
p9501
S'340'
p9502
tp9503
a(S'MPI_Get_count()'
p9504
S'341'
p9505
tp9506
a(S'MPI_Recv()'
p9507
S'350'
p9508
tp9509
a(S'MPI_Rsend()'
p9510
S'351'
p9511
tp9512
a(S'MPI_Allreduce()'
p9513
S'484'
p9514
tp9515
a(S'MPI_Allreduce()'
p9516
S'485'
p9517
tp9518
a(S'MPI_Allreduce()'
p9519
S'501'
p9520
tp9521
a(S'MPI_Allreduce()'
p9522
S'502'
p9523
tp9524
a(S'MPI_Allreduce()'
p9525
S'546'
p9526
tp9527
a(S'MPI_Allreduce()'
p9528
S'566'
p9529
tp9530
a(S'MPI_Comm_free()'
p9531
S'700'
p9532
tp9533
a(S'MPI_Comm_split()'
p9534
S'701'
p9535
tp9536
a(S'MPI_Comm_free()'
p9537
S'751'
p9538
tp9539
a(S'MPI_Comm_split()'
p9540
S'752'
p9541
tp9542
asS'geosci/lmp/alt/FLD/pair_brownian_poly.cpp'
p9543
(lp9544
(S'MPI_Allreduce()'
p9545
S'414'
p9546
tp9547
asS'geosci/lmp/alt/dump_cfg.cpp'
p9548
(lp9549
(S'MPI_Allreduce()'
p9550
S'140'
p9551
tp9552
asS'geosci/lmp/alt/CLASS2/pair_lj_class2.cpp'
p9553
(lp9554
(S'MPI_Allreduce()'
p9555
S'260'
p9556
tp9557
a(S'MPI_Bcast()'
p9558
S'309'
p9559
tp9560
a(S'MPI_Bcast()'
p9561
S'316'
p9562
tp9563
a(S'MPI_Bcast()'
p9564
S'317'
p9565
tp9566
a(S'MPI_Bcast()'
p9567
S'318'
p9568
tp9569
a(S'MPI_Bcast()'
p9570
S'348'
p9571
tp9572
a(S'MPI_Bcast()'
p9573
S'349'
p9574
tp9575
a(S'MPI_Bcast()'
p9576
S'350'
p9577
tp9578
a(S'MPI_Bcast()'
p9579
S'351'
p9580
tp9581
asS'geosci/lmp/alt/KSPACE/pair_lj_long_tip4p_long.cpp'
p9582
(lp9583
(S'MPI_Bcast()'
p9584
S'1543'
p9585
tp9586
a(S'MPI_Bcast()'
p9587
S'1544'
p9588
tp9589
a(S'MPI_Bcast()'
p9590
S'1545'
p9591
tp9592
a(S'MPI_Bcast()'
p9593
S'1546'
p9594
tp9595
a(S'MPI_Bcast()'
p9596
S'1547'
p9597
tp9598
a(S'MPI_Bcast()'
p9599
S'1549'
p9600
tp9601
a(S'MPI_Bcast()'
p9602
S'1550'
p9603
tp9604
a(S'MPI_Bcast()'
p9605
S'1551'
p9606
tp9607
a(S'MPI_Bcast()'
p9608
S'1552'
p9609
tp9610
a(S'MPI_Bcast()'
p9611
S'1553'
p9612
tp9613
a(S'MPI_Bcast()'
p9614
S'1554'
p9615
tp9616
asS'geosci/lmp/alt/fix_dt_reset.cpp'
p9617
(lp9618
(S'MPI_Allreduce()'
p9619
S'168'
p9620
tp9621
asS'geosci/lmp/alt/USER-MISC/pair_gauss_cut.cpp'
p9622
(lp9623
(S'MPI_Allreduce()'
p9624
S'252'
p9625
tp9626
a(S'MPI_Bcast()'
p9627
S'293'
p9628
tp9629
a(S'MPI_Bcast()'
p9630
S'301'
p9631
tp9632
a(S'MPI_Bcast()'
p9633
S'302'
p9634
tp9635
a(S'MPI_Bcast()'
p9636
S'303'
p9637
tp9638
a(S'MPI_Bcast()'
p9639
S'304'
p9640
tp9641
a(S'MPI_Bcast()'
p9642
S'332'
p9643
tp9644
a(S'MPI_Bcast()'
p9645
S'333'
p9646
tp9647
a(S'MPI_Bcast()'
p9648
S'334'
p9649
tp9650
asS'geosci/lmp/alt/compute_gyration_molecule.cpp'
p9651
(lp9652
(S'MPI_Allreduce()'
p9653
S'97'
p9654
tp9655
a(S'MPI_Allreduce()'
p9656
S'158'
p9657
tp9658
a(S'MPI_Allreduce()'
p9659
S'208'
p9660
tp9661
a(S'X_MPI_DOUBLE()'
p9662
S'209'
p9663
tp9664
a(S'MPI_Allreduce()'
p9665
S'252'
p9666
tp9667
a(S'X_MPI_DOUBLE()'
p9668
S'253'
p9669
tp9670
asS'geosci/lmp/alt/USER-MISC/angle_fourier.cpp'
p9671
(lp9672
(S'MPI_Bcast()'
p9673
S'234'
p9674
tp9675
a(S'MPI_Bcast()'
p9676
S'235'
p9677
tp9678
a(S'MPI_Bcast()'
p9679
S'236'
p9680
tp9681
a(S'MPI_Bcast()'
p9682
S'237'
p9683
tp9684
asS'geosci/lmp/alt/balance.cpp'
p9685
(lp9686
(S'MPI_Comm_rank()'
p9687
S'40'
p9688
tp9689
a(S'MPI_Comm_size()'
p9690
S'41'
p9691
tp9692
a(S'MPI_Allreduce()'
p9693
S'310'
p9694
tp9695
a(S'MPI_Allreduce()'
p9696
S'380'
p9697
tp9698
a(S'MPI_Allreduce()'
p9699
S'417'
p9700
tp9701
a(S'MPI_Allreduce()'
p9702
S'658'
p9703
tp9704
asS'geosci/lmp/alt/USER-CUDA/neighbor_cuda.cpp'
p9705
(lp9706
(S'MPI_Allreduce()'
p9707
S'129'
p9708
tp9709
asS'geosci/lmp/alt/MOLECULE/angle_cosine.cpp'
p9710
(lp9711
(S'MPI_Bcast()'
p9712
S'198'
p9713
tp9714
asS'geosci/lmp/alt/PERI/pair_peri_lps.cpp'
p9715
(lp9716
(S'MPI_Bcast()'
p9717
S'489'
p9718
tp9719
a(S'MPI_Bcast()'
p9720
S'498'
p9721
tp9722
a(S'MPI_Bcast()'
p9723
S'499'
p9724
tp9725
a(S'MPI_Bcast()'
p9726
S'500'
p9727
tp9728
a(S'MPI_Bcast()'
p9729
S'501'
p9730
tp9731
a(S'MPI_Bcast()'
p9732
S'502'
p9733
tp9734
asS'geosci/lmp/alt/prd.cpp'
p9735
(lp9736
(S'MPI_Comm_rank()'
p9737
S'103'
p9738
tp9739
a(S'MPI_Comm_size()'
p9740
S'104'
p9741
tp9742
a(S'MPI_Comm_split()'
p9743
S'109'
p9744
tp9745
a(S'MPI_Bcast()'
p9746
S'282'
p9747
tp9748
a(S'MPI_Bcast()'
p9749
S'361'
p9750
tp9751
a(S'MPI_Comm_free()'
p9752
S'426'
p9753
tp9754
a(S'X_MPI_INT()'
p9755
S'568'
p9756
tp9757
a(S'MPI_Bcast()'
p9758
S'569'
p9759
tp9760
a(S'MPI_Scan()'
p9761
S'587'
p9762
tp9763
a(S'MPI_Bcast()'
p9764
S'588'
p9765
tp9766
a(S'X_MPI_INT()'
p9767
S'597'
p9768
tp9769
a(S'MPI_Bcast()'
p9770
S'598'
p9771
tp9772
a(S'MPI_Bcast()'
p9773
S'724'
p9774
tp9775
a(S'MPI_Bcast()'
p9776
S'725'
p9777
tp9778
a(S'MPI_Gather()'
p9779
S'731'
p9780
tp9781
a(S'MPI_Gatherv()'
p9782
S'735'
p9783
tp9784
a(S'MPI_Gatherv()'
p9785
S'737'
p9786
tp9787
a(S'MPI_Gatherv()'
p9788
S'742'
p9789
tp9790
a(S'MPI_Bcast()'
p9791
S'747'
p9792
tp9793
a(S'MPI_Bcast()'
p9794
S'748'
p9795
tp9796
a(S'MPI_Bcast()'
p9797
S'749'
p9798
tp9799
a(S'MPI_Bcast()'
p9800
S'752'
p9801
tp9802
a(S'MPI_Bcast()'
p9803
S'753'
p9804
tp9805
a(S'MPI_Bcast()'
p9806
S'754'
p9807
tp9808
asS'geosci/lmp/alt/compute_gyration.cpp'
p9809
(lp9810
(S'MPI_Allreduce()'
p9811
S'109'
p9812
tp9813
asS'geosci/lmp/alt/dump_local.cpp'
p9814
(lp9815
(S'MPI_Scan()'
p9816
S'481'
p9817
tp9818
asS'geosci/lmp/alt/verlet_split.cpp'
p9819
(lp9820
(S'MPI_Bcast()'
p9821
S'72'
p9822
tp9823
a(S'MPI_Bcast()'
p9824
S'85'
p9825
tp9826
a(S'MPI_Comm_split()'
p9827
S'121'
p9828
tp9829
a(S'MPI_Comm_rank()'
p9830
S'122'
p9831
tp9832
a(S'MPI_Allreduce()'
p9833
S'132'
p9834
tp9835
a(S'MPI_Comm_free()'
p9836
S'208'
p9837
tp9838
a(S'MPI_Barrier()'
p9839
S'274'
p9840
tp9841
a(S'MPI_Bcast()'
p9842
S'316'
p9843
tp9844
a(S'MPI_Gather()'
p9845
S'439'
p9846
tp9847
a(S'MPI_Gatherv()'
p9848
S'461'
p9849
tp9850
a(S'MPI_Gatherv()'
p9851
S'473'
p9852
tp9853
a(S'MPI_Gatherv()'
p9854
S'474'
p9855
tp9856
a(S'MPI_Gatherv()'
p9857
S'498'
p9858
tp9859
a(S'X_MPI_DOUBLE()'
p9860
S'499'
p9861
tp9862
a(S'MPI_Send()'
p9863
S'506'
p9864
tp9865
a(S'MPI_Recv()'
p9866
S'509'
p9867
tp9868
a(S'MPI_Send()'
p9869
S'517'
p9870
tp9871
a(S'MPI_Send()'
p9872
S'518'
p9873
tp9874
a(S'MPI_Recv()'
p9875
S'520'
p9876
tp9877
a(S'MPI_Recv()'
p9878
S'521'
p9879
tp9880
a(S'MPI_Scatterv()'
p9881
S'548'
p9882
tp9883
asS'geosci/lmp/alt/USER-CG-CMM/pair_lj_sdk_coul_long.cpp'
p9884
(lp9885
(S'MPI_Bcast()'
p9886
S'476'
p9887
tp9888
a(S'MPI_Bcast()'
p9889
S'484'
p9890
tp9891
a(S'MPI_Bcast()'
p9892
S'485'
p9893
tp9894
a(S'MPI_Bcast()'
p9895
S'486'
p9896
tp9897
a(S'MPI_Bcast()'
p9898
S'487'
p9899
tp9900
a(S'MPI_Bcast()'
p9901
S'522'
p9902
tp9903
a(S'MPI_Bcast()'
p9904
S'523'
p9905
tp9906
a(S'MPI_Bcast()'
p9907
S'524'
p9908
tp9909
a(S'MPI_Bcast()'
p9910
S'525'
p9911
tp9912
a(S'MPI_Bcast()'
p9913
S'526'
p9914
tp9915
a(S'MPI_Bcast()'
p9916
S'527'
p9917
tp9918
a(S'MPI_Bcast()'
p9919
S'528'
p9920
tp9921
asS'geosci/lmp/alt/USER-CUDA/compute_temp_partial_cuda.cpp'
p9922
(lp9923
(S'MPI_Allreduce()'
p9924
S'170'
p9925
tp9926
a(S'MPI_Allreduce()'
p9927
S'233'
p9928
tp9929
asS'geosci/lmp/alt/USER-MISC/pair_lj_sf.cpp'
p9930
(lp9931
(S'MPI_Bcast()'
p9932
S'295'
p9933
tp9934
a(S'MPI_Bcast()'
p9935
S'302'
p9936
tp9937
a(S'MPI_Bcast()'
p9938
S'303'
p9939
tp9940
a(S'MPI_Bcast()'
p9941
S'304'
p9942
tp9943
a(S'MPI_Bcast()'
p9944
S'332'
p9945
tp9946
a(S'MPI_Bcast()'
p9947
S'333'
p9948
tp9949
a(S'MPI_Bcast()'
p9950
S'334'
p9951
tp9952
asS'geosci/lmp/alt/pair_lj96_cut.cpp'
p9953
(lp9954
(S'MPI_Allreduce()'
p9955
S'593'
p9956
tp9957
a(S'MPI_Bcast()'
p9958
S'643'
p9959
tp9960
a(S'MPI_Bcast()'
p9961
S'650'
p9962
tp9963
a(S'MPI_Bcast()'
p9964
S'651'
p9965
tp9966
a(S'MPI_Bcast()'
p9967
S'652'
p9968
tp9969
a(S'MPI_Bcast()'
p9970
S'682'
p9971
tp9972
a(S'MPI_Bcast()'
p9973
S'683'
p9974
tp9975
a(S'MPI_Bcast()'
p9976
S'684'
p9977
tp9978
a(S'MPI_Bcast()'
p9979
S'685'
p9980
tp9981
asS'geosci/lmp/alt/GPU/pair_lj_class2_coul_long_gpu.cpp'
p9982
(lp9983
(S'MPI_Wtime()'
p9984
S'129'
p9985
tp9986
asS'geosci/lmp/alt/MISC/pair_nm_cut_coul_cut.cpp'
p9987
(lp9988
(S'MPI_Allreduce()'
p9989
S'325'
p9990
tp9991
a(S'MPI_Bcast()'
p9992
S'382'
p9993
tp9994
a(S'MPI_Bcast()'
p9995
S'392'
p9996
tp9997
a(S'MPI_Bcast()'
p9998
S'393'
p9999
tp10000
a(S'MPI_Bcast()'
p10001
S'394'
p10002
tp10003
a(S'MPI_Bcast()'
p10004
S'395'
p10005
tp10006
a(S'MPI_Bcast()'
p10007
S'396'
p10008
tp10009
a(S'MPI_Bcast()'
p10010
S'397'
p10011
tp10012
a(S'MPI_Bcast()'
p10013
S'428'
p10014
tp10015
a(S'MPI_Bcast()'
p10016
S'429'
p10017
tp10018
a(S'MPI_Bcast()'
p10019
S'430'
p10020
tp10021
a(S'MPI_Bcast()'
p10022
S'431'
p10023
tp10024
a(S'MPI_Bcast()'
p10025
S'432'
p10026
tp10027
asS'geosci/lmp/alt/min_fire.cpp'
p10028
(lp10029
(S'MPI_Allreduce()'
p10030
S'107'
p10031
tp10032
a(S'MPI_Allreduce()'
p10033
S'114'
p10034
tp10035
a(S'MPI_Allreduce()'
p10036
S'127'
p10037
tp10038
a(S'MPI_Allreduce()'
p10039
S'134'
p10040
tp10041
a(S'MPI_Allreduce()'
p10042
S'140'
p10043
tp10044
a(S'MPI_Allreduce()'
p10045
S'147'
p10046
tp10047
a(S'MPI_Allreduce()'
p10048
S'188'
p10049
tp10050
a(S'MPI_Allreduce()'
p10051
S'195'
p10052
tp10053
a(S'MPI_Allreduce()'
p10054
S'242'
p10055
tp10056
a(S'MPI_Allreduce()'
p10057
S'257'
p10058
tp10059
asS'geosci/lmp/alt/USER-MISC/dihedral_nharmonic.cpp'
p10060
(lp10061
(S'MPI_Comm_rank()'
p10062
S'156'
p10063
tp10064
a(S'MPI_Bcast()'
p10065
S'319'
p10066
tp10067
a(S'MPI_Bcast()'
p10068
S'331'
p10069
tp10070
asS'geosci/lmp/alt/USER-MISC/dihedral_cosine_shift_exp.cpp'
p10071
(lp10072
(S'MPI_Comm_rank()'
p10073
S'137'
p10074
tp10075
a(S'MPI_Bcast()'
p10076
S'328'
p10077
tp10078
a(S'MPI_Bcast()'
p10079
S'329'
p10080
tp10081
a(S'MPI_Bcast()'
p10082
S'330'
p10083
tp10084
a(S'MPI_Bcast()'
p10085
S'331'
p10086
tp10087
a(S'MPI_Bcast()'
p10088
S'332'
p10089
tp10090
asS'geosci/lmp/alt/irregular.cpp'
p10091
(lp10092
(S'MPI_Comm_rank()'
p10093
S'35'
p10094
tp10095
a(S'MPI_Comm_size()'
p10096
S'36'
p10097
tp10098
a(S'MPI_Allreduce()'
p10099
S'239'
p10100
tp10101
a(S'MPI_Reduce_scatter()'
p10102
S'271'
p10103
tp10104
a(S'MPI_Send()'
p10105
S'346'
p10106
tp10107
a(S'MPI_Recv()'
p10108
S'357'
p10109
tp10110
a(S'MPI_Barrier()'
p10111
S'365'
p10112
tp10113
a(S'MPI_Irecv()'
p10114
S'407'
p10115
tp10116
a(S'MPI_Send()'
p10117
S'434'
p10118
tp10119
a(S'MPI_Reduce_scatter()'
p10120
S'492'
p10121
tp10122
a(S'MPI_Send()'
p10123
S'567'
p10124
tp10125
a(S'MPI_Recv()'
p10126
S'578'
p10127
tp10128
a(S'MPI_Barrier()'
p10129
S'587'
p10130
tp10131
a(S'MPI_Irecv()'
p10132
S'629'
p10133
tp10134
a(S'MPI_Send()'
p10135
S'653'
p10136
tp10137
asS'geosci/lmp/alt/MOLECULE/angle_cosine_squared.cpp'
p10138
(lp10139
(S'MPI_Bcast()'
p10140
S'218'
p10141
tp10142
a(S'MPI_Bcast()'
p10143
S'219'
p10144
tp10145
asS'geosci/lmp/alt/MANYBODY/pair_eim.cpp'
p10146
(lp10147
(S'MPI_Bcast()'
p10148
S'494'
p10149
tp10150
a(S'MPI_Bcast()'
p10151
S'495'
p10152
tp10153
a(S'MPI_Bcast()'
p10154
S'496'
p10155
tp10156
a(S'MPI_Bcast()'
p10157
S'502'
p10158
tp10159
a(S'MPI_Bcast()'
p10160
S'503'
p10161
tp10162
a(S'MPI_Bcast()'
p10163
S'504'
p10164
tp10165
a(S'MPI_Bcast()'
p10166
S'505'
p10167
tp10168
a(S'MPI_Bcast()'
p10169
S'506'
p10170
tp10171
a(S'MPI_Bcast()'
p10172
S'507'
p10173
tp10174
a(S'MPI_Bcast()'
p10175
S'508'
p10176
tp10177
a(S'MPI_Bcast()'
p10178
S'520'
p10179
tp10180
a(S'MPI_Bcast()'
p10181
S'521'
p10182
tp10183
a(S'MPI_Bcast()'
p10184
S'522'
p10185
tp10186
a(S'MPI_Bcast()'
p10187
S'523'
p10188
tp10189
a(S'MPI_Bcast()'
p10190
S'524'
p10191
tp10192
a(S'MPI_Bcast()'
p10193
S'525'
p10194
tp10195
a(S'MPI_Bcast()'
p10196
S'526'
p10197
tp10198
a(S'MPI_Bcast()'
p10199
S'527'
p10200
tp10201
a(S'MPI_Bcast()'
p10202
S'528'
p10203
tp10204
a(S'MPI_Bcast()'
p10205
S'529'
p10206
tp10207
a(S'MPI_Bcast()'
p10208
S'530'
p10209
tp10210
a(S'MPI_Bcast()'
p10211
S'531'
p10212
tp10213
a(S'MPI_Bcast()'
p10214
S'532'
p10215
tp10216
a(S'MPI_Bcast()'
p10217
S'533'
p10218
tp10219
asS'geosci/lmp/alt/MOLECULE/bond_table.cpp'
p10220
(lp10221
(S'MPI_Comm_rank()'
p10222
S'172'
p10223
tp10224
a(S'MPI_Bcast()'
p10225
S'237'
p10226
tp10227
a(S'MPI_Bcast()'
p10228
S'238'
p10229
tp10230
a(S'MPI_Bcast()'
p10231
S'453'
p10232
tp10233
a(S'MPI_Bcast()'
p10234
S'454'
p10235
tp10236
a(S'MPI_Comm_rank()'
p10237
S'457'
p10238
tp10239
a(S'MPI_Bcast()'
p10240
S'464'
p10241
tp10242
a(S'MPI_Bcast()'
p10243
S'465'
p10244
tp10245
a(S'MPI_Bcast()'
p10246
S'466'
p10247
tp10248
a(S'MPI_Bcast()'
p10249
S'468'
p10250
tp10251
a(S'MPI_Bcast()'
p10252
S'470'
p10253
tp10254
a(S'MPI_Bcast()'
p10255
S'471'
p10256
tp10257
a(S'MPI_Bcast()'
p10258
S'473'
p10259
tp10260
asS'geosci/lmp/alt/SRD/fix_wall_srd.cpp'
p10261
(lp10262
(S'MPI_Allreduce()'
p10263
S'213'
p10264
tp10265
a(S'X_MPI_DOUBLE()'
p10266
S'214'
p10267
tp10268
asS'geosci/lmp/alt/USER-CUDA/fix_addforce_cuda.cpp'
p10269
(lp10270
(S'MPI_Allreduce()'
p10271
S'173'
p10272
tp10273
a(S'MPI_Allreduce()'
p10274
S'188'
p10275
tp10276
asS'geosci/lmp/alt/USER-CUDA/compute_temp_cuda.cpp'
p10277
(lp10278
(S'MPI_Allreduce()'
p10279
S'147'
p10280
tp10281
a(S'MPI_Allreduce()'
p10282
S'210'
p10283
tp10284
asS'geosci/lmp/alt/fix_ave_time.cpp'
p10285
(lp10286
(S'MPI_Comm_rank()'
p10287
S'50'
p10288
tp10289
asS'geosci/lmp/alt/fix_bond_break.cpp'
p10290
(lp10291
(S'MPI_Comm_rank()'
p10292
S'40'
p10293
tp10294
a(S'MPI_Allreduce()'
p10295
S'295'
p10296
tp10297
asS'geosci/lmp/alt/MANYBODY/fix_qeq_comb.cpp'
p10298
(lp10299
(S'MPI_Comm_rank()'
p10300
S'56'
p10301
tp10302
a(S'MPI_Allreduce()'
p10303
S'246'
p10304
tp10305
a(S'MPI_Allreduce()'
p10306
S'248'
p10307
tp10308
asS'geosci/lmp/alt/CLASS2/angle_class2.cpp'
p10309
(lp10310
(S'MPI_Bcast()'
p10311
S'389'
p10312
tp10313
a(S'MPI_Bcast()'
p10314
S'390'
p10315
tp10316
a(S'MPI_Bcast()'
p10317
S'391'
p10318
tp10319
a(S'MPI_Bcast()'
p10320
S'392'
p10321
tp10322
a(S'MPI_Bcast()'
p10323
S'394'
p10324
tp10325
a(S'MPI_Bcast()'
p10326
S'395'
p10327
tp10328
a(S'MPI_Bcast()'
p10329
S'396'
p10330
tp10331
a(S'MPI_Bcast()'
p10332
S'398'
p10333
tp10334
a(S'MPI_Bcast()'
p10335
S'399'
p10336
tp10337
a(S'MPI_Bcast()'
p10338
S'400'
p10339
tp10340
a(S'MPI_Bcast()'
p10341
S'401'
p10342
tp10343
asS'geosci/lmp/alt/USER-OMP/pair_tersoff_zbl_omp.cpp'
p10344
(lp10345
(S'MPI_Bcast()'
p10346
S'120'
p10347
tp10348
a(S'MPI_Bcast()'
p10349
S'122'
p10350
tp10351
a(S'MPI_Bcast()'
p10352
S'123'
p10353
tp10354
a(S'MPI_Bcast()'
p10355
S'142'
p10356
tp10357
a(S'MPI_Bcast()'
p10358
S'144'
p10359
tp10360
a(S'MPI_Bcast()'
p10361
S'145'
p10362
tp10363
asS'geosci/lmp/alt/KSPACE/pair_buck_coul_long.cpp'
p10364
(lp10365
(S'MPI_Allreduce()'
p10366
S'323'
p10367
tp10368
a(S'MPI_Bcast()'
p10369
S'402'
p10370
tp10371
a(S'MPI_Bcast()'
p10372
S'410'
p10373
tp10374
a(S'MPI_Bcast()'
p10375
S'411'
p10376
tp10377
a(S'MPI_Bcast()'
p10378
S'412'
p10379
tp10380
a(S'MPI_Bcast()'
p10381
S'413'
p10382
tp10383
a(S'MPI_Bcast()'
p10384
S'448'
p10385
tp10386
a(S'MPI_Bcast()'
p10387
S'449'
p10388
tp10389
a(S'MPI_Bcast()'
p10390
S'450'
p10391
tp10392
a(S'MPI_Bcast()'
p10393
S'451'
p10394
tp10395
a(S'MPI_Bcast()'
p10396
S'452'
p10397
tp10398
a(S'MPI_Bcast()'
p10399
S'453'
p10400
tp10401
a(S'MPI_Bcast()'
p10402
S'454'
p10403
tp10404
asS'geosci/lmp/alt/USER-MISC/fix_smd.cpp'
p10405
(lp10406
(S'MPI_Allreduce()'
p10407
S'427'
p10408
tp10409
asS'geosci/lmp/alt/CLASS2/improper_class2.cpp'
p10410
(lp10411
(S'MPI_Comm_rank()'
p10412
S'156'
p10413
tp10414
a(S'MPI_Bcast()'
p10415
S'616'
p10416
tp10417
a(S'MPI_Bcast()'
p10418
S'617'
p10419
tp10420
a(S'MPI_Bcast()'
p10421
S'619'
p10422
tp10423
a(S'MPI_Bcast()'
p10424
S'620'
p10425
tp10426
a(S'MPI_Bcast()'
p10427
S'621'
p10428
tp10429
a(S'MPI_Bcast()'
p10430
S'622'
p10431
tp10432
a(S'MPI_Bcast()'
p10433
S'623'
p10434
tp10435
a(S'MPI_Bcast()'
p10436
S'624'
p10437
tp10438
asS'geosci/lmp/alt/tad.cpp'
p10439
(lp10440
(S'MPI_Comm_rank()'
p10441
S'127'
p10442
tp10443
a(S'MPI_Comm_size()'
p10444
S'128'
p10445
tp10446
a(S'MPI_Bcast()'
p10447
S'290'
p10448
tp10449
a(S'MPI_Bcast()'
p10450
S'309'
p10451
tp10452
a(S'MPI_Bcast()'
p10453
S'319'
p10454
tp10455
a(S'MPI_Bcast()'
p10456
S'355'
p10457
tp10458
a(S'MPI_Bcast()'
p10459
S'361'
p10460
tp10461
a(S'MPI_Bcast()'
p10462
S'368'
p10463
tp10464
a(S'MPI_Bcast()'
p10465
S'670'
p10466
tp10467
a(S'MPI_Bcast()'
p10468
S'690'
p10469
tp10470
a(S'MPI_Barrier()'
p10471
S'749'
p10472
tp10473
a(S'MPI_Barrier()'
p10474
S'752'
p10475
tp10476
asS'geosci/lmp/alt/MANYBODY/pair_tersoff.cpp'
p10477
(lp10478
(S'MPI_Bcast()'
p10479
S'402'
p10480
tp10481
a(S'MPI_Bcast()'
p10482
S'404'
p10483
tp10484
a(S'MPI_Bcast()'
p10485
S'405'
p10486
tp10487
a(S'MPI_Bcast()'
p10488
S'424'
p10489
tp10490
a(S'MPI_Bcast()'
p10491
S'426'
p10492
tp10493
a(S'MPI_Bcast()'
p10494
S'427'
p10495
tp10496
asS'geosci/lmp/alt/USER-EFF/compute_temp_region_eff.cpp'
p10497
(lp10498
(S'MPI_Allreduce()'
p10499
S'136'
p10500
tp10501
a(S'MPI_Allreduce()'
p10502
S'190'
p10503
tp10504
asS'geosci/lmp/alt/GPU/pair_lj_cut_coul_debye_gpu.cpp'
p10505
(lp10506
(S'MPI_Wtime()'
p10507
S'123'
p10508
tp10509
asS'geosci/lmp/alt/GPU/pair_beck_gpu.cpp'
p10510
(lp10511
(S'MPI_Wtime()'
p10512
S'116'
p10513
tp10514
asS'geosci/lmp/alt/KSPACE/pppm_disp.cpp'
p10515
(lp10516
(S'MPI_Comm_rank()'
p10517
S'81'
p10518
tp10519
a(S'MPI_Comm_size()'
p10520
S'82'
p10521
tp10522
a(S'MPI_Allreduce()'
p10523
S'251'
p10524
tp10525
a(S'MPI_Allreduce()'
p10526
S'302'
p10527
tp10528
a(S'MPI_Allreduce()'
p10529
S'304'
p10530
tp10531
a(S'MPI_Allreduce()'
p10532
S'427'
p10533
tp10534
a(S'MPI_Allreduce()'
p10535
S'428'
p10536
tp10537
a(S'MPI_Allreduce()'
p10538
S'523'
p10539
tp10540
a(S'MPI_Allreduce()'
p10541
S'524'
p10542
tp10543
a(S'MPI_Allreduce()'
p10544
S'1077'
p10545
tp10546
a(S'MPI_Allreduce()'
p10547
S'1079'
p10548
tp10549
a(S'MPI_Allreduce()'
p10550
S'1096'
p10551
tp10552
a(S'MPI_Allreduce()'
p10553
S'1098'
p10554
tp10555
a(S'MPI_Allreduce()'
p10556
S'2382'
p10557
tp10558
a(S'MPI_Allreduce()'
p10559
S'2399'
p10560
tp10561
a(S'MPI_Allreduce()'
p10562
S'2833'
p10563
tp10564
a(S'MPI_Allreduce()'
p10565
S'2838'
p10566
tp10567
a(S'MPI_Allreduce()'
p10568
S'3427'
p10569
tp10570
a(S'MPI_Allreduce()'
p10571
S'3484'
p10572
tp10573
a(S'MPI_Allreduce()'
p10574
S'6511'
p10575
tp10576
a(S'MPI_Allreduce()'
p10577
S'6524'
p10578
tp10579
a(S'MPI_Barrier()'
p10580
S'6567'
p10581
tp10582
a(S'MPI_Wtime()'
p10583
S'6568'
p10584
tp10585
a(S'MPI_Barrier()'
p10586
S'6581'
p10587
tp10588
a(S'MPI_Wtime()'
p10589
S'6582'
p10590
tp10591
a(S'MPI_Barrier()'
p10592
S'6585'
p10593
tp10594
a(S'MPI_Wtime()'
p10595
S'6586'
p10596
tp10597
a(S'MPI_Barrier()'
p10598
S'6599'
p10599
tp10600
a(S'MPI_Wtime()'
p10601
S'6600'
p10602
tp10603
a(S'MPI_Barrier()'
p10604
S'6623'
p10605
tp10606
a(S'MPI_Wtime()'
p10607
S'6624'
p10608
tp10609
a(S'MPI_Barrier()'
p10610
S'6637'
p10611
tp10612
a(S'MPI_Wtime()'
p10613
S'6638'
p10614
tp10615
a(S'MPI_Barrier()'
p10616
S'6641'
p10617
tp10618
a(S'MPI_Wtime()'
p10619
S'6642'
p10620
tp10621
a(S'MPI_Barrier()'
p10622
S'6655'
p10623
tp10624
a(S'MPI_Wtime()'
p10625
S'6656'
p10626
tp10627
asS'geosci/lmp/alt/bond_harmonic_shift.cpp'
p10628
(lp10629
(S'MPI_Bcast()'
p10630
S'183'
p10631
tp10632
a(S'MPI_Bcast()'
p10633
S'184'
p10634
tp10635
a(S'MPI_Bcast()'
p10636
S'185'
p10637
tp10638
asS'geosci/lmp/alt/USER-EFF/compute_ke_eff.cpp'
p10639
(lp10640
(S'MPI_Allreduce()'
p10641
S'79'
p10642
tp10643
asS'geosci/lmp/alt/thermo.cpp'
p10644
(lp10645
(S'MPI_Comm_rank()'
p10646
S'79'
p10647
tp10648
a(S'MPI_Allreduce()'
p10649
S'370'
p10650
tp10651
a(S'MPI_Allreduce()'
p10652
S'1595'
p10653
tp10654
a(S'MPI_Allreduce()'
p10655
S'1611'
p10656
tp10657
a(S'MPI_Allreduce()'
p10658
S'1621'
p10659
tp10660
a(S'MPI_Allreduce()'
p10661
S'1638'
p10662
tp10663
a(S'MPI_Allreduce()'
p10664
S'1649'
p10665
tp10666
a(S'MPI_Allreduce()'
p10667
S'1660'
p10668
tp10669
a(S'MPI_Allreduce()'
p10670
S'1671'
p10671
tp10672
a(S'MPI_Allreduce()'
p10673
S'1686'
p10674
tp10675
a(S'MPI_Allreduce()'
p10676
S'1892'
p10677
tp10678
a(S'MPI_Allreduce()'
p10679
S'1907'
p10680
tp10681
asS'geosci/lmp/alt/MANYBODY/pair_bop.cpp'
p10682
(lp10683
(S'MPI_Comm_rank()'
p10684
S'521'
p10685
tp10686
a(S'MPI_Bcast()'
p10687
S'568'
p10688
tp10689
a(S'MPI_Comm_rank()'
p10690
S'8200'
p10691
tp10692
a(S'MPI_Bcast()'
p10693
S'8222'
p10694
tp10695
a(S'MPI_Bcast()'
p10696
S'8223'
p10697
tp10698
a(S'MPI_Bcast()'
p10699
S'8360'
p10700
tp10701
a(S'MPI_Bcast()'
p10702
S'8361'
p10703
tp10704
a(S'MPI_Bcast()'
p10705
S'8362'
p10706
tp10707
a(S'MPI_Bcast()'
p10708
S'8363'
p10709
tp10710
a(S'MPI_Bcast()'
p10711
S'8364'
p10712
tp10713
a(S'MPI_Bcast()'
p10714
S'8365'
p10715
tp10716
a(S'MPI_Bcast()'
p10717
S'8366'
p10718
tp10719
a(S'MPI_Bcast()'
p10720
S'8367'
p10721
tp10722
a(S'MPI_Bcast()'
p10723
S'8368'
p10724
tp10725
a(S'MPI_Bcast()'
p10726
S'8369'
p10727
tp10728
a(S'MPI_Bcast()'
p10729
S'8370'
p10730
tp10731
a(S'MPI_Bcast()'
p10732
S'8371'
p10733
tp10734
a(S'MPI_Bcast()'
p10735
S'8372'
p10736
tp10737
a(S'MPI_Bcast()'
p10738
S'8373'
p10739
tp10740
a(S'MPI_Bcast()'
p10741
S'8374'
p10742
tp10743
a(S'MPI_Bcast()'
p10744
S'8375'
p10745
tp10746
a(S'MPI_Bcast()'
p10747
S'8376'
p10748
tp10749
a(S'MPI_Bcast()'
p10750
S'8377'
p10751
tp10752
a(S'MPI_Bcast()'
p10753
S'8378'
p10754
tp10755
a(S'MPI_Bcast()'
p10756
S'8379'
p10757
tp10758
a(S'MPI_Bcast()'
p10759
S'8380'
p10760
tp10761
a(S'MPI_Bcast()'
p10762
S'8381'
p10763
tp10764
a(S'MPI_Bcast()'
p10765
S'8382'
p10766
tp10767
a(S'MPI_Bcast()'
p10768
S'8383'
p10769
tp10770
a(S'MPI_Bcast()'
p10771
S'8384'
p10772
tp10773
a(S'MPI_Bcast()'
p10774
S'8385'
p10775
tp10776
a(S'MPI_Bcast()'
p10777
S'8386'
p10778
tp10779
a(S'MPI_Bcast()'
p10780
S'8387'
p10781
tp10782
a(S'MPI_Bcast()'
p10783
S'8388'
p10784
tp10785
a(S'MPI_Bcast()'
p10786
S'8389'
p10787
tp10788
a(S'MPI_Bcast()'
p10789
S'8390'
p10790
tp10791
a(S'MPI_Bcast()'
p10792
S'8391'
p10793
tp10794
a(S'MPI_Bcast()'
p10795
S'8392'
p10796
tp10797
a(S'MPI_Bcast()'
p10798
S'8393'
p10799
tp10800
a(S'MPI_Bcast()'
p10801
S'8394'
p10802
tp10803
a(S'MPI_Bcast()'
p10804
S'8395'
p10805
tp10806
a(S'MPI_Bcast()'
p10807
S'8396'
p10808
tp10809
a(S'MPI_Bcast()'
p10810
S'8397'
p10811
tp10812
a(S'MPI_Bcast()'
p10813
S'8398'
p10814
tp10815
a(S'MPI_Bcast()'
p10816
S'8399'
p10817
tp10818
a(S'MPI_Bcast()'
p10819
S'8400'
p10820
tp10821
a(S'MPI_Bcast()'
p10822
S'8401'
p10823
tp10824
a(S'MPI_Bcast()'
p10825
S'8402'
p10826
tp10827
a(S'MPI_Bcast()'
p10828
S'8403'
p10829
tp10830
a(S'MPI_Bcast()'
p10831
S'8404'
p10832
tp10833
a(S'MPI_Bcast()'
p10834
S'8405'
p10835
tp10836
a(S'MPI_Bcast()'
p10837
S'8406'
p10838
tp10839
a(S'MPI_Bcast()'
p10840
S'8407'
p10841
tp10842
a(S'MPI_Bcast()'
p10843
S'8408'
p10844
tp10845
a(S'MPI_Bcast()'
p10846
S'8409'
p10847
tp10848
a(S'MPI_Bcast()'
p10849
S'8410'
p10850
tp10851
a(S'MPI_Bcast()'
p10852
S'8411'
p10853
tp10854
a(S'MPI_Bcast()'
p10855
S'8412'
p10856
tp10857
a(S'MPI_Bcast()'
p10858
S'8413'
p10859
tp10860
a(S'MPI_Bcast()'
p10861
S'8414'
p10862
tp10863
a(S'MPI_Bcast()'
p10864
S'8415'
p10865
tp10866
a(S'MPI_Bcast()'
p10867
S'8416'
p10868
tp10869
a(S'MPI_Comm_rank()'
p10870
S'8428'
p10871
tp10872
a(S'MPI_Bcast()'
p10873
S'8454'
p10874
tp10875
a(S'MPI_Bcast()'
p10876
S'8455'
p10877
tp10878
a(S'MPI_Bcast()'
p10879
S'8456'
p10880
tp10881
a(S'MPI_Bcast()'
p10882
S'8457'
p10883
tp10884
a(S'MPI_Bcast()'
p10885
S'8638'
p10886
tp10887
a(S'MPI_Bcast()'
p10888
S'8639'
p10889
tp10890
a(S'MPI_Bcast()'
p10891
S'8640'
p10892
tp10893
a(S'MPI_Bcast()'
p10894
S'8641'
p10895
tp10896
a(S'MPI_Bcast()'
p10897
S'8642'
p10898
tp10899
a(S'MPI_Bcast()'
p10900
S'8643'
p10901
tp10902
a(S'MPI_Bcast()'
p10903
S'8644'
p10904
tp10905
a(S'MPI_Bcast()'
p10906
S'8645'
p10907
tp10908
a(S'MPI_Bcast()'
p10909
S'8646'
p10910
tp10911
a(S'MPI_Bcast()'
p10912
S'8647'
p10913
tp10914
a(S'MPI_Bcast()'
p10915
S'8648'
p10916
tp10917
a(S'MPI_Bcast()'
p10918
S'8649'
p10919
tp10920
a(S'MPI_Bcast()'
p10921
S'8650'
p10922
tp10923
a(S'MPI_Bcast()'
p10924
S'8651'
p10925
tp10926
a(S'MPI_Bcast()'
p10927
S'8652'
p10928
tp10929
a(S'MPI_Bcast()'
p10930
S'8653'
p10931
tp10932
a(S'MPI_Bcast()'
p10933
S'8654'
p10934
tp10935
a(S'MPI_Bcast()'
p10936
S'8655'
p10937
tp10938
a(S'MPI_Bcast()'
p10939
S'8656'
p10940
tp10941
a(S'MPI_Bcast()'
p10942
S'8657'
p10943
tp10944
a(S'MPI_Bcast()'
p10945
S'8658'
p10946
tp10947
a(S'MPI_Bcast()'
p10948
S'8659'
p10949
tp10950
a(S'MPI_Bcast()'
p10951
S'8660'
p10952
tp10953
a(S'MPI_Bcast()'
p10954
S'8661'
p10955
tp10956
a(S'MPI_Bcast()'
p10957
S'8662'
p10958
tp10959
a(S'MPI_Bcast()'
p10960
S'8663'
p10961
tp10962
a(S'MPI_Bcast()'
p10963
S'8664'
p10964
tp10965
a(S'MPI_Bcast()'
p10966
S'8665'
p10967
tp10968
a(S'MPI_Bcast()'
p10969
S'8666'
p10970
tp10971
a(S'MPI_Bcast()'
p10972
S'8667'
p10973
tp10974
a(S'MPI_Bcast()'
p10975
S'8668'
p10976
tp10977
a(S'MPI_Bcast()'
p10978
S'8669'
p10979
tp10980
a(S'MPI_Bcast()'
p10981
S'8670'
p10982
tp10983
a(S'MPI_Bcast()'
p10984
S'8671'
p10985
tp10986
a(S'MPI_Bcast()'
p10987
S'8672'
p10988
tp10989
a(S'MPI_Bcast()'
p10990
S'8673'
p10991
tp10992
a(S'MPI_Bcast()'
p10993
S'8674'
p10994
tp10995
a(S'MPI_Bcast()'
p10996
S'8675'
p10997
tp10998
a(S'MPI_Bcast()'
p10999
S'8676'
p11000
tp11001
a(S'MPI_Bcast()'
p11002
S'8677'
p11003
tp11004
a(S'MPI_Bcast()'
p11005
S'8678'
p11006
tp11007
a(S'MPI_Bcast()'
p11008
S'8679'
p11009
tp11010
a(S'MPI_Bcast()'
p11011
S'8680'
p11012
tp11013
a(S'MPI_Bcast()'
p11014
S'8681'
p11015
tp11016
a(S'MPI_Bcast()'
p11017
S'8682'
p11018
tp11019
a(S'MPI_Bcast()'
p11020
S'8683'
p11021
tp11022
a(S'MPI_Bcast()'
p11023
S'8684'
p11024
tp11025
a(S'MPI_Bcast()'
p11026
S'8685'
p11027
tp11028
a(S'MPI_Bcast()'
p11029
S'8686'
p11030
tp11031
a(S'MPI_Bcast()'
p11032
S'8687'
p11033
tp11034
a(S'MPI_Bcast()'
p11035
S'8688'
p11036
tp11037
a(S'MPI_Bcast()'
p11038
S'8689'
p11039
tp11040
a(S'MPI_Bcast()'
p11041
S'8690'
p11042
tp11043
a(S'MPI_Bcast()'
p11044
S'8691'
p11045
tp11046
a(S'MPI_Bcast()'
p11047
S'8692'
p11048
tp11049
a(S'MPI_Bcast()'
p11050
S'8693'
p11051
tp11052
a(S'MPI_Bcast()'
p11053
S'8694'
p11054
tp11055
a(S'MPI_Bcast()'
p11056
S'8695'
p11057
tp11058
asS'geosci/lmp/alt/compute_temp_rotate.cpp'
p11059
(lp11060
(S'MPI_Allreduce()'
p11061
S'146'
p11062
tp11063
a(S'MPI_Allreduce()'
p11064
S'210'
p11065
tp11066
asS'geosci/lmp/alt/GPU/pair_lj_sdk_gpu.cpp'
p11067
(lp11068
(S'MPI_Wtime()'
p11069
S'117'
p11070
tp11071
asS'geosci/lmp/alt/PERI/pair_peri_ves.cpp'
p11072
(lp11073
(S'MPI_Bcast()'
p11074
S'556'
p11075
tp11076
a(S'MPI_Bcast()'
p11077
S'567'
p11078
tp11079
a(S'MPI_Bcast()'
p11080
S'568'
p11081
tp11082
a(S'MPI_Bcast()'
p11083
S'569'
p11084
tp11085
a(S'MPI_Bcast()'
p11086
S'570'
p11087
tp11088
a(S'MPI_Bcast()'
p11089
S'571'
p11090
tp11091
a(S'MPI_Bcast()'
p11092
S'572'
p11093
tp11094
a(S'MPI_Bcast()'
p11095
S'573'
p11096
tp11097
asS'geosci/lmp/alt/DIPOLE/pair_lj_cut_dipole_cut.cpp'
p11098
(lp11099
(S'MPI_Bcast()'
p11100
S'442'
p11101
tp11102
a(S'MPI_Bcast()'
p11103
S'450'
p11104
tp11105
a(S'MPI_Bcast()'
p11106
S'451'
p11107
tp11108
a(S'MPI_Bcast()'
p11109
S'452'
p11110
tp11111
a(S'MPI_Bcast()'
p11112
S'453'
p11113
tp11114
a(S'MPI_Bcast()'
p11115
S'482'
p11116
tp11117
a(S'MPI_Bcast()'
p11118
S'483'
p11119
tp11120
a(S'MPI_Bcast()'
p11121
S'484'
p11122
tp11123
a(S'MPI_Bcast()'
p11124
S'485'
p11125
tp11126
asS'geosci/lmp/alt/MOLECULE/bond_fene.cpp'
p11127
(lp11128
(S'MPI_Bcast()'
p11129
S'224'
p11130
tp11131
a(S'MPI_Bcast()'
p11132
S'225'
p11133
tp11134
a(S'MPI_Bcast()'
p11135
S'226'
p11136
tp11137
a(S'MPI_Bcast()'
p11138
S'227'
p11139
tp11140
asS'geosci/lmp/alt/USER-MISC/dihedral_fourier.cpp'
p11141
(lp11142
(S'MPI_Comm_rank()'
p11143
S'149'
p11144
tp11145
a(S'MPI_Bcast()'
p11146
S'374'
p11147
tp11148
a(S'MPI_Bcast()'
p11149
S'394'
p11150
tp11151
a(S'MPI_Bcast()'
p11152
S'395'
p11153
tp11154
a(S'MPI_Bcast()'
p11155
S'396'
p11156
tp11157
asS'geosci/lmp/alt/compute.cpp'
p11158
(lp11159
(S'MPI_Allreduce()'
p11160
S'243'
p11161
tp11162
a(S'MPI_Allreduce()'
p11163
S'248'
p11164
tp11165
a(S'MPI_Allreduce()'
p11166
S'249'
p11167
tp11168
a(S'MPI_Allreduce()'
p11169
S'265'
p11170
tp11171
a(S'MPI_Allreduce()'
p11172
S'285'
p11173
tp11174
asS'geosci/lmp/alt/pair_lj_expand.cpp'
p11175
(lp11176
(S'MPI_Allreduce()'
p11177
S'266'
p11178
tp11179
a(S'MPI_Bcast()'
p11180
S'331'
p11181
tp11182
a(S'MPI_Bcast()'
p11183
S'339'
p11184
tp11185
a(S'MPI_Bcast()'
p11186
S'340'
p11187
tp11188
a(S'MPI_Bcast()'
p11189
S'341'
p11190
tp11191
a(S'MPI_Bcast()'
p11192
S'342'
p11193
tp11194
a(S'MPI_Bcast()'
p11195
S'371'
p11196
tp11197
a(S'MPI_Bcast()'
p11198
S'372'
p11199
tp11200
a(S'MPI_Bcast()'
p11201
S'373'
p11202
tp11203
a(S'MPI_Bcast()'
p11204
S'374'
p11205
tp11206
asS'geosci/lmp/alt/FLD/pair_brownian.cpp'
p11207
(lp11208
(S'MPI_Bcast()'
p11209
S'613'
p11210
tp11211
a(S'MPI_Bcast()'
p11212
S'619'
p11213
tp11214
a(S'MPI_Bcast()'
p11215
S'620'
p11216
tp11217
a(S'MPI_Bcast()'
p11218
S'664'
p11219
tp11220
a(S'MPI_Bcast()'
p11221
S'665'
p11222
tp11223
a(S'MPI_Bcast()'
p11224
S'666'
p11225
tp11226
a(S'MPI_Bcast()'
p11227
S'667'
p11228
tp11229
a(S'MPI_Bcast()'
p11230
S'668'
p11231
tp11232
a(S'MPI_Bcast()'
p11233
S'669'
p11234
tp11235
a(S'MPI_Bcast()'
p11236
S'670'
p11237
tp11238
a(S'MPI_Bcast()'
p11239
S'671'
p11240
tp11241
a(S'MPI_Bcast()'
p11242
S'672'
p11243
tp11244
a(S'MPI_Bcast()'
p11245
S'673'
p11246
tp11247
a(S'MPI_Bcast()'
p11248
S'674'
p11249
tp11250
asS'geosci/lmp/alt/GPU/gpu_extra.h'
p11251
(lp11252
(S'MPI_Allreduce()'
p11253
S'29'
p11254
tp11255
asS'geosci/lmp/alt/pair_lj_smooth_linear.cpp'
p11256
(lp11257
(S'MPI_Bcast()'
p11258
S'289'
p11259
tp11260
a(S'MPI_Bcast()'
p11261
S'296'
p11262
tp11263
a(S'MPI_Bcast()'
p11264
S'297'
p11265
tp11266
a(S'MPI_Bcast()'
p11267
S'298'
p11268
tp11269
a(S'MPI_Bcast()'
p11270
S'324'
p11271
tp11272
a(S'MPI_Bcast()'
p11273
S'325'
p11274
tp11275
asS'geosci/lmp/alt/compute_temp.cpp'
p11276
(lp11277
(S'MPI_Allreduce()'
p11278
S'98'
p11279
tp11280
a(S'MPI_Allreduce()'
p11281
S'134'
p11282
tp11283
asS'geosci/lmp/alt/fix_setforce.cpp'
p11284
(lp11285
(S'MPI_Allreduce()'
p11286
S'321'
p11287
tp11288
asS'geosci/lmp/alt/ASPHERE/compute_erotate_asphere.cpp'
p11289
(lp11290
(S'MPI_Allreduce()'
p11291
S'156'
p11292
tp11293
asS'geosci/lmp/alt/pair_lj_cut_coul_dsf.cpp'
p11294
(lp11295
(S'MPI_Allreduce()'
p11296
S'323'
p11297
tp11298
a(S'MPI_Bcast()'
p11299
S'373'
p11300
tp11301
a(S'MPI_Bcast()'
p11302
S'380'
p11303
tp11304
a(S'MPI_Bcast()'
p11305
S'381'
p11306
tp11307
a(S'MPI_Bcast()'
p11308
S'382'
p11309
tp11310
a(S'MPI_Bcast()'
p11311
S'415'
p11312
tp11313
a(S'MPI_Bcast()'
p11314
S'416'
p11315
tp11316
a(S'MPI_Bcast()'
p11317
S'417'
p11318
tp11319
a(S'MPI_Bcast()'
p11320
S'418'
p11321
tp11322
a(S'MPI_Bcast()'
p11323
S'419'
p11324
tp11325
a(S'MPI_Bcast()'
p11326
S'420'
p11327
tp11328
as.