ccollections
defaultdict
p0
(c__builtin__
list
p1
tp2
Rp3
S'CI0117-2020-S2/Examen2/B95549_OscarFranciscoNavarroC\xc3\xa9spedes_Examen2/[jaccard_mpi]/jaccard_mpi/jaccard_mpi.cpp'
p4
(lp5
(S'MPI_Init()'
p6
S'16'
p7
tp8
a(S'MPI_Comm_size()'
p9
S'17'
p10
tp11
a(S'MPI_Comm_rank()'
p12
S'18'
p13
tp14
a(S'MPI_Allgather()'
p15
S'96'
p16
tp17
a(S'MPI_Recv()'
p18
S'107'
p19
tp20
a(S'MPI_Send()'
p21
S'117'
p22
tp23
a(S'MPI_Finalize()'
p24
S'125'
p25
tp26
asS'CI0117-2020-S2/Laboratorios/Laboratorio8/count_primes_process/count_primes_process.cpp'
p27
(lp28
(S'MPI_Init()'
p29
S'88'
p30
tp31
a(S'MPI_Comm_size()'
p32
S'90'
p33
tp34
a(S'MPI_Comm_rank()'
p35
S'91'
p36
tp37
a(S'MPI_Send()'
p38
S'95'
p39
tp40
a(S'MPI_Wtime()'
p41
S'98'
p42
tp43
a(S'MPI_Recv()'
p44
S'100'
p45
tp46
a(S'MPI_Wtime()'
p47
S'103'
p48
tp49
a(S'MPI_Finalize()'
p50
S'109'
p51
tp52
asS'CI0117-2020-S2/Laboratorios/Laboratorio8/count_primes_reduction/count_primes_reduction.cpp'
p53
(lp54
(S'MPI_Reduce()'
p55
S'62'
p56
tp57
a(S'MPI_Init()'
p58
S'75'
p59
tp60
a(S'MPI_Comm_size()'
p61
S'77'
p62
tp63
a(S'MPI_Comm_rank()'
p64
S'78'
p65
tp66
a(S'MPI_Bcast()'
p67
S'89'
p68
tp69
a(S'MPI_Wtime()'
p70
S'94'
p71
tp72
a(S'MPI_Reduce()'
p73
S'95'
p74
tp75
a(S'MPI_Wtime()'
p76
S'96'
p77
tp78
a(S'MPI_Finalize()'
p79
S'103'
p80
tp81
asS'CI0117-2020-S2/proyectos/[super_mario_mpi]/Controller/Main_nuevo.cpp'
p82
(lp83
(S'MPI_Init()'
p84
S'39'
p85
tp86
a(S'MPI_Comm_size()'
p87
S'40'
p88
tp89
a(S'MPI_Comm_rank()'
p90
S'41'
p91
tp92
a(S'MPI_Finalize()'
p93
S'133'
p94
tp95
asS'CI0117-2020-S2/Laboratorios/Laboratorio8/count_primes_all_reduce/count_primes_all_reduce.cpp'
p96
(lp97
(S'MPI_Wtime()'
p98
S'32'
p99
tp100
a(S'MPI_Wtime()'
p101
S'67'
p102
tp103
a(S'MPI_Allreduce()'
p104
S'68'
p105
tp106
a(S'MPI_Init()'
p107
S'84'
p108
tp109
a(S'MPI_Comm_size()'
p110
S'86'
p111
tp112
a(S'MPI_Comm_rank()'
p113
S'87'
p114
tp115
a(S'MPI_Bcast()'
p116
S'98'
p117
tp118
a(S'MPI_Finalize()'
p119
S'102'
p120
tp121
asS'CI0117-2020-S2/proyectos/[super_mario_mpi]/Controller/Main.cpp'
p122
(lp123
(S'MPI_Init()'
p124
S'51'
p125
tp126
a(S'MPI_Comm_size()'
p127
S'52'
p128
tp129
a(S'MPI_Comm_rank()'
p130
S'53'
p131
tp132
a(S'MPI_Allgather()'
p133
S'85'
p134
tp135
a(S'MPI_Allreduce()'
p136
S'86'
p137
tp138
a(S'MPI_Allgather()'
p139
S'87'
p140
tp141
a(S'MPI_Allgather()'
p142
S'88'
p143
tp144
a(S'MPI_Bcast()'
p145
S'93'
p146
tp147
a(S'MPI_Allgather()'
p148
S'144'
p149
tp150
a(S'MPI_Allreduce()'
p151
S'179'
p152
tp153
a(S'MPI_Allgather()'
p154
S'180'
p155
tp156
a(S'MPI_Allgather()'
p157
S'181'
p158
tp159
a(S'MPI_Bcast()'
p160
S'183'
p161
tp162
a(S'MPI_Allgather()'
p163
S'197'
p164
tp165
a(S'MPI_Allreduce()'
p166
S'198'
p167
tp168
a(S'MPI_Allgather()'
p169
S'199'
p170
tp171
a(S'MPI_Allgather()'
p172
S'200'
p173
tp174
a(S'MPI_Bcast()'
p175
S'201'
p176
tp177
a(S'MPI_Finalize()'
p178
S'212'
p179
tp180
as.