ccollections
defaultdict
p0
(c__builtin__
list
p1
tp2
Rp3
S'course/nbody/v6/nbody.c'
p4
(lp5
(S'MPI_Allgather()'
p6
S'51'
p7
tp8
a(S'MPI_Allgather()'
p9
S'52'
p10
tp11
a(S'MPI_Allgather()'
p12
S'53'
p13
tp14
a(S'MPI_Reduce()'
p15
S'68'
p16
tp17
a(S'MPI_Init()'
p18
S'131'
p19
tp20
a(S'MPI_Comm_size()'
p21
S'132'
p22
tp23
a(S'MPI_Comm_rank()'
p24
S'133'
p25
tp26
a(S'MPI_Allgather()'
p27
S'149'
p28
tp29
a(S'MPI_Allgather()'
p30
S'150'
p31
tp32
a(S'MPI_Allgather()'
p33
S'151'
p34
tp35
a(S'MPI_Allgather()'
p36
S'152'
p37
tp38
a(S'MPI_Allgather()'
p39
S'153'
p40
tp41
a(S'MPI_Allgather()'
p42
S'154'
p43
tp44
a(S'MPI_Finalize()'
p45
S'194'
p46
tp47
as.