ccollections
defaultdict
p0
(c__builtin__
list
p1
tp2
Rp3
S'pbdMPI/src/spmd_send.c'
p4
(lp5
(S'X_MPI_INT()'
p6
S'21'
p7
tp8
a(S'X_MPI_INT()'
p9
S'34'
p10
tp11
a(S'X_MPI_INT()'
p12
S'38'
p13
tp14
a(S'X_MPI_DOUBLE()'
p15
S'61'
p16
tp17
a(S'X_MPI_DOUBLE()'
p18
S'74'
p19
tp20
a(S'X_MPI_DOUBLE()'
p21
S'78'
p22
tp23
a(S'X_MPI_BYTE()'
p24
S'101'
p25
tp26
a(S'X_MPI_BYTE()'
p27
S'114'
p28
tp29
a(S'X_MPI_BYTE()'
p30
S'118'
p31
tp32
a(S'X_MPI_INT()'
p33
S'144'
p34
tp35
a(S'X_MPI_INT()'
p36
S'158'
p37
tp38
a(S'X_MPI_INT()'
p39
S'163'
p40
tp41
a(S'X_MPI_DOUBLE()'
p42
S'187'
p43
tp44
a(S'X_MPI_DOUBLE()'
p45
S'201'
p46
tp47
a(S'X_MPI_DOUBLE()'
p48
S'206'
p49
tp50
a(S'X_MPI_BYTE()'
p51
S'230'
p52
tp53
a(S'X_MPI_BYTE()'
p54
S'244'
p55
tp56
a(S'X_MPI_BYTE()'
p57
S'249'
p58
tp59
asS'pbdMPI/vignettes/pbdMPI-include/01-introduction.tex'
p60
(lp61
(S'X_MPI_LONG_DEBUG()'
p62
S'276'
p63
tp64
asS'pbdMPI/src/spmd_bcast.c'
p65
(lp66
(S'MPI_Comm_rank()'
p67
S'12'
p68
tp69
a(S'X_MPI_INT()'
p70
S'25'
p71
tp72
a(S'X_MPI_INT()'
p73
S'40'
p74
tp75
a(S'X_MPI_INT()'
p76
S'44'
p77
tp78
a(S'MPI_Comm_rank()'
p79
S'58'
p80
tp81
a(S'X_MPI_DOUBLE()'
p82
S'71'
p83
tp84
a(S'X_MPI_DOUBLE()'
p85
S'86'
p86
tp87
a(S'X_MPI_DOUBLE()'
p88
S'90'
p89
tp90
a(S'MPI_Comm_rank()'
p91
S'104'
p92
tp93
a(S'X_MPI_BYTE()'
p94
S'117'
p95
tp96
a(S'X_MPI_BYTE()'
p97
S'132'
p98
tp99
a(S'X_MPI_BYTE()'
p100
S'136'
p101
tp102
a(S'X_MPI_CHAR()'
p103
S'145'
p104
tp105
asS'pbdMPI/src/spmd_communicator_spawn.c'
p106
(lp107
(S'X_MPI_ARGV_NULL()'
p108
S'13'
p109
tp110
a(S'X_MPI_COMM_SELF()'
p111
S'14'
p112
tp113
a(S'MPI_Comm_remote_size()'
p114
S'25'
p115
tp116
asS'pbdMPI/src/spmd_constant.h'
p117
(lp118
(S'X_MPI_LAND()'
p119
S'18'
p120
tp121
asS'pbdMPI/src/spmd.c'
p122
(lp123
(S'MPI_Initialized()'
p124
S'15'
p125
tp126
a(S'MPI_Init()'
p127
S'30'
p128
tp129
a(S'MPI_Init()'
p130
S'32'
p131
tp132
a(S'MPI_Comm_set_errhandler()'
p133
S'36'
p134
tp135
a(S'MPI_Comm_set_errhandler()'
p136
S'37'
p137
tp138
a(S'MPI_Comm_split_type()'
p139
S'47'
p140
tp141
a(S'MPI_Finalized()'
p142
S'74'
p143
tp144
a(S'MPI_Finalize()'
p145
S'89'
p146
tp147
a(S'MPI_Finalized()'
p148
S'99'
p149
tp150
a(S'MPI_Get_processor_name()'
p151
S'111'
p152
tp153
a(S'MPI_Comm_get_attr()'
p154
S'125'
p155
tp156
asS'pbdMPI/src/spmd_gather.c'
p157
(lp158
(S'MPI_Comm_size()'
p159
S'23'
p160
tp161
a(S'MPI_Comm_rank()'
p162
S'24'
p163
tp164
a(S'X_MPI_INT()'
p165
S'47'
p166
tp167
a(S'X_MPI_INT()'
p168
S'48'
p169
tp170
a(S'X_MPI_INT()'
p171
S'83'
p172
tp173
a(S'X_MPI_INT()'
p174
S'84'
p175
tp176
a(S'X_MPI_INT()'
p177
S'106'
p178
tp179
a(S'X_MPI_INT()'
p180
S'107'
p181
tp182
a(S'X_MPI_INT()'
p183
S'112'
p184
tp185
a(S'X_MPI_INT()'
p186
S'113'
p187
tp188
a(S'MPI_Comm_size()'
p189
S'137'
p190
tp191
a(S'MPI_Comm_rank()'
p192
S'138'
p193
tp194
a(S'X_MPI_DOUBLE()'
p195
S'161'
p196
tp197
a(S'X_MPI_DOUBLE()'
p198
S'162'
p199
tp200
a(S'X_MPI_DOUBLE()'
p201
S'197'
p202
tp203
a(S'X_MPI_DOUBLE()'
p204
S'199'
p205
tp206
a(S'X_MPI_DOUBLE()'
p207
S'221'
p208
tp209
a(S'X_MPI_DOUBLE()'
p210
S'222'
p211
tp212
a(S'X_MPI_DOUBLE()'
p213
S'227'
p214
tp215
a(S'X_MPI_DOUBLE()'
p216
S'228'
p217
tp218
a(S'MPI_Comm_size()'
p219
S'252'
p220
tp221
a(S'MPI_Comm_rank()'
p222
S'253'
p223
tp224
a(S'X_MPI_BYTE()'
p225
S'276'
p226
tp227
a(S'X_MPI_BYTE()'
p228
S'277'
p229
tp230
a(S'X_MPI_BYTE()'
p231
S'311'
p232
tp233
a(S'X_MPI_BYTE()'
p234
S'313'
p235
tp236
a(S'X_MPI_BYTE()'
p237
S'335'
p238
tp239
a(S'X_MPI_BYTE()'
p240
S'336'
p241
tp242
a(S'X_MPI_BYTE()'
p243
S'341'
p244
tp245
a(S'X_MPI_BYTE()'
p246
S'342'
p247
tp248
asS'pbdMPI/src/spmd_wait.c'
p249
(lp250
(S'MPI_Wait()'
p251
S'7'
p252
tp253
a(S'MPI_Waitany()'
p254
S'15'
p255
tp256
a(S'MPI_Waitsome()'
p257
S'25'
p258
tp259
asS'pbdMPI/src/spmd_allgather.c'
p260
(lp261
(S'MPI_Comm_rank()'
p262
S'20'
p263
tp264
a(S'MPI_Comm_size()'
p265
S'27'
p266
tp267
a(S'X_MPI_INT()'
p268
S'45'
p269
tp270
a(S'X_MPI_INT()'
p271
S'46'
p272
tp273
a(S'X_MPI_INT()'
p274
S'76'
p275
tp276
a(S'X_MPI_INT()'
p277
S'77'
p278
tp279
a(S'X_MPI_INT()'
p280
S'95'
p281
tp282
a(S'X_MPI_INT()'
p283
S'96'
p284
tp285
a(S'X_MPI_INT()'
p286
S'101'
p287
tp288
a(S'X_MPI_INT()'
p289
S'102'
p290
tp291
a(S'MPI_Comm_rank()'
p292
S'122'
p293
tp294
a(S'MPI_Comm_size()'
p295
S'129'
p296
tp297
a(S'X_MPI_DOUBLE()'
p298
S'147'
p299
tp300
a(S'X_MPI_DOUBLE()'
p301
S'148'
p302
tp303
a(S'X_MPI_DOUBLE()'
p304
S'178'
p305
tp306
a(S'X_MPI_DOUBLE()'
p307
S'180'
p308
tp309
a(S'X_MPI_DOUBLE()'
p310
S'199'
p311
tp312
a(S'X_MPI_DOUBLE()'
p313
S'200'
p314
tp315
a(S'X_MPI_DOUBLE()'
p316
S'205'
p317
tp318
a(S'X_MPI_DOUBLE()'
p319
S'206'
p320
tp321
a(S'MPI_Comm_rank()'
p322
S'226'
p323
tp324
a(S'MPI_Comm_size()'
p325
S'233'
p326
tp327
a(S'X_MPI_BYTE()'
p328
S'251'
p329
tp330
a(S'X_MPI_BYTE()'
p331
S'252'
p332
tp333
a(S'X_MPI_BYTE()'
p334
S'282'
p335
tp336
a(S'X_MPI_BYTE()'
p337
S'284'
p338
tp339
a(S'X_MPI_BYTE()'
p340
S'302'
p341
tp342
a(S'X_MPI_BYTE()'
p343
S'303'
p344
tp345
a(S'X_MPI_BYTE()'
p346
S'308'
p347
tp348
a(S'X_MPI_BYTE()'
p349
S'309'
p350
tp351
asS'pbdMPI/inst/mpi_valgrind/mpi_init_3.c'
p352
(lp353
(S'MPI_Init()'
p354
S'11'
p355
tp356
a(S'MPI_Finalize()'
p357
S'14'
p358
tp359
asS'pbdMPI/src/spmd_allreduce.c'
p360
(lp361
(S'MPI_Comm_rank()'
p362
S'14'
p363
tp364
a(S'X_MPI_INT()'
p365
S'28'
p366
tp367
a(S'X_MPI_INT()'
p368
S'45'
p369
tp370
a(S'MPI_Comm_rank()'
p371
S'65'
p372
tp373
a(S'X_MPI_DOUBLE()'
p374
S'79'
p375
tp376
a(S'X_MPI_DOUBLE()'
p377
S'96'
p378
tp379
a(S'MPI_Comm_rank()'
p380
S'116'
p381
tp382
a(S'X_MPI_FLOAT()'
p383
S'130'
p384
tp385
a(S'X_MPI_FLOAT()'
p386
S'147'
p387
tp388
asS'pbdMPI/src/comm_sort_integer.c'
p389
(lp390
(S'MPI_Comm_rank()'
p391
S'30'
p392
tp393
a(S'MPI_Send()'
p394
S'33'
p395
tp396
a(S'MPI_Recv()'
p397
S'35'
p398
tp399
a(S'MPI_Recv()'
p400
S'38'
p401
tp402
a(S'MPI_Send()'
p403
S'40'
p404
tp405
a(S'MPI_Comm_rank()'
p406
S'63'
p407
tp408
a(S'MPI_Bcast()'
p409
S'68'
p410
tp411
a(S'MPI_Bcast()'
p412
S'97'
p413
tp414
a(S'MPI_Bcast()'
p415
S'100'
p416
tp417
a(S'MPI_Comm_rank()'
p418
S'141'
p419
tp420
a(S'MPI_Comm_size()'
p421
S'250'
p422
tp423
a(S'MPI_Allgather()'
p424
S'252'
p425
tp426
asS'pbdMPI/src/spmd_alltoall.c'
p427
(lp428
(S'X_MPI_INT()'
p429
S'8'
p430
tp431
a(S'X_MPI_INT()'
p432
S'9'
p433
tp434
a(S'X_MPI_DOUBLE()'
p435
S'17'
p436
tp437
a(S'X_MPI_DOUBLE()'
p438
S'18'
p439
tp440
a(S'X_MPI_BYTE()'
p441
S'26'
p442
tp443
a(S'X_MPI_BYTE()'
p444
S'27'
p445
tp446
asS'pbdMPI/src/spmd_sendrecv_replace.c'
p447
(lp448
(S'X_MPI_INT()'
p449
S'21'
p450
tp451
a(S'X_MPI_DOUBLE()'
p452
S'44'
p453
tp454
a(S'X_MPI_BYTE()'
p455
S'67'
p456
tp457
asS'pbdMPI/inst/mpi_valgrind/mpi_init_1.c'
p458
(lp459
(S'MPI_Init()'
p460
S'6'
p461
tp462
a(S'MPI_Finalize()'
p463
g433
tp464
asS'pbdMPI/src/spmd_gatherv.c'
p465
(lp466
(S'X_MPI_INT()'
p467
S'15'
p468
tp469
a(S'X_MPI_DOUBLE()'
p470
S'32'
p471
tp472
a(S'X_MPI_BYTE()'
p473
S'49'
p474
tp475
asS'pbdMPI/src/pkg_tools.c'
p476
(lp477
(S'MPI_Comm_rank()'
p478
S'52'
p479
tp480
a(S'MPI_Comm_rank()'
p481
S'97'
p482
tp483
a(S'MPI_Comm_rank()'
p484
S'126'
p485
tp486
a(S'MPI_Comm_rank()'
p487
S'143'
p488
tp489
a(S'MPI_Comm_rank()'
p490
S'144'
p491
tp492
asS'pbdMPI/src/spmd_scatter.c'
p493
(lp494
(S'MPI_Comm_size()'
p495
S'23'
p496
tp497
a(S'MPI_Comm_rank()'
p498
S'24'
p499
tp500
a(S'X_MPI_INT()'
p501
S'66'
p502
tp503
a(S'X_MPI_INT()'
p504
S'67'
p505
tp506
a(S'X_MPI_INT()'
p507
S'96'
p508
tp509
a(S'X_MPI_INT()'
p510
S'97'
p511
tp512
a(S'X_MPI_INT()'
p513
S'106'
p514
tp515
a(S'X_MPI_INT()'
p516
S'107'
p517
tp518
a(S'X_MPI_INT()'
p519
S'112'
p520
tp521
a(S'X_MPI_INT()'
p522
S'113'
p523
tp524
a(S'MPI_Comm_size()'
p525
S'137'
p526
tp527
a(S'MPI_Comm_rank()'
p528
S'138'
p529
tp530
a(S'X_MPI_DOUBLE()'
p531
S'180'
p532
tp533
a(S'X_MPI_DOUBLE()'
p534
S'181'
p535
tp536
a(S'X_MPI_DOUBLE()'
p537
S'210'
p538
tp539
a(S'X_MPI_DOUBLE()'
p540
S'212'
p541
tp542
a(S'X_MPI_DOUBLE()'
p543
S'221'
p544
tp545
a(S'X_MPI_DOUBLE()'
p546
S'222'
p547
tp548
a(S'X_MPI_DOUBLE()'
p549
S'227'
p550
tp551
a(S'X_MPI_DOUBLE()'
p552
S'228'
p553
tp554
a(S'MPI_Comm_size()'
p555
S'252'
p556
tp557
a(S'MPI_Comm_rank()'
p558
S'253'
p559
tp560
a(S'X_MPI_BYTE()'
p561
S'294'
p562
tp563
a(S'X_MPI_BYTE()'
p564
S'295'
p565
tp566
a(S'X_MPI_BYTE()'
p567
S'323'
p568
tp569
a(S'X_MPI_BYTE()'
p570
S'324'
p571
tp572
a(S'X_MPI_BYTE()'
p573
S'333'
p574
tp575
a(S'X_MPI_BYTE()'
p576
S'334'
p577
tp578
a(S'X_MPI_BYTE()'
p579
S'339'
p580
tp581
a(S'X_MPI_BYTE()'
p582
S'340'
p583
tp584
asS'pbdMPI/src/pkg_constant.h'
p585
(lp586
(S'X_MPI_APTS_R_NAME()'
p587
S'26'
p588
tp589
a(S'X_MPI_LIB_R_NAME()'
p590
S'27'
p591
tp592
a(S'X_MPI_LONG_DEBUG()'
p593
S'31'
p594
tp595
a(S'X_MPI_APTS_DEBUG()'
p596
S'32'
p597
tp598
asS'pbdMPI/src/spmd_allgatherv.c'
p599
(lp600
(S'MPI_Allgatherv()'
p601
S'14'
p602
tp603
a(S'X_MPI_INT()'
p604
S'15'
p605
tp606
a(S'MPI_Allgatherv()'
p607
S'30'
p608
tp609
a(S'X_MPI_DOUBLE()'
p610
S'31'
p611
tp612
a(S'X_MPI_BYTE()'
p613
S'46'
p614
tp615
asS'pbdMPI/src/spmd_recv.c'
p616
(lp617
(S'X_MPI_INT()'
p618
S'26'
p619
tp620
a(S'X_MPI_INT()'
p621
S'40'
p622
tp623
a(S'X_MPI_INT()'
p624
S'45'
p625
tp626
a(S'X_MPI_DOUBLE()'
p627
S'73'
p628
tp629
a(S'X_MPI_DOUBLE()'
p630
S'87'
p631
tp632
a(S'X_MPI_DOUBLE()'
p633
S'92'
p634
tp635
a(S'X_MPI_BYTE()'
p636
S'120'
p637
tp638
a(S'X_MPI_BYTE()'
p639
S'134'
p640
tp641
a(S'X_MPI_BYTE()'
p642
S'139'
p643
tp644
a(S'X_MPI_INT()'
p645
S'169'
p646
tp647
a(S'X_MPI_INT()'
p648
S'183'
p649
tp650
a(S'X_MPI_INT()'
p651
S'188'
p652
tp653
a(S'X_MPI_DOUBLE()'
p654
S'216'
p655
tp656
a(S'X_MPI_DOUBLE()'
p657
S'230'
p658
tp659
a(S'X_MPI_DOUBLE()'
p660
S'235'
p661
tp662
a(S'X_MPI_BYTE()'
p663
S'263'
p664
tp665
a(S'X_MPI_BYTE()'
p666
S'277'
p667
tp668
a(S'X_MPI_BYTE()'
p669
S'282'
p670
tp671
asS'pbdMPI/inst/examples/README'
p672
(lp673
(S'X_MPI_LONG_DEBUG()'
p674
S'15'
p675
tp676
asS'pbdMPI/src/comm_sort_double.c'
p677
(lp678
(S'MPI_Comm_rank()'
p679
S'32'
p680
tp681
a(S'MPI_Send()'
p682
S'35'
p683
tp684
a(S'MPI_Recv()'
p685
S'37'
p686
tp687
a(S'MPI_Recv()'
p688
S'40'
p689
tp690
a(S'MPI_Send()'
p691
S'42'
p692
tp693
a(S'MPI_Comm_rank()'
p694
S'65'
p695
tp696
a(S'MPI_Bcast()'
p697
S'70'
p698
tp699
a(S'MPI_Bcast()'
p700
S'99'
p701
tp702
a(S'MPI_Bcast()'
p703
S'102'
p704
tp705
a(S'MPI_Comm_rank()'
p706
S'143'
p707
tp708
a(S'MPI_Comm_size()'
p709
S'252'
p710
tp711
a(S'MPI_Allgather()'
p712
S'254'
p713
tp714
asS'pbdMPI/src/spmd_alltoallv.c'
p715
(lp716
(S'MPI_Alltoallv()'
p717
g430
tp718
a(S'MPI_Alltoallv()'
p719
S'20'
p720
tp721
asS'pbdMPI/src/spmd_scatterv.c'
p722
(lp723
(S'X_MPI_INT()'
p724
S'16'
p725
tp726
a(S'X_MPI_INT()'
p727
S'17'
p728
tp729
a(S'X_MPI_DOUBLE()'
p730
S'33'
p731
tp732
a(S'X_MPI_DOUBLE()'
p733
S'34'
p734
tp735
a(S'X_MPI_BYTE()'
p736
S'50'
p737
tp738
a(S'X_MPI_BYTE()'
p739
S'51'
p740
tp741
asS'pbdMPI/src/spmd_tool.c'
p742
(lp743
(S'MPI_Error_string()'
p744
S'19'
p745
tp746
asS'pbdMPI/src/spmd_sendrecv.c'
p747
(lp748
(S'X_MPI_INT()'
p749
S'23'
p750
tp751
a(S'X_MPI_INT()'
p752
S'25'
p753
tp754
a(S'X_MPI_DOUBLE()'
p755
S'49'
p756
tp757
a(S'X_MPI_DOUBLE()'
p758
S'51'
p759
tp760
a(S'X_MPI_BYTE()'
p761
S'75'
p762
tp763
a(S'X_MPI_BYTE()'
p764
S'77'
p765
tp766
asS'pbdMPI/vignettes/pbdMPI-include/06-longvector.tex'
p767
(lp768
(S'X_MPI_LONG_DEBUG()'
p769
S'101'
p770
tp771
asS'pbdMPI/src/spmd_communicator.c'
p772
(lp773
(S'MPI_Comm_size()'
p774
S'16'
p775
tp776
a(S'MPI_Comm_rank()'
p777
S'22'
p778
tp779
a(S'MPI_Comm_split_type()'
p780
S'35'
p781
tp782
a(S'MPI_Comm_set_errhandler()'
p783
S'66'
p784
tp785
a(S'MPI_Comm_get_parent()'
p786
S'79'
p787
tp788
a(S'MPI_Comm_free()'
p789
S'82'
p790
tp791
a(S'MPI_Open_port()'
p792
S'142'
p793
tp794
a(S'MPI_Error_string()'
p795
S'146'
p796
tp797
a(S'MPI_Lookup_name()'
p798
S'185'
p799
tp800
a(S'MPI_Error_string()'
p801
S'190'
p802
tp803
asS'pbdMPI/inst/c_combine_r/a.c'
p804
(lp805
(S'MPI_Initialized()'
p806
S'11'
p807
tp808
a(S'MPI_Init()'
p809
S'22'
p810
tp811
a(S'MPI_Init()'
p812
S'24'
p813
tp814
a(S'MPI_Comm_set_errhandler()'
p815
S'28'
p816
tp817
a(S'MPI_Comm_set_errhandler()'
p818
S'29'
p819
tp820
a(S'MPI_Comm_split_type()'
p821
S'33'
p822
tp823
a(S'MPI_Comm_size()'
p824
S'39'
p825
tp826
a(S'MPI_Comm_rank()'
p827
S'40'
p828
tp829
a(S'MPI_Finalized()'
p830
S'44'
p831
tp832
a(S'MPI_Finalize()'
p833
S'46'
p834
tp835
asS'pbdMPI/inst/mpi_valgrind/mpi_init_2.c'
p836
(lp837
(S'MPI_Init()'
p838
g461
tp839
a(S'MPI_Finalize()'
p840
g433
tp841
asS'pbdMPI/src/spmd_reduce.c'
p842
(lp843
(S'MPI_Comm_rank()'
p844
S'15'
p845
tp846
a(S'MPI_Comm_rank()'
p847
S'67'
p848
tp849
a(S'MPI_Comm_rank()'
p850
S'119'
p851
tp852
as.