ccollections
defaultdict
p0
(c__builtin__
list
p1
tp2
Rp3
S'DMRG/src/mpiWrap.hpp'
p4
(lp5
(S'MPI_Comm_rank()'
p6
S'33'
p7
tp8
a(S'MPI_Comm_size()'
p9
S'34'
p10
tp11
a(S'MPI_Init()'
p12
S'39'
p13
tp14
a(S'MPI_Send()'
p15
S'47'
p16
tp17
a(S'MPI_Recv()'
p18
S'51'
p19
tp20
a(S'MPI_Allgather()'
p21
S'55'
p22
tp23
a(S'MPI_Allgather()'
p24
S'58'
p25
tp26
a(S'MPI_Allgather()'
p27
S'61'
p28
tp29
a(S'MPI_Allgather()'
p30
S'64'
p31
tp32
a(S'MPI_Allgather()'
p33
S'67'
p34
tp35
a(S'MPI_Reduce()'
p36
S'72'
p37
tp38
a(S'MPI_Reduce()'
p39
S'75'
p40
tp41
a(S'MPI_Reduce()'
p42
S'78'
p43
tp44
a(S'MPI_Allreduce()'
p45
S'83'
p46
tp47
a(S'MPI_Allreduce()'
p48
S'86'
p49
tp50
a(S'MPI_Allreduce()'
p51
S'89'
p52
tp53
a(S'MPI_Allreduce()'
p54
S'92'
p55
tp56
a(S'MPI_Allreduce()'
p57
S'95'
p58
tp59
a(S'MPI_Alltoall()'
p60
S'100'
p61
tp62
a(S'MPI_Alltoall()'
p63
S'103'
p64
tp65
a(S'MPI_Alltoall()'
p66
S'106'
p67
tp68
a(S'MPI_Alltoall()'
p69
S'109'
p70
tp71
a(S'MPI_Alltoallv()'
p72
S'114'
p73
tp74
a(S'MPI_Alltoallv()'
p75
S'117'
p76
tp77
a(S'MPI_Alltoallv()'
p78
S'120'
p79
tp80
a(S'MPI_Alltoallv()'
p81
S'123'
p82
tp83
asS'DMRG/prog/ladder2.cpp'
p84
(lp85
(S'MPI_Barrier()'
p86
S'30'
p87
tp88
a(S'MPI_Finalize()'
p89
S'172'
p90
tp91
asS'DMRG/prog/chph1b.cpp'
p92
(lp93
(S'MPI_Barrier()'
p94
S'30'
p95
tp96
a(S'MPI_Finalize()'
p97
S'134'
p98
tp99
as.