ccollections
defaultdict
p0
(c__builtin__
list
p1
tp2
Rp3
S'Planning_C_Translator/Examples/mpi_wins.cpp'
p4
(lp5
(S'MPI_Init()'
p6
S'30'
p7
tp8
a(S'MPI_Comm_rank()'
p9
S'31'
p10
tp11
a(S'MPI_Comm_size()'
p12
S'32'
p13
tp14
a(S'MPI_Get_processor_name()'
p15
S'33'
p16
tp17
a(S'MPI_Win_create()'
p18
S'37'
p19
tp20
a(S'MPI_Win_fence()'
p21
S'52'
p22
tp23
a(S'MPI_Get()'
p24
S'55'
p25
tp26
a(S'MPI_Get()'
p27
S'57'
p28
tp29
a(S'MPI_Win_fence()'
p30
S'59'
p31
tp32
a(S'MPI_Win_fence()'
p33
S'68'
p34
tp35
a(S'MPI_Put()'
p36
S'71'
p37
tp38
a(S'MPI_Put()'
p39
S'73'
p40
tp41
a(S'MPI_Win_fence()'
p42
S'75'
p43
tp44
a(S'MPI_Win_free()'
p45
S'84'
p46
tp47
a(S'MPI_Finalize()'
p48
S'85'
p49
tp50
asS'Planning_C_Translator/Examples/mpi_comms1.cpp'
p51
(lp52
(S'MPI_Init()'
p53
S'10'
p54
tp55
a(S'MPI_Comm_rank()'
p56
S'11'
p57
tp58
a(S'MPI_Comm_size()'
p59
S'12'
p60
tp61
a(S'MPI_Comm_group()'
p62
S'19'
p63
tp64
a(S'MPI_Group_incl()'
p65
S'20'
p66
tp67
a(S'MPI_Group_excl()'
p68
S'21'
p69
tp70
a(S'MPI_Barrier()'
p71
S'22'
p72
tp73
a(S'MPI_Barrier()'
p74
S'33'
p75
tp76
a(S'MPI_Group_rank()'
p77
S'34'
p78
tp79
a(S'MPI_Group_rank()'
p80
S'35'
p81
tp82
a(S'MPI_Finalize()'
p83
S'37'
p84
tp85
asS'Planning_C_Translator/Examples/mpi_star_iprobe.cpp'
p86
(lp87
(S'MPI_Init()'
p88
S'11'
p89
tp90
a(S'MPI_Comm_size()'
p91
S'13'
p92
tp93
a(S'MPI_Comm_rank()'
p94
S'14'
p95
tp96
a(S'MPI_Barrier()'
p97
S'18'
p98
tp99
a(S'MPI_Send()'
p100
S'24'
p101
tp102
a(S'MPI_Iprobe()'
p103
S'29'
p104
tp105
a(S'MPI_Recv()'
p106
S'30'
p107
tp108
a(S'MPI_Recv()'
p109
S'36'
p110
tp111
a(S'MPI_Send()'
p112
S'38'
p113
tp114
a(S'MPI_Barrier()'
p115
S'41'
p116
tp117
a(S'MPI_Finalize()'
p118
S'43'
p119
tp120
asS'Planning_C_Translator/Examples/mpi_base.cpp'
p121
(lp122
(S'MPI_Init()'
p123
S'11'
p124
tp125
a(S'MPI_Comm_size()'
p126
S'13'
p127
tp128
a(S'MPI_Comm_rank()'
p129
S'14'
p130
tp131
a(S'MPI_Finalize()'
p132
S'17'
p133
tp134
asS'Planning_C_Translator/Examples/mpi_wins2.cpp'
p135
(lp136
(S'MPI_Init()'
p137
S'16'
p138
tp139
a(S'MPI_Comm_size()'
p140
S'17'
p141
tp142
a(S'MPI_Comm_rank()'
p143
S'18'
p144
tp145
a(S'MPI_Abort()'
p146
S'22'
p147
tp148
a(S'MPI_Win_create()'
p149
S'27'
p150
tp151
a(S'MPI_Win_lock()'
p152
S'31'
p153
tp154
a(S'MPI_Get()'
p155
S'32'
p156
tp157
a(S'MPI_Put()'
p158
S'34'
p159
tp160
a(S'MPI_Win_unlock()'
p161
S'35'
p162
tp163
a(S'MPI_Win_free()'
p164
S'38'
p165
tp166
a(S'MPI_Win_create()'
p167
S'42'
p168
tp169
a(S'MPI_Win_lock()'
p170
S'45'
p171
tp172
a(S'MPI_Get()'
p173
S'46'
p174
tp175
a(S'MPI_Put()'
p176
S'48'
p177
tp178
a(S'MPI_Win_unlock()'
p179
S'49'
p180
tp181
a(S'MPI_Win_free()'
p182
S'52'
p183
tp184
a(S'MPI_Finalize()'
p185
S'62'
p186
tp187
asS'Planning_C_Translator/Examples/mpi_pingpong.cpp'
p188
(lp189
(S'MPI_Init()'
p190
S'17'
p191
tp192
a(S'MPI_Comm_rank()'
p193
S'19'
p194
tp195
a(S'MPI_Comm_size()'
p196
S'20'
p197
tp198
a(S'MPI_Abort()'
p199
S'37'
p200
tp201
a(S'MPI_Sendrecv()'
p202
S'43'
p203
tp204
a(S'X_MPI_BOTTOM()'
p205
S'44'
p206
tp207
a(S'MPI_Wtime()'
p208
S'46'
p209
tp210
a(S'MPI_Send()'
p211
S'48'
p212
tp213
a(S'MPI_Recv()'
p214
S'49'
p215
tp216
a(S'MPI_Sendrecv()'
p217
S'57'
p218
tp219
a(S'X_MPI_BOTTOM()'
p220
S'58'
p221
tp222
a(S'MPI_Recv()'
p223
S'61'
p224
tp225
a(S'MPI_Send()'
p226
S'63'
p227
tp228
a(S'MPI_Barrier()'
p229
S'80'
p230
tp231
a(S'MPI_Finalize()'
p232
S'81'
p233
tp234
asS'Planning_C_Translator/Examples/mpi_wins1.cpp'
p235
(lp236
(S'MPI_Init()'
p237
S'16'
p238
tp239
a(S'MPI_Comm_size()'
p240
S'17'
p241
tp242
a(S'MPI_Comm_rank()'
p243
S'18'
p244
tp245
a(S'MPI_Abort()'
p246
S'22'
p247
tp248
a(S'MPI_Win_create()'
p249
S'27'
p250
tp251
a(S'MPI_Win_lock()'
p252
S'30'
p253
tp254
a(S'MPI_Put()'
p255
S'31'
p256
tp257
a(S'MPI_Win_unlock()'
p258
S'32'
p259
tp260
a(S'MPI_Win_lock()'
p261
S'36'
p262
tp263
a(S'MPI_Get()'
p264
S'37'
p265
tp266
a(S'MPI_Win_unlock()'
p267
S'38'
p268
tp269
a(S'MPI_Win_free()'
p270
S'41'
p271
tp272
a(S'MPI_Win_create()'
p273
S'51'
p274
tp275
a(S'MPI_Win_free()'
p276
S'53'
p277
tp278
a(S'MPI_Finalize()'
p279
S'63'
p280
tp281
asS'Planning_C_Translator/Examples/mpi_testany.cpp'
p282
(lp283
(S'MPI_Init()'
p284
S'11'
p285
tp286
a(S'MPI_Comm_size()'
p287
S'12'
p288
tp289
a(S'MPI_Comm_rank()'
p290
S'13'
p291
tp292
a(S'MPI_Finalize()'
p293
S'17'
p294
tp295
a(S'MPI_Irecv()'
p296
S'25'
p297
tp298
a(S'MPI_Testany()'
p299
S'30'
p300
tp301
a(S'MPI_Testany()'
p302
S'34'
p303
tp304
a(S'MPI_Send()'
p305
S'41'
p306
tp307
a(S'MPI_Finalize()'
p308
S'43'
p309
tp310
asS'Planning_C_Translator/Examples/reent.cpp'
p311
(lp312
(S'MPI_Init()'
p313
S'1020'
p314
tp315
a(S'MPI_Finalize()'
p316
S'1350'
p317
tp318
asS'Planning_C_Translator/Examples/mpi_wins3.cpp'
p319
(lp320
(S'MPI_Init()'
p321
S'16'
p322
tp323
a(S'MPI_Comm_size()'
p324
S'17'
p325
tp326
a(S'MPI_Comm_rank()'
p327
S'18'
p328
tp329
a(S'MPI_Abort()'
p330
S'22'
p331
tp332
a(S'MPI_Win_create()'
p333
S'27'
p334
tp335
a(S'MPI_Win_lock()'
p336
S'31'
p337
tp338
a(S'MPI_Accumulate()'
p339
S'35'
p340
tp341
a(S'MPI_Win_unlock()'
p342
S'36'
p343
tp344
a(S'MPI_Win_free()'
p345
S'39'
p346
tp347
a(S'MPI_Win_create()'
p348
S'43'
p349
tp350
a(S'MPI_Win_lock()'
p351
S'46'
p352
tp353
a(S'MPI_Get()'
p354
S'47'
p355
tp356
a(S'MPI_Put()'
p357
S'49'
p358
tp359
a(S'MPI_Win_unlock()'
p360
S'50'
p361
tp362
a(S'MPI_Win_free()'
p363
S'53'
p364
tp365
a(S'MPI_Finalize()'
p366
S'63'
p367
tp368
asS'Planning_C_Translator/Examples/mpi_therm.cpp'
p369
(lp370
(S'MPI_Init()'
p371
S'24'
p372
tp373
a(S'MPI_Comm_size()'
p374
S'25'
p375
tp376
a(S'MPI_Comm_rank()'
p377
S'26'
p378
tp379
a(S'MPI_Send()'
p380
S'54'
p381
tp382
a(S'MPI_Recv()'
p383
S'55'
p384
tp385
a(S'MPI_Recv()'
p386
S'63'
p387
tp388
a(S'MPI_Send()'
p389
S'64'
p390
tp391
a(S'MPI_Recv()'
p392
S'75'
p393
tp394
a(S'MPI_Ssend()'
p395
S'86'
p396
tp397
a(S'MPI_Finalize()'
p398
S'91'
p399
tp400
asS'Planning_C_Translator/Examples/mpi_star.cpp'
p401
(lp402
(S'MPI_Init()'
p403
S'11'
p404
tp405
a(S'MPI_Comm_size()'
p406
S'13'
p407
tp408
a(S'MPI_Comm_rank()'
p409
S'14'
p410
tp411
a(S'MPI_Barrier()'
p412
S'18'
p413
tp414
a(S'MPI_Send()'
p415
S'24'
p416
tp417
a(S'MPI_Recv()'
p418
S'27'
p419
tp420
a(S'MPI_Recv()'
p421
S'33'
p422
tp423
a(S'MPI_Send()'
p424
S'35'
p425
tp426
a(S'MPI_Barrier()'
p427
S'38'
p428
tp429
a(S'MPI_Finalize()'
p430
S'40'
p431
tp432
asS'Planning_C_Translator/Examples/mpi_ode.cpp'
p433
(lp434
(S'MPI_Init()'
p435
S'25'
p436
tp437
a(S'MPI_Comm_size()'
p438
S'26'
p439
tp440
a(S'MPI_Comm_rank()'
p441
S'27'
p442
tp443
a(S'MPI_Send()'
p444
S'68'
p445
tp446
a(S'MPI_Recv()'
p447
S'72'
p448
tp449
a(S'MPI_Send()'
p450
S'97'
p451
tp452
a(S'MPI_Recv()'
p453
S'100'
p454
tp455
a(S'MPI_Finalize()'
p456
S'111'
p457
tp458
asS'Planning_C_Translator/Examples/mpi_testall.cpp'
p459
(lp460
(S'MPI_Init()'
p461
S'11'
p462
tp463
a(S'MPI_Comm_size()'
p464
S'12'
p465
tp466
a(S'MPI_Comm_rank()'
p467
S'13'
p468
tp469
a(S'MPI_Finalize()'
p470
S'17'
p471
tp472
a(S'MPI_Irecv()'
p473
S'24'
p474
tp475
a(S'MPI_Testall()'
p476
S'27'
p477
tp478
a(S'MPI_Testall()'
p479
S'32'
p480
tp481
a(S'MPI_Send()'
p482
S'38'
p483
tp484
a(S'MPI_Finalize()'
p485
S'40'
p486
tp487
asS'Planning_C_Translator/Examples/mpi_mul_vec_mat.c'
p488
(lp489
(S'MPI_Init()'
p490
S'32'
p491
tp492
a(S'MPI_Wtime()'
p493
S'34'
p494
tp495
a(S'MPI_Comm_size()'
p496
S'36'
p497
tp498
a(S'MPI_Comm_rank()'
p499
S'37'
p500
tp501
a(S'MPI_Finalize()'
p502
S'42'
p503
tp504
a(S'MPI_Finalize()'
p505
S'51'
p506
tp507
a(S'MPI_Scatter()'
p508
S'86'
p509
tp510
a(S'MPI_Bcast()'
p511
S'101'
p512
tp513
a(S'MPI_Scatterv()'
p514
S'107'
p515
tp516
a(S'MPI_Gatherv()'
p517
S'117'
p518
tp519
a(S'MPI_Wtime()'
p520
S'142'
p521
tp522
a(S'MPI_Finalize()'
p523
S'147'
p524
tp525
asS'Planning_C_Translator/Examples/mpi_cube1.cpp'
p526
(lp527
(S'MPI_Comm_size()'
p528
S'20'
p529
tp530
a(S'MPI_Comm_rank()'
p531
S'21'
p532
tp533
a(S'MPI_Finalize()'
p534
S'43'
p535
tp536
asS'Planning_C_Translator//mpi.h'
p537
(lp538
(S'X_MPI_INCLUDED()'
p539
S'2'
p540
tp541
a(S'X_MPI_SIGNED_CHAR()'
p542
S'17'
p543
tp544
a(S'X_MPI_UNSIGNED_CHAR()'
p545
S'18'
p546
tp547
a(S'X_MPI_BYTE()'
p548
S'19'
p549
tp550
a(S'X_MPI_SHORT()'
p551
S'20'
p552
tp553
a(S'X_MPI_UNSIGNED_SHORT()'
p554
S'21'
p555
tp556
a(S'X_MPI_INT()'
p557
S'22'
p558
tp559
a(S'X_MPI_UNSIGNED()'
p560
S'23'
p561
tp562
a(S'X_MPI_LONG()'
p563
S'24'
p564
tp565
a(S'X_MPI_UNSIGNED_LONG()'
p566
S'25'
p567
tp568
a(S'X_MPI_FLOAT()'
p569
S'26'
p570
tp571
a(S'X_MPI_DOUBLE()'
p572
S'27'
p573
tp574
a(S'X_MPI_LONG_DOUBLE()'
p575
S'28'
p576
tp577
a(S'X_MPI_LONG_LONG_INT()'
p578
S'29'
p579
tp580
a(S'X_MPI_UNSIGNED_LONG_LONG()'
p581
S'30'
p582
tp583
a(S'X_MPI_LONG_LONG()'
p584
S'31'
p585
tp586
a(S'X_MPI_PACKED()'
p587
S'33'
p588
tp589
a(S'X_MPI_LB()'
p590
S'34'
p591
tp592
a(S'X_MPI_MIN()'
p593
S'91'
p594
tp595
a(S'X_MPI_SUM()'
p596
S'92'
p597
tp598
a(S'X_MPI_PROD()'
p599
S'93'
p600
tp601
a(S'X_MPI_LAND()'
p602
S'94'
p603
tp604
a(S'X_MPI_BAND()'
p605
S'95'
p606
tp607
a(S'X_MPI_LOR()'
p608
S'96'
p609
tp610
a(S'X_MPI_BOR()'
p611
S'97'
p612
tp613
a(S'X_MPI_LXOR()'
p614
S'98'
p615
tp616
a(S'X_MPI_BXOR()'
p617
S'99'
p618
tp619
a(S'X_MPI_WIN_NULL()'
p620
S'160'
p621
tp622
a(S'X_MPI_INFO_NULL()'
p623
S'163'
p624
tp625
a(S'X_MPI_COMM_NULL()'
p626
S'165'
p627
tp628
a(S'X_MPI_OP_NULL()'
p629
S'166'
p630
tp631
a(S'X_MPI_GROUP_NULL()'
p632
S'167'
p633
tp634
a(S'X_MPI_DATATYPE_NULL()'
p635
S'168'
p636
tp637
a(S'X_MPI_REQUEST_NULL()'
p638
S'169'
p639
tp640
a(S'X_MPI_MAX_PROCESSOR_NAME()'
p641
S'171'
p642
tp643
a(S'X_MPI_MAX_ERROR_STRING()'
p644
S'172'
p645
tp646
a(S'X_MPI_MAX_PORT_NAME()'
p647
S'173'
p648
tp649
a(S'X_MPI_MAX_OBJECT_NAME()'
p650
S'174'
p651
tp652
a(S'X_MPI_PROC_NULL()'
p653
S'176'
p654
tp655
a(S'X_MPI_ANY_SOURCE()'
p656
S'177'
p657
tp658
a(S'X_MPI_ROOT()'
p659
S'178'
p660
tp661
a(S'X_MPI_ANY_TAG()'
p662
S'179'
p663
tp664
a(S'X_MPI_LOCK_EXCLUSIVE()'
p665
S'181'
p666
tp667
a(S'X_MPI_LOCK_SHARED()'
p668
S'182'
p669
tp670
a(S'X_MPI_VERSION()'
p671
S'246'
p672
tp673
a(S'X_MPI_SUBVERSION()'
p674
S'247'
p675
tp676
a(S'X_MPI_STATUS_IGNORE()'
p677
S'257'
p678
tp679
a(S'X_MPI_STATUSES_IGNORE()'
p680
S'258'
p681
tp682
a(S'X_MPI_ERRCODES_IGNORE()'
p683
S'259'
p684
tp685
a(S'X_MPI_ARGV_NULL()'
p686
S'261'
p687
tp688
a(S'X_MPI_ARGVS_NULL()'
p689
S'262'
p690
tp691
a(S'X_MPI_BOTTOM()'
p692
S'264'
p693
tp694
a(S'X_MPI_UNDEFINED()'
p695
S'265'
p696
tp697
a(S'X_MPI_UNWEIGHTED()'
p698
S'266'
p699
tp700
a(S'X_MPI_SUCCESS()'
p701
S'269'
p702
tp703
a(S'X_MPI_ERR_BUFFER()'
p704
S'271'
p705
tp706
a(S'X_MPI_ERR_COUNT()'
p707
S'272'
p708
tp709
a(S'X_MPI_ERR_TYPE()'
p710
S'273'
p711
tp712
a(S'X_MPI_ERR_TAG()'
p713
S'274'
p714
tp715
a(S'X_MPI_ERR_COMM()'
p716
S'275'
p717
tp718
a(S'X_MPI_ERR_RANK()'
p719
S'276'
p720
tp721
a(S'X_MPI_ERR_ROOT()'
p722
S'277'
p723
tp724
a(S'X_MPI_ERR_TRUNCATE()'
p725
S'278'
p726
tp727
a(S'X_MPI_ERR_GROUP()'
p728
S'281'
p729
tp730
a(S'X_MPI_ERR_OP()'
p731
S'282'
p732
tp733
a(S'X_MPI_ERR_REQUEST()'
p734
S'283'
p735
tp736
a(S'X_MPI_ERR_TOPOLOGY()'
p737
S'286'
p738
tp739
a(S'X_MPI_ERR_DIMS()'
p740
S'287'
p741
tp742
a(S'X_MPI_ERR_ARG()'
p743
S'290'
p744
tp745
a(S'X_MPI_ERR_OTHER()'
p746
S'293'
p747
tp748
a(S'X_MPI_ERR_UNKNOWN()'
p749
S'295'
p750
tp751
a(S'X_MPI_ERR_INTERN()'
p752
S'296'
p753
tp754
a(S'X_MPI_ERR_IN_STATUS()'
p755
S'299'
p756
tp757
a(S'X_MPI_ERR_PENDING()'
p758
S'300'
p759
tp760
a(S'X_MPI_ERR_FILE()'
p761
S'303'
p762
tp763
a(S'X_MPI_ERR_ACCESS()'
p764
S'304'
p765
tp766
a(S'X_MPI_ERR_AMODE()'
p767
S'305'
p768
tp769
a(S'X_MPI_ERR_BAD_FILE()'
p770
S'306'
p771
tp772
a(S'X_MPI_ERR_FILE_EXISTS()'
p773
S'307'
p774
tp775
a(S'X_MPI_ERR_FILE_IN_USE()'
p776
S'308'
p777
tp778
a(S'X_MPI_ERR_NO_SPACE()'
p779
S'309'
p780
tp781
a(S'X_MPI_ERR_NO_SUCH_FILE()'
p782
S'310'
p783
tp784
a(S'X_MPI_ERR_IO()'
p785
S'311'
p786
tp787
a(S'X_MPI_ERR_READ_ONLY()'
p788
S'312'
p789
tp790
a(S'X_MPI_ERR_CONVERSION()'
p791
S'313'
p792
tp793
a(S'X_MPI_ERR_DUP_DATAREP()'
p794
S'314'
p795
tp796
a(S'X_MPI_ERR_UNSUPPORTED_DATAREP()'
p797
S'315'
p798
tp799
a(S'X_MPI_ERR_INFO()'
p800
S'319'
p801
tp802
a(S'X_MPI_ERR_INFO_KEY()'
p803
S'320'
p804
tp805
a(S'X_MPI_ERR_INFO_VALUE()'
p806
S'321'
p807
tp808
a(S'X_MPI_ERR_INFO_NOKEY()'
p809
S'322'
p810
tp811
a(S'X_MPI_ERR_NAME()'
p812
S'324'
p813
tp814
a(S'X_MPI_ERR_NO_MEM()'
p815
S'325'
p816
tp817
a(S'X_MPI_ERR_NOT_SAME()'
p818
S'326'
p819
tp820
a(S'X_MPI_ERR_PORT()'
p821
S'327'
p822
tp823
a(S'X_MPI_ERR_QUOTA()'
p824
S'328'
p825
tp826
a(S'X_MPI_ERR_SERVICE()'
p827
S'329'
p828
tp829
a(S'X_MPI_ERR_SPAWN()'
p830
S'330'
p831
tp832
a(S'X_MPI_ERR_UNSUPPORTED_OPERATION()'
p833
S'331'
p834
tp835
a(S'X_MPI_ERR_WIN()'
p836
S'332'
p837
tp838
a(S'X_MPI_ERR_BASE()'
p839
S'334'
p840
tp841
a(S'X_MPI_ERR_LOCKTYPE()'
p842
S'335'
p843
tp844
a(S'X_MPI_ERR_KEYVAL()'
p845
S'336'
p846
tp847
a(S'X_MPI_ERR_RMA_CONFLICT()'
p848
S'337'
p849
tp850
a(S'X_MPI_ERR_RMA_SYNC()'
p851
S'338'
p852
tp853
a(S'X_MPI_ERR_SIZE()'
p854
S'339'
p855
tp856
a(S'X_MPI_ERR_DISP()'
p857
S'340'
p858
tp859
a(S'X_MPI_ERR_ASSERT()'
p860
S'341'
p861
tp862
a(S'X_MPI_ERR_LASTCODE()'
p863
S'343'
p864
tp865
a(S'X_MPI_Datatype()'
p866
S'462'
p867
tp868
a(S'MPI_Barrier()'
p869
S'1107'
p870
tp871
a(S'MPI_Waitall()'
p872
S'1370'
p873
tp874
a(S'MPI_Request_free()'
p875
S'1686'
p876
tp877
a(S'MPI_Request_delete()'
p878
S'1688'
p879
tp880
a(S'MPI_Request_free()'
p881
S'1701'
p882
tp883
a(S'MPI_Request_delete()'
p884
S'1703'
p885
tp886
a(S'MPI_Request_free()'
p887
S'1789'
p888
tp889
a(S'MPI_Request_delete()'
p890
S'1791'
p891
tp892
a(S'MPI_Request_delete()'
p893
S'1867'
p894
tp895
a(S'MPI_Barrier()'
p896
S'2075'
p897
tp898
a(S'MPI_Barrier()'
p899
S'2093'
p900
tp901
a(S'MPI_Barrier()'
p902
S'2101'
p903
tp904
a(S'MPI_Barrier()'
p905
S'2155'
p906
tp907
a(S'MPI_Barrier()'
p908
S'2168'
p909
tp910
a(S'MPI_Barrier()'
p911
S'2181'
p912
tp913
a(S'MPI_Barrier()'
p914
S'2196'
p915
tp916
a(S'MPI_Barrier()'
p917
S'2259'
p918
tp919
a(S'MPI_Barrier()'
p920
S'2274'
p921
tp922
a(S'MPI_Barrier()'
p923
S'2357'
p924
tp925
a(S'MPI_Barrier()'
p926
S'2378'
p927
tp928
a(S'MPI_Barrier()'
p929
S'2391'
p930
tp931
a(S'MPI_Barrier()'
p932
S'2411'
p933
tp934
a(S'MPI_Barrier()'
p935
S'2424'
p936
tp937
a(S'MPI_Barrier()'
p938
S'2482'
p939
tp940
a(S'MPI_Barrier()'
p941
S'2499'
p942
tp943
a(S'MPI_Barrier()'
p944
S'2565'
p945
tp946
asS'Planning_C_Translator/Examples/mpi_star_group.cpp'
p947
(lp948
(S'MPI_Init()'
p949
S'12'
p950
tp951
a(S'MPI_Comm_size()'
p952
S'14'
p953
tp954
a(S'MPI_Comm_rank()'
p955
S'15'
p956
tp957
a(S'MPI_Barrier()'
p958
S'19'
p959
tp960
a(S'MPI_Scatter()'
p961
S'30'
p962
tp963
a(S'MPI_Gather()'
p964
S'31'
p965
tp966
a(S'MPI_Scatter()'
p967
S'40'
p968
tp969
a(S'MPI_Gather()'
p970
S'41'
p971
tp972
a(S'MPI_Barrier()'
p973
S'44'
p974
tp975
a(S'MPI_Finalize()'
p976
S'46'
p977
tp978
asS'Planning_C_Translator/Examples/mpi_grsearch.cpp'
p979
(lp980
(S'MPI_Init()'
p981
S'21'
p982
tp983
a(S'MPI_Comm_size()'
p984
S'22'
p985
tp986
a(S'MPI_Comm_rank()'
p987
S'23'
p988
tp989
a(S'MPI_Send()'
p990
S'43'
p991
tp992
a(S'MPI_Recv()'
p993
S'48'
p994
tp995
a(S'MPI_Send()'
p996
S'61'
p997
tp998
a(S'MPI_Recv()'
p999
S'66'
p1000
tp1001
a(S'MPI_Send()'
p1002
S'77'
p1003
tp1004
a(S'MPI_Recv()'
p1005
S'79'
p1006
tp1007
a(S'MPI_Finalize()'
p1008
S'85'
p1009
tp1010
asS'Planning_C_Translator/Examples/mpi_ode_rk4.c'
p1011
(lp1012
(S'MPI_Comm_size()'
p1013
S'23'
p1014
tp1015
a(S'MPI_Comm_rank()'
p1016
S'24'
p1017
tp1018
a(S'MPI_Allgather()'
p1019
S'32'
p1020
tp1021
a(S'MPI_Allgather()'
p1022
S'34'
p1023
tp1024
a(S'MPI_Allgather()'
p1025
S'36'
p1026
tp1027
a(S'MPI_Allgather()'
p1028
S'38'
p1029
tp1030
a(S'MPI_Allgather()'
p1031
S'40'
p1032
tp1033
a(S'MPI_Finalize()'
p1034
S'49'
p1035
tp1036
asS'Planning_C_Translator/Examples/mpi_allreduce.cpp'
p1037
(lp1038
(S'MPI_Init()'
p1039
S'11'
p1040
tp1041
a(S'MPI_Comm_size()'
p1042
S'12'
p1043
tp1044
a(S'MPI_Comm_rank()'
p1045
S'13'
p1046
tp1047
a(S'MPI_Allreduce()'
p1048
S'23'
p1049
tp1050
a(S'MPI_Finalize()'
p1051
S'39'
p1052
tp1053
asS'Planning_C_Translator/Examples/mpi_allgatherv.cpp'
p1054
(lp1055
(S'MPI_Comm_rank()'
p1056
S'9'
p1057
tp1058
a(S'MPI_Init()'
p1059
S'14'
p1060
tp1061
a(S'MPI_Allgatherv()'
p1062
S'33'
p1063
tp1064
a(S'MPI_Finalize()'
p1065
S'46'
p1066
tp1067
asS'Planning_C_Translator//reent.cpp'
p1068
(lp1069
(S'MPI_Init()'
p1070
S'1020'
p1071
tp1072
a(S'MPI_Finalize()'
p1073
S'1350'
p1074
tp1075
asS'Planning_C_Translator/Examples/mpi_star_probe.cpp'
p1076
(lp1077
(S'MPI_Init()'
p1078
S'11'
p1079
tp1080
a(S'MPI_Comm_size()'
p1081
S'13'
p1082
tp1083
a(S'MPI_Comm_rank()'
p1084
S'14'
p1085
tp1086
a(S'MPI_Barrier()'
p1087
S'18'
p1088
tp1089
a(S'MPI_Send()'
p1090
S'24'
p1091
tp1092
a(S'MPI_Probe()'
p1093
S'27'
p1094
tp1095
a(S'MPI_Recv()'
p1096
S'28'
p1097
tp1098
a(S'MPI_Recv()'
p1099
S'34'
p1100
tp1101
a(S'MPI_Send()'
p1102
S'36'
p1103
tp1104
a(S'MPI_Barrier()'
p1105
S'39'
p1106
tp1107
a(S'MPI_Finalize()'
p1108
S'41'
p1109
tp1110
asS'Planning_C_Translator/Examples/mpi_comms.cpp'
p1111
(lp1112
(S'MPI_Init()'
p1113
S'14'
p1114
tp1115
a(S'MPI_Comm_size()'
p1116
S'15'
p1117
tp1118
a(S'MPI_Comm_rank()'
p1119
S'16'
p1120
tp1121
a(S'MPI_Comm_group()'
p1122
S'26'
p1123
tp1124
a(S'MPI_Group_incl()'
p1125
S'27'
p1126
tp1127
a(S'MPI_Comm_create()'
p1128
S'28'
p1129
tp1130
a(S'MPI_Comm_group()'
p1131
S'30'
p1132
tp1133
a(S'MPI_Comm_rank()'
p1134
S'31'
p1135
tp1136
a(S'MPI_Bcast()'
p1137
S'34'
p1138
tp1139
a(S'MPI_Bcast()'
p1140
S'39'
p1141
tp1142
a(S'MPI_Comm_free()'
p1143
S'42'
p1144
tp1145
a(S'MPI_Group_free()'
p1146
S'43'
p1147
tp1148
a(S'MPI_Finalize()'
p1149
S'45'
p1150
tp1151
asS'Planning_C_Translator/Examples/mpi_tube.cpp'
p1152
(lp1153
(S'MPI_Init()'
p1154
S'11'
p1155
tp1156
a(S'MPI_Comm_size()'
p1157
S'13'
p1158
tp1159
a(S'MPI_Comm_rank()'
p1160
S'14'
p1161
tp1162
a(S'MPI_Finalize()'
p1163
S'38'
p1164
tp1165
asS'Planning_C_Translator/Examples/mpi_async.cpp'
p1166
(lp1167
(S'MPI_Init()'
p1168
S'10'
p1169
tp1170
a(S'MPI_Comm_size()'
p1171
S'11'
p1172
tp1173
a(S'MPI_Comm_rank()'
p1174
S'12'
p1175
tp1176
a(S'MPI_Irecv()'
p1177
S'17'
p1178
tp1179
a(S'MPI_Isend()'
p1180
S'18'
p1181
tp1182
a(S'MPI_Wait()'
p1183
S'19'
p1184
tp1185
a(S'MPI_Wait()'
p1186
S'20'
p1187
tp1188
a(S'MPI_Finalize()'
p1189
S'25'
p1190
tp1191
asS'Planning_C_Translator/Examples/mpi_async2.cpp'
p1192
(lp1193
(S'MPI_Init()'
p1194
S'12'
p1195
tp1196
a(S'MPI_Comm_size()'
p1197
S'13'
p1198
tp1199
a(S'MPI_Finalize()'
p1200
S'17'
p1201
tp1202
a(S'MPI_Comm_rank()'
p1203
S'20'
p1204
tp1205
a(S'MPI_Isend()'
p1206
S'28'
p1207
tp1208
a(S'MPI_Waitsome()'
p1209
S'33'
p1210
tp1211
a(S'MPI_Recv()'
p1212
S'43'
p1213
tp1214
a(S'MPI_Finalize()'
p1215
S'47'
p1216
tp1217
asS'Planning_C_Translator/Examples/mpi_scansearch.cpp'
p1218
(lp1219
(S'MPI_Init()'
p1220
S'27'
p1221
tp1222
a(S'MPI_Comm_size()'
p1223
S'28'
p1224
tp1225
a(S'MPI_Comm_rank()'
p1226
S'29'
p1227
tp1228
a(S'MPI_Recv()'
p1229
S'75'
p1230
tp1231
a(S'MPI_Recv()'
p1232
S'76'
p1233
tp1234
a(S'MPI_Send()'
p1235
S'95'
p1236
tp1237
a(S'MPI_Send()'
p1238
S'96'
p1239
tp1240
a(S'MPI_Finalize()'
p1241
S'102'
p1242
tp1243
asS'Planning_C_Translator//funnels_atomic.h'
p1244
(lp1245
(S'MPI_Iprobe()'
p1246
S'1729'
p1247
tp1248
a(S'MPI_Recv()'
p1249
S'1733'
p1250
tp1251
a(S'MPI_Send()'
p1252
S'1798'
p1253
tp1254
a(S'MPI_Send()'
p1255
S'1800'
p1256
tp1257
a(S'MPI_Send()'
p1258
S'1802'
p1259
tp1260
a(S'MPI_Iprobe()'
p1261
S'1888'
p1262
tp1263
a(S'MPI_Recv()'
p1264
S'1899'
p1265
tp1266
a(S'MPI_Send()'
p1267
S'1900'
p1268
tp1269
a(S'MPI_Iprobe()'
p1270
S'1947'
p1271
tp1272
a(S'MPI_Recv()'
p1273
S'1949'
p1274
tp1275
a(S'MPI_Send()'
p1276
S'1979'
p1277
tp1278
a(S'MPI_Bcast()'
p1279
S'2113'
p1280
tp1281
a(S'MPI_Alloc_mem()'
p1282
S'2115'
p1283
tp1284
a(S'MPI_Win_create()'
p1285
S'2116'
p1286
tp1287
a(S'MPI_Win_create()'
p1288
S'2119'
p1289
tp1290
a(S'MPI_Win_lock()'
p1291
S'2123'
p1292
tp1293
a(S'MPI_Put()'
p1294
S'2124'
p1295
tp1296
a(S'MPI_Win_unlock()'
p1297
S'2125'
p1298
tp1299
a(S'MPI_Win_lock()'
p1300
S'2128'
p1301
tp1302
a(S'MPI_Get()'
p1303
S'2129'
p1304
tp1305
a(S'MPI_Win_unlock()'
p1306
S'2130'
p1307
tp1308
a(S'MPI_Win_lock()'
p1309
S'2134'
p1310
tp1311
a(S'MPI_Accumulate()'
p1312
S'2136'
p1313
tp1314
a(S'MPI_Get()'
p1315
S'2137'
p1316
tp1317
a(S'MPI_Get()'
p1318
S'2139'
p1319
tp1320
a(S'MPI_Accumulate()'
p1321
S'2140'
p1322
tp1323
a(S'MPI_Win_unlock()'
p1324
S'2142'
p1325
tp1326
a(S'MPI_Win_free()'
p1327
S'2173'
p1328
tp1329
a(S'MPI_Barrier()'
p1330
S'2186'
p1331
tp1332
a(S'MPI_Init_thread()'
p1333
S'2224'
p1334
tp1335
a(S'MPI_Abort()'
p1336
S'2227'
p1337
tp1338
a(S'MPI_Comm_size()'
p1339
S'2229'
p1340
tp1341
a(S'MPI_Comm_rank()'
p1342
S'2230'
p1343
tp1344
a(S'MPI_Finalize()'
p1345
S'2235'
p1346
tp1347
asS'Planning_C_Translator/Examples/mpi_alltoall.cpp'
p1348
(lp1349
(S'MPI_Init()'
p1350
S'19'
p1351
tp1352
a(S'MPI_Comm_size()'
p1353
S'20'
p1354
tp1355
a(S'MPI_Comm_rank()'
p1356
S'21'
p1357
tp1358
a(S'MPI_Alltoall()'
p1359
S'50'
p1360
tp1361
a(S'MPI_Finalize()'
p1362
S'57'
p1363
tp1364
asS'Planning_C_Translator/Examples/mpi_cpi.cpp'
p1365
(lp1366
(S'MPI_Init()'
p1367
S'28'
p1368
tp1369
a(S'MPI_Comm_size()'
p1370
S'29'
p1371
tp1372
a(S'MPI_Comm_rank()'
p1373
S'30'
p1374
tp1375
a(S'MPI_Get_processor_name()'
p1376
S'31'
p1377
tp1378
a(S'MPI_Wtime()'
p1379
S'47'
p1380
tp1381
a(S'MPI_Bcast()'
p1382
S'49'
p1383
tp1384
a(S'MPI_Reduce()'
p1385
S'60'
p1386
tp1387
a(S'MPI_Wtime()'
p1388
S'65'
p1389
tp1390
a(S'MPI_Finalize()'
p1391
S'71'
p1392
tp1393
asS'Planning_C_Translator/Examples/mpi_testsome.cpp'
p1394
(lp1395
(S'MPI_Init()'
p1396
S'12'
p1397
tp1398
a(S'MPI_Comm_size()'
p1399
S'13'
p1400
tp1401
a(S'MPI_Comm_rank()'
p1402
S'14'
p1403
tp1404
a(S'MPI_Finalize()'
p1405
S'18'
p1406
tp1407
a(S'MPI_Irecv()'
p1408
S'27'
p1409
tp1410
a(S'MPI_Testsome()'
p1411
S'31'
p1412
tp1413
a(S'MPI_Send()'
p1414
S'45'
p1415
tp1416
a(S'MPI_Finalize()'
p1417
S'47'
p1418
tp1419
asS'Planning_C_Translator/Examples/mpi_async1.cpp'
p1420
(lp1421
(S'MPI_Init()'
p1422
S'16'
p1423
tp1424
a(S'MPI_Comm_size()'
p1425
S'17'
p1426
tp1427
a(S'MPI_Comm_rank()'
p1428
S'18'
p1429
tp1430
a(S'MPI_Send_init()'
p1431
S'21'
p1432
tp1433
a(S'MPI_Irecv()'
p1434
S'29'
p1435
tp1436
a(S'MPI_Start()'
p1437
S'31'
p1438
tp1439
a(S'MPI_Wait()'
p1440
S'32'
p1441
tp1442
a(S'MPI_Waitall()'
p1443
S'33'
p1444
tp1445
a(S'MPI_Start()'
p1446
S'42'
p1447
tp1448
a(S'MPI_Wait()'
p1449
S'43'
p1450
tp1451
a(S'MPI_Request_free()'
p1452
S'46'
p1453
tp1454
a(S'MPI_Isend()'
p1455
S'54'
p1456
tp1457
a(S'MPI_Recv_init()'
p1458
S'55'
p1459
tp1460
a(S'MPI_Start()'
p1461
S'58'
p1462
tp1463
a(S'MPI_Wait()'
p1464
S'59'
p1465
tp1466
a(S'MPI_Wait()'
p1467
S'65'
p1468
tp1469
a(S'MPI_Request_free()'
p1470
S'66'
p1471
tp1472
a(S'MPI_Send()'
p1473
S'69'
p1474
tp1475
a(S'MPI_Finalize()'
p1476
S'72'
p1477
tp1478
asS'Planning_C_Translator/Examples/mpi_alltoallv.cpp'
p1479
(lp1480
(S'MPI_Init()'
p1481
S'19'
p1482
tp1483
a(S'MPI_Comm_size()'
p1484
S'20'
p1485
tp1486
a(S'MPI_Comm_rank()'
p1487
S'21'
p1488
tp1489
a(S'MPI_Alltoall()'
p1490
S'44'
p1491
tp1492
a(S'MPI_Alltoallv()'
p1493
S'70'
p1494
tp1495
a(S'MPI_Finalize()'
p1496
S'78'
p1497
tp1498
as.