ccollections
defaultdict
p0
(c__builtin__
list
p1
tp2
Rp3
S'stan2js/cmdstan2js/cmdstan/stan/lib/stan_math/lib/boost_1.69.0/boost/graph/distributed/detail/mpi_process_group.ipp'
p4
(lp5
(S'MPI_Recv()'
p6
S'493'
p7
tp8
a(S'MPI_Get_count()'
p9
S'511'
p10
tp11
a(S'MPI_Recv()'
p12
S'517'
p13
tp14
a(S'MPI_Irecv()'
p15
S'666'
p16
tp17
a(S'X_MPI_PACKED()'
p18
S'667'
p19
tp20
a(S'MPI_Allgather()'
p21
S'838'
p22
tp23
a(S'MPI_Allgatherv()'
p24
S'857'
p25
tp26
a(S'X_MPI_BYTE()'
p27
S'860'
p28
tp29
a(S'MPI_Comm_group()'
p30
S'881'
p31
tp32
a(S'MPI_Group_incl()'
p33
S'885'
p34
tp35
a(S'MPI_Comm_create()'
p36
S'889'
p37
tp38
a(S'MPI_Group_free()'
p39
S'892'
p40
tp41
a(S'MPI_Group_free()'
p42
S'894'
p43
tp44
a(S'MPI_Comm_free()'
p45
S'899'
p46
tp47
a(S'MPI_Irecv()'
p48
S'930'
p49
tp50
a(S'MPI_Test()'
p51
S'935'
p52
tp53
a(S'MPI_Get_count()'
p54
S'968'
p55
tp56
a(S'MPI_Recv()'
p57
S'973'
p58
tp59
asS'stan2js/cmdstan2machine_code/cmdstan/stan/lib/stan_math/lib/boost_1.69.0/libs/graph_parallel/src/mpi_process_group.cpp'
p60
(lp61
(S'MPI_Cancel()'
p62
S'142'
p63
tp64
a(S'MPI_Isend()'
p65
S'561'
p66
tp67
a(S'X_MPI_PACKED()'
p68
S'562'
p69
tp70
a(S'MPI_Test()'
p71
S'570'
p72
tp73
a(S'MPI_Get_count()'
p74
S'732'
p75
tp76
a(S'MPI_Recv()'
p77
S'739'
p78
tp79
a(S'MPI_Isend()'
p80
S'823'
p81
tp82
a(S'MPI_Test()'
p83
S'827'
p84
tp85
a(S'MPI_Testsome()'
p86
S'930'
p87
tp88
a(S'MPI_Test()'
p89
S'1037'
p90
tp91
a(S'MPI_Test()'
p92
S'1048'
p93
tp94
a(S'MPI_Buffer_detach()'
p95
S'1095'
p96
tp97
a(S'MPI_Buffer_detach()'
p98
S'1100'
p99
tp100
a(S'MPI_Buffer_attach()'
p101
S'1103'
p102
tp103
a(S'MPI_Buffer_attach()'
p104
S'1105'
p105
tp106
asS'stan2js/cmdstan2js/cmdstan/stan/lib/stan_math/lib/boost_1.69.0/libs/mpi/src/communicator.cpp'
p107
(lp108
(S'MPI_Comm_set_errhandler()'
p109
S'47'
p110
tp111
asS'stan2js/cmdstan2js/cmdstan/stan/lib/stan_math/lib/boost_1.69.0/libs/mpi/src/mpi_datatype_cache.cpp'
p112
(lp113
(S'MPI_Type_free()'
p114
S'36'
p115
tp116
asS'stan2js/cmdstan2js/cmdstan/stan/lib/stan_math/lib/boost_1.69.0/libs/mpi/src/point_to_point.cpp'
p117
(lp118
(S'X_MPI_PACKED()'
p119
S'39'
p120
tp121
a(S'X_MPI_PACKED()'
p122
S'56'
p123
tp124
a(S'X_MPI_PACKED()'
p125
S'76'
p126
tp127
asS'stan2js/cmdstan2js/cmdstan/stan/lib/stan_math/lib/sundials_4.1.0/src/nvector/parhyp/nvector_parhyp.c'
p128
(lp129
(S'MPI_Comm_size()'
p130
S'400'
p131
tp132
a(S'MPI_Comm_rank()'
p133
S'401'
p134
tp135
a(S'MPI_Comm_size()'
p136
S'518'
p137
tp138
asS'stan2js/cmdstan2machine_code/cmdstan/stan/lib/stan_math/lib/sundials_4.1.0/src/nvector/parallel/fnvector_parallel.h'
p139
(lp140
(S'X_MPI_Fint()'
p141
S'83'
p142
tp143
asS'stan2js/cmdstan2js/cmdstan/stan/lib/stan_math/lib/sundials_4.1.0/src/nvector/petsc/nvector_petsc.c'
p144
(lp145
(S'MPI_Allreduce()'
p146
S'129'
p147
tp148
a(S'MPI_Comm_size()'
p149
S'504'
p150
tp151
asS'stan2js/cmdstan2js/cmdstan/stan/lib/stan_math/lib/sundials_4.1.0/src/nvector/parallel/fnvector_parallel.h'
p152
(lp153
(S'X_MPI_Fint()'
p154
S'83'
p155
tp156
asS'stan2js/cmdstan2js/cmdstan/stan/lib/stan_math/lib/boost_1.69.0/libs/graph_parallel/src/mpi_process_group.cpp'
p157
(lp158
(S'MPI_Cancel()'
p159
S'142'
p160
tp161
a(S'MPI_Isend()'
p162
S'561'
p163
tp164
a(S'X_MPI_PACKED()'
p165
S'562'
p166
tp167
a(S'MPI_Test()'
p168
S'570'
p169
tp170
a(S'MPI_Get_count()'
p171
S'732'
p172
tp173
a(S'MPI_Recv()'
p174
S'739'
p175
tp176
a(S'MPI_Isend()'
p177
S'823'
p178
tp179
a(S'MPI_Test()'
p180
S'827'
p181
tp182
a(S'MPI_Testsome()'
p183
S'930'
p184
tp185
a(S'MPI_Test()'
p186
S'1037'
p187
tp188
a(S'MPI_Test()'
p189
S'1048'
p190
tp191
a(S'MPI_Buffer_detach()'
p192
S'1095'
p193
tp194
a(S'MPI_Buffer_detach()'
p195
S'1100'
p196
tp197
a(S'MPI_Buffer_attach()'
p198
S'1103'
p199
tp200
a(S'MPI_Buffer_attach()'
p201
S'1105'
p202
tp203
asS'stan2js/cmdstan2js/cmdstan/stan/lib/stan_math/lib/sundials_4.1.0/src/nvector/parallel/fnvector_parallel.c'
p204
(lp205
(S'X_MPI_Fint()'
p206
S'45'
p207
tp208
asS'stan2js/cmdstan2js/cmdstan/stan/lib/stan_math/lib/boost_1.69.0/boost/mpi/collectives/broadcast.hpp'
p209
(lp210
(S'X_MPI_BYTE()'
p211
S'120'
p212
tp213
a(S'X_MPI_BYTE()'
p214
S'130'
p215
tp216
asS'stan2js/cmdstan2machine_code/cmdstan/stan/lib/stan_math/lib/boost_1.69.0/boost/mpi/exception.hpp'
p217
(lp218
(S'MPI_Error_class()'
p219
S'74'
p220
tp221
asS'stan2js/cmdstan2machine_code/cmdstan/stan/lib/stan_math/lib/boost_1.69.0/boost/mpi/datatype.hpp'
p222
(lp223
(S'X_MPI_LONG_DOUBLE_INT()'
p224
S'254'
p225
tp226
a(S'MPI_Type_contiguous()'
p227
S'323'
p228
tp229
a(S'MPI_Type_commit()'
p230
S'324'
p231
tp232
asS'stan2js/cmdstan2js/cmdstan/stan/lib/stan_math/lib/boost_1.69.0/boost/mpi/operations.hpp'
p233
(lp234
(S'MPI_Op_free()'
p235
S'309'
p236
tp237
asS'stan2js/cmdstan2js/cmdstan/stan/lib/stan_math/lib/boost_1.69.0/libs/mpi/src/request.cpp'
p238
(lp239
(S'MPI_Waitall()'
p240
S'39'
p241
tp242
a(S'MPI_Testall()'
p243
S'82'
p244
tp245
asS'stan2js/cmdstan2js/cmdstan/stan/lib/stan_math/lib/boost_1.69.0/boost/mpi/communicator.hpp'
p246
(lp247
(S'MPI_Comm()'
p248
S'1514'
p249
tp250
a(S'MPI_Comm()'
p251
S'1768'
p252
tp253
a(S'MPI_Comm()'
p254
S'1791'
p255
tp256
a(S'MPI_Comm()'
p257
S'1827'
p258
tp259
a(S'MPI_Comm()'
p260
S'1850'
p261
tp262
a(S'MPI_Comm()'
p263
S'1886'
p264
tp265
a(S'MPI_Comm()'
p266
S'1907'
p267
tp268
asS'stan2js/cmdstan2machine_code/cmdstan/stan/lib/stan_math/lib/boost_1.69.0/libs/mpi/src/communicator.cpp'
p269
(lp270
(S'MPI_Comm_set_errhandler()'
p271
S'47'
p272
tp273
asS'stan2js/cmdstan2js/cmdstan/stan/lib/stan_math/lib/boost_1.69.0/boost/mpi/allocator.hpp'
p274
(lp275
(S'X_MPI_INFO_NULL()'
p276
S'141'
p277
tp278
asS'stan2js/cmdstan2machine_code/cmdstan/stan/lib/stan_math/lib/boost_1.69.0/boost/graph/distributed/mpi_process_group.hpp'
p279
(lp280
(S'MPI_Bsend()'
p281
S'709'
p282
tp283
a(S'MPI_Isend()'
p284
S'715'
p285
tp286
a(S'MPI_Test()'
p287
S'721'
p288
tp289
a(S'MPI_Bsend()'
p290
S'745'
p291
tp292
a(S'MPI_Isend()'
p293
S'751'
p294
tp295
a(S'MPI_Test()'
p296
S'757'
p297
tp298
asS'stan2js/cmdstan2machine_code/cmdstan/stan/lib/stan_math/lib/sundials_4.1.0/src/nvector/petsc/nvector_petsc.c'
p299
(lp300
(S'MPI_Allreduce()'
p301
S'129'
p302
tp303
a(S'MPI_Comm_size()'
p304
S'504'
p305
tp306
asS'stan2js/cmdstan2js/cmdstan/stan/lib/stan_math/lib/boost_1.69.0/boost/mpi/timer.hpp'
p307
(lp308
(S'MPI_Wtime()'
p309
S'71'
p310
tp311
asS'stan2js/cmdstan2machine_code/cmdstan/stan/lib/stan_math/lib/sundials_4.1.0/src/nvector/parhyp/nvector_parhyp.c'
p312
(lp313
(S'MPI_Comm_size()'
p314
S'400'
p315
tp316
a(S'MPI_Comm_rank()'
p317
S'401'
p318
tp319
a(S'MPI_Comm_size()'
p320
S'518'
p321
tp322
asS'stan2js/cmdstan2machine_code/cmdstan/stan/lib/stan_math/lib/boost_1.69.0/libs/mpi/src/mpi_datatype_cache.cpp'
p323
(lp324
(S'MPI_Type_free()'
p325
S'36'
p326
tp327
asS'stan2js/cmdstan2machine_code/cmdstan/stan/lib/stan_math/lib/boost_1.69.0/boost/mpi/timer.hpp'
p328
(lp329
(S'MPI_Wtime()'
p330
S'71'
p331
tp332
asS'stan2js/cmdstan2machine_code/cmdstan/stan/lib/stan_math/lib/boost_1.69.0/libs/mpi/src/request.cpp'
p333
(lp334
(S'MPI_Waitall()'
p335
S'39'
p336
tp337
a(S'MPI_Testall()'
p338
S'82'
p339
tp340
asS'stan2js/cmdstan2machine_code/cmdstan/stan/lib/stan_math/lib/boost_1.69.0/boost/mpi/operations.hpp'
p341
(lp342
(S'MPI_Op_free()'
p343
S'309'
p344
tp345
asS'stan2js/cmdstan2js/cmdstan/stan/lib/stan_math/lib/boost_1.69.0/boost/mpi/collectives/all_gather.hpp'
p346
(lp347
(S'MPI_Comm()'
p348
S'62'
p349
tp350
a(S'MPI_Comm()'
p351
S'73'
p352
tp353
asS'stan2js/cmdstan2js/cmdstan/stan/lib/stan_math/lib/boost_1.69.0/boost/graph/distributed/mpi_process_group.hpp'
p354
(lp355
(S'MPI_Bsend()'
p356
S'709'
p357
tp358
a(S'MPI_Isend()'
p359
S'715'
p360
tp361
a(S'MPI_Test()'
p362
S'721'
p363
tp364
a(S'MPI_Bsend()'
p365
S'745'
p366
tp367
a(S'MPI_Isend()'
p368
S'751'
p369
tp370
a(S'MPI_Test()'
p371
S'757'
p372
tp373
asS'stan2js/cmdstan2js/cmdstan/stan/lib/stan_math/lib/boost_1.69.0/boost/mpi/datatype.hpp'
p374
(lp375
(S'X_MPI_LONG_DOUBLE_INT()'
p376
S'254'
p377
tp378
a(S'MPI_Type_contiguous()'
p379
S'323'
p380
tp381
a(S'MPI_Type_commit()'
p382
S'324'
p383
tp384
asS'stan2js/cmdstan2machine_code/cmdstan/stan/lib/stan_math/lib/boost_1.69.0/boost/graph/distributed/page_rank.hpp'
p385
(lp386
(S'MPI_Comm_rank()'
p387
S'40'
p388
tp389
a(S'MPI_Accumulate()'
p390
S'53'
p391
tp392
a(S'MPI_Win_fence()'
p393
S'60'
p394
tp395
a(S'MPI_Comm_rank()'
p396
S'90'
p397
tp398
a(S'MPI_Win_create()'
p399
S'115'
p400
tp401
a(S'X_MPI_INFO_NULL()'
p402
S'118'
p403
tp404
a(S'MPI_Win_set_name()'
p405
S'119'
p406
tp407
a(S'MPI_Win_create()'
p408
S'120'
p409
tp410
a(S'X_MPI_INFO_NULL()'
p411
S'123'
p412
tp413
a(S'MPI_Win_set_name()'
p414
S'124'
p415
tp416
a(S'MPI_Win_fence()'
p417
S'129'
p418
tp419
a(S'MPI_Win_fence()'
p420
S'130'
p421
tp422
a(S'MPI_Win_free()'
p423
S'144'
p424
tp425
a(S'MPI_Win_free()'
p426
S'145'
p427
tp428
asS'stan2js/cmdstan2js/cmdstan/stan/lib/stan_math/lib/boost_1.69.0/libs/mpi/src/error_string.cpp'
p429
(lp430
(S'MPI_Error_string()'
p431
S'16'
p432
tp433
asS'stan2js/cmdstan2machine_code/cmdstan/stan/lib/stan_math/lib/boost_1.69.0/libs/mpi/src/point_to_point.cpp'
p434
(lp435
(S'X_MPI_PACKED()'
p436
S'39'
p437
tp438
a(S'X_MPI_PACKED()'
p439
S'56'
p440
tp441
a(S'X_MPI_PACKED()'
p442
S'76'
p443
tp444
asS'stan2js/cmdstan2machine_code/cmdstan/stan/lib/stan_math/lib/sundials_4.1.0/src/nvector/parallel/fnvector_parallel.c'
p445
(lp446
(S'X_MPI_Fint()'
p447
S'45'
p448
tp449
asS'stan2js/cmdstan2machine_code/cmdstan/stan/lib/stan_math/lib/boost_1.69.0/boost/mpi/communicator.hpp'
p450
(lp451
(S'MPI_Comm()'
p452
S'1514'
p453
tp454
a(S'MPI_Comm()'
p455
S'1768'
p456
tp457
a(S'MPI_Comm()'
p458
S'1791'
p459
tp460
a(S'MPI_Comm()'
p461
S'1827'
p462
tp463
a(S'MPI_Comm()'
p464
S'1850'
p465
tp466
a(S'MPI_Comm()'
p467
S'1886'
p468
tp469
a(S'MPI_Comm()'
p470
S'1907'
p471
tp472
asS'stan2js/cmdstan2machine_code/cmdstan/stan/lib/stan_math/lib/boost_1.69.0/boost/mpi/collectives/all_gather.hpp'
p473
(lp474
(S'MPI_Comm()'
p475
S'62'
p476
tp477
a(S'MPI_Comm()'
p478
S'73'
p479
tp480
asS'stan2js/cmdstan2machine_code/cmdstan/stan/lib/stan_math/lib/boost_1.69.0/libs/mpi/src/error_string.cpp'
p481
(lp482
(S'MPI_Error_string()'
p483
S'16'
p484
tp485
asS'stan2js/cmdstan2js/cmdstan/stan/lib/stan_math/lib/boost_1.69.0/boost/graph/distributed/page_rank.hpp'
p486
(lp487
(S'MPI_Comm_rank()'
p488
S'40'
p489
tp490
a(S'MPI_Accumulate()'
p491
S'53'
p492
tp493
a(S'MPI_Win_fence()'
p494
S'60'
p495
tp496
a(S'MPI_Comm_rank()'
p497
S'90'
p498
tp499
a(S'MPI_Win_create()'
p500
S'115'
p501
tp502
a(S'X_MPI_INFO_NULL()'
p503
S'118'
p504
tp505
a(S'MPI_Win_set_name()'
p506
S'119'
p507
tp508
a(S'MPI_Win_create()'
p509
S'120'
p510
tp511
a(S'X_MPI_INFO_NULL()'
p512
S'123'
p513
tp514
a(S'MPI_Win_set_name()'
p515
S'124'
p516
tp517
a(S'MPI_Win_fence()'
p518
S'129'
p519
tp520
a(S'MPI_Win_fence()'
p521
S'130'
p522
tp523
a(S'MPI_Win_free()'
p524
S'144'
p525
tp526
a(S'MPI_Win_free()'
p527
S'145'
p528
tp529
asS'stan2js/cmdstan2machine_code/cmdstan/stan/lib/stan_math/lib/sundials_4.1.0/src/nvector/parallel/nvector_parallel.c'
p530
(lp531
(S'MPI_Allreduce()'
p532
S'88'
p533
tp534
a(S'MPI_Comm_size()'
p535
S'480'
p536
tp537
asS'stan2js/cmdstan2js/cmdstan/stan/lib/stan_math/lib/boost_1.69.0/libs/mpi/src/environment.cpp'
p538
(lp539
(S'MPI_Comm_set_errhandler()'
p540
S'75'
p541
tp542
a(S'MPI_Errhandler_set()'
p543
S'77'
p544
tp545
a(S'MPI_Comm_set_errhandler()'
p546
S'94'
p547
tp548
a(S'MPI_Errhandler_set()'
p549
S'96'
p550
tp551
a(S'MPI_Comm_set_errhandler()'
p552
S'111'
p553
tp554
a(S'MPI_Errhandler_set()'
p555
S'113'
p556
tp557
a(S'MPI_Comm_set_errhandler()'
p558
S'131'
p559
tp560
a(S'MPI_Errhandler_set()'
p561
S'133'
p562
tp563
asS'stan2js/cmdstan2js/cmdstan/stan/lib/stan_math/lib/sundials_4.1.0/src/nvector/parallel/nvector_parallel.c'
p564
(lp565
(S'MPI_Allreduce()'
p566
S'88'
p567
tp568
a(S'MPI_Comm_size()'
p569
S'480'
p570
tp571
asS'stan2js/cmdstan2machine_code/cmdstan/stan/lib/stan_math/lib/boost_1.69.0/libs/mpi/src/environment.cpp'
p572
(lp573
(S'MPI_Comm_set_errhandler()'
p574
S'75'
p575
tp576
a(S'MPI_Errhandler_set()'
p577
S'77'
p578
tp579
a(S'MPI_Comm_set_errhandler()'
p580
S'94'
p581
tp582
a(S'MPI_Errhandler_set()'
p583
S'96'
p584
tp585
a(S'MPI_Comm_set_errhandler()'
p586
S'111'
p587
tp588
a(S'MPI_Errhandler_set()'
p589
S'113'
p590
tp591
a(S'MPI_Comm_set_errhandler()'
p592
S'131'
p593
tp594
a(S'MPI_Errhandler_set()'
p595
S'133'
p596
tp597
asS'stan2js/cmdstan2machine_code/cmdstan/stan/lib/stan_math/lib/boost_1.69.0/boost/mpi/collectives/broadcast.hpp'
p598
(lp599
(S'X_MPI_BYTE()'
p600
S'120'
p601
tp602
a(S'X_MPI_BYTE()'
p603
S'130'
p604
tp605
asS'stan2js/cmdstan2machine_code/cmdstan/stan/lib/stan_math/lib/boost_1.69.0/boost/graph/distributed/detail/mpi_process_group.ipp'
p606
(lp607
(S'MPI_Recv()'
p608
S'493'
p609
tp610
a(S'MPI_Get_count()'
p611
S'511'
p612
tp613
a(S'MPI_Recv()'
p614
S'517'
p615
tp616
a(S'MPI_Irecv()'
p617
S'666'
p618
tp619
a(S'X_MPI_PACKED()'
p620
S'667'
p621
tp622
a(S'MPI_Allgather()'
p623
S'838'
p624
tp625
a(S'MPI_Allgatherv()'
p626
S'857'
p627
tp628
a(S'X_MPI_BYTE()'
p629
S'860'
p630
tp631
a(S'MPI_Comm_group()'
p632
S'881'
p633
tp634
a(S'MPI_Group_incl()'
p635
S'885'
p636
tp637
a(S'MPI_Comm_create()'
p638
S'889'
p639
tp640
a(S'MPI_Group_free()'
p641
S'892'
p642
tp643
a(S'MPI_Group_free()'
p644
S'894'
p645
tp646
a(S'MPI_Comm_free()'
p647
S'899'
p648
tp649
a(S'MPI_Irecv()'
p650
S'930'
p651
tp652
a(S'MPI_Test()'
p653
S'935'
p654
tp655
a(S'MPI_Get_count()'
p656
S'968'
p657
tp658
a(S'MPI_Recv()'
p659
S'973'
p660
tp661
asS'stan2js/cmdstan2js/cmdstan/stan/lib/stan_math/lib/boost_1.69.0/boost/mpi/exception.hpp'
p662
(lp663
(S'MPI_Error_class()'
p664
S'74'
p665
tp666
asS'stan2js/cmdstan2machine_code/cmdstan/stan/lib/stan_math/lib/boost_1.69.0/boost/mpi/allocator.hpp'
p667
(lp668
(S'X_MPI_INFO_NULL()'
p669
S'141'
p670
tp671
as.