ccollections
defaultdict
p0
(c__builtin__
list
p1
tp2
Rp3
S'gromacs_localstress/include/thread_mpi/mpi_bindings.h'
p4
(lp5
(S'X_MPI_CHAR()'
p6
S'77'
p7
tp8
a(S'X_MPI_SHORT()'
p9
S'78'
p10
tp11
a(S'X_MPI_INT()'
p12
S'79'
p13
tp14
a(S'X_MPI_LONG()'
p15
S'80'
p16
tp17
a(S'X_MPI_LONG_LONG()'
p18
S'81'
p19
tp20
a(S'X_MPI_LONG_LONG_INT()'
p21
S'82'
p22
tp23
a(S'X_MPI_SIGNED_CHAR()'
p24
S'83'
p25
tp26
a(S'X_MPI_UNSIGNED_CHAR()'
p27
S'84'
p28
tp29
a(S'X_MPI_UNSIGNED_SHORT()'
p30
S'85'
p31
tp32
a(S'X_MPI_UNSIGNED()'
p33
S'86'
p34
tp35
a(S'X_MPI_UNSIGNED_LONG_LONG()'
p36
S'87'
p37
tp38
a(S'X_MPI_FLOAT()'
p39
S'88'
p40
tp41
a(S'X_MPI_DOUBLE()'
p42
S'89'
p43
tp44
a(S'X_MPI_LONG_DOUBLE()'
p45
S'90'
p46
tp47
a(S'X_MPI_WCHAR()'
p48
S'91'
p49
tp50
a(S'X_MPI_BYTE()'
p51
S'92'
p52
tp53
a(S'X_MPI_SUCCESS()'
p54
S'96'
p55
tp56
a(S'X_MPI_ERR_MALLOC()'
p57
S'97'
p58
tp59
a(S'X_MPI_ERR_INIT()'
p60
S'98'
p61
tp62
a(S'X_MPI_ERR_FINALIZE()'
p63
S'99'
p64
tp65
a(S'X_MPI_ERR_GROUP()'
p66
S'100'
p67
tp68
a(S'X_MPI_ERR_COMM()'
p69
S'101'
p70
tp71
a(S'X_MPI_ERR_STATUS()'
p72
S'102'
p73
tp74
a(S'X_MPI_ERR_GROUP_RANK()'
p75
S'103'
p76
tp77
a(S'X_MPI_ERR_DIMS()'
p78
S'104'
p79
tp80
a(S'X_MPI_ERR_COORDS()'
p81
S'105'
p82
tp83
a(S'X_MPI_ERR_CART_CREATE_NPROCS()'
p84
S'106'
p85
tp86
a(S'X_MPI_ERR_XFER_COUNTERPART()'
p87
S'107'
p88
tp89
a(S'X_MPI_ERR_XFER_BUFSIZE()'
p90
S'108'
p91
tp92
a(S'X_MPI_ERR_XFER_BUF_OVERLAP()'
p93
S'109'
p94
tp95
a(S'X_MPI_ERR_SEND_DEST()'
p96
S'110'
p97
tp98
a(S'X_MPI_ERR_RECV_SRC()'
p99
S'111'
p100
tp101
a(S'X_MPI_ERR_BUF()'
p102
S'112'
p103
tp104
a(S'X_MPI_ERR_MULTI_MISMATCH()'
p105
S'113'
p106
tp107
a(S'X_MPI_ERR_OP_FN()'
p108
S'114'
p109
tp110
a(S'X_MPI_ERR_ENVELOPES()'
p111
S'115'
p112
tp113
a(S'X_MPI_ERR_REQUESTS()'
p114
S'116'
p115
tp116
a(S'X_MPI_ERR_IN_STATUS()'
p117
S'117'
p118
tp119
a(S'X_MPI_FAILURE()'
p120
S'118'
p121
tp122
a(S'X_MPI_ERR_UNKNOWN()'
p123
S'119'
p124
tp125
a(S'X_MPI_MAX_ERROR_STRING()'
p126
S'122'
p127
tp128
a(S'X_MPI_UNDEFINED()'
p129
S'123'
p130
tp131
a(S'X_MPI_Errhandler_fn()'
p132
S'126'
p133
tp134
a(S'X_MPI_Errhandler()'
p135
S'127'
p136
tp137
a(S'X_MPI_ERRORS_ARE_FATAL()'
p138
S'128'
p139
tp140
a(S'X_MPI_ERRORS_RETURN()'
p141
S'129'
p142
tp143
a(S'X_MPI_ANY_SOURCE()'
p144
S'134'
p145
tp146
a(S'X_MPI_ANY_TAG()'
p147
S'135'
p148
tp149
a(S'X_MPI_IDENT()'
p150
S'138'
p151
tp152
a(S'X_MPI_CONGRUENT()'
p153
S'139'
p154
tp155
a(S'X_MPI_SIMILAR()'
p156
S'140'
p157
tp158
a(S'X_MPI_UNEQUAL()'
p159
S'141'
p160
tp161
a(S'X_MPI_CART()'
p162
S'145'
p163
tp164
a(S'X_MPI_GRAPH()'
p165
S'146'
p166
tp167
a(S'X_MPI_COMM_WORLD()'
p168
S'149'
p169
tp170
a(S'X_MPI_COMM_NULL()'
p171
S'150'
p172
tp173
a(S'X_MPI_GROUP_NULL()'
p174
S'153'
p175
tp176
a(S'X_MPI_GROUP_EMPTY()'
p177
S'154'
p178
tp179
a(S'X_MPI_MAX_PROCESSOR_NAME()'
p180
S'156'
p181
tp182
a(S'X_MPI_STATUS_IGNORE()'
p183
S'160'
p184
tp185
a(S'X_MPI_STATUSES_IGNORE()'
p186
S'161'
p187
tp188
a(S'X_MPI_SOURCE()'
p189
S'163'
p190
tp191
a(S'X_MPI_TAG()'
p192
S'164'
p193
tp194
a(S'X_MPI_ERROR()'
p195
S'165'
p196
tp197
a(S'X_MPI_REQUEST_NULL()'
p198
S'169'
p199
tp200
a(S'X_MPI_IN_PLACE()'
p201
S'171'
p202
tp203
a(S'X_MPI_MAX()'
p204
S'175'
p205
tp206
a(S'X_MPI_MIN()'
p207
S'176'
p208
tp209
a(S'X_MPI_SUM()'
p210
S'177'
p211
tp212
a(S'X_MPI_PROD()'
p213
S'178'
p214
tp215
a(S'X_MPI_LAND()'
p216
S'179'
p217
tp218
a(S'X_MPI_BAND()'
p219
S'180'
p220
tp221
a(S'X_MPI_LOR()'
p222
S'181'
p223
tp224
a(S'X_MPI_BOR()'
p225
S'182'
p226
tp227
a(S'X_MPI_LXOR()'
p228
S'183'
p229
tp230
a(S'X_MPI_BXOR()'
p231
S'184'
p232
tp233
a(S'X_MPI_Init()'
p234
S'187'
p235
tp236
a(S'X_MPI_Finalize()'
p237
S'188'
p238
tp239
a(S'X_MPI_Abort()'
p240
S'189'
p241
tp242
a(S'X_MPI_Initialized()'
p243
S'190'
p244
tp245
a(S'X_MPI_Finalized()'
p246
S'191'
p247
tp248
a(S'X_MPI_Create_errhandler()'
p249
S'193'
p250
tp251
a(S'X_MPI_Errhandler_free()'
p252
S'194'
p253
tp254
a(S'X_MPI_Comm_set_errhandler()'
p255
S'195'
p256
tp257
a(S'X_MPI_Comm_get_errhandler()'
p258
S'196'
p259
tp260
a(S'X_MPI_Error_string()'
p261
S'197'
p262
tp263
a(S'X_MPI_Get_processor_name()'
p264
S'199'
p265
tp266
a(S'X_MPI_Wtime()'
p267
S'200'
p268
tp269
a(S'X_MPI_Group_size()'
p270
S'202'
p271
tp272
a(S'X_MPI_Group_rank()'
p273
S'203'
p274
tp275
a(S'X_MPI_Group_incl()'
p276
S'204'
p277
tp278
a(S'X_MPI_Comm_group()'
p279
S'205'
p280
tp281
a(S'X_MPI_Group_free()'
p282
S'206'
p283
tp284
a(S'X_MPI_Comm_size()'
p285
S'208'
p286
tp287
a(S'X_MPI_Comm_rank()'
p288
S'209'
p289
tp290
a(S'X_MPI_Comm_compare()'
p291
S'210'
p292
tp293
a(S'X_MPI_Comm_free()'
p294
S'211'
p295
tp296
a(S'X_MPI_Comm_create()'
p297
S'212'
p298
tp299
a(S'X_MPI_Comm_split()'
p300
S'213'
p301
tp302
a(S'X_MPI_Comm_dup()'
p303
S'214'
p304
tp305
a(S'X_MPI_Topo_test()'
p306
S'216'
p307
tp308
a(S'X_MPI_Cartdim_get()'
p309
S'217'
p310
tp311
a(S'X_MPI_Cart_get()'
p312
S'218'
p313
tp314
a(S'X_MPI_Cart_rank()'
p315
S'219'
p316
tp317
a(S'X_MPI_Cart_coords()'
p318
S'220'
p319
tp320
a(S'X_MPI_Cart_map()'
p321
S'221'
p322
tp323
a(S'X_MPI_Cart_create()'
p324
S'222'
p325
tp326
a(S'X_MPI_Cart_sub()'
p327
S'223'
p328
tp329
a(S'X_MPI_Type_contiguous()'
p330
S'225'
p331
tp332
a(S'X_MPI_Type_commit()'
p333
S'226'
p334
tp335
a(S'X_MPI_Send()'
p336
S'228'
p337
tp338
a(S'X_MPI_Recv()'
p339
S'229'
p340
tp341
a(S'X_MPI_Sendrecv()'
p342
S'230'
p343
tp344
a(S'X_MPI_Get_count()'
p345
S'231'
p346
tp347
a(S'X_MPI_Isend()'
p348
S'233'
p349
tp350
a(S'X_MPI_Irecv()'
p351
S'234'
p352
tp353
a(S'X_MPI_Test()'
p354
S'235'
p355
tp356
a(S'X_MPI_Wait()'
p357
S'236'
p358
tp359
a(S'X_MPI_Waitall()'
p360
S'237'
p361
tp362
a(S'X_MPI_Barrier()'
p363
S'239'
p364
tp365
a(S'X_MPI_Bcast()'
p366
S'241'
p367
tp368
a(S'X_MPI_Gather()'
p369
S'243'
p370
tp371
a(S'X_MPI_Gatherv()'
p372
S'244'
p373
tp374
a(S'X_MPI_Scatter()'
p375
S'245'
p376
tp377
a(S'X_MPI_Scatterv()'
p378
S'246'
p379
tp380
a(S'X_MPI_Alltoall()'
p381
S'247'
p382
tp383
a(S'X_MPI_Alltoallv()'
p384
S'248'
p385
tp386
a(S'X_MPI_Reduce()'
p387
S'251'
p388
tp389
a(S'X_MPI_Allreduce()'
p390
S'252'
p391
tp392
asS'gromacs_localstress/src/mdlib/domdec.c'
p393
(lp394
(S'MPI_Cart_rank()'
p395
S'443'
p396
tp397
a(S'MPI_Send()'
p398
S'1327'
p399
tp400
a(S'MPI_Recv()'
p401
S'1354'
p402
tp403
a(S'MPI_Send()'
p404
S'1637'
p405
tp406
a(S'MPI_Recv()'
p407
S'1656'
p408
tp409
a(S'X_MPI_ANY_TAG()'
p410
S'1657'
p411
tp412
a(S'MPI_Cart_rank()'
p413
S'2114'
p414
tp415
a(S'MPI_Cart_coords()'
p416
S'2155'
p417
tp418
a(S'MPI_Cart_rank()'
p419
S'2160'
p420
tp421
a(S'MPI_Cart_coords()'
p422
S'2286'
p423
tp424
a(S'MPI_Cart_rank()'
p425
S'2290'
p426
tp427
a(S'MPI_Bcast()'
p428
S'3373'
p429
tp430
a(S'MPI_Gather()'
p431
S'4923'
p432
tp433
a(S'MPI_Group_incl()'
p434
S'5224'
p435
tp436
a(S'MPI_Comm_create()'
p437
S'5225'
p438
tp439
a(S'MPI_Comm_group()'
p440
S'5274'
p441
tp442
a(S'MPI_Group_free()'
p443
S'5300'
p444
tp445
a(S'MPI_Cart_create()'
p446
S'5497'
p447
tp448
a(S'MPI_Comm_rank()'
p449
S'5504'
p450
tp451
a(S'MPI_Allreduce()'
p452
S'5525'
p453
tp454
a(S'MPI_Cart_coords()'
p455
S'5538'
p456
tp457
a(S'MPI_Allreduce()'
p458
S'5550'
p459
tp460
a(S'MPI_Cart_rank()'
p461
S'5562'
p462
tp463
a(S'MPI_Allreduce()'
p464
S'5616'
p465
tp466
a(S'MPI_Cart_create()'
p467
S'5719'
p468
tp469
a(S'MPI_Comm_rank()'
p470
S'5722'
p471
tp472
a(S'MPI_Cart_coords()'
p473
S'5734'
p474
tp475
a(S'MPI_Comm_split()'
p476
S'5753'
p477
tp478
a(S'MPI_Comm_split()'
p479
S'5796'
p480
tp481
a(S'MPI_Comm_rank()'
p482
S'5800'
p483
tp484
asS'gromacs_localstress/src/gmxlib/gmx_fatal.c'
p485
(lp486
(S'MPI_Comm_compare()'
p487
S'462'
p488
tp489
a(S'MPI_Comm_compare()'
p490
S'466'
p491
tp492
a(S'MPI_Bcast()'
p493
S'513'
p494
tp495
a(S'MPI_Finalize()'
p496
S'517'
p497
tp498
a(S'MPI_Barrier()'
p499
S'524'
p500
tp501
asS'gromacs_localstress//configure.ac'
p502
(lp503
(S'MPI_Allreduce()'
p504
S'334'
p505
tp506
asS'gromacs_localstress/src/mdlib/domdec_network.c'
p507
(lp508
(S'MPI_Sendrecv()'
p509
S'51'
p510
tp511
a(S'MPI_Send()'
p512
S'57'
p513
tp514
a(S'MPI_Recv()'
p515
S'62'
p516
tp517
a(S'MPI_Sendrecv()'
p518
S'83'
p519
tp520
a(S'MPI_Send()'
p521
S'89'
p522
tp523
a(S'MPI_Recv()'
p524
S'94'
p525
tp526
a(S'MPI_Sendrecv()'
p527
S'115'
p528
tp529
a(S'MPI_Send()'
p530
S'121'
p531
tp532
a(S'MPI_Recv()'
p533
S'125'
p534
tp535
a(S'MPI_Irecv()'
p536
S'160'
p537
tp538
a(S'MPI_Irecv()'
p539
S'165'
p540
tp541
a(S'MPI_Isend()'
p542
S'170'
p543
tp544
a(S'MPI_Isend()'
p545
S'175'
p546
tp547
a(S'MPI_Waitall()'
p548
S'180'
p549
tp550
a(S'MPI_Sendrecv()'
p551
S'190'
p552
tp553
a(S'MPI_Sendrecv()'
p554
S'194'
p555
tp556
a(S'MPI_Bcast()'
p557
S'214'
p558
tp559
a(S'MPI_Bcast()'
p560
S'233'
p561
tp562
a(S'MPI_Scatter()'
p563
S'244'
p564
tp565
a(S'MPI_Gather()'
p566
S'253'
p567
tp568
a(S'MPI_Scatterv()'
p569
S'271'
p570
tp571
a(S'MPI_Gatherv()'
p572
S'289'
p573
tp574
asS'gromacs_localstress/src/mdlib/minimize.c'
p575
(lp576
(S'MPI_Send()'
p577
S'2475'
p578
tp579
a(S'MPI_Recv()'
p580
S'2487'
p581
tp582
asS'gromacs_localstress/src/gmxlib/network.c'
p583
(lp584
(S'MPI_Initialized()'
p585
S'68'
p586
tp587
a(S'MPI_Comm_size()'
p588
S'282'
p589
tp590
a(S'MPI_Comm_rank()'
p591
S'283'
p592
tp593
a(S'MPI_Get_processor_name()'
p594
S'284'
p595
tp596
a(S'MPI_Comm_split()'
p597
S'314'
p598
tp599
a(S'MPI_Comm_rank()'
p600
S'315'
p601
tp602
a(S'MPI_Comm_split()'
p603
S'324'
p604
tp605
a(S'MPI_Comm_size()'
p606
S'326'
p607
tp608
a(S'MPI_Comm_size()'
p609
S'327'
p610
tp611
a(S'MPI_Comm_free()'
p612
S'337'
p613
tp614
a(S'MPI_Comm_free()'
p615
S'340'
p616
tp617
a(S'MPI_Comm_free()'
p618
S'341'
p619
tp620
a(S'MPI_Barrier()'
p621
S'353'
p622
tp623
a(S'MPI_Abort()'
p624
S'378'
p625
tp626
a(S'MPI_Bcast()'
p627
S'389'
p628
tp629
a(S'MPI_Bcast()'
p630
S'398'
p631
tp632
a(S'MPI_Reduce()'
p633
S'412'
p634
tp635
a(S'MPI_Allreduce()'
p636
S'415'
p637
tp638
a(S'MPI_Reduce()'
p639
S'422'
p640
tp641
a(S'MPI_Bcast()'
p642
S'424'
p643
tp644
a(S'MPI_Allreduce()'
p645
S'428'
p646
tp647
a(S'MPI_Allreduce()'
p648
S'440'
p649
tp650
a(S'MPI_Allreduce()'
p651
S'443'
p652
tp653
a(S'MPI_Bcast()'
p654
S'446'
p655
tp656
a(S'MPI_Allreduce()'
p657
S'448'
p658
tp659
a(S'MPI_Reduce()'
p660
S'467'
p661
tp662
a(S'MPI_Allreduce()'
p663
S'470'
p664
tp665
a(S'MPI_Reduce()'
p666
S'477'
p667
tp668
a(S'MPI_Bcast()'
p669
S'479'
p670
tp671
a(S'MPI_Allreduce()'
p672
S'483'
p673
tp674
a(S'MPI_Allreduce()'
p675
S'494'
p676
tp677
a(S'MPI_Allreduce()'
p678
S'497'
p679
tp680
a(S'MPI_Bcast()'
p681
S'500'
p682
tp683
a(S'MPI_Allreduce()'
p684
S'502'
p685
tp686
a(S'MPI_Reduce()'
p687
S'521'
p688
tp689
a(S'MPI_Allreduce()'
p690
S'523'
p691
tp692
a(S'MPI_Reduce()'
p693
S'529'
p694
tp695
a(S'MPI_Bcast()'
p696
S'531'
p697
tp698
a(S'MPI_Allreduce()'
p699
S'535'
p700
tp701
a(S'MPI_Allreduce()'
p702
S'546'
p703
tp704
a(S'MPI_Allreduce()'
p705
S'549'
p706
tp707
a(S'MPI_Bcast()'
p708
S'551'
p709
tp710
a(S'MPI_Allreduce()'
p711
S'553'
p712
tp713
a(S'MPI_Reduce()'
p714
S'571'
p715
tp716
a(S'MPI_Allreduce()'
p717
S'574'
p718
tp719
a(S'MPI_Reduce()'
p720
S'581'
p721
tp722
a(S'MPI_Bcast()'
p723
S'583'
p724
tp725
a(S'MPI_Allreduce()'
p726
S'587'
p727
tp728
a(S'MPI_Allreduce()'
p729
S'598'
p730
tp731
a(S'MPI_Allreduce()'
p732
S'602'
p733
tp734
a(S'MPI_Bcast()'
p735
S'605'
p736
tp737
a(S'MPI_Allreduce()'
p738
S'607'
p739
tp740
a(S'MPI_Allreduce()'
p741
S'622'
p742
tp743
a(S'MPI_Allreduce()'
p744
S'631'
p745
tp746
a(S'MPI_Allreduce()'
p747
S'643'
p748
tp749
a(S'MPI_Allreduce()'
p750
S'652'
p751
tp752
a(S'MPI_Allreduce()'
p753
S'684'
p754
tp755
a(S'MPI_Allreduce()'
p756
S'693'
p757
tp758
a(S'MPI_Allreduce()'
p759
S'706'
p760
tp761
a(S'MPI_Allreduce()'
p762
S'716'
p763
tp764
a(S'MPI_Finalized()'
p765
S'734'
p766
tp767
a(S'MPI_Barrier()'
p768
S'742'
p769
tp770
a(S'MPI_Comm_free()'
p771
S'747'
p772
tp773
a(S'MPI_Comm_free()'
p774
S'749'
p775
tp776
a(S'MPI_Finalize()'
p777
S'759'
p778
tp779
asS'gromacs_localstress/src/gmxlib/smalloc.c'
p780
(lp781
(S'MPI_Comm_rank()'
p782
S'152'
p783
tp784
a(S'MPI_Comm_rank()'
p785
S'202'
p786
tp787
asS'gromacs_localstress//configure.old'
p788
(lp789
(S'MPI_Allreduce()'
p790
S'5479'
p791
tp792
asS'gromacs_localstress/src/kernel/do_gct.c'
p793
(lp794
(S'MPI_Allreduce()'
p795
S'356'
p796
tp797
a(S'MPI_Allreduce()'
p798
S'358'
p799
tp800
asS'gromacs_localstress/src/mdlib/partdec.c'
p801
(lp802
(S'MPI_Test()'
p803
S'112'
p804
tp805
a(S'MPI_Sendrecv()'
p806
S'192'
p807
tp808
a(S'MPI_Send()'
p809
S'196'
p810
tp811
a(S'MPI_Recv()'
p812
S'199'
p813
tp814
a(S'MPI_Sendrecv()'
p815
S'222'
p816
tp817
a(S'MPI_Scatter()'
p818
S'928'
p819
tp820
a(S'MPI_Scatter()'
p821
S'940'
p822
tp823
asS'gromacs_localstress/src/tools/gmx_pme_error.c'
p824
(lp825
(S'MPI_Barrier()'
p826
S'501'
p827
tp828
a(S'MPI_Wtime()'
p829
S'508'
p830
tp831
a(S'MPI_Barrier()'
p832
S'1083'
p833
tp834
asS'gromacs_localstress/src/mdlib/pme_pp.c'
p835
(lp836
(S'MPI_Comm_rank()'
p837
S'122'
p838
tp839
a(S'MPI_Waitall()'
p840
S'141'
p841
tp842
a(S'MPI_Isend()'
p843
S'187'
p844
tp845
a(S'MPI_Isend()'
p846
S'194'
p847
tp848
a(S'MPI_Isend()'
p849
S'203'
p850
tp851
a(S'MPI_Isend()'
p852
S'208'
p853
tp854
a(S'MPI_Isend()'
p855
S'213'
p856
tp857
a(S'MPI_Recv()'
p858
S'287'
p859
tp860
a(S'MPI_Irecv()'
p861
S'303'
p862
tp863
a(S'X_MPI_BYTE()'
p864
S'304'
p865
tp866
a(S'MPI_Waitall()'
p867
S'309'
p868
tp869
a(S'MPI_Irecv()'
p870
S'338'
p871
tp872
a(S'X_MPI_BYTE()'
p873
S'340'
p874
tp875
a(S'MPI_Irecv()'
p876
S'376'
p877
tp878
a(S'X_MPI_BYTE()'
p879
S'377'
p880
tp881
a(S'MPI_Waitall()'
p882
S'390'
p883
tp884
a(S'MPI_Recv()'
p885
S'418'
p886
tp887
a(S'MPI_Recv()'
p888
S'460'
p889
tp890
a(S'MPI_Isend()'
p891
S'510'
p892
tp893
a(S'MPI_Waitall()'
p894
S'515'
p895
tp896
asS'gromacs_localstress/src/kernel/repl_ex.c'
p897
(lp898
(S'MPI_Sendrecv()'
p899
S'333'
p900
tp901
a(S'MPI_Isend()'
p902
S'340'
p903
tp904
a(S'MPI_Recv()'
p905
S'342'
p906
tp907
a(S'MPI_Wait()'
p908
S'344'
p909
tp910
a(S'MPI_Sendrecv()'
p911
S'365'
p912
tp913
a(S'MPI_Isend()'
p914
S'372'
p915
tp916
a(S'MPI_Recv()'
p917
S'374'
p918
tp919
a(S'MPI_Wait()'
p920
S'376'
p921
tp922
a(S'MPI_Sendrecv()'
p923
S'397'
p924
tp925
a(S'MPI_Isend()'
p926
S'404'
p927
tp928
a(S'MPI_Recv()'
p929
S'406'
p930
tp931
a(S'MPI_Wait()'
p932
S'408'
p933
tp934
a(S'MPI_Bcast()'
p935
S'740'
p936
tp937
asS'gromacs_localstress/src/mdlib/gmx_wallcycle.c'
p938
(lp939
(S'MPI_Barrier()'
p940
S'175'
p941
tp942
a(S'MPI_Barrier()'
p943
S'207'
p944
tp945
a(S'MPI_Allreduce()'
p946
S'298'
p947
tp948
a(S'MPI_Allreduce()'
p949
S'304'
p950
tp951
a(S'MPI_Allreduce()'
p952
S'319'
p953
tp954
asS'gromacs_localstress/src/gmxlib/main.c'
p955
(lp956
(S'MPI_Comm_group()'
p957
S'442'
p958
tp959
a(S'MPI_Group_incl()'
p960
S'443'
p961
tp962
a(S'MPI_Comm_create()'
p963
S'445'
p964
tp965
a(S'MPI_Comm_split()'
p966
S'467'
p967
tp968
a(S'MPI_Initialized()'
p969
S'603'
p970
tp971
asS'gromacs_localstress/src/mdlib/genborn.c'
p972
(lp973
(S'MPI_Gatherv()'
p974
S'178'
p975
tp976
a(S'MPI_Bcast()'
p977
S'180'
p978
tp979
asS'gromacs_localstress/src/mdlib/fft5d.c'
p980
(lp981
(S'MPI_Comm_size()'
p982
S'196'
p983
tp984
a(S'MPI_Comm_rank()'
p985
S'197'
p986
tp987
a(S'MPI_Comm_size()'
p988
S'208'
p989
tp990
a(S'MPI_Comm_rank()'
p991
S'209'
p992
tp993
a(S'MPI_Alltoall()'
p994
S'892'
p995
tp996
a(S'MPI_Alltoall()'
p997
S'894'
p998
tp999
a(S'MPI_Comm_size()'
p1000
S'1006'
p1001
tp1002
a(S'MPI_Comm_rank()'
p1003
S'1007'
p1004
tp1005
a(S'MPI_Cart_create()'
p1006
S'1020'
p1007
tp1008
a(S'MPI_Cart_get()'
p1009
S'1021'
p1010
tp1011
a(S'MPI_Cart_sub()'
p1012
S'1022'
p1013
tp1014
a(S'MPI_Cart_sub()'
p1015
S'1023'
p1016
tp1017
asS'gromacs_localstress/cmake/gmxTestMPI_IN_PLACE.cmake'
p1018
(lp1019
(S'MPI_Allreduce()'
p1020
S'18'
p1021
tp1022
asS'gromacs_localstress/cmake/TestMPI.c'
p1023
(lp1024
(S'MPI_Init()'
p1025
S'5'
p1026
tp1027
asS'gromacs_localstress/src/mdlib/sim_util.c'
p1028
(lp1029
(S'MPI_Reduce()'
p1030
S'1380'
p1031
tp1032
a(S'MPI_Recv()'
p1033
S'1411'
p1034
tp1035
a(S'MPI_Send()'
p1036
S'1419'
p1037
tp1038
asS'gromacs_localstress/src/mdlib/pme.c'
p1039
(lp1040
(S'MPI_Alltoall()'
p1041
S'424'
p1042
tp1043
a(S'MPI_Alltoallv()'
p1044
S'449'
p1045
tp1046
a(S'MPI_Alltoallv()'
p1047
S'461'
p1048
tp1049
a(S'MPI_Alltoallv()'
p1050
S'466'
p1051
tp1052
a(S'MPI_Sendrecv()'
p1053
S'502'
p1054
tp1055
a(S'MPI_Send()'
p1056
S'508'
p1057
tp1058
a(S'MPI_Recv()'
p1059
S'512'
p1060
tp1061
a(S'MPI_Sendrecv()'
p1062
S'741'
p1063
tp1064
a(S'MPI_Sendrecv()'
p1065
S'826'
p1066
tp1067
a(S'MPI_Comm_size()'
p1068
S'1817'
p1069
tp1070
a(S'MPI_Comm_rank()'
p1071
S'1818'
p1072
tp1073
a(S'MPI_Comm_rank()'
p1074
S'2064'
p1075
tp1076
a(S'MPI_Comm_size()'
p1077
S'2065'
p1078
tp1079
a(S'MPI_Comm_split()'
p1080
S'2111'
p1081
tp1082
a(S'MPI_Comm_split()'
p1083
S'2113'
p1084
tp1085
a(S'MPI_Comm_rank()'
p1086
S'2116'
p1087
tp1088
a(S'MPI_Comm_size()'
p1089
S'2117'
p1090
tp1091
a(S'MPI_Comm_rank()'
p1092
S'2118'
p1093
tp1094
a(S'MPI_Comm_size()'
p1095
S'2119'
p1096
tp1097
a(S'MPI_Type_contiguous()'
p1098
S'2167'
p1099
tp1100
a(S'MPI_Type_commit()'
p1101
S'2168'
p1102
tp1103
asS'gromacs_localstress/src/tools/eigensolver.c'
p1104
(lp1105
(S'MPI_Comm_size()'
p1106
S'166'
p1107
tp1108
a(S'MPI_Comm_rank()'
p1109
S'167'
p1110
tp1111
a(S'MPI_Comm_size()'
p1112
S'276'
p1113
tp1114
asS'gromacs_localstress/src/mdlib/stat.c'
p1115
(lp1116
(S'MPI_Gather()'
p1117
S'619'
p1118
tp1119
a(S'MPI_Gather()'
p1120
S'629'
p1121
tp1122
asS'gromacs_localstress/src/mdlib/force.c'
p1123
(lp1124
(S'MPI_Barrier()'
p1125
S'196'
p1126
tp1127
a(S'MPI_Barrier()'
p1128
S'565'
p1129
tp1130
asS'gromacs_localstress/src/gmxlib/disre.c'
p1131
(lp1132
(S'MPI_Comm_split()'
p1133
S'200'
p1134
tp1135
as.