ccollections
defaultdict
p0
(c__builtin__
list
p1
tp2
Rp3
S'qmc/src/OOMPI/Packed.cc'
p4
(lp5
(S'MPI_Pack()'
p6
S'201'
p7
tp8
a(S'MPI_Pack()'
p9
S'209'
p10
tp11
a(S'MPI_Pack()'
p12
S'219'
p13
tp14
a(S'MPI_Unpack()'
p15
S'227'
p16
tp17
a(S'MPI_Unpack()'
p18
S'235'
p19
tp20
a(S'MPI_Unpack()'
p21
S'245'
p22
tp23
asS'qmc/src/OOMPI/Error_table.cc'
p24
(lp25
(S'MPI_Error_string()'
p26
S'50'
p27
tp28
a(S'MPI_Abort()'
p29
S'66'
p30
tp31
a(S'MPI_Comm_rank()'
p32
S'78'
p33
tp34
a(S'MPI_Comm_size()'
p35
S'79'
p36
tp37
a(S'MPI_Comm_compare()'
p38
S'162'
p39
tp40
a(S'MPI_Comm_compare()'
p41
S'208'
p42
tp43
a(S'MPI_Comm_compare()'
p44
S'266'
p45
tp46
asS'qmc/src/Message/ReplicaControl.cpp'
p47
(lp48
(S'MPI_Comm_size()'
p49
S'32'
p50
tp51
a(S'MPI_Comm_rank()'
p52
S'33'
p53
tp54
a(S'MPI_Comm_size()'
p55
S'42'
p56
tp57
a(S'MPI_Comm_rank()'
p58
S'43'
p59
tp60
a(S'MPI_Bcast()'
p61
S'72'
p62
tp63
a(S'MPI_Isend()'
p64
S'82'
p65
tp66
a(S'X_MPI_COMM_WORLD()'
p67
S'83'
p68
tp69
a(S'MPI_Irecv()'
p70
S'96'
p71
tp72
a(S'MPI_Test()'
p73
S'100'
p74
tp75
a(S'MPI_Bcast()'
p76
S'110'
p77
tp78
a(S'MPI_Isend()'
p79
S'122'
p80
tp81
a(S'X_MPI_COMM_WORLD()'
p82
S'123'
p83
tp84
a(S'MPI_Isend()'
p85
S'127'
p86
tp87
a(S'X_MPI_COMM_WORLD()'
p88
S'128'
p89
tp90
a(S'MPI_Test()'
p91
S'133'
p92
tp93
a(S'MPI_Irecv()'
p94
S'143'
p95
tp96
a(S'X_MPI_COMM_WORLD()'
p97
S'144'
p98
tp99
a(S'MPI_Test()'
p100
S'148'
p101
tp102
a(S'MPI_Isend()'
p103
S'158'
p104
tp105
a(S'MPI_Irecv()'
p106
S'172'
p107
tp108
a(S'MPI_Test()'
p109
S'176'
p110
tp111
a(S'MPI_Bcast()'
p112
S'187'
p113
tp114
a(S'MPI_Recv()'
p115
S'194'
p116
tp117
a(S'MPI_Isend()'
p118
S'218'
p119
tp120
a(S'MPI_Irecv()'
p121
S'231'
p122
tp123
a(S'MPI_Test()'
p124
S'236'
p125
tp126
asS'qmc/src/OOMPI/Port.cc'
p127
(lp128
(S'MPI_Intercomm_create()'
p129
S'95'
p130
tp131
a(S'MPI_Intercomm_create()'
p132
S'108'
p133
tp134
asS'qmc/src/Message/CommOperatorsMPI.h'
p135
(lp136
(S'MPI_Allreduce()'
p137
S'123'
p138
tp139
a(S'MPI_Allreduce()'
p140
S'132'
p141
tp142
a(S'MPI_Allreduce()'
p143
S'140'
p144
tp145
a(S'MPI_Allreduce()'
p146
S'148'
p147
tp148
a(S'MPI_Allreduce()'
p149
S'157'
p150
tp151
a(S'MPI_Allreduce()'
p152
S'165'
p153
tp154
a(S'MPI_Allreduce()'
p155
S'176'
p156
tp157
a(S'MPI_Allreduce()'
p158
S'187'
p159
tp160
a(S'MPI_Allreduce()'
p161
S'197'
p162
tp163
a(S'MPI_Allreduce()'
p164
S'208'
p165
tp166
a(S'MPI_Allreduce()'
p167
S'218'
p168
tp169
a(S'MPI_Allreduce()'
p170
S'229'
p171
tp172
a(S'MPI_Allreduce()'
p173
S'240'
p174
tp175
a(S'MPI_Allreduce()'
p176
S'251'
p177
tp178
a(S'MPI_Allreduce()'
p179
S'260'
p180
tp181
a(S'MPI_Allreduce()'
p182
S'270'
p183
tp184
a(S'MPI_Reduce()'
p185
S'280'
p186
tp187
a(S'MPI_Allreduce()'
p188
S'291'
p189
tp190
a(S'MPI_Reduce()'
p191
S'300'
p192
tp193
a(S'MPI_Reduce()'
p194
S'307'
p195
tp196
a(S'MPI_Bcast()'
p197
S'314'
p198
tp199
a(S'MPI_Bcast()'
p200
S'321'
p201
tp202
a(S'MPI_Bcast()'
p203
S'329'
p204
tp205
a(S'MPI_Bcast()'
p206
S'336'
p207
tp208
a(S'MPI_Bcast()'
p209
S'345'
p210
tp211
a(S'MPI_Bcast()'
p212
S'353'
p213
tp214
a(S'MPI_Bcast()'
p215
S'360'
p216
tp217
a(S'MPI_Bcast()'
p218
S'367'
p219
tp220
a(S'MPI_Bcast()'
p221
S'374'
p222
tp223
a(S'MPI_Bcast()'
p224
S'381'
p225
tp226
a(S'MPI_Bcast()'
p227
S'388'
p228
tp229
a(S'MPI_Bcast()'
p230
S'395'
p231
tp232
a(S'MPI_Bcast()'
p233
S'402'
p234
tp235
a(S'MPI_Bcast()'
p236
S'409'
p237
tp238
a(S'MPI_Bcast()'
p239
S'416'
p240
tp241
a(S'MPI_Bcast()'
p242
S'423'
p243
tp244
a(S'MPI_Bcast()'
p245
S'431'
p246
tp247
a(S'MPI_Bcast()'
p248
S'438'
p249
tp250
a(S'MPI_Bcast()'
p251
S'445'
p252
tp253
a(S'MPI_Bcast()'
p254
S'452'
p255
tp256
a(S'MPI_Bcast()'
p257
S'459'
p258
tp259
a(S'MPI_Bcast()'
p260
S'467'
p261
tp262
a(S'MPI_Bcast()'
p263
S'475'
p264
tp265
a(S'MPI_Bcast()'
p266
S'482'
p267
tp268
a(S'MPI_Bcast()'
p269
S'490'
p270
tp271
a(S'MPI_Bcast()'
p272
S'497'
p273
tp274
a(S'MPI_Bcast()'
p275
S'504'
p276
tp277
a(S'MPI_Bcast()'
p278
S'512'
p279
tp280
a(S'MPI_Bcast()'
p281
S'519'
p282
tp283
a(S'MPI_Bcast()'
p284
S'526'
p285
tp286
a(S'MPI_Bcast()'
p287
S'534'
p288
tp289
a(S'MPI_Bcast()'
p290
S'544'
p291
tp292
a(S'MPI_Bcast()'
p293
S'553'
p294
tp295
a(S'MPI_Bcast()'
p296
S'560'
p297
tp298
a(S'MPI_Bcast()'
p299
S'567'
p300
tp301
a(S'MPI_Bcast()'
p302
S'574'
p303
tp304
a(S'MPI_Send()'
p305
S'580'
p306
tp307
a(S'MPI_Isend()'
p308
S'587'
p309
tp310
a(S'MPI_Irecv()'
p311
S'595'
p312
tp313
a(S'MPI_Gatherv()'
p314
S'609'
p315
tp316
a(S'MPI_Gatherv()'
p317
S'623'
p318
tp319
a(S'MPI_Gatherv()'
p320
S'637'
p321
tp322
a(S'MPI_Allgather()'
p323
S'651'
p324
tp325
a(S'MPI_Allgatherv()'
p326
S'665'
p327
tp328
a(S'MPI_Gatherv()'
p329
S'679'
p330
tp331
a(S'MPI_Gather()'
p332
S'692'
p333
tp334
a(S'MPI_Gatherv()'
p335
S'706'
p336
tp337
a(S'MPI_Gather()'
p338
S'720'
p339
tp340
asS'qmc/src/OOMPI/Error.h'
p341
(lp342
(S'MPI_Error_class()'
p343
S'71'
p344
tp345
a(S'MPI_Error_string()'
p346
S'78'
p347
tp348
a(S'MPI_Error_string()'
p349
S'83'
p350
tp351
asS'qmc/src/OOMPI/Linked_list.cc'
p352
(lp353
(S'MPI_Type_free()'
p354
S'74'
p355
tp356
asS'qmc/src/OOMPI/Group.cc'
p357
(lp358
(S'MPI_Group_free()'
p359
S'41'
p360
tp361
a(S'MPI_Group_translate_ranks()'
p362
S'127'
p363
tp364
asS'qmc/src/OOMPI/Comm.cc'
p365
(lp366
(S'MPI_Comm_free()'
p367
S'44'
p368
tp369
a(S'MPI_Comm_compare()'
p370
S'140'
p371
tp372
a(S'MPI_Initialized()'
p373
S'238'
p374
tp375
a(S'MPI_Abort()'
p376
S'246'
p377
tp378
a(S'MPI_Errhandler_create()'
p379
S'489'
p380
tp381
a(S'MPI_Errhandler_set()'
p382
S'491'
p383
tp384
a(S'MPI_Errhandler_free()'
p385
S'492'
p386
tp387
asS'qmc/src/OOMPI/Datatype.cc'
p388
(lp389
(S'MPI_Type_free()'
p390
S'53'
p391
tp392
a(S'MPI_Address()'
p393
S'445'
p394
tp395
a(S'MPI_Address()'
p396
S'456'
p397
tp398
a(S'MPI_Address()'
p399
S'468'
p400
tp401
a(S'MPI_Address()'
p402
S'480'
p403
tp404
a(S'MPI_Address()'
p405
S'505'
p406
tp407
a(S'MPI_Type_free()'
p408
S'563'
p409
tp410
asS'qmc/src/ADIOS/ADIOS_profile.cpp'
p411
(lp412
(S'MPI_Wtime()'
p413
S'44'
p414
tp415
a(S'MPI_Barrier()'
p416
S'52'
p417
tp418
a(S'MPI_Barrier()'
p419
S'74'
p420
tp421
asS'qmc/src/QMCWaveFunctions/DistributedSPOSet.cpp'
p422
(lp423
(S'MPI_Isend()'
p424
S'109'
p425
tp426
a(S'MPI_Irecv()'
p427
S'110'
p428
tp429
a(S'MPI_recv()'
p430
S'123'
p431
tp432
a(S'MPI_Irsend()'
p433
S'130'
p434
tp435
a(S'MPI_Isend()'
p436
S'163'
p437
tp438
a(S'MPI_Irecv()'
p439
S'164'
p440
tp441
a(S'MPI_recv()'
p442
S'181'
p443
tp444
a(S'MPI_Irsend()'
p445
S'193'
p446
tp447
a(S'MPI_Isend()'
p448
S'231'
p449
tp450
a(S'MPI_Irecv()'
p451
S'232'
p452
tp453
a(S'MPI_recv()'
p454
S'256'
p455
tp456
a(S'MPI_Irsend()'
p457
S'270'
p458
tp459
asS'qmc/src/mpi/point2point.h'
p460
(lp461
(S'MPI_Send()'
p462
S'23'
p463
tp464
a(S'MPI_Recv()'
p465
S'32'
p466
tp467
a(S'MPI_Send()'
p468
S'58'
p469
tp470
a(S'MPI_Isend()'
p471
S'72'
p472
tp473
a(S'MPI_Irecv()'
p474
S'80'
p475
tp476
asS'qmc/src/OhmmsData/Libxml2Doc.cpp'
p477
(lp478
(S'MPI_Bcast()'
p479
S'140'
p480
tp481
a(S'MPI_Bcast()'
p482
S'146'
p483
tp484
asS'qmc/src/OOMPI/Op.cc'
p485
(lp486
(S'MPI_Op_free()'
p487
S'35'
p488
tp489
asS'qmc/src/OOMPI/Port.h'
p490
(lp491
(S'MPI_Recv()'
p492
S'273'
p493
tp494
a(S'MPI_Recv()'
p495
S'284'
p496
tp497
a(S'MPI_Recv()'
p498
S'295'
p499
tp500
a(S'MPI_Irecv()'
p501
S'306'
p502
tp503
a(S'MPI_Irecv()'
p504
S'317'
p505
tp506
a(S'MPI_Recv_init()'
p507
S'328'
p508
tp509
a(S'MPI_Recv_init()'
p510
S'339'
p511
tp512
a(S'MPI_Bcast()'
p513
S'352'
p514
tp515
a(S'MPI_Bcast()'
p516
S'360'
p517
tp518
a(S'MPI_Gather()'
p519
S'372'
p520
tp521
a(S'MPI_Gather()'
p522
S'383'
p523
tp524
a(S'MPI_Gather()'
p525
S'394'
p526
tp527
a(S'MPI_Gather()'
p528
S'405'
p529
tp530
a(S'MPI_Gather()'
p531
S'419'
p532
tp533
a(S'MPI_Gather()'
p534
S'429'
p535
tp536
a(S'MPI_Gatherv()'
p537
S'443'
p538
tp539
a(S'MPI_Gatherv()'
p540
S'454'
p541
tp542
a(S'MPI_Gatherv()'
p543
S'467'
p544
tp545
a(S'MPI_Gatherv()'
p546
S'477'
p547
tp548
a(S'MPI_Reduce()'
p549
S'490'
p550
tp551
a(S'MPI_Reduce()'
p552
S'500'
p553
tp554
a(S'MPI_Reduce()'
p555
S'510'
p556
tp557
a(S'MPI_Reduce()'
p558
S'521'
p559
tp560
a(S'MPI_Reduce()'
p561
S'534'
p562
tp563
a(S'MPI_Reduce()'
p564
S'545'
p565
tp566
a(S'MPI_Scatter()'
p567
S'558'
p568
tp569
a(S'MPI_Scatter()'
p570
S'568'
p571
tp572
a(S'MPI_Scatter()'
p573
S'578'
p574
tp575
a(S'MPI_Scatter()'
p576
S'588'
p577
tp578
a(S'MPI_Scatter()'
p579
S'601'
p580
tp581
a(S'MPI_Scatter()'
p582
S'611'
p583
tp584
a(S'MPI_Scatterv()'
p585
S'624'
p586
tp587
a(S'MPI_Scatterv()'
p588
S'634'
p589
tp590
a(S'MPI_Scatterv()'
p591
S'647'
p592
tp593
a(S'MPI_Scatterv()'
p594
S'656'
p595
tp596
a(S'MPI_Send()'
p597
S'667'
p598
tp599
a(S'MPI_Bsend()'
p600
S'676'
p601
tp602
a(S'MPI_Bsend()'
p603
S'685'
p604
tp605
a(S'MPI_Rsend()'
p606
S'694'
p607
tp608
a(S'MPI_Rsend()'
p609
S'703'
p610
tp611
a(S'MPI_Send()'
p612
S'712'
p613
tp614
a(S'MPI_Send()'
p615
S'721'
p616
tp617
a(S'MPI_Ssend()'
p618
S'730'
p619
tp620
a(S'MPI_Ssend()'
p621
S'739'
p622
tp623
a(S'MPI_Bsend_init()'
p624
S'749'
p625
tp626
a(S'MPI_Bsend_init()'
p627
S'760'
p628
tp629
a(S'MPI_Rsend_init()'
p630
S'771'
p631
tp632
a(S'MPI_Rsend_init()'
p633
S'782'
p634
tp635
a(S'MPI_Send_init()'
p636
S'793'
p637
tp638
a(S'MPI_Send_init()'
p639
S'804'
p640
tp641
a(S'MPI_Ssend_init()'
p642
S'815'
p643
tp644
a(S'MPI_Ssend_init()'
p645
S'826'
p646
tp647
a(S'MPI_Ibsend()'
p648
S'837'
p649
tp650
a(S'MPI_Ibsend()'
p651
S'848'
p652
tp653
a(S'MPI_Irsend()'
p654
S'859'
p655
tp656
a(S'MPI_Irsend()'
p657
S'870'
p658
tp659
a(S'MPI_Isend()'
p660
S'881'
p661
tp662
a(S'MPI_Isend()'
p663
S'892'
p664
tp665
a(S'MPI_Issend()'
p666
S'903'
p667
tp668
a(S'MPI_Issend()'
p669
S'914'
p670
tp671
a(S'MPI_Iprobe()'
p672
S'931'
p673
tp674
a(S'MPI_Probe()'
p675
S'943'
p676
tp677
asS'qmc/src/OOMPI/Comm.h'
p678
(lp679
(S'MPI_Constructor()'
p680
S'56'
p681
tp682
asS'qmc/src/OOMPI/Environment.cc'
p683
(lp684
(S'MPI_Buffer_detach()'
p685
S'138'
p686
tp687
a(S'MPI_Get_processor_name()'
p688
S'188'
p689
tp690
a(S'MPI_Pcontrol()'
p691
S'205'
p692
tp693
asS'qmc/src/ParticleBase/ParticleMessage.h'
p694
(lp695
(S'MPI_Allreduce()'
p696
S'31'
p697
tp698
a(S'X_MPI_DOUBLE()'
p699
S'32'
p700
tp701
a(S'MPI_Allreduce()'
p702
S'42'
p703
tp704
asS'qmc/src/OOMPI/Status.cc'
p705
(lp706
(S'MPI_Get_count()'
p707
S'81'
p708
tp709
a(S'MPI_Get_elements()'
p710
S'94'
p711
tp712
a(S'MPI_Test_cancelled()'
p713
S'127'
p714
tp715
asS'qmc/src/OOMPI/Graph_comm.cc'
p716
(lp717
(S'MPI_Topo_test()'
p718
S'29'
p719
tp720
a(S'MPI_Constructor()'
p721
S'32'
p722
tp723
a(S'MPI_Constructor()'
p724
S'61'
p725
tp726
a(S'MPI_Graphdims_get()'
p727
S'89'
p728
tp729
a(S'MPI_Graph_get()'
p730
S'122'
p731
tp732
a(S'MPI_Graph_get()'
p733
S'131'
p734
tp735
a(S'MPI_Graph_get()'
p736
S'141'
p737
tp738
a(S'MPI_Graph_get()'
p739
S'154'
p740
tp741
asS'qmc/src/OOMPI/Intra_comm.cc'
p742
(lp743
(S'MPI_Comm_test_inter()'
p744
S'42'
p745
tp746
a(S'MPI_Constructor()'
p747
S'45'
p748
tp749
a(S'MPI_Comm_test_inter()'
p750
S'158'
p751
tp752
a(S'MPI_Allgather()'
p753
S'171'
p754
tp755
a(S'MPI_Allgather()'
p756
S'181'
p757
tp758
a(S'MPI_Allgather()'
p759
S'191'
p760
tp761
a(S'MPI_Allgather()'
p762
S'201'
p763
tp764
a(S'MPI_Allgatherv()'
p765
S'215'
p766
tp767
a(S'MPI_Allgatherv()'
p768
S'225'
p769
tp770
a(S'MPI_Allreduce()'
p771
S'238'
p772
tp773
a(S'MPI_Allreduce()'
p774
S'249'
p775
tp776
a(S'MPI_Alltoall()'
p777
S'261'
p778
tp779
a(S'MPI_Alltoall()'
p780
S'271'
p781
tp782
a(S'MPI_Alltoall()'
p783
S'281'
p784
tp785
a(S'MPI_Alltoall()'
p786
S'291'
p787
tp788
a(S'MPI_Alltoallv()'
p789
S'305'
p790
tp791
a(S'MPI_Barrier()'
p792
S'318'
p793
tp794
a(S'MPI_Reduce_scatter()'
p795
S'330'
p796
tp797
a(S'MPI_Reduce_scatter()'
p798
S'341'
p799
tp800
a(S'MPI_Scan()'
p801
S'354'
p802
tp803
a(S'MPI_Scan()'
p804
S'364'
p805
tp806
a(S'MPI_Recv()'
p807
S'377'
p808
tp809
a(S'MPI_Recv()'
p810
S'392'
p811
tp812
a(S'MPI_Recv()'
p813
S'404'
p814
tp815
a(S'MPI_Irecv()'
p816
S'419'
p817
tp818
a(S'X_MPI_ANY_SOURCE()'
p819
S'420'
p820
tp821
a(S'MPI_Irecv()'
p822
S'431'
p823
tp824
a(S'X_MPI_ANY_SOURCE()'
p825
S'432'
p826
tp827
a(S'MPI_Recv_init()'
p828
S'446'
p829
tp830
a(S'X_MPI_ANY_SOURCE()'
p831
S'447'
p832
tp833
a(S'MPI_Recv_init()'
p834
S'458'
p835
tp836
a(S'X_MPI_ANY_SOURCE()'
p837
S'459'
p838
tp839
a(S'MPI_Probe()'
p840
S'473'
p841
tp842
a(S'MPI_Iprobe()'
p843
S'485'
p844
tp845
a(S'MPI_Iprobe()'
p846
S'488'
p847
tp848
a(S'MPI_Iprobe()'
p849
S'502'
p850
tp851
a(S'MPI_Topo_test()'
p852
S'517'
p853
tp854
a(S'MPI_Dims_create()'
p855
S'530'
p856
tp857
asS'qmc/src/SandBox/reduce_performance_test.cpp'
p858
(lp859
(S'MPI_Reduce()'
p860
S'109'
p861
tp862
asS'qmc/src/OOMPI/Inter_comm.cc'
p863
(lp864
(S'MPI_Comm_test_inter()'
p865
S'27'
p866
tp867
a(S'MPI_Constructor()'
p868
S'30'
p869
tp870
a(S'MPI_Intercomm_create()'
p871
S'60'
p872
tp873
a(S'MPI_Constructor()'
p874
S'65'
p875
tp876
a(S'MPI_Comm_test_inter()'
p877
S'91'
p878
tp879
asS'qmc/src/SandBox/serialization.cpp'
p880
(lp881
(S'MPI_Ssend()'
p882
S'21'
p883
tp884
a(S'MPI_Ssend()'
p885
S'22'
p886
tp887
a(S'MPI_Recv()'
p888
S'30'
p889
tp890
a(S'MPI_Recv()'
p891
S'32'
p892
tp893
a(S'MPI_Init()'
p894
S'41'
p895
tp896
a(S'MPI_Comm_size()'
p897
S'43'
p898
tp899
a(S'MPI_Comm_rank()'
p900
S'51'
p901
tp902
a(S'MPI_Finalize()'
p903
S'70'
p904
tp905
asS'qmc/src/Message/CommUtilities.h'
p906
(lp907
(S'MPI_Waitall()'
p908
S'29'
p909
tp910
a(S'MPI_Waitall()'
p911
S'35'
p912
tp913
a(S'MPI_Waitall()'
p914
S'42'
p915
tp916
a(S'MPI_Cancel()'
p917
S'49'
p918
tp919
a(S'MPI_Cancel()'
p920
S'57'
p921
tp922
asS'qmc/src/OOMPI/Cart_comm.cc'
p923
(lp924
(S'MPI_Topo_test()'
p925
S'31'
p926
tp927
a(S'MPI_Constructor()'
p928
S'34'
p929
tp930
a(S'MPI_Cartdim_get()'
p931
S'37'
p932
tp933
a(S'MPI_Cartdim_get()'
p934
S'51'
p935
tp936
a(S'MPI_Cartdim_get()'
p937
S'64'
p938
tp939
a(S'MPI_Constructor()'
p940
S'98'
p941
tp942
a(S'MPI_Constructor()'
p943
S'116'
p944
tp945
a(S'MPI_Cartdim_get()'
p946
S'193'
p947
tp948
a(S'MPI_Cart_get()'
p949
S'232'
p950
tp951
a(S'MPI_Cart_rank()'
p952
S'262'
p953
tp954
a(S'MPI_Cart_rank()'
p955
S'298'
p956
tp957
a(S'MPI_Cart_coords()'
p958
S'328'
p959
tp960
a(S'MPI_Cart_coords()'
p961
S'336'
p962
tp963
a(S'MPI_Cart_coords()'
p964
S'344'
p965
tp966
asS'qmc/src/OOMPI/Request.cc'
p967
(lp968
(S'MPI_Wait()'
p969
S'73'
p970
tp971
a(S'MPI_Test()'
p972
S'88'
p973
tp974
a(S'MPI_Test()'
p975
S'91'
p976
tp977
a(S'MPI_Test()'
p978
S'101'
p979
tp980
a(S'MPI_Start()'
p981
S'112'
p982
tp983
a(S'MPI_Cancel()'
p984
S'122'
p985
tp986
a(S'MPI_Request_free()'
p987
S'137'
p988
tp989
a(S'MPI_Waitany()'
p990
S'320'
p991
tp992
a(S'MPI_Waitany()'
p993
S'332'
p994
tp995
a(S'MPI_Waitall()'
p996
S'344'
p997
tp998
a(S'MPI_Waitall()'
p999
S'362'
p1000
tp1001
a(S'MPI_Waitsome()'
p1002
S'374'
p1003
tp1004
a(S'MPI_Waitsome()'
p1005
S'394'
p1006
tp1007
a(S'MPI_Testany()'
p1008
S'409'
p1009
tp1010
a(S'MPI_Testany()'
p1011
S'412'
p1012
tp1013
a(S'MPI_Testany()'
p1014
S'426'
p1015
tp1016
a(S'MPI_Testall()'
p1017
S'442'
p1018
tp1019
a(S'MPI_Testall()'
p1020
S'445'
p1021
tp1022
a(S'MPI_Testall()'
p1023
S'466'
p1024
tp1025
a(S'MPI_Testsome()'
p1026
S'480'
p1027
tp1028
a(S'MPI_Testsome()'
p1029
S'499'
p1030
tp1031
a(S'MPI_Startall()'
p1032
S'511'
p1033
tp1034
asS'qmc/src/OOMPI/Comm_world.cc'
p1035
(lp1036
(S'MPI_Initialized()'
p1037
S'138'
p1038
tp1039
a(S'MPI_Init_thread()'
p1040
S'143'
p1041
tp1042
a(S'MPI_Query_thread()'
p1043
S'144'
p1044
tp1045
a(S'MPI_Init()'
p1046
S'154'
p1047
tp1048
a(S'MPI_Constructor()'
p1049
S'159'
p1050
tp1051
a(S'MPI_Attr_get()'
p1052
S'171'
p1053
tp1054
a(S'MPI_Attr_get()'
p1055
S'176'
p1056
tp1057
a(S'MPI_Attr_get()'
p1058
S'181'
p1059
tp1060
a(S'MPI_Initialized()'
p1061
S'204'
p1062
tp1063
a(S'MPI_Errhandler_set()'
p1064
S'208'
p1065
tp1066
a(S'MPI_Errhandler_set()'
p1067
S'213'
p1068
tp1069
a(S'MPI_Errhandler_free()'
p1070
S'215'
p1071
tp1072
a(S'MPI_Finalize()'
p1073
S'217'
p1074
tp1075
asS'qmc/src/Message/BoostMpiAdaptor.h'
p1076
(lp1077
(S'MPI_Allreduce()'
p1078
S'10'
p1079
tp1080
a(S'MPI_Allreduce()'
p1081
S'23'
p1082
tp1083
a(S'MPI_Gather()'
p1084
S'39'
p1085
tp1086
a(S'MPI_Scatter()'
p1087
S'52'
p1088
tp1089
asS'qmc/src/mpi/collectives.h'
p1090
(lp1091
(S'MPI_Reduce()'
p1092
S'41'
p1093
tp1094
a(S'MPI_Bcast()'
p1095
S'142'
p1096
tp1097
a(S'MPI_Bcast()'
p1098
S'150'
p1099
tp1100
asS'qmc/src/Message/Communicate.cpp'
p1101
(lp1102
(S'MPI_Comm_split()'
p1103
S'85'
p1104
tp1105
a(S'MPI_Comm_split()'
p1106
S'120'
p1107
tp1108
as.