ccollections
defaultdict
p0
(c__builtin__
list
p1
tp2
Rp3
S'bubble_creater/src/problem/BubbleCreater.C'
p4
(lp5
(S'MPI_Allreduce()'
p6
S'94'
p7
tp8
a(S'MPI_Allreduce()'
p9
S'96'
p10
tp11
a(S'MPI_Allreduce()'
p12
S'98'
p13
tp14
a(S'MPI_Allreduce()'
p15
S'100'
p16
tp17
as.