ccollections
defaultdict
p0
(c__builtin__
list
p1
tp2
Rp3
S'slurm_simulator/slurm/testsuite/expect/mpi-testscripts/barrier_timed.c'
p4
(lp5
(S'MPI_Init()'
p6
S'50'
p7
tp8
a(S'MPI_Comm_size()'
p9
S'51'
p10
tp11
a(S'MPI_Finalize()'
p12
S'56'
p13
tp14
a(S'MPI_Comm_rank()'
p15
S'60'
p16
tp17
a(S'MPI_Barrier()'
p18
S'62'
p19
tp20
a(S'MPI_Wtime()'
p21
S'65'
p22
tp23
a(S'MPI_Barrier()'
p24
S'69'
p25
tp26
a(S'MPI_Wtime()'
p27
S'72'
p28
tp29
a(S'MPI_Finalize()'
p30
S'89'
p31
tp32
asS'slurm_simulator/slurm/testsuite/expect/test1.88.prog.c'
p33
(lp34
(S'MPI_Irecv()'
p35
S'43'
p36
tp37
a(S'X_MPI_COMM_WORLD()'
p38
S'44'
p39
tp40
a(S'MPI_Isend()'
p41
S'45'
p42
tp43
a(S'X_MPI_COMM_WORLD()'
p44
S'46'
p45
tp46
a(S'MPI_Waitall()'
p47
S'47'
p48
tp49
a(S'MPI_Init()'
p50
S'60'
p51
tp52
a(S'MPI_Comm_size()'
p53
S'61'
p54
tp55
a(S'MPI_Comm_rank()'
p56
S'62'
p57
tp58
a(S'MPI_Finalize()'
p59
S'80'
p60
tp61
asS'slurm_simulator/slurm/testsuite/expect/mpi-testscripts/allred_timed.c'
p62
(lp63
(S'MPI_Init()'
p64
S'16'
p65
tp66
a(S'MPI_Comm_size()'
p67
S'17'
p68
tp69
a(S'MPI_Finalize()'
p70
S'21'
p71
tp72
a(S'MPI_Comm_rank()'
p73
S'25'
p74
tp75
a(S'MPI_Barrier()'
p76
S'29'
p77
tp78
a(S'MPI_Wtime()'
p79
S'31'
p80
tp81
a(S'MPI_Allreduce()'
p82
S'35'
p83
tp84
a(S'MPI_Wtime()'
p85
S'38'
p86
tp87
a(S'MPI_Finalize()'
p88
S'55'
p89
tp90
asS'slurm_simulator/slurm/testsuite/expect/mpi-testscripts/alltoall.c'
p91
(lp92
(S'MPI_Init()'
p93
S'13'
p94
tp95
a(S'MPI_Comm_rank()'
p96
S'14'
p97
tp98
a(S'MPI_Comm_size()'
p99
S'15'
p100
tp101
a(S'MPI_Alltoall()'
p102
S'21'
p103
tp104
a(S'MPI_Barrier()'
p105
S'36'
p106
tp107
a(S'MPI_Finalize()'
p108
S'42'
p109
tp110
asS'slurm_simulator/slurm/testsuite/expect/test8.4.prog.c'
p111
(lp112
(S'MPI_Irecv()'
p113
S'38'
p114
tp115
a(S'X_MPI_COMM_WORLD()'
p116
S'39'
p117
tp118
a(S'MPI_Isend()'
p119
S'40'
p120
tp121
a(S'X_MPI_COMM_WORLD()'
p122
S'41'
p123
tp124
a(S'MPI_Waitall()'
p125
S'42'
p126
tp127
a(S'MPI_Init()'
p128
S'52'
p129
tp130
a(S'MPI_Comm_size()'
p131
S'53'
p132
tp133
a(S'MPI_Comm_rank()'
p134
S'54'
p135
tp136
a(S'MPI_Finalize()'
p137
S'60'
p138
tp139
asS'slurm_simulator/slurm/testsuite/expect/test1.94.slave.c'
p140
(lp141
(S'MPI_Irecv()'
p142
S'41'
p143
tp144
a(S'X_MPI_COMM_WORLD()'
p145
S'42'
p146
tp147
a(S'MPI_Isend()'
p148
S'43'
p149
tp150
a(S'X_MPI_COMM_WORLD()'
p151
S'44'
p152
tp153
a(S'MPI_Waitall()'
p154
S'45'
p155
tp156
a(S'MPI_Init()'
p157
S'57'
p158
tp159
a(S'MPI_Comm_get_parent()'
p160
S'58'
p161
tp162
a(S'MPI_Comm_remote_size()'
p163
S'64'
p164
tp165
a(S'MPI_Comm_size()'
p166
S'70'
p167
tp168
a(S'MPI_Comm_rank()'
p169
S'71'
p170
tp171
asS'slurm_simulator/slurm/testsuite/expect/mpi-testscripts/allred.c'
p172
(lp173
(S'MPI_Init()'
p174
S'18'
p175
tp176
a(S'MPI_Comm_size()'
p177
S'20'
p178
tp179
a(S'MPI_Comm_rank()'
p180
S'25'
p181
tp182
a(S'MPI_Allreduce()'
p183
S'59'
p184
tp185
a(S'MPI_Allreduce()'
p186
S'92'
p187
tp188
a(S'MPI_Allreduce()'
p189
S'125'
p190
tp191
a(S'MPI_Allreduce()'
p192
S'158'
p193
tp194
a(S'MPI_Allreduce()'
p195
S'191'
p196
tp197
a(S'MPI_Allreduce()'
p198
S'224'
p199
tp200
a(S'MPI_Allreduce()'
p201
S'257'
p202
tp203
a(S'MPI_Allreduce()'
p204
S'290'
p205
tp206
a(S'MPI_Allreduce()'
p207
S'337'
p208
tp209
a(S'MPI_Allreduce()'
p210
S'374'
p211
tp212
a(S'MPI_Allreduce()'
p213
S'411'
p214
tp215
a(S'MPI_Allreduce()'
p216
S'448'
p217
tp218
a(S'MPI_Allreduce()'
p219
S'485'
p220
tp221
a(S'MPI_Allreduce()'
p222
S'522'
p223
tp224
a(S'MPI_Allreduce()'
p225
S'559'
p226
tp227
a(S'MPI_Allreduce()'
p228
S'596'
p229
tp230
a(S'MPI_Allreduce()'
p231
S'626'
p232
tp233
a(S'MPI_Allreduce()'
p234
S'644'
p235
tp236
a(S'MPI_Allreduce()'
p237
S'662'
p238
tp239
a(S'MPI_Allreduce()'
p240
S'680'
p241
tp242
a(S'MPI_Allreduce()'
p243
S'698'
p244
tp245
a(S'MPI_Allreduce()'
p246
S'716'
p247
tp248
a(S'MPI_Allreduce()'
p249
S'734'
p250
tp251
a(S'MPI_Allreduce()'
p252
S'752'
p253
tp254
a(S'MPI_Allreduce()'
p255
S'780'
p256
tp257
a(S'MPI_Allreduce()'
p258
S'798'
p259
tp260
a(S'MPI_Allreduce()'
p261
S'816'
p262
tp263
a(S'MPI_Allreduce()'
p264
S'834'
p265
tp266
a(S'MPI_Allreduce()'
p267
S'852'
p268
tp269
a(S'MPI_Allreduce()'
p270
S'870'
p271
tp272
a(S'MPI_Allreduce()'
p273
S'888'
p274
tp275
a(S'MPI_Allreduce()'
p276
S'906'
p277
tp278
a(S'MPI_Allreduce()'
p279
S'946'
p280
tp281
a(S'MPI_Allreduce()'
p282
S'969'
p283
tp284
a(S'MPI_Allreduce()'
p285
S'987'
p286
tp287
a(S'MPI_Allreduce()'
p288
S'1005'
p289
tp290
a(S'MPI_Allreduce()'
p291
S'1023'
p292
tp293
a(S'MPI_Allreduce()'
p294
S'1041'
p295
tp296
a(S'MPI_Allreduce()'
p297
S'1070'
p298
tp299
a(S'MPI_Allreduce()'
p300
S'1097'
p301
tp302
a(S'MPI_Allreduce()'
p303
S'1124'
p304
tp305
a(S'MPI_Allreduce()'
p306
S'1151'
p307
tp308
a(S'MPI_Allreduce()'
p309
S'1178'
p310
tp311
a(S'MPI_Allreduce()'
p312
S'1205'
p313
tp314
a(S'MPI_Allreduce()'
p315
S'1245'
p316
tp317
a(S'MPI_Allreduce()'
p318
S'1267'
p319
tp320
a(S'MPI_Allreduce()'
p321
S'1285'
p322
tp323
a(S'MPI_Allreduce()'
p324
S'1303'
p325
tp326
a(S'MPI_Allreduce()'
p327
S'1321'
p328
tp329
a(S'MPI_Allreduce()'
p330
S'1339'
p331
tp332
a(S'MPI_Allreduce()'
p333
S'1363'
p334
tp335
a(S'MPI_Allreduce()'
p336
S'1381'
p337
tp338
a(S'MPI_Allreduce()'
p339
S'1399'
p340
tp341
a(S'MPI_Allreduce()'
p342
S'1417'
p343
tp344
a(S'MPI_Allreduce()'
p345
S'1435'
p346
tp347
a(S'MPI_Allreduce()'
p348
S'1453'
p349
tp350
a(S'MPI_Allreduce()'
p351
S'1477'
p352
tp353
a(S'MPI_Allreduce()'
p354
S'1495'
p355
tp356
a(S'MPI_Allreduce()'
p357
S'1513'
p358
tp359
a(S'MPI_Allreduce()'
p360
S'1531'
p361
tp362
a(S'MPI_Allreduce()'
p363
S'1549'
p364
tp365
a(S'MPI_Allreduce()'
p366
S'1567'
p367
tp368
a(S'MPI_Allreduce()'
p369
S'1600'
p370
tp371
a(S'MPI_Allreduce()'
p372
S'1628'
p373
tp374
a(S'MPI_Allreduce()'
p375
S'1656'
p376
tp377
a(S'MPI_Allreduce()'
p378
S'1684'
p379
tp380
a(S'MPI_Allreduce()'
p381
S'1713'
p382
tp383
a(S'MPI_Allreduce()'
p384
S'1742'
p385
tp386
a(S'MPI_Allreduce()'
p387
S'1776'
p388
tp389
a(S'MPI_Allreduce()'
p390
S'1804'
p391
tp392
a(S'MPI_Allreduce()'
p393
S'1832'
p394
tp395
a(S'MPI_Allreduce()'
p396
S'1860'
p397
tp398
a(S'MPI_Allreduce()'
p399
S'1890'
p400
tp401
a(S'MPI_Allreduce()'
p402
S'1918'
p403
tp404
a(S'MPI_Allreduce()'
p405
S'1953'
p406
tp407
a(S'MPI_Allreduce()'
p408
S'1971'
p409
tp410
a(S'MPI_Allreduce()'
p411
S'1989'
p412
tp413
a(S'MPI_Allreduce()'
p414
S'2007'
p415
tp416
a(S'MPI_Allreduce()'
p417
S'2025'
p418
tp419
a(S'MPI_Allreduce()'
p420
S'2043'
p421
tp422
a(S'MPI_Allreduce()'
p423
S'2061'
p424
tp425
a(S'MPI_Allreduce()'
p426
S'2089'
p427
tp428
a(S'MPI_Allreduce()'
p429
S'2107'
p430
tp431
a(S'MPI_Allreduce()'
p432
S'2125'
p433
tp434
a(S'MPI_Allreduce()'
p435
S'2143'
p436
tp437
a(S'MPI_Allreduce()'
p438
S'2161'
p439
tp440
a(S'MPI_Allreduce()'
p441
S'2179'
p442
tp443
a(S'MPI_Allreduce()'
p444
S'2197'
p445
tp446
a(S'MPI_Allreduce()'
p447
S'2221'
p448
tp449
a(S'MPI_Allreduce()'
p450
S'2239'
p451
tp452
a(S'MPI_Allreduce()'
p453
S'2257'
p454
tp455
a(S'MPI_Allreduce()'
p456
S'2275'
p457
tp458
a(S'MPI_Allreduce()'
p459
S'2293'
p460
tp461
a(S'MPI_Allreduce()'
p462
S'2311'
p463
tp464
a(S'MPI_Allreduce()'
p465
S'2339'
p466
tp467
a(S'MPI_Allreduce()'
p468
S'2357'
p469
tp470
a(S'MPI_Allreduce()'
p471
S'2375'
p472
tp473
a(S'MPI_Allreduce()'
p474
S'2393'
p475
tp476
a(S'MPI_Allreduce()'
p477
S'2411'
p478
tp479
a(S'MPI_Allreduce()'
p480
S'2429'
p481
tp482
a(S'MPI_Allreduce()'
p483
S'2453'
p484
tp485
a(S'MPI_Allreduce()'
p486
S'2471'
p487
tp488
a(S'MPI_Allreduce()'
p489
S'2489'
p490
tp491
a(S'MPI_Allreduce()'
p492
S'2507'
p493
tp494
a(S'MPI_Allreduce()'
p495
S'2525'
p496
tp497
a(S'MPI_Allreduce()'
p498
S'2543'
p499
tp500
a(S'MPI_Allreduce()'
p501
S'2567'
p502
tp503
a(S'MPI_Allreduce()'
p504
S'2585'
p505
tp506
a(S'MPI_Allreduce()'
p507
S'2603'
p508
tp509
a(S'MPI_Allreduce()'
p510
S'2621'
p511
tp512
a(S'MPI_Allreduce()'
p513
S'2639'
p514
tp515
a(S'MPI_Allreduce()'
p516
S'2657'
p517
tp518
a(S'MPI_Allreduce()'
p519
S'2687'
p520
tp521
a(S'MPI_Allreduce()'
p522
S'2713'
p523
tp524
a(S'MPI_Allreduce()'
p525
S'2739'
p526
tp527
a(S'MPI_Allreduce()'
p528
S'2765'
p529
tp530
a(S'MPI_Allreduce()'
p531
S'2791'
p532
tp533
a(S'MPI_Allreduce()'
p534
S'2829'
p535
tp536
a(S'MPI_Allreduce()'
p537
S'2855'
p538
tp539
a(S'MPI_Allreduce()'
p540
S'2881'
p541
tp542
a(S'MPI_Allreduce()'
p543
S'2907'
p544
tp545
a(S'MPI_Allreduce()'
p546
S'2933'
p547
tp548
a(S'MPI_Comm_rank()'
p549
S'2957'
p550
tp551
a(S'MPI_Finalize()'
p552
S'2964'
p553
tp554
asS'slurm_simulator/slurm/testsuite/expect/test7.4.prog.c'
p555
(lp556
(S'MPI_Irecv()'
p557
S'38'
p558
tp559
a(S'X_MPI_COMM_WORLD()'
p560
S'39'
p561
tp562
a(S'MPI_Isend()'
p563
S'40'
p564
tp565
a(S'X_MPI_COMM_WORLD()'
p566
S'41'
p567
tp568
a(S'MPI_Waitall()'
p569
S'42'
p570
tp571
a(S'MPI_Init()'
p572
S'52'
p573
tp574
a(S'MPI_Comm_size()'
p575
S'53'
p576
tp577
a(S'MPI_Comm_rank()'
p578
S'54'
p579
tp580
a(S'MPI_Finalize()'
p581
S'60'
p582
tp583
asS'slurm_simulator/slurm/testsuite/expect/mpi-testscripts/alltoall_timed.c'
p584
(lp585
(S'MPI_Init()'
p586
S'16'
p587
tp588
a(S'MPI_Comm_size()'
p589
S'17'
p590
tp591
a(S'MPI_Finalize()'
p592
S'21'
p593
tp594
a(S'MPI_Comm_rank()'
p595
S'25'
p596
tp597
a(S'MPI_Barrier()'
p598
S'31'
p599
tp600
a(S'MPI_Wtime()'
p601
S'33'
p602
tp603
a(S'MPI_Alltoall()'
p604
S'37'
p605
tp606
a(S'MPI_Wtime()'
p607
S'40'
p608
tp609
a(S'MPI_Finalize()'
p610
S'57'
p611
tp612
asS'slurm_simulator/slurm/testsuite/expect/test7.6.prog.c'
p613
(lp614
(S'MPI_Irecv()'
p615
S'38'
p616
tp617
a(S'X_MPI_COMM_WORLD()'
p618
S'39'
p619
tp620
a(S'MPI_Isend()'
p621
S'40'
p622
tp623
a(S'X_MPI_COMM_WORLD()'
p624
S'41'
p625
tp626
a(S'MPI_Waitall()'
p627
S'42'
p628
tp629
a(S'MPI_Init()'
p630
S'52'
p631
tp632
a(S'MPI_Comm_size()'
p633
S'53'
p634
tp635
a(S'MPI_Comm_rank()'
p636
S'54'
p637
tp638
a(S'MPI_Finalize()'
p639
S'61'
p640
tp641
asS'slurm_simulator/slurm/testsuite/expect/test1.94.master.c'
p642
(lp643
(S'MPI_Init()'
p644
S'37'
p645
tp646
a(S'MPI_Comm_size()'
p647
S'38'
p648
tp649
a(S'MPI_Comm_rank()'
p650
S'44'
p651
tp652
a(S'MPI_Comm_get_attr()'
p653
S'50'
p654
tp655
a(S'MPI_Comm_spawn()'
p656
S'59'
p657
tp658
a(S'X_MPI_INFO_NULL()'
p659
S'60'
p660
tp661
a(S'MPI_Finalize()'
p662
S'67'
p663
tp664
as.