ccollections
defaultdict
p0
(c__builtin__
list
p1
tp2
Rp3
S'BotWarz/vendor/boost/mpi/timer.hpp'
p4
(lp5
(S'MPI_Wtime()'
p6
S'71'
p7
tp8
asS'BotWarz/vendor/boost/mpi/operations.hpp'
p9
(lp10
(S'MPI_Op_free()'
p11
S'293'
p12
tp13
asS'BotWarz/vendor/boost/mpi/datatype.hpp'
p14
(lp15
(S'X_MPI_LONG_DOUBLE_INT()'
p16
S'250'
p17
tp18
a(S'MPI_Type_contiguous()'
p19
S'310'
p20
tp21
a(S'MPI_Type_commit()'
p22
S'311'
p23
tp24
asS'BotWarz/vendor/boost/mpi/communicator.hpp'
p25
(lp26
(S'MPI_Comm()'
p27
S'1428'
p28
tp29
a(S'MPI_Comm()'
p30
S'1451'
p31
tp32
a(S'MPI_Comm()'
p33
S'1487'
p34
tp35
a(S'MPI_Comm()'
p36
S'1510'
p37
tp38
asS'BotWarz/vendor/boost/mpi/exception.hpp'
p39
(lp40
(S'MPI_Error_class()'
p41
S'73'
p42
tp43
asS'BotWarz/vendor/boost/graph/distributed/page_rank.hpp'
p44
(lp45
(S'MPI_Comm_rank()'
p46
S'40'
p47
tp48
a(S'MPI_Accumulate()'
p49
S'53'
p50
tp51
a(S'MPI_Win_fence()'
p52
S'60'
p53
tp54
a(S'MPI_Comm_rank()'
p55
S'90'
p56
tp57
a(S'MPI_Win_create()'
p58
S'115'
p59
tp60
a(S'X_MPI_INFO_NULL()'
p61
S'118'
p62
tp63
a(S'MPI_Win_set_name()'
p64
S'119'
p65
tp66
a(S'MPI_Win_create()'
p67
S'120'
p68
tp69
a(S'X_MPI_INFO_NULL()'
p70
S'123'
p71
tp72
a(S'MPI_Win_set_name()'
p73
S'124'
p74
tp75
a(S'MPI_Win_fence()'
p76
S'129'
p77
tp78
a(S'MPI_Win_fence()'
p79
S'130'
p80
tp81
a(S'MPI_Win_free()'
p82
S'144'
p83
tp84
a(S'MPI_Win_free()'
p85
S'145'
p86
tp87
asS'BotWarz/vendor/boost/graph/distributed/mpi_process_group.hpp'
p88
(lp89
(S'MPI_Bsend()'
p90
S'708'
p91
tp92
a(S'MPI_Isend()'
p93
S'714'
p94
tp95
a(S'MPI_Test()'
p96
S'720'
p97
tp98
a(S'MPI_Bsend()'
p99
S'744'
p100
tp101
a(S'MPI_Isend()'
p102
S'750'
p103
tp104
a(S'MPI_Test()'
p105
S'756'
p106
tp107
asS'BotWarz/vendor/boost/mpi/allocator.hpp'
p108
(lp109
(S'X_MPI_INFO_NULL()'
p110
S'141'
p111
tp112
asS'BotWarz/vendor/boost/graph/distributed/detail/mpi_process_group.ipp'
p113
(lp114
(S'MPI_Recv()'
p115
S'492'
p116
tp117
a(S'MPI_Get_count()'
p118
S'510'
p119
tp120
a(S'MPI_Recv()'
p121
S'516'
p122
tp123
a(S'MPI_Irecv()'
p124
S'665'
p125
tp126
a(S'X_MPI_PACKED()'
p127
S'666'
p128
tp129
a(S'MPI_Allgather()'
p130
S'837'
p131
tp132
a(S'MPI_Allgatherv()'
p133
S'856'
p134
tp135
a(S'X_MPI_BYTE()'
p136
S'859'
p137
tp138
a(S'MPI_Comm_group()'
p139
S'880'
p140
tp141
a(S'MPI_Group_incl()'
p142
S'884'
p143
tp144
a(S'MPI_Comm_create()'
p145
S'888'
p146
tp147
a(S'MPI_Group_free()'
p148
S'891'
p149
tp150
a(S'MPI_Group_free()'
p151
S'893'
p152
tp153
a(S'MPI_Comm_free()'
p154
S'898'
p155
tp156
a(S'MPI_Irecv()'
p157
S'929'
p158
tp159
a(S'MPI_Test()'
p160
S'934'
p161
tp162
a(S'MPI_Get_count()'
p163
S'967'
p164
tp165
a(S'MPI_Recv()'
p166
S'972'
p167
tp168
as.