ccollections
defaultdict
p0
(c__builtin__
list
p1
tp2
Rp3
S'io-profiling/skel_io/lammps_outputs/rank00002.cxx'
p4
(lp5
(S'MPI_Bcast()'
p6
S'83'
p7
tp8
a(S'MPI_Bcast()'
p9
S'91'
p10
tp11
a(S'MPI_Bcast()'
p12
S'99'
p13
tp14
a(S'MPI_Bcast()'
p15
S'107'
p16
tp17
a(S'MPI_Bcast()'
p18
S'115'
p19
tp20
a(S'MPI_Bcast()'
p21
S'123'
p22
tp23
a(S'MPI_Bcast()'
p24
S'131'
p25
tp26
a(S'MPI_Bcast()'
p27
S'139'
p28
tp29
a(S'MPI_Bcast()'
p30
S'147'
p31
tp32
a(S'MPI_Bcast()'
p33
S'155'
p34
tp35
a(S'MPI_Bcast()'
p36
S'163'
p37
tp38
a(S'MPI_Bcast()'
p39
S'171'
p40
tp41
a(S'MPI_Bcast()'
p42
S'179'
p43
tp44
a(S'MPI_Bcast()'
p45
S'187'
p46
tp47
a(S'MPI_Bcast()'
p48
S'195'
p49
tp50
a(S'MPI_Bcast()'
p51
S'203'
p52
tp53
a(S'MPI_Bcast()'
p54
S'211'
p55
tp56
a(S'MPI_Bcast()'
p57
S'219'
p58
tp59
a(S'MPI_Bcast()'
p60
S'227'
p61
tp62
a(S'MPI_Bcast()'
p63
S'235'
p64
tp65
a(S'MPI_Bcast()'
p66
S'243'
p67
tp68
a(S'MPI_Bcast()'
p69
S'251'
p70
tp71
a(S'MPI_Bcast()'
p72
S'259'
p73
tp74
a(S'MPI_Bcast()'
p75
S'267'
p76
tp77
a(S'MPI_Bcast()'
p78
S'275'
p79
tp80
a(S'MPI_Bcast()'
p81
S'283'
p82
tp83
a(S'MPI_Bcast()'
p84
S'291'
p85
tp86
a(S'MPI_Bcast()'
p87
S'299'
p88
tp89
a(S'MPI_Bcast()'
p90
S'307'
p91
tp92
a(S'MPI_Allreduce()'
p93
S'316'
p94
tp95
a(S'MPI_Bcast()'
p96
S'324'
p97
tp98
a(S'MPI_Bcast()'
p99
S'332'
p100
tp101
a(S'MPI_Bcast()'
p102
S'340'
p103
tp104
a(S'MPI_Bcast()'
p105
S'348'
p106
tp107
a(S'MPI_Bcast()'
p108
S'356'
p109
tp110
a(S'MPI_Bcast()'
p111
S'364'
p112
tp113
a(S'MPI_Bcast()'
p114
S'372'
p115
tp116
a(S'MPI_Bcast()'
p117
S'380'
p118
tp119
a(S'MPI_Cart_create()'
p120
S'391'
p121
tp122
a(S'MPI_Bcast()'
p123
S'402'
p124
tp125
a(S'MPI_Bcast()'
p126
S'410'
p127
tp128
a(S'MPI_Bcast()'
p129
S'418'
p130
tp131
a(S'MPI_Bcast()'
p132
S'426'
p133
tp134
a(S'MPI_Barrier()'
p135
S'432'
p136
tp137
a(S'MPI_Allreduce()'
p138
S'441'
p139
tp140
a(S'MPI_Allreduce()'
p141
S'450'
p142
tp143
a(S'MPI_Allreduce()'
p144
S'459'
p145
tp146
a(S'MPI_Allreduce()'
p147
S'468'
p148
tp149
a(S'MPI_Scan()'
p150
S'477'
p151
tp152
a(S'MPI_Allreduce()'
p153
S'486'
p154
tp155
a(S'MPI_Allreduce()'
p156
S'495'
p157
tp158
a(S'MPI_Barrier()'
p159
S'501'
p160
tp161
a(S'MPI_Bcast()'
p162
S'509'
p163
tp164
a(S'MPI_Bcast()'
p165
S'517'
p166
tp167
a(S'MPI_Bcast()'
p168
S'525'
p169
tp170
a(S'MPI_Bcast()'
p171
S'533'
p172
tp173
a(S'MPI_Bcast()'
p174
S'541'
p175
tp176
a(S'MPI_Bcast()'
p177
S'549'
p178
tp179
a(S'MPI_Allreduce()'
p180
S'558'
p181
tp182
a(S'MPI_Allreduce()'
p183
S'567'
p184
tp185
a(S'MPI_Allreduce()'
p186
S'576'
p187
tp188
a(S'MPI_Allreduce()'
p189
S'585'
p190
tp191
a(S'MPI_Allreduce()'
p192
S'594'
p193
tp194
a(S'MPI_Allreduce()'
p195
S'603'
p196
tp197
a(S'MPI_Bcast()'
p198
S'611'
p199
tp200
a(S'MPI_Bcast()'
p201
S'619'
p202
tp203
a(S'MPI_Allreduce()'
p204
S'628'
p205
tp206
a(S'MPI_Bcast()'
p207
S'636'
p208
tp209
a(S'MPI_Bcast()'
p210
S'644'
p211
tp212
a(S'MPI_Bcast()'
p213
S'652'
p214
tp215
a(S'MPI_Bcast()'
p216
S'660'
p217
tp218
a(S'MPI_Bcast()'
p219
S'668'
p220
tp221
a(S'MPI_Bcast()'
p222
S'676'
p223
tp224
a(S'MPI_Bcast()'
p225
S'684'
p226
tp227
a(S'MPI_Bcast()'
p228
S'692'
p229
tp230
a(S'MPI_Bcast()'
p231
S'700'
p232
tp233
a(S'MPI_Bcast()'
p234
S'708'
p235
tp236
a(S'MPI_Bcast()'
p237
S'716'
p238
tp239
a(S'MPI_Bcast()'
p240
S'724'
p241
tp242
a(S'MPI_Bcast()'
p243
S'732'
p244
tp245
a(S'MPI_Bcast()'
p246
S'740'
p247
tp248
a(S'MPI_Bcast()'
p249
S'748'
p250
tp251
a(S'MPI_Bcast()'
p252
S'756'
p253
tp254
a(S'MPI_Bcast()'
p255
S'764'
p256
tp257
a(S'MPI_Bcast()'
p258
S'772'
p259
tp260
a(S'MPI_Bcast()'
p261
S'780'
p262
tp263
a(S'MPI_Bcast()'
p264
S'788'
p265
tp266
a(S'MPI_Bcast()'
p267
S'796'
p268
tp269
a(S'MPI_Bcast()'
p270
S'804'
p271
tp272
a(S'MPI_Bcast()'
p273
S'812'
p274
tp275
a(S'MPI_Bcast()'
p276
S'820'
p277
tp278
a(S'MPI_Bcast()'
p279
S'828'
p280
tp281
a(S'MPI_Bcast()'
p282
S'836'
p283
tp284
a(S'MPI_Bcast()'
p285
S'844'
p286
tp287
a(S'MPI_Bcast()'
p288
S'852'
p289
tp290
a(S'MPI_Bcast()'
p291
S'860'
p292
tp293
a(S'MPI_Bcast()'
p294
S'868'
p295
tp296
a(S'MPI_Bcast()'
p297
S'876'
p298
tp299
a(S'MPI_Bcast()'
p300
S'884'
p301
tp302
a(S'MPI_Bcast()'
p303
S'892'
p304
tp305
a(S'MPI_Bcast()'
p306
S'900'
p307
tp308
a(S'MPI_Bcast()'
p309
S'908'
p310
tp311
a(S'MPI_Bcast()'
p312
S'916'
p313
tp314
a(S'MPI_Bcast()'
p315
S'924'
p316
tp317
a(S'MPI_Bcast()'
p318
S'932'
p319
tp320
a(S'MPI_Bcast()'
p321
S'943'
p322
tp323
a(S'MPI_Bcast()'
p324
S'951'
p325
tp326
a(S'MPI_Bcast()'
p327
S'962'
p328
tp329
a(S'MPI_Bcast()'
p330
S'970'
p331
tp332
a(S'MPI_Bcast()'
p333
S'978'
p334
tp335
a(S'MPI_Bcast()'
p336
S'986'
p337
tp338
a(S'MPI_Bcast()'
p339
S'994'
p340
tp341
a(S'MPI_Bcast()'
p342
S'1002'
p343
tp344
a(S'MPI_Bcast()'
p345
S'1010'
p346
tp347
a(S'MPI_Bcast()'
p348
S'1018'
p349
tp350
a(S'MPI_Bcast()'
p351
S'1026'
p352
tp353
a(S'MPI_Bcast()'
p354
S'1034'
p355
tp356
a(S'MPI_Bcast()'
p357
S'1042'
p358
tp359
a(S'MPI_Bcast()'
p360
S'1050'
p361
tp362
a(S'MPI_Bcast()'
p363
S'1058'
p364
tp365
a(S'MPI_Bcast()'
p366
S'1066'
p367
tp368
a(S'MPI_Bcast()'
p369
S'1074'
p370
tp371
a(S'MPI_Bcast()'
p372
S'1082'
p373
tp374
a(S'MPI_Bcast()'
p375
S'1090'
p376
tp377
a(S'MPI_Bcast()'
p378
S'1098'
p379
tp380
a(S'MPI_Allreduce()'
p381
S'1107'
p382
tp383
a(S'MPI_Allreduce()'
p384
S'1116'
p385
tp386
a(S'MPI_Allreduce()'
p387
S'1263'
p388
tp389
a(S'MPI_Allreduce()'
p390
S'1272'
p391
tp392
a(S'MPI_Allreduce()'
p393
S'1281'
p394
tp395
a(S'MPI_Comm_dup()'
p396
S'1285'
p397
tp398
a(S'MPI_Allreduce()'
p399
S'1293'
p400
tp401
a(S'MPI_Allreduce()'
p402
S'1302'
p403
tp404
a(S'MPI_Scan()'
p405
S'1311'
p406
tp407
a(S'MPI_Allreduce()'
p408
S'1320'
p409
tp410
a(S'MPI_Scan()'
p411
S'1329'
p412
tp413
a(S'MPI_Comm_split()'
p414
S'1337'
p415
tp416
a(S'MPI_Allreduce()'
p417
S'1348'
p418
tp419
a(S'MPI_Allreduce()'
p420
S'1357'
p421
tp422
a(S'MPI_Scan()'
p423
S'1366'
p424
tp425
a(S'MPI_Allreduce()'
p426
S'1375'
p427
tp428
a(S'MPI_Allreduce()'
p429
S'1384'
p430
tp431
a(S'MPI_Allreduce()'
p432
S'1393'
p433
tp434
a(S'MPI_Scan()'
p435
S'1402'
p436
tp437
a(S'MPI_Comm_split()'
p438
S'1408'
p439
tp440
a(S'MPI_Barrier()'
p441
S'1423'
p442
tp443
a(S'MPI_Allreduce()'
p444
S'1434'
p445
tp446
a(S'MPI_Barrier()'
p447
S'1444'
p448
tp449
a(S'MPI_Allgather()'
p450
S'1454'
p451
tp452
a(S'MPI_Barrier()'
p453
S'1460'
p454
tp455
a(S'MPI_Barrier()'
p456
S'1466'
p457
tp458
a(S'MPI_Barrier()'
p459
S'1472'
p460
tp461
a(S'MPI_Barrier()'
p462
S'1478'
p463
tp464
a(S'MPI_Allreduce()'
p465
S'1489'
p466
tp467
a(S'MPI_Allreduce()'
p468
S'1498'
p469
tp470
a(S'MPI_Allreduce()'
p471
S'1507'
p472
tp473
a(S'MPI_Allreduce()'
p474
S'1516'
p475
tp476
a(S'MPI_Allreduce()'
p477
S'1525'
p478
tp479
a(S'MPI_Allreduce()'
p480
S'1534'
p481
tp482
a(S'MPI_Allreduce()'
p483
S'1543'
p484
tp485
a(S'MPI_Allreduce()'
p486
S'1552'
p487
tp488
a(S'MPI_Scan()'
p489
S'1561'
p490
tp491
a(S'MPI_Allreduce()'
p492
S'1621'
p493
tp494
a(S'MPI_Scan()'
p495
S'1630'
p496
tp497
a(S'MPI_Reduce()'
p498
S'1689'
p499
tp500
a(S'MPI_Reduce()'
p501
S'1698'
p502
tp503
a(S'MPI_Reduce()'
p504
S'1707'
p505
tp506
a(S'MPI_Allreduce()'
p507
S'1716'
p508
tp509
a(S'MPI_Allreduce()'
p510
S'1725'
p511
tp512
a(S'MPI_Allreduce()'
p513
S'1734'
p514
tp515
a(S'MPI_Allreduce()'
p516
S'1743'
p517
tp518
a(S'MPI_Allreduce()'
p519
S'1752'
p520
tp521
a(S'MPI_Barrier()'
p522
S'1758'
p523
tp524
a(S'MPI_Allreduce()'
p525
S'1767'
p526
tp527
a(S'MPI_Allreduce()'
p528
S'1776'
p529
tp530
a(S'MPI_Allreduce()'
p531
S'1785'
p532
tp533
a(S'MPI_Allreduce()'
p534
S'1794'
p535
tp536
a(S'MPI_Barrier()'
p537
S'1800'
p538
tp539
a(S'MPI_Barrier()'
p540
S'1806'
p541
tp542
a(S'MPI_Barrier()'
p543
S'1812'
p544
tp545
a(S'MPI_Barrier()'
p546
S'1818'
p547
tp548
a(S'MPI_Allreduce()'
p549
S'1827'
p550
tp551
a(S'MPI_Allreduce()'
p552
S'1836'
p553
tp554
a(S'MPI_Allreduce()'
p555
S'1845'
p556
tp557
a(S'MPI_Allreduce()'
p558
S'1854'
p559
tp560
a(S'MPI_Barrier()'
p561
S'1860'
p562
tp563
a(S'MPI_Barrier()'
p564
S'1866'
p565
tp566
a(S'MPI_Barrier()'
p567
S'1872'
p568
tp569
a(S'MPI_Barrier()'
p570
S'1878'
p571
tp572
a(S'MPI_Allreduce()'
p573
S'1887'
p574
tp575
a(S'MPI_Allreduce()'
p576
S'1896'
p577
tp578
a(S'MPI_Allreduce()'
p579
S'1905'
p580
tp581
a(S'MPI_Allreduce()'
p582
S'1914'
p583
tp584
a(S'MPI_Barrier()'
p585
S'1920'
p586
tp587
a(S'MPI_Barrier()'
p588
S'1926'
p589
tp590
a(S'MPI_Barrier()'
p591
S'1932'
p592
tp593
a(S'MPI_Barrier()'
p594
S'1938'
p595
tp596
a(S'MPI_Allreduce()'
p597
S'1947'
p598
tp599
a(S'MPI_Allreduce()'
p600
S'1956'
p601
tp602
a(S'MPI_Allreduce()'
p603
S'1965'
p604
tp605
a(S'MPI_Allreduce()'
p606
S'1974'
p607
tp608
a(S'MPI_Barrier()'
p609
S'1980'
p610
tp611
a(S'MPI_Barrier()'
p612
S'1986'
p613
tp614
a(S'MPI_Barrier()'
p615
S'1992'
p616
tp617
a(S'MPI_Barrier()'
p618
S'1998'
p619
tp620
a(S'MPI_Allreduce()'
p621
S'2007'
p622
tp623
a(S'MPI_Allreduce()'
p624
S'2016'
p625
tp626
a(S'MPI_Allreduce()'
p627
S'2025'
p628
tp629
a(S'MPI_Allreduce()'
p630
S'2034'
p631
tp632
a(S'MPI_Barrier()'
p633
S'2040'
p634
tp635
a(S'MPI_Barrier()'
p636
S'2046'
p637
tp638
a(S'MPI_Barrier()'
p639
S'2052'
p640
tp641
a(S'MPI_Barrier()'
p642
S'2058'
p643
tp644
a(S'MPI_Allreduce()'
p645
S'2069'
p646
tp647
a(S'MPI_Allreduce()'
p648
S'2078'
p649
tp650
a(S'MPI_Allreduce()'
p651
S'2087'
p652
tp653
a(S'MPI_Allreduce()'
p654
S'2096'
p655
tp656
a(S'MPI_Barrier()'
p657
S'2102'
p658
tp659
a(S'MPI_Barrier()'
p660
S'2108'
p661
tp662
a(S'MPI_Barrier()'
p663
S'2114'
p664
tp665
a(S'MPI_Barrier()'
p666
S'2120'
p667
tp668
a(S'MPI_Allreduce()'
p669
S'2129'
p670
tp671
a(S'MPI_Allreduce()'
p672
S'2138'
p673
tp674
a(S'MPI_Allreduce()'
p675
S'2147'
p676
tp677
a(S'MPI_Allreduce()'
p678
S'2156'
p679
tp680
a(S'MPI_Barrier()'
p681
S'2162'
p682
tp683
a(S'MPI_Barrier()'
p684
S'2168'
p685
tp686
a(S'MPI_Barrier()'
p687
S'2174'
p688
tp689
a(S'MPI_Barrier()'
p690
S'2180'
p691
tp692
a(S'MPI_Allreduce()'
p693
S'2189'
p694
tp695
a(S'MPI_Allreduce()'
p696
S'2198'
p697
tp698
a(S'MPI_Allreduce()'
p699
S'2207'
p700
tp701
a(S'MPI_Allreduce()'
p702
S'2216'
p703
tp704
a(S'MPI_Barrier()'
p705
S'2222'
p706
tp707
a(S'MPI_Barrier()'
p708
S'2228'
p709
tp710
a(S'MPI_Barrier()'
p711
S'2234'
p712
tp713
a(S'MPI_Barrier()'
p714
S'2240'
p715
tp716
a(S'MPI_Allreduce()'
p717
S'2249'
p718
tp719
a(S'MPI_Allreduce()'
p720
S'2258'
p721
tp722
a(S'MPI_Allreduce()'
p723
S'2267'
p724
tp725
a(S'MPI_Allreduce()'
p726
S'2276'
p727
tp728
a(S'MPI_Barrier()'
p729
S'2282'
p730
tp731
a(S'MPI_Barrier()'
p732
S'2288'
p733
tp734
a(S'MPI_Barrier()'
p735
S'2294'
p736
tp737
a(S'MPI_Barrier()'
p738
S'2300'
p739
tp740
a(S'MPI_Allreduce()'
p741
S'2309'
p742
tp743
a(S'MPI_Allreduce()'
p744
S'2318'
p745
tp746
a(S'MPI_Allreduce()'
p747
S'2329'
p748
tp749
a(S'MPI_Allreduce()'
p750
S'2340'
p751
tp752
a(S'MPI_Barrier()'
p753
S'2346'
p754
tp755
a(S'MPI_Barrier()'
p756
S'2352'
p757
tp758
a(S'MPI_Barrier()'
p759
S'2358'
p760
tp761
a(S'MPI_Barrier()'
p762
S'2364'
p763
tp764
a(S'MPI_Allreduce()'
p765
S'2375'
p766
tp767
a(S'MPI_Allreduce()'
p768
S'2386'
p769
tp770
a(S'MPI_Allreduce()'
p771
S'2395'
p772
tp773
a(S'MPI_Allreduce()'
p774
S'2404'
p775
tp776
a(S'MPI_Barrier()'
p777
S'2410'
p778
tp779
a(S'MPI_Barrier()'
p780
S'2416'
p781
tp782
a(S'MPI_Barrier()'
p783
S'2422'
p784
tp785
a(S'MPI_Barrier()'
p786
S'2428'
p787
tp788
a(S'MPI_Allreduce()'
p789
S'2437'
p790
tp791
a(S'MPI_Allreduce()'
p792
S'2446'
p793
tp794
a(S'MPI_Allreduce()'
p795
S'2455'
p796
tp797
a(S'MPI_Barrier()'
p798
S'2461'
p799
tp800
a(S'MPI_Barrier()'
p801
S'2467'
p802
tp803
a(S'MPI_Barrier()'
p804
S'2473'
p805
tp806
a(S'MPI_Barrier()'
p807
S'2479'
p808
tp809
a(S'MPI_Allreduce()'
p810
S'2488'
p811
tp812
a(S'MPI_Allreduce()'
p813
S'2497'
p814
tp815
a(S'MPI_Allreduce()'
p816
S'2506'
p817
tp818
a(S'MPI_Allreduce()'
p819
S'2515'
p820
tp821
a(S'MPI_Allreduce()'
p822
S'2524'
p823
tp824
a(S'MPI_Comm_dup()'
p825
S'2528'
p826
tp827
a(S'MPI_Allreduce()'
p828
S'2536'
p829
tp830
a(S'MPI_Allreduce()'
p831
S'2545'
p832
tp833
a(S'MPI_Allreduce()'
p834
S'2554'
p835
tp836
a(S'MPI_Allreduce()'
p837
S'2563'
p838
tp839
a(S'MPI_Allreduce()'
p840
S'2572'
p841
tp842
a(S'MPI_Allreduce()'
p843
S'2581'
p844
tp845
a(S'MPI_Allreduce()'
p846
S'2590'
p847
tp848
a(S'MPI_Allreduce()'
p849
S'2599'
p850
tp851
a(S'MPI_Allreduce()'
p852
S'2608'
p853
tp854
a(S'MPI_Comm_split()'
p855
S'2614'
p856
tp857
a(S'MPI_Allreduce()'
p858
S'2625'
p859
tp860
a(S'MPI_Allreduce()'
p861
S'2634'
p862
tp863
a(S'MPI_Allreduce()'
p864
S'2643'
p865
tp866
a(S'MPI_Allreduce()'
p867
S'2652'
p868
tp869
a(S'MPI_Allreduce()'
p870
S'2661'
p871
tp872
a(S'MPI_Allreduce()'
p873
S'2670'
p874
tp875
a(S'MPI_Allreduce()'
p876
S'2679'
p877
tp878
a(S'MPI_Allreduce()'
p879
S'2688'
p880
tp881
a(S'MPI_Comm_split()'
p882
S'2694'
p883
tp884
a(S'MPI_Barrier()'
p885
S'2709'
p886
tp887
a(S'MPI_Allreduce()'
p888
S'2718'
p889
tp890
a(S'MPI_Barrier()'
p891
S'2728'
p892
tp893
a(S'MPI_Allgather()'
p894
S'2738'
p895
tp896
a(S'MPI_Barrier()'
p897
S'2744'
p898
tp899
a(S'MPI_Barrier()'
p900
S'2750'
p901
tp902
a(S'MPI_Barrier()'
p903
S'2756'
p904
tp905
a(S'MPI_Barrier()'
p906
S'2762'
p907
tp908
a(S'MPI_Allreduce()'
p909
S'2771'
p910
tp911
a(S'MPI_Allreduce()'
p912
S'2780'
p913
tp914
a(S'MPI_Allreduce()'
p915
S'2789'
p916
tp917
a(S'MPI_Allreduce()'
p918
S'2798'
p919
tp920
a(S'MPI_Allreduce()'
p921
S'2807'
p922
tp923
a(S'MPI_Allreduce()'
p924
S'2816'
p925
tp926
a(S'MPI_Allreduce()'
p927
S'2825'
p928
tp929
a(S'MPI_Scan()'
p930
S'2834'
p931
tp932
a(S'MPI_Allreduce()'
p933
S'2891'
p934
tp935
a(S'MPI_Scan()'
p936
S'2900'
p937
tp938
a(S'MPI_Allreduce()'
p939
S'2956'
p940
tp941
a(S'MPI_Allreduce()'
p942
S'2965'
p943
tp944
a(S'MPI_Allreduce()'
p945
S'2974'
p946
tp947
a(S'MPI_Barrier()'
p948
S'2980'
p949
tp950
a(S'MPI_Barrier()'
p951
S'2986'
p952
tp953
a(S'MPI_Barrier()'
p954
S'2992'
p955
tp956
a(S'MPI_Barrier()'
p957
S'2998'
p958
tp959
a(S'MPI_Allreduce()'
p960
S'3007'
p961
tp962
a(S'MPI_Allreduce()'
p963
S'3016'
p964
tp965
a(S'MPI_Allreduce()'
p966
S'3027'
p967
tp968
a(S'MPI_Barrier()'
p969
S'3033'
p970
tp971
a(S'MPI_Barrier()'
p972
S'3039'
p973
tp974
a(S'MPI_Barrier()'
p975
S'3045'
p976
tp977
a(S'MPI_Barrier()'
p978
S'3051'
p979
tp980
a(S'MPI_Allreduce()'
p981
S'3060'
p982
tp983
a(S'MPI_Allreduce()'
p984
S'3069'
p985
tp986
a(S'MPI_Allreduce()'
p987
S'3078'
p988
tp989
a(S'MPI_Barrier()'
p990
S'3084'
p991
tp992
a(S'MPI_Barrier()'
p993
S'3090'
p994
tp995
a(S'MPI_Barrier()'
p996
S'3096'
p997
tp998
a(S'MPI_Barrier()'
p999
S'3102'
p1000
tp1001
a(S'MPI_Allreduce()'
p1002
S'3111'
p1003
tp1004
a(S'MPI_Allreduce()'
p1005
S'3120'
p1006
tp1007
a(S'MPI_Allreduce()'
p1008
S'3129'
p1009
tp1010
a(S'MPI_Barrier()'
p1011
S'3135'
p1012
tp1013
a(S'MPI_Barrier()'
p1014
S'3141'
p1015
tp1016
a(S'MPI_Barrier()'
p1017
S'3147'
p1018
tp1019
a(S'MPI_Barrier()'
p1020
S'3153'
p1021
tp1022
a(S'MPI_Allreduce()'
p1023
S'3162'
p1024
tp1025
a(S'MPI_Allreduce()'
p1026
S'3171'
p1027
tp1028
a(S'MPI_Allreduce()'
p1029
S'3180'
p1030
tp1031
a(S'MPI_Barrier()'
p1032
S'3186'
p1033
tp1034
a(S'MPI_Barrier()'
p1035
S'3192'
p1036
tp1037
a(S'MPI_Barrier()'
p1038
S'3198'
p1039
tp1040
a(S'MPI_Barrier()'
p1041
S'3204'
p1042
tp1043
a(S'MPI_Allreduce()'
p1044
S'3213'
p1045
tp1046
a(S'MPI_Allreduce()'
p1047
S'3222'
p1048
tp1049
a(S'MPI_Allreduce()'
p1050
S'3231'
p1051
tp1052
a(S'MPI_Barrier()'
p1053
S'3237'
p1054
tp1055
a(S'MPI_Barrier()'
p1056
S'3243'
p1057
tp1058
a(S'MPI_Barrier()'
p1059
S'3249'
p1060
tp1061
a(S'MPI_Barrier()'
p1062
S'3255'
p1063
tp1064
a(S'MPI_Allreduce()'
p1065
S'3266'
p1066
tp1067
a(S'MPI_Allreduce()'
p1068
S'3277'
p1069
tp1070
a(S'MPI_Allreduce()'
p1071
S'3286'
p1072
tp1073
a(S'MPI_Barrier()'
p1074
S'3292'
p1075
tp1076
a(S'MPI_Barrier()'
p1077
S'3298'
p1078
tp1079
a(S'MPI_Barrier()'
p1080
S'3304'
p1081
tp1082
a(S'MPI_Barrier()'
p1083
S'3310'
p1084
tp1085
a(S'MPI_Allreduce()'
p1086
S'3319'
p1087
tp1088
a(S'MPI_Allreduce()'
p1089
S'3328'
p1090
tp1091
a(S'MPI_Allreduce()'
p1092
S'3339'
p1093
tp1094
a(S'MPI_Barrier()'
p1095
S'3345'
p1096
tp1097
a(S'MPI_Barrier()'
p1098
S'3351'
p1099
tp1100
a(S'MPI_Barrier()'
p1101
S'3357'
p1102
tp1103
a(S'MPI_Barrier()'
p1104
S'3363'
p1105
tp1106
a(S'MPI_Allreduce()'
p1107
S'3372'
p1108
tp1109
a(S'MPI_Allreduce()'
p1110
S'3381'
p1111
tp1112
a(S'MPI_Allreduce()'
p1113
S'3390'
p1114
tp1115
a(S'MPI_Barrier()'
p1116
S'3396'
p1117
tp1118
a(S'MPI_Barrier()'
p1119
S'3402'
p1120
tp1121
a(S'MPI_Barrier()'
p1122
S'3408'
p1123
tp1124
a(S'MPI_Barrier()'
p1125
S'3414'
p1126
tp1127
a(S'MPI_Allreduce()'
p1128
S'3423'
p1129
tp1130
a(S'MPI_Allreduce()'
p1131
S'3432'
p1132
tp1133
a(S'MPI_Allreduce()'
p1134
S'3441'
p1135
tp1136
a(S'MPI_Barrier()'
p1137
S'3447'
p1138
tp1139
a(S'MPI_Barrier()'
p1140
S'3453'
p1141
tp1142
a(S'MPI_Barrier()'
p1143
S'3459'
p1144
tp1145
a(S'MPI_Barrier()'
p1146
S'3465'
p1147
tp1148
a(S'MPI_Allreduce()'
p1149
S'3474'
p1150
tp1151
a(S'MPI_Allreduce()'
p1152
S'3483'
p1153
tp1154
a(S'MPI_Allreduce()'
p1155
S'3492'
p1156
tp1157
a(S'MPI_Barrier()'
p1158
S'3498'
p1159
tp1160
a(S'MPI_Barrier()'
p1161
S'3504'
p1162
tp1163
a(S'MPI_Barrier()'
p1164
S'3510'
p1165
tp1166
a(S'MPI_Barrier()'
p1167
S'3516'
p1168
tp1169
a(S'MPI_Allreduce()'
p1170
S'3527'
p1171
tp1172
a(S'MPI_Allreduce()'
p1173
S'3538'
p1174
tp1175
a(S'MPI_Allreduce()'
p1176
S'3547'
p1177
tp1178
a(S'MPI_Barrier()'
p1179
S'3553'
p1180
tp1181
a(S'MPI_Barrier()'
p1182
S'3559'
p1183
tp1184
a(S'MPI_Barrier()'
p1185
S'3565'
p1186
tp1187
a(S'MPI_Barrier()'
p1188
S'3571'
p1189
tp1190
a(S'MPI_Allreduce()'
p1191
S'3580'
p1192
tp1193
a(S'MPI_Allreduce()'
p1194
S'3589'
p1195
tp1196
a(S'MPI_Allreduce()'
p1197
S'3598'
p1198
tp1199
a(S'MPI_Barrier()'
p1200
S'3604'
p1201
tp1202
a(S'MPI_Barrier()'
p1203
S'3610'
p1204
tp1205
a(S'MPI_Barrier()'
p1206
S'3616'
p1207
tp1208
a(S'MPI_Barrier()'
p1209
S'3622'
p1210
tp1211
a(S'MPI_Allreduce()'
p1212
S'3631'
p1213
tp1214
a(S'MPI_Allreduce()'
p1215
S'3640'
p1216
tp1217
a(S'MPI_Allreduce()'
p1218
S'3649'
p1219
tp1220
a(S'MPI_Barrier()'
p1221
S'3655'
p1222
tp1223
a(S'MPI_Barrier()'
p1224
S'3661'
p1225
tp1226
a(S'MPI_Barrier()'
p1227
S'3667'
p1228
tp1229
a(S'MPI_Barrier()'
p1230
S'3673'
p1231
tp1232
a(S'MPI_Allreduce()'
p1233
S'3682'
p1234
tp1235
a(S'MPI_Allreduce()'
p1236
S'3691'
p1237
tp1238
a(S'MPI_Allreduce()'
p1239
S'3700'
p1240
tp1241
a(S'MPI_Barrier()'
p1242
S'3706'
p1243
tp1244
a(S'MPI_Barrier()'
p1245
S'3712'
p1246
tp1247
a(S'MPI_Barrier()'
p1248
S'3718'
p1249
tp1250
a(S'MPI_Barrier()'
p1251
S'3724'
p1252
tp1253
a(S'MPI_Allreduce()'
p1254
S'3733'
p1255
tp1256
a(S'MPI_Allreduce()'
p1257
S'3742'
p1258
tp1259
a(S'MPI_Allreduce()'
p1260
S'3751'
p1261
tp1262
a(S'MPI_Barrier()'
p1263
S'3757'
p1264
tp1265
a(S'MPI_Barrier()'
p1266
S'3763'
p1267
tp1268
a(S'MPI_Barrier()'
p1269
S'3769'
p1270
tp1271
a(S'MPI_Barrier()'
p1272
S'3775'
p1273
tp1274
a(S'MPI_Allreduce()'
p1275
S'3786'
p1276
tp1277
a(S'MPI_Allreduce()'
p1278
S'3795'
p1279
tp1280
a(S'MPI_Allreduce()'
p1281
S'3804'
p1282
tp1283
a(S'MPI_Allreduce()'
p1284
S'3813'
p1285
tp1286
a(S'MPI_Comm_dup()'
p1287
S'3817'
p1288
tp1289
a(S'MPI_Allreduce()'
p1290
S'3825'
p1291
tp1292
a(S'MPI_Allreduce()'
p1293
S'3834'
p1294
tp1295
a(S'MPI_Allreduce()'
p1296
S'3843'
p1297
tp1298
a(S'MPI_Allreduce()'
p1299
S'3852'
p1300
tp1301
a(S'MPI_Allreduce()'
p1302
S'3861'
p1303
tp1304
a(S'MPI_Allreduce()'
p1305
S'3870'
p1306
tp1307
a(S'MPI_Allreduce()'
p1308
S'3879'
p1309
tp1310
a(S'MPI_Allreduce()'
p1311
S'3888'
p1312
tp1313
a(S'MPI_Allreduce()'
p1314
S'3897'
p1315
tp1316
a(S'MPI_Allreduce()'
p1317
S'3906'
p1318
tp1319
a(S'MPI_Allreduce()'
p1320
S'3915'
p1321
tp1322
a(S'MPI_Allreduce()'
p1323
S'3924'
p1324
tp1325
a(S'MPI_Allreduce()'
p1326
S'3933'
p1327
tp1328
a(S'MPI_Allreduce()'
p1329
S'3942'
p1330
tp1331
a(S'MPI_Allreduce()'
p1332
S'3951'
p1333
tp1334
a(S'MPI_Allreduce()'
p1335
S'3960'
p1336
tp1337
a(S'MPI_Comm_split()'
p1338
S'3966'
p1339
tp1340
a(S'MPI_Allreduce()'
p1341
S'3977'
p1342
tp1343
a(S'MPI_Allreduce()'
p1344
S'3986'
p1345
tp1346
a(S'MPI_Allreduce()'
p1347
S'3995'
p1348
tp1349
a(S'MPI_Allreduce()'
p1350
S'4004'
p1351
tp1352
a(S'MPI_Allreduce()'
p1353
S'4013'
p1354
tp1355
a(S'MPI_Allreduce()'
p1356
S'4022'
p1357
tp1358
a(S'MPI_Allreduce()'
p1359
S'4031'
p1360
tp1361
a(S'MPI_Allreduce()'
p1362
S'4040'
p1363
tp1364
a(S'MPI_Allreduce()'
p1365
S'4049'
p1366
tp1367
a(S'MPI_Allreduce()'
p1368
S'4058'
p1369
tp1370
a(S'MPI_Allreduce()'
p1371
S'4067'
p1372
tp1373
a(S'MPI_Comm_split()'
p1374
S'4073'
p1375
tp1376
a(S'MPI_Barrier()'
p1377
S'4088'
p1378
tp1379
a(S'MPI_Allreduce()'
p1380
S'4097'
p1381
tp1382
a(S'MPI_Barrier()'
p1383
S'4107'
p1384
tp1385
a(S'MPI_Allgather()'
p1386
S'4117'
p1387
tp1388
a(S'MPI_Barrier()'
p1389
S'4123'
p1390
tp1391
a(S'MPI_Barrier()'
p1392
S'4129'
p1393
tp1394
a(S'MPI_Barrier()'
p1395
S'4135'
p1396
tp1397
a(S'MPI_Barrier()'
p1398
S'4141'
p1399
tp1400
a(S'MPI_Allreduce()'
p1401
S'4150'
p1402
tp1403
a(S'MPI_Allreduce()'
p1404
S'4159'
p1405
tp1406
a(S'MPI_Allreduce()'
p1407
S'4168'
p1408
tp1409
a(S'MPI_Allreduce()'
p1410
S'4177'
p1411
tp1412
a(S'MPI_Allreduce()'
p1413
S'4188'
p1414
tp1415
a(S'MPI_Allreduce()'
p1416
S'4197'
p1417
tp1418
a(S'MPI_Allreduce()'
p1419
S'4206'
p1420
tp1421
a(S'MPI_Scan()'
p1422
S'4215'
p1423
tp1424
a(S'MPI_Allreduce()'
p1425
S'4272'
p1426
tp1427
a(S'MPI_Scan()'
p1428
S'4281'
p1429
tp1430
a(S'MPI_Allreduce()'
p1431
S'4337'
p1432
tp1433
a(S'MPI_Allreduce()'
p1434
S'4346'
p1435
tp1436
a(S'MPI_Allreduce()'
p1437
S'4355'
p1438
tp1439
a(S'MPI_Allreduce()'
p1440
S'4364'
p1441
tp1442
a(S'MPI_Allreduce()'
p1443
S'4373'
p1444
tp1445
a(S'MPI_Allreduce()'
p1446
S'4382'
p1447
tp1448
a(S'MPI_Allreduce()'
p1449
S'4391'
p1450
tp1451
a(S'MPI_Allreduce()'
p1452
S'4400'
p1453
tp1454
a(S'MPI_Allreduce()'
p1455
S'4409'
p1456
tp1457
a(S'MPI_Barrier()'
p1458
S'4415'
p1459
tp1460
a(S'MPI_Barrier()'
p1461
S'4421'
p1462
tp1463
a(S'MPI_Barrier()'
p1464
S'4427'
p1465
tp1466
a(S'MPI_Barrier()'
p1467
S'4433'
p1468
tp1469
a(S'MPI_Allreduce()'
p1470
S'4442'
p1471
tp1472
a(S'MPI_Allreduce()'
p1473
S'4451'
p1474
tp1475
a(S'MPI_Allreduce()'
p1476
S'4460'
p1477
tp1478
a(S'MPI_Barrier()'
p1479
S'4466'
p1480
tp1481
a(S'MPI_Barrier()'
p1482
S'4472'
p1483
tp1484
a(S'MPI_Barrier()'
p1485
S'4478'
p1486
tp1487
a(S'MPI_Barrier()'
p1488
S'4484'
p1489
tp1490
a(S'MPI_Allreduce()'
p1491
S'4493'
p1492
tp1493
a(S'MPI_Allreduce()'
p1494
S'4502'
p1495
tp1496
a(S'MPI_Allreduce()'
p1497
S'4511'
p1498
tp1499
a(S'MPI_Allreduce()'
p1500
S'4520'
p1501
tp1502
a(S'MPI_Barrier()'
p1503
S'4526'
p1504
tp1505
a(S'MPI_Barrier()'
p1506
S'4532'
p1507
tp1508
a(S'MPI_Barrier()'
p1509
S'4538'
p1510
tp1511
a(S'MPI_Barrier()'
p1512
S'4544'
p1513
tp1514
a(S'MPI_Allreduce()'
p1515
S'4553'
p1516
tp1517
a(S'MPI_Allreduce()'
p1518
S'4562'
p1519
tp1520
a(S'MPI_Allreduce()'
p1521
S'4571'
p1522
tp1523
a(S'MPI_Barrier()'
p1524
S'4577'
p1525
tp1526
a(S'MPI_Barrier()'
p1527
S'4583'
p1528
tp1529
a(S'MPI_Barrier()'
p1530
S'4589'
p1531
tp1532
a(S'MPI_Barrier()'
p1533
S'4595'
p1534
tp1535
a(S'MPI_Allreduce()'
p1536
S'4604'
p1537
tp1538
a(S'MPI_Allreduce()'
p1539
S'4613'
p1540
tp1541
a(S'MPI_Allreduce()'
p1542
S'4622'
p1543
tp1544
a(S'MPI_Allreduce()'
p1545
S'4631'
p1546
tp1547
a(S'MPI_Barrier()'
p1548
S'4637'
p1549
tp1550
a(S'MPI_Barrier()'
p1551
S'4643'
p1552
tp1553
a(S'MPI_Barrier()'
p1554
S'4649'
p1555
tp1556
a(S'MPI_Barrier()'
p1557
S'4655'
p1558
tp1559
a(S'MPI_Allreduce()'
p1560
S'4664'
p1561
tp1562
a(S'MPI_Allreduce()'
p1563
S'4673'
p1564
tp1565
a(S'MPI_Allreduce()'
p1566
S'4682'
p1567
tp1568
a(S'MPI_Barrier()'
p1569
S'4688'
p1570
tp1571
a(S'MPI_Barrier()'
p1572
S'4694'
p1573
tp1574
a(S'MPI_Barrier()'
p1575
S'4700'
p1576
tp1577
a(S'MPI_Barrier()'
p1578
S'4706'
p1579
tp1580
a(S'MPI_Allreduce()'
p1581
S'4715'
p1582
tp1583
a(S'MPI_Allreduce()'
p1584
S'4724'
p1585
tp1586
a(S'MPI_Allreduce()'
p1587
S'4733'
p1588
tp1589
a(S'MPI_Allreduce()'
p1590
S'4744'
p1591
tp1592
a(S'MPI_Barrier()'
p1593
S'4750'
p1594
tp1595
a(S'MPI_Barrier()'
p1596
S'4756'
p1597
tp1598
a(S'MPI_Barrier()'
p1599
S'4762'
p1600
tp1601
a(S'MPI_Barrier()'
p1602
S'4768'
p1603
tp1604
a(S'MPI_Allreduce()'
p1605
S'4777'
p1606
tp1607
a(S'MPI_Allreduce()'
p1608
S'4786'
p1609
tp1610
a(S'MPI_Allreduce()'
p1611
S'4795'
p1612
tp1613
a(S'MPI_Barrier()'
p1614
S'4801'
p1615
tp1616
a(S'MPI_Barrier()'
p1617
S'4807'
p1618
tp1619
a(S'MPI_Barrier()'
p1620
S'4813'
p1621
tp1622
a(S'MPI_Barrier()'
p1623
S'4819'
p1624
tp1625
a(S'MPI_Allreduce()'
p1626
S'4828'
p1627
tp1628
a(S'MPI_Allreduce()'
p1629
S'4837'
p1630
tp1631
a(S'MPI_Allreduce()'
p1632
S'4846'
p1633
tp1634
a(S'MPI_Allreduce()'
p1635
S'4855'
p1636
tp1637
a(S'MPI_Barrier()'
p1638
S'4861'
p1639
tp1640
a(S'MPI_Barrier()'
p1641
S'4867'
p1642
tp1643
a(S'MPI_Barrier()'
p1644
S'4873'
p1645
tp1646
a(S'MPI_Barrier()'
p1647
S'4879'
p1648
tp1649
a(S'MPI_Allreduce()'
p1650
S'4888'
p1651
tp1652
a(S'MPI_Allreduce()'
p1653
S'4897'
p1654
tp1655
a(S'MPI_Allreduce()'
p1656
S'4906'
p1657
tp1658
a(S'MPI_Allreduce()'
p1659
S'4915'
p1660
tp1661
a(S'MPI_Barrier()'
p1662
S'4921'
p1663
tp1664
a(S'MPI_Barrier()'
p1665
S'4927'
p1666
tp1667
a(S'MPI_Barrier()'
p1668
S'4933'
p1669
tp1670
a(S'MPI_Barrier()'
p1671
S'4939'
p1672
tp1673
a(S'MPI_Allreduce()'
p1674
S'4948'
p1675
tp1676
a(S'MPI_Allreduce()'
p1677
S'4957'
p1678
tp1679
a(S'MPI_Allreduce()'
p1680
S'4966'
p1681
tp1682
a(S'MPI_Allreduce()'
p1683
S'4975'
p1684
tp1685
a(S'MPI_Barrier()'
p1686
S'4981'
p1687
tp1688
a(S'MPI_Barrier()'
p1689
S'4987'
p1690
tp1691
a(S'MPI_Barrier()'
p1692
S'4993'
p1693
tp1694
a(S'MPI_Barrier()'
p1695
S'4999'
p1696
tp1697
a(S'MPI_Allreduce()'
p1698
S'5008'
p1699
tp1700
a(S'MPI_Allreduce()'
p1701
S'5017'
p1702
tp1703
a(S'MPI_Allreduce()'
p1704
S'5026'
p1705
tp1706
a(S'MPI_Allreduce()'
p1707
S'5035'
p1708
tp1709
a(S'MPI_Barrier()'
p1710
S'5041'
p1711
tp1712
a(S'MPI_Barrier()'
p1713
S'5047'
p1714
tp1715
a(S'MPI_Barrier()'
p1716
S'5053'
p1717
tp1718
a(S'MPI_Barrier()'
p1719
S'5059'
p1720
tp1721
a(S'MPI_Allreduce()'
p1722
S'5068'
p1723
tp1724
a(S'MPI_Allreduce()'
p1725
S'5077'
p1726
tp1727
a(S'MPI_Allreduce()'
p1728
S'5086'
p1729
tp1730
a(S'MPI_Barrier()'
p1731
S'5092'
p1732
tp1733
a(S'MPI_Barrier()'
p1734
S'5098'
p1735
tp1736
a(S'MPI_Barrier()'
p1737
S'5104'
p1738
tp1739
a(S'MPI_Barrier()'
p1740
S'5110'
p1741
tp1742
a(S'MPI_Allreduce()'
p1743
S'5119'
p1744
tp1745
a(S'MPI_Allreduce()'
p1746
S'5128'
p1747
tp1748
a(S'MPI_Allreduce()'
p1749
S'5137'
p1750
tp1751
a(S'MPI_Allreduce()'
p1752
S'5146'
p1753
tp1754
a(S'MPI_Allreduce()'
p1755
S'5155'
p1756
tp1757
a(S'MPI_Comm_dup()'
p1758
S'5159'
p1759
tp1760
a(S'MPI_Allreduce()'
p1761
S'5167'
p1762
tp1763
a(S'MPI_Allreduce()'
p1764
S'5176'
p1765
tp1766
a(S'MPI_Allreduce()'
p1767
S'5185'
p1768
tp1769
a(S'MPI_Allreduce()'
p1770
S'5194'
p1771
tp1772
a(S'MPI_Allreduce()'
p1773
S'5203'
p1774
tp1775
a(S'MPI_Allreduce()'
p1776
S'5212'
p1777
tp1778
a(S'MPI_Allreduce()'
p1779
S'5221'
p1780
tp1781
a(S'MPI_Allreduce()'
p1782
S'5230'
p1783
tp1784
a(S'MPI_Allreduce()'
p1785
S'5239'
p1786
tp1787
a(S'MPI_Comm_split()'
p1788
S'5245'
p1789
tp1790
a(S'MPI_Allreduce()'
p1791
S'5256'
p1792
tp1793
a(S'MPI_Allreduce()'
p1794
S'5265'
p1795
tp1796
a(S'MPI_Allreduce()'
p1797
S'5274'
p1798
tp1799
a(S'MPI_Allreduce()'
p1800
S'5283'
p1801
tp1802
a(S'MPI_Allreduce()'
p1803
S'5292'
p1804
tp1805
a(S'MPI_Allreduce()'
p1806
S'5301'
p1807
tp1808
a(S'MPI_Allreduce()'
p1809
S'5310'
p1810
tp1811
a(S'MPI_Comm_split()'
p1812
S'5316'
p1813
tp1814
a(S'MPI_Barrier()'
p1815
S'5331'
p1816
tp1817
a(S'MPI_Allreduce()'
p1818
S'5340'
p1819
tp1820
a(S'MPI_Barrier()'
p1821
S'5350'
p1822
tp1823
a(S'MPI_Allgather()'
p1824
S'5360'
p1825
tp1826
a(S'MPI_Barrier()'
p1827
S'5366'
p1828
tp1829
a(S'MPI_Barrier()'
p1830
S'5372'
p1831
tp1832
a(S'MPI_Barrier()'
p1833
S'5378'
p1834
tp1835
a(S'MPI_Barrier()'
p1836
S'5384'
p1837
tp1838
a(S'MPI_Allreduce()'
p1839
S'5393'
p1840
tp1841
a(S'MPI_Allreduce()'
p1842
S'5402'
p1843
tp1844
a(S'MPI_Allreduce()'
p1845
S'5411'
p1846
tp1847
a(S'MPI_Allreduce()'
p1848
S'5420'
p1849
tp1850
a(S'MPI_Allreduce()'
p1851
S'5429'
p1852
tp1853
a(S'MPI_Allreduce()'
p1854
S'5438'
p1855
tp1856
a(S'MPI_Allreduce()'
p1857
S'5447'
p1858
tp1859
a(S'MPI_Scan()'
p1860
S'5456'
p1861
tp1862
a(S'MPI_Allreduce()'
p1863
S'5513'
p1864
tp1865
a(S'MPI_Scan()'
p1866
S'5522'
p1867
tp1868
a(S'MPI_Allreduce()'
p1869
S'5578'
p1870
tp1871
a(S'MPI_Allreduce()'
p1872
S'5587'
p1873
tp1874
a(S'MPI_Allreduce()'
p1875
S'5596'
p1876
tp1877
a(S'MPI_Barrier()'
p1878
S'5602'
p1879
tp1880
a(S'MPI_Barrier()'
p1881
S'5608'
p1882
tp1883
a(S'MPI_Barrier()'
p1884
S'5614'
p1885
tp1886
a(S'MPI_Barrier()'
p1887
S'5620'
p1888
tp1889
a(S'MPI_Allreduce()'
p1890
S'5629'
p1891
tp1892
a(S'MPI_Allreduce()'
p1893
S'5638'
p1894
tp1895
a(S'MPI_Allreduce()'
p1896
S'5647'
p1897
tp1898
a(S'MPI_Barrier()'
p1899
S'5653'
p1900
tp1901
a(S'MPI_Barrier()'
p1902
S'5659'
p1903
tp1904
a(S'MPI_Barrier()'
p1905
S'5665'
p1906
tp1907
a(S'MPI_Barrier()'
p1908
S'5671'
p1909
tp1910
a(S'MPI_Allreduce()'
p1911
S'5682'
p1912
tp1913
a(S'MPI_Allreduce()'
p1914
S'5693'
p1915
tp1916
a(S'MPI_Allreduce()'
p1917
S'5702'
p1918
tp1919
a(S'MPI_Barrier()'
p1920
S'5708'
p1921
tp1922
a(S'MPI_Barrier()'
p1923
S'5714'
p1924
tp1925
a(S'MPI_Barrier()'
p1926
S'5720'
p1927
tp1928
a(S'MPI_Barrier()'
p1929
S'5726'
p1930
tp1931
a(S'MPI_Allreduce()'
p1932
S'5737'
p1933
tp1934
a(S'MPI_Allreduce()'
p1935
S'5746'
p1936
tp1937
a(S'MPI_Allreduce()'
p1938
S'5755'
p1939
tp1940
a(S'MPI_Barrier()'
p1941
S'5761'
p1942
tp1943
a(S'MPI_Barrier()'
p1944
S'5767'
p1945
tp1946
a(S'MPI_Barrier()'
p1947
S'5773'
p1948
tp1949
a(S'MPI_Barrier()'
p1950
S'5779'
p1951
tp1952
a(S'MPI_Allreduce()'
p1953
S'5790'
p1954
tp1955
a(S'MPI_Allreduce()'
p1956
S'5799'
p1957
tp1958
a(S'MPI_Allreduce()'
p1959
S'5808'
p1960
tp1961
a(S'MPI_Barrier()'
p1962
S'5814'
p1963
tp1964
a(S'MPI_Barrier()'
p1965
S'5820'
p1966
tp1967
a(S'MPI_Barrier()'
p1968
S'5826'
p1969
tp1970
a(S'MPI_Barrier()'
p1971
S'5832'
p1972
tp1973
a(S'MPI_Allreduce()'
p1974
S'5841'
p1975
tp1976
a(S'MPI_Allreduce()'
p1977
S'5850'
p1978
tp1979
a(S'MPI_Allreduce()'
p1980
S'5859'
p1981
tp1982
a(S'MPI_Barrier()'
p1983
S'5865'
p1984
tp1985
a(S'MPI_Barrier()'
p1986
S'5871'
p1987
tp1988
a(S'MPI_Barrier()'
p1989
S'5877'
p1990
tp1991
a(S'MPI_Barrier()'
p1992
S'5883'
p1993
tp1994
a(S'MPI_Allreduce()'
p1995
S'5892'
p1996
tp1997
a(S'MPI_Allreduce()'
p1998
S'5901'
p1999
tp2000
a(S'MPI_Allreduce()'
p2001
S'5910'
p2002
tp2003
a(S'MPI_Barrier()'
p2004
S'5916'
p2005
tp2006
a(S'MPI_Barrier()'
p2007
S'5922'
p2008
tp2009
a(S'MPI_Barrier()'
p2010
S'5928'
p2011
tp2012
a(S'MPI_Barrier()'
p2013
S'5934'
p2014
tp2015
a(S'MPI_Allreduce()'
p2016
S'5945'
p2017
tp2018
a(S'MPI_Allreduce()'
p2019
S'5954'
p2020
tp2021
a(S'MPI_Allreduce()'
p2022
S'5963'
p2023
tp2024
a(S'MPI_Barrier()'
p2025
S'5969'
p2026
tp2027
a(S'MPI_Barrier()'
p2028
S'5975'
p2029
tp2030
a(S'MPI_Barrier()'
p2031
S'5981'
p2032
tp2033
a(S'MPI_Barrier()'
p2034
S'5987'
p2035
tp2036
a(S'MPI_Allreduce()'
p2037
S'5996'
p2038
tp2039
a(S'MPI_Allreduce()'
p2040
S'6005'
p2041
tp2042
a(S'MPI_Allreduce()'
p2043
S'6014'
p2044
tp2045
a(S'MPI_Barrier()'
p2046
S'6020'
p2047
tp2048
a(S'MPI_Barrier()'
p2049
S'6026'
p2050
tp2051
a(S'MPI_Barrier()'
p2052
S'6032'
p2053
tp2054
a(S'MPI_Barrier()'
p2055
S'6038'
p2056
tp2057
a(S'MPI_Allreduce()'
p2058
S'6049'
p2059
tp2060
a(S'MPI_Allreduce()'
p2061
S'6058'
p2062
tp2063
a(S'MPI_Allreduce()'
p2064
S'6067'
p2065
tp2066
a(S'MPI_Barrier()'
p2067
S'6073'
p2068
tp2069
a(S'MPI_Barrier()'
p2070
S'6079'
p2071
tp2072
a(S'MPI_Barrier()'
p2073
S'6085'
p2074
tp2075
a(S'MPI_Barrier()'
p2076
S'6091'
p2077
tp2078
a(S'MPI_Allreduce()'
p2079
S'6100'
p2080
tp2081
a(S'MPI_Allreduce()'
p2082
S'6109'
p2083
tp2084
a(S'MPI_Allreduce()'
p2085
S'6118'
p2086
tp2087
a(S'MPI_Barrier()'
p2088
S'6124'
p2089
tp2090
a(S'MPI_Barrier()'
p2091
S'6130'
p2092
tp2093
a(S'MPI_Barrier()'
p2094
S'6136'
p2095
tp2096
a(S'MPI_Barrier()'
p2097
S'6142'
p2098
tp2099
a(S'MPI_Allreduce()'
p2100
S'6151'
p2101
tp2102
a(S'MPI_Allreduce()'
p2103
S'6160'
p2104
tp2105
a(S'MPI_Allreduce()'
p2106
S'6169'
p2107
tp2108
a(S'MPI_Barrier()'
p2109
S'6175'
p2110
tp2111
a(S'MPI_Barrier()'
p2112
S'6181'
p2113
tp2114
a(S'MPI_Barrier()'
p2115
S'6187'
p2116
tp2117
a(S'MPI_Barrier()'
p2118
S'6193'
p2119
tp2120
a(S'MPI_Allreduce()'
p2121
S'6202'
p2122
tp2123
a(S'MPI_Allreduce()'
p2124
S'6211'
p2125
tp2126
a(S'MPI_Allreduce()'
p2127
S'6220'
p2128
tp2129
a(S'MPI_Barrier()'
p2130
S'6226'
p2131
tp2132
a(S'MPI_Barrier()'
p2133
S'6232'
p2134
tp2135
a(S'MPI_Barrier()'
p2136
S'6238'
p2137
tp2138
a(S'MPI_Barrier()'
p2139
S'6244'
p2140
tp2141
a(S'MPI_Allreduce()'
p2142
S'6253'
p2143
tp2144
a(S'MPI_Allreduce()'
p2145
S'6262'
p2146
tp2147
a(S'MPI_Allreduce()'
p2148
S'6271'
p2149
tp2150
a(S'MPI_Allreduce()'
p2151
S'6280'
p2152
tp2153
a(S'MPI_Barrier()'
p2154
S'6286'
p2155
tp2156
a(S'MPI_Barrier()'
p2157
S'6292'
p2158
tp2159
a(S'MPI_Barrier()'
p2160
S'6298'
p2161
tp2162
a(S'MPI_Barrier()'
p2163
S'6304'
p2164
tp2165
a(S'MPI_Allreduce()'
p2166
S'6313'
p2167
tp2168
a(S'MPI_Allreduce()'
p2169
S'6322'
p2170
tp2171
a(S'MPI_Allreduce()'
p2172
S'6331'
p2173
tp2174
a(S'MPI_Allreduce()'
p2175
S'6340'
p2176
tp2177
a(S'MPI_Barrier()'
p2178
S'6346'
p2179
tp2180
a(S'MPI_Barrier()'
p2181
S'6352'
p2182
tp2183
a(S'MPI_Barrier()'
p2184
S'6358'
p2185
tp2186
a(S'MPI_Barrier()'
p2187
S'6364'
p2188
tp2189
a(S'MPI_Allreduce()'
p2190
S'6373'
p2191
tp2192
a(S'MPI_Allreduce()'
p2193
S'6382'
p2194
tp2195
a(S'MPI_Allreduce()'
p2196
S'6391'
p2197
tp2198
a(S'MPI_Allreduce()'
p2199
S'6400'
p2200
tp2201
a(S'MPI_Allreduce()'
p2202
S'6409'
p2203
tp2204
a(S'MPI_Comm_dup()'
p2205
S'6413'
p2206
tp2207
a(S'MPI_Allreduce()'
p2208
S'6421'
p2209
tp2210
a(S'MPI_Allreduce()'
p2211
S'6430'
p2212
tp2213
a(S'MPI_Allreduce()'
p2214
S'6439'
p2215
tp2216
a(S'MPI_Allreduce()'
p2217
S'6448'
p2218
tp2219
a(S'MPI_Allreduce()'
p2220
S'6457'
p2221
tp2222
a(S'MPI_Allreduce()'
p2223
S'6466'
p2224
tp2225
a(S'MPI_Allreduce()'
p2226
S'6475'
p2227
tp2228
a(S'MPI_Allreduce()'
p2229
S'6484'
p2230
tp2231
a(S'MPI_Allreduce()'
p2232
S'6493'
p2233
tp2234
a(S'MPI_Allreduce()'
p2235
S'6502'
p2236
tp2237
a(S'MPI_Allreduce()'
p2238
S'6511'
p2239
tp2240
a(S'MPI_Allreduce()'
p2241
S'6520'
p2242
tp2243
a(S'MPI_Allreduce()'
p2244
S'6529'
p2245
tp2246
a(S'MPI_Allreduce()'
p2247
S'6538'
p2248
tp2249
a(S'MPI_Allreduce()'
p2250
S'6547'
p2251
tp2252
a(S'MPI_Allreduce()'
p2253
S'6556'
p2254
tp2255
a(S'MPI_Comm_split()'
p2256
S'6562'
p2257
tp2258
a(S'MPI_Allreduce()'
p2259
S'6573'
p2260
tp2261
a(S'MPI_Allreduce()'
p2262
S'6582'
p2263
tp2264
a(S'MPI_Allreduce()'
p2265
S'6591'
p2266
tp2267
a(S'MPI_Allreduce()'
p2268
S'6600'
p2269
tp2270
a(S'MPI_Allreduce()'
p2271
S'6609'
p2272
tp2273
a(S'MPI_Allreduce()'
p2274
S'6618'
p2275
tp2276
a(S'MPI_Allreduce()'
p2277
S'6627'
p2278
tp2279
a(S'MPI_Allreduce()'
p2280
S'6636'
p2281
tp2282
a(S'MPI_Allreduce()'
p2283
S'6645'
p2284
tp2285
a(S'MPI_Allreduce()'
p2286
S'6654'
p2287
tp2288
a(S'MPI_Allreduce()'
p2289
S'6663'
p2290
tp2291
a(S'MPI_Allreduce()'
p2292
S'6672'
p2293
tp2294
a(S'MPI_Allreduce()'
p2295
S'6681'
p2296
tp2297
a(S'MPI_Comm_split()'
p2298
S'6687'
p2299
tp2300
a(S'MPI_Barrier()'
p2301
S'6702'
p2302
tp2303
a(S'MPI_Allreduce()'
p2304
S'6711'
p2305
tp2306
a(S'MPI_Barrier()'
p2307
S'6721'
p2308
tp2309
a(S'MPI_Allgather()'
p2310
S'6731'
p2311
tp2312
a(S'MPI_Barrier()'
p2313
S'6737'
p2314
tp2315
a(S'MPI_Barrier()'
p2316
S'6743'
p2317
tp2318
a(S'MPI_Barrier()'
p2319
S'6749'
p2320
tp2321
a(S'MPI_Barrier()'
p2322
S'6755'
p2323
tp2324
a(S'MPI_Allreduce()'
p2325
S'6764'
p2326
tp2327
a(S'MPI_Allreduce()'
p2328
S'6773'
p2329
tp2330
a(S'MPI_Allreduce()'
p2331
S'6782'
p2332
tp2333
a(S'MPI_Allreduce()'
p2334
S'6791'
p2335
tp2336
a(S'MPI_Allreduce()'
p2337
S'6800'
p2338
tp2339
a(S'MPI_Allreduce()'
p2340
S'6809'
p2341
tp2342
a(S'MPI_Allreduce()'
p2343
S'6818'
p2344
tp2345
a(S'MPI_Scan()'
p2346
S'6827'
p2347
tp2348
a(S'MPI_Allreduce()'
p2349
S'6884'
p2350
tp2351
a(S'MPI_Scan()'
p2352
S'6893'
p2353
tp2354
a(S'MPI_Allreduce()'
p2355
S'6949'
p2356
tp2357
a(S'MPI_Allreduce()'
p2358
S'6958'
p2359
tp2360
a(S'MPI_Allreduce()'
p2361
S'6967'
p2362
tp2363
a(S'MPI_Allreduce()'
p2364
S'6976'
p2365
tp2366
a(S'MPI_Allreduce()'
p2367
S'6985'
p2368
tp2369
a(S'MPI_Barrier()'
p2370
S'6991'
p2371
tp2372
a(S'MPI_Allreduce()'
p2373
S'7000'
p2374
tp2375
a(S'MPI_Allreduce()'
p2376
S'7009'
p2377
tp2378
a(S'MPI_Allreduce()'
p2379
S'7018'
p2380
tp2381
a(S'MPI_Allreduce()'
p2382
S'7027'
p2383
tp2384
a(S'MPI_Allreduce()'
p2385
S'7036'
p2386
tp2387
a(S'MPI_Allreduce()'
p2388
S'7045'
p2389
tp2390
a(S'MPI_Allreduce()'
p2391
S'7054'
p2392
tp2393
a(S'MPI_Allreduce()'
p2394
S'7063'
p2395
tp2396
a(S'MPI_Allreduce()'
p2397
S'7072'
p2398
tp2399
a(S'MPI_Allreduce()'
p2400
S'7081'
p2401
tp2402
a(S'MPI_Allreduce()'
p2403
S'7090'
p2404
tp2405
a(S'MPI_Allreduce()'
p2406
S'7099'
p2407
tp2408
a(S'MPI_Allreduce()'
p2409
S'7108'
p2410
tp2411
a(S'MPI_Allreduce()'
p2412
S'7117'
p2413
tp2414
a(S'MPI_Allreduce()'
p2415
S'7126'
p2416
tp2417
a(S'MPI_Allreduce()'
p2418
S'7135'
p2419
tp2420
a(S'MPI_Allreduce()'
p2421
S'7144'
p2422
tp2423
a(S'MPI_Allreduce()'
p2424
S'7153'
p2425
tp2426
a(S'MPI_Allreduce()'
p2427
S'7162'
p2428
tp2429
a(S'MPI_Allreduce()'
p2430
S'7171'
p2431
tp2432
a(S'MPI_Allreduce()'
p2433
S'7180'
p2434
tp2435
a(S'MPI_Allreduce()'
p2436
S'7189'
p2437
tp2438
a(S'MPI_Allreduce()'
p2439
S'7198'
p2440
tp2441
a(S'MPI_Allreduce()'
p2442
S'7207'
p2443
tp2444
a(S'MPI_Allreduce()'
p2445
S'7216'
p2446
tp2447
a(S'MPI_Allreduce()'
p2448
S'7225'
p2449
tp2450
a(S'MPI_Allreduce()'
p2451
S'7234'
p2452
tp2453
a(S'MPI_Allreduce()'
p2454
S'7243'
p2455
tp2456
a(S'MPI_Allreduce()'
p2457
S'7252'
p2458
tp2459
a(S'MPI_Allreduce()'
p2460
S'7261'
p2461
tp2462
a(S'MPI_Allreduce()'
p2463
S'7270'
p2464
tp2465
a(S'MPI_Allreduce()'
p2466
S'7279'
p2467
tp2468
a(S'MPI_Allreduce()'
p2469
S'7288'
p2470
tp2471
a(S'MPI_Allreduce()'
p2472
S'7297'
p2473
tp2474
a(S'MPI_Allreduce()'
p2475
S'7306'
p2476
tp2477
a(S'MPI_Allreduce()'
p2478
S'7315'
p2479
tp2480
a(S'MPI_Allreduce()'
p2481
S'7324'
p2482
tp2483
a(S'MPI_Allreduce()'
p2484
S'7333'
p2485
tp2486
a(S'MPI_Allreduce()'
p2487
S'7342'
p2488
tp2489
a(S'MPI_Allreduce()'
p2490
S'7351'
p2491
tp2492
a(S'MPI_Allreduce()'
p2493
S'7360'
p2494
tp2495
a(S'MPI_Allreduce()'
p2496
S'7369'
p2497
tp2498
a(S'MPI_Allreduce()'
p2499
S'7378'
p2500
tp2501
a(S'MPI_Allreduce()'
p2502
S'7387'
p2503
tp2504
a(S'MPI_Allreduce()'
p2505
S'7396'
p2506
tp2507
a(S'MPI_Bcast()'
p2508
S'7404'
p2509
tp2510
a(S'MPI_Bcast()'
p2511
S'7412'
p2512
tp2513
a(S'MPI_Allreduce()'
p2514
S'7498'
p2515
tp2516
a(S'MPI_Scan()'
p2517
S'7507'
p2518
tp2519
a(S'MPI_Bcast()'
p2520
S'7571'
p2521
tp2522
a(S'MPI_Barrier()'
p2523
S'7589'
p2524
tp2525
a(S'MPI_Gather()'
p2526
S'7605'
p2527
tp2528
a(S'MPI_Gather()'
p2529
S'7618'
p2530
tp2531
a(S'MPI_Gather()'
p2532
S'7631'
p2533
tp2534
a(S'MPI_Gather()'
p2535
S'7644'
p2536
tp2537
a(S'MPI_Gather()'
p2538
S'7657'
p2539
tp2540
a(S'MPI_Gather()'
p2541
S'7670'
p2542
tp2543
asS'io-profiling/skel_io/lammps_outputs/rank00000.cxx'
p2544
(lp2545
(S'MPI_Bcast()'
p2546
S'84'
p2547
tp2548
a(S'MPI_Bcast()'
p2549
S'94'
p2550
tp2551
a(S'MPI_Bcast()'
p2552
S'102'
p2553
tp2554
a(S'MPI_Bcast()'
p2555
S'110'
p2556
tp2557
a(S'MPI_Bcast()'
p2558
S'118'
p2559
tp2560
a(S'MPI_Bcast()'
p2561
S'126'
p2562
tp2563
a(S'MPI_Bcast()'
p2564
S'134'
p2565
tp2566
a(S'MPI_Bcast()'
p2567
S'142'
p2568
tp2569
a(S'MPI_Bcast()'
p2570
S'150'
p2571
tp2572
a(S'MPI_Bcast()'
p2573
S'158'
p2574
tp2575
a(S'MPI_Bcast()'
p2576
S'166'
p2577
tp2578
a(S'MPI_Bcast()'
p2579
S'174'
p2580
tp2581
a(S'MPI_Bcast()'
p2582
S'182'
p2583
tp2584
a(S'MPI_Bcast()'
p2585
S'190'
p2586
tp2587
a(S'MPI_Bcast()'
p2588
S'198'
p2589
tp2590
a(S'MPI_Bcast()'
p2591
S'206'
p2592
tp2593
a(S'MPI_Bcast()'
p2594
S'214'
p2595
tp2596
a(S'MPI_Bcast()'
p2597
S'222'
p2598
tp2599
a(S'MPI_Bcast()'
p2600
S'230'
p2601
tp2602
a(S'MPI_Bcast()'
p2603
S'238'
p2604
tp2605
a(S'MPI_Bcast()'
p2606
S'246'
p2607
tp2608
a(S'MPI_Bcast()'
p2609
S'254'
p2610
tp2611
a(S'MPI_Bcast()'
p2612
S'262'
p2613
tp2614
a(S'MPI_Bcast()'
p2615
S'270'
p2616
tp2617
a(S'MPI_Bcast()'
p2618
S'278'
p2619
tp2620
a(S'MPI_Bcast()'
p2621
S'286'
p2622
tp2623
a(S'MPI_Bcast()'
p2624
S'294'
p2625
tp2626
a(S'MPI_Bcast()'
p2627
S'302'
p2628
tp2629
a(S'MPI_Bcast()'
p2630
S'310'
p2631
tp2632
a(S'MPI_Allreduce()'
p2633
S'319'
p2634
tp2635
a(S'MPI_Bcast()'
p2636
S'327'
p2637
tp2638
a(S'MPI_Bcast()'
p2639
S'335'
p2640
tp2641
a(S'MPI_Bcast()'
p2642
S'343'
p2643
tp2644
a(S'MPI_Bcast()'
p2645
S'351'
p2646
tp2647
a(S'MPI_Bcast()'
p2648
S'359'
p2649
tp2650
a(S'MPI_Bcast()'
p2651
S'367'
p2652
tp2653
a(S'MPI_Bcast()'
p2654
S'375'
p2655
tp2656
a(S'MPI_Bcast()'
p2657
S'383'
p2658
tp2659
a(S'MPI_Cart_create()'
p2660
S'394'
p2661
tp2662
a(S'MPI_Bcast()'
p2663
S'405'
p2664
tp2665
a(S'MPI_Bcast()'
p2666
S'413'
p2667
tp2668
a(S'MPI_Bcast()'
p2669
S'421'
p2670
tp2671
a(S'MPI_Bcast()'
p2672
S'429'
p2673
tp2674
a(S'MPI_Barrier()'
p2675
S'435'
p2676
tp2677
a(S'MPI_Allreduce()'
p2678
S'444'
p2679
tp2680
a(S'MPI_Allreduce()'
p2681
S'453'
p2682
tp2683
a(S'MPI_Allreduce()'
p2684
S'462'
p2685
tp2686
a(S'MPI_Allreduce()'
p2687
S'471'
p2688
tp2689
a(S'MPI_Scan()'
p2690
S'480'
p2691
tp2692
a(S'MPI_Allreduce()'
p2693
S'489'
p2694
tp2695
a(S'MPI_Allreduce()'
p2696
S'498'
p2697
tp2698
a(S'MPI_Barrier()'
p2699
S'504'
p2700
tp2701
a(S'MPI_Bcast()'
p2702
S'514'
p2703
tp2704
a(S'MPI_Bcast()'
p2705
S'522'
p2706
tp2707
a(S'MPI_Bcast()'
p2708
S'530'
p2709
tp2710
a(S'MPI_Bcast()'
p2711
S'538'
p2712
tp2713
a(S'MPI_Bcast()'
p2714
S'546'
p2715
tp2716
a(S'MPI_Bcast()'
p2717
S'554'
p2718
tp2719
a(S'MPI_Allreduce()'
p2720
S'563'
p2721
tp2722
a(S'MPI_Allreduce()'
p2723
S'572'
p2724
tp2725
a(S'MPI_Allreduce()'
p2726
S'581'
p2727
tp2728
a(S'MPI_Allreduce()'
p2729
S'590'
p2730
tp2731
a(S'MPI_Allreduce()'
p2732
S'599'
p2733
tp2734
a(S'MPI_Allreduce()'
p2735
S'608'
p2736
tp2737
a(S'MPI_Bcast()'
p2738
S'616'
p2739
tp2740
a(S'MPI_Bcast()'
p2741
S'624'
p2742
tp2743
a(S'MPI_Allreduce()'
p2744
S'633'
p2745
tp2746
a(S'MPI_Bcast()'
p2747
S'641'
p2748
tp2749
a(S'MPI_Bcast()'
p2750
S'649'
p2751
tp2752
a(S'MPI_Bcast()'
p2753
S'657'
p2754
tp2755
a(S'MPI_Bcast()'
p2756
S'665'
p2757
tp2758
a(S'MPI_Bcast()'
p2759
S'673'
p2760
tp2761
a(S'MPI_Bcast()'
p2762
S'681'
p2763
tp2764
a(S'MPI_Bcast()'
p2765
S'689'
p2766
tp2767
a(S'MPI_Bcast()'
p2768
S'697'
p2769
tp2770
a(S'MPI_Bcast()'
p2771
S'705'
p2772
tp2773
a(S'MPI_Bcast()'
p2774
S'713'
p2775
tp2776
a(S'MPI_Bcast()'
p2777
S'721'
p2778
tp2779
a(S'MPI_Bcast()'
p2780
S'729'
p2781
tp2782
a(S'MPI_Bcast()'
p2783
S'737'
p2784
tp2785
a(S'MPI_Bcast()'
p2786
S'745'
p2787
tp2788
a(S'MPI_Bcast()'
p2789
S'753'
p2790
tp2791
a(S'MPI_Bcast()'
p2792
S'761'
p2793
tp2794
a(S'MPI_Bcast()'
p2795
S'769'
p2796
tp2797
a(S'MPI_Bcast()'
p2798
S'777'
p2799
tp2800
a(S'MPI_Bcast()'
p2801
S'785'
p2802
tp2803
a(S'MPI_Bcast()'
p2804
S'793'
p2805
tp2806
a(S'MPI_Bcast()'
p2807
S'801'
p2808
tp2809
a(S'MPI_Bcast()'
p2810
S'809'
p2811
tp2812
a(S'MPI_Bcast()'
p2813
S'817'
p2814
tp2815
a(S'MPI_Bcast()'
p2816
S'825'
p2817
tp2818
a(S'MPI_Bcast()'
p2819
S'833'
p2820
tp2821
a(S'MPI_Bcast()'
p2822
S'841'
p2823
tp2824
a(S'MPI_Bcast()'
p2825
S'849'
p2826
tp2827
a(S'MPI_Bcast()'
p2828
S'857'
p2829
tp2830
a(S'MPI_Bcast()'
p2831
S'865'
p2832
tp2833
a(S'MPI_Bcast()'
p2834
S'873'
p2835
tp2836
a(S'MPI_Bcast()'
p2837
S'881'
p2838
tp2839
a(S'MPI_Bcast()'
p2840
S'889'
p2841
tp2842
a(S'MPI_Bcast()'
p2843
S'897'
p2844
tp2845
a(S'MPI_Bcast()'
p2846
S'905'
p2847
tp2848
a(S'MPI_Bcast()'
p2849
S'913'
p2850
tp2851
a(S'MPI_Bcast()'
p2852
S'921'
p2853
tp2854
a(S'MPI_Bcast()'
p2855
S'929'
p2856
tp2857
a(S'MPI_Bcast()'
p2858
S'937'
p2859
tp2860
a(S'MPI_Bcast()'
p2861
S'948'
p2862
tp2863
a(S'MPI_Bcast()'
p2864
S'956'
p2865
tp2866
a(S'MPI_Bcast()'
p2867
S'967'
p2868
tp2869
a(S'MPI_Bcast()'
p2870
S'975'
p2871
tp2872
a(S'MPI_Bcast()'
p2873
S'983'
p2874
tp2875
a(S'MPI_Bcast()'
p2876
S'991'
p2877
tp2878
a(S'MPI_Bcast()'
p2879
S'999'
p2880
tp2881
a(S'MPI_Bcast()'
p2882
S'1007'
p2883
tp2884
a(S'MPI_Bcast()'
p2885
S'1015'
p2886
tp2887
a(S'MPI_Bcast()'
p2888
S'1023'
p2889
tp2890
a(S'MPI_Bcast()'
p2891
S'1031'
p2892
tp2893
a(S'MPI_Bcast()'
p2894
S'1039'
p2895
tp2896
a(S'MPI_Bcast()'
p2897
S'1047'
p2898
tp2899
a(S'MPI_Bcast()'
p2900
S'1055'
p2901
tp2902
a(S'MPI_Bcast()'
p2903
S'1063'
p2904
tp2905
a(S'MPI_Bcast()'
p2906
S'1071'
p2907
tp2908
a(S'MPI_Bcast()'
p2909
S'1079'
p2910
tp2911
a(S'MPI_Bcast()'
p2912
S'1087'
p2913
tp2914
a(S'MPI_Bcast()'
p2915
S'1095'
p2916
tp2917
a(S'MPI_Bcast()'
p2918
S'1103'
p2919
tp2920
a(S'MPI_Allreduce()'
p2921
S'1112'
p2922
tp2923
a(S'MPI_Allreduce()'
p2924
S'1123'
p2925
tp2926
a(S'MPI_Allreduce()'
p2927
S'1272'
p2928
tp2929
a(S'MPI_Allreduce()'
p2930
S'1281'
p2931
tp2932
a(S'MPI_Allreduce()'
p2933
S'1290'
p2934
tp2935
a(S'MPI_Comm_dup()'
p2936
S'1294'
p2937
tp2938
a(S'MPI_Allreduce()'
p2939
S'1302'
p2940
tp2941
a(S'MPI_Allreduce()'
p2942
S'1311'
p2943
tp2944
a(S'MPI_Scan()'
p2945
S'1320'
p2946
tp2947
a(S'MPI_Allreduce()'
p2948
S'1329'
p2949
tp2950
a(S'MPI_Scan()'
p2951
S'1338'
p2952
tp2953
a(S'MPI_Comm_split()'
p2954
S'1346'
p2955
tp2956
a(S'MPI_Allreduce()'
p2957
S'1357'
p2958
tp2959
a(S'MPI_Allreduce()'
p2960
S'1366'
p2961
tp2962
a(S'MPI_Scan()'
p2963
S'1375'
p2964
tp2965
a(S'MPI_Allreduce()'
p2966
S'1384'
p2967
tp2968
a(S'MPI_Scan()'
p2969
S'1393'
p2970
tp2971
a(S'MPI_Comm_split()'
p2972
S'1399'
p2973
tp2974
a(S'MPI_Barrier()'
p2975
S'1414'
p2976
tp2977
a(S'MPI_Allreduce()'
p2978
S'1423'
p2979
tp2980
a(S'MPI_Barrier()'
p2981
S'1433'
p2982
tp2983
a(S'MPI_Allgather()'
p2984
S'1443'
p2985
tp2986
a(S'MPI_Barrier()'
p2987
S'1449'
p2988
tp2989
a(S'MPI_Barrier()'
p2990
S'1455'
p2991
tp2992
a(S'MPI_Barrier()'
p2993
S'1461'
p2994
tp2995
a(S'MPI_Barrier()'
p2996
S'1467'
p2997
tp2998
a(S'MPI_Allreduce()'
p2999
S'1478'
p3000
tp3001
a(S'MPI_Allreduce()'
p3002
S'1487'
p3003
tp3004
a(S'MPI_Allreduce()'
p3005
S'1496'
p3006
tp3007
a(S'MPI_Allreduce()'
p3008
S'1505'
p3009
tp3010
a(S'MPI_Allreduce()'
p3011
S'1514'
p3012
tp3013
a(S'MPI_Allreduce()'
p3014
S'1523'
p3015
tp3016
a(S'MPI_Allreduce()'
p3017
S'1532'
p3018
tp3019
a(S'MPI_Allreduce()'
p3020
S'1541'
p3021
tp3022
a(S'MPI_Scan()'
p3023
S'1550'
p3024
tp3025
a(S'MPI_Allreduce()'
p3026
S'1660'
p3027
tp3028
a(S'MPI_Scan()'
p3029
S'1669'
p3030
tp3031
a(S'MPI_Reduce()'
p3032
S'1776'
p3033
tp3034
a(S'MPI_Reduce()'
p3035
S'1785'
p3036
tp3037
a(S'MPI_Reduce()'
p3038
S'1794'
p3039
tp3040
a(S'MPI_Allreduce()'
p3041
S'1803'
p3042
tp3043
a(S'MPI_Allreduce()'
p3044
S'1812'
p3045
tp3046
a(S'MPI_Allreduce()'
p3047
S'1821'
p3048
tp3049
a(S'MPI_Allreduce()'
p3050
S'1830'
p3051
tp3052
a(S'MPI_Allreduce()'
p3053
S'1839'
p3054
tp3055
a(S'MPI_Barrier()'
p3056
S'1845'
p3057
tp3058
a(S'MPI_Allreduce()'
p3059
S'1854'
p3060
tp3061
a(S'MPI_Allreduce()'
p3062
S'1863'
p3063
tp3064
a(S'MPI_Allreduce()'
p3065
S'1872'
p3066
tp3067
a(S'MPI_Allreduce()'
p3068
S'1881'
p3069
tp3070
a(S'MPI_Barrier()'
p3071
S'1887'
p3072
tp3073
a(S'MPI_Barrier()'
p3074
S'1893'
p3075
tp3076
a(S'MPI_Barrier()'
p3077
S'1899'
p3078
tp3079
a(S'MPI_Barrier()'
p3080
S'1905'
p3081
tp3082
a(S'MPI_Allreduce()'
p3083
S'1914'
p3084
tp3085
a(S'MPI_Allreduce()'
p3086
S'1923'
p3087
tp3088
a(S'MPI_Allreduce()'
p3089
S'1932'
p3090
tp3091
a(S'MPI_Allreduce()'
p3092
S'1941'
p3093
tp3094
a(S'MPI_Barrier()'
p3095
S'1947'
p3096
tp3097
a(S'MPI_Barrier()'
p3098
S'1953'
p3099
tp3100
a(S'MPI_Barrier()'
p3101
S'1959'
p3102
tp3103
a(S'MPI_Barrier()'
p3104
S'1965'
p3105
tp3106
a(S'MPI_Allreduce()'
p3107
S'1974'
p3108
tp3109
a(S'MPI_Allreduce()'
p3110
S'1983'
p3111
tp3112
a(S'MPI_Allreduce()'
p3113
S'1992'
p3114
tp3115
a(S'MPI_Allreduce()'
p3116
S'2001'
p3117
tp3118
a(S'MPI_Barrier()'
p3119
S'2007'
p3120
tp3121
a(S'MPI_Barrier()'
p3122
S'2013'
p3123
tp3124
a(S'MPI_Barrier()'
p3125
S'2019'
p3126
tp3127
a(S'MPI_Barrier()'
p3128
S'2025'
p3129
tp3130
a(S'MPI_Allreduce()'
p3131
S'2034'
p3132
tp3133
a(S'MPI_Allreduce()'
p3134
S'2043'
p3135
tp3136
a(S'MPI_Allreduce()'
p3137
S'2052'
p3138
tp3139
a(S'MPI_Allreduce()'
p3140
S'2061'
p3141
tp3142
a(S'MPI_Barrier()'
p3143
S'2067'
p3144
tp3145
a(S'MPI_Barrier()'
p3146
S'2073'
p3147
tp3148
a(S'MPI_Barrier()'
p3149
S'2079'
p3150
tp3151
a(S'MPI_Barrier()'
p3152
S'2085'
p3153
tp3154
a(S'MPI_Allreduce()'
p3155
S'2094'
p3156
tp3157
a(S'MPI_Allreduce()'
p3158
S'2103'
p3159
tp3160
a(S'MPI_Allreduce()'
p3161
S'2112'
p3162
tp3163
a(S'MPI_Allreduce()'
p3164
S'2121'
p3165
tp3166
a(S'MPI_Barrier()'
p3167
S'2127'
p3168
tp3169
a(S'MPI_Barrier()'
p3170
S'2133'
p3171
tp3172
a(S'MPI_Barrier()'
p3173
S'2139'
p3174
tp3175
a(S'MPI_Barrier()'
p3176
S'2145'
p3177
tp3178
a(S'MPI_Allreduce()'
p3179
S'2156'
p3180
tp3181
a(S'MPI_Allreduce()'
p3182
S'2165'
p3183
tp3184
a(S'MPI_Allreduce()'
p3185
S'2174'
p3186
tp3187
a(S'MPI_Allreduce()'
p3188
S'2183'
p3189
tp3190
a(S'MPI_Barrier()'
p3191
S'2189'
p3192
tp3193
a(S'MPI_Barrier()'
p3194
S'2195'
p3195
tp3196
a(S'MPI_Barrier()'
p3197
S'2201'
p3198
tp3199
a(S'MPI_Barrier()'
p3200
S'2207'
p3201
tp3202
a(S'MPI_Allreduce()'
p3203
S'2216'
p3204
tp3205
a(S'MPI_Allreduce()'
p3206
S'2225'
p3207
tp3208
a(S'MPI_Allreduce()'
p3209
S'2234'
p3210
tp3211
a(S'MPI_Allreduce()'
p3212
S'2243'
p3213
tp3214
a(S'MPI_Barrier()'
p3215
S'2249'
p3216
tp3217
a(S'MPI_Barrier()'
p3218
S'2255'
p3219
tp3220
a(S'MPI_Barrier()'
p3221
S'2261'
p3222
tp3223
a(S'MPI_Barrier()'
p3224
S'2267'
p3225
tp3226
a(S'MPI_Allreduce()'
p3227
S'2276'
p3228
tp3229
a(S'MPI_Allreduce()'
p3230
S'2285'
p3231
tp3232
a(S'MPI_Allreduce()'
p3233
S'2294'
p3234
tp3235
a(S'MPI_Allreduce()'
p3236
S'2303'
p3237
tp3238
a(S'MPI_Barrier()'
p3239
S'2309'
p3240
tp3241
a(S'MPI_Barrier()'
p3242
S'2315'
p3243
tp3244
a(S'MPI_Barrier()'
p3245
S'2321'
p3246
tp3247
a(S'MPI_Barrier()'
p3248
S'2327'
p3249
tp3250
a(S'MPI_Allreduce()'
p3251
S'2336'
p3252
tp3253
a(S'MPI_Allreduce()'
p3254
S'2345'
p3255
tp3256
a(S'MPI_Allreduce()'
p3257
S'2354'
p3258
tp3259
a(S'MPI_Allreduce()'
p3260
S'2363'
p3261
tp3262
a(S'MPI_Barrier()'
p3263
S'2369'
p3264
tp3265
a(S'MPI_Barrier()'
p3266
S'2375'
p3267
tp3268
a(S'MPI_Barrier()'
p3269
S'2381'
p3270
tp3271
a(S'MPI_Barrier()'
p3272
S'2387'
p3273
tp3274
a(S'MPI_Allreduce()'
p3275
S'2396'
p3276
tp3277
a(S'MPI_Allreduce()'
p3278
S'2405'
p3279
tp3280
a(S'MPI_Allreduce()'
p3281
S'2416'
p3282
tp3283
a(S'MPI_Allreduce()'
p3284
S'2427'
p3285
tp3286
a(S'MPI_Barrier()'
p3287
S'2433'
p3288
tp3289
a(S'MPI_Barrier()'
p3290
S'2439'
p3291
tp3292
a(S'MPI_Barrier()'
p3293
S'2445'
p3294
tp3295
a(S'MPI_Barrier()'
p3296
S'2451'
p3297
tp3298
a(S'MPI_Allreduce()'
p3299
S'2462'
p3300
tp3301
a(S'MPI_Allreduce()'
p3302
S'2473'
p3303
tp3304
a(S'MPI_Allreduce()'
p3305
S'2482'
p3306
tp3307
a(S'MPI_Allreduce()'
p3308
S'2491'
p3309
tp3310
a(S'MPI_Barrier()'
p3311
S'2497'
p3312
tp3313
a(S'MPI_Barrier()'
p3314
S'2503'
p3315
tp3316
a(S'MPI_Barrier()'
p3317
S'2509'
p3318
tp3319
a(S'MPI_Barrier()'
p3320
S'2515'
p3321
tp3322
a(S'MPI_Allreduce()'
p3323
S'2524'
p3324
tp3325
a(S'MPI_Allreduce()'
p3326
S'2533'
p3327
tp3328
a(S'MPI_Allreduce()'
p3329
S'2542'
p3330
tp3331
a(S'MPI_Barrier()'
p3332
S'2548'
p3333
tp3334
a(S'MPI_Barrier()'
p3335
S'2554'
p3336
tp3337
a(S'MPI_Barrier()'
p3338
S'2560'
p3339
tp3340
a(S'MPI_Barrier()'
p3341
S'2566'
p3342
tp3343
a(S'MPI_Allreduce()'
p3344
S'2575'
p3345
tp3346
a(S'MPI_Allreduce()'
p3347
S'2584'
p3348
tp3349
a(S'MPI_Allreduce()'
p3350
S'2593'
p3351
tp3352
a(S'MPI_Allreduce()'
p3353
S'2602'
p3354
tp3355
a(S'MPI_Allreduce()'
p3356
S'2611'
p3357
tp3358
a(S'MPI_Comm_dup()'
p3359
S'2615'
p3360
tp3361
a(S'MPI_Allreduce()'
p3362
S'2623'
p3363
tp3364
a(S'MPI_Allreduce()'
p3365
S'2632'
p3366
tp3367
a(S'MPI_Allreduce()'
p3368
S'2641'
p3369
tp3370
a(S'MPI_Allreduce()'
p3371
S'2650'
p3372
tp3373
a(S'MPI_Allreduce()'
p3374
S'2659'
p3375
tp3376
a(S'MPI_Allreduce()'
p3377
S'2668'
p3378
tp3379
a(S'MPI_Allreduce()'
p3380
S'2677'
p3381
tp3382
a(S'MPI_Allreduce()'
p3383
S'2686'
p3384
tp3385
a(S'MPI_Allreduce()'
p3386
S'2695'
p3387
tp3388
a(S'MPI_Comm_split()'
p3389
S'2701'
p3390
tp3391
a(S'MPI_Allreduce()'
p3392
S'2712'
p3393
tp3394
a(S'MPI_Allreduce()'
p3395
S'2721'
p3396
tp3397
a(S'MPI_Allreduce()'
p3398
S'2730'
p3399
tp3400
a(S'MPI_Allreduce()'
p3401
S'2739'
p3402
tp3403
a(S'MPI_Allreduce()'
p3404
S'2748'
p3405
tp3406
a(S'MPI_Allreduce()'
p3407
S'2757'
p3408
tp3409
a(S'MPI_Allreduce()'
p3410
S'2766'
p3411
tp3412
a(S'MPI_Allreduce()'
p3413
S'2775'
p3414
tp3415
a(S'MPI_Allreduce()'
p3416
S'2784'
p3417
tp3418
a(S'MPI_Allreduce()'
p3419
S'2793'
p3420
tp3421
a(S'MPI_Allreduce()'
p3422
S'2802'
p3423
tp3424
a(S'MPI_Comm_split()'
p3425
S'2808'
p3426
tp3427
a(S'MPI_Barrier()'
p3428
S'2823'
p3429
tp3430
a(S'MPI_Allreduce()'
p3431
S'2832'
p3432
tp3433
a(S'MPI_Barrier()'
p3434
S'2842'
p3435
tp3436
a(S'MPI_Allgather()'
p3437
S'2852'
p3438
tp3439
a(S'MPI_Barrier()'
p3440
S'2858'
p3441
tp3442
a(S'MPI_Barrier()'
p3443
S'2864'
p3444
tp3445
a(S'MPI_Barrier()'
p3446
S'2870'
p3447
tp3448
a(S'MPI_Barrier()'
p3449
S'2876'
p3450
tp3451
a(S'MPI_Allreduce()'
p3452
S'2885'
p3453
tp3454
a(S'MPI_Allreduce()'
p3455
S'2894'
p3456
tp3457
a(S'MPI_Allreduce()'
p3458
S'2903'
p3459
tp3460
a(S'MPI_Allreduce()'
p3461
S'2912'
p3462
tp3463
a(S'MPI_Allreduce()'
p3464
S'2921'
p3465
tp3466
a(S'MPI_Allreduce()'
p3467
S'2930'
p3468
tp3469
a(S'MPI_Allreduce()'
p3470
S'2939'
p3471
tp3472
a(S'MPI_Scan()'
p3473
S'2948'
p3474
tp3475
a(S'MPI_Allreduce()'
p3476
S'3053'
p3477
tp3478
a(S'MPI_Scan()'
p3479
S'3062'
p3480
tp3481
a(S'MPI_Allreduce()'
p3482
S'3166'
p3483
tp3484
a(S'MPI_Allreduce()'
p3485
S'3175'
p3486
tp3487
a(S'MPI_Allreduce()'
p3488
S'3184'
p3489
tp3490
a(S'MPI_Barrier()'
p3491
S'3190'
p3492
tp3493
a(S'MPI_Barrier()'
p3494
S'3196'
p3495
tp3496
a(S'MPI_Barrier()'
p3497
S'3202'
p3498
tp3499
a(S'MPI_Barrier()'
p3500
S'3208'
p3501
tp3502
a(S'MPI_Allreduce()'
p3503
S'3217'
p3504
tp3505
a(S'MPI_Allreduce()'
p3506
S'3226'
p3507
tp3508
a(S'MPI_Allreduce()'
p3509
S'3237'
p3510
tp3511
a(S'MPI_Barrier()'
p3512
S'3243'
p3513
tp3514
a(S'MPI_Barrier()'
p3515
S'3249'
p3516
tp3517
a(S'MPI_Barrier()'
p3518
S'3255'
p3519
tp3520
a(S'MPI_Barrier()'
p3521
S'3261'
p3522
tp3523
a(S'MPI_Allreduce()'
p3524
S'3272'
p3525
tp3526
a(S'MPI_Allreduce()'
p3527
S'3281'
p3528
tp3529
a(S'MPI_Allreduce()'
p3530
S'3290'
p3531
tp3532
a(S'MPI_Barrier()'
p3533
S'3296'
p3534
tp3535
a(S'MPI_Barrier()'
p3536
S'3302'
p3537
tp3538
a(S'MPI_Barrier()'
p3539
S'3308'
p3540
tp3541
a(S'MPI_Barrier()'
p3542
S'3314'
p3543
tp3544
a(S'MPI_Allreduce()'
p3545
S'3323'
p3546
tp3547
a(S'MPI_Allreduce()'
p3548
S'3332'
p3549
tp3550
a(S'MPI_Allreduce()'
p3551
S'3341'
p3552
tp3553
a(S'MPI_Barrier()'
p3554
S'3347'
p3555
tp3556
a(S'MPI_Barrier()'
p3557
S'3353'
p3558
tp3559
a(S'MPI_Barrier()'
p3560
S'3359'
p3561
tp3562
a(S'MPI_Barrier()'
p3563
S'3365'
p3564
tp3565
a(S'MPI_Allreduce()'
p3566
S'3374'
p3567
tp3568
a(S'MPI_Allreduce()'
p3569
S'3383'
p3570
tp3571
a(S'MPI_Allreduce()'
p3572
S'3392'
p3573
tp3574
a(S'MPI_Barrier()'
p3575
S'3398'
p3576
tp3577
a(S'MPI_Barrier()'
p3578
S'3404'
p3579
tp3580
a(S'MPI_Barrier()'
p3581
S'3410'
p3582
tp3583
a(S'MPI_Barrier()'
p3584
S'3416'
p3585
tp3586
a(S'MPI_Allreduce()'
p3587
S'3425'
p3588
tp3589
a(S'MPI_Allreduce()'
p3590
S'3434'
p3591
tp3592
a(S'MPI_Allreduce()'
p3593
S'3443'
p3594
tp3595
a(S'MPI_Barrier()'
p3596
S'3449'
p3597
tp3598
a(S'MPI_Barrier()'
p3599
S'3455'
p3600
tp3601
a(S'MPI_Barrier()'
p3602
S'3461'
p3603
tp3604
a(S'MPI_Barrier()'
p3605
S'3467'
p3606
tp3607
a(S'MPI_Allreduce()'
p3608
S'3478'
p3609
tp3610
a(S'MPI_Allreduce()'
p3611
S'3489'
p3612
tp3613
a(S'MPI_Allreduce()'
p3614
S'3498'
p3615
tp3616
a(S'MPI_Barrier()'
p3617
S'3504'
p3618
tp3619
a(S'MPI_Barrier()'
p3620
S'3510'
p3621
tp3622
a(S'MPI_Barrier()'
p3623
S'3516'
p3624
tp3625
a(S'MPI_Barrier()'
p3626
S'3522'
p3627
tp3628
a(S'MPI_Allreduce()'
p3629
S'3531'
p3630
tp3631
a(S'MPI_Allreduce()'
p3632
S'3540'
p3633
tp3634
a(S'MPI_Allreduce()'
p3635
S'3551'
p3636
tp3637
a(S'MPI_Barrier()'
p3638
S'3557'
p3639
tp3640
a(S'MPI_Barrier()'
p3641
S'3563'
p3642
tp3643
a(S'MPI_Barrier()'
p3644
S'3569'
p3645
tp3646
a(S'MPI_Barrier()'
p3647
S'3575'
p3648
tp3649
a(S'MPI_Allreduce()'
p3650
S'3584'
p3651
tp3652
a(S'MPI_Allreduce()'
p3653
S'3593'
p3654
tp3655
a(S'MPI_Allreduce()'
p3656
S'3602'
p3657
tp3658
a(S'MPI_Barrier()'
p3659
S'3608'
p3660
tp3661
a(S'MPI_Barrier()'
p3662
S'3614'
p3663
tp3664
a(S'MPI_Barrier()'
p3665
S'3620'
p3666
tp3667
a(S'MPI_Barrier()'
p3668
S'3626'
p3669
tp3670
a(S'MPI_Allreduce()'
p3671
S'3635'
p3672
tp3673
a(S'MPI_Allreduce()'
p3674
S'3644'
p3675
tp3676
a(S'MPI_Allreduce()'
p3677
S'3653'
p3678
tp3679
a(S'MPI_Barrier()'
p3680
S'3659'
p3681
tp3682
a(S'MPI_Barrier()'
p3683
S'3665'
p3684
tp3685
a(S'MPI_Barrier()'
p3686
S'3671'
p3687
tp3688
a(S'MPI_Barrier()'
p3689
S'3677'
p3690
tp3691
a(S'MPI_Allreduce()'
p3692
S'3686'
p3693
tp3694
a(S'MPI_Allreduce()'
p3695
S'3695'
p3696
tp3697
a(S'MPI_Allreduce()'
p3698
S'3704'
p3699
tp3700
a(S'MPI_Barrier()'
p3701
S'3710'
p3702
tp3703
a(S'MPI_Barrier()'
p3704
S'3716'
p3705
tp3706
a(S'MPI_Barrier()'
p3707
S'3722'
p3708
tp3709
a(S'MPI_Barrier()'
p3710
S'3728'
p3711
tp3712
a(S'MPI_Allreduce()'
p3713
S'3739'
p3714
tp3715
a(S'MPI_Allreduce()'
p3716
S'3750'
p3717
tp3718
a(S'MPI_Allreduce()'
p3719
S'3759'
p3720
tp3721
a(S'MPI_Barrier()'
p3722
S'3765'
p3723
tp3724
a(S'MPI_Barrier()'
p3725
S'3771'
p3726
tp3727
a(S'MPI_Barrier()'
p3728
S'3777'
p3729
tp3730
a(S'MPI_Barrier()'
p3731
S'3783'
p3732
tp3733
a(S'MPI_Allreduce()'
p3734
S'3792'
p3735
tp3736
a(S'MPI_Allreduce()'
p3737
S'3801'
p3738
tp3739
a(S'MPI_Allreduce()'
p3740
S'3810'
p3741
tp3742
a(S'MPI_Barrier()'
p3743
S'3816'
p3744
tp3745
a(S'MPI_Barrier()'
p3746
S'3822'
p3747
tp3748
a(S'MPI_Barrier()'
p3749
S'3828'
p3750
tp3751
a(S'MPI_Barrier()'
p3752
S'3834'
p3753
tp3754
a(S'MPI_Allreduce()'
p3755
S'3843'
p3756
tp3757
a(S'MPI_Allreduce()'
p3758
S'3852'
p3759
tp3760
a(S'MPI_Allreduce()'
p3761
S'3861'
p3762
tp3763
a(S'MPI_Barrier()'
p3764
S'3867'
p3765
tp3766
a(S'MPI_Barrier()'
p3767
S'3873'
p3768
tp3769
a(S'MPI_Barrier()'
p3770
S'3879'
p3771
tp3772
a(S'MPI_Barrier()'
p3773
S'3885'
p3774
tp3775
a(S'MPI_Allreduce()'
p3776
S'3894'
p3777
tp3778
a(S'MPI_Allreduce()'
p3779
S'3903'
p3780
tp3781
a(S'MPI_Allreduce()'
p3782
S'3912'
p3783
tp3784
a(S'MPI_Barrier()'
p3785
S'3918'
p3786
tp3787
a(S'MPI_Barrier()'
p3788
S'3924'
p3789
tp3790
a(S'MPI_Barrier()'
p3791
S'3930'
p3792
tp3793
a(S'MPI_Barrier()'
p3794
S'3936'
p3795
tp3796
a(S'MPI_Allreduce()'
p3797
S'3945'
p3798
tp3799
a(S'MPI_Allreduce()'
p3800
S'3954'
p3801
tp3802
a(S'MPI_Allreduce()'
p3803
S'3963'
p3804
tp3805
a(S'MPI_Barrier()'
p3806
S'3969'
p3807
tp3808
a(S'MPI_Barrier()'
p3809
S'3975'
p3810
tp3811
a(S'MPI_Barrier()'
p3812
S'3981'
p3813
tp3814
a(S'MPI_Barrier()'
p3815
S'3987'
p3816
tp3817
a(S'MPI_Allreduce()'
p3818
S'3998'
p3819
tp3820
a(S'MPI_Allreduce()'
p3821
S'4007'
p3822
tp3823
a(S'MPI_Allreduce()'
p3824
S'4016'
p3825
tp3826
a(S'MPI_Allreduce()'
p3827
S'4025'
p3828
tp3829
a(S'MPI_Comm_dup()'
p3830
S'4029'
p3831
tp3832
a(S'MPI_Allreduce()'
p3833
S'4037'
p3834
tp3835
a(S'MPI_Allreduce()'
p3836
S'4046'
p3837
tp3838
a(S'MPI_Allreduce()'
p3839
S'4055'
p3840
tp3841
a(S'MPI_Allreduce()'
p3842
S'4064'
p3843
tp3844
a(S'MPI_Allreduce()'
p3845
S'4073'
p3846
tp3847
a(S'MPI_Allreduce()'
p3848
S'4082'
p3849
tp3850
a(S'MPI_Allreduce()'
p3851
S'4091'
p3852
tp3853
a(S'MPI_Allreduce()'
p3854
S'4100'
p3855
tp3856
a(S'MPI_Allreduce()'
p3857
S'4109'
p3858
tp3859
a(S'MPI_Allreduce()'
p3860
S'4118'
p3861
tp3862
a(S'MPI_Allreduce()'
p3863
S'4127'
p3864
tp3865
a(S'MPI_Allreduce()'
p3866
S'4136'
p3867
tp3868
a(S'MPI_Allreduce()'
p3869
S'4145'
p3870
tp3871
a(S'MPI_Allreduce()'
p3872
S'4154'
p3873
tp3874
a(S'MPI_Allreduce()'
p3875
S'4163'
p3876
tp3877
a(S'MPI_Allreduce()'
p3878
S'4172'
p3879
tp3880
a(S'MPI_Comm_split()'
p3881
S'4178'
p3882
tp3883
a(S'MPI_Allreduce()'
p3884
S'4189'
p3885
tp3886
a(S'MPI_Allreduce()'
p3887
S'4198'
p3888
tp3889
a(S'MPI_Allreduce()'
p3890
S'4207'
p3891
tp3892
a(S'MPI_Allreduce()'
p3893
S'4216'
p3894
tp3895
a(S'MPI_Allreduce()'
p3896
S'4225'
p3897
tp3898
a(S'MPI_Allreduce()'
p3899
S'4234'
p3900
tp3901
a(S'MPI_Allreduce()'
p3902
S'4243'
p3903
tp3904
a(S'MPI_Allreduce()'
p3905
S'4252'
p3906
tp3907
a(S'MPI_Comm_split()'
p3908
S'4258'
p3909
tp3910
a(S'MPI_Barrier()'
p3911
S'4273'
p3912
tp3913
a(S'MPI_Allreduce()'
p3914
S'4282'
p3915
tp3916
a(S'MPI_Barrier()'
p3917
S'4292'
p3918
tp3919
a(S'MPI_Allgather()'
p3920
S'4302'
p3921
tp3922
a(S'MPI_Barrier()'
p3923
S'4308'
p3924
tp3925
a(S'MPI_Barrier()'
p3926
S'4314'
p3927
tp3928
a(S'MPI_Barrier()'
p3929
S'4320'
p3930
tp3931
a(S'MPI_Barrier()'
p3932
S'4326'
p3933
tp3934
a(S'MPI_Allreduce()'
p3935
S'4335'
p3936
tp3937
a(S'MPI_Allreduce()'
p3938
S'4344'
p3939
tp3940
a(S'MPI_Allreduce()'
p3941
S'4353'
p3942
tp3943
a(S'MPI_Allreduce()'
p3944
S'4362'
p3945
tp3946
a(S'MPI_Allreduce()'
p3947
S'4371'
p3948
tp3949
a(S'MPI_Allreduce()'
p3950
S'4380'
p3951
tp3952
a(S'MPI_Allreduce()'
p3953
S'4389'
p3954
tp3955
a(S'MPI_Scan()'
p3956
S'4398'
p3957
tp3958
a(S'MPI_Allreduce()'
p3959
S'4503'
p3960
tp3961
a(S'MPI_Scan()'
p3962
S'4512'
p3963
tp3964
a(S'MPI_Allreduce()'
p3965
S'4616'
p3966
tp3967
a(S'MPI_Allreduce()'
p3968
S'4625'
p3969
tp3970
a(S'MPI_Allreduce()'
p3971
S'4634'
p3972
tp3973
a(S'MPI_Allreduce()'
p3974
S'4643'
p3975
tp3976
a(S'MPI_Allreduce()'
p3977
S'4652'
p3978
tp3979
a(S'MPI_Allreduce()'
p3980
S'4661'
p3981
tp3982
a(S'MPI_Allreduce()'
p3983
S'4670'
p3984
tp3985
a(S'MPI_Allreduce()'
p3986
S'4679'
p3987
tp3988
a(S'MPI_Allreduce()'
p3989
S'4688'
p3990
tp3991
a(S'MPI_Barrier()'
p3992
S'4694'
p3993
tp3994
a(S'MPI_Barrier()'
p3995
S'4700'
p3996
tp3997
a(S'MPI_Barrier()'
p3998
S'4706'
p3999
tp4000
a(S'MPI_Barrier()'
p4001
S'4712'
p4002
tp4003
a(S'MPI_Allreduce()'
p4004
S'4721'
p4005
tp4006
a(S'MPI_Allreduce()'
p4007
S'4730'
p4008
tp4009
a(S'MPI_Allreduce()'
p4010
S'4739'
p4011
tp4012
a(S'MPI_Barrier()'
p4013
S'4745'
p4014
tp4015
a(S'MPI_Barrier()'
p4016
S'4751'
p4017
tp4018
a(S'MPI_Barrier()'
p4019
S'4757'
p4020
tp4021
a(S'MPI_Barrier()'
p4022
S'4763'
p4023
tp4024
a(S'MPI_Allreduce()'
p4025
S'4772'
p4026
tp4027
a(S'MPI_Allreduce()'
p4028
S'4781'
p4029
tp4030
a(S'MPI_Allreduce()'
p4031
S'4790'
p4032
tp4033
a(S'MPI_Allreduce()'
p4034
S'4799'
p4035
tp4036
a(S'MPI_Barrier()'
p4037
S'4805'
p4038
tp4039
a(S'MPI_Barrier()'
p4040
S'4811'
p4041
tp4042
a(S'MPI_Barrier()'
p4043
S'4817'
p4044
tp4045
a(S'MPI_Barrier()'
p4046
S'4823'
p4047
tp4048
a(S'MPI_Allreduce()'
p4049
S'4832'
p4050
tp4051
a(S'MPI_Allreduce()'
p4052
S'4841'
p4053
tp4054
a(S'MPI_Allreduce()'
p4055
S'4850'
p4056
tp4057
a(S'MPI_Barrier()'
p4058
S'4856'
p4059
tp4060
a(S'MPI_Barrier()'
p4061
S'4862'
p4062
tp4063
a(S'MPI_Barrier()'
p4064
S'4868'
p4065
tp4066
a(S'MPI_Barrier()'
p4067
S'4874'
p4068
tp4069
a(S'MPI_Allreduce()'
p4070
S'4883'
p4071
tp4072
a(S'MPI_Allreduce()'
p4073
S'4892'
p4074
tp4075
a(S'MPI_Allreduce()'
p4076
S'4901'
p4077
tp4078
a(S'MPI_Allreduce()'
p4079
S'4910'
p4080
tp4081
a(S'MPI_Barrier()'
p4082
S'4916'
p4083
tp4084
a(S'MPI_Barrier()'
p4085
S'4922'
p4086
tp4087
a(S'MPI_Barrier()'
p4088
S'4928'
p4089
tp4090
a(S'MPI_Barrier()'
p4091
S'4934'
p4092
tp4093
a(S'MPI_Allreduce()'
p4094
S'4943'
p4095
tp4096
a(S'MPI_Allreduce()'
p4097
S'4952'
p4098
tp4099
a(S'MPI_Allreduce()'
p4100
S'4961'
p4101
tp4102
a(S'MPI_Barrier()'
p4103
S'4967'
p4104
tp4105
a(S'MPI_Barrier()'
p4106
S'4973'
p4107
tp4108
a(S'MPI_Barrier()'
p4109
S'4979'
p4110
tp4111
a(S'MPI_Barrier()'
p4112
S'4985'
p4113
tp4114
a(S'MPI_Allreduce()'
p4115
S'4994'
p4116
tp4117
a(S'MPI_Allreduce()'
p4118
S'5003'
p4119
tp4120
a(S'MPI_Allreduce()'
p4121
S'5012'
p4122
tp4123
a(S'MPI_Allreduce()'
p4124
S'5023'
p4125
tp4126
a(S'MPI_Barrier()'
p4127
S'5029'
p4128
tp4129
a(S'MPI_Barrier()'
p4130
S'5035'
p4131
tp4132
a(S'MPI_Barrier()'
p4133
S'5041'
p4134
tp4135
a(S'MPI_Barrier()'
p4136
S'5047'
p4137
tp4138
a(S'MPI_Allreduce()'
p4139
S'5056'
p4140
tp4141
a(S'MPI_Allreduce()'
p4142
S'5065'
p4143
tp4144
a(S'MPI_Allreduce()'
p4145
S'5074'
p4146
tp4147
a(S'MPI_Barrier()'
p4148
S'5080'
p4149
tp4150
a(S'MPI_Barrier()'
p4151
S'5086'
p4152
tp4153
a(S'MPI_Barrier()'
p4154
S'5092'
p4155
tp4156
a(S'MPI_Barrier()'
p4157
S'5098'
p4158
tp4159
a(S'MPI_Allreduce()'
p4160
S'5107'
p4161
tp4162
a(S'MPI_Allreduce()'
p4163
S'5116'
p4164
tp4165
a(S'MPI_Allreduce()'
p4166
S'5125'
p4167
tp4168
a(S'MPI_Allreduce()'
p4169
S'5134'
p4170
tp4171
a(S'MPI_Barrier()'
p4172
S'5140'
p4173
tp4174
a(S'MPI_Barrier()'
p4175
S'5146'
p4176
tp4177
a(S'MPI_Barrier()'
p4178
S'5152'
p4179
tp4180
a(S'MPI_Barrier()'
p4181
S'5158'
p4182
tp4183
a(S'MPI_Allreduce()'
p4184
S'5167'
p4185
tp4186
a(S'MPI_Allreduce()'
p4187
S'5176'
p4188
tp4189
a(S'MPI_Allreduce()'
p4190
S'5185'
p4191
tp4192
a(S'MPI_Allreduce()'
p4193
S'5194'
p4194
tp4195
a(S'MPI_Barrier()'
p4196
S'5200'
p4197
tp4198
a(S'MPI_Barrier()'
p4199
S'5206'
p4200
tp4201
a(S'MPI_Barrier()'
p4202
S'5212'
p4203
tp4204
a(S'MPI_Barrier()'
p4205
S'5218'
p4206
tp4207
a(S'MPI_Allreduce()'
p4208
S'5227'
p4209
tp4210
a(S'MPI_Allreduce()'
p4211
S'5236'
p4212
tp4213
a(S'MPI_Allreduce()'
p4214
S'5245'
p4215
tp4216
a(S'MPI_Allreduce()'
p4217
S'5254'
p4218
tp4219
a(S'MPI_Barrier()'
p4220
S'5260'
p4221
tp4222
a(S'MPI_Barrier()'
p4223
S'5266'
p4224
tp4225
a(S'MPI_Barrier()'
p4226
S'5272'
p4227
tp4228
a(S'MPI_Barrier()'
p4229
S'5278'
p4230
tp4231
a(S'MPI_Allreduce()'
p4232
S'5287'
p4233
tp4234
a(S'MPI_Allreduce()'
p4235
S'5296'
p4236
tp4237
a(S'MPI_Allreduce()'
p4238
S'5305'
p4239
tp4240
a(S'MPI_Allreduce()'
p4241
S'5314'
p4242
tp4243
a(S'MPI_Barrier()'
p4244
S'5320'
p4245
tp4246
a(S'MPI_Barrier()'
p4247
S'5326'
p4248
tp4249
a(S'MPI_Barrier()'
p4250
S'5332'
p4251
tp4252
a(S'MPI_Barrier()'
p4253
S'5338'
p4254
tp4255
a(S'MPI_Allreduce()'
p4256
S'5347'
p4257
tp4258
a(S'MPI_Allreduce()'
p4259
S'5356'
p4260
tp4261
a(S'MPI_Allreduce()'
p4262
S'5365'
p4263
tp4264
a(S'MPI_Barrier()'
p4265
S'5371'
p4266
tp4267
a(S'MPI_Barrier()'
p4268
S'5377'
p4269
tp4270
a(S'MPI_Barrier()'
p4271
S'5383'
p4272
tp4273
a(S'MPI_Barrier()'
p4274
S'5389'
p4275
tp4276
a(S'MPI_Allreduce()'
p4277
S'5398'
p4278
tp4279
a(S'MPI_Allreduce()'
p4280
S'5407'
p4281
tp4282
a(S'MPI_Allreduce()'
p4283
S'5416'
p4284
tp4285
a(S'MPI_Allreduce()'
p4286
S'5425'
p4287
tp4288
a(S'MPI_Allreduce()'
p4289
S'5434'
p4290
tp4291
a(S'MPI_Comm_dup()'
p4292
S'5438'
p4293
tp4294
a(S'MPI_Allreduce()'
p4295
S'5446'
p4296
tp4297
a(S'MPI_Allreduce()'
p4298
S'5455'
p4299
tp4300
a(S'MPI_Allreduce()'
p4301
S'5464'
p4302
tp4303
a(S'MPI_Allreduce()'
p4304
S'5473'
p4305
tp4306
a(S'MPI_Allreduce()'
p4307
S'5482'
p4308
tp4309
a(S'MPI_Allreduce()'
p4310
S'5491'
p4311
tp4312
a(S'MPI_Allreduce()'
p4313
S'5500'
p4314
tp4315
a(S'MPI_Allreduce()'
p4316
S'5509'
p4317
tp4318
a(S'MPI_Allreduce()'
p4319
S'5518'
p4320
tp4321
a(S'MPI_Comm_split()'
p4322
S'5524'
p4323
tp4324
a(S'MPI_Allreduce()'
p4325
S'5535'
p4326
tp4327
a(S'MPI_Allreduce()'
p4328
S'5544'
p4329
tp4330
a(S'MPI_Allreduce()'
p4331
S'5553'
p4332
tp4333
a(S'MPI_Allreduce()'
p4334
S'5562'
p4335
tp4336
a(S'MPI_Allreduce()'
p4337
S'5571'
p4338
tp4339
a(S'MPI_Allreduce()'
p4340
S'5580'
p4341
tp4342
a(S'MPI_Allreduce()'
p4343
S'5589'
p4344
tp4345
a(S'MPI_Allreduce()'
p4346
S'5598'
p4347
tp4348
a(S'MPI_Allreduce()'
p4349
S'5607'
p4350
tp4351
a(S'MPI_Allreduce()'
p4352
S'5616'
p4353
tp4354
a(S'MPI_Allreduce()'
p4355
S'5625'
p4356
tp4357
a(S'MPI_Comm_split()'
p4358
S'5631'
p4359
tp4360
a(S'MPI_Barrier()'
p4361
S'5646'
p4362
tp4363
a(S'MPI_Allreduce()'
p4364
S'5655'
p4365
tp4366
a(S'MPI_Barrier()'
p4367
S'5665'
p4368
tp4369
a(S'MPI_Allgather()'
p4370
S'5675'
p4371
tp4372
a(S'MPI_Barrier()'
p4373
S'5681'
p4374
tp4375
a(S'MPI_Barrier()'
p4376
S'5687'
p4377
tp4378
a(S'MPI_Barrier()'
p4379
S'5693'
p4380
tp4381
a(S'MPI_Barrier()'
p4382
S'5699'
p4383
tp4384
a(S'MPI_Allreduce()'
p4385
S'5708'
p4386
tp4387
a(S'MPI_Allreduce()'
p4388
S'5717'
p4389
tp4390
a(S'MPI_Allreduce()'
p4391
S'5726'
p4392
tp4393
a(S'MPI_Allreduce()'
p4394
S'5735'
p4395
tp4396
a(S'MPI_Allreduce()'
p4397
S'5744'
p4398
tp4399
a(S'MPI_Allreduce()'
p4400
S'5753'
p4401
tp4402
a(S'MPI_Allreduce()'
p4403
S'5762'
p4404
tp4405
a(S'MPI_Scan()'
p4406
S'5771'
p4407
tp4408
a(S'MPI_Allreduce()'
p4409
S'5876'
p4410
tp4411
a(S'MPI_Scan()'
p4412
S'5885'
p4413
tp4414
a(S'MPI_Allreduce()'
p4415
S'5989'
p4416
tp4417
a(S'MPI_Allreduce()'
p4418
S'5998'
p4419
tp4420
a(S'MPI_Allreduce()'
p4421
S'6007'
p4422
tp4423
a(S'MPI_Barrier()'
p4424
S'6013'
p4425
tp4426
a(S'MPI_Barrier()'
p4427
S'6019'
p4428
tp4429
a(S'MPI_Barrier()'
p4430
S'6025'
p4431
tp4432
a(S'MPI_Barrier()'
p4433
S'6031'
p4434
tp4435
a(S'MPI_Allreduce()'
p4436
S'6040'
p4437
tp4438
a(S'MPI_Allreduce()'
p4439
S'6049'
p4440
tp4441
a(S'MPI_Allreduce()'
p4442
S'6058'
p4443
tp4444
a(S'MPI_Barrier()'
p4445
S'6064'
p4446
tp4447
a(S'MPI_Barrier()'
p4448
S'6070'
p4449
tp4450
a(S'MPI_Barrier()'
p4451
S'6076'
p4452
tp4453
a(S'MPI_Barrier()'
p4454
S'6082'
p4455
tp4456
a(S'MPI_Allreduce()'
p4457
S'6093'
p4458
tp4459
a(S'MPI_Allreduce()'
p4460
S'6102'
p4461
tp4462
a(S'MPI_Allreduce()'
p4463
S'6111'
p4464
tp4465
a(S'MPI_Barrier()'
p4466
S'6117'
p4467
tp4468
a(S'MPI_Barrier()'
p4469
S'6123'
p4470
tp4471
a(S'MPI_Barrier()'
p4472
S'6129'
p4473
tp4474
a(S'MPI_Barrier()'
p4475
S'6135'
p4476
tp4477
a(S'MPI_Allreduce()'
p4478
S'6146'
p4479
tp4480
a(S'MPI_Allreduce()'
p4481
S'6155'
p4482
tp4483
a(S'MPI_Allreduce()'
p4484
S'6164'
p4485
tp4486
a(S'MPI_Barrier()'
p4487
S'6170'
p4488
tp4489
a(S'MPI_Barrier()'
p4490
S'6176'
p4491
tp4492
a(S'MPI_Barrier()'
p4493
S'6182'
p4494
tp4495
a(S'MPI_Barrier()'
p4496
S'6188'
p4497
tp4498
a(S'MPI_Allreduce()'
p4499
S'6199'
p4500
tp4501
a(S'MPI_Allreduce()'
p4502
S'6208'
p4503
tp4504
a(S'MPI_Allreduce()'
p4505
S'6217'
p4506
tp4507
a(S'MPI_Barrier()'
p4508
S'6223'
p4509
tp4510
a(S'MPI_Barrier()'
p4511
S'6229'
p4512
tp4513
a(S'MPI_Barrier()'
p4514
S'6235'
p4515
tp4516
a(S'MPI_Barrier()'
p4517
S'6241'
p4518
tp4519
a(S'MPI_Allreduce()'
p4520
S'6250'
p4521
tp4522
a(S'MPI_Allreduce()'
p4523
S'6259'
p4524
tp4525
a(S'MPI_Allreduce()'
p4526
S'6268'
p4527
tp4528
a(S'MPI_Barrier()'
p4529
S'6274'
p4530
tp4531
a(S'MPI_Barrier()'
p4532
S'6280'
p4533
tp4534
a(S'MPI_Barrier()'
p4535
S'6286'
p4536
tp4537
a(S'MPI_Barrier()'
p4538
S'6292'
p4539
tp4540
a(S'MPI_Allreduce()'
p4541
S'6301'
p4542
tp4543
a(S'MPI_Allreduce()'
p4544
S'6310'
p4545
tp4546
a(S'MPI_Allreduce()'
p4547
S'6319'
p4548
tp4549
a(S'MPI_Barrier()'
p4550
S'6325'
p4551
tp4552
a(S'MPI_Barrier()'
p4553
S'6331'
p4554
tp4555
a(S'MPI_Barrier()'
p4556
S'6337'
p4557
tp4558
a(S'MPI_Barrier()'
p4559
S'6343'
p4560
tp4561
a(S'MPI_Allreduce()'
p4562
S'6354'
p4563
tp4564
a(S'MPI_Allreduce()'
p4565
S'6363'
p4566
tp4567
a(S'MPI_Allreduce()'
p4568
S'6372'
p4569
tp4570
a(S'MPI_Barrier()'
p4571
S'6378'
p4572
tp4573
a(S'MPI_Barrier()'
p4574
S'6384'
p4575
tp4576
a(S'MPI_Barrier()'
p4577
S'6390'
p4578
tp4579
a(S'MPI_Barrier()'
p4580
S'6396'
p4581
tp4582
a(S'MPI_Allreduce()'
p4583
S'6405'
p4584
tp4585
a(S'MPI_Allreduce()'
p4586
S'6414'
p4587
tp4588
a(S'MPI_Allreduce()'
p4589
S'6423'
p4590
tp4591
a(S'MPI_Barrier()'
p4592
S'6429'
p4593
tp4594
a(S'MPI_Barrier()'
p4595
S'6435'
p4596
tp4597
a(S'MPI_Barrier()'
p4598
S'6441'
p4599
tp4600
a(S'MPI_Barrier()'
p4601
S'6447'
p4602
tp4603
a(S'MPI_Allreduce()'
p4604
S'6458'
p4605
tp4606
a(S'MPI_Allreduce()'
p4607
S'6467'
p4608
tp4609
a(S'MPI_Allreduce()'
p4610
S'6476'
p4611
tp4612
a(S'MPI_Barrier()'
p4613
S'6482'
p4614
tp4615
a(S'MPI_Barrier()'
p4616
S'6488'
p4617
tp4618
a(S'MPI_Barrier()'
p4619
S'6494'
p4620
tp4621
a(S'MPI_Barrier()'
p4622
S'6500'
p4623
tp4624
a(S'MPI_Allreduce()'
p4625
S'6509'
p4626
tp4627
a(S'MPI_Allreduce()'
p4628
S'6518'
p4629
tp4630
a(S'MPI_Allreduce()'
p4631
S'6527'
p4632
tp4633
a(S'MPI_Barrier()'
p4634
S'6533'
p4635
tp4636
a(S'MPI_Barrier()'
p4637
S'6539'
p4638
tp4639
a(S'MPI_Barrier()'
p4640
S'6545'
p4641
tp4642
a(S'MPI_Barrier()'
p4643
S'6551'
p4644
tp4645
a(S'MPI_Allreduce()'
p4646
S'6560'
p4647
tp4648
a(S'MPI_Allreduce()'
p4649
S'6569'
p4650
tp4651
a(S'MPI_Allreduce()'
p4652
S'6578'
p4653
tp4654
a(S'MPI_Barrier()'
p4655
S'6584'
p4656
tp4657
a(S'MPI_Barrier()'
p4658
S'6590'
p4659
tp4660
a(S'MPI_Barrier()'
p4661
S'6596'
p4662
tp4663
a(S'MPI_Barrier()'
p4664
S'6602'
p4665
tp4666
a(S'MPI_Allreduce()'
p4667
S'6611'
p4668
tp4669
a(S'MPI_Allreduce()'
p4670
S'6620'
p4671
tp4672
a(S'MPI_Allreduce()'
p4673
S'6629'
p4674
tp4675
a(S'MPI_Barrier()'
p4676
S'6635'
p4677
tp4678
a(S'MPI_Barrier()'
p4679
S'6641'
p4680
tp4681
a(S'MPI_Barrier()'
p4682
S'6647'
p4683
tp4684
a(S'MPI_Barrier()'
p4685
S'6653'
p4686
tp4687
a(S'MPI_Allreduce()'
p4688
S'6662'
p4689
tp4690
a(S'MPI_Allreduce()'
p4691
S'6671'
p4692
tp4693
a(S'MPI_Allreduce()'
p4694
S'6680'
p4695
tp4696
a(S'MPI_Allreduce()'
p4697
S'6689'
p4698
tp4699
a(S'MPI_Barrier()'
p4700
S'6695'
p4701
tp4702
a(S'MPI_Barrier()'
p4703
S'6701'
p4704
tp4705
a(S'MPI_Barrier()'
p4706
S'6707'
p4707
tp4708
a(S'MPI_Barrier()'
p4709
S'6713'
p4710
tp4711
a(S'MPI_Allreduce()'
p4712
S'6722'
p4713
tp4714
a(S'MPI_Allreduce()'
p4715
S'6731'
p4716
tp4717
a(S'MPI_Allreduce()'
p4718
S'6740'
p4719
tp4720
a(S'MPI_Allreduce()'
p4721
S'6749'
p4722
tp4723
a(S'MPI_Barrier()'
p4724
S'6755'
p4725
tp4726
a(S'MPI_Barrier()'
p4727
S'6761'
p4728
tp4729
a(S'MPI_Barrier()'
p4730
S'6767'
p4731
tp4732
a(S'MPI_Barrier()'
p4733
S'6773'
p4734
tp4735
a(S'MPI_Allreduce()'
p4736
S'6782'
p4737
tp4738
a(S'MPI_Allreduce()'
p4739
S'6791'
p4740
tp4741
a(S'MPI_Allreduce()'
p4742
S'6800'
p4743
tp4744
a(S'MPI_Allreduce()'
p4745
S'6809'
p4746
tp4747
a(S'MPI_Allreduce()'
p4748
S'6818'
p4749
tp4750
a(S'MPI_Comm_dup()'
p4751
S'6822'
p4752
tp4753
a(S'MPI_Allreduce()'
p4754
S'6830'
p4755
tp4756
a(S'MPI_Allreduce()'
p4757
S'6839'
p4758
tp4759
a(S'MPI_Allreduce()'
p4760
S'6848'
p4761
tp4762
a(S'MPI_Allreduce()'
p4763
S'6857'
p4764
tp4765
a(S'MPI_Allreduce()'
p4766
S'6866'
p4767
tp4768
a(S'MPI_Allreduce()'
p4769
S'6875'
p4770
tp4771
a(S'MPI_Allreduce()'
p4772
S'6884'
p4773
tp4774
a(S'MPI_Allreduce()'
p4775
S'6893'
p4776
tp4777
a(S'MPI_Allreduce()'
p4778
S'6902'
p4779
tp4780
a(S'MPI_Allreduce()'
p4781
S'6911'
p4782
tp4783
a(S'MPI_Allreduce()'
p4784
S'6920'
p4785
tp4786
a(S'MPI_Allreduce()'
p4787
S'6929'
p4788
tp4789
a(S'MPI_Allreduce()'
p4790
S'6938'
p4791
tp4792
a(S'MPI_Allreduce()'
p4793
S'6947'
p4794
tp4795
a(S'MPI_Allreduce()'
p4796
S'6956'
p4797
tp4798
a(S'MPI_Allreduce()'
p4799
S'6965'
p4800
tp4801
a(S'MPI_Comm_split()'
p4802
S'6971'
p4803
tp4804
a(S'MPI_Allreduce()'
p4805
S'6982'
p4806
tp4807
a(S'MPI_Allreduce()'
p4808
S'6991'
p4809
tp4810
a(S'MPI_Allreduce()'
p4811
S'7000'
p4812
tp4813
a(S'MPI_Allreduce()'
p4814
S'7009'
p4815
tp4816
a(S'MPI_Allreduce()'
p4817
S'7018'
p4818
tp4819
a(S'MPI_Allreduce()'
p4820
S'7027'
p4821
tp4822
a(S'MPI_Allreduce()'
p4823
S'7036'
p4824
tp4825
a(S'MPI_Allreduce()'
p4826
S'7045'
p4827
tp4828
a(S'MPI_Allreduce()'
p4829
S'7054'
p4830
tp4831
a(S'MPI_Allreduce()'
p4832
S'7063'
p4833
tp4834
a(S'MPI_Comm_split()'
p4835
S'7069'
p4836
tp4837
a(S'MPI_Barrier()'
p4838
S'7084'
p4839
tp4840
a(S'MPI_Allreduce()'
p4841
S'7093'
p4842
tp4843
a(S'MPI_Barrier()'
p4844
S'7103'
p4845
tp4846
a(S'MPI_Allgather()'
p4847
S'7113'
p4848
tp4849
a(S'MPI_Barrier()'
p4850
S'7119'
p4851
tp4852
a(S'MPI_Barrier()'
p4853
S'7125'
p4854
tp4855
a(S'MPI_Barrier()'
p4856
S'7131'
p4857
tp4858
a(S'MPI_Barrier()'
p4859
S'7137'
p4860
tp4861
a(S'MPI_Allreduce()'
p4862
S'7146'
p4863
tp4864
a(S'MPI_Allreduce()'
p4865
S'7155'
p4866
tp4867
a(S'MPI_Allreduce()'
p4868
S'7164'
p4869
tp4870
a(S'MPI_Allreduce()'
p4871
S'7173'
p4872
tp4873
a(S'MPI_Allreduce()'
p4874
S'7182'
p4875
tp4876
a(S'MPI_Allreduce()'
p4877
S'7191'
p4878
tp4879
a(S'MPI_Allreduce()'
p4880
S'7200'
p4881
tp4882
a(S'MPI_Scan()'
p4883
S'7209'
p4884
tp4885
a(S'MPI_Allreduce()'
p4886
S'7314'
p4887
tp4888
a(S'MPI_Scan()'
p4889
S'7323'
p4890
tp4891
a(S'MPI_Allreduce()'
p4892
S'7427'
p4893
tp4894
a(S'MPI_Allreduce()'
p4895
S'7436'
p4896
tp4897
a(S'MPI_Allreduce()'
p4898
S'7445'
p4899
tp4900
a(S'MPI_Allreduce()'
p4901
S'7454'
p4902
tp4903
a(S'MPI_Allreduce()'
p4904
S'7463'
p4905
tp4906
a(S'MPI_Barrier()'
p4907
S'7469'
p4908
tp4909
a(S'MPI_Allreduce()'
p4910
S'7478'
p4911
tp4912
a(S'MPI_Allreduce()'
p4913
S'7487'
p4914
tp4915
a(S'MPI_Allreduce()'
p4916
S'7496'
p4917
tp4918
a(S'MPI_Allreduce()'
p4919
S'7505'
p4920
tp4921
a(S'MPI_Allreduce()'
p4922
S'7514'
p4923
tp4924
a(S'MPI_Allreduce()'
p4925
S'7523'
p4926
tp4927
a(S'MPI_Allreduce()'
p4928
S'7532'
p4929
tp4930
a(S'MPI_Allreduce()'
p4931
S'7541'
p4932
tp4933
a(S'MPI_Allreduce()'
p4934
S'7550'
p4935
tp4936
a(S'MPI_Allreduce()'
p4937
S'7559'
p4938
tp4939
a(S'MPI_Allreduce()'
p4940
S'7568'
p4941
tp4942
a(S'MPI_Allreduce()'
p4943
S'7577'
p4944
tp4945
a(S'MPI_Allreduce()'
p4946
S'7586'
p4947
tp4948
a(S'MPI_Allreduce()'
p4949
S'7595'
p4950
tp4951
a(S'MPI_Allreduce()'
p4952
S'7604'
p4953
tp4954
a(S'MPI_Allreduce()'
p4955
S'7613'
p4956
tp4957
a(S'MPI_Allreduce()'
p4958
S'7622'
p4959
tp4960
a(S'MPI_Allreduce()'
p4961
S'7631'
p4962
tp4963
a(S'MPI_Allreduce()'
p4964
S'7640'
p4965
tp4966
a(S'MPI_Allreduce()'
p4967
S'7649'
p4968
tp4969
a(S'MPI_Allreduce()'
p4970
S'7658'
p4971
tp4972
a(S'MPI_Allreduce()'
p4973
S'7667'
p4974
tp4975
a(S'MPI_Allreduce()'
p4976
S'7676'
p4977
tp4978
a(S'MPI_Allreduce()'
p4979
S'7685'
p4980
tp4981
a(S'MPI_Allreduce()'
p4982
S'7694'
p4983
tp4984
a(S'MPI_Allreduce()'
p4985
S'7703'
p4986
tp4987
a(S'MPI_Allreduce()'
p4988
S'7712'
p4989
tp4990
a(S'MPI_Allreduce()'
p4991
S'7721'
p4992
tp4993
a(S'MPI_Allreduce()'
p4994
S'7730'
p4995
tp4996
a(S'MPI_Allreduce()'
p4997
S'7739'
p4998
tp4999
a(S'MPI_Allreduce()'
p5000
S'7748'
p5001
tp5002
a(S'MPI_Allreduce()'
p5003
S'7757'
p5004
tp5005
a(S'MPI_Allreduce()'
p5006
S'7766'
p5007
tp5008
a(S'MPI_Allreduce()'
p5009
S'7775'
p5010
tp5011
a(S'MPI_Allreduce()'
p5012
S'7784'
p5013
tp5014
a(S'MPI_Allreduce()'
p5015
S'7793'
p5016
tp5017
a(S'MPI_Allreduce()'
p5018
S'7802'
p5019
tp5020
a(S'MPI_Allreduce()'
p5021
S'7811'
p5022
tp5023
a(S'MPI_Allreduce()'
p5024
S'7820'
p5025
tp5026
a(S'MPI_Allreduce()'
p5027
S'7829'
p5028
tp5029
a(S'MPI_Allreduce()'
p5030
S'7838'
p5031
tp5032
a(S'MPI_Allreduce()'
p5033
S'7847'
p5034
tp5035
a(S'MPI_Allreduce()'
p5036
S'7856'
p5037
tp5038
a(S'MPI_Allreduce()'
p5039
S'7865'
p5040
tp5041
a(S'MPI_Allreduce()'
p5042
S'7874'
p5043
tp5044
a(S'MPI_Bcast()'
p5045
S'7882'
p5046
tp5047
a(S'MPI_Bcast()'
p5048
S'7890'
p5049
tp5050
a(S'MPI_Allreduce()'
p5051
S'7976'
p5052
tp5053
a(S'MPI_Scan()'
p5054
S'7985'
p5055
tp5056
a(S'MPI_Bcast()'
p5057
S'8097'
p5058
tp5059
a(S'MPI_Barrier()'
p5060
S'8117'
p5061
tp5062
a(S'MPI_Gather()'
p5063
S'8133'
p5064
tp5065
a(S'MPI_Gather()'
p5066
S'8146'
p5067
tp5068
a(S'MPI_Gather()'
p5069
S'8159'
p5070
tp5071
a(S'MPI_Gather()'
p5072
S'8172'
p5073
tp5074
a(S'MPI_Gather()'
p5075
S'8185'
p5076
tp5077
a(S'MPI_Gather()'
p5078
S'8198'
p5079
tp5080
asS'io-profiling/skel_io/lammps_outputs/rank00003.cxx'
p5081
(lp5082
(S'MPI_Bcast()'
p5083
S'83'
p5084
tp5085
a(S'MPI_Bcast()'
p5086
S'91'
p5087
tp5088
a(S'MPI_Bcast()'
p5089
S'99'
p5090
tp5091
a(S'MPI_Bcast()'
p5092
S'107'
p5093
tp5094
a(S'MPI_Bcast()'
p5095
S'115'
p5096
tp5097
a(S'MPI_Bcast()'
p5098
S'123'
p5099
tp5100
a(S'MPI_Bcast()'
p5101
S'131'
p5102
tp5103
a(S'MPI_Bcast()'
p5104
S'139'
p5105
tp5106
a(S'MPI_Bcast()'
p5107
S'147'
p5108
tp5109
a(S'MPI_Bcast()'
p5110
S'155'
p5111
tp5112
a(S'MPI_Bcast()'
p5113
S'163'
p5114
tp5115
a(S'MPI_Bcast()'
p5116
S'171'
p5117
tp5118
a(S'MPI_Bcast()'
p5119
S'179'
p5120
tp5121
a(S'MPI_Bcast()'
p5122
S'187'
p5123
tp5124
a(S'MPI_Bcast()'
p5125
S'195'
p5126
tp5127
a(S'MPI_Bcast()'
p5128
S'203'
p5129
tp5130
a(S'MPI_Bcast()'
p5131
S'211'
p5132
tp5133
a(S'MPI_Bcast()'
p5134
S'219'
p5135
tp5136
a(S'MPI_Bcast()'
p5137
S'227'
p5138
tp5139
a(S'MPI_Bcast()'
p5140
S'235'
p5141
tp5142
a(S'MPI_Bcast()'
p5143
S'243'
p5144
tp5145
a(S'MPI_Bcast()'
p5146
S'251'
p5147
tp5148
a(S'MPI_Bcast()'
p5149
S'259'
p5150
tp5151
a(S'MPI_Bcast()'
p5152
S'267'
p5153
tp5154
a(S'MPI_Bcast()'
p5155
S'275'
p5156
tp5157
a(S'MPI_Bcast()'
p5158
S'283'
p5159
tp5160
a(S'MPI_Bcast()'
p5161
S'291'
p5162
tp5163
a(S'MPI_Bcast()'
p5164
S'299'
p5165
tp5166
a(S'MPI_Bcast()'
p5167
S'307'
p5168
tp5169
a(S'MPI_Allreduce()'
p5170
S'316'
p5171
tp5172
a(S'MPI_Bcast()'
p5173
S'324'
p5174
tp5175
a(S'MPI_Bcast()'
p5176
S'332'
p5177
tp5178
a(S'MPI_Bcast()'
p5179
S'340'
p5180
tp5181
a(S'MPI_Bcast()'
p5182
S'348'
p5183
tp5184
a(S'MPI_Bcast()'
p5185
S'356'
p5186
tp5187
a(S'MPI_Bcast()'
p5188
S'364'
p5189
tp5190
a(S'MPI_Bcast()'
p5191
S'372'
p5192
tp5193
a(S'MPI_Bcast()'
p5194
S'380'
p5195
tp5196
a(S'MPI_Cart_create()'
p5197
S'391'
p5198
tp5199
a(S'MPI_Bcast()'
p5200
S'402'
p5201
tp5202
a(S'MPI_Bcast()'
p5203
S'410'
p5204
tp5205
a(S'MPI_Bcast()'
p5206
S'418'
p5207
tp5208
a(S'MPI_Bcast()'
p5209
S'426'
p5210
tp5211
a(S'MPI_Barrier()'
p5212
S'432'
p5213
tp5214
a(S'MPI_Allreduce()'
p5215
S'441'
p5216
tp5217
a(S'MPI_Allreduce()'
p5218
S'450'
p5219
tp5220
a(S'MPI_Allreduce()'
p5221
S'459'
p5222
tp5223
a(S'MPI_Allreduce()'
p5224
S'468'
p5225
tp5226
a(S'MPI_Scan()'
p5227
S'477'
p5228
tp5229
a(S'MPI_Allreduce()'
p5230
S'486'
p5231
tp5232
a(S'MPI_Allreduce()'
p5233
S'495'
p5234
tp5235
a(S'MPI_Barrier()'
p5236
S'501'
p5237
tp5238
a(S'MPI_Bcast()'
p5239
S'509'
p5240
tp5241
a(S'MPI_Bcast()'
p5242
S'517'
p5243
tp5244
a(S'MPI_Bcast()'
p5245
S'525'
p5246
tp5247
a(S'MPI_Bcast()'
p5248
S'533'
p5249
tp5250
a(S'MPI_Bcast()'
p5251
S'541'
p5252
tp5253
a(S'MPI_Bcast()'
p5254
S'549'
p5255
tp5256
a(S'MPI_Allreduce()'
p5257
S'558'
p5258
tp5259
a(S'MPI_Allreduce()'
p5260
S'567'
p5261
tp5262
a(S'MPI_Allreduce()'
p5263
S'576'
p5264
tp5265
a(S'MPI_Allreduce()'
p5266
S'585'
p5267
tp5268
a(S'MPI_Allreduce()'
p5269
S'594'
p5270
tp5271
a(S'MPI_Allreduce()'
p5272
S'603'
p5273
tp5274
a(S'MPI_Bcast()'
p5275
S'611'
p5276
tp5277
a(S'MPI_Bcast()'
p5278
S'619'
p5279
tp5280
a(S'MPI_Allreduce()'
p5281
S'628'
p5282
tp5283
a(S'MPI_Bcast()'
p5284
S'636'
p5285
tp5286
a(S'MPI_Bcast()'
p5287
S'644'
p5288
tp5289
a(S'MPI_Bcast()'
p5290
S'652'
p5291
tp5292
a(S'MPI_Bcast()'
p5293
S'660'
p5294
tp5295
a(S'MPI_Bcast()'
p5296
S'668'
p5297
tp5298
a(S'MPI_Bcast()'
p5299
S'676'
p5300
tp5301
a(S'MPI_Bcast()'
p5302
S'684'
p5303
tp5304
a(S'MPI_Bcast()'
p5305
S'692'
p5306
tp5307
a(S'MPI_Bcast()'
p5308
S'700'
p5309
tp5310
a(S'MPI_Bcast()'
p5311
S'708'
p5312
tp5313
a(S'MPI_Bcast()'
p5314
S'716'
p5315
tp5316
a(S'MPI_Bcast()'
p5317
S'724'
p5318
tp5319
a(S'MPI_Bcast()'
p5320
S'732'
p5321
tp5322
a(S'MPI_Bcast()'
p5323
S'740'
p5324
tp5325
a(S'MPI_Bcast()'
p5326
S'748'
p5327
tp5328
a(S'MPI_Bcast()'
p5329
S'756'
p5330
tp5331
a(S'MPI_Bcast()'
p5332
S'764'
p5333
tp5334
a(S'MPI_Bcast()'
p5335
S'772'
p5336
tp5337
a(S'MPI_Bcast()'
p5338
S'780'
p5339
tp5340
a(S'MPI_Bcast()'
p5341
S'788'
p5342
tp5343
a(S'MPI_Bcast()'
p5344
S'796'
p5345
tp5346
a(S'MPI_Bcast()'
p5347
S'804'
p5348
tp5349
a(S'MPI_Bcast()'
p5350
S'812'
p5351
tp5352
a(S'MPI_Bcast()'
p5353
S'820'
p5354
tp5355
a(S'MPI_Bcast()'
p5356
S'828'
p5357
tp5358
a(S'MPI_Bcast()'
p5359
S'836'
p5360
tp5361
a(S'MPI_Bcast()'
p5362
S'844'
p5363
tp5364
a(S'MPI_Bcast()'
p5365
S'852'
p5366
tp5367
a(S'MPI_Bcast()'
p5368
S'860'
p5369
tp5370
a(S'MPI_Bcast()'
p5371
S'868'
p5372
tp5373
a(S'MPI_Bcast()'
p5374
S'876'
p5375
tp5376
a(S'MPI_Bcast()'
p5377
S'884'
p5378
tp5379
a(S'MPI_Bcast()'
p5380
S'892'
p5381
tp5382
a(S'MPI_Bcast()'
p5383
S'900'
p5384
tp5385
a(S'MPI_Bcast()'
p5386
S'908'
p5387
tp5388
a(S'MPI_Bcast()'
p5389
S'916'
p5390
tp5391
a(S'MPI_Bcast()'
p5392
S'924'
p5393
tp5394
a(S'MPI_Bcast()'
p5395
S'932'
p5396
tp5397
a(S'MPI_Bcast()'
p5398
S'943'
p5399
tp5400
a(S'MPI_Bcast()'
p5401
S'951'
p5402
tp5403
a(S'MPI_Bcast()'
p5404
S'962'
p5405
tp5406
a(S'MPI_Bcast()'
p5407
S'970'
p5408
tp5409
a(S'MPI_Bcast()'
p5410
S'978'
p5411
tp5412
a(S'MPI_Bcast()'
p5413
S'986'
p5414
tp5415
a(S'MPI_Bcast()'
p5416
S'994'
p5417
tp5418
a(S'MPI_Bcast()'
p5419
S'1002'
p5420
tp5421
a(S'MPI_Bcast()'
p5422
S'1010'
p5423
tp5424
a(S'MPI_Bcast()'
p5425
S'1018'
p5426
tp5427
a(S'MPI_Bcast()'
p5428
S'1026'
p5429
tp5430
a(S'MPI_Bcast()'
p5431
S'1034'
p5432
tp5433
a(S'MPI_Bcast()'
p5434
S'1042'
p5435
tp5436
a(S'MPI_Bcast()'
p5437
S'1050'
p5438
tp5439
a(S'MPI_Bcast()'
p5440
S'1058'
p5441
tp5442
a(S'MPI_Bcast()'
p5443
S'1066'
p5444
tp5445
a(S'MPI_Bcast()'
p5446
S'1074'
p5447
tp5448
a(S'MPI_Bcast()'
p5449
S'1082'
p5450
tp5451
a(S'MPI_Bcast()'
p5452
S'1090'
p5453
tp5454
a(S'MPI_Bcast()'
p5455
S'1098'
p5456
tp5457
a(S'MPI_Allreduce()'
p5458
S'1107'
p5459
tp5460
a(S'MPI_Allreduce()'
p5461
S'1116'
p5462
tp5463
a(S'MPI_Allreduce()'
p5464
S'1263'
p5465
tp5466
a(S'MPI_Allreduce()'
p5467
S'1272'
p5468
tp5469
a(S'MPI_Allreduce()'
p5470
S'1281'
p5471
tp5472
a(S'MPI_Comm_dup()'
p5473
S'1285'
p5474
tp5475
a(S'MPI_Allreduce()'
p5476
S'1293'
p5477
tp5478
a(S'MPI_Allreduce()'
p5479
S'1302'
p5480
tp5481
a(S'MPI_Scan()'
p5482
S'1311'
p5483
tp5484
a(S'MPI_Allreduce()'
p5485
S'1320'
p5486
tp5487
a(S'MPI_Scan()'
p5488
S'1329'
p5489
tp5490
a(S'MPI_Comm_split()'
p5491
S'1335'
p5492
tp5493
a(S'MPI_Allreduce()'
p5494
S'1346'
p5495
tp5496
a(S'MPI_Allreduce()'
p5497
S'1355'
p5498
tp5499
a(S'MPI_Scan()'
p5500
S'1364'
p5501
tp5502
a(S'MPI_Allreduce()'
p5503
S'1373'
p5504
tp5505
a(S'MPI_Allreduce()'
p5506
S'1382'
p5507
tp5508
a(S'MPI_Allreduce()'
p5509
S'1391'
p5510
tp5511
a(S'MPI_Scan()'
p5512
S'1400'
p5513
tp5514
a(S'MPI_Comm_split()'
p5515
S'1406'
p5516
tp5517
a(S'MPI_Barrier()'
p5518
S'1421'
p5519
tp5520
a(S'MPI_Allreduce()'
p5521
S'1432'
p5522
tp5523
a(S'MPI_Barrier()'
p5524
S'1442'
p5525
tp5526
a(S'MPI_Allgather()'
p5527
S'1452'
p5528
tp5529
a(S'MPI_Barrier()'
p5530
S'1458'
p5531
tp5532
a(S'MPI_Barrier()'
p5533
S'1464'
p5534
tp5535
a(S'MPI_Barrier()'
p5536
S'1470'
p5537
tp5538
a(S'MPI_Barrier()'
p5539
S'1476'
p5540
tp5541
a(S'MPI_Allreduce()'
p5542
S'1487'
p5543
tp5544
a(S'MPI_Allreduce()'
p5545
S'1496'
p5546
tp5547
a(S'MPI_Allreduce()'
p5548
S'1505'
p5549
tp5550
a(S'MPI_Allreduce()'
p5551
S'1516'
p5552
tp5553
a(S'MPI_Allreduce()'
p5554
S'1525'
p5555
tp5556
a(S'MPI_Allreduce()'
p5557
S'1534'
p5558
tp5559
a(S'MPI_Allreduce()'
p5560
S'1543'
p5561
tp5562
a(S'MPI_Allreduce()'
p5563
S'1552'
p5564
tp5565
a(S'MPI_Scan()'
p5566
S'1561'
p5567
tp5568
a(S'MPI_Allreduce()'
p5569
S'1623'
p5570
tp5571
a(S'MPI_Scan()'
p5572
S'1632'
p5573
tp5574
a(S'MPI_Reduce()'
p5575
S'1691'
p5576
tp5577
a(S'MPI_Reduce()'
p5578
S'1700'
p5579
tp5580
a(S'MPI_Reduce()'
p5581
S'1709'
p5582
tp5583
a(S'MPI_Allreduce()'
p5584
S'1718'
p5585
tp5586
a(S'MPI_Allreduce()'
p5587
S'1727'
p5588
tp5589
a(S'MPI_Allreduce()'
p5590
S'1736'
p5591
tp5592
a(S'MPI_Allreduce()'
p5593
S'1745'
p5594
tp5595
a(S'MPI_Allreduce()'
p5596
S'1754'
p5597
tp5598
a(S'MPI_Barrier()'
p5599
S'1760'
p5600
tp5601
a(S'MPI_Allreduce()'
p5602
S'1769'
p5603
tp5604
a(S'MPI_Allreduce()'
p5605
S'1778'
p5606
tp5607
a(S'MPI_Allreduce()'
p5608
S'1787'
p5609
tp5610
a(S'MPI_Allreduce()'
p5611
S'1796'
p5612
tp5613
a(S'MPI_Barrier()'
p5614
S'1802'
p5615
tp5616
a(S'MPI_Barrier()'
p5617
S'1808'
p5618
tp5619
a(S'MPI_Barrier()'
p5620
S'1814'
p5621
tp5622
a(S'MPI_Barrier()'
p5623
S'1820'
p5624
tp5625
a(S'MPI_Allreduce()'
p5626
S'1829'
p5627
tp5628
a(S'MPI_Allreduce()'
p5629
S'1838'
p5630
tp5631
a(S'MPI_Allreduce()'
p5632
S'1847'
p5633
tp5634
a(S'MPI_Allreduce()'
p5635
S'1856'
p5636
tp5637
a(S'MPI_Barrier()'
p5638
S'1862'
p5639
tp5640
a(S'MPI_Barrier()'
p5641
S'1868'
p5642
tp5643
a(S'MPI_Barrier()'
p5644
S'1874'
p5645
tp5646
a(S'MPI_Barrier()'
p5647
S'1880'
p5648
tp5649
a(S'MPI_Allreduce()'
p5650
S'1889'
p5651
tp5652
a(S'MPI_Allreduce()'
p5653
S'1898'
p5654
tp5655
a(S'MPI_Allreduce()'
p5656
S'1907'
p5657
tp5658
a(S'MPI_Allreduce()'
p5659
S'1916'
p5660
tp5661
a(S'MPI_Barrier()'
p5662
S'1922'
p5663
tp5664
a(S'MPI_Barrier()'
p5665
S'1928'
p5666
tp5667
a(S'MPI_Barrier()'
p5668
S'1934'
p5669
tp5670
a(S'MPI_Barrier()'
p5671
S'1940'
p5672
tp5673
a(S'MPI_Allreduce()'
p5674
S'1949'
p5675
tp5676
a(S'MPI_Allreduce()'
p5677
S'1958'
p5678
tp5679
a(S'MPI_Allreduce()'
p5680
S'1967'
p5681
tp5682
a(S'MPI_Allreduce()'
p5683
S'1976'
p5684
tp5685
a(S'MPI_Barrier()'
p5686
S'1982'
p5687
tp5688
a(S'MPI_Barrier()'
p5689
S'1988'
p5690
tp5691
a(S'MPI_Barrier()'
p5692
S'1994'
p5693
tp5694
a(S'MPI_Barrier()'
p5695
S'2000'
p5696
tp5697
a(S'MPI_Allreduce()'
p5698
S'2009'
p5699
tp5700
a(S'MPI_Allreduce()'
p5701
S'2018'
p5702
tp5703
a(S'MPI_Allreduce()'
p5704
S'2027'
p5705
tp5706
a(S'MPI_Allreduce()'
p5707
S'2036'
p5708
tp5709
a(S'MPI_Barrier()'
p5710
S'2042'
p5711
tp5712
a(S'MPI_Barrier()'
p5713
S'2048'
p5714
tp5715
a(S'MPI_Barrier()'
p5716
S'2054'
p5717
tp5718
a(S'MPI_Barrier()'
p5719
S'2060'
p5720
tp5721
a(S'MPI_Allreduce()'
p5722
S'2071'
p5723
tp5724
a(S'MPI_Allreduce()'
p5725
S'2080'
p5726
tp5727
a(S'MPI_Allreduce()'
p5728
S'2089'
p5729
tp5730
a(S'MPI_Allreduce()'
p5731
S'2098'
p5732
tp5733
a(S'MPI_Barrier()'
p5734
S'2104'
p5735
tp5736
a(S'MPI_Barrier()'
p5737
S'2110'
p5738
tp5739
a(S'MPI_Barrier()'
p5740
S'2116'
p5741
tp5742
a(S'MPI_Barrier()'
p5743
S'2122'
p5744
tp5745
a(S'MPI_Allreduce()'
p5746
S'2131'
p5747
tp5748
a(S'MPI_Allreduce()'
p5749
S'2140'
p5750
tp5751
a(S'MPI_Allreduce()'
p5752
S'2149'
p5753
tp5754
a(S'MPI_Allreduce()'
p5755
S'2158'
p5756
tp5757
a(S'MPI_Barrier()'
p5758
S'2164'
p5759
tp5760
a(S'MPI_Barrier()'
p5761
S'2170'
p5762
tp5763
a(S'MPI_Barrier()'
p5764
S'2176'
p5765
tp5766
a(S'MPI_Barrier()'
p5767
S'2182'
p5768
tp5769
a(S'MPI_Allreduce()'
p5770
S'2191'
p5771
tp5772
a(S'MPI_Allreduce()'
p5773
S'2200'
p5774
tp5775
a(S'MPI_Allreduce()'
p5776
S'2209'
p5777
tp5778
a(S'MPI_Allreduce()'
p5779
S'2218'
p5780
tp5781
a(S'MPI_Barrier()'
p5782
S'2224'
p5783
tp5784
a(S'MPI_Barrier()'
p5785
S'2230'
p5786
tp5787
a(S'MPI_Barrier()'
p5788
S'2236'
p5789
tp5790
a(S'MPI_Barrier()'
p5791
S'2242'
p5792
tp5793
a(S'MPI_Allreduce()'
p5794
S'2251'
p5795
tp5796
a(S'MPI_Allreduce()'
p5797
S'2260'
p5798
tp5799
a(S'MPI_Allreduce()'
p5800
S'2269'
p5801
tp5802
a(S'MPI_Allreduce()'
p5803
S'2278'
p5804
tp5805
a(S'MPI_Barrier()'
p5806
S'2284'
p5807
tp5808
a(S'MPI_Barrier()'
p5809
S'2290'
p5810
tp5811
a(S'MPI_Barrier()'
p5812
S'2296'
p5813
tp5814
a(S'MPI_Barrier()'
p5815
S'2302'
p5816
tp5817
a(S'MPI_Allreduce()'
p5818
S'2311'
p5819
tp5820
a(S'MPI_Allreduce()'
p5821
S'2320'
p5822
tp5823
a(S'MPI_Allreduce()'
p5824
S'2329'
p5825
tp5826
a(S'MPI_Allreduce()'
p5827
S'2340'
p5828
tp5829
a(S'MPI_Barrier()'
p5830
S'2346'
p5831
tp5832
a(S'MPI_Barrier()'
p5833
S'2352'
p5834
tp5835
a(S'MPI_Barrier()'
p5836
S'2358'
p5837
tp5838
a(S'MPI_Barrier()'
p5839
S'2364'
p5840
tp5841
a(S'MPI_Allreduce()'
p5842
S'2375'
p5843
tp5844
a(S'MPI_Allreduce()'
p5845
S'2386'
p5846
tp5847
a(S'MPI_Allreduce()'
p5848
S'2395'
p5849
tp5850
a(S'MPI_Allreduce()'
p5851
S'2404'
p5852
tp5853
a(S'MPI_Barrier()'
p5854
S'2410'
p5855
tp5856
a(S'MPI_Barrier()'
p5857
S'2416'
p5858
tp5859
a(S'MPI_Barrier()'
p5860
S'2422'
p5861
tp5862
a(S'MPI_Barrier()'
p5863
S'2428'
p5864
tp5865
a(S'MPI_Allreduce()'
p5866
S'2437'
p5867
tp5868
a(S'MPI_Allreduce()'
p5869
S'2446'
p5870
tp5871
a(S'MPI_Allreduce()'
p5872
S'2455'
p5873
tp5874
a(S'MPI_Barrier()'
p5875
S'2461'
p5876
tp5877
a(S'MPI_Barrier()'
p5878
S'2467'
p5879
tp5880
a(S'MPI_Barrier()'
p5881
S'2473'
p5882
tp5883
a(S'MPI_Barrier()'
p5884
S'2479'
p5885
tp5886
a(S'MPI_Allreduce()'
p5887
S'2488'
p5888
tp5889
a(S'MPI_Allreduce()'
p5890
S'2497'
p5891
tp5892
a(S'MPI_Allreduce()'
p5893
S'2506'
p5894
tp5895
a(S'MPI_Allreduce()'
p5896
S'2515'
p5897
tp5898
a(S'MPI_Allreduce()'
p5899
S'2524'
p5900
tp5901
a(S'MPI_Comm_dup()'
p5902
S'2528'
p5903
tp5904
a(S'MPI_Allreduce()'
p5905
S'2536'
p5906
tp5907
a(S'MPI_Allreduce()'
p5908
S'2545'
p5909
tp5910
a(S'MPI_Allreduce()'
p5911
S'2554'
p5912
tp5913
a(S'MPI_Allreduce()'
p5914
S'2563'
p5915
tp5916
a(S'MPI_Allreduce()'
p5917
S'2572'
p5918
tp5919
a(S'MPI_Allreduce()'
p5920
S'2581'
p5921
tp5922
a(S'MPI_Allreduce()'
p5923
S'2590'
p5924
tp5925
a(S'MPI_Allreduce()'
p5926
S'2599'
p5927
tp5928
a(S'MPI_Allreduce()'
p5929
S'2608'
p5930
tp5931
a(S'MPI_Comm_split()'
p5932
S'2614'
p5933
tp5934
a(S'MPI_Allreduce()'
p5935
S'2625'
p5936
tp5937
a(S'MPI_Allreduce()'
p5938
S'2634'
p5939
tp5940
a(S'MPI_Allreduce()'
p5941
S'2643'
p5942
tp5943
a(S'MPI_Allreduce()'
p5944
S'2652'
p5945
tp5946
a(S'MPI_Allreduce()'
p5947
S'2661'
p5948
tp5949
a(S'MPI_Allreduce()'
p5950
S'2670'
p5951
tp5952
a(S'MPI_Allreduce()'
p5953
S'2679'
p5954
tp5955
a(S'MPI_Allreduce()'
p5956
S'2688'
p5957
tp5958
a(S'MPI_Comm_split()'
p5959
S'2694'
p5960
tp5961
a(S'MPI_Barrier()'
p5962
S'2709'
p5963
tp5964
a(S'MPI_Allreduce()'
p5965
S'2718'
p5966
tp5967
a(S'MPI_Barrier()'
p5968
S'2728'
p5969
tp5970
a(S'MPI_Allgather()'
p5971
S'2738'
p5972
tp5973
a(S'MPI_Barrier()'
p5974
S'2744'
p5975
tp5976
a(S'MPI_Barrier()'
p5977
S'2750'
p5978
tp5979
a(S'MPI_Barrier()'
p5980
S'2756'
p5981
tp5982
a(S'MPI_Barrier()'
p5983
S'2762'
p5984
tp5985
a(S'MPI_Allreduce()'
p5986
S'2771'
p5987
tp5988
a(S'MPI_Allreduce()'
p5989
S'2780'
p5990
tp5991
a(S'MPI_Allreduce()'
p5992
S'2789'
p5993
tp5994
a(S'MPI_Allreduce()'
p5995
S'2798'
p5996
tp5997
a(S'MPI_Allreduce()'
p5998
S'2807'
p5999
tp6000
a(S'MPI_Allreduce()'
p6001
S'2816'
p6002
tp6003
a(S'MPI_Allreduce()'
p6004
S'2825'
p6005
tp6006
a(S'MPI_Scan()'
p6007
S'2834'
p6008
tp6009
a(S'MPI_Allreduce()'
p6010
S'2891'
p6011
tp6012
a(S'MPI_Scan()'
p6013
S'2900'
p6014
tp6015
a(S'MPI_Allreduce()'
p6016
S'2956'
p6017
tp6018
a(S'MPI_Allreduce()'
p6019
S'2965'
p6020
tp6021
a(S'MPI_Allreduce()'
p6022
S'2974'
p6023
tp6024
a(S'MPI_Barrier()'
p6025
S'2980'
p6026
tp6027
a(S'MPI_Barrier()'
p6028
S'2986'
p6029
tp6030
a(S'MPI_Barrier()'
p6031
S'2992'
p6032
tp6033
a(S'MPI_Barrier()'
p6034
S'2998'
p6035
tp6036
a(S'MPI_Allreduce()'
p6037
S'3007'
p6038
tp6039
a(S'MPI_Allreduce()'
p6040
S'3016'
p6041
tp6042
a(S'MPI_Allreduce()'
p6043
S'3027'
p6044
tp6045
a(S'MPI_Barrier()'
p6046
S'3033'
p6047
tp6048
a(S'MPI_Barrier()'
p6049
S'3039'
p6050
tp6051
a(S'MPI_Barrier()'
p6052
S'3045'
p6053
tp6054
a(S'MPI_Barrier()'
p6055
S'3051'
p6056
tp6057
a(S'MPI_Allreduce()'
p6058
S'3060'
p6059
tp6060
a(S'MPI_Allreduce()'
p6061
S'3069'
p6062
tp6063
a(S'MPI_Allreduce()'
p6064
S'3078'
p6065
tp6066
a(S'MPI_Barrier()'
p6067
S'3084'
p6068
tp6069
a(S'MPI_Barrier()'
p6070
S'3090'
p6071
tp6072
a(S'MPI_Barrier()'
p6073
S'3096'
p6074
tp6075
a(S'MPI_Barrier()'
p6076
S'3102'
p6077
tp6078
a(S'MPI_Allreduce()'
p6079
S'3111'
p6080
tp6081
a(S'MPI_Allreduce()'
p6082
S'3120'
p6083
tp6084
a(S'MPI_Allreduce()'
p6085
S'3129'
p6086
tp6087
a(S'MPI_Barrier()'
p6088
S'3135'
p6089
tp6090
a(S'MPI_Barrier()'
p6091
S'3141'
p6092
tp6093
a(S'MPI_Barrier()'
p6094
S'3147'
p6095
tp6096
a(S'MPI_Barrier()'
p6097
S'3153'
p6098
tp6099
a(S'MPI_Allreduce()'
p6100
S'3162'
p6101
tp6102
a(S'MPI_Allreduce()'
p6103
S'3171'
p6104
tp6105
a(S'MPI_Allreduce()'
p6106
S'3180'
p6107
tp6108
a(S'MPI_Barrier()'
p6109
S'3186'
p6110
tp6111
a(S'MPI_Barrier()'
p6112
S'3192'
p6113
tp6114
a(S'MPI_Barrier()'
p6115
S'3198'
p6116
tp6117
a(S'MPI_Barrier()'
p6118
S'3204'
p6119
tp6120
a(S'MPI_Allreduce()'
p6121
S'3213'
p6122
tp6123
a(S'MPI_Allreduce()'
p6124
S'3222'
p6125
tp6126
a(S'MPI_Allreduce()'
p6127
S'3231'
p6128
tp6129
a(S'MPI_Barrier()'
p6130
S'3237'
p6131
tp6132
a(S'MPI_Barrier()'
p6133
S'3243'
p6134
tp6135
a(S'MPI_Barrier()'
p6136
S'3249'
p6137
tp6138
a(S'MPI_Barrier()'
p6139
S'3255'
p6140
tp6141
a(S'MPI_Allreduce()'
p6142
S'3266'
p6143
tp6144
a(S'MPI_Allreduce()'
p6145
S'3275'
p6146
tp6147
a(S'MPI_Allreduce()'
p6148
S'3284'
p6149
tp6150
a(S'MPI_Barrier()'
p6151
S'3290'
p6152
tp6153
a(S'MPI_Barrier()'
p6154
S'3296'
p6155
tp6156
a(S'MPI_Barrier()'
p6157
S'3302'
p6158
tp6159
a(S'MPI_Barrier()'
p6160
S'3308'
p6161
tp6162
a(S'MPI_Allreduce()'
p6163
S'3317'
p6164
tp6165
a(S'MPI_Allreduce()'
p6166
S'3326'
p6167
tp6168
a(S'MPI_Allreduce()'
p6169
S'3337'
p6170
tp6171
a(S'MPI_Barrier()'
p6172
S'3343'
p6173
tp6174
a(S'MPI_Barrier()'
p6175
S'3349'
p6176
tp6177
a(S'MPI_Barrier()'
p6178
S'3355'
p6179
tp6180
a(S'MPI_Barrier()'
p6181
S'3361'
p6182
tp6183
a(S'MPI_Allreduce()'
p6184
S'3370'
p6185
tp6186
a(S'MPI_Allreduce()'
p6187
S'3379'
p6188
tp6189
a(S'MPI_Allreduce()'
p6190
S'3388'
p6191
tp6192
a(S'MPI_Barrier()'
p6193
S'3394'
p6194
tp6195
a(S'MPI_Barrier()'
p6196
S'3400'
p6197
tp6198
a(S'MPI_Barrier()'
p6199
S'3406'
p6200
tp6201
a(S'MPI_Barrier()'
p6202
S'3412'
p6203
tp6204
a(S'MPI_Allreduce()'
p6205
S'3421'
p6206
tp6207
a(S'MPI_Allreduce()'
p6208
S'3430'
p6209
tp6210
a(S'MPI_Allreduce()'
p6211
S'3439'
p6212
tp6213
a(S'MPI_Barrier()'
p6214
S'3445'
p6215
tp6216
a(S'MPI_Barrier()'
p6217
S'3451'
p6218
tp6219
a(S'MPI_Barrier()'
p6220
S'3457'
p6221
tp6222
a(S'MPI_Barrier()'
p6223
S'3463'
p6224
tp6225
a(S'MPI_Allreduce()'
p6226
S'3472'
p6227
tp6228
a(S'MPI_Allreduce()'
p6229
S'3481'
p6230
tp6231
a(S'MPI_Allreduce()'
p6232
S'3490'
p6233
tp6234
a(S'MPI_Barrier()'
p6235
S'3496'
p6236
tp6237
a(S'MPI_Barrier()'
p6238
S'3502'
p6239
tp6240
a(S'MPI_Barrier()'
p6241
S'3508'
p6242
tp6243
a(S'MPI_Barrier()'
p6244
S'3514'
p6245
tp6246
a(S'MPI_Allreduce()'
p6247
S'3525'
p6248
tp6249
a(S'MPI_Allreduce()'
p6250
S'3536'
p6251
tp6252
a(S'MPI_Allreduce()'
p6253
S'3545'
p6254
tp6255
a(S'MPI_Barrier()'
p6256
S'3551'
p6257
tp6258
a(S'MPI_Barrier()'
p6259
S'3557'
p6260
tp6261
a(S'MPI_Barrier()'
p6262
S'3563'
p6263
tp6264
a(S'MPI_Barrier()'
p6265
S'3569'
p6266
tp6267
a(S'MPI_Allreduce()'
p6268
S'3578'
p6269
tp6270
a(S'MPI_Allreduce()'
p6271
S'3587'
p6272
tp6273
a(S'MPI_Allreduce()'
p6274
S'3596'
p6275
tp6276
a(S'MPI_Barrier()'
p6277
S'3602'
p6278
tp6279
a(S'MPI_Barrier()'
p6280
S'3608'
p6281
tp6282
a(S'MPI_Barrier()'
p6283
S'3614'
p6284
tp6285
a(S'MPI_Barrier()'
p6286
S'3620'
p6287
tp6288
a(S'MPI_Allreduce()'
p6289
S'3629'
p6290
tp6291
a(S'MPI_Allreduce()'
p6292
S'3638'
p6293
tp6294
a(S'MPI_Allreduce()'
p6295
S'3647'
p6296
tp6297
a(S'MPI_Barrier()'
p6298
S'3653'
p6299
tp6300
a(S'MPI_Barrier()'
p6301
S'3659'
p6302
tp6303
a(S'MPI_Barrier()'
p6304
S'3665'
p6305
tp6306
a(S'MPI_Barrier()'
p6307
S'3671'
p6308
tp6309
a(S'MPI_Allreduce()'
p6310
S'3680'
p6311
tp6312
a(S'MPI_Allreduce()'
p6313
S'3689'
p6314
tp6315
a(S'MPI_Allreduce()'
p6316
S'3698'
p6317
tp6318
a(S'MPI_Barrier()'
p6319
S'3704'
p6320
tp6321
a(S'MPI_Barrier()'
p6322
S'3710'
p6323
tp6324
a(S'MPI_Barrier()'
p6325
S'3716'
p6326
tp6327
a(S'MPI_Barrier()'
p6328
S'3722'
p6329
tp6330
a(S'MPI_Allreduce()'
p6331
S'3731'
p6332
tp6333
a(S'MPI_Allreduce()'
p6334
S'3740'
p6335
tp6336
a(S'MPI_Allreduce()'
p6337
S'3749'
p6338
tp6339
a(S'MPI_Barrier()'
p6340
S'3755'
p6341
tp6342
a(S'MPI_Barrier()'
p6343
S'3761'
p6344
tp6345
a(S'MPI_Barrier()'
p6346
S'3767'
p6347
tp6348
a(S'MPI_Barrier()'
p6349
S'3773'
p6350
tp6351
a(S'MPI_Allreduce()'
p6352
S'3784'
p6353
tp6354
a(S'MPI_Allreduce()'
p6355
S'3793'
p6356
tp6357
a(S'MPI_Allreduce()'
p6358
S'3802'
p6359
tp6360
a(S'MPI_Allreduce()'
p6361
S'3811'
p6362
tp6363
a(S'MPI_Comm_dup()'
p6364
S'3815'
p6365
tp6366
a(S'MPI_Allreduce()'
p6367
S'3823'
p6368
tp6369
a(S'MPI_Allreduce()'
p6370
S'3832'
p6371
tp6372
a(S'MPI_Allreduce()'
p6373
S'3841'
p6374
tp6375
a(S'MPI_Allreduce()'
p6376
S'3850'
p6377
tp6378
a(S'MPI_Allreduce()'
p6379
S'3859'
p6380
tp6381
a(S'MPI_Allreduce()'
p6382
S'3868'
p6383
tp6384
a(S'MPI_Allreduce()'
p6385
S'3877'
p6386
tp6387
a(S'MPI_Allreduce()'
p6388
S'3886'
p6389
tp6390
a(S'MPI_Allreduce()'
p6391
S'3895'
p6392
tp6393
a(S'MPI_Allreduce()'
p6394
S'3904'
p6395
tp6396
a(S'MPI_Allreduce()'
p6397
S'3913'
p6398
tp6399
a(S'MPI_Allreduce()'
p6400
S'3922'
p6401
tp6402
a(S'MPI_Allreduce()'
p6403
S'3931'
p6404
tp6405
a(S'MPI_Allreduce()'
p6406
S'3940'
p6407
tp6408
a(S'MPI_Allreduce()'
p6409
S'3949'
p6410
tp6411
a(S'MPI_Allreduce()'
p6412
S'3958'
p6413
tp6414
a(S'MPI_Comm_split()'
p6415
S'3964'
p6416
tp6417
a(S'MPI_Allreduce()'
p6418
S'3975'
p6419
tp6420
a(S'MPI_Allreduce()'
p6421
S'3984'
p6422
tp6423
a(S'MPI_Allreduce()'
p6424
S'3993'
p6425
tp6426
a(S'MPI_Allreduce()'
p6427
S'4002'
p6428
tp6429
a(S'MPI_Allreduce()'
p6430
S'4011'
p6431
tp6432
a(S'MPI_Allreduce()'
p6433
S'4020'
p6434
tp6435
a(S'MPI_Allreduce()'
p6436
S'4029'
p6437
tp6438
a(S'MPI_Allreduce()'
p6439
S'4038'
p6440
tp6441
a(S'MPI_Allreduce()'
p6442
S'4047'
p6443
tp6444
a(S'MPI_Allreduce()'
p6445
S'4056'
p6446
tp6447
a(S'MPI_Allreduce()'
p6448
S'4065'
p6449
tp6450
a(S'MPI_Comm_split()'
p6451
S'4071'
p6452
tp6453
a(S'MPI_Barrier()'
p6454
S'4086'
p6455
tp6456
a(S'MPI_Allreduce()'
p6457
S'4095'
p6458
tp6459
a(S'MPI_Barrier()'
p6460
S'4105'
p6461
tp6462
a(S'MPI_Allgather()'
p6463
S'4115'
p6464
tp6465
a(S'MPI_Barrier()'
p6466
S'4121'
p6467
tp6468
a(S'MPI_Barrier()'
p6469
S'4127'
p6470
tp6471
a(S'MPI_Barrier()'
p6472
S'4133'
p6473
tp6474
a(S'MPI_Barrier()'
p6475
S'4139'
p6476
tp6477
a(S'MPI_Allreduce()'
p6478
S'4148'
p6479
tp6480
a(S'MPI_Allreduce()'
p6481
S'4157'
p6482
tp6483
a(S'MPI_Allreduce()'
p6484
S'4166'
p6485
tp6486
a(S'MPI_Allreduce()'
p6487
S'4175'
p6488
tp6489
a(S'MPI_Allreduce()'
p6490
S'4184'
p6491
tp6492
a(S'MPI_Allreduce()'
p6493
S'4193'
p6494
tp6495
a(S'MPI_Allreduce()'
p6496
S'4202'
p6497
tp6498
a(S'MPI_Scan()'
p6499
S'4211'
p6500
tp6501
a(S'MPI_Allreduce()'
p6502
S'4268'
p6503
tp6504
a(S'MPI_Scan()'
p6505
S'4277'
p6506
tp6507
a(S'MPI_Allreduce()'
p6508
S'4333'
p6509
tp6510
a(S'MPI_Allreduce()'
p6511
S'4342'
p6512
tp6513
a(S'MPI_Allreduce()'
p6514
S'4351'
p6515
tp6516
a(S'MPI_Allreduce()'
p6517
S'4360'
p6518
tp6519
a(S'MPI_Allreduce()'
p6520
S'4369'
p6521
tp6522
a(S'MPI_Allreduce()'
p6523
S'4378'
p6524
tp6525
a(S'MPI_Allreduce()'
p6526
S'4387'
p6527
tp6528
a(S'MPI_Allreduce()'
p6529
S'4396'
p6530
tp6531
a(S'MPI_Allreduce()'
p6532
S'4405'
p6533
tp6534
a(S'MPI_Barrier()'
p6535
S'4411'
p6536
tp6537
a(S'MPI_Barrier()'
p6538
S'4417'
p6539
tp6540
a(S'MPI_Barrier()'
p6541
S'4423'
p6542
tp6543
a(S'MPI_Barrier()'
p6544
S'4429'
p6545
tp6546
a(S'MPI_Allreduce()'
p6547
S'4438'
p6548
tp6549
a(S'MPI_Allreduce()'
p6550
S'4447'
p6551
tp6552
a(S'MPI_Allreduce()'
p6553
S'4456'
p6554
tp6555
a(S'MPI_Barrier()'
p6556
S'4462'
p6557
tp6558
a(S'MPI_Barrier()'
p6559
S'4468'
p6560
tp6561
a(S'MPI_Barrier()'
p6562
S'4474'
p6563
tp6564
a(S'MPI_Barrier()'
p6565
S'4480'
p6566
tp6567
a(S'MPI_Allreduce()'
p6568
S'4489'
p6569
tp6570
a(S'MPI_Allreduce()'
p6571
S'4498'
p6572
tp6573
a(S'MPI_Allreduce()'
p6574
S'4507'
p6575
tp6576
a(S'MPI_Allreduce()'
p6577
S'4516'
p6578
tp6579
a(S'MPI_Barrier()'
p6580
S'4522'
p6581
tp6582
a(S'MPI_Barrier()'
p6583
S'4528'
p6584
tp6585
a(S'MPI_Barrier()'
p6586
S'4534'
p6587
tp6588
a(S'MPI_Barrier()'
p6589
S'4540'
p6590
tp6591
a(S'MPI_Allreduce()'
p6592
S'4549'
p6593
tp6594
a(S'MPI_Allreduce()'
p6595
S'4558'
p6596
tp6597
a(S'MPI_Allreduce()'
p6598
S'4567'
p6599
tp6600
a(S'MPI_Barrier()'
p6601
S'4573'
p6602
tp6603
a(S'MPI_Barrier()'
p6604
S'4579'
p6605
tp6606
a(S'MPI_Barrier()'
p6607
S'4585'
p6608
tp6609
a(S'MPI_Barrier()'
p6610
S'4591'
p6611
tp6612
a(S'MPI_Allreduce()'
p6613
S'4600'
p6614
tp6615
a(S'MPI_Allreduce()'
p6616
S'4609'
p6617
tp6618
a(S'MPI_Allreduce()'
p6619
S'4618'
p6620
tp6621
a(S'MPI_Allreduce()'
p6622
S'4627'
p6623
tp6624
a(S'MPI_Barrier()'
p6625
S'4633'
p6626
tp6627
a(S'MPI_Barrier()'
p6628
S'4639'
p6629
tp6630
a(S'MPI_Barrier()'
p6631
S'4645'
p6632
tp6633
a(S'MPI_Barrier()'
p6634
S'4651'
p6635
tp6636
a(S'MPI_Allreduce()'
p6637
S'4660'
p6638
tp6639
a(S'MPI_Allreduce()'
p6640
S'4669'
p6641
tp6642
a(S'MPI_Allreduce()'
p6643
S'4678'
p6644
tp6645
a(S'MPI_Barrier()'
p6646
S'4684'
p6647
tp6648
a(S'MPI_Barrier()'
p6649
S'4690'
p6650
tp6651
a(S'MPI_Barrier()'
p6652
S'4696'
p6653
tp6654
a(S'MPI_Barrier()'
p6655
S'4702'
p6656
tp6657
a(S'MPI_Allreduce()'
p6658
S'4711'
p6659
tp6660
a(S'MPI_Allreduce()'
p6661
S'4720'
p6662
tp6663
a(S'MPI_Allreduce()'
p6664
S'4729'
p6665
tp6666
a(S'MPI_Allreduce()'
p6667
S'4740'
p6668
tp6669
a(S'MPI_Barrier()'
p6670
S'4746'
p6671
tp6672
a(S'MPI_Barrier()'
p6673
S'4752'
p6674
tp6675
a(S'MPI_Barrier()'
p6676
S'4758'
p6677
tp6678
a(S'MPI_Barrier()'
p6679
S'4764'
p6680
tp6681
a(S'MPI_Allreduce()'
p6682
S'4773'
p6683
tp6684
a(S'MPI_Allreduce()'
p6685
S'4782'
p6686
tp6687
a(S'MPI_Allreduce()'
p6688
S'4791'
p6689
tp6690
a(S'MPI_Barrier()'
p6691
S'4797'
p6692
tp6693
a(S'MPI_Barrier()'
p6694
S'4803'
p6695
tp6696
a(S'MPI_Barrier()'
p6697
S'4809'
p6698
tp6699
a(S'MPI_Barrier()'
p6700
S'4815'
p6701
tp6702
a(S'MPI_Allreduce()'
p6703
S'4824'
p6704
tp6705
a(S'MPI_Allreduce()'
p6706
S'4833'
p6707
tp6708
a(S'MPI_Allreduce()'
p6709
S'4842'
p6710
tp6711
a(S'MPI_Allreduce()'
p6712
S'4851'
p6713
tp6714
a(S'MPI_Barrier()'
p6715
S'4857'
p6716
tp6717
a(S'MPI_Barrier()'
p6718
S'4863'
p6719
tp6720
a(S'MPI_Barrier()'
p6721
S'4869'
p6722
tp6723
a(S'MPI_Barrier()'
p6724
S'4875'
p6725
tp6726
a(S'MPI_Allreduce()'
p6727
S'4884'
p6728
tp6729
a(S'MPI_Allreduce()'
p6730
S'4893'
p6731
tp6732
a(S'MPI_Allreduce()'
p6733
S'4902'
p6734
tp6735
a(S'MPI_Allreduce()'
p6736
S'4911'
p6737
tp6738
a(S'MPI_Barrier()'
p6739
S'4917'
p6740
tp6741
a(S'MPI_Barrier()'
p6742
S'4923'
p6743
tp6744
a(S'MPI_Barrier()'
p6745
S'4929'
p6746
tp6747
a(S'MPI_Barrier()'
p6748
S'4935'
p6749
tp6750
a(S'MPI_Allreduce()'
p6751
S'4944'
p6752
tp6753
a(S'MPI_Allreduce()'
p6754
S'4953'
p6755
tp6756
a(S'MPI_Allreduce()'
p6757
S'4962'
p6758
tp6759
a(S'MPI_Allreduce()'
p6760
S'4971'
p6761
tp6762
a(S'MPI_Barrier()'
p6763
S'4977'
p6764
tp6765
a(S'MPI_Barrier()'
p6766
S'4983'
p6767
tp6768
a(S'MPI_Barrier()'
p6769
S'4989'
p6770
tp6771
a(S'MPI_Barrier()'
p6772
S'4995'
p6773
tp6774
a(S'MPI_Allreduce()'
p6775
S'5004'
p6776
tp6777
a(S'MPI_Allreduce()'
p6778
S'5013'
p6779
tp6780
a(S'MPI_Allreduce()'
p6781
S'5022'
p6782
tp6783
a(S'MPI_Allreduce()'
p6784
S'5031'
p6785
tp6786
a(S'MPI_Barrier()'
p6787
S'5037'
p6788
tp6789
a(S'MPI_Barrier()'
p6790
S'5043'
p6791
tp6792
a(S'MPI_Barrier()'
p6793
S'5049'
p6794
tp6795
a(S'MPI_Barrier()'
p6796
S'5055'
p6797
tp6798
a(S'MPI_Allreduce()'
p6799
S'5064'
p6800
tp6801
a(S'MPI_Allreduce()'
p6802
S'5073'
p6803
tp6804
a(S'MPI_Allreduce()'
p6805
S'5082'
p6806
tp6807
a(S'MPI_Barrier()'
p6808
S'5088'
p6809
tp6810
a(S'MPI_Barrier()'
p6811
S'5094'
p6812
tp6813
a(S'MPI_Barrier()'
p6814
S'5100'
p6815
tp6816
a(S'MPI_Barrier()'
p6817
S'5106'
p6818
tp6819
a(S'MPI_Allreduce()'
p6820
S'5115'
p6821
tp6822
a(S'MPI_Allreduce()'
p6823
S'5124'
p6824
tp6825
a(S'MPI_Allreduce()'
p6826
S'5133'
p6827
tp6828
a(S'MPI_Allreduce()'
p6829
S'5142'
p6830
tp6831
a(S'MPI_Allreduce()'
p6832
S'5151'
p6833
tp6834
a(S'MPI_Comm_dup()'
p6835
S'5155'
p6836
tp6837
a(S'MPI_Allreduce()'
p6838
S'5163'
p6839
tp6840
a(S'MPI_Allreduce()'
p6841
S'5172'
p6842
tp6843
a(S'MPI_Allreduce()'
p6844
S'5181'
p6845
tp6846
a(S'MPI_Allreduce()'
p6847
S'5190'
p6848
tp6849
a(S'MPI_Allreduce()'
p6850
S'5199'
p6851
tp6852
a(S'MPI_Allreduce()'
p6853
S'5208'
p6854
tp6855
a(S'MPI_Allreduce()'
p6856
S'5217'
p6857
tp6858
a(S'MPI_Allreduce()'
p6859
S'5226'
p6860
tp6861
a(S'MPI_Allreduce()'
p6862
S'5235'
p6863
tp6864
a(S'MPI_Comm_split()'
p6865
S'5241'
p6866
tp6867
a(S'MPI_Allreduce()'
p6868
S'5252'
p6869
tp6870
a(S'MPI_Allreduce()'
p6871
S'5261'
p6872
tp6873
a(S'MPI_Allreduce()'
p6874
S'5270'
p6875
tp6876
a(S'MPI_Allreduce()'
p6877
S'5279'
p6878
tp6879
a(S'MPI_Allreduce()'
p6880
S'5288'
p6881
tp6882
a(S'MPI_Allreduce()'
p6883
S'5297'
p6884
tp6885
a(S'MPI_Allreduce()'
p6886
S'5306'
p6887
tp6888
a(S'MPI_Comm_split()'
p6889
S'5312'
p6890
tp6891
a(S'MPI_Barrier()'
p6892
S'5327'
p6893
tp6894
a(S'MPI_Allreduce()'
p6895
S'5336'
p6896
tp6897
a(S'MPI_Barrier()'
p6898
S'5346'
p6899
tp6900
a(S'MPI_Allgather()'
p6901
S'5356'
p6902
tp6903
a(S'MPI_Barrier()'
p6904
S'5362'
p6905
tp6906
a(S'MPI_Barrier()'
p6907
S'5368'
p6908
tp6909
a(S'MPI_Barrier()'
p6910
S'5374'
p6911
tp6912
a(S'MPI_Barrier()'
p6913
S'5380'
p6914
tp6915
a(S'MPI_Allreduce()'
p6916
S'5389'
p6917
tp6918
a(S'MPI_Allreduce()'
p6919
S'5398'
p6920
tp6921
a(S'MPI_Allreduce()'
p6922
S'5407'
p6923
tp6924
a(S'MPI_Allreduce()'
p6925
S'5416'
p6926
tp6927
a(S'MPI_Allreduce()'
p6928
S'5425'
p6929
tp6930
a(S'MPI_Allreduce()'
p6931
S'5434'
p6932
tp6933
a(S'MPI_Allreduce()'
p6934
S'5443'
p6935
tp6936
a(S'MPI_Scan()'
p6937
S'5452'
p6938
tp6939
a(S'MPI_Allreduce()'
p6940
S'5509'
p6941
tp6942
a(S'MPI_Scan()'
p6943
S'5518'
p6944
tp6945
a(S'MPI_Allreduce()'
p6946
S'5574'
p6947
tp6948
a(S'MPI_Allreduce()'
p6949
S'5583'
p6950
tp6951
a(S'MPI_Allreduce()'
p6952
S'5592'
p6953
tp6954
a(S'MPI_Barrier()'
p6955
S'5598'
p6956
tp6957
a(S'MPI_Barrier()'
p6958
S'5604'
p6959
tp6960
a(S'MPI_Barrier()'
p6961
S'5610'
p6962
tp6963
a(S'MPI_Barrier()'
p6964
S'5616'
p6965
tp6966
a(S'MPI_Allreduce()'
p6967
S'5625'
p6968
tp6969
a(S'MPI_Allreduce()'
p6970
S'5634'
p6971
tp6972
a(S'MPI_Allreduce()'
p6973
S'5643'
p6974
tp6975
a(S'MPI_Barrier()'
p6976
S'5649'
p6977
tp6978
a(S'MPI_Barrier()'
p6979
S'5655'
p6980
tp6981
a(S'MPI_Barrier()'
p6982
S'5661'
p6983
tp6984
a(S'MPI_Barrier()'
p6985
S'5667'
p6986
tp6987
a(S'MPI_Allreduce()'
p6988
S'5678'
p6989
tp6990
a(S'MPI_Allreduce()'
p6991
S'5687'
p6992
tp6993
a(S'MPI_Allreduce()'
p6994
S'5696'
p6995
tp6996
a(S'MPI_Barrier()'
p6997
S'5702'
p6998
tp6999
a(S'MPI_Barrier()'
p7000
S'5708'
p7001
tp7002
a(S'MPI_Barrier()'
p7003
S'5714'
p7004
tp7005
a(S'MPI_Barrier()'
p7006
S'5720'
p7007
tp7008
a(S'MPI_Allreduce()'
p7009
S'5731'
p7010
tp7011
a(S'MPI_Allreduce()'
p7012
S'5740'
p7013
tp7014
a(S'MPI_Allreduce()'
p7015
S'5749'
p7016
tp7017
a(S'MPI_Barrier()'
p7018
S'5755'
p7019
tp7020
a(S'MPI_Barrier()'
p7021
S'5761'
p7022
tp7023
a(S'MPI_Barrier()'
p7024
S'5767'
p7025
tp7026
a(S'MPI_Barrier()'
p7027
S'5773'
p7028
tp7029
a(S'MPI_Allreduce()'
p7030
S'5784'
p7031
tp7032
a(S'MPI_Allreduce()'
p7033
S'5793'
p7034
tp7035
a(S'MPI_Allreduce()'
p7036
S'5802'
p7037
tp7038
a(S'MPI_Barrier()'
p7039
S'5808'
p7040
tp7041
a(S'MPI_Barrier()'
p7042
S'5814'
p7043
tp7044
a(S'MPI_Barrier()'
p7045
S'5820'
p7046
tp7047
a(S'MPI_Barrier()'
p7048
S'5826'
p7049
tp7050
a(S'MPI_Allreduce()'
p7051
S'5835'
p7052
tp7053
a(S'MPI_Allreduce()'
p7054
S'5844'
p7055
tp7056
a(S'MPI_Allreduce()'
p7057
S'5853'
p7058
tp7059
a(S'MPI_Barrier()'
p7060
S'5859'
p7061
tp7062
a(S'MPI_Barrier()'
p7063
S'5865'
p7064
tp7065
a(S'MPI_Barrier()'
p7066
S'5871'
p7067
tp7068
a(S'MPI_Barrier()'
p7069
S'5877'
p7070
tp7071
a(S'MPI_Allreduce()'
p7072
S'5886'
p7073
tp7074
a(S'MPI_Allreduce()'
p7075
S'5895'
p7076
tp7077
a(S'MPI_Allreduce()'
p7078
S'5904'
p7079
tp7080
a(S'MPI_Barrier()'
p7081
S'5910'
p7082
tp7083
a(S'MPI_Barrier()'
p7084
S'5916'
p7085
tp7086
a(S'MPI_Barrier()'
p7087
S'5922'
p7088
tp7089
a(S'MPI_Barrier()'
p7090
S'5928'
p7091
tp7092
a(S'MPI_Allreduce()'
p7093
S'5939'
p7094
tp7095
a(S'MPI_Allreduce()'
p7096
S'5948'
p7097
tp7098
a(S'MPI_Allreduce()'
p7099
S'5957'
p7100
tp7101
a(S'MPI_Barrier()'
p7102
S'5963'
p7103
tp7104
a(S'MPI_Barrier()'
p7105
S'5969'
p7106
tp7107
a(S'MPI_Barrier()'
p7108
S'5975'
p7109
tp7110
a(S'MPI_Barrier()'
p7111
S'5981'
p7112
tp7113
a(S'MPI_Allreduce()'
p7114
S'5990'
p7115
tp7116
a(S'MPI_Allreduce()'
p7117
S'5999'
p7118
tp7119
a(S'MPI_Allreduce()'
p7120
S'6008'
p7121
tp7122
a(S'MPI_Barrier()'
p7123
S'6014'
p7124
tp7125
a(S'MPI_Barrier()'
p7126
S'6020'
p7127
tp7128
a(S'MPI_Barrier()'
p7129
S'6026'
p7130
tp7131
a(S'MPI_Barrier()'
p7132
S'6032'
p7133
tp7134
a(S'MPI_Allreduce()'
p7135
S'6043'
p7136
tp7137
a(S'MPI_Allreduce()'
p7138
S'6052'
p7139
tp7140
a(S'MPI_Allreduce()'
p7141
S'6061'
p7142
tp7143
a(S'MPI_Barrier()'
p7144
S'6067'
p7145
tp7146
a(S'MPI_Barrier()'
p7147
S'6073'
p7148
tp7149
a(S'MPI_Barrier()'
p7150
S'6079'
p7151
tp7152
a(S'MPI_Barrier()'
p7153
S'6085'
p7154
tp7155
a(S'MPI_Allreduce()'
p7156
S'6094'
p7157
tp7158
a(S'MPI_Allreduce()'
p7159
S'6103'
p7160
tp7161
a(S'MPI_Allreduce()'
p7162
S'6112'
p7163
tp7164
a(S'MPI_Barrier()'
p7165
S'6118'
p7166
tp7167
a(S'MPI_Barrier()'
p7168
S'6124'
p7169
tp7170
a(S'MPI_Barrier()'
p7171
S'6130'
p7172
tp7173
a(S'MPI_Barrier()'
p7174
S'6136'
p7175
tp7176
a(S'MPI_Allreduce()'
p7177
S'6145'
p7178
tp7179
a(S'MPI_Allreduce()'
p7180
S'6154'
p7181
tp7182
a(S'MPI_Allreduce()'
p7183
S'6163'
p7184
tp7185
a(S'MPI_Barrier()'
p7186
S'6169'
p7187
tp7188
a(S'MPI_Barrier()'
p7189
S'6175'
p7190
tp7191
a(S'MPI_Barrier()'
p7192
S'6181'
p7193
tp7194
a(S'MPI_Barrier()'
p7195
S'6187'
p7196
tp7197
a(S'MPI_Allreduce()'
p7198
S'6196'
p7199
tp7200
a(S'MPI_Allreduce()'
p7201
S'6205'
p7202
tp7203
a(S'MPI_Allreduce()'
p7204
S'6214'
p7205
tp7206
a(S'MPI_Barrier()'
p7207
S'6220'
p7208
tp7209
a(S'MPI_Barrier()'
p7210
S'6226'
p7211
tp7212
a(S'MPI_Barrier()'
p7213
S'6232'
p7214
tp7215
a(S'MPI_Barrier()'
p7216
S'6238'
p7217
tp7218
a(S'MPI_Allreduce()'
p7219
S'6247'
p7220
tp7221
a(S'MPI_Allreduce()'
p7222
S'6256'
p7223
tp7224
a(S'MPI_Allreduce()'
p7225
S'6265'
p7226
tp7227
a(S'MPI_Allreduce()'
p7228
S'6274'
p7229
tp7230
a(S'MPI_Barrier()'
p7231
S'6280'
p7232
tp7233
a(S'MPI_Barrier()'
p7234
S'6286'
p7235
tp7236
a(S'MPI_Barrier()'
p7237
S'6292'
p7238
tp7239
a(S'MPI_Barrier()'
p7240
S'6298'
p7241
tp7242
a(S'MPI_Allreduce()'
p7243
S'6307'
p7244
tp7245
a(S'MPI_Allreduce()'
p7246
S'6316'
p7247
tp7248
a(S'MPI_Allreduce()'
p7249
S'6325'
p7250
tp7251
a(S'MPI_Allreduce()'
p7252
S'6334'
p7253
tp7254
a(S'MPI_Barrier()'
p7255
S'6340'
p7256
tp7257
a(S'MPI_Barrier()'
p7258
S'6346'
p7259
tp7260
a(S'MPI_Barrier()'
p7261
S'6352'
p7262
tp7263
a(S'MPI_Barrier()'
p7264
S'6358'
p7265
tp7266
a(S'MPI_Allreduce()'
p7267
S'6367'
p7268
tp7269
a(S'MPI_Allreduce()'
p7270
S'6376'
p7271
tp7272
a(S'MPI_Allreduce()'
p7273
S'6385'
p7274
tp7275
a(S'MPI_Allreduce()'
p7276
S'6394'
p7277
tp7278
a(S'MPI_Allreduce()'
p7279
S'6403'
p7280
tp7281
a(S'MPI_Comm_dup()'
p7282
S'6407'
p7283
tp7284
a(S'MPI_Allreduce()'
p7285
S'6415'
p7286
tp7287
a(S'MPI_Allreduce()'
p7288
S'6424'
p7289
tp7290
a(S'MPI_Allreduce()'
p7291
S'6433'
p7292
tp7293
a(S'MPI_Allreduce()'
p7294
S'6442'
p7295
tp7296
a(S'MPI_Allreduce()'
p7297
S'6451'
p7298
tp7299
a(S'MPI_Allreduce()'
p7300
S'6460'
p7301
tp7302
a(S'MPI_Allreduce()'
p7303
S'6469'
p7304
tp7305
a(S'MPI_Allreduce()'
p7306
S'6478'
p7307
tp7308
a(S'MPI_Allreduce()'
p7309
S'6487'
p7310
tp7311
a(S'MPI_Allreduce()'
p7312
S'6496'
p7313
tp7314
a(S'MPI_Allreduce()'
p7315
S'6505'
p7316
tp7317
a(S'MPI_Allreduce()'
p7318
S'6514'
p7319
tp7320
a(S'MPI_Allreduce()'
p7321
S'6523'
p7322
tp7323
a(S'MPI_Allreduce()'
p7324
S'6532'
p7325
tp7326
a(S'MPI_Allreduce()'
p7327
S'6541'
p7328
tp7329
a(S'MPI_Allreduce()'
p7330
S'6550'
p7331
tp7332
a(S'MPI_Comm_split()'
p7333
S'6556'
p7334
tp7335
a(S'MPI_Allreduce()'
p7336
S'6567'
p7337
tp7338
a(S'MPI_Allreduce()'
p7339
S'6576'
p7340
tp7341
a(S'MPI_Allreduce()'
p7342
S'6585'
p7343
tp7344
a(S'MPI_Allreduce()'
p7345
S'6594'
p7346
tp7347
a(S'MPI_Allreduce()'
p7348
S'6603'
p7349
tp7350
a(S'MPI_Allreduce()'
p7351
S'6612'
p7352
tp7353
a(S'MPI_Allreduce()'
p7354
S'6621'
p7355
tp7356
a(S'MPI_Allreduce()'
p7357
S'6630'
p7358
tp7359
a(S'MPI_Allreduce()'
p7360
S'6639'
p7361
tp7362
a(S'MPI_Allreduce()'
p7363
S'6648'
p7364
tp7365
a(S'MPI_Allreduce()'
p7366
S'6657'
p7367
tp7368
a(S'MPI_Allreduce()'
p7369
S'6666'
p7370
tp7371
a(S'MPI_Allreduce()'
p7372
S'6675'
p7373
tp7374
a(S'MPI_Comm_split()'
p7375
S'6681'
p7376
tp7377
a(S'MPI_Barrier()'
p7378
S'6696'
p7379
tp7380
a(S'MPI_Allreduce()'
p7381
S'6705'
p7382
tp7383
a(S'MPI_Barrier()'
p7384
S'6715'
p7385
tp7386
a(S'MPI_Allgather()'
p7387
S'6725'
p7388
tp7389
a(S'MPI_Barrier()'
p7390
S'6731'
p7391
tp7392
a(S'MPI_Barrier()'
p7393
S'6737'
p7394
tp7395
a(S'MPI_Barrier()'
p7396
S'6743'
p7397
tp7398
a(S'MPI_Barrier()'
p7399
S'6749'
p7400
tp7401
a(S'MPI_Allreduce()'
p7402
S'6758'
p7403
tp7404
a(S'MPI_Allreduce()'
p7405
S'6767'
p7406
tp7407
a(S'MPI_Allreduce()'
p7408
S'6776'
p7409
tp7410
a(S'MPI_Allreduce()'
p7411
S'6785'
p7412
tp7413
a(S'MPI_Allreduce()'
p7414
S'6794'
p7415
tp7416
a(S'MPI_Allreduce()'
p7417
S'6803'
p7418
tp7419
a(S'MPI_Allreduce()'
p7420
S'6812'
p7421
tp7422
a(S'MPI_Scan()'
p7423
S'6821'
p7424
tp7425
a(S'MPI_Allreduce()'
p7426
S'6878'
p7427
tp7428
a(S'MPI_Scan()'
p7429
S'6887'
p7430
tp7431
a(S'MPI_Allreduce()'
p7432
S'6943'
p7433
tp7434
a(S'MPI_Allreduce()'
p7435
S'6952'
p7436
tp7437
a(S'MPI_Allreduce()'
p7438
S'6961'
p7439
tp7440
a(S'MPI_Allreduce()'
p7441
S'6970'
p7442
tp7443
a(S'MPI_Allreduce()'
p7444
S'6979'
p7445
tp7446
a(S'MPI_Barrier()'
p7447
S'6985'
p7448
tp7449
a(S'MPI_Allreduce()'
p7450
S'6994'
p7451
tp7452
a(S'MPI_Allreduce()'
p7453
S'7003'
p7454
tp7455
a(S'MPI_Allreduce()'
p7456
S'7012'
p7457
tp7458
a(S'MPI_Allreduce()'
p7459
S'7021'
p7460
tp7461
a(S'MPI_Allreduce()'
p7462
S'7030'
p7463
tp7464
a(S'MPI_Allreduce()'
p7465
S'7039'
p7466
tp7467
a(S'MPI_Allreduce()'
p7468
S'7048'
p7469
tp7470
a(S'MPI_Allreduce()'
p7471
S'7057'
p7472
tp7473
a(S'MPI_Allreduce()'
p7474
S'7066'
p7475
tp7476
a(S'MPI_Allreduce()'
p7477
S'7075'
p7478
tp7479
a(S'MPI_Allreduce()'
p7480
S'7084'
p7481
tp7482
a(S'MPI_Allreduce()'
p7483
S'7093'
p7484
tp7485
a(S'MPI_Allreduce()'
p7486
S'7102'
p7487
tp7488
a(S'MPI_Allreduce()'
p7489
S'7111'
p7490
tp7491
a(S'MPI_Allreduce()'
p7492
S'7120'
p7493
tp7494
a(S'MPI_Allreduce()'
p7495
S'7129'
p7496
tp7497
a(S'MPI_Allreduce()'
p7498
S'7138'
p7499
tp7500
a(S'MPI_Allreduce()'
p7501
S'7147'
p7502
tp7503
a(S'MPI_Allreduce()'
p7504
S'7156'
p7505
tp7506
a(S'MPI_Allreduce()'
p7507
S'7165'
p7508
tp7509
a(S'MPI_Allreduce()'
p7510
S'7174'
p7511
tp7512
a(S'MPI_Allreduce()'
p7513
S'7183'
p7514
tp7515
a(S'MPI_Allreduce()'
p7516
S'7192'
p7517
tp7518
a(S'MPI_Allreduce()'
p7519
S'7201'
p7520
tp7521
a(S'MPI_Allreduce()'
p7522
S'7210'
p7523
tp7524
a(S'MPI_Allreduce()'
p7525
S'7219'
p7526
tp7527
a(S'MPI_Allreduce()'
p7528
S'7228'
p7529
tp7530
a(S'MPI_Allreduce()'
p7531
S'7237'
p7532
tp7533
a(S'MPI_Allreduce()'
p7534
S'7246'
p7535
tp7536
a(S'MPI_Allreduce()'
p7537
S'7255'
p7538
tp7539
a(S'MPI_Allreduce()'
p7540
S'7264'
p7541
tp7542
a(S'MPI_Allreduce()'
p7543
S'7273'
p7544
tp7545
a(S'MPI_Allreduce()'
p7546
S'7282'
p7547
tp7548
a(S'MPI_Allreduce()'
p7549
S'7291'
p7550
tp7551
a(S'MPI_Allreduce()'
p7552
S'7300'
p7553
tp7554
a(S'MPI_Allreduce()'
p7555
S'7309'
p7556
tp7557
a(S'MPI_Allreduce()'
p7558
S'7318'
p7559
tp7560
a(S'MPI_Allreduce()'
p7561
S'7327'
p7562
tp7563
a(S'MPI_Allreduce()'
p7564
S'7336'
p7565
tp7566
a(S'MPI_Allreduce()'
p7567
S'7345'
p7568
tp7569
a(S'MPI_Allreduce()'
p7570
S'7354'
p7571
tp7572
a(S'MPI_Allreduce()'
p7573
S'7363'
p7574
tp7575
a(S'MPI_Allreduce()'
p7576
S'7372'
p7577
tp7578
a(S'MPI_Allreduce()'
p7579
S'7381'
p7580
tp7581
a(S'MPI_Allreduce()'
p7582
S'7390'
p7583
tp7584
a(S'MPI_Bcast()'
p7585
S'7398'
p7586
tp7587
a(S'MPI_Bcast()'
p7588
S'7406'
p7589
tp7590
a(S'MPI_Allreduce()'
p7591
S'7492'
p7592
tp7593
a(S'MPI_Scan()'
p7594
S'7501'
p7595
tp7596
a(S'MPI_Bcast()'
p7597
S'7565'
p7598
tp7599
a(S'MPI_Barrier()'
p7600
S'7583'
p7601
tp7602
a(S'MPI_Gather()'
p7603
S'7599'
p7604
tp7605
a(S'MPI_Gather()'
p7606
S'7612'
p7607
tp7608
a(S'MPI_Gather()'
p7609
S'7625'
p7610
tp7611
a(S'MPI_Gather()'
p7612
S'7638'
p7613
tp7614
a(S'MPI_Gather()'
p7615
S'7651'
p7616
tp7617
a(S'MPI_Gather()'
p7618
S'7664'
p7619
tp7620
asS'io-profiling/skel_io/lammps_outputs/rank00001.cxx'
p7621
(lp7622
(S'MPI_Bcast()'
p7623
S'83'
p7624
tp7625
a(S'MPI_Bcast()'
p7626
S'91'
p7627
tp7628
a(S'MPI_Bcast()'
p7629
S'99'
p7630
tp7631
a(S'MPI_Bcast()'
p7632
S'107'
p7633
tp7634
a(S'MPI_Bcast()'
p7635
S'115'
p7636
tp7637
a(S'MPI_Bcast()'
p7638
S'123'
p7639
tp7640
a(S'MPI_Bcast()'
p7641
S'131'
p7642
tp7643
a(S'MPI_Bcast()'
p7644
S'139'
p7645
tp7646
a(S'MPI_Bcast()'
p7647
S'147'
p7648
tp7649
a(S'MPI_Bcast()'
p7650
S'155'
p7651
tp7652
a(S'MPI_Bcast()'
p7653
S'163'
p7654
tp7655
a(S'MPI_Bcast()'
p7656
S'171'
p7657
tp7658
a(S'MPI_Bcast()'
p7659
S'179'
p7660
tp7661
a(S'MPI_Bcast()'
p7662
S'187'
p7663
tp7664
a(S'MPI_Bcast()'
p7665
S'195'
p7666
tp7667
a(S'MPI_Bcast()'
p7668
S'203'
p7669
tp7670
a(S'MPI_Bcast()'
p7671
S'211'
p7672
tp7673
a(S'MPI_Bcast()'
p7674
S'219'
p7675
tp7676
a(S'MPI_Bcast()'
p7677
S'227'
p7678
tp7679
a(S'MPI_Bcast()'
p7680
S'235'
p7681
tp7682
a(S'MPI_Bcast()'
p7683
S'243'
p7684
tp7685
a(S'MPI_Bcast()'
p7686
S'251'
p7687
tp7688
a(S'MPI_Bcast()'
p7689
S'259'
p7690
tp7691
a(S'MPI_Bcast()'
p7692
S'267'
p7693
tp7694
a(S'MPI_Bcast()'
p7695
S'275'
p7696
tp7697
a(S'MPI_Bcast()'
p7698
S'283'
p7699
tp7700
a(S'MPI_Bcast()'
p7701
S'291'
p7702
tp7703
a(S'MPI_Bcast()'
p7704
S'299'
p7705
tp7706
a(S'MPI_Bcast()'
p7707
S'307'
p7708
tp7709
a(S'MPI_Allreduce()'
p7710
S'316'
p7711
tp7712
a(S'MPI_Bcast()'
p7713
S'324'
p7714
tp7715
a(S'MPI_Bcast()'
p7716
S'332'
p7717
tp7718
a(S'MPI_Bcast()'
p7719
S'340'
p7720
tp7721
a(S'MPI_Bcast()'
p7722
S'348'
p7723
tp7724
a(S'MPI_Bcast()'
p7725
S'356'
p7726
tp7727
a(S'MPI_Bcast()'
p7728
S'364'
p7729
tp7730
a(S'MPI_Bcast()'
p7731
S'372'
p7732
tp7733
a(S'MPI_Bcast()'
p7734
S'380'
p7735
tp7736
a(S'MPI_Cart_create()'
p7737
S'391'
p7738
tp7739
a(S'MPI_Bcast()'
p7740
S'402'
p7741
tp7742
a(S'MPI_Bcast()'
p7743
S'410'
p7744
tp7745
a(S'MPI_Bcast()'
p7746
S'418'
p7747
tp7748
a(S'MPI_Bcast()'
p7749
S'426'
p7750
tp7751
a(S'MPI_Barrier()'
p7752
S'432'
p7753
tp7754
a(S'MPI_Allreduce()'
p7755
S'441'
p7756
tp7757
a(S'MPI_Allreduce()'
p7758
S'450'
p7759
tp7760
a(S'MPI_Allreduce()'
p7761
S'459'
p7762
tp7763
a(S'MPI_Allreduce()'
p7764
S'468'
p7765
tp7766
a(S'MPI_Scan()'
p7767
S'477'
p7768
tp7769
a(S'MPI_Allreduce()'
p7770
S'486'
p7771
tp7772
a(S'MPI_Allreduce()'
p7773
S'495'
p7774
tp7775
a(S'MPI_Barrier()'
p7776
S'501'
p7777
tp7778
a(S'MPI_Bcast()'
p7779
S'509'
p7780
tp7781
a(S'MPI_Bcast()'
p7782
S'517'
p7783
tp7784
a(S'MPI_Bcast()'
p7785
S'525'
p7786
tp7787
a(S'MPI_Bcast()'
p7788
S'533'
p7789
tp7790
a(S'MPI_Bcast()'
p7791
S'541'
p7792
tp7793
a(S'MPI_Bcast()'
p7794
S'549'
p7795
tp7796
a(S'MPI_Allreduce()'
p7797
S'558'
p7798
tp7799
a(S'MPI_Allreduce()'
p7800
S'567'
p7801
tp7802
a(S'MPI_Allreduce()'
p7803
S'576'
p7804
tp7805
a(S'MPI_Allreduce()'
p7806
S'585'
p7807
tp7808
a(S'MPI_Allreduce()'
p7809
S'594'
p7810
tp7811
a(S'MPI_Allreduce()'
p7812
S'603'
p7813
tp7814
a(S'MPI_Bcast()'
p7815
S'611'
p7816
tp7817
a(S'MPI_Bcast()'
p7818
S'619'
p7819
tp7820
a(S'MPI_Allreduce()'
p7821
S'628'
p7822
tp7823
a(S'MPI_Bcast()'
p7824
S'636'
p7825
tp7826
a(S'MPI_Bcast()'
p7827
S'644'
p7828
tp7829
a(S'MPI_Bcast()'
p7830
S'652'
p7831
tp7832
a(S'MPI_Bcast()'
p7833
S'660'
p7834
tp7835
a(S'MPI_Bcast()'
p7836
S'668'
p7837
tp7838
a(S'MPI_Bcast()'
p7839
S'676'
p7840
tp7841
a(S'MPI_Bcast()'
p7842
S'684'
p7843
tp7844
a(S'MPI_Bcast()'
p7845
S'692'
p7846
tp7847
a(S'MPI_Bcast()'
p7848
S'700'
p7849
tp7850
a(S'MPI_Bcast()'
p7851
S'708'
p7852
tp7853
a(S'MPI_Bcast()'
p7854
S'716'
p7855
tp7856
a(S'MPI_Bcast()'
p7857
S'724'
p7858
tp7859
a(S'MPI_Bcast()'
p7860
S'732'
p7861
tp7862
a(S'MPI_Bcast()'
p7863
S'740'
p7864
tp7865
a(S'MPI_Bcast()'
p7866
S'748'
p7867
tp7868
a(S'MPI_Bcast()'
p7869
S'756'
p7870
tp7871
a(S'MPI_Bcast()'
p7872
S'764'
p7873
tp7874
a(S'MPI_Bcast()'
p7875
S'772'
p7876
tp7877
a(S'MPI_Bcast()'
p7878
S'780'
p7879
tp7880
a(S'MPI_Bcast()'
p7881
S'788'
p7882
tp7883
a(S'MPI_Bcast()'
p7884
S'796'
p7885
tp7886
a(S'MPI_Bcast()'
p7887
S'804'
p7888
tp7889
a(S'MPI_Bcast()'
p7890
S'812'
p7891
tp7892
a(S'MPI_Bcast()'
p7893
S'820'
p7894
tp7895
a(S'MPI_Bcast()'
p7896
S'828'
p7897
tp7898
a(S'MPI_Bcast()'
p7899
S'836'
p7900
tp7901
a(S'MPI_Bcast()'
p7902
S'844'
p7903
tp7904
a(S'MPI_Bcast()'
p7905
S'852'
p7906
tp7907
a(S'MPI_Bcast()'
p7908
S'860'
p7909
tp7910
a(S'MPI_Bcast()'
p7911
S'868'
p7912
tp7913
a(S'MPI_Bcast()'
p7914
S'876'
p7915
tp7916
a(S'MPI_Bcast()'
p7917
S'884'
p7918
tp7919
a(S'MPI_Bcast()'
p7920
S'892'
p7921
tp7922
a(S'MPI_Bcast()'
p7923
S'900'
p7924
tp7925
a(S'MPI_Bcast()'
p7926
S'908'
p7927
tp7928
a(S'MPI_Bcast()'
p7929
S'916'
p7930
tp7931
a(S'MPI_Bcast()'
p7932
S'924'
p7933
tp7934
a(S'MPI_Bcast()'
p7935
S'932'
p7936
tp7937
a(S'MPI_Bcast()'
p7938
S'943'
p7939
tp7940
a(S'MPI_Bcast()'
p7941
S'951'
p7942
tp7943
a(S'MPI_Bcast()'
p7944
S'962'
p7945
tp7946
a(S'MPI_Bcast()'
p7947
S'970'
p7948
tp7949
a(S'MPI_Bcast()'
p7950
S'978'
p7951
tp7952
a(S'MPI_Bcast()'
p7953
S'986'
p7954
tp7955
a(S'MPI_Bcast()'
p7956
S'994'
p7957
tp7958
a(S'MPI_Bcast()'
p7959
S'1002'
p7960
tp7961
a(S'MPI_Bcast()'
p7962
S'1010'
p7963
tp7964
a(S'MPI_Bcast()'
p7965
S'1018'
p7966
tp7967
a(S'MPI_Bcast()'
p7968
S'1026'
p7969
tp7970
a(S'MPI_Bcast()'
p7971
S'1034'
p7972
tp7973
a(S'MPI_Bcast()'
p7974
S'1042'
p7975
tp7976
a(S'MPI_Bcast()'
p7977
S'1050'
p7978
tp7979
a(S'MPI_Bcast()'
p7980
S'1058'
p7981
tp7982
a(S'MPI_Bcast()'
p7983
S'1066'
p7984
tp7985
a(S'MPI_Bcast()'
p7986
S'1074'
p7987
tp7988
a(S'MPI_Bcast()'
p7989
S'1082'
p7990
tp7991
a(S'MPI_Bcast()'
p7992
S'1090'
p7993
tp7994
a(S'MPI_Bcast()'
p7995
S'1098'
p7996
tp7997
a(S'MPI_Allreduce()'
p7998
S'1107'
p7999
tp8000
a(S'MPI_Allreduce()'
p8001
S'1116'
p8002
tp8003
a(S'MPI_Allreduce()'
p8004
S'1263'
p8005
tp8006
a(S'MPI_Allreduce()'
p8007
S'1272'
p8008
tp8009
a(S'MPI_Allreduce()'
p8010
S'1281'
p8011
tp8012
a(S'MPI_Comm_dup()'
p8013
S'1285'
p8014
tp8015
a(S'MPI_Allreduce()'
p8016
S'1293'
p8017
tp8018
a(S'MPI_Allreduce()'
p8019
S'1302'
p8020
tp8021
a(S'MPI_Scan()'
p8022
S'1311'
p8023
tp8024
a(S'MPI_Allreduce()'
p8025
S'1320'
p8026
tp8027
a(S'MPI_Scan()'
p8028
S'1329'
p8029
tp8030
a(S'MPI_Comm_split()'
p8031
S'1337'
p8032
tp8033
a(S'MPI_Allreduce()'
p8034
S'1348'
p8035
tp8036
a(S'MPI_Allreduce()'
p8037
S'1357'
p8038
tp8039
a(S'MPI_Scan()'
p8040
S'1366'
p8041
tp8042
a(S'MPI_Allreduce()'
p8043
S'1375'
p8044
tp8045
a(S'MPI_Scan()'
p8046
S'1384'
p8047
tp8048
a(S'MPI_Comm_split()'
p8049
S'1390'
p8050
tp8051
a(S'MPI_Barrier()'
p8052
S'1407'
p8053
tp8054
a(S'MPI_Allreduce()'
p8055
S'1418'
p8056
tp8057
a(S'MPI_Barrier()'
p8058
S'1428'
p8059
tp8060
a(S'MPI_Allgather()'
p8061
S'1438'
p8062
tp8063
a(S'MPI_Barrier()'
p8064
S'1444'
p8065
tp8066
a(S'MPI_Barrier()'
p8067
S'1450'
p8068
tp8069
a(S'MPI_Barrier()'
p8070
S'1456'
p8071
tp8072
a(S'MPI_Barrier()'
p8073
S'1462'
p8074
tp8075
a(S'MPI_Allreduce()'
p8076
S'1473'
p8077
tp8078
a(S'MPI_Allreduce()'
p8079
S'1482'
p8080
tp8081
a(S'MPI_Allreduce()'
p8082
S'1491'
p8083
tp8084
a(S'MPI_Allreduce()'
p8085
S'1500'
p8086
tp8087
a(S'MPI_Allreduce()'
p8088
S'1509'
p8089
tp8090
a(S'MPI_Allreduce()'
p8091
S'1518'
p8092
tp8093
a(S'MPI_Allreduce()'
p8094
S'1527'
p8095
tp8096
a(S'MPI_Allreduce()'
p8097
S'1536'
p8098
tp8099
a(S'MPI_Scan()'
p8100
S'1545'
p8101
tp8102
a(S'MPI_Allreduce()'
p8103
S'1607'
p8104
tp8105
a(S'MPI_Scan()'
p8106
S'1616'
p8107
tp8108
a(S'MPI_Reduce()'
p8109
S'1675'
p8110
tp8111
a(S'MPI_Reduce()'
p8112
S'1684'
p8113
tp8114
a(S'MPI_Reduce()'
p8115
S'1693'
p8116
tp8117
a(S'MPI_Allreduce()'
p8118
S'1702'
p8119
tp8120
a(S'MPI_Allreduce()'
p8121
S'1711'
p8122
tp8123
a(S'MPI_Allreduce()'
p8124
S'1720'
p8125
tp8126
a(S'MPI_Allreduce()'
p8127
S'1729'
p8128
tp8129
a(S'MPI_Allreduce()'
p8130
S'1738'
p8131
tp8132
a(S'MPI_Barrier()'
p8133
S'1744'
p8134
tp8135
a(S'MPI_Allreduce()'
p8136
S'1753'
p8137
tp8138
a(S'MPI_Allreduce()'
p8139
S'1762'
p8140
tp8141
a(S'MPI_Allreduce()'
p8142
S'1771'
p8143
tp8144
a(S'MPI_Allreduce()'
p8145
S'1780'
p8146
tp8147
a(S'MPI_Barrier()'
p8148
S'1786'
p8149
tp8150
a(S'MPI_Barrier()'
p8151
S'1792'
p8152
tp8153
a(S'MPI_Barrier()'
p8154
S'1798'
p8155
tp8156
a(S'MPI_Barrier()'
p8157
S'1804'
p8158
tp8159
a(S'MPI_Allreduce()'
p8160
S'1813'
p8161
tp8162
a(S'MPI_Allreduce()'
p8163
S'1822'
p8164
tp8165
a(S'MPI_Allreduce()'
p8166
S'1831'
p8167
tp8168
a(S'MPI_Allreduce()'
p8169
S'1840'
p8170
tp8171
a(S'MPI_Barrier()'
p8172
S'1846'
p8173
tp8174
a(S'MPI_Barrier()'
p8175
S'1852'
p8176
tp8177
a(S'MPI_Barrier()'
p8178
S'1858'
p8179
tp8180
a(S'MPI_Barrier()'
p8181
S'1864'
p8182
tp8183
a(S'MPI_Allreduce()'
p8184
S'1873'
p8185
tp8186
a(S'MPI_Allreduce()'
p8187
S'1882'
p8188
tp8189
a(S'MPI_Allreduce()'
p8190
S'1891'
p8191
tp8192
a(S'MPI_Allreduce()'
p8193
S'1900'
p8194
tp8195
a(S'MPI_Barrier()'
p8196
S'1906'
p8197
tp8198
a(S'MPI_Barrier()'
p8199
S'1912'
p8200
tp8201
a(S'MPI_Barrier()'
p8202
S'1918'
p8203
tp8204
a(S'MPI_Barrier()'
p8205
S'1924'
p8206
tp8207
a(S'MPI_Allreduce()'
p8208
S'1933'
p8209
tp8210
a(S'MPI_Allreduce()'
p8211
S'1942'
p8212
tp8213
a(S'MPI_Allreduce()'
p8214
S'1951'
p8215
tp8216
a(S'MPI_Allreduce()'
p8217
S'1960'
p8218
tp8219
a(S'MPI_Barrier()'
p8220
S'1966'
p8221
tp8222
a(S'MPI_Barrier()'
p8223
S'1972'
p8224
tp8225
a(S'MPI_Barrier()'
p8226
S'1978'
p8227
tp8228
a(S'MPI_Barrier()'
p8229
S'1984'
p8230
tp8231
a(S'MPI_Allreduce()'
p8232
S'1993'
p8233
tp8234
a(S'MPI_Allreduce()'
p8235
S'2002'
p8236
tp8237
a(S'MPI_Allreduce()'
p8238
S'2011'
p8239
tp8240
a(S'MPI_Allreduce()'
p8241
S'2020'
p8242
tp8243
a(S'MPI_Barrier()'
p8244
S'2026'
p8245
tp8246
a(S'MPI_Barrier()'
p8247
S'2032'
p8248
tp8249
a(S'MPI_Barrier()'
p8250
S'2038'
p8251
tp8252
a(S'MPI_Barrier()'
p8253
S'2044'
p8254
tp8255
a(S'MPI_Allreduce()'
p8256
S'2055'
p8257
tp8258
a(S'MPI_Allreduce()'
p8259
S'2064'
p8260
tp8261
a(S'MPI_Allreduce()'
p8262
S'2073'
p8263
tp8264
a(S'MPI_Allreduce()'
p8265
S'2082'
p8266
tp8267
a(S'MPI_Barrier()'
p8268
S'2088'
p8269
tp8270
a(S'MPI_Barrier()'
p8271
S'2094'
p8272
tp8273
a(S'MPI_Barrier()'
p8274
S'2100'
p8275
tp8276
a(S'MPI_Barrier()'
p8277
S'2106'
p8278
tp8279
a(S'MPI_Allreduce()'
p8280
S'2115'
p8281
tp8282
a(S'MPI_Allreduce()'
p8283
S'2124'
p8284
tp8285
a(S'MPI_Allreduce()'
p8286
S'2133'
p8287
tp8288
a(S'MPI_Allreduce()'
p8289
S'2142'
p8290
tp8291
a(S'MPI_Barrier()'
p8292
S'2148'
p8293
tp8294
a(S'MPI_Barrier()'
p8295
S'2154'
p8296
tp8297
a(S'MPI_Barrier()'
p8298
S'2160'
p8299
tp8300
a(S'MPI_Barrier()'
p8301
S'2166'
p8302
tp8303
a(S'MPI_Allreduce()'
p8304
S'2175'
p8305
tp8306
a(S'MPI_Allreduce()'
p8307
S'2184'
p8308
tp8309
a(S'MPI_Allreduce()'
p8310
S'2193'
p8311
tp8312
a(S'MPI_Allreduce()'
p8313
S'2202'
p8314
tp8315
a(S'MPI_Barrier()'
p8316
S'2208'
p8317
tp8318
a(S'MPI_Barrier()'
p8319
S'2214'
p8320
tp8321
a(S'MPI_Barrier()'
p8322
S'2220'
p8323
tp8324
a(S'MPI_Barrier()'
p8325
S'2226'
p8326
tp8327
a(S'MPI_Allreduce()'
p8328
S'2235'
p8329
tp8330
a(S'MPI_Allreduce()'
p8331
S'2244'
p8332
tp8333
a(S'MPI_Allreduce()'
p8334
S'2253'
p8335
tp8336
a(S'MPI_Allreduce()'
p8337
S'2262'
p8338
tp8339
a(S'MPI_Barrier()'
p8340
S'2268'
p8341
tp8342
a(S'MPI_Barrier()'
p8343
S'2274'
p8344
tp8345
a(S'MPI_Barrier()'
p8346
S'2280'
p8347
tp8348
a(S'MPI_Barrier()'
p8349
S'2286'
p8350
tp8351
a(S'MPI_Allreduce()'
p8352
S'2295'
p8353
tp8354
a(S'MPI_Allreduce()'
p8355
S'2304'
p8356
tp8357
a(S'MPI_Allreduce()'
p8358
S'2315'
p8359
tp8360
a(S'MPI_Allreduce()'
p8361
S'2326'
p8362
tp8363
a(S'MPI_Barrier()'
p8364
S'2332'
p8365
tp8366
a(S'MPI_Barrier()'
p8367
S'2338'
p8368
tp8369
a(S'MPI_Barrier()'
p8370
S'2344'
p8371
tp8372
a(S'MPI_Barrier()'
p8373
S'2350'
p8374
tp8375
a(S'MPI_Allreduce()'
p8376
S'2361'
p8377
tp8378
a(S'MPI_Allreduce()'
p8379
S'2372'
p8380
tp8381
a(S'MPI_Allreduce()'
p8382
S'2381'
p8383
tp8384
a(S'MPI_Allreduce()'
p8385
S'2390'
p8386
tp8387
a(S'MPI_Barrier()'
p8388
S'2396'
p8389
tp8390
a(S'MPI_Barrier()'
p8391
S'2402'
p8392
tp8393
a(S'MPI_Barrier()'
p8394
S'2408'
p8395
tp8396
a(S'MPI_Barrier()'
p8397
S'2414'
p8398
tp8399
a(S'MPI_Allreduce()'
p8400
S'2423'
p8401
tp8402
a(S'MPI_Allreduce()'
p8403
S'2432'
p8404
tp8405
a(S'MPI_Allreduce()'
p8406
S'2441'
p8407
tp8408
a(S'MPI_Barrier()'
p8409
S'2447'
p8410
tp8411
a(S'MPI_Barrier()'
p8412
S'2453'
p8413
tp8414
a(S'MPI_Barrier()'
p8415
S'2459'
p8416
tp8417
a(S'MPI_Barrier()'
p8418
S'2465'
p8419
tp8420
a(S'MPI_Allreduce()'
p8421
S'2474'
p8422
tp8423
a(S'MPI_Allreduce()'
p8424
S'2483'
p8425
tp8426
a(S'MPI_Allreduce()'
p8427
S'2492'
p8428
tp8429
a(S'MPI_Allreduce()'
p8430
S'2501'
p8431
tp8432
a(S'MPI_Allreduce()'
p8433
S'2510'
p8434
tp8435
a(S'MPI_Comm_dup()'
p8436
S'2514'
p8437
tp8438
a(S'MPI_Allreduce()'
p8439
S'2522'
p8440
tp8441
a(S'MPI_Allreduce()'
p8442
S'2531'
p8443
tp8444
a(S'MPI_Allreduce()'
p8445
S'2540'
p8446
tp8447
a(S'MPI_Allreduce()'
p8448
S'2549'
p8449
tp8450
a(S'MPI_Allreduce()'
p8451
S'2558'
p8452
tp8453
a(S'MPI_Allreduce()'
p8454
S'2567'
p8455
tp8456
a(S'MPI_Allreduce()'
p8457
S'2576'
p8458
tp8459
a(S'MPI_Allreduce()'
p8460
S'2585'
p8461
tp8462
a(S'MPI_Allreduce()'
p8463
S'2594'
p8464
tp8465
a(S'MPI_Comm_split()'
p8466
S'2600'
p8467
tp8468
a(S'MPI_Allreduce()'
p8469
S'2611'
p8470
tp8471
a(S'MPI_Allreduce()'
p8472
S'2620'
p8473
tp8474
a(S'MPI_Allreduce()'
p8475
S'2629'
p8476
tp8477
a(S'MPI_Allreduce()'
p8478
S'2638'
p8479
tp8480
a(S'MPI_Allreduce()'
p8481
S'2647'
p8482
tp8483
a(S'MPI_Allreduce()'
p8484
S'2656'
p8485
tp8486
a(S'MPI_Allreduce()'
p8487
S'2665'
p8488
tp8489
a(S'MPI_Allreduce()'
p8490
S'2674'
p8491
tp8492
a(S'MPI_Allreduce()'
p8493
S'2683'
p8494
tp8495
a(S'MPI_Allreduce()'
p8496
S'2692'
p8497
tp8498
a(S'MPI_Allreduce()'
p8499
S'2701'
p8500
tp8501
a(S'MPI_Comm_split()'
p8502
S'2707'
p8503
tp8504
a(S'MPI_Barrier()'
p8505
S'2722'
p8506
tp8507
a(S'MPI_Allreduce()'
p8508
S'2731'
p8509
tp8510
a(S'MPI_Barrier()'
p8511
S'2741'
p8512
tp8513
a(S'MPI_Allgather()'
p8514
S'2751'
p8515
tp8516
a(S'MPI_Barrier()'
p8517
S'2757'
p8518
tp8519
a(S'MPI_Barrier()'
p8520
S'2763'
p8521
tp8522
a(S'MPI_Barrier()'
p8523
S'2769'
p8524
tp8525
a(S'MPI_Barrier()'
p8526
S'2775'
p8527
tp8528
a(S'MPI_Allreduce()'
p8529
S'2784'
p8530
tp8531
a(S'MPI_Allreduce()'
p8532
S'2793'
p8533
tp8534
a(S'MPI_Allreduce()'
p8535
S'2802'
p8536
tp8537
a(S'MPI_Allreduce()'
p8538
S'2811'
p8539
tp8540
a(S'MPI_Allreduce()'
p8541
S'2820'
p8542
tp8543
a(S'MPI_Allreduce()'
p8544
S'2829'
p8545
tp8546
a(S'MPI_Allreduce()'
p8547
S'2838'
p8548
tp8549
a(S'MPI_Scan()'
p8550
S'2847'
p8551
tp8552
a(S'MPI_Allreduce()'
p8553
S'2904'
p8554
tp8555
a(S'MPI_Scan()'
p8556
S'2913'
p8557
tp8558
a(S'MPI_Allreduce()'
p8559
S'2969'
p8560
tp8561
a(S'MPI_Allreduce()'
p8562
S'2978'
p8563
tp8564
a(S'MPI_Allreduce()'
p8565
S'2987'
p8566
tp8567
a(S'MPI_Barrier()'
p8568
S'2993'
p8569
tp8570
a(S'MPI_Barrier()'
p8571
S'2999'
p8572
tp8573
a(S'MPI_Barrier()'
p8574
S'3005'
p8575
tp8576
a(S'MPI_Barrier()'
p8577
S'3011'
p8578
tp8579
a(S'MPI_Allreduce()'
p8580
S'3020'
p8581
tp8582
a(S'MPI_Allreduce()'
p8583
S'3029'
p8584
tp8585
a(S'MPI_Allreduce()'
p8586
S'3040'
p8587
tp8588
a(S'MPI_Barrier()'
p8589
S'3046'
p8590
tp8591
a(S'MPI_Barrier()'
p8592
S'3052'
p8593
tp8594
a(S'MPI_Barrier()'
p8595
S'3058'
p8596
tp8597
a(S'MPI_Barrier()'
p8598
S'3064'
p8599
tp8600
a(S'MPI_Allreduce()'
p8601
S'3073'
p8602
tp8603
a(S'MPI_Allreduce()'
p8604
S'3082'
p8605
tp8606
a(S'MPI_Allreduce()'
p8607
S'3091'
p8608
tp8609
a(S'MPI_Barrier()'
p8610
S'3097'
p8611
tp8612
a(S'MPI_Barrier()'
p8613
S'3103'
p8614
tp8615
a(S'MPI_Barrier()'
p8616
S'3109'
p8617
tp8618
a(S'MPI_Barrier()'
p8619
S'3115'
p8620
tp8621
a(S'MPI_Allreduce()'
p8622
S'3124'
p8623
tp8624
a(S'MPI_Allreduce()'
p8625
S'3133'
p8626
tp8627
a(S'MPI_Allreduce()'
p8628
S'3142'
p8629
tp8630
a(S'MPI_Barrier()'
p8631
S'3148'
p8632
tp8633
a(S'MPI_Barrier()'
p8634
S'3154'
p8635
tp8636
a(S'MPI_Barrier()'
p8637
S'3160'
p8638
tp8639
a(S'MPI_Barrier()'
p8640
S'3166'
p8641
tp8642
a(S'MPI_Allreduce()'
p8643
S'3175'
p8644
tp8645
a(S'MPI_Allreduce()'
p8646
S'3184'
p8647
tp8648
a(S'MPI_Allreduce()'
p8649
S'3193'
p8650
tp8651
a(S'MPI_Barrier()'
p8652
S'3199'
p8653
tp8654
a(S'MPI_Barrier()'
p8655
S'3205'
p8656
tp8657
a(S'MPI_Barrier()'
p8658
S'3211'
p8659
tp8660
a(S'MPI_Barrier()'
p8661
S'3217'
p8662
tp8663
a(S'MPI_Allreduce()'
p8664
S'3226'
p8665
tp8666
a(S'MPI_Allreduce()'
p8667
S'3235'
p8668
tp8669
a(S'MPI_Allreduce()'
p8670
S'3244'
p8671
tp8672
a(S'MPI_Barrier()'
p8673
S'3250'
p8674
tp8675
a(S'MPI_Barrier()'
p8676
S'3256'
p8677
tp8678
a(S'MPI_Barrier()'
p8679
S'3262'
p8680
tp8681
a(S'MPI_Barrier()'
p8682
S'3268'
p8683
tp8684
a(S'MPI_Allreduce()'
p8685
S'3279'
p8686
tp8687
a(S'MPI_Allreduce()'
p8688
S'3288'
p8689
tp8690
a(S'MPI_Allreduce()'
p8691
S'3297'
p8692
tp8693
a(S'MPI_Barrier()'
p8694
S'3303'
p8695
tp8696
a(S'MPI_Barrier()'
p8697
S'3309'
p8698
tp8699
a(S'MPI_Barrier()'
p8700
S'3315'
p8701
tp8702
a(S'MPI_Barrier()'
p8703
S'3321'
p8704
tp8705
a(S'MPI_Allreduce()'
p8706
S'3330'
p8707
tp8708
a(S'MPI_Allreduce()'
p8709
S'3339'
p8710
tp8711
a(S'MPI_Allreduce()'
p8712
S'3350'
p8713
tp8714
a(S'MPI_Barrier()'
p8715
S'3356'
p8716
tp8717
a(S'MPI_Barrier()'
p8718
S'3362'
p8719
tp8720
a(S'MPI_Barrier()'
p8721
S'3368'
p8722
tp8723
a(S'MPI_Barrier()'
p8724
S'3374'
p8725
tp8726
a(S'MPI_Allreduce()'
p8727
S'3383'
p8728
tp8729
a(S'MPI_Allreduce()'
p8730
S'3392'
p8731
tp8732
a(S'MPI_Allreduce()'
p8733
S'3401'
p8734
tp8735
a(S'MPI_Barrier()'
p8736
S'3407'
p8737
tp8738
a(S'MPI_Barrier()'
p8739
S'3413'
p8740
tp8741
a(S'MPI_Barrier()'
p8742
S'3419'
p8743
tp8744
a(S'MPI_Barrier()'
p8745
S'3425'
p8746
tp8747
a(S'MPI_Allreduce()'
p8748
S'3434'
p8749
tp8750
a(S'MPI_Allreduce()'
p8751
S'3443'
p8752
tp8753
a(S'MPI_Allreduce()'
p8754
S'3452'
p8755
tp8756
a(S'MPI_Barrier()'
p8757
S'3458'
p8758
tp8759
a(S'MPI_Barrier()'
p8760
S'3464'
p8761
tp8762
a(S'MPI_Barrier()'
p8763
S'3470'
p8764
tp8765
a(S'MPI_Barrier()'
p8766
S'3476'
p8767
tp8768
a(S'MPI_Allreduce()'
p8769
S'3485'
p8770
tp8771
a(S'MPI_Allreduce()'
p8772
S'3494'
p8773
tp8774
a(S'MPI_Allreduce()'
p8775
S'3503'
p8776
tp8777
a(S'MPI_Barrier()'
p8778
S'3509'
p8779
tp8780
a(S'MPI_Barrier()'
p8781
S'3515'
p8782
tp8783
a(S'MPI_Barrier()'
p8784
S'3521'
p8785
tp8786
a(S'MPI_Barrier()'
p8787
S'3527'
p8788
tp8789
a(S'MPI_Allreduce()'
p8790
S'3538'
p8791
tp8792
a(S'MPI_Allreduce()'
p8793
S'3549'
p8794
tp8795
a(S'MPI_Allreduce()'
p8796
S'3558'
p8797
tp8798
a(S'MPI_Barrier()'
p8799
S'3564'
p8800
tp8801
a(S'MPI_Barrier()'
p8802
S'3570'
p8803
tp8804
a(S'MPI_Barrier()'
p8805
S'3576'
p8806
tp8807
a(S'MPI_Barrier()'
p8808
S'3582'
p8809
tp8810
a(S'MPI_Allreduce()'
p8811
S'3591'
p8812
tp8813
a(S'MPI_Allreduce()'
p8814
S'3600'
p8815
tp8816
a(S'MPI_Allreduce()'
p8817
S'3609'
p8818
tp8819
a(S'MPI_Barrier()'
p8820
S'3615'
p8821
tp8822
a(S'MPI_Barrier()'
p8823
S'3621'
p8824
tp8825
a(S'MPI_Barrier()'
p8826
S'3627'
p8827
tp8828
a(S'MPI_Barrier()'
p8829
S'3633'
p8830
tp8831
a(S'MPI_Allreduce()'
p8832
S'3642'
p8833
tp8834
a(S'MPI_Allreduce()'
p8835
S'3651'
p8836
tp8837
a(S'MPI_Allreduce()'
p8838
S'3660'
p8839
tp8840
a(S'MPI_Barrier()'
p8841
S'3666'
p8842
tp8843
a(S'MPI_Barrier()'
p8844
S'3672'
p8845
tp8846
a(S'MPI_Barrier()'
p8847
S'3678'
p8848
tp8849
a(S'MPI_Barrier()'
p8850
S'3684'
p8851
tp8852
a(S'MPI_Allreduce()'
p8853
S'3693'
p8854
tp8855
a(S'MPI_Allreduce()'
p8856
S'3702'
p8857
tp8858
a(S'MPI_Allreduce()'
p8859
S'3711'
p8860
tp8861
a(S'MPI_Barrier()'
p8862
S'3717'
p8863
tp8864
a(S'MPI_Barrier()'
p8865
S'3723'
p8866
tp8867
a(S'MPI_Barrier()'
p8868
S'3729'
p8869
tp8870
a(S'MPI_Barrier()'
p8871
S'3735'
p8872
tp8873
a(S'MPI_Allreduce()'
p8874
S'3744'
p8875
tp8876
a(S'MPI_Allreduce()'
p8877
S'3753'
p8878
tp8879
a(S'MPI_Allreduce()'
p8880
S'3762'
p8881
tp8882
a(S'MPI_Barrier()'
p8883
S'3768'
p8884
tp8885
a(S'MPI_Barrier()'
p8886
S'3774'
p8887
tp8888
a(S'MPI_Barrier()'
p8889
S'3780'
p8890
tp8891
a(S'MPI_Barrier()'
p8892
S'3786'
p8893
tp8894
a(S'MPI_Allreduce()'
p8895
S'3797'
p8896
tp8897
a(S'MPI_Allreduce()'
p8898
S'3806'
p8899
tp8900
a(S'MPI_Allreduce()'
p8901
S'3815'
p8902
tp8903
a(S'MPI_Allreduce()'
p8904
S'3824'
p8905
tp8906
a(S'MPI_Comm_dup()'
p8907
S'3828'
p8908
tp8909
a(S'MPI_Allreduce()'
p8910
S'3836'
p8911
tp8912
a(S'MPI_Allreduce()'
p8913
S'3845'
p8914
tp8915
a(S'MPI_Allreduce()'
p8916
S'3854'
p8917
tp8918
a(S'MPI_Allreduce()'
p8919
S'3863'
p8920
tp8921
a(S'MPI_Allreduce()'
p8922
S'3872'
p8923
tp8924
a(S'MPI_Allreduce()'
p8925
S'3881'
p8926
tp8927
a(S'MPI_Allreduce()'
p8928
S'3890'
p8929
tp8930
a(S'MPI_Allreduce()'
p8931
S'3899'
p8932
tp8933
a(S'MPI_Allreduce()'
p8934
S'3908'
p8935
tp8936
a(S'MPI_Allreduce()'
p8937
S'3917'
p8938
tp8939
a(S'MPI_Allreduce()'
p8940
S'3926'
p8941
tp8942
a(S'MPI_Allreduce()'
p8943
S'3935'
p8944
tp8945
a(S'MPI_Allreduce()'
p8946
S'3944'
p8947
tp8948
a(S'MPI_Allreduce()'
p8949
S'3953'
p8950
tp8951
a(S'MPI_Allreduce()'
p8952
S'3962'
p8953
tp8954
a(S'MPI_Allreduce()'
p8955
S'3971'
p8956
tp8957
a(S'MPI_Comm_split()'
p8958
S'3977'
p8959
tp8960
a(S'MPI_Allreduce()'
p8961
S'3988'
p8962
tp8963
a(S'MPI_Allreduce()'
p8964
S'3997'
p8965
tp8966
a(S'MPI_Allreduce()'
p8967
S'4006'
p8968
tp8969
a(S'MPI_Allreduce()'
p8970
S'4015'
p8971
tp8972
a(S'MPI_Allreduce()'
p8973
S'4024'
p8974
tp8975
a(S'MPI_Allreduce()'
p8976
S'4033'
p8977
tp8978
a(S'MPI_Allreduce()'
p8979
S'4042'
p8980
tp8981
a(S'MPI_Allreduce()'
p8982
S'4051'
p8983
tp8984
a(S'MPI_Comm_split()'
p8985
S'4057'
p8986
tp8987
a(S'MPI_Barrier()'
p8988
S'4072'
p8989
tp8990
a(S'MPI_Allreduce()'
p8991
S'4081'
p8992
tp8993
a(S'MPI_Barrier()'
p8994
S'4091'
p8995
tp8996
a(S'MPI_Allgather()'
p8997
S'4101'
p8998
tp8999
a(S'MPI_Barrier()'
p9000
S'4107'
p9001
tp9002
a(S'MPI_Barrier()'
p9003
S'4113'
p9004
tp9005
a(S'MPI_Barrier()'
p9006
S'4119'
p9007
tp9008
a(S'MPI_Barrier()'
p9009
S'4125'
p9010
tp9011
a(S'MPI_Allreduce()'
p9012
S'4134'
p9013
tp9014
a(S'MPI_Allreduce()'
p9015
S'4143'
p9016
tp9017
a(S'MPI_Allreduce()'
p9018
S'4152'
p9019
tp9020
a(S'MPI_Allreduce()'
p9021
S'4161'
p9022
tp9023
a(S'MPI_Allreduce()'
p9024
S'4170'
p9025
tp9026
a(S'MPI_Allreduce()'
p9027
S'4179'
p9028
tp9029
a(S'MPI_Allreduce()'
p9030
S'4188'
p9031
tp9032
a(S'MPI_Scan()'
p9033
S'4197'
p9034
tp9035
a(S'MPI_Allreduce()'
p9036
S'4254'
p9037
tp9038
a(S'MPI_Scan()'
p9039
S'4263'
p9040
tp9041
a(S'MPI_Allreduce()'
p9042
S'4319'
p9043
tp9044
a(S'MPI_Allreduce()'
p9045
S'4328'
p9046
tp9047
a(S'MPI_Allreduce()'
p9048
S'4337'
p9049
tp9050
a(S'MPI_Allreduce()'
p9051
S'4346'
p9052
tp9053
a(S'MPI_Allreduce()'
p9054
S'4355'
p9055
tp9056
a(S'MPI_Allreduce()'
p9057
S'4364'
p9058
tp9059
a(S'MPI_Allreduce()'
p9060
S'4373'
p9061
tp9062
a(S'MPI_Allreduce()'
p9063
S'4382'
p9064
tp9065
a(S'MPI_Allreduce()'
p9066
S'4391'
p9067
tp9068
a(S'MPI_Barrier()'
p9069
S'4397'
p9070
tp9071
a(S'MPI_Barrier()'
p9072
S'4403'
p9073
tp9074
a(S'MPI_Barrier()'
p9075
S'4409'
p9076
tp9077
a(S'MPI_Barrier()'
p9078
S'4415'
p9079
tp9080
a(S'MPI_Allreduce()'
p9081
S'4424'
p9082
tp9083
a(S'MPI_Allreduce()'
p9084
S'4433'
p9085
tp9086
a(S'MPI_Allreduce()'
p9087
S'4442'
p9088
tp9089
a(S'MPI_Barrier()'
p9090
S'4448'
p9091
tp9092
a(S'MPI_Barrier()'
p9093
S'4454'
p9094
tp9095
a(S'MPI_Barrier()'
p9096
S'4460'
p9097
tp9098
a(S'MPI_Barrier()'
p9099
S'4466'
p9100
tp9101
a(S'MPI_Allreduce()'
p9102
S'4475'
p9103
tp9104
a(S'MPI_Allreduce()'
p9105
S'4484'
p9106
tp9107
a(S'MPI_Allreduce()'
p9108
S'4493'
p9109
tp9110
a(S'MPI_Allreduce()'
p9111
S'4502'
p9112
tp9113
a(S'MPI_Barrier()'
p9114
S'4508'
p9115
tp9116
a(S'MPI_Barrier()'
p9117
S'4514'
p9118
tp9119
a(S'MPI_Barrier()'
p9120
S'4520'
p9121
tp9122
a(S'MPI_Barrier()'
p9123
S'4526'
p9124
tp9125
a(S'MPI_Allreduce()'
p9126
S'4535'
p9127
tp9128
a(S'MPI_Allreduce()'
p9129
S'4544'
p9130
tp9131
a(S'MPI_Allreduce()'
p9132
S'4553'
p9133
tp9134
a(S'MPI_Barrier()'
p9135
S'4559'
p9136
tp9137
a(S'MPI_Barrier()'
p9138
S'4565'
p9139
tp9140
a(S'MPI_Barrier()'
p9141
S'4571'
p9142
tp9143
a(S'MPI_Barrier()'
p9144
S'4577'
p9145
tp9146
a(S'MPI_Allreduce()'
p9147
S'4586'
p9148
tp9149
a(S'MPI_Allreduce()'
p9150
S'4595'
p9151
tp9152
a(S'MPI_Allreduce()'
p9153
S'4604'
p9154
tp9155
a(S'MPI_Allreduce()'
p9156
S'4613'
p9157
tp9158
a(S'MPI_Barrier()'
p9159
S'4619'
p9160
tp9161
a(S'MPI_Barrier()'
p9162
S'4625'
p9163
tp9164
a(S'MPI_Barrier()'
p9165
S'4631'
p9166
tp9167
a(S'MPI_Barrier()'
p9168
S'4637'
p9169
tp9170
a(S'MPI_Allreduce()'
p9171
S'4646'
p9172
tp9173
a(S'MPI_Allreduce()'
p9174
S'4655'
p9175
tp9176
a(S'MPI_Allreduce()'
p9177
S'4664'
p9178
tp9179
a(S'MPI_Barrier()'
p9180
S'4670'
p9181
tp9182
a(S'MPI_Barrier()'
p9183
S'4676'
p9184
tp9185
a(S'MPI_Barrier()'
p9186
S'4682'
p9187
tp9188
a(S'MPI_Barrier()'
p9189
S'4688'
p9190
tp9191
a(S'MPI_Allreduce()'
p9192
S'4697'
p9193
tp9194
a(S'MPI_Allreduce()'
p9195
S'4706'
p9196
tp9197
a(S'MPI_Allreduce()'
p9198
S'4715'
p9199
tp9200
a(S'MPI_Allreduce()'
p9201
S'4726'
p9202
tp9203
a(S'MPI_Barrier()'
p9204
S'4732'
p9205
tp9206
a(S'MPI_Barrier()'
p9207
S'4738'
p9208
tp9209
a(S'MPI_Barrier()'
p9210
S'4744'
p9211
tp9212
a(S'MPI_Barrier()'
p9213
S'4750'
p9214
tp9215
a(S'MPI_Allreduce()'
p9216
S'4759'
p9217
tp9218
a(S'MPI_Allreduce()'
p9219
S'4768'
p9220
tp9221
a(S'MPI_Allreduce()'
p9222
S'4777'
p9223
tp9224
a(S'MPI_Barrier()'
p9225
S'4783'
p9226
tp9227
a(S'MPI_Barrier()'
p9228
S'4789'
p9229
tp9230
a(S'MPI_Barrier()'
p9231
S'4795'
p9232
tp9233
a(S'MPI_Barrier()'
p9234
S'4801'
p9235
tp9236
a(S'MPI_Allreduce()'
p9237
S'4810'
p9238
tp9239
a(S'MPI_Allreduce()'
p9240
S'4819'
p9241
tp9242
a(S'MPI_Allreduce()'
p9243
S'4828'
p9244
tp9245
a(S'MPI_Allreduce()'
p9246
S'4837'
p9247
tp9248
a(S'MPI_Barrier()'
p9249
S'4843'
p9250
tp9251
a(S'MPI_Barrier()'
p9252
S'4849'
p9253
tp9254
a(S'MPI_Barrier()'
p9255
S'4855'
p9256
tp9257
a(S'MPI_Barrier()'
p9258
S'4861'
p9259
tp9260
a(S'MPI_Allreduce()'
p9261
S'4870'
p9262
tp9263
a(S'MPI_Allreduce()'
p9264
S'4879'
p9265
tp9266
a(S'MPI_Allreduce()'
p9267
S'4888'
p9268
tp9269
a(S'MPI_Allreduce()'
p9270
S'4897'
p9271
tp9272
a(S'MPI_Barrier()'
p9273
S'4903'
p9274
tp9275
a(S'MPI_Barrier()'
p9276
S'4909'
p9277
tp9278
a(S'MPI_Barrier()'
p9279
S'4915'
p9280
tp9281
a(S'MPI_Barrier()'
p9282
S'4921'
p9283
tp9284
a(S'MPI_Allreduce()'
p9285
S'4930'
p9286
tp9287
a(S'MPI_Allreduce()'
p9288
S'4939'
p9289
tp9290
a(S'MPI_Allreduce()'
p9291
S'4948'
p9292
tp9293
a(S'MPI_Allreduce()'
p9294
S'4957'
p9295
tp9296
a(S'MPI_Barrier()'
p9297
S'4963'
p9298
tp9299
a(S'MPI_Barrier()'
p9300
S'4969'
p9301
tp9302
a(S'MPI_Barrier()'
p9303
S'4975'
p9304
tp9305
a(S'MPI_Barrier()'
p9306
S'4981'
p9307
tp9308
a(S'MPI_Allreduce()'
p9309
S'4990'
p9310
tp9311
a(S'MPI_Allreduce()'
p9312
S'4999'
p9313
tp9314
a(S'MPI_Allreduce()'
p9315
S'5008'
p9316
tp9317
a(S'MPI_Allreduce()'
p9318
S'5017'
p9319
tp9320
a(S'MPI_Barrier()'
p9321
S'5023'
p9322
tp9323
a(S'MPI_Barrier()'
p9324
S'5029'
p9325
tp9326
a(S'MPI_Barrier()'
p9327
S'5035'
p9328
tp9329
a(S'MPI_Barrier()'
p9330
S'5041'
p9331
tp9332
a(S'MPI_Allreduce()'
p9333
S'5050'
p9334
tp9335
a(S'MPI_Allreduce()'
p9336
S'5059'
p9337
tp9338
a(S'MPI_Allreduce()'
p9339
S'5068'
p9340
tp9341
a(S'MPI_Barrier()'
p9342
S'5074'
p9343
tp9344
a(S'MPI_Barrier()'
p9345
S'5080'
p9346
tp9347
a(S'MPI_Barrier()'
p9348
S'5086'
p9349
tp9350
a(S'MPI_Barrier()'
p9351
S'5092'
p9352
tp9353
a(S'MPI_Allreduce()'
p9354
S'5101'
p9355
tp9356
a(S'MPI_Allreduce()'
p9357
S'5110'
p9358
tp9359
a(S'MPI_Allreduce()'
p9360
S'5119'
p9361
tp9362
a(S'MPI_Allreduce()'
p9363
S'5128'
p9364
tp9365
a(S'MPI_Allreduce()'
p9366
S'5137'
p9367
tp9368
a(S'MPI_Comm_dup()'
p9369
S'5141'
p9370
tp9371
a(S'MPI_Allreduce()'
p9372
S'5149'
p9373
tp9374
a(S'MPI_Allreduce()'
p9375
S'5158'
p9376
tp9377
a(S'MPI_Allreduce()'
p9378
S'5167'
p9379
tp9380
a(S'MPI_Allreduce()'
p9381
S'5176'
p9382
tp9383
a(S'MPI_Allreduce()'
p9384
S'5185'
p9385
tp9386
a(S'MPI_Allreduce()'
p9387
S'5194'
p9388
tp9389
a(S'MPI_Allreduce()'
p9390
S'5203'
p9391
tp9392
a(S'MPI_Allreduce()'
p9393
S'5212'
p9394
tp9395
a(S'MPI_Allreduce()'
p9396
S'5221'
p9397
tp9398
a(S'MPI_Comm_split()'
p9399
S'5227'
p9400
tp9401
a(S'MPI_Allreduce()'
p9402
S'5238'
p9403
tp9404
a(S'MPI_Allreduce()'
p9405
S'5247'
p9406
tp9407
a(S'MPI_Allreduce()'
p9408
S'5256'
p9409
tp9410
a(S'MPI_Allreduce()'
p9411
S'5265'
p9412
tp9413
a(S'MPI_Allreduce()'
p9414
S'5274'
p9415
tp9416
a(S'MPI_Allreduce()'
p9417
S'5283'
p9418
tp9419
a(S'MPI_Allreduce()'
p9420
S'5292'
p9421
tp9422
a(S'MPI_Allreduce()'
p9423
S'5301'
p9424
tp9425
a(S'MPI_Allreduce()'
p9426
S'5310'
p9427
tp9428
a(S'MPI_Allreduce()'
p9429
S'5319'
p9430
tp9431
a(S'MPI_Allreduce()'
p9432
S'5328'
p9433
tp9434
a(S'MPI_Comm_split()'
p9435
S'5334'
p9436
tp9437
a(S'MPI_Barrier()'
p9438
S'5349'
p9439
tp9440
a(S'MPI_Allreduce()'
p9441
S'5358'
p9442
tp9443
a(S'MPI_Barrier()'
p9444
S'5368'
p9445
tp9446
a(S'MPI_Allgather()'
p9447
S'5378'
p9448
tp9449
a(S'MPI_Barrier()'
p9450
S'5384'
p9451
tp9452
a(S'MPI_Barrier()'
p9453
S'5390'
p9454
tp9455
a(S'MPI_Barrier()'
p9456
S'5396'
p9457
tp9458
a(S'MPI_Barrier()'
p9459
S'5402'
p9460
tp9461
a(S'MPI_Allreduce()'
p9462
S'5411'
p9463
tp9464
a(S'MPI_Allreduce()'
p9465
S'5420'
p9466
tp9467
a(S'MPI_Allreduce()'
p9468
S'5429'
p9469
tp9470
a(S'MPI_Allreduce()'
p9471
S'5438'
p9472
tp9473
a(S'MPI_Allreduce()'
p9474
S'5447'
p9475
tp9476
a(S'MPI_Allreduce()'
p9477
S'5456'
p9478
tp9479
a(S'MPI_Allreduce()'
p9480
S'5465'
p9481
tp9482
a(S'MPI_Scan()'
p9483
S'5474'
p9484
tp9485
a(S'MPI_Allreduce()'
p9486
S'5531'
p9487
tp9488
a(S'MPI_Scan()'
p9489
S'5540'
p9490
tp9491
a(S'MPI_Allreduce()'
p9492
S'5596'
p9493
tp9494
a(S'MPI_Allreduce()'
p9495
S'5605'
p9496
tp9497
a(S'MPI_Allreduce()'
p9498
S'5614'
p9499
tp9500
a(S'MPI_Barrier()'
p9501
S'5620'
p9502
tp9503
a(S'MPI_Barrier()'
p9504
S'5626'
p9505
tp9506
a(S'MPI_Barrier()'
p9507
S'5632'
p9508
tp9509
a(S'MPI_Barrier()'
p9510
S'5638'
p9511
tp9512
a(S'MPI_Allreduce()'
p9513
S'5647'
p9514
tp9515
a(S'MPI_Allreduce()'
p9516
S'5656'
p9517
tp9518
a(S'MPI_Allreduce()'
p9519
S'5665'
p9520
tp9521
a(S'MPI_Barrier()'
p9522
S'5671'
p9523
tp9524
a(S'MPI_Barrier()'
p9525
S'5677'
p9526
tp9527
a(S'MPI_Barrier()'
p9528
S'5683'
p9529
tp9530
a(S'MPI_Barrier()'
p9531
S'5689'
p9532
tp9533
a(S'MPI_Allreduce()'
p9534
S'5700'
p9535
tp9536
a(S'MPI_Allreduce()'
p9537
S'5709'
p9538
tp9539
a(S'MPI_Allreduce()'
p9540
S'5718'
p9541
tp9542
a(S'MPI_Barrier()'
p9543
S'5724'
p9544
tp9545
a(S'MPI_Barrier()'
p9546
S'5730'
p9547
tp9548
a(S'MPI_Barrier()'
p9549
S'5736'
p9550
tp9551
a(S'MPI_Barrier()'
p9552
S'5742'
p9553
tp9554
a(S'MPI_Allreduce()'
p9555
S'5753'
p9556
tp9557
a(S'MPI_Allreduce()'
p9558
S'5762'
p9559
tp9560
a(S'MPI_Allreduce()'
p9561
S'5771'
p9562
tp9563
a(S'MPI_Barrier()'
p9564
S'5777'
p9565
tp9566
a(S'MPI_Barrier()'
p9567
S'5783'
p9568
tp9569
a(S'MPI_Barrier()'
p9570
S'5789'
p9571
tp9572
a(S'MPI_Barrier()'
p9573
S'5795'
p9574
tp9575
a(S'MPI_Allreduce()'
p9576
S'5806'
p9577
tp9578
a(S'MPI_Allreduce()'
p9579
S'5815'
p9580
tp9581
a(S'MPI_Allreduce()'
p9582
S'5824'
p9583
tp9584
a(S'MPI_Barrier()'
p9585
S'5830'
p9586
tp9587
a(S'MPI_Barrier()'
p9588
S'5836'
p9589
tp9590
a(S'MPI_Barrier()'
p9591
S'5842'
p9592
tp9593
a(S'MPI_Barrier()'
p9594
S'5848'
p9595
tp9596
a(S'MPI_Allreduce()'
p9597
S'5857'
p9598
tp9599
a(S'MPI_Allreduce()'
p9600
S'5866'
p9601
tp9602
a(S'MPI_Allreduce()'
p9603
S'5875'
p9604
tp9605
a(S'MPI_Barrier()'
p9606
S'5881'
p9607
tp9608
a(S'MPI_Barrier()'
p9609
S'5887'
p9610
tp9611
a(S'MPI_Barrier()'
p9612
S'5893'
p9613
tp9614
a(S'MPI_Barrier()'
p9615
S'5899'
p9616
tp9617
a(S'MPI_Allreduce()'
p9618
S'5908'
p9619
tp9620
a(S'MPI_Allreduce()'
p9621
S'5917'
p9622
tp9623
a(S'MPI_Allreduce()'
p9624
S'5926'
p9625
tp9626
a(S'MPI_Barrier()'
p9627
S'5932'
p9628
tp9629
a(S'MPI_Barrier()'
p9630
S'5938'
p9631
tp9632
a(S'MPI_Barrier()'
p9633
S'5944'
p9634
tp9635
a(S'MPI_Barrier()'
p9636
S'5950'
p9637
tp9638
a(S'MPI_Allreduce()'
p9639
S'5961'
p9640
tp9641
a(S'MPI_Allreduce()'
p9642
S'5970'
p9643
tp9644
a(S'MPI_Allreduce()'
p9645
S'5979'
p9646
tp9647
a(S'MPI_Barrier()'
p9648
S'5985'
p9649
tp9650
a(S'MPI_Barrier()'
p9651
S'5991'
p9652
tp9653
a(S'MPI_Barrier()'
p9654
S'5997'
p9655
tp9656
a(S'MPI_Barrier()'
p9657
S'6003'
p9658
tp9659
a(S'MPI_Allreduce()'
p9660
S'6012'
p9661
tp9662
a(S'MPI_Allreduce()'
p9663
S'6021'
p9664
tp9665
a(S'MPI_Allreduce()'
p9666
S'6030'
p9667
tp9668
a(S'MPI_Barrier()'
p9669
S'6036'
p9670
tp9671
a(S'MPI_Barrier()'
p9672
S'6042'
p9673
tp9674
a(S'MPI_Barrier()'
p9675
S'6048'
p9676
tp9677
a(S'MPI_Barrier()'
p9678
S'6054'
p9679
tp9680
a(S'MPI_Allreduce()'
p9681
S'6065'
p9682
tp9683
a(S'MPI_Allreduce()'
p9684
S'6074'
p9685
tp9686
a(S'MPI_Allreduce()'
p9687
S'6083'
p9688
tp9689
a(S'MPI_Barrier()'
p9690
S'6089'
p9691
tp9692
a(S'MPI_Barrier()'
p9693
S'6095'
p9694
tp9695
a(S'MPI_Barrier()'
p9696
S'6101'
p9697
tp9698
a(S'MPI_Barrier()'
p9699
S'6107'
p9700
tp9701
a(S'MPI_Allreduce()'
p9702
S'6116'
p9703
tp9704
a(S'MPI_Allreduce()'
p9705
S'6125'
p9706
tp9707
a(S'MPI_Allreduce()'
p9708
S'6134'
p9709
tp9710
a(S'MPI_Barrier()'
p9711
S'6140'
p9712
tp9713
a(S'MPI_Barrier()'
p9714
S'6146'
p9715
tp9716
a(S'MPI_Barrier()'
p9717
S'6152'
p9718
tp9719
a(S'MPI_Barrier()'
p9720
S'6158'
p9721
tp9722
a(S'MPI_Allreduce()'
p9723
S'6167'
p9724
tp9725
a(S'MPI_Allreduce()'
p9726
S'6176'
p9727
tp9728
a(S'MPI_Allreduce()'
p9729
S'6185'
p9730
tp9731
a(S'MPI_Barrier()'
p9732
S'6191'
p9733
tp9734
a(S'MPI_Barrier()'
p9735
S'6197'
p9736
tp9737
a(S'MPI_Barrier()'
p9738
S'6203'
p9739
tp9740
a(S'MPI_Barrier()'
p9741
S'6209'
p9742
tp9743
a(S'MPI_Allreduce()'
p9744
S'6218'
p9745
tp9746
a(S'MPI_Allreduce()'
p9747
S'6227'
p9748
tp9749
a(S'MPI_Allreduce()'
p9750
S'6236'
p9751
tp9752
a(S'MPI_Barrier()'
p9753
S'6242'
p9754
tp9755
a(S'MPI_Barrier()'
p9756
S'6248'
p9757
tp9758
a(S'MPI_Barrier()'
p9759
S'6254'
p9760
tp9761
a(S'MPI_Barrier()'
p9762
S'6260'
p9763
tp9764
a(S'MPI_Allreduce()'
p9765
S'6269'
p9766
tp9767
a(S'MPI_Allreduce()'
p9768
S'6278'
p9769
tp9770
a(S'MPI_Allreduce()'
p9771
S'6287'
p9772
tp9773
a(S'MPI_Allreduce()'
p9774
S'6296'
p9775
tp9776
a(S'MPI_Barrier()'
p9777
S'6302'
p9778
tp9779
a(S'MPI_Barrier()'
p9780
S'6308'
p9781
tp9782
a(S'MPI_Barrier()'
p9783
S'6314'
p9784
tp9785
a(S'MPI_Barrier()'
p9786
S'6320'
p9787
tp9788
a(S'MPI_Allreduce()'
p9789
S'6329'
p9790
tp9791
a(S'MPI_Allreduce()'
p9792
S'6338'
p9793
tp9794
a(S'MPI_Allreduce()'
p9795
S'6347'
p9796
tp9797
a(S'MPI_Allreduce()'
p9798
S'6356'
p9799
tp9800
a(S'MPI_Barrier()'
p9801
S'6362'
p9802
tp9803
a(S'MPI_Barrier()'
p9804
S'6368'
p9805
tp9806
a(S'MPI_Barrier()'
p9807
S'6374'
p9808
tp9809
a(S'MPI_Barrier()'
p9810
S'6380'
p9811
tp9812
a(S'MPI_Allreduce()'
p9813
S'6389'
p9814
tp9815
a(S'MPI_Allreduce()'
p9816
S'6398'
p9817
tp9818
a(S'MPI_Allreduce()'
p9819
S'6407'
p9820
tp9821
a(S'MPI_Allreduce()'
p9822
S'6416'
p9823
tp9824
a(S'MPI_Allreduce()'
p9825
S'6425'
p9826
tp9827
a(S'MPI_Comm_dup()'
p9828
S'6429'
p9829
tp9830
a(S'MPI_Allreduce()'
p9831
S'6437'
p9832
tp9833
a(S'MPI_Allreduce()'
p9834
S'6446'
p9835
tp9836
a(S'MPI_Allreduce()'
p9837
S'6455'
p9838
tp9839
a(S'MPI_Allreduce()'
p9840
S'6464'
p9841
tp9842
a(S'MPI_Allreduce()'
p9843
S'6473'
p9844
tp9845
a(S'MPI_Allreduce()'
p9846
S'6482'
p9847
tp9848
a(S'MPI_Allreduce()'
p9849
S'6491'
p9850
tp9851
a(S'MPI_Allreduce()'
p9852
S'6500'
p9853
tp9854
a(S'MPI_Allreduce()'
p9855
S'6509'
p9856
tp9857
a(S'MPI_Allreduce()'
p9858
S'6518'
p9859
tp9860
a(S'MPI_Allreduce()'
p9861
S'6527'
p9862
tp9863
a(S'MPI_Allreduce()'
p9864
S'6536'
p9865
tp9866
a(S'MPI_Allreduce()'
p9867
S'6545'
p9868
tp9869
a(S'MPI_Allreduce()'
p9870
S'6554'
p9871
tp9872
a(S'MPI_Allreduce()'
p9873
S'6563'
p9874
tp9875
a(S'MPI_Allreduce()'
p9876
S'6572'
p9877
tp9878
a(S'MPI_Comm_split()'
p9879
S'6578'
p9880
tp9881
a(S'MPI_Allreduce()'
p9882
S'6589'
p9883
tp9884
a(S'MPI_Allreduce()'
p9885
S'6598'
p9886
tp9887
a(S'MPI_Allreduce()'
p9888
S'6607'
p9889
tp9890
a(S'MPI_Allreduce()'
p9891
S'6616'
p9892
tp9893
a(S'MPI_Allreduce()'
p9894
S'6625'
p9895
tp9896
a(S'MPI_Allreduce()'
p9897
S'6634'
p9898
tp9899
a(S'MPI_Allreduce()'
p9900
S'6643'
p9901
tp9902
a(S'MPI_Allreduce()'
p9903
S'6652'
p9904
tp9905
a(S'MPI_Allreduce()'
p9906
S'6661'
p9907
tp9908
a(S'MPI_Allreduce()'
p9909
S'6670'
p9910
tp9911
a(S'MPI_Comm_split()'
p9912
S'6676'
p9913
tp9914
a(S'MPI_Barrier()'
p9915
S'6691'
p9916
tp9917
a(S'MPI_Allreduce()'
p9918
S'6700'
p9919
tp9920
a(S'MPI_Barrier()'
p9921
S'6710'
p9922
tp9923
a(S'MPI_Allgather()'
p9924
S'6720'
p9925
tp9926
a(S'MPI_Barrier()'
p9927
S'6726'
p9928
tp9929
a(S'MPI_Barrier()'
p9930
S'6732'
p9931
tp9932
a(S'MPI_Barrier()'
p9933
S'6738'
p9934
tp9935
a(S'MPI_Barrier()'
p9936
S'6744'
p9937
tp9938
a(S'MPI_Allreduce()'
p9939
S'6753'
p9940
tp9941
a(S'MPI_Allreduce()'
p9942
S'6762'
p9943
tp9944
a(S'MPI_Allreduce()'
p9945
S'6771'
p9946
tp9947
a(S'MPI_Allreduce()'
p9948
S'6780'
p9949
tp9950
a(S'MPI_Allreduce()'
p9951
S'6789'
p9952
tp9953
a(S'MPI_Allreduce()'
p9954
S'6798'
p9955
tp9956
a(S'MPI_Allreduce()'
p9957
S'6807'
p9958
tp9959
a(S'MPI_Scan()'
p9960
S'6816'
p9961
tp9962
a(S'MPI_Allreduce()'
p9963
S'6873'
p9964
tp9965
a(S'MPI_Scan()'
p9966
S'6882'
p9967
tp9968
a(S'MPI_Allreduce()'
p9969
S'6938'
p9970
tp9971
a(S'MPI_Allreduce()'
p9972
S'6947'
p9973
tp9974
a(S'MPI_Allreduce()'
p9975
S'6956'
p9976
tp9977
a(S'MPI_Allreduce()'
p9978
S'6965'
p9979
tp9980
a(S'MPI_Allreduce()'
p9981
S'6974'
p9982
tp9983
a(S'MPI_Barrier()'
p9984
S'6980'
p9985
tp9986
a(S'MPI_Allreduce()'
p9987
S'6989'
p9988
tp9989
a(S'MPI_Allreduce()'
p9990
S'6998'
p9991
tp9992
a(S'MPI_Allreduce()'
p9993
S'7007'
p9994
tp9995
a(S'MPI_Allreduce()'
p9996
S'7016'
p9997
tp9998
a(S'MPI_Allreduce()'
p9999
S'7025'
p10000
tp10001
a(S'MPI_Allreduce()'
p10002
S'7034'
p10003
tp10004
a(S'MPI_Allreduce()'
p10005
S'7043'
p10006
tp10007
a(S'MPI_Allreduce()'
p10008
S'7052'
p10009
tp10010
a(S'MPI_Allreduce()'
p10011
S'7061'
p10012
tp10013
a(S'MPI_Allreduce()'
p10014
S'7070'
p10015
tp10016
a(S'MPI_Allreduce()'
p10017
S'7079'
p10018
tp10019
a(S'MPI_Allreduce()'
p10020
S'7088'
p10021
tp10022
a(S'MPI_Allreduce()'
p10023
S'7097'
p10024
tp10025
a(S'MPI_Allreduce()'
p10026
S'7106'
p10027
tp10028
a(S'MPI_Allreduce()'
p10029
S'7115'
p10030
tp10031
a(S'MPI_Allreduce()'
p10032
S'7124'
p10033
tp10034
a(S'MPI_Allreduce()'
p10035
S'7133'
p10036
tp10037
a(S'MPI_Allreduce()'
p10038
S'7142'
p10039
tp10040
a(S'MPI_Allreduce()'
p10041
S'7151'
p10042
tp10043
a(S'MPI_Allreduce()'
p10044
S'7160'
p10045
tp10046
a(S'MPI_Allreduce()'
p10047
S'7169'
p10048
tp10049
a(S'MPI_Allreduce()'
p10050
S'7178'
p10051
tp10052
a(S'MPI_Allreduce()'
p10053
S'7187'
p10054
tp10055
a(S'MPI_Allreduce()'
p10056
S'7196'
p10057
tp10058
a(S'MPI_Allreduce()'
p10059
S'7205'
p10060
tp10061
a(S'MPI_Allreduce()'
p10062
S'7214'
p10063
tp10064
a(S'MPI_Allreduce()'
p10065
S'7223'
p10066
tp10067
a(S'MPI_Allreduce()'
p10068
S'7232'
p10069
tp10070
a(S'MPI_Allreduce()'
p10071
S'7241'
p10072
tp10073
a(S'MPI_Allreduce()'
p10074
S'7250'
p10075
tp10076
a(S'MPI_Allreduce()'
p10077
S'7259'
p10078
tp10079
a(S'MPI_Allreduce()'
p10080
S'7268'
p10081
tp10082
a(S'MPI_Allreduce()'
p10083
S'7277'
p10084
tp10085
a(S'MPI_Allreduce()'
p10086
S'7286'
p10087
tp10088
a(S'MPI_Allreduce()'
p10089
S'7295'
p10090
tp10091
a(S'MPI_Allreduce()'
p10092
S'7304'
p10093
tp10094
a(S'MPI_Allreduce()'
p10095
S'7313'
p10096
tp10097
a(S'MPI_Allreduce()'
p10098
S'7322'
p10099
tp10100
a(S'MPI_Allreduce()'
p10101
S'7331'
p10102
tp10103
a(S'MPI_Allreduce()'
p10104
S'7340'
p10105
tp10106
a(S'MPI_Allreduce()'
p10107
S'7349'
p10108
tp10109
a(S'MPI_Allreduce()'
p10110
S'7358'
p10111
tp10112
a(S'MPI_Allreduce()'
p10113
S'7367'
p10114
tp10115
a(S'MPI_Allreduce()'
p10116
S'7376'
p10117
tp10118
a(S'MPI_Allreduce()'
p10119
S'7385'
p10120
tp10121
a(S'MPI_Bcast()'
p10122
S'7393'
p10123
tp10124
a(S'MPI_Bcast()'
p10125
S'7401'
p10126
tp10127
a(S'MPI_Allreduce()'
p10128
S'7487'
p10129
tp10130
a(S'MPI_Scan()'
p10131
S'7496'
p10132
tp10133
a(S'MPI_Bcast()'
p10134
S'7560'
p10135
tp10136
a(S'MPI_Barrier()'
p10137
S'7580'
p10138
tp10139
a(S'MPI_Gather()'
p10140
S'7596'
p10141
tp10142
a(S'MPI_Gather()'
p10143
S'7609'
p10144
tp10145
a(S'MPI_Gather()'
p10146
S'7622'
p10147
tp10148
a(S'MPI_Gather()'
p10149
S'7635'
p10150
tp10151
a(S'MPI_Gather()'
p10152
S'7648'
p10153
tp10154
a(S'MPI_Gather()'
p10155
S'7661'
p10156
tp10157
asS'io-profiling/skel_io/lammps_outputs/skel_lammps.cxx'
p10158
(lp10159
(S'MPI_Init()'
p10160
S'16'
p10161
tp10162
a(S'MPI_Finalize()'
p10163
S'28'
p10164
tp10165
as.