ccollections
defaultdict
p0
(c__builtin__
list
p1
tp2
Rp3
S'SG-command-recognition/presentation/presentation/R/library/BH/include/boost/graph/distributed/page_rank.hpp'
p4
(lp5
(S'MPI_Comm_rank()'
p6
S'40'
p7
tp8
a(S'MPI_Accumulate()'
p9
S'53'
p10
tp11
a(S'MPI_Win_fence()'
p12
S'60'
p13
tp14
a(S'MPI_Comm_rank()'
p15
S'90'
p16
tp17
a(S'MPI_Win_create()'
p18
S'115'
p19
tp20
a(S'X_MPI_INFO_NULL()'
p21
S'118'
p22
tp23
a(S'MPI_Win_set_name()'
p24
S'119'
p25
tp26
a(S'MPI_Win_create()'
p27
S'120'
p28
tp29
a(S'X_MPI_INFO_NULL()'
p30
S'123'
p31
tp32
a(S'MPI_Win_set_name()'
p33
S'124'
p34
tp35
a(S'MPI_Win_fence()'
p36
S'129'
p37
tp38
a(S'MPI_Win_fence()'
p39
S'130'
p40
tp41
a(S'MPI_Win_free()'
p42
S'144'
p43
tp44
a(S'MPI_Win_free()'
p45
S'145'
p46
tp47
asS'SG-command-recognition/presentation/presentation/R/library/BH/include/boost/mpi/allocator.hpp'
p48
(lp49
(S'X_MPI_INFO_NULL()'
p50
S'141'
p51
tp52
asS'SG-command-recognition/presentation/presentation/R/library/BH/include/boost/mpi/communicator.hpp'
p53
(lp54
(S'MPI_Comm()'
p55
S'1428'
p56
tp57
a(S'MPI_Comm()'
p58
S'1451'
p59
tp60
a(S'MPI_Comm()'
p61
S'1487'
p62
tp63
a(S'MPI_Comm()'
p64
S'1510'
p65
tp66
asS'SG-command-recognition/presentation/presentation/R/library/BH/include/boost/mpi/datatype.hpp'
p67
(lp68
(S'X_MPI_LONG_DOUBLE_INT()'
p69
S'250'
p70
tp71
a(S'MPI_Type_contiguous()'
p72
S'310'
p73
tp74
a(S'MPI_Type_commit()'
p75
S'311'
p76
tp77
asS'SG-command-recognition/presentation/presentation/R/library/BH/include/boost/graph/distributed/mpi_process_group.hpp'
p78
(lp79
(S'MPI_Bsend()'
p80
S'708'
p81
tp82
a(S'MPI_Isend()'
p83
S'714'
p84
tp85
a(S'MPI_Test()'
p86
S'720'
p87
tp88
a(S'MPI_Bsend()'
p89
S'744'
p90
tp91
a(S'MPI_Isend()'
p92
S'750'
p93
tp94
a(S'MPI_Test()'
p95
S'756'
p96
tp97
asS'SG-command-recognition/presentation/presentation/R/library/BH/include/boost/graph/distributed/detail/mpi_process_group.ipp'
p98
(lp99
(S'MPI_Recv()'
p100
S'492'
p101
tp102
a(S'MPI_Get_count()'
p103
S'510'
p104
tp105
a(S'MPI_Recv()'
p106
S'516'
p107
tp108
a(S'MPI_Irecv()'
p109
S'665'
p110
tp111
a(S'X_MPI_PACKED()'
p112
S'666'
p113
tp114
a(S'MPI_Allgather()'
p115
S'837'
p116
tp117
a(S'MPI_Allgatherv()'
p118
S'856'
p119
tp120
a(S'X_MPI_BYTE()'
p121
S'859'
p122
tp123
a(S'MPI_Comm_group()'
p124
S'880'
p125
tp126
a(S'MPI_Group_incl()'
p127
S'884'
p128
tp129
a(S'MPI_Comm_create()'
p130
S'888'
p131
tp132
a(S'MPI_Group_free()'
p133
S'891'
p134
tp135
a(S'MPI_Group_free()'
p136
S'893'
p137
tp138
a(S'MPI_Comm_free()'
p139
S'898'
p140
tp141
a(S'MPI_Irecv()'
p142
S'929'
p143
tp144
a(S'MPI_Test()'
p145
S'934'
p146
tp147
a(S'MPI_Get_count()'
p148
S'967'
p149
tp150
a(S'MPI_Recv()'
p151
S'972'
p152
tp153
asS'SG-command-recognition/presentation/presentation/R/library/BH/include/boost/mpi/exception.hpp'
p154
(lp155
(S'MPI_Error_class()'
p156
S'73'
p157
tp158
asS'SG-command-recognition/presentation/presentation/R/library/BH/include/boost/mpi/operations.hpp'
p159
(lp160
(S'MPI_Op_free()'
p161
S'293'
p162
tp163
asS'SG-command-recognition/presentation/presentation/R/library/BH/include/boost/mpi/timer.hpp'
p164
(lp165
(S'MPI_Wtime()'
p166
S'71'
p167
tp168
as.