ccollections
defaultdict
p0
(c__builtin__
list
p1
tp2
Rp3
S'Parallelization-of-energy-calculation--MPI-OpenMP--//sequential_energy.c'
p4
(lp5
(S'MPI_Init()'
p6
S'47'
p7
tp8
a(S'MPI_Comm_size()'
p9
S'48'
p10
tp11
a(S'MPI_Comm_rank()'
p12
S'49'
p13
tp14
a(S'MPI_Barrier()'
p15
S'88'
p16
tp17
a(S'MPI_Allreduce()'
p18
S'107'
p19
tp20
a(S'MPI_Allreduce()'
p21
S'108'
p22
tp23
a(S'MPI_Allreduce()'
p24
S'109'
p25
tp26
a(S'MPI_Allreduce()'
p27
S'117'
p28
tp29
a(S'MPI_Allreduce()'
p30
S'118'
p31
tp32
a(S'MPI_Allreduce()'
p33
S'119'
p34
tp35
a(S'MPI_Allreduce()'
p36
S'120'
p37
tp38
a(S'MPI_Allreduce()'
p39
S'121'
p40
tp41
a(S'MPI_Allreduce()'
p42
S'122'
p43
tp44
a(S'MPI_Finalize()'
p45
S'137'
p46
tp47
asS'Parallelization-of-energy-calculation--MPI-OpenMP--//ndependent_reading.c'
p48
(lp49
(S'MPI_Init()'
p50
S'48'
p51
tp52
a(S'MPI_Comm_size()'
p53
S'49'
p54
tp55
a(S'MPI_Comm_rank()'
p56
S'50'
p57
tp58
a(S'MPI_Allreduce()'
p59
S'103'
p60
tp61
a(S'MPI_Allreduce()'
p62
S'104'
p63
tp64
a(S'MPI_Allreduce()'
p65
S'105'
p66
tp67
a(S'MPI_Allreduce()'
p68
S'113'
p69
tp70
a(S'MPI_Allreduce()'
p71
S'114'
p72
tp73
a(S'MPI_Allreduce()'
p74
S'115'
p75
tp76
a(S'MPI_Allreduce()'
p77
S'116'
p78
tp79
a(S'MPI_Allreduce()'
p80
S'117'
p81
tp82
a(S'MPI_Allreduce()'
p83
S'118'
p84
tp85
a(S'MPI_Finalize()'
p86
S'133'
p87
tp88
asS'Parallelization-of-energy-calculation--MPI-OpenMP--//openmpiwater.c'
p89
(lp90
(S'MPI_Init()'
p91
S'47'
p92
tp93
a(S'MPI_Comm_size()'
p94
S'48'
p95
tp96
a(S'MPI_Comm_rank()'
p97
S'49'
p98
tp99
a(S'MPI_Bcast()'
p100
S'85'
p101
tp102
a(S'MPI_Bcast()'
p103
S'86'
p104
tp105
a(S'MPI_Bcast()'
p106
S'87'
p107
tp108
a(S'MPI_Bcast()'
p109
S'88'
p110
tp111
a(S'MPI_Bcast()'
p112
S'89'
p113
tp114
a(S'MPI_Allreduce()'
p115
S'102'
p116
tp117
a(S'MPI_Allreduce()'
p118
S'103'
p119
tp120
a(S'MPI_Allreduce()'
p121
S'104'
p122
tp123
a(S'MPI_Allreduce()'
p124
S'112'
p125
tp126
a(S'MPI_Allreduce()'
p127
S'113'
p128
tp129
a(S'MPI_Allreduce()'
p130
S'114'
p131
tp132
a(S'MPI_Allreduce()'
p133
S'115'
p134
tp135
a(S'MPI_Allreduce()'
p136
S'116'
p137
tp138
a(S'MPI_Allreduce()'
p139
S'117'
p140
tp141
a(S'MPI_Finalize()'
p142
S'132'
p143
tp144
as.