ccollections
defaultdict
p0
(c__builtin__
list
p1
tp2
Rp3
S'windows-vim/vimfiles/bundle/YouCompleteMe/third_party/ycmd/cpp/BoostParts/boost/mpi/datatype.hpp'
p4
(lp5
(S'X_MPI_LONG_DOUBLE_INT()'
p6
S'254'
p7
tp8
a(S'MPI_Type_contiguous()'
p9
S'323'
p10
tp11
a(S'MPI_Type_commit()'
p12
S'324'
p13
tp14
asS'windows-vim/vimfiles/bundle/YouCompleteMe/third_party/ycmd/cpp/BoostParts/boost/mpi/allocator.hpp'
p15
(lp16
(S'X_MPI_INFO_NULL()'
p17
S'141'
p18
tp19
asS'windows-vim/vimfiles/bundle/YouCompleteMe/third_party/ycmd/cpp/BoostParts/boost/mpi/operations.hpp'
p20
(lp21
(S'MPI_Op_free()'
p22
S'293'
p23
tp24
asS'windows-vim/vimfiles/bundle/YouCompleteMe/third_party/ycmd/cpp/BoostParts/boost/mpi/communicator.hpp'
p25
(lp26
(S'MPI_Comm()'
p27
S'1366'
p28
tp29
a(S'MPI_Comm()'
p30
S'1566'
p31
tp32
a(S'MPI_Comm()'
p33
S'1589'
p34
tp35
a(S'MPI_Comm()'
p36
S'1625'
p37
tp38
a(S'MPI_Comm()'
p39
S'1648'
p40
tp41
asS'windows-vim/vimfiles/bundle/YouCompleteMe/third_party/ycmd/cpp/BoostParts/boost/mpi/exception.hpp'
p42
(lp43
(S'MPI_Error_class()'
p44
S'73'
p45
tp46
asS'windows-vim/vimfiles/bundle/YouCompleteMe/third_party/ycmd/cpp/BoostParts/boost/mpi/timer.hpp'
p47
(lp48
(S'MPI_Wtime()'
p49
S'71'
p50
tp51
as.