ccollections
defaultdict
p0
(c__builtin__
list
p1
tp2
Rp3
S'reRender/Source/Support/Include/boost/graph/distributed/detail/mpi_process_group.ipp'
p4
(lp5
(S'MPI_Recv()'
p6
S'493'
p7
tp8
a(S'MPI_Get_count()'
p9
S'511'
p10
tp11
a(S'MPI_Recv()'
p12
S'517'
p13
tp14
a(S'MPI_Irecv()'
p15
S'666'
p16
tp17
a(S'X_MPI_PACKED()'
p18
S'667'
p19
tp20
a(S'MPI_Allgather()'
p21
S'838'
p22
tp23
a(S'MPI_Allgatherv()'
p24
S'866'
p25
tp26
a(S'X_MPI_BYTE()'
p27
S'869'
p28
tp29
a(S'MPI_Comm_group()'
p30
S'890'
p31
tp32
a(S'MPI_Group_incl()'
p33
S'895'
p34
tp35
a(S'MPI_Comm_create()'
p36
S'899'
p37
tp38
a(S'MPI_Group_free()'
p39
S'902'
p40
tp41
a(S'MPI_Group_free()'
p42
S'904'
p43
tp44
a(S'MPI_Comm_free()'
p45
S'909'
p46
tp47
a(S'MPI_Irecv()'
p48
S'940'
p49
tp50
a(S'MPI_Test()'
p51
S'945'
p52
tp53
a(S'MPI_Get_count()'
p54
S'978'
p55
tp56
a(S'MPI_Recv()'
p57
S'983'
p58
tp59
asS'reRender/Source/Support/Include/boost/mpi/allocator.hpp'
p60
(lp61
(S'X_MPI_INFO_NULL()'
p62
S'141'
p63
tp64
asS'reRender/Source/Support/Include/boost/mpi/collectives/all_gather.hpp'
p65
(lp66
(S'MPI_Comm()'
p67
S'62'
p68
tp69
a(S'MPI_Comm()'
p70
S'73'
p71
tp72
asS'reRender/Source/Support/Include/boost/mpi/collectives/broadcast.hpp'
p73
(lp74
(S'X_MPI_BYTE()'
p75
S'120'
p76
tp77
a(S'X_MPI_BYTE()'
p78
S'130'
p79
tp80
asS'reRender/Source/Support/Include/boost/mpi/detail/request_handlers.hpp'
p81
(lp82
(S'MPI_Comm()'
p83
S'324'
p84
tp85
a(S'MPI_Comm()'
p86
S'349'
p87
tp88
a(S'MPI_Comm()'
p89
S'392'
p90
tp91
a(S'MPI_Comm()'
p92
S'417'
p93
tp94
a(S'MPI_Comm()'
p95
S'461'
p96
tp97
a(S'MPI_Comm()'
p98
S'483'
p99
tp100
asS'reRender/Source/Support/Include/boost/mpi/timer.hpp'
p101
(lp102
(S'MPI_Wtime()'
p103
S'71'
p104
tp105
asS'reRender/Source/Support/Include/boost/mpi/datatype.hpp'
p106
(lp107
(S'X_MPI_LONG_DOUBLE_INT()'
p108
S'254'
p109
tp110
a(S'MPI_Type_contiguous()'
p111
S'323'
p112
tp113
a(S'MPI_Type_commit()'
p114
S'324'
p115
tp116
asS'reRender/Source/Support/Include/boost/graph/distributed/mpi_process_group.hpp'
p117
(lp118
(S'MPI_Bsend()'
p119
S'709'
p120
tp121
a(S'MPI_Isend()'
p122
S'715'
p123
tp124
a(S'MPI_Test()'
p125
S'721'
p126
tp127
a(S'MPI_Bsend()'
p128
S'745'
p129
tp130
a(S'MPI_Isend()'
p131
S'751'
p132
tp133
a(S'MPI_Test()'
p134
S'757'
p135
tp136
asS'reRender/Source/Support/Include/boost/mpi/communicator.hpp'
p137
(lp138
(S'MPI_Comm()'
p139
S'1483'
p140
tp141
asS'reRender/Source/Support/Include/boost/mpi/exception.hpp'
p142
(lp143
(S'MPI_Error_class()'
p144
S'74'
p145
tp146
asS'reRender/Source/Support/Include/boost/graph/distributed/page_rank.hpp'
p147
(lp148
(S'MPI_Comm_rank()'
p149
S'40'
p150
tp151
a(S'MPI_Accumulate()'
p152
S'53'
p153
tp154
a(S'MPI_Win_fence()'
p155
S'60'
p156
tp157
a(S'MPI_Comm_rank()'
p158
S'90'
p159
tp160
a(S'MPI_Win_create()'
p161
S'115'
p162
tp163
a(S'X_MPI_INFO_NULL()'
p164
S'118'
p165
tp166
a(S'MPI_Win_set_name()'
p167
S'119'
p168
tp169
a(S'MPI_Win_create()'
p170
S'120'
p171
tp172
a(S'X_MPI_INFO_NULL()'
p173
S'123'
p174
tp175
a(S'MPI_Win_set_name()'
p176
S'124'
p177
tp178
a(S'MPI_Win_fence()'
p179
S'129'
p180
tp181
a(S'MPI_Win_fence()'
p182
S'130'
p183
tp184
a(S'MPI_Win_free()'
p185
S'144'
p186
tp187
a(S'MPI_Win_free()'
p188
S'145'
p189
tp190
asS'reRender/Source/Support/Include/boost/mpi/operations.hpp'
p191
(lp192
(S'MPI_Op_free()'
p193
S'310'
p194
tp195
as.