ccollections
defaultdict
p0
(c__builtin__
list
p1
tp2
Rp3
S'civl/examples/mpi/collective/c_ex06.c'
p4
(lp5
(S'MPI_Init()'
p6
S'23'
p7
tp8
a(S'MPI_Comm_size()'
p9
S'24'
p10
tp11
a(S'MPI_Comm_rank()'
p12
S'25'
p13
tp14
a(S'MPI_Scatter()'
p15
S'50'
p16
tp17
a(S'MPI_Reduce()'
p18
S'60'
p19
tp20
a(S'X_MPI_SUM()'
p21
S'61'
p22
tp23
a(S'MPI_Finalize()'
p24
S'73'
p25
tp26
asS'civl/examples/mpi-omp/AMG2013/IJ_mv/IJMatrix_parcsr.c'
p27
(lp28
(S'MPI_Comm_size()'
p29
S'43'
p30
tp31
a(S'MPI_Comm_rank()'
p32
S'118'
p33
tp34
a(S'MPI_Comm_rank()'
p35
S'222'
p36
tp37
a(S'MPI_Comm_rank()'
p38
S'336'
p39
tp40
a(S'MPI_Comm_size()'
p41
S'417'
p42
tp43
a(S'MPI_Comm_rank()'
p44
S'418'
p45
tp46
a(S'MPI_Comm_size()'
p47
S'628'
p48
tp49
a(S'MPI_Comm_rank()'
p50
S'629'
p51
tp52
a(S'MPI_Comm_size()'
p53
S'1178'
p54
tp55
a(S'MPI_Comm_rank()'
p56
S'1179'
p57
tp58
a(S'MPI_Allreduce()'
p59
S'1725'
p60
tp61
a(S'MPI_Comm_size()'
p62
S'1741'
p63
tp64
a(S'MPI_Comm_rank()'
p65
S'1742'
p66
tp67
a(S'MPI_Comm_size()'
p68
S'1979'
p69
tp70
a(S'MPI_Comm_rank()'
p71
S'1980'
p72
tp73
a(S'MPI_Allgather()'
p74
S'2031'
p75
tp76
a(S'MPI_Allgatherv()'
p77
S'2039'
p78
tp79
a(S'X_MPI_INT()'
p80
S'2040'
p81
tp82
a(S'MPI_Irecv()'
p83
S'2130'
p84
tp85
a(S'MPI_Isend()'
p86
S'2139'
p87
tp88
a(S'MPI_Waitall()'
p89
S'2145'
p90
tp91
a(S'MPI_Irecv()'
p92
S'2154'
p93
tp94
a(S'MPI_Isend()'
p95
S'2163'
p96
tp97
a(S'MPI_Waitall()'
p98
S'2169'
p99
tp100
a(S'MPI_Comm_rank()'
p101
S'2284'
p102
tp103
a(S'MPI_Comm_rank()'
p104
S'2787'
p105
tp106
asS'civl/examples/concurrency/wildcard.cvl'
p107
(lp108
(S'MPI_Comm_rank()'
p109
S'17'
p110
tp111
a(S'MPI_Comm_size()'
p112
S'18'
p113
tp114
a(S'MPI_Send()'
p115
S'22'
p116
tp117
a(S'MPI_Recv()'
p118
S'29'
p119
tp120
asS'civl/examples/mpi-omp/AMG2013/parcsr_ls/par_amg_solve.c'
p121
(lp122
(S'MPI_Comm_size()'
p123
S'87'
p124
tp125
a(S'MPI_Comm_rank()'
p126
S'88'
p127
tp128
a(S'MPI_Pcontrol()'
p129
S'225'
p130
tp131
a(S'MPI_Pcontrol()'
p132
S'226'
p133
tp134
a(S'MPI_Pcontrol()'
p135
S'233'
p136
tp137
a(S'MPI_Pcontrol()'
p138
S'234'
p139
tp140
asS'civl/examples/mpi/collective/scatter.c'
p141
(lp142
(S'MPI_Init()'
p143
S'15'
p144
tp145
a(S'MPI_Comm_size()'
p146
S'16'
p147
tp148
a(S'MPI_Comm_rank()'
p149
S'17'
p150
tp151
a(S'MPI_Scatter()'
p152
S'30'
p153
tp154
a(S'MPI_Scatter()'
p155
S'32'
p156
tp157
a(S'MPI_Scatter()'
p158
S'35'
p159
tp160
a(S'MPI_Scatter()'
p161
S'37'
p162
tp163
a(S'MPI_Scatter()'
p164
S'40'
p165
tp166
a(S'MPI_Finalize()'
p167
S'44'
p168
tp169
asS'civl/examples/mpi/simple/reduce.c'
p170
(lp171
(S'MPI_Init()'
p172
S'19'
p173
tp174
a(S'MPI_Comm_rank()'
p175
S'20'
p176
tp177
a(S'MPI_Comm_size()'
p178
S'21'
p179
tp180
a(S'MPI_Reduce()'
p181
S'25'
p182
tp183
a(S'MPI_Finalize()'
p184
S'32'
p185
tp186
asS'civl/examples/mpi-omp/mpi-omp-pie-calculation100.c'
p187
(lp188
(S'MPI_Init()'
p189
S'48'
p190
tp191
a(S'MPI_Comm_size()'
p192
S'49'
p193
tp194
a(S'MPI_Comm_rank()'
p195
S'50'
p196
tp197
a(S'MPI_Bcast()'
p198
S'57'
p199
tp200
a(S'MPI_Finalize()'
p201
S'62'
p202
tp203
a(S'MPI_Finalize()'
p204
S'70'
p205
tp206
a(S'MPI_Bcast()'
p207
S'77'
p208
tp209
a(S'MPI_Reduce()'
p210
S'112'
p211
tp212
a(S'MPI_Finalize()'
p213
S'121'
p214
tp215
asS'civl/examples/mpi/diffusion1d_ab.c'
p216
(lp217
(S'MPI_Comm_size()'
p218
S'74'
p219
tp220
a(S'MPI_Comm_rank()'
p221
S'75'
p222
tp223
a(S'MPI_Send()'
p224
S'150'
p225
tp226
a(S'MPI_Recv()'
p227
S'160'
p228
tp229
a(S'MPI_Get_count()'
p230
S'162'
p231
tp232
a(S'MPI_Sendrecv()'
p233
S'178'
p234
tp235
a(S'X_MPI_COMM_WORLD()'
p236
S'180'
p237
tp238
a(S'MPI_Sendrecv()'
p239
S'181'
p240
tp241
a(S'X_MPI_COMM_WORLD()'
p242
S'183'
p243
tp244
a(S'MPI_Init()'
p245
S'196'
p246
tp247
a(S'MPI_Finalize()'
p248
S'206'
p249
tp250
asS'civl/examples/mpi/simple/scatter.c'
p251
(lp252
(S'MPI_Init()'
p253
S'20'
p254
tp255
a(S'MPI_Comm_rank()'
p256
S'21'
p257
tp258
a(S'MPI_Comm_size()'
p259
S'22'
p260
tp261
a(S'MPI_Scatter()'
p262
S'29'
p263
tp264
a(S'MPI_Finalize()'
p265
S'38'
p266
tp267
asS'civl/examples/mpi/routines/Gather_Scatter/mpi_scatter.c'
p268
(lp269
(S'MPI_Init()'
p270
S'24'
p271
tp272
a(S'MPI_Comm_rank()'
p273
S'25'
p274
tp275
a(S'MPI_Comm_size()'
p276
S'26'
p277
tp278
a(S'MPI_Scatter()'
p279
S'32'
p280
tp281
a(S'X_MPI_FLOAT()'
p282
S'33'
p283
tp284
a(S'MPI_Finalize()'
p285
S'44'
p286
tp287
asS'civl/examples/mpi-omp/AMG2013/parcsr_ls/par_amg_setup.c'
p288
(lp289
(S'MPI_Comm_size()'
p290
S'157'
p291
tp292
a(S'MPI_Comm_rank()'
p293
S'158'
p294
tp295
a(S'MPI_Pcontrol()'
p296
S'435'
p297
tp298
a(S'MPI_Pcontrol()'
p299
S'436'
p300
tp301
a(S'MPI_Bcast()'
p302
S'1029'
p303
tp304
a(S'MPI_Pcontrol()'
p305
S'1075'
p306
tp307
a(S'MPI_Pcontrol()'
p308
S'1076'
p309
tp310
a(S'MPI_Bcast()'
p311
S'1179'
p312
tp313
a(S'MPI_Bcast()'
p314
S'1259'
p315
tp316
a(S'MPI_Bcast()'
p317
S'1315'
p318
tp319
a(S'MPI_Pcontrol()'
p320
S'1529'
p321
tp322
a(S'MPI_Pcontrol()'
p323
S'1530'
p324
tp325
asS'civl/examples/mpi/collective/vectorSum_bad.c'
p326
(lp327
(S'MPI_Init()'
p328
S'19'
p329
tp330
a(S'MPI_Comm_size()'
p331
S'20'
p332
tp333
a(S'MPI_Comm_rank()'
p334
S'21'
p335
tp336
a(S'MPI_Scatter()'
p337
S'36'
p338
tp339
a(S'MPI_Allgather()'
p340
S'41'
p341
tp342
a(S'MPI_Bcast()'
p343
S'43'
p344
tp345
a(S'MPI_Bcast()'
p346
S'54'
p347
tp348
a(S'MPI_Allgather()'
p349
S'56'
p350
tp351
a(S'MPI_Reduce()'
p352
S'58'
p353
tp354
asS'civl/examples/mpi/collective/c_ex13.c'
p355
(lp356
(S'MPI_Init()'
p357
S'19'
p358
tp359
a(S'MPI_Comm_size()'
p360
S'20'
p361
tp362
a(S'MPI_Comm_rank()'
p363
S'21'
p364
tp365
a(S'MPI_Gather()'
p366
S'37'
p367
tp368
a(S'MPI_Scatterv()'
p369
S'56'
p370
tp371
a(S'MPI_Finalize()'
p372
S'74'
p373
tp374
asS'civl/examples/mpi-omp/mpi-omp-pie-calculation.c'
p375
(lp376
(S'MPI_Init()'
p377
S'48'
p378
tp379
a(S'MPI_Comm_size()'
p380
S'49'
p381
tp382
a(S'MPI_Comm_rank()'
p383
S'50'
p384
tp385
a(S'MPI_Bcast()'
p386
S'57'
p387
tp388
a(S'MPI_Finalize()'
p389
S'62'
p390
tp391
a(S'MPI_Finalize()'
p392
S'70'
p393
tp394
a(S'MPI_Bcast()'
p395
S'77'
p396
tp397
a(S'MPI_Reduce()'
p398
S'112'
p399
tp400
a(S'MPI_Finalize()'
p401
S'121'
p402
tp403
asS'civl/examples/mpi/simple/count.c'
p404
(lp405
(S'MPI_Init()'
p406
S'15'
p407
tp408
a(S'MPI_Comm_rank()'
p409
S'16'
p410
tp411
a(S'MPI_Send()'
p412
S'20'
p413
tp414
a(S'MPI_Recv()'
p415
S'25'
p416
tp417
a(S'MPI_Get_count()'
p418
S'26'
p419
tp420
a(S'MPI_Finalize()'
p421
S'30'
p422
tp423
asS'civl/examples/mpi/dev/rowcol.c'
p424
(lp425
(S'MPI_Init()'
p426
S'26'
p427
tp428
a(S'MPI_Comm_size()'
p429
S'27'
p430
tp431
a(S'MPI_Comm_rank()'
p432
S'28'
p433
tp434
a(S'MPI_Comm_split()'
p435
S'41'
p436
tp437
a(S'MPI_Comm_split()'
p438
S'44'
p439
tp440
a(S'MPI_Comm_size()'
p441
S'47'
p442
tp443
a(S'MPI_Comm_rank()'
p444
S'50'
p445
tp446
a(S'MPI_Comm_rank()'
p447
S'53'
p448
tp449
a(S'MPI_Bcast()'
p450
S'62'
p451
tp452
a(S'MPI_Finalize()'
p453
S'74'
p454
tp455
asS'civl/examples/mpi/collective/alltoall.c'
p456
(lp457
(S'MPI_Init()'
p458
S'25'
p459
tp460
a(S'MPI_Comm_rank()'
p461
S'26'
p462
tp463
a(S'MPI_Comm_size()'
p464
S'27'
p465
tp466
a(S'MPI_Abort()'
p467
S'37'
p468
tp469
a(S'MPI_Abort()'
p470
S'43'
p471
tp472
a(S'MPI_Abort()'
p473
S'49'
p474
tp475
a(S'MPI_Alltoall()'
p476
S'55'
p477
tp478
a(S'MPI_Allreduce()'
p479
S'56'
p480
tp481
a(S'MPI_Finalize()'
p482
S'64'
p483
tp484
asS'civl/examples/mpi-omp/AMG2013/parcsr_ls/par_laplace.c'
p485
(lp486
(S'MPI_Comm_size()'
p487
S'79'
p488
tp489
a(S'MPI_Comm_rank()'
p490
S'80'
p491
tp492
a(S'MPI_Comm_size()'
p493
S'108'
p494
tp495
a(S'MPI_Comm_rank()'
p496
S'109'
p497
tp498
asS'civl/examples/mpi/simple/anysource.c'
p499
(lp500
(S'MPI_Init()'
p501
S'13'
p502
tp503
a(S'MPI_Comm_rank()'
p504
S'14'
p505
tp506
a(S'MPI_Recv()'
p507
S'16'
p508
tp509
a(S'MPI_Send()'
p510
S'21'
p511
tp512
a(S'MPI_Finalize()'
p513
S'23'
p514
tp515
asS'civl/examples/mpi-omp/AMG2013/parcsr_ls/par_indepset.c'
p516
(lp517
(S'MPI_Comm_rank()'
p518
S'51'
p519
tp520
asS'civl/examples/mpi/routines/Gather_Scatter/mpi_scatterv.c'
p521
(lp522
(S'MPI_Init()'
p523
S'16'
p524
tp525
a(S'MPI_Comm_rank()'
p526
S'17'
p527
tp528
a(S'MPI_Comm_size()'
p529
S'18'
p530
tp531
a(S'MPI_Scatterv()'
p532
S'23'
p533
tp534
a(S'X_MPI_FLOAT()'
p535
S'24'
p536
tp537
a(S'MPI_Finalize()'
p538
S'34'
p539
tp540
asS'civl/examples/mpi/collective/c_ex07.c'
p541
(lp542
(S'MPI_Init()'
p543
S'19'
p544
tp545
a(S'MPI_Comm_size()'
p546
S'20'
p547
tp548
a(S'MPI_Comm_rank()'
p549
S'21'
p550
tp551
a(S'MPI_Alltoall()'
p552
S'50'
p553
tp554
a(S'MPI_Finalize()'
p555
S'63'
p556
tp557
asS'civl/examples/mpi/simple/simpleMPI.c'
p558
(lp559
(S'MPI_Init()'
p560
S'11'
p561
tp562
a(S'MPI_Comm_rank()'
p563
S'12'
p564
tp565
a(S'MPI_Send()'
p566
S'15'
p567
tp568
a(S'MPI_Recv()'
p569
S'17'
p570
tp571
a(S'MPI_Finalize()'
p572
S'20'
p573
tp574
asS'civl/examples/mpi-omp/AMG2013/parcsr_ls/par_jacobi_interp.c'
p575
(lp576
(S'MPI_Comm_size()'
p577
S'116'
p578
tp579
a(S'MPI_Comm_rank()'
p580
S'117'
p581
tp582
a(S'MPI_Allreduce()'
p583
S'449'
p584
tp585
a(S'MPI_Allreduce()'
p586
S'450'
p587
tp588
asS'civl/examples/mpi-omp/AMG2013/parcsr_mv/par_csr_matvec.c'
p589
(lp590
(S'MPI_Comm_size()'
p591
S'355'
p592
tp593
asS'civl/examples/mpi/simple/bcastgather1.c'
p594
(lp595
(S'MPI_Init()'
p596
S'23'
p597
tp598
a(S'MPI_Comm_rank()'
p599
S'24'
p600
tp601
a(S'MPI_Comm_size()'
p602
S'25'
p603
tp604
a(S'MPI_Bcast()'
p605
S'30'
p606
tp607
a(S'MPI_Gather()'
p608
S'35'
p609
tp610
a(S'MPI_Finalize()'
p611
S'43'
p612
tp613
asS'civl/examples/gen/simpleMPI.c'
p614
(lp615
(S'MPI_Init()'
p616
S'9'
p617
tp618
a(S'MPI_Comm_rank()'
p619
S'10'
p620
tp621
a(S'MPI_Send()'
p622
S'13'
p623
tp624
a(S'MPI_Recv()'
p625
S'15'
p626
tp627
a(S'MPI_Finalize()'
p628
S'18'
p629
tp630
asS'civl/examples/compare/dot/mpithreads_mpi.c'
p631
(lp632
(S'MPI_Finalize()'
p633
S'136'
p634
tp635
asS'civl/examples/mpi-omp/AMG2013/parcsr_mv/HYPRE_parcsr_matrix.c'
p636
(lp637
(S'MPI_Comm_size()'
p638
S'153'
p639
tp640
a(S'MPI_Comm_size()'
p641
S'182'
p642
tp643
asS'civl/examples/contracts/isRecvBufEmpty_BAD.c'
p644
(lp645
(S'MPI_Init()'
p646
S'26'
p647
tp648
a(S'MPI_Comm_rank()'
p649
S'27'
p650
tp651
a(S'MPI_Send()'
p652
S'29'
p653
tp654
a(S'MPI_Recv()'
p655
S'32'
p656
tp657
a(S'MPI_Finalize()'
p658
S'33'
p659
tp660
asS'civl/examples/mpi-omp/AMG2013/parcsr_ls/par_difconv.c'
p661
(lp662
(S'MPI_Comm_size()'
p663
S'67'
p664
tp665
a(S'MPI_Comm_rank()'
p666
S'68'
p667
tp668
asS'civl/examples/mpi/collective/scatterAllgather.c'
p669
(lp670
(S'MPI_Init()'
p671
S'18'
p672
tp673
a(S'MPI_Comm_size()'
p674
S'19'
p675
tp676
a(S'MPI_Comm_rank()'
p677
S'20'
p678
tp679
a(S'MPI_Scatter()'
p680
S'32'
p681
tp682
a(S'MPI_Allgather()'
p683
S'36'
p684
tp685
a(S'MPI_Finalize()'
p686
S'45'
p687
tp688
asS'civl/examples/experimental/wildcard_coassert.c'
p689
(lp690
(S'MPI_Init()'
p691
S'11'
p692
tp693
a(S'MPI_Comm_rank()'
p694
S'12'
p695
tp696
a(S'MPI_Comm_size()'
p697
S'13'
p698
tp699
a(S'MPI_Reduce()'
p700
S'15'
p701
tp702
a(S'MPI_Finalize()'
p703
S'19'
p704
tp705
asS'civl/examples/concurrency/ring2Bad.cvl'
p706
(lp707
(S'MPI_Comm_rank()'
p708
S'20'
p709
tp710
a(S'MPI_Comm_size()'
p711
S'21'
p712
tp713
a(S'MPI_Send()'
p714
S'23'
p715
tp716
a(S'MPI_Recv()'
p717
S'24'
p718
tp719
a(S'MPI_Get_count()'
p720
S'26'
p721
tp722
asS'civl/examples/contracts/reduce_coassert.c'
p723
(lp724
(S'MPI_Init()'
p725
S'11'
p726
tp727
a(S'MPI_Comm_rank()'
p728
S'12'
p729
tp730
a(S'MPI_Comm_size()'
p731
S'13'
p732
tp733
a(S'MPI_Reduce()'
p734
S'15'
p735
tp736
a(S'MPI_Finalize()'
p737
S'19'
p738
tp739
asS'civl/examples/mpi-omp/AMG2013/parcsr_ls/par_coarse_parms.c'
p740
(lp741
(S'MPI_Comm_size()'
p742
S'82'
p743
tp744
a(S'MPI_Scan()'
p745
S'107'
p746
tp747
a(S'MPI_Allgather()'
p748
S'119'
p749
tp750
asS'civl/examples/mpi-omp/AMG2013/parcsr_ls/gen_redcs_mat.c'
p751
(lp752
(S'MPI_Comm_size()'
p753
S'45'
p754
tp755
a(S'MPI_Comm_size()'
p756
S'89'
p757
tp758
a(S'MPI_Comm_rank()'
p759
S'90'
p760
tp761
a(S'MPI_Allgather()'
p762
S'94'
p763
tp764
a(S'MPI_Gather()'
p765
S'96'
p766
tp767
a(S'X_MPI_INT()'
p768
S'207'
p769
tp770
a(S'X_MPI_DOUBLE()'
p771
S'211'
p772
tp773
a(S'X_MPI_INT()'
p774
S'217'
p775
tp776
a(S'X_MPI_DOUBLE()'
p777
S'221'
p778
tp779
a(S'MPI_Comm_size()'
p780
S'333'
p781
tp782
a(S'MPI_Comm_rank()'
p783
S'334'
p784
tp785
a(S'MPI_Allgather()'
p786
S'344'
p787
tp788
a(S'MPI_Gather()'
p789
S'346'
p790
tp791
a(S'X_MPI_DOUBLE()'
p792
S'363'
p793
tp794
a(S'X_MPI_DOUBLE()'
p795
S'367'
p796
tp797
a(S'X_MPI_DOUBLE()'
p798
S'380'
p799
tp800
a(S'X_MPI_DOUBLE()'
p801
S'387'
p802
tp803
a(S'MPI_Comm_rank()'
p804
S'438'
p805
tp806
a(S'MPI_Allreduce()'
p807
S'445'
p808
tp809
a(S'MPI_Allreduce()'
p810
S'457'
p811
tp812
a(S'MPI_Op_create()'
p813
S'475'
p814
tp815
a(S'MPI_Allreduce()'
p816
S'477'
p817
tp818
a(S'MPI_Comm_size()'
p819
S'483'
p820
tp821
a(S'MPI_Comm_group()'
p822
S'484'
p823
tp824
a(S'MPI_Group_incl()'
p825
S'485'
p826
tp827
a(S'MPI_Comm_create()'
p828
S'486'
p829
tp830
a(S'MPI_Group_free()'
p831
S'487'
p832
tp833
a(S'MPI_Group_free()'
p834
S'488'
p835
tp836
asS'civl/examples/mpi/collective/scatter2.c'
p837
(lp838
(S'MPI_Init()'
p839
S'15'
p840
tp841
a(S'MPI_Comm_size()'
p842
S'16'
p843
tp844
a(S'MPI_Comm_rank()'
p845
S'17'
p846
tp847
a(S'MPI_Scatter()'
p848
S'22'
p849
tp850
a(S'MPI_Bcast()'
p851
S'23'
p852
tp853
a(S'MPI_Bcast()'
p854
S'25'
p855
tp856
a(S'MPI_Scatter()'
p857
S'26'
p858
tp859
a(S'MPI_Finalize()'
p860
S'32'
p861
tp862
asS'civl/examples/mpi-omp/AMG2013/parcsr_mv/par_csr_assumed_part.c'
p863
(lp864
(S'MPI_Isend()'
p865
S'188'
p866
tp867
a(S'MPI_Recv()'
p868
S'268'
p869
tp870
a(S'MPI_Waitall()'
p871
S'302'
p872
tp873
a(S'MPI_Comm_rank()'
p874
S'348'
p875
tp876
a(S'MPI_Comm_size()'
p877
S'420'
p878
tp879
a(S'MPI_Comm_size()'
p880
S'465'
p881
tp882
a(S'MPI_Comm_rank()'
p883
S'521'
p884
tp885
asS'civl/examples/mpi-omp/AMG2013/parcsr_ls/par_laplace_27pt.c'
p886
(lp887
(S'MPI_Comm_size()'
p888
S'80'
p889
tp890
a(S'MPI_Comm_rank()'
p891
S'81'
p892
tp893
a(S'MPI_Comm_size()'
p894
S'109'
p895
tp896
a(S'MPI_Comm_rank()'
p897
S'110'
p898
tp899
asS'civl/examples/mpi/routines/mpiSysStatusBad2.c'
p900
(lp901
(S'MPI_Init()'
p902
S'10'
p903
tp904
a(S'MPI_Finalize()'
p905
S'11'
p906
tp907
a(S'MPI_Comm_rank()'
p908
S'12'
p909
tp910
asS'civl/examples/mpi-omp/AMG2013/struct_mv/struct_vector.c'
p911
(lp912
(S'MPI_Comm_size()'
p913
S'235'
p914
tp915
a(S'MPI_Comm_size()'
p916
S'365'
p917
tp918
a(S'MPI_Allreduce()'
p919
S'878'
p920
tp921
a(S'MPI_Comm_rank()'
p922
S'1501'
p923
tp924
a(S'MPI_Comm_rank()'
p925
S'1578'
p926
tp927
asS'civl/examples/mpi-omp/mpi-omp-mat-infnorm-blkstp.c'
p928
(lp929
(S'MPI_Init()'
p930
S'48'
p931
tp932
a(S'MPI_Comm_rank()'
p933
S'49'
p934
tp935
a(S'MPI_Comm_size()'
p936
S'50'
p937
tp938
a(S'MPI_Barrier()'
p939
S'93'
p940
tp941
a(S'MPI_Bcast()'
p942
S'94'
p943
tp944
a(S'MPI_Finalize()'
p945
S'98'
p946
tp947
a(S'MPI_Bcast()'
p948
S'101'
p949
tp950
a(S'MPI_Finalize()'
p951
S'107'
p952
tp953
a(S'MPI_Finalize()'
p954
S'116'
p955
tp956
a(S'MPI_Bcast()'
p957
S'122'
p958
tp959
a(S'MPI_Scatter()'
p960
S'126'
p961
tp962
a(S'MPI_Barrier()'
p963
S'159'
p964
tp965
a(S'MPI_Reduce()'
p966
S'160'
p967
tp968
a(S'MPI_Finalize()'
p969
S'188'
p970
tp971
asS'civl/examples/compare/dot/mpithreads_both.c'
p972
(lp973
(S'MPI_Finalize()'
p974
S'181'
p975
tp976
asS'civl/examples/mpi/routines/mpiSysStatus.c'
p977
(lp978
(S'MPI_Init()'
p979
S'16'
p980
tp981
a(S'MPI_Finalize()'
p982
S'21'
p983
tp984
asS'civl/examples/mpi/dev/cpi_mc.c'
p985
(lp986
(S'MPI_Init()'
p987
S'26'
p988
tp989
a(S'MPI_Comm_size()'
p990
S'27'
p991
tp992
a(S'MPI_Comm_rank()'
p993
S'28'
p994
tp995
a(S'MPI_Bcast()'
p996
S'39'
p997
tp998
a(S'MPI_Reduce()'
p999
S'59'
p1000
tp1001
a(S'MPI_Wtime()'
p1002
S'64'
p1003
tp1004
a(S'MPI_Finalize()'
p1005
S'72'
p1006
tp1007
asS'civl/notes/notes.txt'
p1008
(lp1009
(S'X_MPI_INT()'
p1010
S'12'
p1011
tp1012
asS'civl/examples/mpi-omp/AMG2013/struct_mv/new_assemble.c'
p1013
(lp1014
(S'X_MPI_Comm()'
p1015
S'20'
p1016
tp1017
a(S'MPI_Comm_size()'
p1018
S'140'
p1019
tp1020
a(S'MPI_Comm_rank()'
p1021
S'141'
p1022
tp1023
a(S'MPI_Allreduce()'
p1024
S'270'
p1025
tp1026
a(S'MPI_Allreduce()'
p1027
S'282'
p1028
tp1029
a(S'MPI_Allreduce()'
p1030
S'317'
p1031
tp1032
a(S'MPI_Wtime()'
p1033
S'733'
p1034
tp1035
a(S'MPI_Wtime()'
p1036
S'747'
p1037
tp1038
a(S'MPI_Wtime()'
p1039
S'759'
p1040
tp1041
a(S'MPI_Wtime()'
p1042
S'972'
p1043
tp1044
a(S'MPI_Wtime()'
p1045
S'984'
p1046
tp1047
a(S'MPI_Wtime()'
p1048
S'991'
p1049
tp1050
a(S'MPI_Comm_rank()'
p1051
S'1040'
p1052
tp1053
a(S'MPI_Comm_rank()'
p1054
S'1112'
p1055
tp1056
asS'civl/examples/mpi/collective/c_ex04.c'
p1057
(lp1058
(S'MPI_Init()'
p1059
S'23'
p1060
tp1061
a(S'MPI_Comm_size()'
p1062
S'24'
p1063
tp1064
a(S'MPI_Comm_rank()'
p1065
S'25'
p1066
tp1067
a(S'MPI_Bcast()'
p1068
S'32'
p1069
tp1070
a(S'MPI_Finalize()'
p1071
S'39'
p1072
tp1073
asS'civl/examples/mpi/matmat_mw/matmat_mw.c'
p1074
(lp1075
(S'MPI_Init()'
p1076
S'72'
p1077
tp1078
a(S'MPI_Comm_rank()'
p1079
S'73'
p1080
tp1081
a(S'MPI_Comm_size()'
p1082
S'74'
p1083
tp1084
a(S'MPI_Bcast()'
p1085
S'99'
p1086
tp1087
a(S'MPI_Send()'
p1088
S'101'
p1089
tp1090
a(S'MPI_Recv()'
p1091
S'103'
p1092
tp1093
a(S'MPI_Send()'
p1094
S'106'
p1095
tp1096
a(S'MPI_Bcast()'
p1097
S'118'
p1098
tp1099
a(S'MPI_Recv()'
p1100
S'120'
p1101
tp1102
a(S'MPI_Send()'
p1103
S'123'
p1104
tp1105
a(S'MPI_Finalize()'
p1106
S'126'
p1107
tp1108
asS'civl/examples/mpi-omp/AMG2013/struct_mv/box_manager.c'
p1109
(lp1110
(S'MPI_Comm_rank()'
p1111
S'435'
p1112
tp1113
a(S'MPI_Comm_rank()'
p1114
S'548'
p1115
tp1116
a(S'MPI_Comm_rank()'
p1117
S'779'
p1118
tp1119
a(S'MPI_Comm_size()'
p1120
S'780'
p1121
tp1122
a(S'MPI_Allreduce()'
p1123
S'793'
p1124
tp1125
a(S'MPI_Allreduce()'
p1126
S'945'
p1127
tp1128
a(S'MPI_Allreduce()'
p1129
S'965'
p1130
tp1131
a(S'MPI_Allgather()'
p1132
S'1435'
p1133
tp1134
a(S'MPI_Allgatherv()'
p1135
S'1504'
p1136
tp1137
a(S'MPI_Comm_rank()'
p1138
S'2348'
p1139
tp1140
a(S'MPI_Comm_rank()'
p1141
S'2436'
p1142
tp1143
asS'civl/examples/mpi/simple/allgather.c'
p1144
(lp1145
(S'MPI_Init()'
p1146
S'19'
p1147
tp1148
a(S'MPI_Comm_rank()'
p1149
S'20'
p1150
tp1151
a(S'MPI_Comm_size()'
p1152
S'21'
p1153
tp1154
a(S'MPI_Allgather()'
p1155
S'25'
p1156
tp1157
a(S'MPI_Finalize()'
p1158
S'32'
p1159
tp1160
asS'civl/examples/mpi-omp/AMG2013/parcsr_ls/par_strength.c'
p1161
(lp1162
(S'MPI_Irecv()'
p1163
S'957'
p1164
tp1165
a(S'MPI_Isend()'
p1166
S'961'
p1167
tp1168
a(S'MPI_Waitall()'
p1169
S'965'
p1170
tp1171
a(S'MPI_Comm_size()'
p1172
S'1149'
p1173
tp1174
a(S'MPI_Comm_rank()'
p1175
S'1150'
p1176
tp1177
a(S'MPI_Bcast()'
p1178
S'1157'
p1179
tp1180
asS'civl/examples/mpi-omp/AMG2013/parcsr_ls/par_nodal_systems.c'
p1181
(lp1182
(S'MPI_Comm_size()'
p1183
S'122'
p1184
tp1185
a(S'MPI_Comm_size()'
p1186
S'761'
p1187
tp1188
asS'civl/examples/compare/diffusion1d/diffusion1d_par_revision.c'
p1189
(lp1190
(S'MPI_Comm_size()'
p1191
S'159'
p1192
tp1193
a(S'MPI_Comm_rank()'
p1194
S'160'
p1195
tp1196
a(S'MPI_Bcast()'
p1197
S'174'
p1198
tp1199
a(S'MPI_Bcast()'
p1200
S'175'
p1201
tp1202
a(S'MPI_Bcast()'
p1203
S'176'
p1204
tp1205
a(S'MPI_Bcast()'
p1206
S'177'
p1207
tp1208
a(S'MPI_Send()'
p1209
S'205'
p1210
tp1211
a(S'MPI_Recv()'
p1212
S'209'
p1213
tp1214
a(S'MPI_Send()'
p1215
S'240'
p1216
tp1217
a(S'MPI_Recv()'
p1218
S'247'
p1219
tp1220
a(S'MPI_Get_count()'
p1221
S'249'
p1222
tp1223
a(S'MPI_Sendrecv()'
p1224
S'264'
p1225
tp1226
a(S'X_MPI_COMM_WORLD()'
p1227
S'266'
p1228
tp1229
a(S'MPI_Sendrecv()'
p1230
S'267'
p1231
tp1232
a(S'X_MPI_COMM_WORLD()'
p1233
S'269'
p1234
tp1235
a(S'MPI_Init()'
p1236
S'287'
p1237
tp1238
a(S'MPI_Finalize()'
p1239
S'297'
p1240
tp1241
asS'civl/examples/mpi-omp/mpi-omp-hello-world.c'
p1242
(lp1243
(S'MPI_Init()'
p1244
S'32'
p1245
tp1246
a(S'MPI_Comm_rank()'
p1247
S'33'
p1248
tp1249
a(S'MPI_Comm_size()'
p1250
S'34'
p1251
tp1252
a(S'MPI_Finalize()'
p1253
S'45'
p1254
tp1255
asS'civl/examples/mpi/routines/probe.c'
p1256
(lp1257
(S'MPI_Init()'
p1258
S'25'
p1259
tp1260
a(S'MPI_Comm_size()'
p1261
S'26'
p1262
tp1263
a(S'MPI_Comm_rank()'
p1264
S'27'
p1265
tp1266
a(S'MPI_Finalize()'
p1267
S'32'
p1268
tp1269
a(S'MPI_Send()'
p1270
S'61'
p1271
tp1272
a(S'MPI_Probe()'
p1273
S'70'
p1274
tp1275
a(S'MPI_Get_count()'
p1276
S'74'
p1277
tp1278
a(S'MPI_Recv()'
p1279
S'81'
p1280
tp1281
a(S'MPI_Finalize()'
p1282
S'86'
p1283
tp1284
asS'civl/examples/mpi/diffusion2dBad.c'
p1285
(lp1286
(S'MPI_Sendrecv()'
p1287
S'268'
p1288
tp1289
a(S'X_MPI_DOUBLE()'
p1290
S'269'
p1291
tp1292
a(S'MPI_Sendrecv()'
p1293
S'271'
p1294
tp1295
a(S'X_MPI_DOUBLE()'
p1296
S'272'
p1297
tp1298
a(S'MPI_Sendrecv()'
p1299
S'275'
p1300
tp1301
a(S'X_MPI_DOUBLE()'
p1302
S'276'
p1303
tp1304
a(S'MPI_Sendrecv()'
p1305
S'282'
p1306
tp1307
a(S'X_MPI_DOUBLE()'
p1308
S'283'
p1309
tp1310
a(S'MPI_Send()'
p1311
S'313'
p1312
tp1313
a(S'MPI_Recv()'
p1314
S'328'
p1315
tp1316
a(S'MPI_Init()'
p1317
S'350'
p1318
tp1319
a(S'MPI_Comm_rank()'
p1320
S'351'
p1321
tp1322
a(S'MPI_Comm_size()'
p1323
S'352'
p1324
tp1325
asS'civl/examples/mpi/c_ex11.c'
p1326
(lp1327
(S'MPI_Init()'
p1328
S'20'
p1329
tp1330
a(S'MPI_Comm_size()'
p1331
S'21'
p1332
tp1333
a(S'MPI_Comm_rank()'
p1334
S'22'
p1335
tp1336
a(S'MPI_Send()'
p1337
S'35'
p1338
tp1339
a(S'MPI_Recv()'
p1340
S'40'
p1341
tp1342
a(S'MPI_Get_count()'
p1343
S'43'
p1344
tp1345
a(S'MPI_Get_elements()'
p1346
S'44'
p1347
tp1348
a(S'MPI_Finalize()'
p1349
S'50'
p1350
tp1351
asS'civl/examples/mpi/mpi_prime.c'
p1352
(lp1353
(S'MPI_Init()'
p1354
S'78'
p1355
tp1356
a(S'MPI_Comm_rank()'
p1357
S'79'
p1358
tp1359
a(S'MPI_Comm_size()'
p1360
S'80'
p1361
tp1362
a(S'MPI_Finalize()'
p1363
S'85'
p1364
tp1365
a(S'MPI_Wtime()'
p1366
S'88'
p1367
tp1368
a(S'MPI_Reduce()'
p1369
S'110'
p1370
tp1371
a(S'MPI_Reduce()'
p1372
S'111'
p1373
tp1374
a(S'MPI_Reduce()'
p1375
S'135'
p1376
tp1377
a(S'MPI_Reduce()'
p1378
S'136'
p1379
tp1380
a(S'MPI_Finalize()'
p1381
S'139'
p1382
tp1383
asS'civl/examples/mpi/c_ex12.c'
p1384
(lp1385
(S'MPI_Init()'
p1386
S'18'
p1387
tp1388
a(S'MPI_Comm_size()'
p1389
S'19'
p1390
tp1391
a(S'MPI_Comm_rank()'
p1392
S'20'
p1393
tp1394
a(S'MPI_Comm_split()'
p1395
S'22'
p1396
tp1397
a(S'MPI_Comm_rank()'
p1398
S'23'
p1399
tp1400
a(S'MPI_Comm_rank()'
p1401
S'24'
p1402
tp1403
a(S'MPI_Bcast()'
p1404
S'27'
p1405
tp1406
a(S'MPI_Finalize()'
p1407
S'31'
p1408
tp1409
asS'civl/examples/omp/HydroC/main.c'
p1410
(lp1411
(S'MPI_Init()'
p1412
S'162'
p1413
tp1414
a(S'MPI_Barrier()'
p1415
S'196'
p1416
tp1417
a(S'MPI_Barrier()'
p1418
S'199'
p1419
tp1420
a(S'MPI_Allreduce()'
p1421
S'262'
p1422
tp1423
a(S'MPI_Allreduce()'
p1424
S'264'
p1425
tp1426
a(S'MPI_Allreduce()'
p1427
S'269'
p1428
tp1429
a(S'MPI_Allreduce()'
p1430
S'271'
p1431
tp1432
a(S'MPI_Allreduce()'
p1433
S'300'
p1434
tp1435
a(S'MPI_Allreduce()'
p1436
S'301'
p1437
tp1438
a(S'MPI_Allreduce()'
p1439
S'302'
p1440
tp1441
a(S'MPI_Allreduce()'
p1442
S'303'
p1443
tp1444
a(S'MPI_Allreduce()'
p1445
S'306'
p1446
tp1447
a(S'MPI_Allreduce()'
p1448
S'307'
p1449
tp1450
a(S'MPI_Allreduce()'
p1451
S'308'
p1452
tp1453
a(S'MPI_Allreduce()'
p1454
S'309'
p1455
tp1456
a(S'MPI_Allreduce()'
p1457
S'388'
p1458
tp1459
a(S'MPI_Allreduce()'
p1460
S'389'
p1461
tp1462
a(S'MPI_Allreduce()'
p1463
S'390'
p1464
tp1465
a(S'MPI_Allreduce()'
p1466
S'393'
p1467
tp1468
a(S'MPI_Allreduce()'
p1469
S'394'
p1470
tp1471
a(S'MPI_Allreduce()'
p1472
S'395'
p1473
tp1474
a(S'MPI_Finalize()'
p1475
S'422'
p1476
tp1477
asS'civl/examples/mpi/simple/goodInitFinalize.c'
p1478
(lp1479
(S'MPI_Init()'
p1480
S'10'
p1481
tp1482
a(S'MPI_Finalize()'
p1483
S'11'
p1484
tp1485
asS'civl/examples/compare/diffusion1d/diffusion1d_par.c'
p1486
(lp1487
(S'MPI_Comm_size()'
p1488
S'57'
p1489
tp1490
a(S'MPI_Comm_rank()'
p1491
S'58'
p1492
tp1493
a(S'MPI_Send()'
p1494
S'101'
p1495
tp1496
a(S'MPI_Recv()'
p1497
S'111'
p1498
tp1499
a(S'MPI_Get_count()'
p1500
S'113'
p1501
tp1502
a(S'MPI_Sendrecv()'
p1503
S'128'
p1504
tp1505
a(S'X_MPI_COMM_WORLD()'
p1506
S'130'
p1507
tp1508
a(S'MPI_Sendrecv()'
p1509
S'131'
p1510
tp1511
a(S'X_MPI_COMM_WORLD()'
p1512
S'133'
p1513
tp1514
a(S'MPI_Init()'
p1515
S'146'
p1516
tp1517
a(S'MPI_Finalize()'
p1518
S'156'
p1519
tp1520
asS'civl/examples/mpi-omp/AMG2013/struct_mv/assumed_part.c'
p1521
(lp1522
(S'MPI_Comm_rank()'
p1523
S'208'
p1524
tp1525
a(S'MPI_Allreduce()'
p1526
S'332'
p1527
tp1528
a(S'X_MPI_SUM()'
p1529
S'333'
p1530
tp1531
a(S'MPI_Comm_rank()'
p1532
S'387'
p1533
tp1534
a(S'MPI_Allreduce()'
p1535
S'499'
p1536
tp1537
a(S'MPI_Comm_rank()'
p1538
S'645'
p1539
tp1540
a(S'MPI_Comm_size()'
p1541
S'646'
p1542
tp1543
a(S'MPI_Comm_size()'
p1544
S'857'
p1545
tp1546
a(S'MPI_Comm_rank()'
p1547
S'858'
p1548
tp1549
a(S'MPI_Comm_rank()'
p1550
S'1696'
p1551
tp1552
a(S'MPI_Comm_rank()'
p1553
S'1984'
p1554
tp1555
asS'civl/examples/mpi-omp/AMG2013/parcsr_mv/par_vector.c'
p1556
(lp1557
(S'MPI_Comm_rank()'
p1558
S'52'
p1559
tp1560
a(S'MPI_Comm_size()'
p1561
S'56'
p1562
tp1563
a(S'MPI_Comm_rank()'
p1564
S'226'
p1565
tp1566
a(S'MPI_Comm_size()'
p1567
S'227'
p1568
tp1569
a(S'MPI_Comm_rank()'
p1570
S'308'
p1571
tp1572
a(S'MPI_Comm_size()'
p1573
S'309'
p1574
tp1575
a(S'MPI_Comm_rank()'
p1576
S'364'
p1577
tp1578
a(S'MPI_Allreduce()'
p1579
S'450'
p1580
tp1581
a(S'MPI_Comm_size()'
p1582
S'506'
p1583
tp1584
a(S'MPI_Comm_rank()'
p1585
S'507'
p1586
tp1587
a(S'MPI_Probe()'
p1588
S'569'
p1589
tp1590
a(S'MPI_Get_count()'
p1591
S'570'
p1592
tp1593
a(S'MPI_Recv()'
p1594
S'573'
p1595
tp1596
a(S'MPI_Isend()'
p1597
S'638'
p1598
tp1599
a(S'MPI_Waitall()'
p1600
S'640'
p1601
tp1602
a(S'MPI_Irecv()'
p1603
S'684'
p1604
tp1605
a(S'MPI_Isend()'
p1606
S'689'
p1607
tp1608
a(S'MPI_Waitall()'
p1609
S'693'
p1610
tp1611
a(S'MPI_Irecv()'
p1612
S'745'
p1613
tp1614
a(S'MPI_Isend()'
p1615
S'750'
p1616
tp1617
a(S'MPI_Waitall()'
p1618
S'757'
p1619
tp1620
a(S'MPI_Comm_rank()'
p1621
S'801'
p1622
tp1623
a(S'MPI_Comm_size()'
p1624
S'802'
p1625
tp1626
a(S'MPI_Comm_rank()'
p1627
S'877'
p1628
tp1629
asS'civl/examples/mpi/c_ex10.c'
p1630
(lp1631
(S'MPI_Init()'
p1632
S'27'
p1633
tp1634
a(S'MPI_Comm_size()'
p1635
S'28'
p1636
tp1637
a(S'MPI_Comm_rank()'
p1638
S'29'
p1639
tp1640
a(S'MPI_Comm_group()'
p1641
S'47'
p1642
tp1643
a(S'MPI_Group_incl()'
p1644
S'54'
p1645
tp1646
a(S'MPI_Comm_create()'
p1647
S'56'
p1648
tp1649
a(S'MPI_Group_rank()'
p1650
S'58'
p1651
tp1652
a(S'MPI_Barrier()'
p1653
S'62'
p1654
tp1655
a(S'MPI_Finalize()'
p1656
S'63'
p1657
tp1658
a(S'MPI_Comm_dup()'
p1659
S'68'
p1660
tp1661
a(S'MPI_Comm_rank()'
p1662
S'70'
p1663
tp1664
a(S'MPI_Comm_size()'
p1665
S'71'
p1666
tp1667
a(S'MPI_Barrier()'
p1668
S'74'
p1669
tp1670
a(S'MPI_Finalize()'
p1671
S'75'
p1672
tp1673
a(S'MPI_Send()'
p1674
S'92'
p1675
tp1676
a(S'MPI_Iprobe()'
p1677
S'112'
p1678
tp1679
a(S'X_MPI_COMM_WORLD()'
p1680
S'113'
p1681
tp1682
a(S'MPI_Recv()'
p1683
S'115'
p1684
tp1685
a(S'X_MPI_COMM_WORLD()'
p1686
S'116'
p1687
tp1688
a(S'MPI_Send()'
p1689
S'119'
p1690
tp1691
a(S'MPI_Recv()'
p1692
S'123'
p1693
tp1694
a(S'MPI_Send()'
p1695
S'128'
p1696
tp1697
asS'civl/examples/mpi-omp/AMG2013/parcsr_ls/partial.c'
p1698
(lp1699
(S'MPI_Comm_size()'
p1700
S'153'
p1701
tp1702
a(S'MPI_Comm_rank()'
p1703
S'154'
p1704
tp1705
a(S'MPI_Bcast()'
p1706
S'166'
p1707
tp1708
a(S'MPI_Bcast()'
p1709
S'167'
p1710
tp1711
a(S'MPI_Comm_size()'
p1712
S'1251'
p1713
tp1714
a(S'MPI_Comm_rank()'
p1715
S'1252'
p1716
tp1717
a(S'MPI_Bcast()'
p1718
S'1264'
p1719
tp1720
a(S'MPI_Bcast()'
p1721
S'1265'
p1722
tp1723
a(S'MPI_Comm_size()'
p1724
S'2109'
p1725
tp1726
a(S'MPI_Comm_rank()'
p1727
S'2110'
p1728
tp1729
a(S'MPI_Bcast()'
p1730
S'2122'
p1731
tp1732
a(S'MPI_Bcast()'
p1733
S'2123'
p1734
tp1735
asS'civl/examples/mpi-omp/AMG2013/utilities/thread_mpistubs.h'
p1736
(lp1737
(S'X_MPI_Init()'
p1738
S'30'
p1739
tp1740
a(S'X_MPI_Wtime()'
p1741
S'31'
p1742
tp1743
a(S'X_MPI_Wtick()'
p1744
S'32'
p1745
tp1746
a(S'X_MPI_Barrier()'
p1747
S'33'
p1748
tp1749
a(S'X_MPI_Finalize()'
p1750
S'34'
p1751
tp1752
a(S'X_MPI_Comm_group()'
p1753
S'35'
p1754
tp1755
a(S'X_MPI_Comm_dup()'
p1756
S'36'
p1757
tp1758
a(S'X_MPI_Group_incl()'
p1759
S'37'
p1760
tp1761
a(S'X_MPI_Comm_create()'
p1762
S'38'
p1763
tp1764
a(S'X_MPI_Allgather()'
p1765
S'39'
p1766
tp1767
a(S'X_MPI_Allgatherv()'
p1768
S'40'
p1769
tp1770
a(S'X_MPI_Bcast()'
p1771
S'41'
p1772
tp1773
a(S'X_MPI_Send()'
p1774
S'42'
p1775
tp1776
a(S'X_MPI_Recv()'
p1777
S'43'
p1778
tp1779
a(S'X_MPI_Isend()'
p1780
S'45'
p1781
tp1782
a(S'X_MPI_Irecv()'
p1783
S'46'
p1784
tp1785
a(S'X_MPI_Wait()'
p1786
S'47'
p1787
tp1788
a(S'X_MPI_Waitall()'
p1789
S'48'
p1790
tp1791
a(S'X_MPI_Waitany()'
p1792
S'49'
p1793
tp1794
a(S'X_MPI_Comm_size()'
p1795
S'50'
p1796
tp1797
a(S'X_MPI_Comm_rank()'
p1798
S'51'
p1799
tp1800
a(S'X_MPI_Allreduce()'
p1801
S'52'
p1802
tp1803
a(S'X_MPI_Type_hvector()'
p1804
S'53'
p1805
tp1806
a(S'X_MPI_Type_struct()'
p1807
S'54'
p1808
tp1809
a(S'X_MPI_Type_free()'
p1810
S'55'
p1811
tp1812
a(S'X_MPI_Type_commit()'
p1813
S'56'
p1814
tp1815
asS'civl/examples/mpi-omp/AMG2013/utilities/exchange_data.c'
p1816
(lp1817
(S'MPI_Comm_size()'
p1818
S'205'
p1819
tp1820
a(S'MPI_Comm_rank()'
p1821
S'206'
p1822
tp1823
a(S'MPI_Irecv()'
p1824
S'270'
p1825
tp1826
a(S'MPI_Isend()'
p1827
S'282'
p1828
tp1829
a(S'MPI_Irecv()'
p1830
S'312'
p1831
tp1832
a(S'MPI_Iprobe()'
p1833
S'335'
p1834
tp1835
a(S'MPI_Get_count()'
p1836
S'341'
p1837
tp1838
a(S'MPI_Recv()'
p1839
S'361'
p1840
tp1841
a(S'MPI_Isend()'
p1842
S'398'
p1843
tp1844
a(S'MPI_Send()'
p1845
S'413'
p1846
tp1847
a(S'X_MPI_BYTE()'
p1848
S'414'
p1849
tp1850
a(S'MPI_Iprobe()'
p1851
S'421'
p1852
tp1853
a(S'MPI_Testall()'
p1854
S'432'
p1855
tp1856
a(S'MPI_Testall()'
p1857
S'442'
p1858
tp1859
a(S'MPI_Isend()'
p1860
S'453'
p1861
tp1862
a(S'MPI_Irecv()'
p1863
S'455'
p1864
tp1865
a(S'MPI_Test()'
p1866
S'467'
p1867
tp1868
a(S'MPI_Send()'
p1869
S'475'
p1870
tp1871
a(S'MPI_Irecv()'
p1872
S'548'
p1873
tp1874
a(S'MPI_Waitall()'
p1875
S'571'
p1876
tp1877
a(S'MPI_Waitall()'
p1878
S'587'
p1879
tp1880
a(S'MPI_Waitall()'
p1881
S'597'
p1882
tp1883
asS'civl/examples/mpi-omp/AMG2013/parcsr_mv/new_commpkg.c'
p1884
(lp1885
(S'MPI_Comm_rank()'
p1886
S'62'
p1887
tp1888
a(S'MPI_Comm_size()'
p1889
S'144'
p1890
tp1891
a(S'MPI_Comm_rank()'
p1892
S'145'
p1893
tp1894
a(S'MPI_Comm_rank()'
p1895
S'700'
p1896
tp1897
a(S'MPI_Comm_rank()'
p1898
S'785'
p1899
tp1900
asS'civl/examples/mpi-pthread/mpithreads_both.c'
p1901
(lp1902
(S'MPI_Finalize()'
p1903
S'171'
p1904
tp1905
asS'civl/examples/mpi/dev/ring.c'
p1906
(lp1907
(S'MPI_Init()'
p1908
S'16'
p1909
tp1910
a(S'MPI_Comm_size()'
p1911
S'17'
p1912
tp1913
a(S'MPI_Comm_rank()'
p1914
S'18'
p1915
tp1916
a(S'MPI_Send()'
p1917
S'25'
p1918
tp1919
a(S'MPI_Recv()'
p1920
S'26'
p1921
tp1922
a(S'MPI_Recv()'
p1923
S'28'
p1924
tp1925
a(S'MPI_Send()'
p1926
S'29'
p1927
tp1928
a(S'MPI_Finalize()'
p1929
S'33'
p1930
tp1931
asS'civl/examples/mpi/simple/gather.c'
p1932
(lp1933
(S'MPI_Init()'
p1934
S'20'
p1935
tp1936
a(S'MPI_Comm_rank()'
p1937
S'21'
p1938
tp1939
a(S'MPI_Comm_size()'
p1940
S'22'
p1941
tp1942
a(S'MPI_Gather()'
p1943
S'29'
p1944
tp1945
a(S'MPI_Finalize()'
p1946
S'38'
p1947
tp1948
asS'civl/notes/structure.txt'
p1949
(lp1950
(S'X_MPI_Send()'
p1951
S'14'
p1952
tp1953
asS'civl/examples/mpi-omp/AMG2013/struct_mv/struct_matrix.c'
p1954
(lp1955
(S'MPI_Comm_size()'
p1956
S'548'
p1957
tp1958
a(S'MPI_Comm_size()'
p1959
S'863'
p1960
tp1961
a(S'MPI_Allreduce()'
p1962
S'1355'
p1963
tp1964
a(S'MPI_Comm_rank()'
p1965
S'1736'
p1966
tp1967
a(S'MPI_Comm_rank()'
p1968
S'1944'
p1969
tp1970
asS'civl/examples/mpi-pthread/mpi-pthreads.c'
p1971
(lp1972
(S'MPI_Send()'
p1973
S'19'
p1974
tp1975
a(S'MPI_Recv()'
p1976
S'21'
p1977
tp1978
a(S'MPI_Recv()'
p1979
S'25'
p1980
tp1981
a(S'MPI_Send()'
p1982
S'27'
p1983
tp1984
a(S'MPI_Init_thread()'
p1985
S'38'
p1986
tp1987
a(S'MPI_Abort()'
p1988
S'41'
p1989
tp1990
a(S'MPI_Comm_size()'
p1991
S'44'
p1992
tp1993
a(S'MPI_Comm_rank()'
p1994
S'45'
p1995
tp1996
a(S'MPI_Abort()'
p1997
S'49'
p1998
tp1999
a(S'MPI_Finalize()'
p2000
S'56'
p2001
tp2002
asS'civl/examples/mpi-pthread/helloWorld.c'
p2003
(lp2004
(S'MPI_Init()'
p2005
S'55'
p2006
tp2007
a(S'MPI_Comm_size()'
p2008
S'56'
p2009
tp2010
a(S'MPI_Comm_rank()'
p2011
S'57'
p2012
tp2013
a(S'MPI_Finalize()'
p2014
S'67'
p2015
tp2016
asS'civl/examples/mpi-pthread/mp_mat_vec.c'
p2017
(lp2018
(S'MPI_Init()'
p2019
S'123'
p2020
tp2021
a(S'MPI_Comm_rank()'
p2022
S'124'
p2023
tp2024
a(S'MPI_Comm_size()'
p2025
S'125'
p2026
tp2027
a(S'MPI_Finalize()'
p2028
S'133'
p2029
tp2030
a(S'MPI_Barrier()'
p2031
S'149'
p2032
tp2033
a(S'MPI_Bcast()'
p2034
S'151'
p2035
tp2036
a(S'MPI_Bcast()'
p2037
S'152'
p2038
tp2039
a(S'MPI_Bcast()'
p2040
S'153'
p2041
tp2042
a(S'MPI_Finalize()'
p2043
S'163'
p2044
tp2045
a(S'MPI_Finalize()'
p2046
S'174'
p2047
tp2048
a(S'MPI_Finalize()'
p2049
S'184'
p2050
tp2051
a(S'MPI_Allgather()'
p2052
S'211'
p2053
tp2054
a(S'MPI_Barrier()'
p2055
S'226'
p2056
tp2057
a(S'MPI_Barrier()'
p2058
S'238'
p2059
tp2060
a(S'MPI_Barrier()'
p2061
S'242'
p2062
tp2063
a(S'MPI_Gatherv()'
p2064
S'249'
p2065
tp2066
a(S'MPI_Finalize()'
p2067
S'287'
p2068
tp2069
asS'civl/examples/contracts/wildcard_coassert_bad.c'
p2070
(lp2071
(S'MPI_Recv()'
p2072
S'13'
p2073
tp2074
a(S'MPI_Send()'
p2075
S'18'
p2076
tp2077
a(S'MPI_Init()'
p2078
S'24'
p2079
tp2080
a(S'MPI_Comm_rank()'
p2081
S'25'
p2082
tp2083
a(S'MPI_Comm_size()'
p2084
S'26'
p2085
tp2086
a(S'MPI_Finalize()'
p2087
S'32'
p2088
tp2089
asS'civl/examples/mpi/simple/tmp.c'
p2090
(lp2091
(S'MPI_Comm_rank()'
p2092
S'12'
p2093
tp2094
a(S'MPI_Comm_size()'
p2095
S'13'
p2096
tp2097
a(S'MPI_Recv()'
p2098
S'18'
p2099
tp2100
a(S'MPI_Send()'
p2101
S'25'
p2102
tp2103
a(S'MPI_Recv()'
p2104
S'43'
p2105
tp2106
a(S'MPI_Send()'
p2107
S'49'
p2108
tp2109
a(S'MPI_Send()'
p2110
S'52'
p2111
tp2112
a(S'MPI_Recv()'
p2113
S'53'
p2114
tp2115
asS'civl/examples/mpi-omp/AMG2013/parcsr_ls/par_relax_more.c'
p2116
(lp2117
(S'MPI_Allreduce()'
p2118
S'93'
p2119
tp2120
a(S'MPI_Comm_rank()'
p2121
S'853'
p2122
tp2123
a(S'MPI_Comm_rank()'
p2124
S'1329'
p2125
tp2126
a(S'MPI_Comm_size()'
p2127
S'1929'
p2128
tp2129
a(S'MPI_Comm_rank()'
p2130
S'1930'
p2131
tp2132
a(S'MPI_Comm_size()'
p2133
S'2216'
p2134
tp2135
a(S'MPI_Comm_rank()'
p2136
S'2217'
p2137
tp2138
a(S'MPI_Comm_size()'
p2139
S'2444'
p2140
tp2141
a(S'MPI_Comm_rank()'
p2142
S'2445'
p2143
tp2144
asS'civl/examples/omp/HydroC/make_boundary.c'
p2145
(lp2146
(S'MPI_Isend()'
p2147
S'185'
p2148
tp2149
a(S'MPI_Isend()'
p2150
S'189'
p2151
tp2152
a(S'MPI_Irecv()'
p2153
S'193'
p2154
tp2155
a(S'MPI_Irecv()'
p2156
S'197'
p2157
tp2158
a(S'MPI_Isend()'
p2159
S'203'
p2160
tp2161
a(S'MPI_Isend()'
p2162
S'207'
p2163
tp2164
a(S'MPI_Irecv()'
p2165
S'211'
p2166
tp2167
a(S'MPI_Irecv()'
p2168
S'215'
p2169
tp2170
a(S'MPI_Waitall()'
p2171
S'219'
p2172
tp2173
a(S'MPI_Isend()'
p2174
S'314'
p2175
tp2176
a(S'MPI_Isend()'
p2177
S'318'
p2178
tp2179
a(S'MPI_Irecv()'
p2180
S'322'
p2181
tp2182
a(S'MPI_Irecv()'
p2183
S'326'
p2184
tp2185
a(S'MPI_Isend()'
p2186
S'332'
p2187
tp2188
a(S'MPI_Isend()'
p2189
S'336'
p2190
tp2191
a(S'MPI_Irecv()'
p2192
S'340'
p2193
tp2194
a(S'MPI_Irecv()'
p2195
S'344'
p2196
tp2197
a(S'MPI_Waitall()'
p2198
S'348'
p2199
tp2200
asS'civl/examples/mpi/collective/scatterAllgather_bad.c'
p2201
(lp2202
(S'MPI_Init()'
p2203
S'18'
p2204
tp2205
a(S'MPI_Comm_size()'
p2206
S'19'
p2207
tp2208
a(S'MPI_Comm_rank()'
p2209
S'20'
p2210
tp2211
a(S'MPI_Scatter()'
p2212
S'33'
p2213
tp2214
a(S'MPI_Allgather()'
p2215
S'35'
p2216
tp2217
a(S'MPI_Allgather()'
p2218
S'40'
p2219
tp2220
a(S'MPI_Scatter()'
p2221
S'42'
p2222
tp2223
asS'civl/examples/mpi-omp/AMG2013/test/amg2013.c'
p2224
(lp2225
(S'MPI_Comm_rank()'
p2226
S'378'
p2227
tp2228
a(S'MPI_Bcast()'
p2229
S'411'
p2230
tp2231
a(S'MPI_Bcast()'
p2232
S'415'
p2233
tp2234
a(S'MPI_Init()'
p2235
S'1666'
p2236
tp2237
a(S'MPI_Comm_size()'
p2238
S'1668'
p2239
tp2240
a(S'MPI_Comm_rank()'
p2241
S'1669'
p2242
tp2243
a(S'MPI_Barrier()'
p2244
S'1915'
p2245
tp2246
a(S'MPI_Finalize()'
p2247
S'2672'
p2248
tp2249
a(S'MPI_Comm_size()'
p2250
S'2710'
p2251
tp2252
a(S'MPI_Comm_rank()'
p2253
S'2711'
p2254
tp2255
a(S'MPI_Comm_size()'
p2256
S'2871'
p2257
tp2258
a(S'MPI_Comm_rank()'
p2259
S'2872'
p2260
tp2261
a(S'MPI_Comm_size()'
p2262
S'3006'
p2263
tp2264
a(S'MPI_Comm_rank()'
p2265
S'3007'
p2266
tp2267
asS'civl/examples/mpi/collective/alltoallv.c'
p2268
(lp2269
(S'MPI_Init()'
p2270
S'21'
p2271
tp2272
a(S'MPI_Comm_size()'
p2273
S'24'
p2274
tp2275
a(S'MPI_Comm_rank()'
p2276
S'25'
p2277
tp2278
a(S'MPI_Abort()'
p2279
S'30'
p2280
tp2281
a(S'MPI_Abort()'
p2282
S'44'
p2283
tp2284
a(S'MPI_Alltoallv()'
p2285
S'52'
p2286
tp2287
a(S'MPI_Finalize()'
p2288
S'73'
p2289
tp2290
asS'civl/examples/mpi-pthread/mpi-pthreads-infinity-norm.c'
p2291
(lp2292
(S'MPI_Init()'
p2293
S'147'
p2294
tp2295
a(S'MPI_Comm_rank()'
p2296
S'148'
p2297
tp2298
a(S'MPI_Comm_size()'
p2299
S'149'
p2300
tp2301
a(S'MPI_Finalize()'
p2302
S'159'
p2303
tp2304
a(S'MPI_Barrier()'
p2305
S'183'
p2306
tp2307
a(S'MPI_Bcast()'
p2308
S'185'
p2309
tp2310
a(S'MPI_Bcast()'
p2311
S'186'
p2312
tp2313
a(S'MPI_Finalize()'
p2314
S'195'
p2315
tp2316
a(S'MPI_Finalize()'
p2317
S'205'
p2318
tp2319
a(S'MPI_Allgather()'
p2320
S'226'
p2321
tp2322
a(S'MPI_Barrier()'
p2323
S'237'
p2324
tp2325
a(S'MPI_Barrier()'
p2326
S'249'
p2327
tp2328
a(S'MPI_Barrier()'
p2329
S'253'
p2330
tp2331
a(S'MPI_Reduce()'
p2332
S'255'
p2333
tp2334
a(S'MPI_Finalize()'
p2335
S'269'
p2336
tp2337
asS'civl/examples/mpi/collective/reduce.c'
p2338
(lp2339
(S'MPI_Init()'
p2340
S'12'
p2341
tp2342
a(S'MPI_Comm_size()'
p2343
S'13'
p2344
tp2345
a(S'MPI_Comm_rank()'
p2346
S'14'
p2347
tp2348
a(S'MPI_Reduce()'
p2349
S'20'
p2350
tp2351
a(S'MPI_Reduce()'
p2352
S'22'
p2353
tp2354
a(S'MPI_Reduce()'
p2355
S'25'
p2356
tp2357
a(S'MPI_Reduce()'
p2358
S'28'
p2359
tp2360
a(S'MPI_Reduce()'
p2361
S'30'
p2362
tp2363
a(S'MPI_Reduce()'
p2364
S'32'
p2365
tp2366
a(S'MPI_Reduce()'
p2367
S'35'
p2368
tp2369
a(S'MPI_Reduce()'
p2370
S'37'
p2371
tp2372
a(S'MPI_Finalize()'
p2373
S'49'
p2374
tp2375
asS'civl/examples/compare/adder/adder_par.cvl'
p2376
(lp2377
(S'MPI_Recv()'
p2378
S'52'
p2379
tp2380
a(S'MPI_Comm_size()'
p2381
S'66'
p2382
tp2383
a(S'MPI_Comm_rank()'
p2384
S'67'
p2385
tp2386
a(S'MPI_Send()'
p2387
S'77'
p2388
tp2389
asS'civl/examples/mpi-omp/AMG2013/struct_mv/struct_overlap_innerprod.c'
p2390
(lp2391
(S'MPI_Comm_rank()'
p2392
S'77'
p2393
tp2394
a(S'MPI_Allreduce()'
p2395
S'278'
p2396
tp2397
a(S'X_MPI_DOUBLE()'
p2398
S'279'
p2399
tp2400
asS'civl/examples/mpi/simple/commDupBad.c'
p2401
(lp2402
(S'MPI_Comm_dup()'
p2403
S'2'
p2404
tp2405
a(S'MPI_Init()'
p2406
S'11'
p2407
tp2408
a(S'MPI_Comm_rank()'
p2409
S'12'
p2410
tp2411
a(S'MPI_Comm_size()'
p2412
S'13'
p2413
tp2414
a(S'MPI_Comm_dup()'
p2415
S'14'
p2416
tp2417
a(S'MPI_Send()'
p2418
S'19'
p2419
tp2420
a(S'MPI_Recv()'
p2421
S'21'
p2422
tp2423
a(S'MPI_Comm_free()'
p2424
S'22'
p2425
tp2426
a(S'MPI_Finalize()'
p2427
S'23'
p2428
tp2429
asS'civl/examples/mpi/diffusion1d.c'
p2430
(lp2431
(S'MPI_Comm_size()'
p2432
S'77'
p2433
tp2434
a(S'MPI_Comm_rank()'
p2435
S'78'
p2436
tp2437
a(S'MPI_Send()'
p2438
S'154'
p2439
tp2440
a(S'MPI_Recv()'
p2441
S'164'
p2442
tp2443
a(S'MPI_Get_count()'
p2444
S'166'
p2445
tp2446
a(S'MPI_Sendrecv()'
p2447
S'182'
p2448
tp2449
a(S'X_MPI_COMM_WORLD()'
p2450
S'184'
p2451
tp2452
a(S'MPI_Sendrecv()'
p2453
S'185'
p2454
tp2455
a(S'X_MPI_COMM_WORLD()'
p2456
S'187'
p2457
tp2458
a(S'MPI_Init()'
p2459
S'200'
p2460
tp2461
a(S'MPI_Finalize()'
p2462
S'210'
p2463
tp2464
asS'civl/examples/mpi/collective/alltoallw.c'
p2465
(lp2466
(S'MPI_Init()'
p2467
S'22'
p2468
tp2469
a(S'MPI_Comm_size()'
p2470
S'26'
p2471
tp2472
a(S'MPI_Comm_rank()'
p2473
S'27'
p2474
tp2475
a(S'MPI_Abort()'
p2476
S'33'
p2477
tp2478
a(S'MPI_Abort()'
p2479
S'50'
p2480
tp2481
a(S'MPI_Alltoallw()'
p2482
S'60'
p2483
tp2484
a(S'MPI_Finalize()'
p2485
S'82'
p2486
tp2487
asS'civl/examples/mpi/c_ex01.c'
p2488
(lp2489
(S'MPI_Init()'
p2490
S'19'
p2491
tp2492
a(S'MPI_Comm_size()'
p2493
S'20'
p2494
tp2495
a(S'MPI_Comm_rank()'
p2496
S'21'
p2497
tp2498
a(S'MPI_Send()'
p2499
S'28'
p2500
tp2501
a(S'MPI_Recv()'
p2502
S'32'
p2503
tp2504
a(S'MPI_Finalize()'
p2505
S'35'
p2506
tp2507
asS'civl/examples/concurrency/hybrid_new.cvl'
p2508
(lp2509
(S'MPI_Init()'
p2510
S'10'
p2511
tp2512
a(S'MPI_Comm_rank()'
p2513
S'11'
p2514
tp2515
a(S'MPI_Comm_size()'
p2516
S'12'
p2517
tp2518
a(S'MPI_Send()'
p2519
S'21'
p2520
tp2521
a(S'MPI_Recv()'
p2522
S'23'
p2523
tp2524
a(S'MPI_Recv()'
p2525
S'26'
p2526
tp2527
a(S'MPI_Send()'
p2528
S'28'
p2529
tp2530
a(S'MPI_Finalize()'
p2531
S'36'
p2532
tp2533
asS'civl/examples/mpi/collective/gather.c'
p2534
(lp2535
(S'MPI_Init()'
p2536
S'15'
p2537
tp2538
a(S'MPI_Comm_size()'
p2539
S'16'
p2540
tp2541
a(S'MPI_Comm_rank()'
p2542
S'17'
p2543
tp2544
a(S'MPI_Gather()'
p2545
S'29'
p2546
tp2547
a(S'MPI_Gather()'
p2548
S'31'
p2549
tp2550
a(S'MPI_Gather()'
p2551
S'34'
p2552
tp2553
a(S'MPI_Gather()'
p2554
S'36'
p2555
tp2556
a(S'MPI_Gather()'
p2557
S'39'
p2558
tp2559
a(S'MPI_Finalize()'
p2560
S'43'
p2561
tp2562
asS'civl/examples/mpi/collective/BcastReduce2.c'
p2563
(lp2564
(S'MPI_Init()'
p2565
S'16'
p2566
tp2567
a(S'MPI_Comm_size()'
p2568
S'17'
p2569
tp2570
a(S'MPI_Comm_rank()'
p2571
S'18'
p2572
tp2573
a(S'MPI_Bcast()'
p2574
S'20'
p2575
tp2576
a(S'MPI_Allreduce()'
p2577
S'21'
p2578
tp2579
a(S'MPI_Reduce()'
p2580
S'23'
p2581
tp2582
a(S'MPI_Allreduce()'
p2583
S'24'
p2584
tp2585
a(S'MPI_Finalize()'
p2586
S'27'
p2587
tp2588
asS'civl/examples/mpi/diffusion2d.c'
p2589
(lp2590
(S'MPI_Sendrecv()'
p2591
S'268'
p2592
tp2593
a(S'X_MPI_DOUBLE()'
p2594
S'269'
p2595
tp2596
a(S'MPI_Sendrecv()'
p2597
S'271'
p2598
tp2599
a(S'X_MPI_DOUBLE()'
p2600
S'272'
p2601
tp2602
a(S'MPI_Sendrecv()'
p2603
S'275'
p2604
tp2605
a(S'X_MPI_DOUBLE()'
p2606
S'276'
p2607
tp2608
a(S'MPI_Sendrecv()'
p2609
S'282'
p2610
tp2611
a(S'X_MPI_DOUBLE()'
p2612
S'283'
p2613
tp2614
a(S'MPI_Send()'
p2615
S'315'
p2616
tp2617
a(S'MPI_Recv()'
p2618
S'330'
p2619
tp2620
a(S'MPI_Init()'
p2621
S'345'
p2622
tp2623
a(S'MPI_Comm_rank()'
p2624
S'346'
p2625
tp2626
a(S'MPI_Comm_size()'
p2627
S'347'
p2628
tp2629
a(S'MPI_Finalize()'
p2630
S'366'
p2631
tp2632
asS'civl/examples/mpi/simple/reduce_max.c'
p2633
(lp2634
(S'MPI_Init()'
p2635
S'19'
p2636
tp2637
a(S'MPI_Comm_rank()'
p2638
S'20'
p2639
tp2640
a(S'MPI_Comm_size()'
p2641
S'21'
p2642
tp2643
a(S'MPI_Reduce()'
p2644
S'25'
p2645
tp2646
a(S'MPI_Finalize()'
p2647
S'32'
p2648
tp2649
asS'civl/examples/mpi/simple/unsafe.c'
p2650
(lp2651
(S'MPI_Init()'
p2652
g617
tp2653
a(S'MPI_Comm_rank()'
p2654
S'10'
p2655
tp2656
a(S'MPI_Send()'
p2657
S'13'
p2658
tp2659
a(S'MPI_Recv()'
p2660
S'14'
p2661
tp2662
a(S'MPI_Send()'
p2663
S'18'
p2664
tp2665
a(S'MPI_Recv()'
p2666
S'19'
p2667
tp2668
a(S'MPI_Finalize()'
p2669
S'22'
p2670
tp2671
asS'civl/examples/mpi/c_ex03.c'
p2672
(lp2673
(S'MPI_Init()'
p2674
S'20'
p2675
tp2676
a(S'MPI_Comm_size()'
p2677
S'21'
p2678
tp2679
a(S'MPI_Comm_rank()'
p2680
S'22'
p2681
tp2682
a(S'MPI_Isend()'
p2683
S'30'
p2684
tp2685
a(S'MPI_Irecv()'
p2686
S'33'
p2687
tp2688
a(S'MPI_Wait()'
p2689
S'35'
p2690
tp2691
a(S'MPI_Finalize()'
p2692
S'42'
p2693
tp2694
asS'civl/examples/mpi-omp/AMG2013/parcsr_ls/par_vardifconv.c'
p2695
(lp2696
(S'MPI_Comm_size()'
p2697
S'83'
p2698
tp2699
a(S'MPI_Comm_rank()'
p2700
S'84'
p2701
tp2702
a(S'MPI_Comm_size()'
p2703
S'112'
p2704
tp2705
a(S'MPI_Comm_rank()'
p2706
S'113'
p2707
tp2708
asS'civl/examples/mpi/routines/Gather_Scatter/mpi_gatherv.c'
p2709
(lp2710
(S'MPI_Init()'
p2711
S'16'
p2712
tp2713
a(S'MPI_Comm_rank()'
p2714
S'17'
p2715
tp2716
a(S'MPI_Comm_size()'
p2717
S'18'
p2718
tp2719
a(S'MPI_Gatherv()'
p2720
S'26'
p2721
tp2722
a(S'X_MPI_FLOAT()'
p2723
S'27'
p2724
tp2725
a(S'MPI_Finalize()'
p2726
S'39'
p2727
tp2728
asS'civl/examples/mpi-omp/AMG2013/parcsr_ls/par_multi_interp.c'
p2729
(lp2730
(S'MPI_Comm_size()'
p2731
S'190'
p2732
tp2733
a(S'MPI_Comm_rank()'
p2734
S'191'
p2735
tp2736
a(S'MPI_Bcast()'
p2737
S'198'
p2738
tp2739
a(S'MPI_Allreduce()'
p2740
S'532'
p2741
tp2742
a(S'X_MPI_HYPRE_BIG_INT()'
p2743
S'533'
p2744
tp2745
a(S'MPI_Allreduce()'
p2746
S'574'
p2747
tp2748
a(S'X_MPI_HYPRE_BIG_INT()'
p2749
S'575'
p2750
tp2751
asS'civl/examples/mpi/collective/reduceScatter.c'
p2752
(lp2753
(S'MPI_Init()'
p2754
S'15'
p2755
tp2756
a(S'MPI_Comm_rank()'
p2757
S'16'
p2758
tp2759
a(S'MPI_Comm_size()'
p2760
S'17'
p2761
tp2762
a(S'MPI_Bcast()'
p2763
S'28'
p2764
tp2765
a(S'MPI_Reduce_scatter()'
p2766
S'38'
p2767
tp2768
a(S'MPI_Finalize()'
p2769
S'42'
p2770
tp2771
asS'civl/examples/mpi/simple/noInit.c'
p2772
(lp2773
(S'MPI_Comm_rank()'
p2774
S'6'
p2775
tp2776
asS'civl/examples/mpi/sendrecv.c'
p2777
(lp2778
(S'MPI_Init()'
p2779
S'14'
p2780
tp2781
a(S'MPI_Comm_rank()'
p2782
S'15'
p2783
tp2784
a(S'MPI_Comm_size()'
p2785
S'16'
p2786
tp2787
a(S'MPI_Sendrecv()'
p2788
S'19'
p2789
tp2790
a(S'MPI_Sendrecv()'
p2791
S'22'
p2792
tp2793
a(S'X_MPI_INT()'
p2794
S'23'
p2795
tp2796
a(S'MPI_Finalize()'
p2797
S'25'
p2798
tp2799
asS'civl/examples/experimental/diff1d_par.c'
p2800
(lp2801
(S'MPI_Comm_size()'
p2802
S'62'
p2803
tp2804
a(S'MPI_Comm_rank()'
p2805
S'63'
p2806
tp2807
a(S'MPI_Send()'
p2808
S'110'
p2809
tp2810
a(S'MPI_Recv()'
p2811
S'120'
p2812
tp2813
a(S'MPI_Get_count()'
p2814
S'122'
p2815
tp2816
a(S'MPI_Sendrecv()'
p2817
S'138'
p2818
tp2819
a(S'X_MPI_COMM_WORLD()'
p2820
S'140'
p2821
tp2822
a(S'MPI_Sendrecv()'
p2823
S'141'
p2824
tp2825
a(S'X_MPI_COMM_WORLD()'
p2826
S'143'
p2827
tp2828
a(S'MPI_Init()'
p2829
S'159'
p2830
tp2831
a(S'MPI_Finalize()'
p2832
S'169'
p2833
tp2834
asS'civl/examples/contracts/cycle.c'
p2835
(lp2836
(S'MPI_Init()'
p2837
S'12'
p2838
tp2839
a(S'MPI_Comm_rank()'
p2840
S'13'
p2841
tp2842
a(S'MPI_Comm_size()'
p2843
S'14'
p2844
tp2845
a(S'MPI_Sendrecv()'
p2846
S'18'
p2847
tp2848
a(S'MPI_Finalize()'
p2849
S'23'
p2850
tp2851
asS'civl/examples/mpi/collective/scan.c'
p2852
(lp2853
(S'MPI_Comm_rank()'
p2854
S'29'
p2855
tp2856
a(S'MPI_Init()'
p2857
S'48'
p2858
tp2859
a(S'MPI_Op_create()'
p2860
S'49'
p2861
tp2862
a(S'MPI_Op_create()'
p2863
S'50'
p2864
tp2865
a(S'MPI_Comm_rank()'
p2866
S'54'
p2867
tp2868
a(S'MPI_Comm_size()'
p2869
S'55'
p2870
tp2871
a(S'MPI_Op_free()'
p2872
S'95'
p2873
tp2874
a(S'MPI_Op_free()'
p2875
S'96'
p2876
tp2877
a(S'MPI_Finalize()'
p2878
S'98'
p2879
tp2880
asS'civl/examples/mpi-omp/AMG2013/IJ_mv/HYPRE_IJVector.c'
p2881
(lp2882
(S'MPI_Comm_size()'
p2883
S'55'
p2884
tp2885
a(S'MPI_Comm_rank()'
p2886
S'56'
p2887
tp2888
a(S'MPI_Bcast()'
p2889
S'86'
p2890
tp2891
a(S'MPI_Bcast()'
p2892
S'92'
p2893
tp2894
a(S'MPI_Allgather()'
p2895
S'106'
p2896
tp2897
a(S'MPI_Comm_rank()'
p2898
S'549'
p2899
tp2900
a(S'MPI_Comm_rank()'
p2901
S'599'
p2902
tp2903
a(S'MPI_Comm_rank()'
p2904
S'661'
p2905
tp2906
asS'civl/examples/contracts/wildcard_contract_bad.c'
p2907
(lp2908
(S'MPI_Recv()'
p2909
S'16'
p2910
tp2911
a(S'MPI_Send()'
p2912
S'23'
p2913
tp2914
a(S'MPI_Init()'
p2915
S'29'
p2916
tp2917
a(S'MPI_Comm_rank()'
p2918
S'30'
p2919
tp2920
a(S'MPI_Comm_size()'
p2921
S'31'
p2922
tp2923
a(S'MPI_Finalize()'
p2924
S'37'
p2925
tp2926
asS'civl/examples/mpi/routines/Gather_Scatter/mpi_scatter_inPlace.c'
p2927
(lp2928
(S'MPI_Init()'
p2929
S'17'
p2930
tp2931
a(S'MPI_Comm_rank()'
p2932
S'18'
p2933
tp2934
a(S'MPI_Comm_size()'
p2935
S'19'
p2936
tp2937
a(S'MPI_Scatter()'
p2938
S'30'
p2939
tp2940
a(S'X_MPI_FLOAT()'
p2941
S'31'
p2942
tp2943
a(S'MPI_Scatter()'
p2944
S'34'
p2945
tp2946
a(S'X_MPI_FLOAT()'
p2947
S'35'
p2948
tp2949
a(S'MPI_Finalize()'
p2950
S'46'
p2951
tp2952
asS'civl/examples/contracts/isRecvBufEmpty_OK.c'
p2953
(lp2954
(S'MPI_Sendrecv()'
p2955
S'15'
p2956
tp2957
a(S'MPI_Init()'
p2958
S'22'
p2959
tp2960
a(S'MPI_Comm_size()'
p2961
S'23'
p2962
tp2963
a(S'MPI_Comm_rank()'
p2964
S'24'
p2965
tp2966
a(S'MPI_Finalize()'
p2967
S'28'
p2968
tp2969
asS'civl/examples/mpi/collective/matTrans.c'
p2970
(lp2971
(S'MPI_Init()'
p2972
S'12'
p2973
tp2974
a(S'MPI_Comm_rank()'
p2975
S'13'
p2976
tp2977
a(S'MPI_Comm_size()'
p2978
S'14'
p2979
tp2980
a(S'MPI_Abort()'
p2981
S'19'
p2982
tp2983
a(S'MPI_Alltoall()'
p2984
S'25'
p2985
tp2986
a(S'MPI_Finalize()'
p2987
S'29'
p2988
tp2989
asS'civl/examples/mpi/collective/BcastReduce_bad.c'
p2990
(lp2991
(S'MPI_Init()'
p2992
g617
tp2993
a(S'MPI_Comm_size()'
p2994
S'10'
p2995
tp2996
a(S'MPI_Comm_rank()'
p2997
S'11'
p2998
tp2999
a(S'MPI_Bcast()'
p3000
S'13'
p3001
tp3002
a(S'MPI_Reduce()'
p3003
S'16'
p3004
tp3005
a(S'MPI_Bcast()'
p3006
S'18'
p3007
tp3008
a(S'MPI_Bcast()'
p3009
S'21'
p3010
tp3011
a(S'MPI_Reduce()'
p3012
S'23'
p3013
tp3014
a(S'MPI_Finalize()'
p3015
S'25'
p3016
tp3017
asS'civl/examples/mpi-omp/AMG2013/parcsr_mv/par_csr_matop.c'
p3018
(lp3019
(S'MPI_Comm_size()'
p3020
S'327'
p3021
tp3022
a(S'MPI_Comm_size()'
p3023
S'751'
p3024
tp3025
a(S'MPI_Comm_rank()'
p3026
S'752'
p3027
tp3028
a(S'MPI_Comm_size()'
p3029
S'997'
p3030
tp3031
a(S'MPI_Comm_rank()'
p3032
S'998'
p3033
tp3034
asS'civl/examples/mpi-omp/AMG2013/parcsr_ls/par_cycle.c'
p3035
(lp3036
(S'MPI_Comm_rank()'
p3037
S'115'
p3038
tp3039
asS'civl/examples/mpi/collective/c_ex05.c'
p3040
(lp3041
(S'MPI_Init()'
p3042
S'26'
p3043
tp3044
a(S'MPI_Comm_size()'
p3045
S'27'
p3046
tp3047
a(S'MPI_Comm_rank()'
p3048
S'28'
p3049
tp3050
a(S'MPI_Scatter()'
p3051
S'53'
p3052
tp3053
a(S'MPI_Gather()'
p3054
S'67'
p3055
tp3056
a(S'MPI_Finalize()'
p3057
S'86'
p3058
tp3059
asS'civl/examples/mpi-omp/AMG2013/sstruct_mv/sstruct_matrix.c'
p3060
(lp3061
(S'MPI_Comm_rank()'
p3062
S'678'
p3063
tp3064
a(S'MPI_Comm_rank()'
p3065
S'841'
p3066
tp3067
asS'civl/examples/mpi-pthread/anl_hybrid.c'
p3068
(lp3069
(S'MPI_Comm_rank()'
p3070
S'12'
p3071
tp3072
a(S'MPI_Send()'
p3073
S'18'
p3074
tp3075
a(S'MPI_Recv()'
p3076
S'22'
p3077
tp3078
a(S'MPI_Recv()'
p3079
S'27'
p3080
tp3081
a(S'MPI_Send()'
p3082
S'31'
p3083
tp3084
a(S'MPI_Init()'
p3085
S'41'
p3086
tp3087
a(S'MPI_Finalize()'
p3088
S'48'
p3089
tp3090
asS'civl/examples/mpi/collective/c_ex09.c'
p3091
(lp3092
(S'MPI_Init()'
p3093
S'21'
p3094
tp3095
a(S'MPI_Comm_size()'
p3096
S'22'
p3097
tp3098
a(S'MPI_Comm_rank()'
p3099
S'23'
p3100
tp3101
a(S'MPI_Alltoall()'
p3102
S'52'
p3103
tp3104
a(S'MPI_Alltoallv()'
p3105
S'78'
p3106
tp3107
a(S'MPI_Finalize()'
p3108
S'86'
p3109
tp3110
asS'civl/examples/mpi/gaussJordan_elimination.c'
p3111
(lp3112
(S'MPI_Send()'
p3113
S'84'
p3114
tp3115
a(S'MPI_Recv()'
p3116
S'89'
p3117
tp3118
a(S'X_MPI_COMM_WORLD()'
p3119
S'90'
p3120
tp3121
a(S'MPI_Allreduce()'
p3122
S'316'
p3123
tp3124
a(S'MPI_Bcast()'
p3125
S'336'
p3126
tp3127
a(S'MPI_Bcast()'
p3128
S'369'
p3129
tp3130
a(S'MPI_Init()'
p3131
S'404'
p3132
tp3133
a(S'MPI_Comm_rank()'
p3134
S'405'
p3135
tp3136
a(S'MPI_Comm_size()'
p3137
S'406'
p3138
tp3139
a(S'MPI_Finalize()'
p3140
S'417'
p3141
tp3142
asS'civl/examples/mpi-omp/AMG2013/parcsr_ls/par_coarsen.c'
p3143
(lp3144
(S'MPI_Comm_size()'
p3145
S'177'
p3146
tp3147
a(S'MPI_Comm_rank()'
p3148
S'178'
p3149
tp3150
a(S'MPI_Allreduce()'
p3151
S'516'
p3152
tp3153
a(S'MPI_Comm_size()'
p3154
S'970'
p3155
tp3156
a(S'MPI_Comm_rank()'
p3157
S'971'
p3158
tp3159
a(S'MPI_Comm_size()'
p3160
S'2073'
p3161
tp3162
a(S'MPI_Comm_rank()'
p3163
S'2074'
p3164
tp3165
a(S'MPI_Allreduce()'
p3166
S'2321'
p3167
tp3168
asS'civl/examples/mpi-omp/AMG2013/parcsr_ls/par_cg_relax_wt.c'
p3169
(lp3170
(S'MPI_Comm_rank()'
p3171
S'142'
p3172
tp3173
asS'civl/examples/mpi-omp/AMG2013/utilities/utilities.h'
p3174
(lp3175
(S'X_MPI_Comm()'
p3176
S'158'
p3177
tp3178
a(S'X_MPI_Group()'
p3179
S'159'
p3180
tp3181
a(S'X_MPI_Request()'
p3182
S'160'
p3183
tp3184
a(S'X_MPI_Datatype()'
p3185
S'161'
p3186
tp3187
a(S'X_MPI_Status()'
p3188
S'162'
p3189
tp3190
a(S'X_MPI_Op()'
p3191
S'163'
p3192
tp3193
a(S'X_MPI_Aint()'
p3194
S'164'
p3195
tp3196
a(S'X_MPI_COMM_WORLD()'
p3197
S'166'
p3198
tp3199
a(S'X_MPI_COMM_NULL()'
p3200
S'167'
p3201
tp3202
a(S'X_MPI_BOTTOM()'
p3203
S'169'
p3204
tp3205
a(S'X_MPI_DOUBLE()'
p3206
S'171'
p3207
tp3208
a(S'X_MPI_INT()'
p3209
S'172'
p3210
tp3211
a(S'X_MPI_CHAR()'
p3212
S'173'
p3213
tp3214
a(S'X_MPI_LONG()'
p3215
S'174'
p3216
tp3217
a(S'X_MPI_BYTE()'
p3218
S'175'
p3219
tp3220
a(S'X_MPI_SUM()'
p3221
S'177'
p3222
tp3223
a(S'X_MPI_MIN()'
p3224
S'178'
p3225
tp3226
a(S'X_MPI_MAX()'
p3227
S'179'
p3228
tp3229
a(S'X_MPI_LOR()'
p3230
S'180'
p3231
tp3232
a(S'X_MPI_UNDEFINED()'
p3233
S'182'
p3234
tp3235
a(S'X_MPI_REQUEST_NULL()'
p3236
S'183'
p3237
tp3238
a(S'X_MPI_ANY_SOURCE()'
p3239
S'184'
p3240
tp3241
a(S'X_MPI_ANY_TAG()'
p3242
S'185'
p3243
tp3244
a(S'X_MPI_Init()'
p3245
S'187'
p3246
tp3247
a(S'X_MPI_Finalize()'
p3248
S'188'
p3249
tp3250
a(S'X_MPI_Abort()'
p3251
S'189'
p3252
tp3253
a(S'X_MPI_Wtime()'
p3254
S'190'
p3255
tp3256
a(S'X_MPI_Wtick()'
p3257
S'191'
p3258
tp3259
a(S'X_MPI_Barrier()'
p3260
S'192'
p3261
tp3262
a(S'X_MPI_Comm_create()'
p3263
S'193'
p3264
tp3265
a(S'X_MPI_Comm_dup()'
p3266
S'194'
p3267
tp3268
a(S'X_MPI_Comm_group()'
p3269
S'195'
p3270
tp3271
a(S'X_MPI_Comm_size()'
p3272
S'196'
p3273
tp3274
a(S'X_MPI_Comm_rank()'
p3275
S'197'
p3276
tp3277
a(S'X_MPI_Comm_free()'
p3278
S'198'
p3279
tp3280
a(S'X_MPI_Comm_split()'
p3281
S'199'
p3282
tp3283
a(S'X_MPI_Group_incl()'
p3284
S'200'
p3285
tp3286
a(S'X_MPI_Group_free()'
p3287
S'201'
p3288
tp3289
a(S'X_MPI_Address()'
p3290
S'202'
p3291
tp3292
a(S'X_MPI_Get_count()'
p3293
S'203'
p3294
tp3295
a(S'X_MPI_Alltoall()'
p3296
S'204'
p3297
tp3298
a(S'X_MPI_Allgather()'
p3299
S'205'
p3300
tp3301
a(S'X_MPI_Allgatherv()'
p3302
S'206'
p3303
tp3304
a(S'X_MPI_Gather()'
p3305
S'207'
p3306
tp3307
a(S'X_MPI_Scatter()'
p3308
S'208'
p3309
tp3310
a(S'X_MPI_Bcast()'
p3311
S'209'
p3312
tp3313
a(S'X_MPI_Send()'
p3314
S'210'
p3315
tp3316
a(S'X_MPI_Recv()'
p3317
S'211'
p3318
tp3319
a(S'X_MPI_Isend()'
p3320
S'212'
p3321
tp3322
a(S'X_MPI_Irecv()'
p3323
S'213'
p3324
tp3325
a(S'X_MPI_Send_init()'
p3326
S'214'
p3327
tp3328
a(S'X_MPI_Recv_init()'
p3329
S'215'
p3330
tp3331
a(S'X_MPI_Irsend()'
p3332
S'216'
p3333
tp3334
a(S'X_MPI_Startall()'
p3335
S'217'
p3336
tp3337
a(S'X_MPI_Probe()'
p3338
S'218'
p3339
tp3340
a(S'X_MPI_Iprobe()'
p3341
S'219'
p3342
tp3343
a(S'X_MPI_Test()'
p3344
S'220'
p3345
tp3346
a(S'X_MPI_Testall()'
p3347
S'221'
p3348
tp3349
a(S'X_MPI_Wait()'
p3350
S'222'
p3351
tp3352
a(S'X_MPI_Waitall()'
p3353
S'223'
p3354
tp3355
a(S'X_MPI_Waitany()'
p3356
S'224'
p3357
tp3358
a(S'X_MPI_Allreduce()'
p3359
S'225'
p3360
tp3361
a(S'X_MPI_Reduce()'
p3362
S'226'
p3363
tp3364
a(S'X_MPI_Request_free()'
p3365
S'227'
p3366
tp3367
a(S'X_MPI_Type_contiguous()'
p3368
S'228'
p3369
tp3370
a(S'X_MPI_Type_vector()'
p3371
S'229'
p3372
tp3373
a(S'X_MPI_Type_hvector()'
p3374
S'230'
p3375
tp3376
a(S'X_MPI_Type_struct()'
p3377
S'231'
p3378
tp3379
a(S'X_MPI_Type_commit()'
p3380
S'232'
p3381
tp3382
a(S'X_MPI_Type_free()'
p3383
S'233'
p3384
tp3385
a(S'X_MPI_Init()'
p3386
S'470'
p3387
tp3388
a(S'X_MPI_Wtime()'
p3389
S'471'
p3390
tp3391
a(S'X_MPI_Wtick()'
p3392
S'472'
p3393
tp3394
a(S'X_MPI_Barrier()'
p3395
S'473'
p3396
tp3397
a(S'X_MPI_Finalize()'
p3398
S'474'
p3399
tp3400
a(S'X_MPI_Comm_group()'
p3401
S'475'
p3402
tp3403
a(S'X_MPI_Comm_dup()'
p3404
S'476'
p3405
tp3406
a(S'X_MPI_Group_incl()'
p3407
S'477'
p3408
tp3409
a(S'X_MPI_Comm_create()'
p3410
S'478'
p3411
tp3412
a(S'X_MPI_Allgather()'
p3413
S'479'
p3414
tp3415
a(S'X_MPI_Allgatherv()'
p3416
S'480'
p3417
tp3418
a(S'X_MPI_Bcast()'
p3419
S'481'
p3420
tp3421
a(S'X_MPI_Send()'
p3422
S'482'
p3423
tp3424
a(S'X_MPI_Recv()'
p3425
S'483'
p3426
tp3427
a(S'X_MPI_Isend()'
p3428
S'485'
p3429
tp3430
a(S'X_MPI_Irecv()'
p3431
S'486'
p3432
tp3433
a(S'X_MPI_Wait()'
p3434
S'487'
p3435
tp3436
a(S'X_MPI_Waitall()'
p3437
S'488'
p3438
tp3439
a(S'X_MPI_Waitany()'
p3440
S'489'
p3441
tp3442
a(S'X_MPI_Comm_size()'
p3443
S'490'
p3444
tp3445
a(S'X_MPI_Comm_rank()'
p3446
S'491'
p3447
tp3448
a(S'X_MPI_Allreduce()'
p3449
S'492'
p3450
tp3451
a(S'X_MPI_Type_hvector()'
p3452
S'493'
p3453
tp3454
a(S'X_MPI_Type_struct()'
p3455
S'494'
p3456
tp3457
a(S'X_MPI_Type_free()'
p3458
S'495'
p3459
tp3460
a(S'X_MPI_Type_commit()'
p3461
S'496'
p3462
tp3463
asS'civl/examples/mpi/ring1.c'
p3464
(lp3465
(S'MPI_Init()'
p3466
S'12'
p3467
tp3468
a(S'MPI_Comm_size()'
p3469
S'13'
p3470
tp3471
a(S'MPI_Comm_rank()'
p3472
S'14'
p3473
tp3474
a(S'MPI_Send()'
p3475
S'19'
p3476
tp3477
a(S'MPI_Recv()'
p3478
S'20'
p3479
tp3480
a(S'MPI_Recv()'
p3481
S'22'
p3482
tp3483
a(S'MPI_Send()'
p3484
S'23'
p3485
tp3486
a(S'MPI_Finalize()'
p3487
S'26'
p3488
tp3489
asS'civl/examples/mpi/simple/noninterference.c'
p3490
(lp3491
(S'MPI_Init()'
p3492
S'13'
p3493
tp3494
a(S'MPI_Comm_rank()'
p3495
S'14'
p3496
tp3497
a(S'MPI_Bcast()'
p3498
S'16'
p3499
tp3500
a(S'MPI_Recv()'
p3501
S'18'
p3502
tp3503
a(S'MPI_Finalize()'
p3504
S'21'
p3505
tp3506
asS'civl/examples/concurrency/ring2.cvl'
p3507
(lp3508
(S'MPI_Comm_rank()'
p3509
S'20'
p3510
tp3511
a(S'MPI_Comm_size()'
p3512
S'21'
p3513
tp3514
a(S'MPI_Sendrecv()'
p3515
S'23'
p3516
tp3517
a(S'MPI_Get_count()'
p3518
S'26'
p3519
tp3520
asS'civl/examples/mpi/collective/BcastReduce.c'
p3521
(lp3522
(S'MPI_Init()'
p3523
g617
tp3524
a(S'MPI_Comm_size()'
p3525
S'10'
p3526
tp3527
a(S'MPI_Comm_rank()'
p3528
S'11'
p3529
tp3530
a(S'MPI_Bcast()'
p3531
S'13'
p3532
tp3533
a(S'MPI_Reduce()'
p3534
S'14'
p3535
tp3536
a(S'MPI_Bcast()'
p3537
S'16'
p3538
tp3539
a(S'MPI_Finalize()'
p3540
S'18'
p3541
tp3542
asS'civl/examples/gen/simpleMPI2.c'
p3543
(lp3544
(S'MPI_Init()'
p3545
S'11'
p3546
tp3547
a(S'MPI_Comm_rank()'
p3548
S'12'
p3549
tp3550
a(S'MPI_Send()'
p3551
S'15'
p3552
tp3553
a(S'MPI_Recv()'
p3554
S'17'
p3555
tp3556
a(S'MPI_Finalize()'
p3557
S'20'
p3558
tp3559
asS'civl/examples/mpi-omp/AMG2013/struct_mv/struct_innerprod.c'
p3560
(lp3561
(S'MPI_Allreduce()'
p3562
S'109'
p3563
tp3564
a(S'X_MPI_DOUBLE()'
p3565
S'110'
p3566
tp3567
asS'civl/examples/mpi-omp/matmat_mw.c'
p3568
(lp3569
(S'MPI_Init()'
p3570
S'73'
p3571
tp3572
a(S'MPI_Comm_rank()'
p3573
S'74'
p3574
tp3575
a(S'MPI_Comm_size()'
p3576
S'75'
p3577
tp3578
a(S'MPI_Bcast()'
p3579
S'98'
p3580
tp3581
a(S'MPI_Send()'
p3582
S'100'
p3583
tp3584
a(S'MPI_Recv()'
p3585
S'102'
p3586
tp3587
a(S'MPI_Send()'
p3588
S'105'
p3589
tp3590
a(S'MPI_Bcast()'
p3591
S'117'
p3592
tp3593
a(S'MPI_Recv()'
p3594
S'119'
p3595
tp3596
a(S'MPI_Send()'
p3597
S'122'
p3598
tp3599
a(S'MPI_Finalize()'
p3600
S'125'
p3601
tp3602
asS'civl/examples/mpi/simple/noninterference2.c'
p3603
(lp3604
(S'MPI_Init()'
p3605
S'17'
p3606
tp3607
a(S'MPI_Comm_rank()'
p3608
S'18'
p3609
tp3610
a(S'MPI_Send()'
p3611
S'20'
p3612
tp3613
a(S'MPI_Bcast()'
p3614
S'22'
p3615
tp3616
a(S'MPI_Recv()'
p3617
S'24'
p3618
tp3619
a(S'MPI_Finalize()'
p3620
S'27'
p3621
tp3622
asS'civl/examples/omp/HydroC/SplitSurface.c'
p3623
(lp3624
(S'MPI_Finalize()'
p3625
S'186'
p3626
tp3627
a(S'MPI_Finalize()'
p3628
S'190'
p3629
tp3630
asS'civl/examples/mpi/routines/Gather_Scatter/mpi_gather_inPlace.c'
p3631
(lp3632
(S'MPI_Init()'
p3633
S'13'
p3634
tp3635
a(S'MPI_Comm_rank()'
p3636
S'14'
p3637
tp3638
a(S'MPI_Comm_size()'
p3639
S'15'
p3640
tp3641
a(S'MPI_Gather()'
p3642
S'27'
p3643
tp3644
a(S'X_MPI_FLOAT()'
p3645
S'28'
p3646
tp3647
a(S'MPI_Gather()'
p3648
S'31'
p3649
tp3650
a(S'X_MPI_FLOAT()'
p3651
S'32'
p3652
tp3653
a(S'MPI_Finalize()'
p3654
S'44'
p3655
tp3656
asS'civl/examples/mpi/collective/scatterGather_bad.c'
p3657
(lp3658
(S'MPI_Init()'
p3659
S'17'
p3660
tp3661
a(S'MPI_Comm_size()'
p3662
S'18'
p3663
tp3664
a(S'MPI_Comm_rank()'
p3665
S'19'
p3666
tp3667
a(S'MPI_Scatter()'
p3668
S'32'
p3669
tp3670
a(S'MPI_Gather()'
p3671
S'34'
p3672
tp3673
a(S'MPI_Gather()'
p3674
S'37'
p3675
tp3676
a(S'MPI_Scatter()'
p3677
S'39'
p3678
tp3679
asS'civl/examples/mpi/collective/scatterGather.c'
p3680
(lp3681
(S'MPI_Init()'
p3682
S'18'
p3683
tp3684
a(S'MPI_Comm_size()'
p3685
S'19'
p3686
tp3687
a(S'MPI_Comm_rank()'
p3688
S'20'
p3689
tp3690
a(S'MPI_Scatter()'
p3691
S'34'
p3692
tp3693
a(S'MPI_Scatter()'
p3694
S'36'
p3695
tp3696
a(S'MPI_Scatter()'
p3697
S'39'
p3698
tp3699
a(S'MPI_Gather()'
p3700
S'41'
p3701
tp3702
a(S'MPI_Scatter()'
p3703
S'43'
p3704
tp3705
a(S'MPI_Gather()'
p3706
S'52'
p3707
tp3708
a(S'MPI_Scatter()'
p3709
S'54'
p3710
tp3711
a(S'MPI_Gather()'
p3712
S'56'
p3713
tp3714
a(S'MPI_Finalize()'
p3715
S'67'
p3716
tp3717
asS'civl/examples/mpi/collective/barrierReduce.c'
p3718
(lp3719
(S'MPI_Init()'
p3720
g617
tp3721
a(S'MPI_Comm_size()'
p3722
S'10'
p3723
tp3724
a(S'MPI_Comm_rank()'
p3725
S'11'
p3726
tp3727
a(S'MPI_Barrier()'
p3728
S'21'
p3729
tp3730
a(S'MPI_Reduce()'
p3731
S'23'
p3732
tp3733
a(S'MPI_Reduce()'
p3734
S'25'
p3735
tp3736
a(S'MPI_Barrier()'
p3737
S'27'
p3738
tp3739
a(S'MPI_Barrier()'
p3740
S'32'
p3741
tp3742
a(S'MPI_Reduce()'
p3743
S'34'
p3744
tp3745
a(S'MPI_Finalize()'
p3746
S'38'
p3747
tp3748
asS'civl/examples/mpi/collective/bcast_good.c'
p3749
(lp3750
(S'MPI_Init()'
p3751
S'17'
p3752
tp3753
a(S'MPI_Comm_size()'
p3754
S'18'
p3755
tp3756
a(S'MPI_Comm_rank()'
p3757
S'19'
p3758
tp3759
a(S'MPI_Bcast()'
p3760
S'31'
p3761
tp3762
a(S'MPI_Send()'
p3763
S'32'
p3764
tp3765
a(S'MPI_Recv()'
p3766
S'35'
p3767
tp3768
a(S'MPI_Bcast()'
p3769
S'36'
p3770
tp3771
a(S'MPI_Recv()'
p3772
S'37'
p3773
tp3774
a(S'MPI_Send()'
p3775
S'40'
p3776
tp3777
a(S'MPI_Bcast()'
p3778
S'41'
p3779
tp3780
a(S'MPI_Finalize()'
p3781
S'53'
p3782
tp3783
asS'civl/examples/mpi/collective/bcast_bug1.c'
p3784
(lp3785
(S'MPI_Init()'
p3786
S'17'
p3787
tp3788
a(S'MPI_Comm_size()'
p3789
S'18'
p3790
tp3791
a(S'MPI_Comm_rank()'
p3792
S'19'
p3793
tp3794
a(S'MPI_Bcast()'
p3795
S'31'
p3796
tp3797
a(S'MPI_Bcast()'
p3798
S'32'
p3799
tp3800
a(S'MPI_Bcast()'
p3801
S'35'
p3802
tp3803
a(S'MPI_Bcast()'
p3804
S'36'
p3805
tp3806
a(S'MPI_Finalize()'
p3807
S'43'
p3808
tp3809
asS'civl/examples/mpi/dev/datatype.c'
p3810
(lp3811
(S'MPI_Init()'
p3812
S'43'
p3813
tp3814
a(S'MPI_Comm_size()'
p3815
S'48'
p3816
tp3817
a(S'MPI_Comm_rank()'
p3818
S'49'
p3819
tp3820
a(S'MPI_Finalize()'
p3821
S'53'
p3822
tp3823
a(S'MPI_Get_address()'
p3824
S'71'
p3825
tp3826
a(S'MPI_Get_address()'
p3827
S'72'
p3828
tp3829
a(S'MPI_Get_address()'
p3830
S'75'
p3831
tp3832
a(S'MPI_Type_struct()'
p3833
S'79'
p3834
tp3835
a(S'MPI_Type_commit()'
p3836
S'80'
p3837
tp3838
a(S'MPI_Send()'
p3839
S'85'
p3840
tp3841
a(S'MPI_Recv()'
p3842
S'86'
p3843
tp3844
a(S'MPI_Recv()'
p3845
S'91'
p3846
tp3847
a(S'MPI_Send()'
p3848
S'92'
p3849
tp3850
a(S'MPI_Finalize()'
p3851
S'95'
p3852
tp3853
asS'civl/examples/mpi-omp/AMG2013/struct_mv/struct_grid.c'
p3854
(lp3855
(S'MPI_Comm_rank()'
p3856
S'373'
p3857
tp3858
a(S'MPI_Comm_size()'
p3859
S'441'
p3860
tp3861
a(S'MPI_Comm_rank()'
p3862
S'442'
p3863
tp3864
a(S'MPI_Allgather()'
p3865
S'448'
p3866
tp3867
a(S'MPI_Allgatherv()'
p3868
S'477'
p3869
tp3870
asS'civl/examples/mpi-pthread/mpithreads_mpi.c'
p3871
(lp3872
(S'MPI_Finalize()'
p3873
S'128'
p3874
tp3875
asS'civl/examples/mpi-pthread/notes.txt'
p3876
(lp3877
(S'X_MPI_Init_thread()'
p3878
S'7'
p3879
tp3880
asS'civl/examples/mpi-omp/AMG2013/parcsr_ls/par_scaled_matnorm.c'
p3881
(lp3882
(S'MPI_Allreduce()'
p3883
S'129'
p3884
tp3885
asS'civl/examples/mpi/wave1d.c'
p3886
(lp3887
(S'MPI_Recv()'
p3888
S'214'
p3889
tp3890
a(S'MPI_Get_count()'
p3891
S'215'
p3892
tp3893
a(S'MPI_Send()'
p3894
S'220'
p3895
tp3896
a(S'MPI_Sendrecv()'
p3897
S'225'
p3898
tp3899
a(S'MPI_Sendrecv()'
p3900
S'227'
p3901
tp3902
a(S'X_MPI_DOUBLE()'
p3903
S'228'
p3904
tp3905
a(S'MPI_Init()'
p3906
S'241'
p3907
tp3908
a(S'MPI_Comm_rank()'
p3909
S'242'
p3910
tp3911
a(S'MPI_Comm_size()'
p3912
S'243'
p3913
tp3914
a(S'MPI_Finalize()'
p3915
S'271'
p3916
tp3917
asS'civl/examples/mpi-omp/AMG2013/sstruct_mv/box_map.c'
p3918
(lp3919
(S'MPI_Comm_rank()'
p3920
S'208'
p3921
tp3922
asS'civl/examples/mpi/c_ex02.c'
p3923
(lp3924
(S'MPI_Init()'
p3925
S'13'
p3926
tp3927
a(S'MPI_Comm_size()'
p3928
S'14'
p3929
tp3930
a(S'MPI_Comm_rank()'
p3931
S'15'
p3932
tp3933
a(S'MPI_Recv()'
p3934
S'29'
p3935
tp3936
a(S'MPI_Finalize()'
p3937
S'35'
p3938
tp3939
asS'civl/examples/mpi-omp/AMG2013/sstruct_mv/sstruct_grid.c'
p3940
(lp3941
(S'MPI_Comm_size()'
p3942
S'497'
p3943
tp3944
a(S'MPI_Comm_rank()'
p3945
S'498'
p3946
tp3947
a(S'MPI_Allgather()'
p3948
S'504'
p3949
tp3950
a(S'MPI_Allgather()'
p3951
S'514'
p3952
tp3953
asS'civl/examples/mpi/collective/bcast_bad.c'
p3954
(lp3955
(S'MPI_Init()'
p3956
S'16'
p3957
tp3958
a(S'MPI_Comm_size()'
p3959
S'17'
p3960
tp3961
a(S'MPI_Comm_rank()'
p3962
S'18'
p3963
tp3964
a(S'MPI_Bcast()'
p3965
S'24'
p3966
tp3967
a(S'MPI_Finalize()'
p3968
S'26'
p3969
tp3970
asS'civl/examples/mpi/simple/ooogather.c'
p3971
(lp3972
(S'MPI_Init()'
p3973
S'16'
p3974
tp3975
a(S'MPI_Comm_rank()'
p3976
S'17'
p3977
tp3978
a(S'MPI_Comm_size()'
p3979
S'18'
p3980
tp3981
a(S'MPI_Gather()'
p3982
S'22'
p3983
tp3984
a(S'MPI_Gather()'
p3985
S'23'
p3986
tp3987
a(S'MPI_Gather()'
p3988
S'25'
p3989
tp3990
a(S'MPI_Gather()'
p3991
S'26'
p3992
tp3993
a(S'MPI_Finalize()'
p3994
S'28'
p3995
tp3996
asS'civl/examples/mpi-omp/AMG2013/parcsr_mv/par_csr_matrix.c'
p3997
(lp3998
(S'MPI_Comm_rank()'
p3999
S'61'
p4000
tp4001
a(S'MPI_Comm_size()'
p4002
S'62'
p4003
tp4004
a(S'MPI_Allreduce()'
p4005
S'236'
p4006
tp4007
a(S'X_MPI_SUM()'
p4008
S'237'
p4009
tp4010
a(S'MPI_Allreduce()'
p4011
S'270'
p4012
tp4013
a(S'X_MPI_SUM()'
p4014
S'271'
p4015
tp4016
a(S'MPI_Comm_rank()'
p4017
S'359'
p4018
tp4019
a(S'MPI_Comm_size()'
p4020
S'360'
p4021
tp4022
a(S'MPI_Comm_rank()'
p4023
S'529'
p4024
tp4025
a(S'MPI_Comm_size()'
p4026
S'530'
p4027
tp4028
a(S'MPI_Comm_rank()'
p4029
S'629'
p4030
tp4031
a(S'MPI_Comm_size()'
p4032
S'630'
p4033
tp4034
a(S'MPI_Comm_size()'
p4035
S'774'
p4036
tp4037
a(S'MPI_Comm_rank()'
p4038
S'775'
p4039
tp4040
a(S'MPI_Comm_rank()'
p4041
S'957'
p4042
tp4043
a(S'MPI_Comm_rank()'
p4044
S'1009'
p4045
tp4046
a(S'MPI_Comm_rank()'
p4047
S'1171'
p4048
tp4049
a(S'MPI_Comm_size()'
p4050
S'1172'
p4051
tp4052
a(S'MPI_Bcast()'
p4053
S'1229'
p4054
tp4055
a(S'MPI_Bcast()'
p4056
S'1236'
p4057
tp4058
a(S'MPI_Scatter()'
p4059
S'1290'
p4060
tp4061
a(S'MPI_Isend()'
p4062
S'1310'
p4063
tp4064
a(S'MPI_Type_free()'
p4065
S'1312'
p4066
tp4067
a(S'MPI_Waitall()'
p4068
S'1318'
p4069
tp4070
a(S'MPI_Recv()'
p4071
S'1332'
p4072
tp4073
a(S'MPI_Type_free()'
p4074
S'1333'
p4075
tp4076
a(S'MPI_Comm_size()'
p4077
S'1628'
p4078
tp4079
a(S'MPI_Comm_rank()'
p4080
S'1629'
p4081
tp4082
a(S'MPI_Probe()'
p4083
S'1697'
p4084
tp4085
a(S'MPI_Get_count()'
p4086
S'1698'
p4087
tp4088
a(S'MPI_Recv()'
p4089
S'1701'
p4090
tp4091
a(S'MPI_Isend()'
p4092
S'1776'
p4093
tp4094
a(S'MPI_Waitall()'
p4095
S'1778'
p4096
tp4097
a(S'MPI_Irecv()'
p4098
S'1825'
p4099
tp4100
a(S'MPI_Isend()'
p4101
S'1831'
p4102
tp4103
a(S'MPI_Waitall()'
p4104
S'1835'
p4105
tp4106
a(S'MPI_Irecv()'
p4107
S'1868'
p4108
tp4109
a(S'MPI_Irecv()'
p4110
S'1870'
p4111
tp4112
a(S'MPI_Isend()'
p4113
S'1876'
p4114
tp4115
a(S'MPI_Isend()'
p4116
S'1878'
p4117
tp4118
a(S'MPI_Waitall()'
p4119
S'1883'
p4120
tp4121
a(S'MPI_Irecv()'
p4122
S'1929'
p4123
tp4124
a(S'MPI_Isend()'
p4125
S'1935'
p4126
tp4127
a(S'MPI_Waitall()'
p4128
S'1943'
p4129
tp4130
a(S'MPI_Irecv()'
p4131
S'1972'
p4132
tp4133
a(S'MPI_Irecv()'
p4134
S'1974'
p4135
tp4136
a(S'MPI_Isend()'
p4137
S'1980'
p4138
tp4139
a(S'MPI_Isend()'
p4140
S'1982'
p4141
tp4142
a(S'MPI_Waitall()'
p4143
S'1992'
p4144
tp4145
a(S'MPI_Irecv()'
p4146
S'2010'
p4147
tp4148
a(S'MPI_Isend()'
p4149
S'2013'
p4150
tp4151
a(S'MPI_Waitall()'
p4152
S'2022'
p4153
tp4154
a(S'MPI_Type_free()'
p4155
S'2025'
p4156
tp4157
a(S'MPI_Comm_rank()'
p4158
S'2118'
p4159
tp4160
a(S'MPI_Comm_rank()'
p4161
S'2227'
p4162
tp4163
a(S'MPI_Comm_size()'
p4164
S'2228'
p4165
tp4166
asS'civl/examples/mpi-omp/AMG2013/struct_mv/struct_communication.c'
p4167
(lp4168
(S'MPI_Comm_size()'
p4169
S'91'
p4170
tp4171
a(S'MPI_Comm_rank()'
p4172
S'92'
p4173
tp4174
a(S'MPI_Comm_rank()'
p4175
S'377'
p4176
tp4177
a(S'MPI_Comm_rank()'
p4178
S'459'
p4179
tp4180
a(S'MPI_Irecv()'
p4181
S'832'
p4182
tp4183
a(S'MPI_Isend()'
p4184
S'846'
p4185
tp4186
a(S'MPI_Waitall()'
p4187
S'934'
p4188
tp4189
asS'civl/examples/mpi/simple/bcast_int.c'
p4190
(lp4191
(S'MPI_Init()'
p4192
S'15'
p4193
tp4194
a(S'MPI_Comm_rank()'
p4195
S'16'
p4196
tp4197
a(S'MPI_Bcast()'
p4198
S'19'
p4199
tp4200
a(S'MPI_Bcast()'
p4201
S'20'
p4202
tp4203
a(S'MPI_Finalize()'
p4204
S'23'
p4205
tp4206
asS'civl/examples/mpi-omp/AMG2013/parcsr_ls/pcg_par.c'
p4207
(lp4208
(S'MPI_Comm_size()'
p4209
S'234'
p4210
tp4211
a(S'MPI_Comm_rank()'
p4212
S'235'
p4213
tp4214
asS'civl/examples/mpi-omp/AMG2013/parcsr_ls/par_rap.c'
p4215
(lp4216
(S'MPI_Comm_size()'
p4217
S'94'
p4218
tp4219
a(S'MPI_Comm_size()'
p4220
S'367'
p4221
tp4222
asS'civl/examples/mpi-omp/AMG2013/HYPRE.h'
p4223
(lp4224
(S'X_MPI_HYPRE_BIG_INT()'
p4225
S'31'
p4226
tp4227
a(S'X_MPI_HYPRE_BIG_INT()'
p4228
S'34'
p4229
tp4230
asS'civl/examples/mpi-pthread/mpi-pthreads-marix-vector_fix.c'
p4231
(lp4232
(S'MPI_Init()'
p4233
S'123'
p4234
tp4235
a(S'MPI_Comm_rank()'
p4236
S'124'
p4237
tp4238
a(S'MPI_Comm_size()'
p4239
S'125'
p4240
tp4241
a(S'MPI_Finalize()'
p4242
S'133'
p4243
tp4244
a(S'MPI_Barrier()'
p4245
S'149'
p4246
tp4247
a(S'MPI_Bcast()'
p4248
S'151'
p4249
tp4250
a(S'MPI_Bcast()'
p4251
S'152'
p4252
tp4253
a(S'MPI_Bcast()'
p4254
S'153'
p4255
tp4256
a(S'MPI_Finalize()'
p4257
S'163'
p4258
tp4259
a(S'MPI_Finalize()'
p4260
S'174'
p4261
tp4262
a(S'MPI_Finalize()'
p4263
S'184'
p4264
tp4265
a(S'MPI_Allgather()'
p4266
S'211'
p4267
tp4268
a(S'MPI_Barrier()'
p4269
S'226'
p4270
tp4271
a(S'MPI_Barrier()'
p4272
S'238'
p4273
tp4274
a(S'MPI_Barrier()'
p4275
S'242'
p4276
tp4277
a(S'MPI_Gatherv()'
p4278
S'249'
p4279
tp4280
a(S'MPI_Finalize()'
p4281
S'287'
p4282
tp4283
asS'civl/examples/mpi/mpi_pi.c'
p4284
(lp4285
(S'MPI_Init()'
p4286
S'128'
p4287
tp4288
a(S'MPI_Comm_size()'
p4289
S'129'
p4290
tp4291
a(S'MPI_Comm_rank()'
p4292
S'130'
p4293
tp4294
a(S'MPI_Send()'
p4295
S'136'
p4296
tp4297
a(S'MPI_Recv()'
p4298
S'148'
p4299
tp4300
a(S'MPI_Finalize()'
p4301
S'169'
p4302
tp4303
asS'civl/examples/mpi/routines/reduce.c'
p4304
(lp4305
(S'MPI_Init()'
p4306
S'12'
p4307
tp4308
a(S'MPI_Comm_size()'
p4309
S'13'
p4310
tp4311
a(S'MPI_Comm_rank()'
p4312
S'14'
p4313
tp4314
a(S'MPI_Finalize()'
p4315
S'18'
p4316
tp4317
a(S'MPI_Allreduce()'
p4318
S'23'
p4319
tp4320
a(S'MPI_Reduce()'
p4321
S'25'
p4322
tp4323
a(S'MPI_Finalize()'
p4324
S'29'
p4325
tp4326
asS'civl/examples/experimental/wildcard_coassert_bad.c'
p4327
(lp4328
(S'MPI_Recv()'
p4329
S'12'
p4330
tp4331
a(S'MPI_Barrier()'
p4332
S'13'
p4333
tp4334
a(S'MPI_Send()'
p4335
S'20'
p4336
tp4337
a(S'MPI_Barrier()'
p4338
S'22'
p4339
tp4340
a(S'MPI_Init()'
p4341
S'27'
p4342
tp4343
a(S'MPI_Comm_rank()'
p4344
S'28'
p4345
tp4346
a(S'MPI_Comm_size()'
p4347
S'29'
p4348
tp4349
a(S'MPI_Finalize()'
p4350
S'35'
p4351
tp4352
asS'civl/examples/mpi-omp/AMG2013/parcsr_ls/par_interp.c'
p4353
(lp4354
(S'MPI_Comm_size()'
p4355
S'128'
p4356
tp4357
a(S'MPI_Comm_rank()'
p4358
S'129'
p4359
tp4360
a(S'MPI_Bcast()'
p4361
S'136'
p4362
tp4363
asS'civl/examples/mpi/routines/Gather_Scatter/mpi_gather.c'
p4364
(lp4365
(S'MPI_Init()'
p4366
S'13'
p4367
tp4368
a(S'MPI_Comm_rank()'
p4369
S'14'
p4370
tp4371
a(S'MPI_Comm_size()'
p4372
S'15'
p4373
tp4374
a(S'MPI_Gather()'
p4375
S'24'
p4376
tp4377
a(S'X_MPI_FLOAT()'
p4378
S'25'
p4379
tp4380
a(S'MPI_Finalize()'
p4381
S'37'
p4382
tp4383
asS'civl/examples/mpi/adder_par.c'
p4384
(lp4385
(S'MPI_Recv()'
p4386
S'44'
p4387
tp4388
a(S'MPI_Init()'
p4389
S'53'
p4390
tp4391
a(S'MPI_Comm_size()'
p4392
S'54'
p4393
tp4394
a(S'MPI_Comm_rank()'
p4395
S'55'
p4396
tp4397
a(S'MPI_Send()'
p4398
S'69'
p4399
tp4400
a(S'MPI_Finalize()'
p4401
S'72'
p4402
tp4403
asS'civl/examples/mpi/collective/barrierScatter.c'
p4404
(lp4405
(S'MPI_Init()'
p4406
S'15'
p4407
tp4408
a(S'MPI_Comm_size()'
p4409
S'16'
p4410
tp4411
a(S'MPI_Comm_rank()'
p4412
S'17'
p4413
tp4414
a(S'MPI_Scatter()'
p4415
S'26'
p4416
tp4417
a(S'MPI_Barrier()'
p4418
S'27'
p4419
tp4420
a(S'MPI_Barrier()'
p4421
S'29'
p4422
tp4423
a(S'MPI_Scatter()'
p4424
S'30'
p4425
tp4426
a(S'MPI_Finalize()'
p4427
S'35'
p4428
tp4429
asS'civl/examples/mpi-omp/AMG2013/utilities/mpistubs.h'
p4430
(lp4431
(S'X_MPI_Comm()'
p4432
S'35'
p4433
tp4434
a(S'X_MPI_Group()'
p4435
S'36'
p4436
tp4437
a(S'X_MPI_Request()'
p4438
S'37'
p4439
tp4440
a(S'X_MPI_Datatype()'
p4441
S'38'
p4442
tp4443
a(S'X_MPI_Status()'
p4444
S'39'
p4445
tp4446
a(S'X_MPI_Op()'
p4447
S'40'
p4448
tp4449
a(S'X_MPI_Aint()'
p4450
S'41'
p4451
tp4452
a(S'X_MPI_COMM_WORLD()'
p4453
S'43'
p4454
tp4455
a(S'X_MPI_COMM_NULL()'
p4456
S'44'
p4457
tp4458
a(S'X_MPI_BOTTOM()'
p4459
S'46'
p4460
tp4461
a(S'X_MPI_DOUBLE()'
p4462
S'48'
p4463
tp4464
a(S'X_MPI_INT()'
p4465
S'49'
p4466
tp4467
a(S'X_MPI_CHAR()'
p4468
S'50'
p4469
tp4470
a(S'X_MPI_LONG()'
p4471
S'51'
p4472
tp4473
a(S'X_MPI_BYTE()'
p4474
S'52'
p4475
tp4476
a(S'X_MPI_SUM()'
p4477
S'54'
p4478
tp4479
a(S'X_MPI_MIN()'
p4480
S'55'
p4481
tp4482
a(S'X_MPI_MAX()'
p4483
S'56'
p4484
tp4485
a(S'X_MPI_LOR()'
p4486
S'57'
p4487
tp4488
a(S'X_MPI_UNDEFINED()'
p4489
S'59'
p4490
tp4491
a(S'X_MPI_REQUEST_NULL()'
p4492
S'60'
p4493
tp4494
a(S'X_MPI_ANY_SOURCE()'
p4495
S'61'
p4496
tp4497
a(S'X_MPI_ANY_TAG()'
p4498
S'62'
p4499
tp4500
a(S'X_MPI_Init()'
p4501
S'64'
p4502
tp4503
a(S'X_MPI_Finalize()'
p4504
S'65'
p4505
tp4506
a(S'X_MPI_Abort()'
p4507
S'66'
p4508
tp4509
a(S'X_MPI_Wtime()'
p4510
S'67'
p4511
tp4512
a(S'X_MPI_Wtick()'
p4513
S'68'
p4514
tp4515
a(S'X_MPI_Barrier()'
p4516
S'69'
p4517
tp4518
a(S'X_MPI_Comm_create()'
p4519
S'70'
p4520
tp4521
a(S'X_MPI_Comm_dup()'
p4522
S'71'
p4523
tp4524
a(S'X_MPI_Comm_group()'
p4525
S'72'
p4526
tp4527
a(S'X_MPI_Comm_size()'
p4528
S'73'
p4529
tp4530
a(S'X_MPI_Comm_rank()'
p4531
S'74'
p4532
tp4533
a(S'X_MPI_Comm_free()'
p4534
S'75'
p4535
tp4536
a(S'X_MPI_Comm_split()'
p4537
S'76'
p4538
tp4539
a(S'X_MPI_Group_incl()'
p4540
S'77'
p4541
tp4542
a(S'X_MPI_Group_free()'
p4543
S'78'
p4544
tp4545
a(S'X_MPI_Address()'
p4546
S'79'
p4547
tp4548
a(S'X_MPI_Get_count()'
p4549
S'80'
p4550
tp4551
a(S'X_MPI_Alltoall()'
p4552
S'81'
p4553
tp4554
a(S'X_MPI_Allgather()'
p4555
S'82'
p4556
tp4557
a(S'X_MPI_Allgatherv()'
p4558
S'83'
p4559
tp4560
a(S'X_MPI_Gather()'
p4561
S'84'
p4562
tp4563
a(S'X_MPI_Scatter()'
p4564
S'85'
p4565
tp4566
a(S'X_MPI_Bcast()'
p4567
S'86'
p4568
tp4569
a(S'X_MPI_Send()'
p4570
S'87'
p4571
tp4572
a(S'X_MPI_Recv()'
p4573
S'88'
p4574
tp4575
a(S'X_MPI_Isend()'
p4576
S'89'
p4577
tp4578
a(S'X_MPI_Irecv()'
p4579
S'90'
p4580
tp4581
a(S'X_MPI_Send_init()'
p4582
S'91'
p4583
tp4584
a(S'X_MPI_Recv_init()'
p4585
S'92'
p4586
tp4587
a(S'X_MPI_Irsend()'
p4588
S'93'
p4589
tp4590
a(S'X_MPI_Startall()'
p4591
S'94'
p4592
tp4593
a(S'X_MPI_Probe()'
p4594
S'95'
p4595
tp4596
a(S'X_MPI_Iprobe()'
p4597
S'96'
p4598
tp4599
a(S'X_MPI_Test()'
p4600
S'97'
p4601
tp4602
a(S'X_MPI_Testall()'
p4603
S'98'
p4604
tp4605
a(S'X_MPI_Wait()'
p4606
S'99'
p4607
tp4608
a(S'X_MPI_Waitall()'
p4609
S'100'
p4610
tp4611
a(S'X_MPI_Waitany()'
p4612
S'101'
p4613
tp4614
a(S'X_MPI_Allreduce()'
p4615
S'102'
p4616
tp4617
a(S'X_MPI_Reduce()'
p4618
S'103'
p4619
tp4620
a(S'X_MPI_Request_free()'
p4621
S'104'
p4622
tp4623
a(S'X_MPI_Type_contiguous()'
p4624
S'105'
p4625
tp4626
a(S'X_MPI_Type_vector()'
p4627
S'106'
p4628
tp4629
a(S'X_MPI_Type_hvector()'
p4630
S'107'
p4631
tp4632
a(S'X_MPI_Type_struct()'
p4633
S'108'
p4634
tp4635
a(S'X_MPI_Type_commit()'
p4636
S'109'
p4637
tp4638
a(S'X_MPI_Type_free()'
p4639
S'110'
p4640
tp4641
asS'civl/examples/mpi-omp/mpi-omp-mat-vect-mult-blkstp.c'
p4642
(lp4643
(S'MPI_Init()'
p4644
S'48'
p4645
tp4646
a(S'MPI_Comm_rank()'
p4647
S'49'
p4648
tp4649
a(S'MPI_Comm_size()'
p4650
S'50'
p4651
tp4652
a(S'MPI_Barrier()'
p4653
S'97'
p4654
tp4655
a(S'MPI_Bcast()'
p4656
S'99'
p4657
tp4658
a(S'MPI_Finalize()'
p4659
S'103'
p4660
tp4661
a(S'MPI_Bcast()'
p4662
S'106'
p4663
tp4664
a(S'MPI_Finalize()'
p4665
S'110'
p4666
tp4667
a(S'MPI_Bcast()'
p4668
S'113'
p4669
tp4670
a(S'MPI_Finalize()'
p4671
S'121'
p4672
tp4673
a(S'MPI_Finalize()'
p4674
S'130'
p4675
tp4676
a(S'MPI_Bcast()'
p4677
S'133'
p4678
tp4679
a(S'MPI_Bcast()'
p4680
S'134'
p4681
tp4682
a(S'MPI_Finalize()'
p4683
S'141'
p4684
tp4685
a(S'MPI_Bcast()'
p4686
S'146'
p4687
tp4688
a(S'MPI_Scatter()'
p4689
S'150'
p4690
tp4691
a(S'MPI_Barrier()'
p4692
S'179'
p4693
tp4694
a(S'MPI_Gather()'
p4695
S'185'
p4696
tp4697
a(S'MPI_Finalize()'
p4698
S'227'
p4699
tp4700
asS'civl/examples/mpi-omp/AMG2013/struct_mv/box_neighbors.c'
p4701
(lp4702
(S'MPI_Comm_rank()'
p4703
S'391'
p4704
tp4705
asS'civl/examples/mpi/simple/ooobcast.c'
p4706
(lp4707
(S'MPI_Init()'
p4708
S'17'
p4709
tp4710
a(S'MPI_Comm_rank()'
p4711
S'18'
p4712
tp4713
a(S'MPI_Bcast()'
p4714
S'20'
p4715
tp4716
a(S'MPI_Bcast()'
p4717
S'21'
p4718
tp4719
a(S'MPI_Bcast()'
p4720
S'23'
p4721
tp4722
a(S'MPI_Bcast()'
p4723
S'24'
p4724
tp4725
a(S'MPI_Finalize()'
p4726
S'26'
p4727
tp4728
asS'civl/examples/mpi/routines/mpiSysStatusBad.c'
p4729
(lp4730
(S'MPI_Comm_rank()'
p4731
S'10'
p4732
tp4733
a(S'MPI_Finalize()'
p4734
S'11'
p4735
tp4736
asS'civl/examples/mpi-omp/AMG2013/parcsr_ls/par_relax.c'
p4737
(lp4738
(S'MPI_Comm_size()'
p4739
S'110'
p4740
tp4741
a(S'MPI_Comm_rank()'
p4742
S'111'
p4743
tp4744
a(S'MPI_Isend()'
p4745
S'1611'
p4746
tp4747
a(S'MPI_Waitall()'
p4748
S'1615'
p4749
tp4750
a(S'MPI_Barrier()'
p4751
S'1616'
p4752
tp4753
a(S'MPI_Irecv()'
p4754
S'1627'
p4755
tp4756
a(S'MPI_Waitall()'
p4757
S'1630'
p4758
tp4759
a(S'MPI_Barrier()'
p4760
S'1692'
p4761
tp4762
a(S'MPI_Isend()'
p4763
S'1800'
p4764
tp4765
a(S'MPI_Waitall()'
p4766
S'1804'
p4767
tp4768
a(S'MPI_Barrier()'
p4769
S'1805'
p4770
tp4771
a(S'MPI_Irecv()'
p4772
S'1816'
p4773
tp4774
a(S'MPI_Waitall()'
p4775
S'1819'
p4776
tp4777
a(S'MPI_Barrier()'
p4778
S'1883'
p4779
tp4780
asS'civl/examples/mpi/simple/noFinalize.c'
p4781
(lp4782
(S'MPI_Init()'
p4783
g617
tp4784
a(S'MPI_Comm_rank()'
p4785
S'10'
p4786
tp4787
asS'civl/examples/mpi-omp/AMG2013/IJ_mv/IJVector_parcsr.c'
p4788
(lp4789
(S'MPI_Comm_size()'
p4790
S'40'
p4791
tp4792
a(S'MPI_Comm_rank()'
p4793
S'102'
p4794
tp4795
a(S'MPI_Comm_rank()'
p4796
S'218'
p4797
tp4798
a(S'MPI_Comm_rank()'
p4799
S'298'
p4800
tp4801
a(S'MPI_Comm_rank()'
p4802
S'442'
p4803
tp4804
a(S'MPI_Allreduce()'
p4805
S'621'
p4806
tp4807
a(S'MPI_Comm_rank()'
p4808
S'666'
p4809
tp4810
a(S'MPI_Comm_size()'
p4811
S'797'
p4812
tp4813
a(S'MPI_Comm_rank()'
p4814
S'798'
p4815
tp4816
a(S'MPI_Allgather()'
p4817
S'842'
p4818
tp4819
a(S'MPI_Allgatherv()'
p4820
S'850'
p4821
tp4822
a(S'X_MPI_INT()'
p4823
S'851'
p4824
tp4825
a(S'MPI_Irecv()'
p4826
S'922'
p4827
tp4828
a(S'MPI_Isend()'
p4829
S'931'
p4830
tp4831
a(S'MPI_Waitall()'
p4832
S'937'
p4833
tp4834
a(S'MPI_Irecv()'
p4835
S'946'
p4836
tp4837
a(S'MPI_Isend()'
p4838
S'955'
p4839
tp4840
a(S'MPI_Waitall()'
p4841
S'961'
p4842
tp4843
a(S'MPI_Comm_rank()'
p4844
S'1055'
p4845
tp4846
asS'civl/examples/mpi/collective/allreduce.c'
p4847
(lp4848
(S'MPI_Init()'
p4849
S'12'
p4850
tp4851
a(S'MPI_Comm_size()'
p4852
S'13'
p4853
tp4854
a(S'MPI_Comm_rank()'
p4855
S'14'
p4856
tp4857
a(S'MPI_Allreduce()'
p4858
S'20'
p4859
tp4860
a(S'MPI_Allreduce()'
p4861
S'22'
p4862
tp4863
a(S'MPI_Allreduce()'
p4864
S'25'
p4865
tp4866
a(S'MPI_Allreduce()'
p4867
S'27'
p4868
tp4869
a(S'MPI_Allreduce()'
p4870
S'29'
p4871
tp4872
a(S'MPI_Finalize()'
p4873
S'39'
p4874
tp4875
asS'civl/examples/mpi/dev/mpi_pi_send.c'
p4876
(lp4877
(S'MPI_Init()'
p4878
S'43'
p4879
tp4880
a(S'MPI_Comm_size()'
p4881
S'44'
p4882
tp4883
a(S'MPI_Comm_rank()'
p4884
S'45'
p4885
tp4886
a(S'MPI_Send()'
p4887
S'60'
p4888
tp4889
a(S'MPI_Recv()'
p4890
S'77'
p4891
tp4892
a(S'MPI_Finalize()'
p4893
S'96'
p4894
tp4895
asS'civl/examples/mpi-omp/AMG2013/utilities/timing.c'
p4896
(lp4897
(S'MPI_Comm_rank()'
p4898
S'408'
p4899
tp4900
a(S'MPI_Allreduce()'
p4901
S'424'
p4902
tp4903
a(S'X_MPI_DOUBLE()'
p4904
S'425'
p4905
tp4906
a(S'MPI_Allreduce()'
p4907
S'426'
p4908
tp4909
a(S'X_MPI_DOUBLE()'
p4910
S'427'
p4911
tp4912
a(S'MPI_Comm_rank()'
p4913
S'491'
p4914
tp4915
a(S'MPI_Allreduce()'
p4916
S'571'
p4917
tp4918
a(S'X_MPI_DOUBLE()'
p4919
S'572'
p4920
tp4921
a(S'MPI_Allreduce()'
p4922
S'573'
p4923
tp4924
a(S'X_MPI_DOUBLE()'
p4925
S'574'
p4926
tp4927
asS'civl/examples/contracts/coassert_cover.c'
p4928
(lp4929
(S'MPI_Recv()'
p4930
S'13'
p4931
tp4932
a(S'MPI_Send()'
p4933
S'19'
p4934
tp4935
a(S'MPI_Init()'
p4936
S'26'
p4937
tp4938
a(S'MPI_Comm_rank()'
p4939
S'27'
p4940
tp4941
a(S'MPI_Comm_size()'
p4942
S'28'
p4943
tp4944
a(S'MPI_Finalize()'
p4945
S'34'
p4946
tp4947
asS'civl/examples/mpi-omp/AMG2013/sstruct_mv/HYPRE_sstruct_graph.c'
p4948
(lp4949
(S'MPI_Comm_size()'
p4950
S'364'
p4951
tp4952
a(S'MPI_Comm_rank()'
p4953
S'365'
p4954
tp4955
a(S'MPI_Irecv()'
p4956
S'539'
p4957
tp4958
a(S'MPI_Isend()'
p4959
S'545'
p4960
tp4961
a(S'MPI_Irecv()'
p4962
S'585'
p4963
tp4964
a(S'MPI_Iprobe()'
p4965
S'599'
p4966
tp4967
a(S'MPI_Get_count()'
p4968
S'604'
p4969
tp4970
a(S'MPI_Recv()'
p4971
S'610'
p4972
tp4973
a(S'MPI_Send()'
p4974
S'628'
p4975
tp4976
a(S'MPI_Iprobe()'
p4977
S'630'
p4978
tp4979
a(S'MPI_Testall()'
p4980
S'636'
p4981
tp4982
a(S'MPI_Testall()'
p4983
S'640'
p4984
tp4985
a(S'MPI_Send()'
p4986
S'646'
p4987
tp4988
a(S'MPI_Irecv()'
p4989
S'649'
p4990
tp4991
a(S'MPI_Test()'
p4992
S'655'
p4993
tp4994
a(S'MPI_Send()'
p4995
S'661'
p4996
tp4997
asS'civl/examples/mpi/simple/allreduce.c'
p4998
(lp4999
(S'MPI_Init()'
p5000
S'18'
p5001
tp5002
a(S'MPI_Comm_rank()'
p5003
S'19'
p5004
tp5005
a(S'MPI_Comm_size()'
p5006
S'20'
p5007
tp5008
a(S'MPI_Allreduce()'
p5009
S'23'
p5010
tp5011
a(S'MPI_Finalize()'
p5012
S'28'
p5013
tp5014
asS'civl/examples/concurrency/hybrid.cvl'
p5015
(lp5016
(S'MPI_Comm_rank()'
p5017
S'15'
p5018
tp5019
a(S'MPI_Send()'
p5020
S'24'
p5021
tp5022
a(S'MPI_Recv()'
p5023
S'26'
p5024
tp5025
a(S'MPI_Recv()'
p5026
S'29'
p5027
tp5028
a(S'MPI_Send()'
p5029
S'31'
p5030
tp5031
asS'civl/examples/mpi/collective/c_ex08.c'
p5032
(lp5033
(S'MPI_Init()'
p5034
S'20'
p5035
tp5036
a(S'MPI_Comm_size()'
p5037
S'21'
p5038
tp5039
a(S'MPI_Comm_rank()'
p5040
S'22'
p5041
tp5042
a(S'MPI_Gather()'
p5043
S'42'
p5044
tp5045
a(S'MPI_Gatherv()'
p5046
S'58'
p5047
tp5048
a(S'MPI_Finalize()'
p5049
S'83'
p5050
tp5051
asS'civl/examples/mpi/collective/vectorSum.c'
p5052
(lp5053
(S'MPI_Init()'
p5054
S'19'
p5055
tp5056
a(S'MPI_Comm_size()'
p5057
S'20'
p5058
tp5059
a(S'MPI_Comm_rank()'
p5060
S'21'
p5061
tp5062
a(S'MPI_Scatter()'
p5063
S'36'
p5064
tp5065
a(S'MPI_Allgather()'
p5066
S'40'
p5067
tp5068
a(S'MPI_Bcast()'
p5069
S'51'
p5070
tp5071
a(S'MPI_Reduce()'
p5072
S'53'
p5073
tp5074
a(S'MPI_Finalize()'
p5075
S'69'
p5076
tp5077
asS'civl/src/main/resources/include/civl/civl-mpi.cvl'
p5078
(lp5079
(S'X_MPI_STATUS_IGNORE()'
p5080
S'296'
p5081
tp5082
asS'civl/examples/mpi-pthread/mpi-pthreads-pie-collective.c'
p5083
(lp5084
(S'MPI_Init()'
p5085
S'88'
p5086
tp5087
a(S'MPI_Comm_size()'
p5088
S'89'
p5089
tp5090
a(S'MPI_Comm_rank()'
p5091
S'90'
p5092
tp5093
a(S'MPI_Bcast()'
p5094
S'101'
p5095
tp5096
a(S'MPI_Finalize()'
p5097
S'108'
p5098
tp5099
a(S'MPI_Reduce()'
p5100
S'137'
p5101
tp5102
a(S'MPI_Finalize()'
p5103
S'145'
p5104
tp5105
asS'civl/examples/omp/HydroC/parametres.c'
p5106
(lp5107
(S'MPI_Comm_size()'
p5108
S'272'
p5109
tp5110
a(S'MPI_Comm_rank()'
p5111
S'273'
p5112
tp5113
a(S'MPI_Comm_size()'
p5114
S'358'
p5115
tp5116
a(S'MPI_Comm_rank()'
p5117
S'359'
p5118
tp5119
a(S'MPI_Barrier()'
p5120
S'382'
p5121
tp5122
a(S'MPI_Barrier()'
p5123
S'385'
p5124
tp5125
a(S'MPI_Abort()'
p5126
S'406'
p5127
tp5128
a(S'MPI_Abort()'
p5129
S'409'
p5130
tp5131
asS'civl/examples/contracts/wildcard_coassert_barrier.c'
p5132
(lp5133
(S'MPI_Recv()'
p5134
S'13'
p5135
tp5136
a(S'MPI_Barrier()'
p5137
S'14'
p5138
tp5139
a(S'MPI_Send()'
p5140
S'19'
p5141
tp5142
a(S'MPI_Barrier()'
p5143
S'21'
p5144
tp5145
a(S'MPI_Init()'
p5146
S'26'
p5147
tp5148
a(S'MPI_Comm_rank()'
p5149
S'27'
p5150
tp5151
a(S'MPI_Comm_size()'
p5152
S'28'
p5153
tp5154
a(S'MPI_Finalize()'
p5155
S'34'
p5156
tp5157
asS'civl/examples/concurrency/mp_root2.cvh'
p5158
(lp5159
(S'X_MPI_ANY_SOURCE()'
p5160
g2404
tp5161
a(S'X_MPI_ANY_TAG()'
p5162
S'3'
p5163
tp5164
a(S'X_MPI_INT()'
p5165
S'13'
p5166
tp5167
a(S'X_MPI_DOUBLE()'
p5168
S'14'
p5169
tp5170
a(S'X_MPI_FLOAT()'
p5171
S'15'
p5172
tp5173
a(S'X_MPI_CHAR()'
p5174
S'16'
p5175
tp5176
asS'civl/examples/mpi-omp/AMG2013/IJ_mv/HYPRE_IJMatrix.c'
p5177
(lp5178
(S'MPI_Comm_size()'
p5179
S'59'
p5180
tp5181
a(S'MPI_Comm_rank()'
p5182
S'60'
p5183
tp5184
a(S'MPI_Bcast()'
p5185
S'109'
p5186
tp5187
a(S'MPI_Bcast()'
p5188
S'119'
p5189
tp5190
a(S'MPI_Allgather()'
p5191
S'150'
p5192
tp5193
a(S'MPI_Comm_rank()'
p5194
S'685'
p5195
tp5196
a(S'MPI_Comm_rank()'
p5197
S'863'
p5198
tp5199
a(S'MPI_Comm_rank()'
p5200
S'941'
p5201
tp5202
asS'civl/examples/mpi-omp/AMG2013/parcsr_mv/par_csr_communication.c'
p5203
(lp5204
(S'MPI_Comm_size()'
p5205
S'71'
p5206
tp5207
a(S'MPI_Comm_rank()'
p5208
S'72'
p5209
tp5210
a(S'MPI_Irecv()'
p5211
S'86'
p5212
tp5213
a(S'MPI_Isend()'
p5214
S'94'
p5215
tp5216
a(S'MPI_Irecv()'
p5217
S'108'
p5218
tp5219
a(S'MPI_Isend()'
p5220
S'116'
p5221
tp5222
a(S'MPI_Irecv()'
p5223
S'130'
p5224
tp5225
a(S'MPI_Isend()'
p5226
S'138'
p5227
tp5228
a(S'MPI_Irecv()'
p5229
S'152'
p5230
tp5231
a(S'MPI_Isend()'
p5232
S'160'
p5233
tp5234
a(S'MPI_Irecv()'
p5235
S'174'
p5236
tp5237
a(S'MPI_Isend()'
p5238
S'182'
p5239
tp5240
a(S'MPI_Irecv()'
p5241
S'196'
p5242
tp5243
a(S'MPI_Isend()'
p5244
S'204'
p5245
tp5246
a(S'MPI_Irecv()'
p5247
S'214'
p5248
tp5249
a(S'MPI_Isend()'
p5250
S'221'
p5251
tp5252
a(S'MPI_Waitall()'
p5253
S'254'
p5254
tp5255
a(S'MPI_Comm_size()'
p5256
S'304'
p5257
tp5258
a(S'MPI_Comm_rank()'
p5259
S'305'
p5260
tp5261
a(S'MPI_Allgather()'
p5262
S'355'
p5263
tp5264
a(S'MPI_Allgatherv()'
p5265
S'390'
p5266
tp5267
a(S'MPI_Irecv()'
p5268
S'452'
p5269
tp5270
a(S'MPI_Isend()'
p5271
S'460'
p5272
tp5273
a(S'MPI_Waitall()'
p5274
S'466'
p5275
tp5276
a(S'MPI_Address()'
p5277
S'601'
p5278
tp5279
a(S'MPI_Address()'
p5280
S'602'
p5281
tp5282
a(S'MPI_Address()'
p5283
S'603'
p5284
tp5285
a(S'MPI_Type_struct()'
p5286
S'604'
p5287
tp5288
a(S'MPI_Type_commit()'
p5289
S'605'
p5290
tp5291
a(S'MPI_Address()'
p5292
S'626'
p5293
tp5294
a(S'MPI_Address()'
p5295
S'627'
p5296
tp5297
a(S'MPI_Type_struct()'
p5298
S'629'
p5299
tp5300
a(S'MPI_Type_commit()'
p5301
S'630'
p5302
tp5303
asS'civl/examples/mpi/collective/bcast_bug2.c'
p5304
(lp5305
(S'MPI_Init()'
p5306
S'19'
p5307
tp5308
a(S'MPI_Comm_size()'
p5309
S'20'
p5310
tp5311
a(S'MPI_Comm_rank()'
p5312
S'21'
p5313
tp5314
a(S'MPI_Bcast()'
p5315
S'35'
p5316
tp5317
a(S'MPI_Send()'
p5318
S'36'
p5319
tp5320
a(S'MPI_Recv()'
p5321
S'39'
p5322
tp5323
a(S'MPI_Bcast()'
p5324
S'40'
p5325
tp5326
a(S'MPI_Finalize()'
p5327
S'47'
p5328
tp5329
asS'civl/examples/mpi-omp/AMG2013/parcsr_ls/par_lr_interp.c'
p5330
(lp5331
(S'MPI_Comm_size()'
p5332
S'149'
p5333
tp5334
a(S'MPI_Comm_rank()'
p5335
S'150'
p5336
tp5337
a(S'MPI_Bcast()'
p5338
S'155'
p5339
tp5340
a(S'MPI_Comm_size()'
p5341
S'1216'
p5342
tp5343
a(S'MPI_Comm_rank()'
p5344
S'1217'
p5345
tp5346
a(S'MPI_Bcast()'
p5347
S'1224'
p5348
tp5349
a(S'MPI_Comm_size()'
p5350
S'2144'
p5351
tp5352
a(S'MPI_Comm_rank()'
p5353
S'2145'
p5354
tp5355
a(S'MPI_Bcast()'
p5356
S'2150'
p5357
tp5358
a(S'MPI_Comm_size()'
p5359
S'3148'
p5360
tp5361
a(S'MPI_Comm_rank()'
p5362
S'3149'
p5363
tp5364
a(S'MPI_Bcast()'
p5365
S'3154'
p5366
tp5367
a(S'MPI_Comm_size()'
p5368
S'4136'
p5369
tp5370
a(S'MPI_Comm_rank()'
p5371
S'4137'
p5372
tp5373
a(S'MPI_Bcast()'
p5374
S'4142'
p5375
tp5376
a(S'MPI_Comm_size()'
p5377
S'5135'
p5378
tp5379
a(S'MPI_Comm_rank()'
p5380
S'5136'
p5381
tp5382
a(S'MPI_Bcast()'
p5383
S'5141'
p5384
tp5385
asS'civl/examples/mpi-pthread/mpi-pthreads-marix-vector.c'
p5386
(lp5387
(S'MPI_Init()'
p5388
S'122'
p5389
tp5390
a(S'MPI_Comm_rank()'
p5391
S'123'
p5392
tp5393
a(S'MPI_Comm_size()'
p5394
S'124'
p5395
tp5396
a(S'MPI_Finalize()'
p5397
S'132'
p5398
tp5399
a(S'MPI_Barrier()'
p5400
S'148'
p5401
tp5402
a(S'MPI_Bcast()'
p5403
S'150'
p5404
tp5405
a(S'MPI_Bcast()'
p5406
S'151'
p5407
tp5408
a(S'MPI_Bcast()'
p5409
S'152'
p5410
tp5411
a(S'MPI_Finalize()'
p5412
S'162'
p5413
tp5414
a(S'MPI_Finalize()'
p5415
S'173'
p5416
tp5417
a(S'MPI_Finalize()'
p5418
S'183'
p5419
tp5420
a(S'MPI_Allgather()'
p5421
S'210'
p5422
tp5423
a(S'MPI_Barrier()'
p5424
S'225'
p5425
tp5426
a(S'MPI_Barrier()'
p5427
S'237'
p5428
tp5429
a(S'MPI_Barrier()'
p5430
S'241'
p5431
tp5432
a(S'MPI_Gatherv()'
p5433
S'248'
p5434
tp5435
a(S'MPI_Finalize()'
p5436
S'286'
p5437
tp5438
asS'civl/examples/mpi-omp/AMG2013/parcsr_mv/par_csr_matop_marked.c'
p5439
(lp5440
(S'MPI_Comm_size()'
p5441
S'366'
p5442
tp5443
asS'civl/examples/mpi-omp/AMG2013/parcsr_ls/par_stats.c'
p5444
(lp5445
(S'MPI_Comm_size()'
p5446
S'138'
p5447
tp5448
a(S'MPI_Comm_rank()'
p5449
S'139'
p5450
tp5451
a(S'MPI_Reduce()'
p5452
S'404'
p5453
tp5454
a(S'MPI_Gather()'
p5455
S'432'
p5456
tp5457
a(S'MPI_Reduce()'
p5458
S'595'
p5459
tp5460
a(S'MPI_Gather()'
p5461
S'628'
p5462
tp5463
asS'civl/examples/mpi-omp/AMG2013/parcsr_ls/par_rap_communication.c'
p5464
(lp5465
(S'MPI_Comm_size()'
p5466
S'72'
p5467
tp5468
a(S'MPI_Comm_rank()'
p5469
S'73'
p5470
tp5471
a(S'MPI_Irecv()'
p5472
S'182'
p5473
tp5474
a(S'MPI_Isend()'
p5475
S'186'
p5476
tp5477
a(S'MPI_Waitall()'
p5478
S'189'
p5479
tp5480
a(S'MPI_Irecv()'
p5481
S'229'
p5482
tp5483
a(S'MPI_Isend()'
p5484
S'237'
p5485
tp5486
a(S'MPI_Waitall()'
p5487
S'241'
p5488
tp5489
a(S'MPI_Irecv()'
p5490
S'292'
p5491
tp5492
a(S'MPI_Isend()'
p5493
S'298'
p5494
tp5495
a(S'MPI_Waitall()'
p5496
S'301'
p5497
tp5498
a(S'MPI_Irecv()'
p5499
S'315'
p5500
tp5501
a(S'MPI_Isend()'
p5502
S'323'
p5503
tp5504
a(S'MPI_Waitall()'
p5505
S'327'
p5506
tp5507
asS'civl/examples/mpi/simple/unreceived.c'
p5508
(lp5509
(S'MPI_Init()'
p5510
S'14'
p5511
tp5512
a(S'MPI_Comm_rank()'
p5513
S'15'
p5514
tp5515
a(S'MPI_Send()'
p5516
S'17'
p5517
tp5518
a(S'MPI_Finalize()'
p5519
S'19'
p5520
tp5521
asS'civl/examples/mpi/simple/bcast.c'
p5522
(lp5523
(S'MPI_Init()'
p5524
S'15'
p5525
tp5526
a(S'MPI_Comm_rank()'
p5527
S'16'
p5528
tp5529
a(S'MPI_Bcast()'
p5530
S'19'
p5531
tp5532
a(S'MPI_Bcast()'
p5533
S'20'
p5534
tp5535
a(S'MPI_Finalize()'
p5536
S'23'
p5537
tp5538
asS'civl/examples/mpi/collective/matTrans_bad.c'
p5539
(lp5540
(S'MPI_Init()'
p5541
S'20'
p5542
tp5543
a(S'MPI_Comm_rank()'
p5544
S'21'
p5545
tp5546
a(S'MPI_Comm_size()'
p5547
S'22'
p5548
tp5549
a(S'MPI_Abort()'
p5550
S'27'
p5551
tp5552
a(S'MPI_Alltoall()'
p5553
S'33'
p5554
tp5555
a(S'MPI_Finalize()'
p5556
S'37'
p5557
tp5558
asS'civl/examples/mpi/simple/commDup.c'
p5559
(lp5560
(S'MPI_Comm_dup()'
p5561
g2404
tp5562
a(S'MPI_Init()'
p5563
S'11'
p5564
tp5565
a(S'MPI_Comm_rank()'
p5566
S'12'
p5567
tp5568
a(S'MPI_Comm_size()'
p5569
S'13'
p5570
tp5571
a(S'MPI_Comm_dup()'
p5572
S'14'
p5573
tp5574
a(S'MPI_Reduce()'
p5575
S'16'
p5576
tp5577
a(S'MPI_Bcast()'
p5578
S'17'
p5579
tp5580
a(S'MPI_Comm_free()'
p5581
S'19'
p5582
tp5583
a(S'MPI_Finalize()'
p5584
S'20'
p5585
tp5586
asS'civl/examples/concurrency/wildcardBad.c'
p5587
(lp5588
(S'MPI_Init()'
p5589
S'10'
p5590
tp5591
a(S'MPI_Comm_rank()'
p5592
S'11'
p5593
tp5594
a(S'MPI_Comm_size()'
p5595
S'12'
p5596
tp5597
a(S'MPI_Send()'
p5598
S'15'
p5599
tp5600
a(S'MPI_Recv()'
p5601
S'22'
p5602
tp5603
a(S'MPI_Recv()'
p5604
S'23'
p5605
tp5606
a(S'MPI_Finalize()'
p5607
S'25'
p5608
tp5609
as.