ccollections
defaultdict
p0
(c__builtin__
list
p1
tp2
Rp3
S'nonmpi/include/mpi.h'
p4
(lp5
(S'X_MPI_SUCCESS()'
p6
S'5'
p7
tp8
a(S'X_MPI_ERR_BUFFER()'
p9
S'6'
p10
tp11
a(S'X_MPI_ERR_COUNT()'
p12
S'7'
p13
tp14
a(S'X_MPI_ERR_TYPE()'
p15
S'8'
p16
tp17
a(S'X_MPI_ERR_TAG()'
p18
S'9'
p19
tp20
a(S'X_MPI_ERR_COMM()'
p21
S'10'
p22
tp23
a(S'X_MPI_ERR_RANK()'
p24
S'11'
p25
tp26
a(S'X_MPI_ERR_REQUEST()'
p27
S'12'
p28
tp29
a(S'X_MPI_ERR_ROOT()'
p30
S'13'
p31
tp32
a(S'X_MPI_ERR_GROUP()'
p33
S'14'
p34
tp35
a(S'X_MPI_ERR_OP()'
p36
S'15'
p37
tp38
a(S'X_MPI_ERR_TOPOLOGY()'
p39
S'16'
p40
tp41
a(S'X_MPI_ERR_DIMS()'
p42
S'17'
p43
tp44
a(S'X_MPI_ERR_ARG()'
p45
S'18'
p46
tp47
a(S'X_MPI_ERR_UNKNOWN()'
p48
S'19'
p49
tp50
a(S'X_MPI_ERR_TRUNCATE()'
p51
S'20'
p52
tp53
a(S'X_MPI_ERR_OTHER()'
p54
S'21'
p55
tp56
a(S'X_MPI_ERR_INTERN()'
p57
S'22'
p58
tp59
a(S'X_MPI_PENDING()'
p60
S'23'
p61
tp62
a(S'X_MPI_ERR_IN_STATUS()'
p63
S'24'
p64
tp65
a(S'X_MPI_ERR_LASTCODE()'
p66
S'25'
p67
tp68
a(S'X_MPI_BOTTOM()'
p69
S'28'
p70
tp71
a(S'X_MPI_PROC_NULL()'
p72
S'29'
p73
tp74
a(S'X_MPI_ANY_SOURCE()'
p75
S'30'
p76
tp77
a(S'X_MPI_ANY_TAG()'
p78
S'31'
p79
tp80
a(S'X_MPI_UNDEFINED()'
p81
S'32'
p82
tp83
a(S'X_MPI_BSEND_OVERHEAD()'
p84
S'33'
p85
tp86
a(S'X_MPI_KEYVAL_INVALID()'
p87
S'34'
p88
tp89
a(S'X_MPI_MAX_PROCESSOR_NAME()'
p90
S'40'
p91
tp92
a(S'X_MPI_MAX_ERROR_STRING()'
p93
S'41'
p94
tp95
a(S'X_MPI_CHAR()'
p96
S'45'
p97
tp98
a(S'X_MPI_SHORT()'
p99
S'46'
p100
tp101
a(S'X_MPI_INT()'
p102
S'47'
p103
tp104
a(S'X_MPI_LONG()'
p105
S'48'
p106
tp107
a(S'X_MPI_UNSIGNED_CHAR()'
p108
S'49'
p109
tp110
a(S'X_MPI_UNSIGNED_SHORT()'
p111
S'50'
p112
tp113
a(S'X_MPI_UNSIGNED()'
p114
S'51'
p115
tp116
a(S'X_MPI_UNSIGNED_LONG()'
p117
S'52'
p118
tp119
a(S'X_MPI_FLOAT()'
p120
S'53'
p121
tp122
a(S'X_MPI_DOUBLE()'
p123
S'54'
p124
tp125
a(S'X_MPI_LONG_DOUBLE()'
p126
S'55'
p127
tp128
a(S'X_MPI_BYTE()'
p129
S'56'
p130
tp131
a(S'X_MPI_PACKED()'
p132
S'57'
p133
tp134
a(S'X_MPI_INTEGER()'
p135
S'61'
p136
tp137
a(S'X_MPI_REAL()'
p138
S'62'
p139
tp140
a(S'X_MPI_DOUBLE_PRECISION()'
p141
S'63'
p142
tp143
a(S'X_MPI_COMPLEX()'
p144
S'64'
p145
tp146
a(S'X_MPI_DOUBLE_COMPLEX()'
p147
S'65'
p148
tp149
a(S'X_MPI_LOGICAL()'
p150
S'66'
p151
tp152
a(S'X_MPI_CHARACTER()'
p153
S'67'
p154
tp155
a(S'X_MPI_BYTE()'
p156
S'68'
p157
tp158
a(S'X_MPI_PACKED()'
p159
S'69'
p160
tp161
a(S'X_MPI_FLOAT_INT()'
p162
S'73'
p163
tp164
a(S'X_MPI_DOUBLE_INT()'
p165
S'74'
p166
tp167
a(S'X_MPI_LONG_INT()'
p168
S'75'
p169
tp170
a(S'X_MPI_SHORT_INT()'
p171
S'77'
p172
tp173
a(S'X_MPI_LONG_DOUBLE_INT()'
p174
S'78'
p175
tp176
a(S'X_MPI_LONG_LONG_INT()'
p177
S'97'
p178
tp179
a(S'X_MPI_UB()'
p180
S'101'
p181
tp182
a(S'X_MPI_LB()'
p183
S'102'
p184
tp185
a(S'X_MPI_COMM_WORLD()'
p186
S'106'
p187
tp188
a(S'X_MPI_COMM_SELF()'
p189
S'107'
p190
tp191
a(S'X_MPI_IDENT()'
p192
S'113'
p193
tp194
a(S'X_MPI_CONGRUENT()'
p195
S'114'
p196
tp197
a(S'X_MPI_SIMILAR()'
p198
S'115'
p199
tp200
a(S'X_MPI_UNEQUAL()'
p201
S'116'
p202
tp203
a(S'X_MPI_TAG_UB()'
p204
S'120'
p205
tp206
a(S'X_MPI_IO()'
p207
S'121'
p208
tp209
a(S'X_MPI_HOST()'
p210
S'122'
p211
tp212
a(S'X_MPI_WTIME_IS_GLOBAL()'
p213
S'123'
p214
tp215
a(S'X_MPI_MAX()'
p216
S'127'
p217
tp218
a(S'X_MPI_MIN()'
p219
S'128'
p220
tp221
a(S'X_MPI_SUM()'
p222
S'129'
p223
tp224
a(S'X_MPI_PROD()'
p225
S'130'
p226
tp227
a(S'X_MPI_MAXLOC()'
p228
S'131'
p229
tp230
a(S'X_MPI_MINLOC()'
p231
S'132'
p232
tp233
a(S'X_MPI_BAND()'
p234
S'133'
p235
tp236
a(S'X_MPI_BOR()'
p237
S'134'
p238
tp239
a(S'X_MPI_BXOR()'
p240
S'135'
p241
tp242
a(S'X_MPI_LAND()'
p243
S'136'
p244
tp245
a(S'X_MPI_LOR()'
p246
S'137'
p247
tp248
a(S'X_MPI_LXOR()'
p249
S'138'
p250
tp251
a(S'X_MPI_GROUP_NULL()'
p252
S'142'
p253
tp254
a(S'X_MPI_COMM_NULL()'
p255
S'143'
p256
tp257
a(S'X_MPI_DATATYPE_NULL()'
p258
S'144'
p259
tp260
a(S'X_MPI_REQUEST_NULL()'
p261
S'145'
p262
tp263
a(S'X_MPI_OP_NULL()'
p264
S'146'
p265
tp266
a(S'X_MPI_ERRHANDLER_NULL()'
p267
S'147'
p268
tp269
a(S'X_MPI_GROUP_EMPTY()'
p270
S'151'
p271
tp272
a(S'X_MPI_GRAPH()'
p273
S'155'
p274
tp275
a(S'X_MPI_CART()'
p276
S'156'
p277
tp278
a(S'X_MPI_Aint()'
p279
S'160'
p280
tp281
a(S'X_MPI_Status()'
p282
S'161'
p283
tp284
a(S'X_MPI_Group()'
p285
S'164'
p286
tp287
a(S'X_MPI_Comm()'
p288
S'165'
p289
tp290
a(S'X_MPI_Datatype()'
p291
S'166'
p292
tp293
a(S'X_MPI_Request()'
p294
S'167'
p295
tp296
a(S'X_MPI_Op()'
p297
S'168'
p298
tp299
a(S'X_MPI_Errhandler()'
p300
S'169'
p301
tp302
a(S'X_MPI_ERRORS_ARE_FATAL()'
p303
S'174'
p304
tp305
a(S'X_MPI_ERRORS_RETURN()'
p306
S'175'
p307
tp308
as.