ccollections
defaultdict
p0
(c__builtin__
list
p1
tp2
Rp3
S'tempi/test/iid.cpp'
p4
(lp5
(S'MPI_Init()'
p6
S'12'
p7
tp8
a(S'MPI_Comm_rank()'
p9
S'15'
p10
tp11
a(S'MPI_Comm_size()'
p12
S'16'
p13
tp14
a(S'MPI_Finalize()'
p15
S'58'
p16
tp17
asS'tempi/test/send_vector.cpp'
p18
(lp19
(S'MPI_Init()'
p20
S'16'
p21
tp22
a(S'MPI_Comm_rank()'
p23
S'19'
p24
tp25
a(S'MPI_Comm_size()'
p26
S'20'
p27
tp28
a(S'MPI_Type_commit()'
p29
S'36'
p30
tp31
a(S'MPI_Type_get_extent()'
p32
S'39'
p33
tp34
a(S'MPI_Send()'
p35
S'48'
p36
tp37
a(S'MPI_Recv()'
p38
S'50'
p39
tp40
a(S'MPI_Barrier()'
p41
S'52'
p42
tp43
a(S'MPI_Send()'
p44
S'57'
p45
tp46
a(S'MPI_Recv()'
p47
S'59'
p48
tp49
a(S'MPI_Barrier()'
p50
S'61'
p51
tp52
a(S'MPI_Type_free()'
p53
S'65'
p54
tp55
a(S'MPI_Finalize()'
p56
S'68'
p57
tp58
asS'tempi/bin/bench_type_commit.cpp'
p59
(lp60
(S'MPI_Type_commit()'
p61
S'43'
p62
tp63
a(S'MPI_Type_free()'
p64
S'48'
p65
tp66
a(S'MPI_Init()'
p67
S'57'
p68
tp69
a(S'MPI_Comm_rank()'
p70
S'61'
p71
tp72
a(S'MPI_Comm_size()'
p73
S'62'
p74
tp75
a(S'MPI_Finalize()'
p76
S'162'
p77
tp78
asS'tempi/src/internal/benchmark.cpp'
p79
(lp80
(S'MPI_Comm_rank()'
p81
S'37'
p82
tp83
a(S'MPI_Bcast()'
p84
S'38'
p85
tp86
a(S'MPI_Comm_rank()'
p87
S'95'
p88
tp89
a(S'MPI_Comm_size()'
p90
S'96'
p91
tp92
a(S'MPI_Bcast()'
p93
S'116'
p94
tp95
a(S'MPI_Barrier()'
p96
S'127'
p97
tp98
a(S'MPI_Barrier()'
p99
S'134'
p100
tp101
a(S'MPI_Bcast()'
p102
S'148'
p103
tp104
a(S'MPI_Bcast()'
p105
S'149'
p106
tp107
asS'tempi/bin/bench_mpi_random_isend_irecv.cpp'
p108
(lp109
(S'MPI_Init()'
p110
S'27'
p111
tp112
a(S'MPI_Comm_rank()'
p113
S'30'
p114
tp115
a(S'MPI_Comm_size()'
p116
S'31'
p117
tp118
a(S'MPI_Get_library_version()'
p119
S'36'
p120
tp121
a(S'MPI_Finalize()'
p122
S'60'
p123
tp124
asS'tempi/src/internal/topology.cpp'
p125
(lp126
(S'MPI_Get_processor_name()'
p127
S'46'
p128
tp129
a(S'MPI_Allgather()'
p130
S'50'
p131
tp132
a(S'X_MPI_MAX_PROCESSOR_NAME()'
p133
S'51'
p134
tp135
asS'tempi/src/internal/types.cpp'
p136
(lp137
(S'MPI_Type_get_envelope()'
p138
S'50'
p139
tp140
a(S'MPI_Type_get_contents()'
p141
S'63'
p142
tp143
a(S'MPI_Type_vector()'
p144
S'68'
p145
tp146
a(S'MPI_Type_get_extent()'
p147
S'80'
p148
tp149
a(S'MPI_Type_size()'
p150
S'82'
p151
tp152
a(S'MPI_Type_get_extent()'
p153
S'83'
p154
tp155
a(S'MPI_Type_size()'
p156
S'84'
p157
tp158
a(S'MPI_Type_get_contents()'
p159
S'120'
p160
tp161
a(S'MPI_Type_vector()'
p162
S'125'
p163
tp164
a(S'MPI_Type_get_extent()'
p165
S'138'
p166
tp167
a(S'MPI_Type_size()'
p168
S'140'
p169
tp170
a(S'MPI_Type_get_extent()'
p171
S'141'
p172
tp173
a(S'MPI_Type_size()'
p174
S'142'
p175
tp176
a(S'MPI_Type_get_extent()'
p177
S'175'
p178
tp179
a(S'MPI_Type_get_contents()'
p180
S'197'
p181
tp182
a(S'MPI_Type_contiguous()'
p183
S'202'
p184
tp185
a(S'MPI_Type_get_extent()'
p186
S'211'
p187
tp188
a(S'MPI_Type_get_extent()'
p189
S'217'
p190
tp191
a(S'MPI_Type_size()'
p192
S'218'
p193
tp194
a(S'MPI_Type_get_contents()'
p195
S'239'
p196
tp197
a(S'MPI_Type_create_subarray()'
p198
S'246'
p199
tp200
a(S'MPI_Type_get_extent()'
p201
S'265'
p202
tp203
a(S'MPI_Type_size()'
p204
S'266'
p205
tp206
a(S'MPI_Type_get_extent()'
p207
S'303'
p208
tp209
asS'tempi/src/internal/tags.cpp'
p210
(lp211
(S'MPI_Comm_get_attr()'
p212
S'20'
p213
tp214
asS'tempi/test/sender.cpp'
p215
(lp216
(S'MPI_Init()'
p217
S'16'
p218
tp219
a(S'MPI_Comm_rank()'
p220
S'19'
p221
tp222
a(S'MPI_Comm_size()'
p223
S'20'
p224
tp225
a(S'MPI_Type_commit()'
p226
S'34'
p227
tp228
a(S'MPI_Send()'
p229
S'39'
p230
tp231
a(S'MPI_Recv()'
p232
S'41'
p233
tp234
a(S'MPI_Barrier()'
p235
S'43'
p236
tp237
a(S'MPI_Send()'
p238
S'48'
p239
tp240
a(S'MPI_Recv()'
p241
S'50'
p242
tp243
a(S'MPI_Barrier()'
p244
S'52'
p245
tp246
a(S'MPI_Finalize()'
p247
S'60'
p248
tp249
asS'tempi/bin/bench_halo_exchange.cpp'
p250
(lp251
(S'MPI_Finalize()'
p252
S'38'
p253
tp254
a(S'MPI_Comm_rank()'
p255
S'98'
p256
tp257
a(S'MPI_Type_create_subarray()'
p258
S'164'
p259
tp260
a(S'MPI_Comm_rank()'
p261
S'206'
p262
tp263
a(S'MPI_Comm_size()'
p264
S'207'
p265
tp266
a(S'MPI_Barrier()'
p267
S'276'
p268
tp269
a(S'MPI_Barrier()'
p270
S'347'
p271
tp272
a(S'MPI_Dist_graph_create_adjacent()'
p273
S'350'
p274
tp275
a(S'MPI_Wtime()'
p276
S'353'
p277
tp278
a(S'MPI_Allreduce()'
p279
S'355'
p280
tp281
a(S'MPI_Comm_rank()'
p282
S'360'
p283
tp284
a(S'MPI_Type_commit()'
p285
S'393'
p286
tp287
a(S'MPI_Type_commit()'
p288
S'396'
p289
tp290
a(S'MPI_Type_size()'
p291
S'401'
p292
tp293
a(S'MPI_Type_size()'
p294
S'402'
p295
tp296
a(S'MPI_Barrier()'
p297
S'415'
p298
tp299
a(S'MPI_Dist_graph_neighbors()'
p300
S'431'
p301
tp302
a(S'MPI_Barrier()'
p303
S'438'
p304
tp305
a(S'MPI_Type_size()'
p306
S'444'
p307
tp308
a(S'MPI_Barrier()'
p309
S'457'
p310
tp311
a(S'MPI_Type_get_extent()'
p312
S'463'
p313
tp314
a(S'MPI_Pack_size()'
p315
S'481'
p316
tp317
a(S'MPI_Pack_size()'
p318
S'514'
p319
tp320
a(S'MPI_Barrier()'
p321
S'558'
p322
tp323
a(S'MPI_Barrier()'
p324
S'565'
p325
tp326
a(S'MPI_Pack()'
p327
S'576'
p328
tp329
a(S'MPI_Barrier()'
p330
S'585'
p331
tp332
a(S'MPI_Neighbor_alltoallv()'
p333
S'591'
p334
tp335
a(S'X_MPI_PACKED()'
p336
S'592'
p337
tp338
a(S'MPI_Barrier()'
p339
S'598'
p340
tp341
a(S'MPI_Pack_size()'
p342
S'611'
p343
tp344
a(S'MPI_Unpack()'
p345
S'619'
p346
tp347
a(S'MPI_Allreduce()'
p348
S'629'
p349
tp350
a(S'MPI_Allreduce()'
p351
S'631'
p352
tp353
a(S'MPI_Allreduce()'
p354
S'633'
p355
tp356
a(S'MPI_Comm_free()'
p357
S'641'
p358
tp359
a(S'MPI_Comm_rank()'
p360
S'672'
p361
tp362
a(S'MPI_Comm_size()'
p363
S'673'
p364
tp365
a(S'MPI_Barrier()'
p366
S'742'
p367
tp368
a(S'MPI_Type_commit()'
p369
S'782'
p370
tp371
a(S'MPI_Type_commit()'
p372
S'785'
p373
tp374
a(S'MPI_Type_size()'
p375
S'790'
p376
tp377
a(S'MPI_Type_size()'
p378
S'791'
p379
tp380
a(S'MPI_Barrier()'
p381
S'804'
p382
tp383
a(S'MPI_Barrier()'
p384
S'819'
p385
tp386
a(S'MPI_Type_size()'
p387
S'825'
p388
tp389
a(S'MPI_Barrier()'
p390
S'838'
p391
tp392
a(S'MPI_Type_get_extent()'
p393
S'844'
p394
tp395
a(S'MPI_Barrier()'
p396
S'861'
p397
tp398
a(S'MPI_Type_size()'
p399
S'882'
p400
tp401
a(S'MPI_Isend()'
p402
S'888'
p403
tp404
a(S'MPI_Type_size()'
p405
S'910'
p406
tp407
a(S'MPI_Irecv()'
p408
S'916'
p409
tp410
a(S'MPI_Wait()'
p411
S'928'
p412
tp413
a(S'MPI_Allreduce()'
p414
S'935'
p415
tp416
a(S'MPI_Init()'
p417
S'952'
p418
tp419
a(S'MPI_Comm_rank()'
p420
S'974'
p421
tp422
a(S'MPI_Comm_size()'
p423
S'975'
p424
tp425
a(S'MPI_Reduce()'
p426
S'996'
p427
tp428
a(S'MPI_Reduce()'
p429
S'997'
p430
tp431
a(S'MPI_Reduce()'
p432
S'998'
p433
tp434
a(S'MPI_Reduce()'
p435
S'999'
p436
tp437
a(S'MPI_Barrier()'
p438
S'1008'
p439
tp440
a(S'MPI_Finalize()'
p441
S'1010'
p442
tp443
asS'tempi/test/dist_graph_create_adjacent.cpp'
p444
(lp445
(S'MPI_Init()'
p446
S'18'
p447
tp448
a(S'MPI_Comm_rank()'
p449
S'21'
p450
tp451
a(S'MPI_Comm_size()'
p452
S'22'
p453
tp454
a(S'MPI_Dist_graph_create_adjacent()'
p455
S'48'
p456
tp457
a(S'X_MPI_INFO_NULL()'
p458
S'51'
p459
tp460
a(S'MPI_Comm_free()'
p461
S'53'
p462
tp463
a(S'MPI_Finalize()'
p464
S'55'
p465
tp466
asS'tempi/test/numeric.cpp'
p467
(lp468
(S'MPI_Init()'
p469
S'11'
p470
tp471
a(S'MPI_Comm_rank()'
p472
S'13'
p473
tp474
a(S'MPI_Comm_size()'
p475
S'14'
p476
tp477
a(S'MPI_Finalize()'
p478
S'36'
p479
tp480
asS'tempi/bin/bench_pack.cpp'
p481
(lp482
(S'MPI_Type_commit()'
p483
S'34'
p484
tp485
a(S'MPI_Type_get_extent()'
p486
S'38'
p487
tp488
a(S'MPI_Type_size()'
p489
S'40'
p490
tp491
a(S'MPI_Pack_size()'
p492
S'42'
p493
tp494
a(S'MPI_Barrier()'
p495
S'63'
p496
tp497
a(S'MPI_Wtime()'
p498
S'70'
p499
tp500
a(S'MPI_Wtime()'
p501
S'72'
p502
tp503
a(S'MPI_Init()'
p504
S'106'
p505
tp506
a(S'MPI_Comm_rank()'
p507
S'110'
p508
tp509
a(S'MPI_Comm_size()'
p510
S'111'
p511
tp512
a(S'MPI_Type_free()'
p513
S'161'
p514
tp515
a(S'MPI_Type_free()'
p516
S'192'
p517
tp518
a(S'MPI_Type_free()'
p519
S'223'
p520
tp521
a(S'MPI_Type_free()'
p522
S'254'
p523
tp524
a(S'MPI_Finalize()'
p525
S'263'
p526
tp527
asS'tempi/test/send.cpp'
p528
(lp529
(S'MPI_Init()'
p530
S'15'
p531
tp532
a(S'MPI_Comm_rank()'
p533
S'18'
p534
tp535
a(S'MPI_Comm_size()'
p536
S'19'
p537
tp538
a(S'MPI_Barrier()'
p539
S'41'
p540
tp541
a(S'MPI_Send()'
p542
S'46'
p543
tp544
a(S'MPI_Recv()'
p545
S'48'
p546
tp547
a(S'MPI_Barrier()'
p548
S'51'
p549
tp550
a(S'MPI_Send()'
p551
S'56'
p552
tp553
a(S'MPI_Recv()'
p554
S'58'
p555
tp556
a(S'MPI_Barrier()'
p557
S'61'
p558
tp559
a(S'MPI_Send()'
p560
S'66'
p561
tp562
a(S'MPI_Recv()'
p563
S'69'
p564
tp565
a(S'MPI_Barrier()'
p566
S'73'
p567
tp568
a(S'MPI_Finalize()'
p569
S'84'
p570
tp571
asS'tempi/bin/benchmark.cpp'
p572
(lp573
(S'MPI_Comm_rank()'
p574
S'21'
p575
tp576
a(S'MPI_Comm_size()'
p577
S'22'
p578
tp579
a(S'MPI_Bcast()'
p580
S'37'
p581
tp582
a(S'MPI_Barrier()'
p583
S'64'
p584
tp585
asS'tempi/bin/bench_mpi_random_neighbor_alltoallv.cpp'
p586
(lp587
(S'MPI_Init()'
p588
S'27'
p589
tp590
a(S'MPI_Comm_rank()'
p591
S'30'
p592
tp593
a(S'MPI_Comm_size()'
p594
S'31'
p595
tp596
a(S'MPI_Get_library_version()'
p597
S'36'
p598
tp599
a(S'MPI_Finalize()'
p600
S'60'
p601
tp602
asS'tempi/test/pack_unpack.cpp'
p603
(lp604
(S'MPI_Type_commit()'
p605
S'21'
p606
tp607
a(S'MPI_Type_get_extent()'
p608
S'25'
p609
tp610
a(S'MPI_Pack_size()'
p611
S'34'
p612
tp613
a(S'MPI_Pack()'
p614
S'66'
p615
tp616
a(S'MPI_Pack()'
p617
S'78'
p618
tp619
a(S'MPI_Unpack()'
p620
S'109'
p621
tp622
a(S'MPI_Type_free()'
p623
S'125'
p624
tp625
a(S'MPI_Init()'
p626
S'129'
p627
tp628
a(S'MPI_Comm_rank()'
p629
S'132'
p630
tp631
a(S'MPI_Comm_size()'
p632
S'133'
p633
tp634
a(S'MPI_Finalize()'
p635
S'304'
p636
tp637
asS'tempi/test/isend_contiguous.cu'
p638
(lp639
(S'MPI_Init()'
p640
S'15'
p641
tp642
a(S'MPI_Comm_rank()'
p643
S'18'
p644
tp645
a(S'MPI_Comm_size()'
p646
S'19'
p647
tp648
a(S'MPI_Type_commit()'
p649
S'29'
p650
tp651
a(S'MPI_Isend()'
p652
S'40'
p653
tp654
a(S'MPI_Irecv()'
p655
S'41'
p656
tp657
a(S'MPI_Wait()'
p658
S'42'
p659
tp660
a(S'MPI_Wait()'
p661
S'43'
p662
tp663
a(S'MPI_Isend()'
p664
S'48'
p665
tp666
a(S'MPI_Irecv()'
p667
S'49'
p668
tp669
a(S'MPI_Wait()'
p670
S'50'
p671
tp672
a(S'MPI_Wait()'
p673
S'51'
p674
tp675
a(S'MPI_Isend()'
p676
S'57'
p677
tp678
a(S'MPI_Irecv()'
p679
S'58'
p680
tp681
a(S'MPI_Wait()'
p682
S'59'
p683
tp684
a(S'MPI_Wait()'
p685
S'60'
p686
tp687
a(S'MPI_Isend()'
p688
S'68'
p689
tp690
a(S'MPI_Irecv()'
p691
S'69'
p692
tp693
a(S'MPI_Wait()'
p694
S'70'
p695
tp696
a(S'MPI_Wait()'
p697
S'71'
p698
tp699
a(S'MPI_Finalize()'
p700
S'76'
p701
tp702
asS'tempi/src/init.cpp'
p703
(lp704
(S'MPI_Query_thread()'
p705
S'39'
p706
tp707
asS'tempi/bin/bench_mpi_random_alltoallv.cpp'
p708
(lp709
(S'MPI_Init()'
p710
S'27'
p711
tp712
a(S'MPI_Comm_rank()'
p713
S'30'
p714
tp715
a(S'MPI_Comm_size()'
p716
S'31'
p717
tp718
a(S'MPI_Get_library_version()'
p719
S'36'
p720
tp721
a(S'MPI_Finalize()'
p722
S'60'
p723
tp724
asS'tempi/bin/bench_mpi_isend.cpp'
p725
(lp726
(S'MPI_Comm_rank()'
p727
S'33'
p728
tp729
a(S'MPI_Isend()'
p730
S'55'
p731
tp732
a(S'MPI_Waitall()'
p733
S'57'
p734
tp735
a(S'MPI_Irecv()'
p736
S'59'
p737
tp738
a(S'MPI_Waitall()'
p739
S'61'
p740
tp741
a(S'MPI_Irecv()'
p742
S'64'
p743
tp744
a(S'MPI_Waitall()'
p745
S'66'
p746
tp747
a(S'MPI_Isend()'
p748
S'68'
p749
tp750
a(S'MPI_Waitall()'
p751
S'70'
p752
tp753
a(S'MPI_Init()'
p754
S'89'
p755
tp756
a(S'MPI_Comm_rank()'
p757
S'93'
p758
tp759
a(S'MPI_Comm_size()'
p760
S'94'
p761
tp762
a(S'MPI_Finalize()'
p763
S'153'
p764
tp765
asS'tempi/bin/bench_alltoallv_random_sparse.cpp'
p766
(lp767
(S'MPI_Comm_rank()'
p768
S'41'
p769
tp770
a(S'MPI_Comm_size()'
p771
S'42'
p772
tp773
a(S'MPI_Comm_rank()'
p774
S'59'
p775
tp776
a(S'MPI_Comm_size()'
p777
S'60'
p778
tp779
a(S'MPI_Comm_rank()'
p780
S'104'
p781
tp782
a(S'MPI_Comm_size()'
p783
S'105'
p784
tp785
a(S'MPI_Barrier()'
p786
S'143'
p787
tp788
a(S'MPI_Alltoallv()'
p789
S'145'
p790
tp791
a(S'MPI_Allreduce()'
p792
S'150'
p793
tp794
a(S'MPI_Init()'
p795
S'163'
p796
tp797
a(S'MPI_Comm_rank()'
p798
S'166'
p799
tp800
a(S'MPI_Comm_size()'
p801
S'167'
p802
tp803
a(S'MPI_Get_library_version()'
p804
S'173'
p805
tp806
a(S'MPI_Finalize()'
p807
S'220'
p808
tp809
asS'tempi/support/type.cpp'
p810
(lp811
(S'MPI_Type_vector()'
p812
S'16'
p813
tp814
a(S'MPI_Type_create_hvector()'
p815
S'22'
p816
tp817
a(S'MPI_Type_create_hvector()'
p818
S'28'
p819
tp820
a(S'MPI_Type_vector()'
p821
S'49'
p822
tp823
a(S'MPI_Type_create_hvector()'
p824
S'55'
p825
tp826
a(S'MPI_Type_create_hvector()'
p827
S'61'
p828
tp829
a(S'MPI_Type_vector()'
p830
S'78'
p831
tp832
a(S'MPI_Type_create_hvector()'
p833
S'84'
p834
tp835
a(S'MPI_Type_vector()'
p836
S'101'
p837
tp838
a(S'MPI_Type_create_hvector()'
p839
S'107'
p840
tp841
a(S'MPI_Type_create_hindexed()'
p842
S'133'
p843
tp844
a(S'MPI_Type_create_hindexed_block()'
p845
S'153'
p846
tp847
a(S'MPI_Type_create_subarray()'
p848
S'167'
p849
tp850
a(S'MPI_Type_create_subarray()'
p851
S'182'
p852
tp853
a(S'MPI_Type_vector()'
p854
S'193'
p855
tp856
a(S'MPI_Type_create_subarray()'
p857
S'208'
p858
tp859
a(S'MPI_Type_vector()'
p860
S'220'
p861
tp862
a(S'MPI_Type_create_hvector()'
p863
S'228'
p864
tp865
a(S'MPI_Type_create_subarray()'
p866
S'239'
p867
tp868
a(S'MPI_Type_contiguous()'
p869
S'253'
p870
tp871
a(S'MPI_Type_create_hvector()'
p872
S'254'
p873
tp874
a(S'MPI_Type_create_hvector()'
p875
S'255'
p876
tp877
a(S'MPI_Type_contiguous()'
p878
S'269'
p879
tp880
a(S'MPI_Type_create_hvector()'
p881
S'270'
p882
tp883
a(S'MPI_Type_create_hvector()'
p884
S'271'
p885
tp886
a(S'MPI_Type_vector()'
p887
S'284'
p888
tp889
a(S'MPI_Type_vector()'
p890
S'292'
p891
tp892
a(S'MPI_Type_create_subarray()'
p893
S'301'
p894
tp895
a(S'X_MPI_ORDER_C()'
p896
S'302'
p897
tp898
a(S'MPI_Type_contiguous()'
p899
S'308'
p900
tp901
asS'tempi/src/internal/neighbor_alltoallw.cpp'
p902
(lp903
(S'MPI_Dist_graph_neighbors_count()'
p904
S'36'
p905
tp906
a(S'MPI_Isend()'
p907
S'53'
p908
tp909
a(S'MPI_Irecv()'
p910
S'62'
p911
tp912
a(S'MPI_Wait()'
p913
S'69'
p914
tp915
a(S'MPI_Wait()'
p916
S'73'
p917
tp918
a(S'MPI_Comm_rank()'
p919
S'92'
p920
tp921
a(S'MPI_Comm_size()'
p922
S'93'
p923
tp924
a(S'MPI_Dist_graph_neighbors_count()'
p925
S'99'
p926
tp927
asS'tempi/include/logging.hpp'
p928
(lp929
(S'MPI_Initialized()'
p930
S'19'
p931
tp932
a(S'MPI_Comm_rank()'
p933
S'22'
p934
tp935
a(S'MPI_Finalize()'
p936
S'74'
p937
tp938
asS'tempi/test/isend.cu'
p939
(lp940
(S'MPI_Init()'
p941
S'14'
p942
tp943
a(S'MPI_Comm_rank()'
p944
S'17'
p945
tp946
a(S'MPI_Comm_size()'
p947
S'18'
p948
tp949
a(S'MPI_Isend()'
p950
S'35'
p951
tp952
a(S'MPI_Irecv()'
p953
S'36'
p954
tp955
a(S'MPI_Wait()'
p956
S'37'
p957
tp958
a(S'MPI_Wait()'
p959
S'38'
p960
tp961
a(S'MPI_Isend()'
p962
S'43'
p963
tp964
a(S'MPI_Irecv()'
p965
S'44'
p966
tp967
a(S'MPI_Wait()'
p968
S'45'
p969
tp970
a(S'MPI_Wait()'
p971
S'46'
p972
tp973
a(S'MPI_Isend()'
p974
S'53'
p975
tp976
a(S'MPI_Irecv()'
p977
S'54'
p978
tp979
a(S'MPI_Wait()'
p980
S'55'
p981
tp982
a(S'MPI_Wait()'
p983
S'56'
p984
tp985
a(S'MPI_Finalize()'
p986
S'60'
p987
tp988
asS'tempi/src/dist_graph_create_adjacent.cpp'
p989
(lp990
(S'MPI_Comm_size()'
p991
S'27'
p992
tp993
a(S'MPI_Comm_rank()'
p994
S'28'
p995
tp996
a(S'MPI_Gather()'
p997
S'34'
p998
tp999
a(S'MPI_Gatherv()'
p1000
S'49'
p1001
tp1002
a(S'MPI_Dist_graph_create_adjacent()'
p1003
S'56'
p1004
tp1005
a(S'MPI_Comm_rank()'
p1006
S'86'
p1007
tp1008
a(S'MPI_Gather()'
p1009
S'127'
p1010
tp1011
a(S'MPI_Finalize()'
p1012
S'339'
p1013
tp1014
a(S'MPI_Bcast()'
p1015
S'346'
p1016
tp1017
a(S'MPI_Barrier()'
p1018
S'352'
p1019
tp1020
a(S'MPI_Barrier()'
p1021
S'359'
p1022
tp1023
a(S'MPI_Barrier()'
p1024
S'376'
p1025
tp1026
a(S'MPI_Barrier()'
p1027
S'386'
p1028
tp1029
a(S'MPI_Sendrecv()'
p1030
S'407'
p1031
tp1032
a(S'MPI_Sendrecv()'
p1033
S'411'
p1034
tp1035
a(S'MPI_Sendrecv()'
p1036
S'418'
p1037
tp1038
a(S'MPI_Sendrecv()'
p1039
S'422'
p1040
tp1041
a(S'MPI_Sendrecv()'
p1042
S'425'
p1043
tp1044
a(S'MPI_Sendrecv()'
p1045
S'429'
p1046
tp1047
a(S'MPI_Barrier()'
p1048
S'446'
p1049
tp1050
a(S'MPI_Barrier()'
p1051
S'448'
p1052
tp1053
asS'tempi/bin/measure_system.cpp'
p1054
(lp1055
(S'MPI_Init()'
p1056
S'10'
p1057
tp1058
a(S'MPI_Comm_rank()'
p1059
S'13'
p1060
tp1061
a(S'MPI_Comm_size()'
p1062
S'14'
p1063
tp1064
a(S'MPI_Finalize()'
p1065
S'19'
p1066
tp1067
a(S'MPI_Barrier()'
p1068
S'33'
p1069
tp1070
a(S'MPI_Finalize()'
p1071
S'34'
p1072
tp1073
asS'tempi/src/internal/measure_system.cu'
p1074
(lp1075
(S'MPI_Comm_rank()'
p1076
S'190'
p1077
tp1078
a(S'MPI_Barrier()'
p1079
S'191'
p1080
tp1081
a(S'MPI_Allreduce()'
p1082
S'206'
p1083
tp1084
a(S'MPI_Comm_rank()'
p1085
S'230'
p1086
tp1087
a(S'MPI_Barrier()'
p1088
S'231'
p1089
tp1090
a(S'MPI_Allreduce()'
p1091
S'247'
p1092
tp1093
a(S'MPI_Comm_rank()'
p1094
S'386'
p1095
tp1096
a(S'MPI_Comm_size()'
p1097
S'387'
p1098
tp1099
a(S'MPI_Barrier()'
p1100
S'389'
p1101
tp1102
a(S'MPI_Barrier()'
p1103
S'401'
p1104
tp1105
a(S'MPI_Barrier()'
p1106
S'417'
p1107
tp1108
a(S'MPI_Barrier()'
p1109
S'433'
p1110
tp1111
a(S'MPI_Barrier()'
p1112
S'452'
p1113
tp1114
a(S'MPI_Barrier()'
p1115
S'472'
p1116
tp1117
a(S'MPI_Barrier()'
p1118
S'493'
p1119
tp1120
a(S'MPI_Barrier()'
p1121
S'514'
p1122
tp1123
a(S'MPI_Barrier()'
p1124
S'537'
p1125
tp1126
a(S'MPI_Barrier()'
p1127
S'561'
p1128
tp1129
a(S'MPI_Barrier()'
p1130
S'586'
p1131
tp1132
asS'tempi/src/internal/sender.cpp'
p1133
(lp1134
(S'MPI_Pack_size()'
p1135
S'103'
p1136
tp1137
a(S'MPI_Pack_size()'
p1138
S'116'
p1139
tp1140
a(S'MPI_Pack_size()'
p1141
S'155'
p1142
tp1143
a(S'MPI_Pack_size()'
p1144
S'168'
p1145
tp1146
a(S'MPI_Pack_size()'
p1147
S'209'
p1148
tp1149
a(S'MPI_Pack_size()'
p1150
S'226'
p1151
tp1152
a(S'MPI_Pack_size()'
p1153
S'256'
p1154
tp1155
a(S'MPI_Pack_size()'
p1156
S'297'
p1157
tp1158
asS'tempi/src/internal/async_operation.cpp'
p1159
(lp1160
(S'MPI_Pack_size()'
p1161
S'338'
p1162
tp1163
a(S'MPI_Pack_size()'
p1164
S'395'
p1165
tp1166
asS'tempi/test/partition_kahip_process_mapping.cpp'
p1167
(lp1168
(S'MPI_Init()'
p1169
S'41'
p1170
tp1171
a(S'MPI_Finalize()'
p1172
S'85'
p1173
tp1174
asS'tempi/src/internal/alltoallv_impl.cpp'
p1175
(lp1176
(S'MPI_Comm_size()'
p1177
S'26'
p1178
tp1179
a(S'MPI_Isend()'
p1180
S'35'
p1181
tp1182
a(S'MPI_Isend()'
p1183
S'41'
p1184
tp1185
a(S'MPI_Comm_size()'
p1186
S'72'
p1187
tp1188
a(S'MPI_Comm_size()'
p1189
S'102'
p1190
tp1191
a(S'MPI_Isend()'
p1192
S'121'
p1193
tp1194
a(S'MPI_Comm_size()'
p1195
S'163'
p1196
tp1197
a(S'MPI_Isend()'
p1198
S'203'
p1199
tp1200
a(S'MPI_Isend()'
p1201
S'210'
p1202
tp1203
asS'tempi/test/measure_system.cpp'
p1204
(lp1205
(S'MPI_Init()'
p1206
S'11'
p1207
tp1208
a(S'MPI_Finalize()'
p1209
S'94'
p1210
tp1211
asS'tempi/src/internal/counters.cpp'
p1212
(lp1213
(S'MPI_Comm_rank()'
p1214
S'34'
p1215
tp1216
a(S'MPI_Comm_size()'
p1217
S'35'
p1218
tp1219
a(S'MPI_Barrier()'
p1220
S'117'
p1221
tp1222
asS'tempi/bin/bench_mpi_random_sparse_isend_irecv.cpp'
p1223
(lp1224
(S'MPI_Init()'
p1225
S'27'
p1226
tp1227
a(S'MPI_Comm_rank()'
p1228
S'30'
p1229
tp1230
a(S'MPI_Comm_size()'
p1231
S'31'
p1232
tp1233
a(S'MPI_Get_library_version()'
p1234
S'36'
p1235
tp1236
a(S'MPI_Finalize()'
p1237
S'60'
p1238
tp1239
asS'tempi/bin/bench_mpi_pattern_permblockdiagonal.cpp'
p1240
(lp1241
(S'MPI_Init()'
p1242
S'26'
p1243
tp1244
a(S'MPI_Comm_rank()'
p1245
S'29'
p1246
tp1247
a(S'MPI_Comm_size()'
p1248
S'30'
p1249
tp1250
a(S'MPI_Get_library_version()'
p1251
S'35'
p1252
tp1253
a(S'MPI_Barrier()'
p1254
S'46'
p1255
tp1256
a(S'MPI_Bcast()'
p1257
S'76'
p1258
tp1259
a(S'MPI_Barrier()'
p1260
S'103'
p1261
tp1262
a(S'MPI_Finalize()'
p1263
S'111'
p1264
tp1265
asS'tempi/test/type_commit.cpp'
p1266
(lp1267
(S'MPI_Init()'
p1268
S'14'
p1269
tp1270
a(S'MPI_Comm_rank()'
p1271
S'17'
p1272
tp1273
a(S'MPI_Comm_size()'
p1274
S'18'
p1275
tp1276
a(S'MPI_Type_commit()'
p1277
S'27'
p1278
tp1279
a(S'MPI_Type_commit()'
p1280
S'33'
p1281
tp1282
a(S'MPI_Type_commit()'
p1283
S'44'
p1284
tp1285
a(S'MPI_Type_commit()'
p1286
S'50'
p1287
tp1288
a(S'MPI_Type_commit()'
p1289
S'56'
p1290
tp1291
a(S'MPI_Type_commit()'
p1292
S'62'
p1293
tp1294
a(S'MPI_Type_commit()'
p1295
S'68'
p1296
tp1297
a(S'MPI_Type_commit()'
p1298
S'74'
p1299
tp1300
a(S'MPI_Type_commit()'
p1301
S'80'
p1302
tp1303
a(S'MPI_Type_commit()'
p1304
S'88'
p1305
tp1306
a(S'MPI_Type_commit()'
p1307
S'94'
p1308
tp1309
a(S'MPI_Type_commit()'
p1310
S'100'
p1311
tp1312
a(S'MPI_Finalize()'
p1313
S'103'
p1314
tp1315
asS'tempi/bin/bench_mpi_pingpong_1d.cpp'
p1316
(lp1317
(S'MPI_Type_commit()'
p1318
S'37'
p1319
tp1320
a(S'MPI_Comm_rank()'
p1321
S'41'
p1322
tp1323
a(S'MPI_Comm_size()'
p1324
S'42'
p1325
tp1326
a(S'MPI_Type_get_extent()'
p1327
S'44'
p1328
tp1329
a(S'MPI_Type_size()'
p1330
S'46'
p1331
tp1332
a(S'MPI_Barrier()'
p1333
S'64'
p1334
tp1335
a(S'MPI_Send()'
p1336
S'67'
p1337
tp1338
a(S'MPI_Recv()'
p1339
S'68'
p1340
tp1341
a(S'MPI_Recv()'
p1342
S'72'
p1343
tp1344
a(S'MPI_Send()'
p1345
S'74'
p1346
tp1347
a(S'MPI_Allreduce()'
p1348
S'80'
p1349
tp1350
a(S'MPI_Type_free()'
p1351
S'94'
p1352
tp1353
a(S'MPI_Init()'
p1354
S'109'
p1355
tp1356
a(S'MPI_Comm_rank()'
p1357
S'113'
p1358
tp1359
a(S'MPI_Comm_size()'
p1360
S'114'
p1361
tp1362
a(S'MPI_Finalize()'
p1363
S'168'
p1364
tp1365
asS'tempi/bin/bench_nbr_alltoallv_random_sparse.cpp'
p1366
(lp1367
(S'MPI_Comm_rank()'
p1368
S'43'
p1369
tp1370
a(S'MPI_Comm_size()'
p1371
S'44'
p1372
tp1373
a(S'MPI_Comm_rank()'
p1374
S'61'
p1375
tp1376
a(S'MPI_Comm_size()'
p1377
S'62'
p1378
tp1379
a(S'MPI_Comm_rank()'
p1380
S'105'
p1381
tp1382
a(S'MPI_Comm_size()'
p1383
S'106'
p1384
tp1385
a(S'MPI_Barrier()'
p1386
S'132'
p1387
tp1388
a(S'MPI_Barrier()'
p1389
S'144'
p1390
tp1391
a(S'MPI_Barrier()'
p1392
S'158'
p1393
tp1394
a(S'MPI_Barrier()'
p1395
S'160'
p1396
tp1397
a(S'MPI_Barrier()'
p1398
S'172'
p1399
tp1400
a(S'MPI_Barrier()'
p1401
S'176'
p1402
tp1403
a(S'MPI_Dist_graph_create_adjacent()'
p1404
S'179'
p1405
tp1406
a(S'X_MPI_COMM_WORLD()'
p1407
S'180'
p1408
tp1409
a(S'X_MPI_INFO_NULL()'
p1410
S'182'
p1411
tp1412
a(S'MPI_Barrier()'
p1413
S'185'
p1414
tp1415
a(S'MPI_Comm_rank()'
p1416
S'192'
p1417
tp1418
a(S'MPI_Comm_size()'
p1419
S'193'
p1420
tp1421
a(S'MPI_Dist_graph_neighbors()'
p1422
S'211'
p1423
tp1424
a(S'MPI_Barrier()'
p1425
S'222'
p1426
tp1427
a(S'MPI_Barrier()'
p1428
S'226'
p1429
tp1430
a(S'MPI_Barrier()'
p1431
S'244'
p1432
tp1433
a(S'MPI_Barrier()'
p1434
S'246'
p1435
tp1436
a(S'MPI_Barrier()'
p1437
S'251'
p1438
tp1439
a(S'MPI_Barrier()'
p1440
S'253'
p1441
tp1442
a(S'MPI_Barrier()'
p1443
S'290'
p1444
tp1445
a(S'MPI_Barrier()'
p1446
S'294'
p1447
tp1448
a(S'MPI_Barrier()'
p1449
S'302'
p1450
tp1451
a(S'MPI_Neighbor_alltoallv()'
p1452
S'308'
p1453
tp1454
a(S'MPI_Allreduce()'
p1455
S'316'
p1456
tp1457
a(S'MPI_Init()'
p1458
S'330'
p1459
tp1460
a(S'MPI_Comm_rank()'
p1461
S'333'
p1462
tp1463
a(S'MPI_Comm_size()'
p1464
S'334'
p1465
tp1466
a(S'MPI_Get_library_version()'
p1467
S'340'
p1468
tp1469
a(S'MPI_Finalize()'
p1470
S'387'
p1471
tp1472
asS'tempi/test/type_equivalence.cpp'
p1473
(lp1474
(S'MPI_Init()'
p1475
S'21'
p1476
tp1477
a(S'MPI_Comm_rank()'
p1478
S'24'
p1479
tp1480
a(S'MPI_Comm_size()'
p1481
S'25'
p1482
tp1483
a(S'MPI_Type_commit()'
p1484
S'43'
p1485
tp1486
a(S'MPI_Type_size()'
p1487
S'51'
p1488
tp1489
a(S'MPI_Type_get_extent()'
p1490
S'52'
p1491
tp1492
a(S'MPI_Type_size()'
p1493
S'56'
p1494
tp1495
a(S'MPI_Type_get_extent()'
p1496
S'57'
p1497
tp1498
a(S'MPI_Type_commit()'
p1499
S'82'
p1500
tp1501
a(S'MPI_Type_commit()'
p1502
S'88'
p1503
tp1504
a(S'MPI_Type_commit()'
p1505
S'94'
p1506
tp1507
a(S'MPI_Type_commit()'
p1508
S'100'
p1509
tp1510
a(S'MPI_Type_commit()'
p1511
S'106'
p1512
tp1513
a(S'MPI_Type_size()'
p1514
S'113'
p1515
tp1516
a(S'MPI_Type_size()'
p1517
S'116'
p1518
tp1519
a(S'MPI_Type_get_extent()'
p1520
S'123'
p1521
tp1522
a(S'MPI_Type_get_extent()'
p1523
S'127'
p1524
tp1525
a(S'MPI_Pack_size()'
p1526
S'137'
p1527
tp1528
a(S'MPI_Pack()'
p1529
S'143'
p1530
tp1531
a(S'MPI_Pack()'
p1532
S'151'
p1533
tp1534
a(S'MPI_Type_commit()'
p1535
S'169'
p1536
tp1537
a(S'MPI_Type_size()'
p1538
S'171'
p1539
tp1540
a(S'MPI_Type_commit()'
p1541
S'179'
p1542
tp1543
a(S'MPI_Type_commit()'
p1544
S'180'
p1545
tp1546
a(S'MPI_Type_size()'
p1547
S'184'
p1548
tp1549
a(S'MPI_Type_size()'
p1550
S'186'
p1551
tp1552
a(S'MPI_Type_get_extent()'
p1553
S'192'
p1554
tp1555
a(S'MPI_Type_get_extent()'
p1556
S'194'
p1557
tp1558
a(S'MPI_Type_free()'
p1559
S'198'
p1560
tp1561
a(S'MPI_Type_free()'
p1562
S'199'
p1563
tp1564
a(S'MPI_Finalize()'
p1565
S'202'
p1566
tp1567
asS'tempi/test/partition_kahip.cpp'
p1568
(lp1569
(S'MPI_Init()'
p1570
S'33'
p1571
tp1572
a(S'MPI_Finalize()'
p1573
S'57'
p1574
tp1575
asS'tempi/test/init_finalize.cpp'
p1576
(lp1577
(S'MPI_Init()'
p1578
S'10'
p1579
tp1580
a(S'MPI_Finalize()'
p1581
S'11'
p1582
tp1583
asS'tempi/bin/bench_mpi_ireduce.cpp'
p1584
(lp1585
(S'MPI_Comm_rank()'
p1586
S'34'
p1587
tp1588
a(S'MPI_Ireduce()'
p1589
S'108'
p1590
tp1591
a(S'X_MPI_COMM_WORLD()'
p1592
S'109'
p1593
tp1594
a(S'MPI_Iallreduce()'
p1595
S'111'
p1596
tp1597
a(S'X_MPI_COMM_WORLD()'
p1598
S'112'
p1599
tp1600
a(S'MPI_Iscan()'
p1601
S'114'
p1602
tp1603
a(S'X_MPI_COMM_WORLD()'
p1604
S'115'
p1605
tp1606
a(S'MPI_Waitall()'
p1607
S'119'
p1608
tp1609
a(S'MPI_Init()'
p1610
S'138'
p1611
tp1612
a(S'MPI_Comm_rank()'
p1613
S'142'
p1614
tp1615
a(S'MPI_Comm_size()'
p1616
S'143'
p1617
tp1618
a(S'MPI_Finalize()'
p1619
S'148'
p1620
tp1621
a(S'MPI_Finalize()'
p1622
S'205'
p1623
tp1624
asS'tempi/bin/bench_mpi_pack.cpp'
p1625
(lp1626
(S'MPI_Type_commit()'
p1627
S'34'
p1628
tp1629
a(S'MPI_Comm_rank()'
p1630
S'37'
p1631
tp1632
a(S'MPI_Comm_size()'
p1633
S'38'
p1634
tp1635
a(S'MPI_Type_get_extent()'
p1636
S'40'
p1637
tp1638
a(S'MPI_Type_size()'
p1639
S'42'
p1640
tp1641
a(S'MPI_Pack_size()'
p1642
S'44'
p1643
tp1644
a(S'MPI_Barrier()'
p1645
S'59'
p1646
tp1647
a(S'MPI_Pack()'
p1648
S'61'
p1649
tp1650
a(S'MPI_Wtime()'
p1651
S'66'
p1652
tp1653
a(S'MPI_Unpack()'
p1654
S'67'
p1655
tp1656
a(S'MPI_Wtime()'
p1657
S'68'
p1658
tp1659
a(S'MPI_Type_free()'
p1660
S'80'
p1661
tp1662
a(S'MPI_Init()'
p1663
S'104'
p1664
tp1665
a(S'MPI_Comm_rank()'
p1666
S'108'
p1667
tp1668
a(S'MPI_Comm_size()'
p1669
S'109'
p1670
tp1671
a(S'MPI_Finalize()'
p1672
S'184'
p1673
tp1674
a(S'MPI_Finalize()'
p1675
S'247'
p1676
tp1677
asS'tempi/bin/bench_mpi_pingpong_nd.cpp'
p1678
(lp1679
(S'MPI_Type_commit()'
p1680
S'37'
p1681
tp1682
a(S'MPI_Comm_rank()'
p1683
S'41'
p1684
tp1685
a(S'MPI_Comm_size()'
p1686
S'42'
p1687
tp1688
a(S'MPI_Type_get_extent()'
p1689
S'44'
p1690
tp1691
a(S'MPI_Type_size()'
p1692
S'46'
p1693
tp1694
a(S'MPI_Barrier()'
p1695
S'64'
p1696
tp1697
a(S'MPI_Send()'
p1698
S'67'
p1699
tp1700
a(S'MPI_Recv()'
p1701
S'68'
p1702
tp1703
a(S'MPI_Recv()'
p1704
S'72'
p1705
tp1706
a(S'MPI_Send()'
p1707
S'74'
p1708
tp1709
a(S'MPI_Allreduce()'
p1710
S'80'
p1711
tp1712
a(S'MPI_Type_free()'
p1713
S'94'
p1714
tp1715
a(S'MPI_Init()'
p1716
S'114'
p1717
tp1718
a(S'MPI_Comm_rank()'
p1719
S'118'
p1720
tp1721
a(S'MPI_Comm_size()'
p1722
S'119'
p1723
tp1724
a(S'MPI_Finalize()'
p1725
S'204'
p1726
tp1727
asS'tempi/bin/method.cpp'
p1728
(lp1729
(S'MPI_Comm_rank()'
p1730
S'21'
p1731
tp1732
a(S'MPI_Comm_size()'
p1733
S'22'
p1734
tp1735
a(S'MPI_Barrier()'
p1736
S'63'
p1737
tp1738
a(S'MPI_Alltoallv()'
p1739
S'65'
p1740
tp1741
a(S'MPI_Allreduce()'
p1742
S'72'
p1743
tp1744
a(S'MPI_Comm_rank()'
p1745
S'88'
p1746
tp1747
a(S'MPI_Comm_size()'
p1748
S'89'
p1749
tp1750
a(S'MPI_Alltoallv()'
p1751
S'133'
p1752
tp1753
a(S'MPI_Barrier()'
p1754
S'142'
p1755
tp1756
a(S'MPI_Isend()'
p1757
S'146'
p1758
tp1759
a(S'X_MPI_COMM_WORLD()'
p1760
S'147'
p1761
tp1762
a(S'MPI_Irecv()'
p1763
S'150'
p1764
tp1765
a(S'X_MPI_COMM_WORLD()'
p1766
S'151'
p1767
tp1768
a(S'MPI_Waitall()'
p1769
S'153'
p1770
tp1771
a(S'MPI_Waitall()'
p1772
S'154'
p1773
tp1774
a(S'MPI_Allreduce()'
p1775
S'160'
p1776
tp1777
a(S'MPI_Comm_rank()'
p1778
S'192'
p1779
tp1780
a(S'MPI_Comm_size()'
p1781
S'193'
p1782
tp1783
a(S'MPI_Alltoallv()'
p1784
S'237'
p1785
tp1786
a(S'MPI_Barrier()'
p1787
S'246'
p1788
tp1789
a(S'MPI_Isend()'
p1790
S'251'
p1791
tp1792
a(S'X_MPI_COMM_WORLD()'
p1793
S'252'
p1794
tp1795
a(S'MPI_Irecv()'
p1796
S'256'
p1797
tp1798
a(S'X_MPI_COMM_WORLD()'
p1799
S'257'
p1800
tp1801
a(S'MPI_Waitall()'
p1802
S'259'
p1803
tp1804
a(S'MPI_Waitall()'
p1805
S'260'
p1806
tp1807
a(S'MPI_Allreduce()'
p1808
S'266'
p1809
tp1810
a(S'MPI_Comm_rank()'
p1811
S'301'
p1812
tp1813
a(S'MPI_Comm_size()'
p1814
S'302'
p1815
tp1816
a(S'MPI_Barrier()'
p1817
S'332'
p1818
tp1819
a(S'MPI_Barrier()'
p1820
S'344'
p1821
tp1822
a(S'MPI_Barrier()'
p1823
S'358'
p1824
tp1825
a(S'MPI_Barrier()'
p1826
S'360'
p1827
tp1828
a(S'MPI_Barrier()'
p1829
S'372'
p1830
tp1831
a(S'MPI_Barrier()'
p1832
S'376'
p1833
tp1834
a(S'MPI_Dist_graph_create_adjacent()'
p1835
S'379'
p1836
tp1837
a(S'X_MPI_COMM_WORLD()'
p1838
S'380'
p1839
tp1840
a(S'X_MPI_INFO_NULL()'
p1841
S'382'
p1842
tp1843
a(S'MPI_Barrier()'
p1844
S'386'
p1845
tp1846
a(S'MPI_Comm_rank()'
p1847
S'391'
p1848
tp1849
a(S'MPI_Comm_size()'
p1850
S'392'
p1851
tp1852
a(S'MPI_Dist_graph_neighbors()'
p1853
S'410'
p1854
tp1855
a(S'MPI_Barrier()'
p1856
S'421'
p1857
tp1858
a(S'MPI_Barrier()'
p1859
S'425'
p1860
tp1861
a(S'MPI_Barrier()'
p1862
S'443'
p1863
tp1864
a(S'MPI_Barrier()'
p1865
S'445'
p1866
tp1867
a(S'MPI_Barrier()'
p1868
S'450'
p1869
tp1870
a(S'MPI_Barrier()'
p1871
S'452'
p1872
tp1873
a(S'MPI_Barrier()'
p1874
S'489'
p1875
tp1876
a(S'MPI_Barrier()'
p1877
S'493'
p1878
tp1879
a(S'MPI_Barrier()'
p1880
S'502'
p1881
tp1882
a(S'MPI_Neighbor_alltoallv()'
p1883
S'507'
p1884
tp1885
a(S'MPI_Allreduce()'
p1886
S'517'
p1887
tp1888
asS'tempi/bin/bench_mpi_pattern_blockdiagonal.cpp'
p1889
(lp1890
(S'MPI_Init()'
p1891
S'27'
p1892
tp1893
a(S'MPI_Comm_rank()'
p1894
S'30'
p1895
tp1896
a(S'MPI_Comm_size()'
p1897
S'31'
p1898
tp1899
a(S'MPI_Get_library_version()'
p1900
S'36'
p1901
tp1902
a(S'MPI_Barrier()'
p1903
S'47'
p1904
tp1905
a(S'MPI_Bcast()'
p1906
S'66'
p1907
tp1908
a(S'MPI_Barrier()'
p1909
S'93'
p1910
tp1911
a(S'MPI_Finalize()'
p1912
S'101'
p1913
tp1914
as.