ccollections
defaultdict
p0
(c__builtin__
list
p1
tp2
Rp3
S'mpi-sv-src/Artifact-Benchmark/image-manip/image_mod_new.c'
p4
(lp5
(S'MPI_Comm_rank()'
p6
S'124'
p7
tp8
a(S'MPI_Comm_size()'
p9
S'125'
p10
tp11
a(S'MPI_Recv()'
p12
S'163'
p13
tp14
a(S'MPI_Send()'
p15
S'199'
p16
tp17
a(S'MPI_Comm_rank()'
p18
S'213'
p19
tp20
a(S'MPI_Comm_size()'
p21
S'214'
p22
tp23
a(S'MPI_Bcast()'
p24
S'243'
p25
tp26
a(S'MPI_Finalize()'
p27
S'359'
p28
tp29
asS'mpi-sv-src/Artifact-Benchmark/bitmap/mandel_bitmap.c'
p30
(lp31
(S'MPI_Comm_size()'
p32
S'169'
p33
tp34
a(S'MPI_Comm_rank()'
p35
S'170'
p36
tp37
a(S'MPI_Recv()'
p38
S'171'
p39
tp40
a(S'MPI_Send()'
p41
S'180'
p42
tp43
a(S'MPI_Recv()'
p44
S'182'
p45
tp46
a(S'MPI_Comm_rank()'
p47
S'192'
p48
tp49
a(S'MPI_Comm_size()'
p50
S'193'
p51
tp52
a(S'MPI_Send()'
p53
S'247'
p54
tp55
a(S'MPI_Wtime()'
p56
S'254'
p57
tp58
a(S'MPI_Recv()'
p59
S'257'
p60
tp61
a(S'MPI_Wtime()'
p62
S'258'
p63
tp64
a(S'MPI_Send()'
p65
S'264'
p66
tp67
a(S'MPI_Send()'
p68
S'268'
p69
tp70
a(S'MPI_Barrier()'
p71
S'285'
p72
tp73
a(S'MPI_Finalize()'
p74
S'286'
p75
tp76
asS'mpi-sv-src/Artifact-Benchmark/clustalw-mpi-0.13/pairalign_new.c'
p77
(lp78
(S'MPI_Comm_size()'
p79
S'165'
p80
tp81
a(S'MPI_Wtime()'
p82
S'167'
p83
tp84
a(S'MPI_Send()'
p85
S'279'
p86
tp87
a(S'MPI_Pack()'
p88
S'286'
p89
tp90
a(S'MPI_Pack()'
p91
S'287'
p92
tp93
a(S'MPI_Pack()'
p94
S'288'
p95
tp96
a(S'MPI_Pack()'
p97
S'289'
p98
tp99
a(S'MPI_Pack()'
p100
S'290'
p101
tp102
a(S'MPI_Pack()'
p103
S'292'
p104
tp105
a(S'MPI_Pack()'
p106
S'293'
p107
tp108
a(S'MPI_Pack()'
p109
S'294'
p110
tp111
a(S'MPI_Pack()'
p112
S'295'
p113
tp114
a(S'MPI_Pack()'
p115
S'296'
p116
tp117
a(S'MPI_Pack()'
p118
S'297'
p119
tp120
a(S'MPI_Pack()'
p121
S'298'
p122
tp123
a(S'MPI_Pack()'
p124
S'301'
p125
tp126
a(S'MPI_Pack()'
p127
S'303'
p128
tp129
a(S'MPI_Pack()'
p130
S'304'
p131
tp132
a(S'MPI_Pack()'
p133
S'305'
p134
tp135
a(S'MPI_Pack()'
p136
S'306'
p137
tp138
a(S'MPI_Pack()'
p139
S'307'
p140
tp141
a(S'MPI_Pack()'
p142
S'308'
p143
tp144
a(S'MPI_Pack()'
p145
S'310'
p146
tp147
a(S'MPI_Wtime()'
p148
S'314'
p149
tp150
a(S'MPI_Send()'
p151
S'317'
p152
tp153
a(S'MPI_Wtime()'
p154
S'321'
p155
tp156
a(S'MPI_Comm_size()'
p157
S'341'
p158
tp159
a(S'MPI_Send()'
p160
S'353'
p161
tp162
a(S'MPI_Recv()'
p163
S'360'
p164
tp165
a(S'MPI_Recv()'
p166
S'364'
p167
tp168
a(S'MPI_Unpack()'
p169
S'367'
p170
tp171
a(S'MPI_Unpack()'
p172
S'375'
p173
tp174
a(S'MPI_Unpack()'
p175
S'376'
p176
tp177
a(S'MPI_Unpack()'
p178
S'377'
p179
tp180
a(S'MPI_Send()'
p181
S'392'
p182
tp183
a(S'MPI_Recv()'
p184
S'401'
p185
tp186
a(S'MPI_Recv()'
p187
S'405'
p188
tp189
a(S'MPI_Unpack()'
p190
S'408'
p191
tp192
a(S'MPI_Unpack()'
p193
S'416'
p194
tp195
a(S'MPI_Unpack()'
p196
S'417'
p197
tp198
a(S'MPI_Unpack()'
p199
S'418'
p200
tp201
a(S'MPI_Send()'
p202
S'434'
p203
tp204
a(S'MPI_Recv()'
p205
S'446'
p206
tp207
a(S'MPI_Recv()'
p208
S'451'
p209
tp210
a(S'MPI_Unpack()'
p211
S'453'
p212
tp213
a(S'MPI_Unpack()'
p214
S'461'
p215
tp216
a(S'MPI_Unpack()'
p217
S'462'
p218
tp219
a(S'MPI_Unpack()'
p220
S'463'
p221
tp222
a(S'MPI_Wtime()'
p223
S'487'
p224
tp225
asS'mpi-sv-src/Artifact-Benchmark/gausselim/GE.c'
p226
(lp227
(S'MPI_Send()'
p228
S'37'
p229
tp230
a(S'MPI_Recv()'
p231
S'38'
p232
tp233
a(S'MPI_Recv()'
p234
S'42'
p235
tp236
a(S'MPI_Send()'
p237
S'46'
p238
tp239
a(S'MPI_Barrier()'
p240
S'54'
p241
tp242
a(S'MPI_Bcast()'
p243
S'55'
p244
tp245
a(S'MPI_Finalize()'
p246
S'58'
p247
tp248
a(S'MPI_Send()'
p249
S'205'
p250
tp251
a(S'MPI_Recv()'
p252
S'211'
p253
tp254
a(S'MPI_Barrier()'
p255
S'246'
p256
tp257
a(S'MPI_Init()'
p258
S'264'
p259
tp260
a(S'MPI_Comm_rank()'
p261
S'265'
p262
tp263
a(S'MPI_Comm_size()'
p264
S'266'
p265
tp266
a(S'MPI_Barrier()'
p267
S'307'
p268
tp269
a(S'MPI_Barrier()'
p270
S'311'
p271
tp272
a(S'MPI_Barrier()'
p273
S'317'
p274
tp275
a(S'MPI_Barrier()'
p276
S'322'
p277
tp278
a(S'MPI_Finalize()'
p279
S'340'
p280
tp281
asS'mpi-sv-src/Artifact-Benchmark/Master-Slave/workload-balancer-master/static_mpi.c'
p282
(lp283
(S'MPI_Init()'
p284
S'48'
p285
tp286
a(S'MPI_Comm_rank()'
p287
S'50'
p288
tp289
a(S'MPI_Comm_size()'
p290
S'51'
p291
tp292
a(S'MPI_Wtime()'
p293
S'55'
p294
tp295
a(S'MPI_Scatter()'
p296
S'85'
p297
tp298
a(S'MPI_Scatterv()'
p299
S'92'
p300
tp301
a(S'MPI_Send()'
p302
S'106'
p303
tp304
a(S'MPI_Recv()'
p305
S'116'
p306
tp307
a(S'MPI_Wtime()'
p308
S'142'
p309
tp310
a(S'MPI_Finalize()'
p311
S'149'
p312
tp313
a(S'MPI_Wtime()'
p314
S'158'
p315
tp316
a(S'MPI_Wtime()'
p317
S'160'
p318
tp319
a(S'MPI_Type_create_struct()'
p320
S'240'
p321
tp322
a(S'MPI_Type_commit()'
p323
S'241'
p324
tp325
asS'mpi-sv-src/Artifact-Benchmark/clustalw-mpi-0.13/clustalw-mpi.c'
p326
(lp327
(S'MPI_Init()'
p328
S'80'
p329
tp330
a(S'MPI_Comm_rank()'
p331
S'81'
p332
tp333
a(S'MPI_Comm_size()'
p334
S'82'
p335
tp336
asS'mpi-sv-src/Artifact-Benchmark/Master-Slave/mpi_master_slave.c'
p337
(lp338
(S'MPI_Init()'
p339
S'37'
p340
tp341
a(S'MPI_Comm_rank()'
p342
S'38'
p343
tp344
a(S'MPI_Finalize()'
p345
S'45'
p346
tp347
a(S'MPI_Comm_size()'
p348
S'62'
p349
tp350
a(S'MPI_Send()'
p351
S'82'
p352
tp353
a(S'MPI_Send()'
p354
S'90'
p355
tp356
a(S'MPI_Recv()'
p357
S'96'
p358
tp359
a(S'MPI_Recv()'
p360
S'114'
p361
tp362
a(S'MPI_Send()'
p363
S'120'
p364
tp365
asS'mpi-sv-src/Artifact-Benchmark/bitmap/mandelMS.c'
p366
(lp367
(S'MPI_Comm_size()'
p368
S'141'
p369
tp370
a(S'MPI_Comm_rank()'
p371
S'142'
p372
tp373
a(S'MPI_Recv()'
p374
S'143'
p375
tp376
a(S'MPI_Send()'
p377
S'152'
p378
tp379
a(S'MPI_Recv()'
p380
S'154'
p381
tp382
a(S'MPI_Comm_rank()'
p383
S'165'
p384
tp385
a(S'MPI_Comm_size()'
p386
S'166'
p387
tp388
a(S'MPI_Send()'
p389
S'234'
p390
tp391
a(S'MPI_Wtime()'
p392
S'240'
p393
tp394
a(S'MPI_Recv()'
p395
S'244'
p396
tp397
a(S'MPI_Wtime()'
p398
S'245'
p399
tp400
a(S'MPI_Send()'
p401
S'251'
p402
tp403
a(S'MPI_Send()'
p404
S'256'
p405
tp406
a(S'MPI_Barrier()'
p407
S'272'
p408
tp409
a(S'MPI_Finalize()'
p410
S'273'
p411
tp412
asS'mpi-sv-src/Artifact-Benchmark/clustalw-mpi-0.13/malign_mpi_progressive.c'
p413
(lp414
(S'MPI_Wtime()'
p415
S'153'
p416
tp417
a(S'MPI_Comm_size()'
p418
S'263'
p419
tp420
a(S'MPI_Wtime()'
p421
S'734'
p422
tp423
asS'mpi-sv-src/Artifact-Benchmark/diffusion2d/diffusion7_nd.c'
p424
(lp425
(S'MPI_Send()'
p426
S'38'
p427
tp428
a(S'MPI_Recv()'
p429
S'64'
p430
tp431
a(S'X_MPI_COMM_WORLD()'
p432
S'65'
p433
tp434
a(S'MPI_Send()'
p435
S'83'
p436
tp437
a(S'MPI_Recv()'
p438
S'97'
p439
tp440
a(S'MPI_Send()'
p441
S'116'
p442
tp443
a(S'MPI_Recv()'
p444
S'117'
p445
tp446
a(S'MPI_Send()'
p447
S'125'
p448
tp449
a(S'MPI_Recv()'
p450
S'126'
p451
tp452
a(S'MPI_Send()'
p453
S'133'
p454
tp455
a(S'MPI_Recv()'
p456
S'134'
p457
tp458
a(S'MPI_Send()'
p459
S'141'
p460
tp461
a(S'MPI_Recv()'
p462
S'142'
p463
tp464
a(S'MPI_Init()'
p465
S'167'
p466
tp467
a(S'MPI_Comm_size()'
p468
S'172'
p469
tp470
a(S'MPI_Comm_rank()'
p471
S'173'
p472
tp473
a(S'MPI_Barrier()'
p474
S'187'
p475
tp476
a(S'MPI_Finalize()'
p477
S'196'
p478
tp479
asS'mpi-sv-src/Artifact-Benchmark/integrate/integrate_mw.c'
p480
(lp481
(S'MPI_Recv()'
p482
S'90'
p483
tp484
a(S'MPI_Send()'
p485
S'96'
p486
tp487
a(S'MPI_Comm_size()'
p488
S'113'
p489
tp490
a(S'MPI_Send()'
p491
S'115'
p492
tp493
a(S'MPI_Send()'
p494
S'131'
p495
tp496
a(S'MPI_Recv()'
p497
S'139'
p498
tp499
a(S'X_MPI_COMM_WORLD()'
p500
S'140'
p501
tp502
a(S'MPI_Comm_size()'
p503
S'150'
p504
tp505
a(S'MPI_Comm_rank()'
p506
S'151'
p507
tp508
a(S'MPI_Init()'
p509
S'172'
p510
tp511
a(S'MPI_Comm_rank()'
p512
S'173'
p513
tp514
a(S'MPI_Finalize()'
p515
S'178'
p516
tp517
asS'mpi-sv-src/Artifact-Benchmark/image-manip/image_mod.c'
p518
(lp519
(S'MPI_Comm_rank()'
p520
S'124'
p521
tp522
a(S'MPI_Comm_size()'
p523
S'125'
p524
tp525
a(S'MPI_Ssend()'
p526
S'143'
p527
tp528
a(S'MPI_Recv()'
p529
S'146'
p530
tp531
a(S'MPI_Recv()'
p532
S'172'
p533
tp534
a(S'MPI_Send()'
p535
S'207'
p536
tp537
a(S'MPI_Comm_rank()'
p538
S'222'
p539
tp540
a(S'MPI_Comm_size()'
p541
S'223'
p542
tp543
a(S'MPI_Bcast()'
p544
S'283'
p545
tp546
a(S'MPI_Finalize()'
p547
S'423'
p548
tp549
asS'mpi-sv-src/Artifact-Benchmark/diffusion2d/diffusion2_nd_8.c'
p550
(lp551
(S'MPI_Send()'
p552
S'36'
p553
tp554
a(S'MPI_Recv()'
p555
S'62'
p556
tp557
a(S'X_MPI_COMM_WORLD()'
p558
S'63'
p559
tp560
a(S'MPI_Send()'
p561
S'81'
p562
tp563
a(S'MPI_Recv()'
p564
S'95'
p565
tp566
a(S'MPI_Send()'
p567
S'114'
p568
tp569
a(S'MPI_Recv()'
p570
S'115'
p571
tp572
a(S'MPI_Send()'
p573
S'123'
p574
tp575
a(S'MPI_Recv()'
p576
S'124'
p577
tp578
a(S'MPI_Send()'
p579
S'131'
p580
tp581
a(S'MPI_Recv()'
p582
S'132'
p583
tp584
a(S'MPI_Send()'
p585
S'139'
p586
tp587
a(S'MPI_Recv()'
p588
S'140'
p589
tp590
a(S'MPI_Init()'
p591
S'166'
p592
tp593
a(S'MPI_Comm_size()'
p594
S'171'
p595
tp596
a(S'MPI_Comm_rank()'
p597
S'172'
p598
tp599
a(S'MPI_Barrier()'
p600
S'186'
p601
tp602
a(S'MPI_Finalize()'
p603
S'195'
p604
tp605
asS'mpi-sv-src/Artifact-Benchmark/clustalw-mpi-0.13/interface.c'
p606
(lp607
(S'MPI_Comm_size()'
p608
S'2328'
p609
tp610
a(S'MPI_Comm_size()'
p611
S'2727'
p612
tp613
a(S'MPI_Comm_size()'
p614
S'3972'
p615
tp616
a(S'MPI_Send()'
p617
S'3974'
p618
tp619
a(S'MPI_Finalize()'
p620
S'3976'
p621
tp622
asS'mpi-sv-src/Artifact-Benchmark/bitmap/mandelMS-bak.c'
p623
(lp624
(S'MPI_Comm_size()'
p625
S'141'
p626
tp627
a(S'MPI_Comm_rank()'
p628
S'142'
p629
tp630
a(S'MPI_Recv()'
p631
S'143'
p632
tp633
a(S'MPI_Send()'
p634
S'153'
p635
tp636
a(S'MPI_Recv()'
p637
S'155'
p638
tp639
a(S'MPI_Comm_rank()'
p640
S'166'
p641
tp642
a(S'MPI_Comm_size()'
p643
S'167'
p644
tp645
a(S'MPI_Send()'
p646
S'230'
p647
tp648
a(S'MPI_Wtime()'
p649
S'236'
p650
tp651
a(S'MPI_Recv()'
p652
S'240'
p653
tp654
a(S'MPI_Send()'
p655
S'241'
p656
tp657
a(S'MPI_Recv()'
p658
S'247'
p659
tp660
a(S'MPI_Send()'
p661
S'250'
p662
tp663
a(S'MPI_Barrier()'
p664
S'253'
p665
tp666
a(S'MPI_Finalize()'
p667
S'254'
p668
tp669
asS'mpi-sv-src/Artifact-Benchmark/gausselim/Ge2.c'
p670
(lp671
(S'MPI_Send()'
p672
S'37'
p673
tp674
a(S'MPI_Recv()'
p675
S'38'
p676
tp677
a(S'MPI_Recv()'
p678
S'42'
p679
tp680
a(S'MPI_Send()'
p681
S'46'
p682
tp683
a(S'MPI_Barrier()'
p684
S'54'
p685
tp686
a(S'MPI_Bcast()'
p687
S'55'
p688
tp689
a(S'MPI_Finalize()'
p690
S'58'
p691
tp692
a(S'MPI_Send()'
p693
S'205'
p694
tp695
a(S'MPI_Recv()'
p696
S'211'
p697
tp698
a(S'MPI_Barrier()'
p699
S'246'
p700
tp701
a(S'MPI_Init()'
p702
S'264'
p703
tp704
a(S'MPI_Comm_rank()'
p705
S'265'
p706
tp707
a(S'MPI_Comm_size()'
p708
S'266'
p709
tp710
a(S'MPI_Barrier()'
p711
S'308'
p712
tp713
a(S'MPI_Barrier()'
p714
S'312'
p715
tp716
a(S'MPI_Barrier()'
p717
S'318'
p718
tp719
a(S'MPI_Barrier()'
p720
S'323'
p721
tp722
a(S'MPI_Send()'
p723
S'327'
p724
tp725
a(S'MPI_Send()'
p726
S'328'
p727
tp728
a(S'MPI_Send()'
p729
S'329'
p730
tp731
a(S'MPI_Recv()'
p732
S'332'
p733
tp734
a(S'MPI_Finalize()'
p735
S'348'
p736
tp737
asS'mpi-sv-src/Artifact-Benchmark/depSolver-mpi/src/force.c'
p738
(lp739
(S'MPI_Allgatherv()'
p740
S'454'
p741
tp742
a(S'MPI_Allgatherv()'
p743
S'576'
p744
tp745
asS'mpi-sv-src/Artifact-Benchmark/clustalw-mpi-0.13/stupid.c'
p746
(lp747
(S'MPI_Send()'
p748
S'303'
p749
tp750
a(S'MPI_Pack()'
p751
S'310'
p752
tp753
a(S'MPI_Pack()'
p754
S'312'
p755
tp756
a(S'MPI_Pack()'
p757
S'314'
p758
tp759
a(S'MPI_Pack()'
p760
S'316'
p761
tp762
a(S'MPI_Pack()'
p763
S'319'
p764
tp765
a(S'MPI_Pack()'
p766
S'321'
p767
tp768
a(S'MPI_Pack()'
p769
S'323'
p770
tp771
a(S'MPI_Pack()'
p772
S'325'
p773
tp774
a(S'MPI_Pack()'
p775
S'327'
p776
tp777
a(S'MPI_Pack()'
p778
S'329'
p779
tp780
a(S'MPI_Pack()'
p781
S'333'
p782
tp783
a(S'MPI_Pack()'
p784
S'337'
p785
tp786
a(S'MPI_Send()'
p787
S'341'
p788
tp789
a(S'MPI_Comm_rank()'
p790
S'356'
p791
tp792
a(S'MPI_Recv()'
p793
S'370'
p794
tp795
a(S'X_MPI_COMM_WORLD()'
p796
S'371'
p797
tp798
a(S'MPI_Recv()'
p799
S'378'
p800
tp801
a(S'MPI_Unpack()'
p802
S'382'
p803
tp804
a(S'MPI_Unpack()'
p805
S'385'
p806
tp807
a(S'MPI_Unpack()'
p808
S'387'
p809
tp810
asS'mpi-sv-src/Artifact-Benchmark/clustalw-mpi-0.13/trees.c'
p811
(lp812
(S'MPI_Comm_size()'
p813
S'1739'
p814
tp815
a(S'MPI_Pack()'
p816
S'1806'
p817
tp818
a(S'MPI_Pack()'
p819
S'1808'
p820
tp821
a(S'MPI_Pack()'
p822
S'1814'
p823
tp824
a(S'MPI_Send()'
p825
S'1830'
p826
tp827
a(S'MPI_Isend()'
p828
S'1836'
p829
tp830
a(S'MPI_Waitall()'
p831
S'1839'
p832
tp833
a(S'MPI_Recv()'
p834
S'1854'
p835
tp836
a(S'MPI_Send()'
p837
S'1883'
p838
tp839
asS'mpi-sv-src/Artifact-Benchmark/heat/heat-errors.c'
p840
(lp841
(S'X_MPI_DOUBLE()'
p842
S'377'
p843
tp844
a(S'X_MPI_DOUBLE()'
p845
S'425'
p846
tp847
a(S'X_MPI_DOUBLE()'
p848
S'448'
p849
tp850
asS'mpi-sv-src/Artifact-Benchmark/diffusion2d/diffusion6_nd.c'
p851
(lp852
(S'MPI_Send()'
p853
S'38'
p854
tp855
a(S'MPI_Recv()'
p856
S'64'
p857
tp858
a(S'X_MPI_COMM_WORLD()'
p859
S'65'
p860
tp861
a(S'MPI_Send()'
p862
S'83'
p863
tp864
a(S'MPI_Recv()'
p865
S'97'
p866
tp867
a(S'MPI_Send()'
p868
S'116'
p869
tp870
a(S'MPI_Recv()'
p871
S'117'
p872
tp873
a(S'MPI_Send()'
p874
S'125'
p875
tp876
a(S'MPI_Recv()'
p877
S'126'
p878
tp879
a(S'MPI_Send()'
p880
S'133'
p881
tp882
a(S'MPI_Recv()'
p883
S'134'
p884
tp885
a(S'MPI_Send()'
p886
S'141'
p887
tp888
a(S'MPI_Recv()'
p889
S'142'
p890
tp891
a(S'MPI_Init()'
p892
S'167'
p893
tp894
a(S'MPI_Comm_size()'
p895
S'172'
p896
tp897
a(S'MPI_Comm_rank()'
p898
S'173'
p899
tp900
a(S'MPI_Barrier()'
p901
S'187'
p902
tp903
a(S'MPI_Finalize()'
p904
S'196'
p905
tp906
asS'mpi-sv-src/Artifact-Benchmark/bitmap/mandel_mc.c'
p907
(lp908
(S'MPI_Comm_size()'
p909
S'143'
p910
tp911
a(S'MPI_Comm_rank()'
p912
S'144'
p913
tp914
a(S'MPI_Recv()'
p915
S'145'
p916
tp917
a(S'MPI_Send()'
p918
S'154'
p919
tp920
a(S'MPI_Recv()'
p921
S'157'
p922
tp923
a(S'MPI_Comm_rank()'
p924
S'167'
p925
tp926
a(S'MPI_Comm_size()'
p927
S'168'
p928
tp929
a(S'MPI_Ssend()'
p930
S'185'
p931
tp932
a(S'MPI_Wtime()'
p933
S'238'
p934
tp935
a(S'MPI_Wtime()'
p936
S'241'
p937
tp938
a(S'MPI_Send()'
p939
S'243'
p940
tp941
a(S'MPI_Recv()'
p942
S'254'
p943
tp944
a(S'MPI_Barrier()'
p945
S'257'
p946
tp947
a(S'MPI_Finalize()'
p948
S'258'
p949
tp950
asS'mpi-sv-src/Artifact-Benchmark/integrate/inteMS.c'
p951
(lp952
(S'MPI_Recv()'
p953
S'90'
p954
tp955
a(S'MPI_Send()'
p956
S'95'
p957
tp958
a(S'MPI_Comm_size()'
p959
S'112'
p960
tp961
a(S'MPI_Send()'
p962
S'114'
p963
tp964
a(S'MPI_Recv()'
p965
S'120'
p966
tp967
a(S'MPI_Send()'
p968
S'121'
p969
tp970
a(S'MPI_Recv()'
p971
S'127'
p972
tp973
a(S'X_MPI_COMM_WORLD()'
p974
S'128'
p975
tp976
a(S'MPI_Send()'
p977
S'129'
p978
tp979
a(S'MPI_Comm_size()'
p980
S'138'
p981
tp982
a(S'MPI_Comm_rank()'
p983
S'139'
p984
tp985
a(S'MPI_Init()'
p986
S'160'
p987
tp988
a(S'MPI_Comm_rank()'
p989
S'161'
p990
tp991
a(S'MPI_Finalize()'
p992
S'166'
p993
tp994
asS'mpi-sv-src/Artifact-Benchmark/depSolver-mpi/src/depSolver-mpi.c'
p995
(lp996
(S'MPI_Init()'
p997
S'93'
p998
tp999
a(S'MPI_Comm_size()'
p1000
S'94'
p1001
tp1002
a(S'MPI_Comm_rank()'
p1003
S'95'
p1004
tp1005
a(S'MPI_Bcast()'
p1006
S'268'
p1007
tp1008
a(S'MPI_Bcast()'
p1009
S'269'
p1010
tp1011
a(S'MPI_Bcast()'
p1012
S'293'
p1013
tp1014
a(S'MPI_Bcast()'
p1015
S'294'
p1016
tp1017
a(S'MPI_Bcast()'
p1018
S'295'
p1019
tp1020
a(S'MPI_Bcast()'
p1021
S'299'
p1022
tp1023
a(S'MPI_Bcast()'
p1024
S'304'
p1025
tp1026
a(S'MPI_Bcast()'
p1027
S'309'
p1028
tp1029
a(S'MPI_Bcast()'
p1030
S'397'
p1031
tp1032
a(S'MPI_Bcast()'
p1033
S'400'
p1034
tp1035
a(S'MPI_Bcast()'
p1036
S'403'
p1037
tp1038
a(S'MPI_Bcast()'
p1039
S'404'
p1040
tp1041
a(S'MPI_Allgather()'
p1042
S'437'
p1043
tp1044
a(S'MPI_Allgatherv()'
p1045
S'470'
p1046
tp1047
a(S'MPI_Allgather()'
p1048
S'523'
p1049
tp1050
a(S'MPI_Scatterv()'
p1051
S'542'
p1052
tp1053
a(S'MPI_Allgather()'
p1054
S'612'
p1055
tp1056
a(S'MPI_Scatterv()'
p1057
S'623'
p1058
tp1059
a(S'MPI_Allgather()'
p1060
S'643'
p1061
tp1062
a(S'MPI_Scatterv()'
p1063
S'654'
p1064
tp1065
a(S'MPI_Gatherv()'
p1066
S'685'
p1067
tp1068
a(S'X_MPI_DOUBLE()'
p1069
S'687'
p1070
tp1071
a(S'MPI_Gatherv()'
p1072
S'690'
p1073
tp1074
a(S'X_MPI_DOUBLE()'
p1075
S'692'
p1076
tp1077
a(S'MPI_Gatherv()'
p1078
S'701'
p1079
tp1080
a(S'MPI_Gatherv()'
p1081
S'706'
p1082
tp1083
a(S'MPI_Reduce()'
p1084
S'711'
p1085
tp1086
a(S'MPI_Reduce()'
p1087
S'715'
p1088
tp1089
a(S'MPI_Gatherv()'
p1090
S'724'
p1091
tp1092
a(S'MPI_Finalize()'
p1093
S'828'
p1094
tp1095
asS'mpi-sv-src/Artifact-Benchmark/bitmap/mandel_bitmap_ori1.c'
p1096
(lp1097
(S'MPI_Comm_size()'
p1098
S'147'
p1099
tp1100
a(S'MPI_Comm_rank()'
p1101
S'148'
p1102
tp1103
a(S'MPI_Recv()'
p1104
S'149'
p1105
tp1106
a(S'MPI_Send()'
p1107
S'160'
p1108
tp1109
a(S'MPI_Recv()'
p1110
S'162'
p1111
tp1112
a(S'MPI_Comm_rank()'
p1113
S'175'
p1114
tp1115
a(S'MPI_Comm_size()'
p1116
S'176'
p1117
tp1118
a(S'MPI_Wtime()'
p1119
S'235'
p1120
tp1121
a(S'MPI_Wtime()'
p1122
S'239'
p1123
tp1124
a(S'MPI_Recv()'
p1125
S'254'
p1126
tp1127
a(S'MPI_Barrier()'
p1128
S'258'
p1129
tp1130
a(S'MPI_Finalize()'
p1131
S'259'
p1132
tp1133
asS'mpi-sv-src/Artifact-Benchmark/clustalw-mpi-0.13/prfalign_mpi_progressive.c'
p1134
(lp1135
(S'MPI_Send()'
p1136
S'577'
p1137
tp1138
a(S'MPI_Pack()'
p1139
S'583'
p1140
tp1141
a(S'MPI_Pack()'
p1142
S'585'
p1143
tp1144
a(S'MPI_Pack()'
p1145
S'587'
p1146
tp1147
a(S'MPI_Pack()'
p1148
S'589'
p1149
tp1150
a(S'MPI_Pack()'
p1151
S'591'
p1152
tp1153
a(S'MPI_Pack()'
p1154
S'593'
p1155
tp1156
a(S'MPI_Pack()'
p1157
S'595'
p1158
tp1159
a(S'MPI_Pack()'
p1160
S'597'
p1161
tp1162
a(S'MPI_Pack()'
p1163
S'600'
p1164
tp1165
a(S'MPI_Pack()'
p1166
S'602'
p1167
tp1168
a(S'MPI_Pack()'
p1169
S'604'
p1170
tp1171
a(S'MPI_Pack()'
p1172
S'606'
p1173
tp1174
a(S'MPI_Pack()'
p1175
S'608'
p1176
tp1177
a(S'MPI_Pack()'
p1178
S'610'
p1179
tp1180
a(S'MPI_Pack()'
p1181
S'612'
p1182
tp1183
a(S'MPI_Pack()'
p1184
S'614'
p1185
tp1186
a(S'MPI_Pack()'
p1187
S'616'
p1188
tp1189
a(S'MPI_Pack()'
p1190
S'619'
p1191
tp1192
a(S'MPI_Pack()'
p1193
S'623'
p1194
tp1195
a(S'MPI_Pack()'
p1196
S'626'
p1197
tp1198
a(S'MPI_Pack()'
p1199
S'629'
p1200
tp1201
a(S'MPI_Send()'
p1202
S'632'
p1203
tp1204
a(S'MPI_Recv()'
p1205
S'680'
p1206
tp1207
a(S'X_MPI_COMM_WORLD()'
p1208
S'681'
p1209
tp1210
a(S'MPI_Recv()'
p1211
S'687'
p1212
tp1213
a(S'MPI_Unpack()'
p1214
S'691'
p1215
tp1216
a(S'MPI_Unpack()'
p1217
S'693'
p1218
tp1219
a(S'MPI_Unpack()'
p1220
S'695'
p1221
tp1222
a(S'MPI_Unpack()'
p1223
S'697'
p1224
tp1225
a(S'MPI_Unpack()'
p1226
S'699'
p1227
tp1228
a(S'MPI_Unpack()'
p1229
S'701'
p1230
tp1231
a(S'MPI_Unpack()'
p1232
S'703'
p1233
tp1234
a(S'MPI_Unpack()'
p1235
S'706'
p1236
tp1237
a(S'MPI_Comm_rank()'
p1238
S'712'
p1239
tp1240
a(S'MPI_Unpack()'
p1241
S'720'
p1242
tp1243
a(S'MPI_Unpack()'
p1244
S'724'
p1245
tp1246
a(S'MPI_Comm_rank()'
p1247
S'823'
p1248
tp1249
asS'mpi-sv-src/Artifact-Benchmark/diffusion2d/diffusion2_nd.c'
p1250
(lp1251
(S'MPI_Send()'
p1252
S'38'
p1253
tp1254
a(S'MPI_Recv()'
p1255
S'64'
p1256
tp1257
a(S'X_MPI_COMM_WORLD()'
p1258
S'65'
p1259
tp1260
a(S'MPI_Send()'
p1261
S'83'
p1262
tp1263
a(S'MPI_Recv()'
p1264
S'97'
p1265
tp1266
a(S'MPI_Send()'
p1267
S'116'
p1268
tp1269
a(S'MPI_Recv()'
p1270
S'117'
p1271
tp1272
a(S'MPI_Send()'
p1273
S'125'
p1274
tp1275
a(S'MPI_Recv()'
p1276
S'126'
p1277
tp1278
a(S'MPI_Send()'
p1279
S'133'
p1280
tp1281
a(S'MPI_Recv()'
p1282
S'134'
p1283
tp1284
a(S'MPI_Send()'
p1285
S'141'
p1286
tp1287
a(S'MPI_Recv()'
p1288
S'142'
p1289
tp1290
a(S'MPI_Init()'
p1291
S'167'
p1292
tp1293
a(S'MPI_Comm_size()'
p1294
S'172'
p1295
tp1296
a(S'MPI_Comm_rank()'
p1297
S'173'
p1298
tp1299
a(S'MPI_Barrier()'
p1300
S'187'
p1301
tp1302
a(S'MPI_Finalize()'
p1303
S'196'
p1304
tp1305
asS'mpi-sv-src/Artifact-Benchmark/clustalw-mpi-0.13/malign_mpi_pdiff.c'
p1306
(lp1307
(S'MPI_Wtime()'
p1308
S'98'
p1309
tp1310
a(S'MPI_Wtime()'
p1311
S'294'
p1312
tp1313
asS'mpi-sv-src/Artifact-Benchmark/diffusion2d/diffusion5_nd.c'
p1314
(lp1315
(S'MPI_Send()'
p1316
S'36'
p1317
tp1318
a(S'MPI_Recv()'
p1319
S'62'
p1320
tp1321
a(S'X_MPI_COMM_WORLD()'
p1322
S'63'
p1323
tp1324
a(S'MPI_Send()'
p1325
S'81'
p1326
tp1327
a(S'MPI_Recv()'
p1328
S'95'
p1329
tp1330
a(S'MPI_Send()'
p1331
S'114'
p1332
tp1333
a(S'MPI_Recv()'
p1334
S'115'
p1335
tp1336
a(S'MPI_Send()'
p1337
S'123'
p1338
tp1339
a(S'MPI_Recv()'
p1340
S'124'
p1341
tp1342
a(S'MPI_Send()'
p1343
S'131'
p1344
tp1345
a(S'MPI_Recv()'
p1346
S'132'
p1347
tp1348
a(S'MPI_Send()'
p1349
S'139'
p1350
tp1351
a(S'MPI_Recv()'
p1352
S'140'
p1353
tp1354
a(S'MPI_Init()'
p1355
S'166'
p1356
tp1357
a(S'MPI_Comm_size()'
p1358
S'171'
p1359
tp1360
a(S'MPI_Comm_rank()'
p1361
S'172'
p1362
tp1363
a(S'MPI_Barrier()'
p1364
S'186'
p1365
tp1366
a(S'MPI_Finalize()'
p1367
S'195'
p1368
tp1369
asS'mpi-sv-src/Artifact-Benchmark/image-manip/image_manip.c'
p1370
(lp1371
(S'MPI_Comm_rank()'
p1372
S'124'
p1373
tp1374
a(S'MPI_Comm_size()'
p1375
S'125'
p1376
tp1377
a(S'MPI_Recv()'
p1378
S'158'
p1379
tp1380
a(S'MPI_Send()'
p1381
S'192'
p1382
tp1383
a(S'MPI_Comm_rank()'
p1384
S'208'
p1385
tp1386
a(S'MPI_Comm_size()'
p1387
S'209'
p1388
tp1389
a(S'MPI_Bcast()'
p1390
S'263'
p1391
tp1392
a(S'MPI_Finalize()'
p1393
S'425'
p1394
tp1395
asS'mpi-sv-src/Artifact-Benchmark/depSolver-mpi/src/gmres-mpi.c'
p1396
(lp1397
(S'MPI_Allgatherv()'
p1398
S'106'
p1399
tp1400
a(S'MPI_Allgatherv()'
p1401
S'197'
p1402
tp1403
a(S'X_MPI_DOUBLE()'
p1404
S'199'
p1405
tp1406
a(S'MPI_Allgatherv()'
p1407
S'217'
p1408
tp1409
a(S'X_MPI_DOUBLE()'
p1410
S'219'
p1411
tp1412
asS'mpi-sv-src/Artifact-Benchmark/depSolver-mpi/src/errorHandler.c'
p1413
(lp1414
(S'MPI_Finalize()'
p1415
S'53'
p1416
tp1417
asS'mpi-sv-src/Artifact-Benchmark/bitmap/mandel_bitmap_ori2.c'
p1418
(lp1419
(S'MPI_Comm_size()'
p1420
S'142'
p1421
tp1422
a(S'MPI_Comm_rank()'
p1423
S'143'
p1424
tp1425
a(S'MPI_Recv()'
p1426
S'144'
p1427
tp1428
a(S'MPI_Send()'
p1429
S'153'
p1430
tp1431
a(S'MPI_Recv()'
p1432
S'155'
p1433
tp1434
a(S'MPI_Comm_rank()'
p1435
S'166'
p1436
tp1437
a(S'MPI_Comm_size()'
p1438
S'167'
p1439
tp1440
a(S'MPI_Wtime()'
p1441
S'234'
p1442
tp1443
a(S'MPI_Wtime()'
p1444
S'237'
p1445
tp1446
a(S'MPI_Send()'
p1447
S'239'
p1448
tp1449
a(S'MPI_Recv()'
p1450
S'250'
p1451
tp1452
a(S'MPI_Barrier()'
p1453
S'266'
p1454
tp1455
a(S'MPI_Finalize()'
p1456
S'267'
p1457
tp1458
asS'mpi-sv-src/Artifact-Benchmark/clustalw-mpi-0.13/showpair.c'
p1459
(lp1460
(S'MPI_Comm_size()'
p1461
S'425'
p1462
tp1463
a(S'MPI_Comm_rank()'
p1464
S'426'
p1465
tp1466
a(S'MPI_Wtime()'
p1467
S'449'
p1468
tp1469
a(S'MPI_Send()'
p1470
S'559'
p1471
tp1472
a(S'MPI_Pack()'
p1473
S'567'
p1474
tp1475
a(S'MPI_Pack()'
p1476
S'569'
p1477
tp1478
a(S'MPI_Pack()'
p1479
S'571'
p1480
tp1481
a(S'MPI_Pack()'
p1482
S'573'
p1483
tp1484
a(S'MPI_Pack()'
p1485
S'576'
p1486
tp1487
a(S'MPI_Pack()'
p1488
S'579'
p1489
tp1490
a(S'MPI_Pack()'
p1491
S'581'
p1492
tp1493
a(S'MPI_Pack()'
p1494
S'584'
p1495
tp1496
a(S'MPI_Pack()'
p1497
S'586'
p1498
tp1499
a(S'MPI_Pack()'
p1500
S'588'
p1501
tp1502
a(S'MPI_Pack()'
p1503
S'590'
p1504
tp1505
a(S'MPI_Pack()'
p1506
S'592'
p1507
tp1508
a(S'MPI_Pack()'
p1509
S'594'
p1510
tp1511
a(S'MPI_Pack()'
p1512
S'596'
p1513
tp1514
a(S'MPI_Pack()'
p1515
S'598'
p1516
tp1517
a(S'MPI_Pack()'
p1518
S'600'
p1519
tp1520
a(S'MPI_Pack()'
p1521
S'602'
p1522
tp1523
a(S'MPI_Send()'
p1524
S'606'
p1525
tp1526
a(S'MPI_Recv()'
p1527
S'618'
p1528
tp1529
a(S'MPI_Recv()'
p1530
S'625'
p1531
tp1532
a(S'X_MPI_COMM_WORLD()'
p1533
S'626'
p1534
tp1535
a(S'MPI_Unpack()'
p1536
S'629'
p1537
tp1538
a(S'MPI_Unpack()'
p1539
S'631'
p1540
tp1541
a(S'MPI_Unpack()'
p1542
S'633'
p1543
tp1544
a(S'MPI_Send()'
p1545
S'664'
p1546
tp1547
a(S'MPI_Pack()'
p1548
S'672'
p1549
tp1550
a(S'MPI_Pack()'
p1551
S'674'
p1552
tp1553
a(S'MPI_Pack()'
p1554
S'676'
p1555
tp1556
a(S'MPI_Pack()'
p1557
S'678'
p1558
tp1559
a(S'MPI_Pack()'
p1560
S'681'
p1561
tp1562
a(S'MPI_Pack()'
p1563
S'684'
p1564
tp1565
a(S'MPI_Pack()'
p1566
S'686'
p1567
tp1568
a(S'MPI_Pack()'
p1569
S'688'
p1570
tp1571
a(S'MPI_Pack()'
p1572
S'690'
p1573
tp1574
a(S'MPI_Pack()'
p1575
S'692'
p1576
tp1577
a(S'MPI_Pack()'
p1578
S'694'
p1579
tp1580
a(S'MPI_Pack()'
p1581
S'696'
p1582
tp1583
a(S'MPI_Pack()'
p1584
S'698'
p1585
tp1586
a(S'MPI_Pack()'
p1587
S'700'
p1588
tp1589
a(S'MPI_Pack()'
p1590
S'702'
p1591
tp1592
a(S'MPI_Pack()'
p1593
S'704'
p1594
tp1595
a(S'MPI_Pack()'
p1596
S'706'
p1597
tp1598
a(S'MPI_Send()'
p1599
S'710'
p1600
tp1601
a(S'MPI_Recv()'
p1602
S'721'
p1603
tp1604
a(S'MPI_Recv()'
p1605
S'728'
p1606
tp1607
a(S'X_MPI_COMM_WORLD()'
p1608
S'729'
p1609
tp1610
a(S'MPI_Unpack()'
p1611
S'732'
p1612
tp1613
a(S'MPI_Unpack()'
p1614
S'734'
p1615
tp1616
a(S'MPI_Unpack()'
p1617
S'736'
p1618
tp1619
a(S'MPI_Wtime()'
p1620
S'761'
p1621
tp1622
asS'mpi-sv-src/Artifact-Benchmark/clustalw-mpi-0.13/prfalign_mpi_pdiff.c'
p1623
(lp1624
(S'MPI_Comm_size()'
p1625
S'562'
p1626
tp1627
a(S'MPI_Comm_size()'
p1628
S'630'
p1629
tp1630
a(S'MPI_Send()'
p1631
S'649'
p1632
tp1633
a(S'MPI_Pack()'
p1634
S'655'
p1635
tp1636
a(S'MPI_Pack()'
p1637
S'656'
p1638
tp1639
a(S'MPI_Pack()'
p1640
S'658'
p1641
tp1642
a(S'MPI_Pack()'
p1643
S'659'
p1644
tp1645
a(S'MPI_Pack()'
p1646
S'661'
p1647
tp1648
a(S'MPI_Pack()'
p1649
S'662'
p1650
tp1651
a(S'MPI_Pack()'
p1652
S'663'
p1653
tp1654
a(S'MPI_Pack()'
p1655
S'664'
p1656
tp1657
a(S'MPI_Pack()'
p1658
S'665'
p1659
tp1660
a(S'MPI_Pack()'
p1661
S'666'
p1662
tp1663
a(S'MPI_Pack()'
p1664
S'667'
p1665
tp1666
a(S'MPI_Pack()'
p1667
S'669'
p1668
tp1669
a(S'MPI_Pack()'
p1670
S'673'
p1671
tp1672
a(S'MPI_Pack()'
p1673
S'676'
p1674
tp1675
a(S'MPI_Pack()'
p1676
S'679'
p1677
tp1678
a(S'MPI_Pack()'
p1679
S'680'
p1680
tp1681
a(S'MPI_Send()'
p1682
S'683'
p1683
tp1684
a(S'MPI_Recv()'
p1685
S'699'
p1686
tp1687
a(S'X_MPI_COMM_WORLD()'
p1688
S'700'
p1689
tp1690
a(S'MPI_Recv()'
p1691
S'706'
p1692
tp1693
a(S'X_MPI_COMM_WORLD()'
p1694
S'707'
p1695
tp1696
a(S'MPI_Unpack()'
p1697
S'710'
p1698
tp1699
a(S'MPI_Unpack()'
p1700
S'714'
p1701
tp1702
a(S'MPI_Unpack()'
p1703
S'719'
p1704
tp1705
a(S'MPI_Unpack()'
p1706
S'722'
p1707
tp1708
a(S'MPI_Unpack()'
p1709
S'724'
p1710
tp1711
asS'mpi-sv-src/Artifact-Benchmark/diffusion2d/diffusion2_nd_16.c'
p1712
(lp1713
(S'MPI_Send()'
p1714
S'37'
p1715
tp1716
a(S'MPI_Recv()'
p1717
S'63'
p1718
tp1719
a(S'X_MPI_COMM_WORLD()'
p1720
S'64'
p1721
tp1722
a(S'MPI_Send()'
p1723
S'82'
p1724
tp1725
a(S'MPI_Recv()'
p1726
S'96'
p1727
tp1728
a(S'MPI_Send()'
p1729
S'115'
p1730
tp1731
a(S'MPI_Recv()'
p1732
S'116'
p1733
tp1734
a(S'MPI_Send()'
p1735
S'124'
p1736
tp1737
a(S'MPI_Recv()'
p1738
S'125'
p1739
tp1740
a(S'MPI_Send()'
p1741
S'132'
p1742
tp1743
a(S'MPI_Recv()'
p1744
S'133'
p1745
tp1746
a(S'MPI_Send()'
p1747
S'140'
p1748
tp1749
a(S'MPI_Recv()'
p1750
S'141'
p1751
tp1752
a(S'MPI_Init()'
p1753
S'166'
p1754
tp1755
a(S'MPI_Comm_size()'
p1756
S'172'
p1757
tp1758
a(S'MPI_Comm_rank()'
p1759
S'173'
p1760
tp1761
a(S'MPI_Barrier()'
p1762
S'188'
p1763
tp1764
a(S'MPI_Finalize()'
p1765
S'197'
p1766
tp1767
asS'mpi-sv-src/Artifact-Benchmark/Master-Slave/workload-balancer-master/dynamic_mpi_rewise.c'
p1768
(lp1769
(S'MPI_Init()'
p1770
S'62'
p1771
tp1772
a(S'MPI_Comm_rank()'
p1773
S'64'
p1774
tp1775
a(S'MPI_Comm_size()'
p1776
S'65'
p1777
tp1778
a(S'MPI_Wtime()'
p1779
S'69'
p1780
tp1781
a(S'MPI_Recv()'
p1782
S'108'
p1783
tp1784
a(S'MPI_Recv()'
p1785
S'122'
p1786
tp1787
a(S'MPI_Wtime()'
p1788
S'150'
p1789
tp1790
a(S'MPI_Finalize()'
p1791
S'156'
p1792
tp1793
a(S'MPI_Send()'
p1794
S'180'
p1795
tp1796
a(S'MPI_Recv()'
p1797
S'185'
p1798
tp1799
a(S'MPI_Wtime()'
p1800
S'196'
p1801
tp1802
a(S'MPI_Wtime()'
p1803
S'198'
p1804
tp1805
a(S'MPI_Iprobe()'
p1806
S'207'
p1807
tp1808
a(S'MPI_Recv()'
p1809
S'226'
p1810
tp1811
a(S'MPI_Send()'
p1812
S'231'
p1813
tp1814
a(S'MPI_Type_commit()'
p1815
S'296'
p1816
tp1817
asS'mpi-sv-src/Artifact-Benchmark/bitmap/mandel_bitmap_ori.c'
p1818
(lp1819
(S'MPI_Comm_size()'
p1820
S'146'
p1821
tp1822
a(S'MPI_Comm_rank()'
p1823
S'147'
p1824
tp1825
a(S'MPI_Recv()'
p1826
S'148'
p1827
tp1828
a(S'MPI_Send()'
p1829
S'159'
p1830
tp1831
a(S'MPI_Recv()'
p1832
S'161'
p1833
tp1834
a(S'MPI_Comm_rank()'
p1835
S'174'
p1836
tp1837
a(S'MPI_Comm_size()'
p1838
S'175'
p1839
tp1840
a(S'MPI_Send()'
p1841
S'237'
p1842
tp1843
a(S'MPI_Wtime()'
p1844
S'244'
p1845
tp1846
a(S'MPI_Recv()'
p1847
S'249'
p1848
tp1849
a(S'MPI_Wtime()'
p1850
S'250'
p1851
tp1852
a(S'MPI_Send()'
p1853
S'256'
p1854
tp1855
a(S'MPI_Send()'
p1856
S'261'
p1857
tp1858
a(S'MPI_Barrier()'
p1859
S'282'
p1860
tp1861
a(S'MPI_Finalize()'
p1862
S'283'
p1863
tp1864
asS'mpi-sv-src/Artifact-Benchmark/clustalw-mpi-0.13/parallel_compare.c'
p1865
(lp1866
(S'MPI_Recv()'
p1867
S'166'
p1868
tp1869
a(S'X_MPI_COMM_WORLD()'
p1870
S'167'
p1871
tp1872
a(S'MPI_Finalize()'
p1873
S'201'
p1874
tp1875
a(S'MPI_Recv()'
p1876
S'220'
p1877
tp1878
a(S'X_MPI_COMM_WORLD()'
p1879
S'221'
p1880
tp1881
a(S'MPI_Unpack()'
p1882
S'225'
p1883
tp1884
a(S'MPI_Unpack()'
p1885
S'226'
p1886
tp1887
a(S'MPI_Unpack()'
p1888
S'227'
p1889
tp1890
a(S'MPI_Unpack()'
p1891
S'228'
p1892
tp1893
a(S'MPI_Unpack()'
p1894
S'229'
p1895
tp1896
a(S'MPI_Unpack()'
p1897
S'230'
p1898
tp1899
a(S'MPI_Unpack()'
p1900
S'232'
p1901
tp1902
a(S'MPI_Unpack()'
p1903
S'233'
p1904
tp1905
a(S'MPI_Unpack()'
p1906
S'234'
p1907
tp1908
a(S'MPI_Unpack()'
p1909
S'235'
p1910
tp1911
a(S'MPI_Unpack()'
p1912
S'236'
p1913
tp1914
a(S'MPI_Unpack()'
p1915
S'237'
p1916
tp1917
a(S'MPI_Unpack()'
p1918
S'241'
p1919
tp1920
a(S'MPI_Unpack()'
p1921
S'249'
p1922
tp1923
a(S'MPI_Unpack()'
p1924
S'256'
p1925
tp1926
a(S'X_MPI_CHAR()'
p1927
S'257'
p1928
tp1929
a(S'MPI_Unpack()'
p1930
S'258'
p1931
tp1932
a(S'MPI_Unpack()'
p1933
S'260'
p1934
tp1935
a(S'MPI_Unpack()'
p1936
S'262'
p1937
tp1938
a(S'MPI_Unpack()'
p1939
S'264'
p1940
tp1941
a(S'X_MPI_INT()'
p1942
S'265'
p1943
tp1944
a(S'MPI_Unpack()'
p1945
S'268'
p1946
tp1947
a(S'MPI_Comm_size()'
p1948
S'305'
p1949
tp1950
a(S'MPI_Comm_rank()'
p1951
S'306'
p1952
tp1953
a(S'MPI_Recv()'
p1954
S'323'
p1955
tp1956
a(S'X_MPI_COMM_WORLD()'
p1957
S'324'
p1958
tp1959
a(S'MPI_Send()'
p1960
S'343'
p1961
tp1962
a(S'MPI_Pack()'
p1963
S'350'
p1964
tp1965
a(S'MPI_Pack()'
p1966
S'351'
p1967
tp1968
a(S'MPI_Pack()'
p1969
S'352'
p1970
tp1971
a(S'MPI_Pack()'
p1972
S'353'
p1973
tp1974
a(S'MPI_Send()'
p1975
S'354'
p1976
tp1977
a(S'MPI_Comm_size()'
p1978
S'380'
p1979
tp1980
a(S'MPI_Comm_rank()'
p1981
S'381'
p1982
tp1983
a(S'MPI_Ssend()'
p1984
S'434'
p1985
tp1986
a(S'MPI_Pack()'
p1987
S'442'
p1988
tp1989
a(S'MPI_Pack()'
p1990
S'443'
p1991
tp1992
a(S'MPI_Pack()'
p1993
S'444'
p1994
tp1995
a(S'MPI_Pack()'
p1996
S'445'
p1997
tp1998
a(S'MPI_Ssend()'
p1999
S'447'
p2000
tp2001
a(S'MPI_Recv()'
p2002
S'490'
p2003
tp2004
a(S'X_MPI_COMM_WORLD()'
p2005
S'491'
p2006
tp2007
a(S'MPI_Unpack()'
p2008
S'495'
p2009
tp2010
a(S'MPI_Unpack()'
p2011
S'496'
p2012
tp2013
a(S'MPI_Unpack()'
p2014
S'497'
p2015
tp2016
a(S'MPI_Unpack()'
p2017
S'498'
p2018
tp2019
a(S'MPI_Unpack()'
p2020
S'499'
p2021
tp2022
a(S'MPI_Unpack()'
p2023
S'500'
p2024
tp2025
a(S'MPI_Unpack()'
p2026
S'501'
p2027
tp2028
a(S'MPI_Unpack()'
p2029
S'502'
p2030
tp2031
a(S'MPI_Unpack()'
p2032
S'503'
p2033
tp2034
a(S'MPI_Unpack()'
p2035
S'504'
p2036
tp2037
a(S'MPI_Unpack()'
p2038
S'505'
p2039
tp2040
a(S'MPI_Unpack()'
p2041
S'507'
p2042
tp2043
a(S'MPI_Unpack()'
p2044
S'508'
p2045
tp2046
a(S'MPI_Unpack()'
p2047
S'509'
p2048
tp2049
a(S'MPI_Unpack()'
p2050
S'510'
p2051
tp2052
a(S'MPI_Unpack()'
p2053
S'512'
p2054
tp2055
a(S'MPI_Unpack()'
p2056
S'514'
p2057
tp2058
a(S'MPI_Unpack()'
p2059
S'517'
p2060
tp2061
a(S'MPI_Unpack()'
p2062
S'527'
p2063
tp2064
a(S'MPI_Unpack()'
p2065
S'530'
p2066
tp2067
a(S'MPI_Unpack()'
p2068
S'536'
p2069
tp2070
a(S'MPI_Send()'
p2071
S'572'
p2072
tp2073
a(S'MPI_Pack()'
p2074
S'579'
p2075
tp2076
a(S'MPI_Pack()'
p2077
S'581'
p2078
tp2079
a(S'MPI_Pack()'
p2080
S'583'
p2081
tp2082
a(S'MPI_Pack()'
p2083
S'585'
p2084
tp2085
a(S'MPI_Pack()'
p2086
S'587'
p2087
tp2088
a(S'MPI_Pack()'
p2089
S'589'
p2090
tp2091
a(S'MPI_Pack()'
p2092
S'591'
p2093
tp2094
a(S'MPI_Pack()'
p2095
S'593'
p2096
tp2097
a(S'MPI_Pack()'
p2098
S'598'
p2099
tp2100
a(S'MPI_Pack()'
p2101
S'601'
p2102
tp2103
a(S'MPI_Send()'
p2104
S'606'
p2105
tp2106
a(S'MPI_Comm_size()'
p2107
S'633'
p2108
tp2109
a(S'MPI_Recv()'
p2110
S'637'
p2111
tp2112
a(S'X_MPI_COMM_WORLD()'
p2113
S'638'
p2114
tp2115
a(S'MPI_Finalize()'
p2116
S'644'
p2117
tp2118
a(S'MPI_Recv()'
p2119
S'657'
p2120
tp2121
a(S'X_MPI_COMM_WORLD()'
p2122
S'658'
p2123
tp2124
a(S'MPI_Unpack()'
p2125
S'664'
p2126
tp2127
a(S'MPI_Unpack()'
p2128
S'666'
p2129
tp2130
a(S'MPI_Unpack()'
p2131
S'669'
p2132
tp2133
a(S'MPI_Unpack()'
p2134
S'671'
p2135
tp2136
a(S'MPI_Unpack()'
p2137
S'674'
p2138
tp2139
a(S'MPI_Unpack()'
p2140
S'676'
p2141
tp2142
a(S'MPI_Unpack()'
p2143
S'678'
p2144
tp2145
a(S'MPI_Unpack()'
p2146
S'680'
p2147
tp2148
a(S'MPI_Unpack()'
p2149
S'682'
p2150
tp2151
a(S'MPI_Unpack()'
p2152
S'684'
p2153
tp2154
a(S'MPI_Unpack()'
p2155
S'687'
p2156
tp2157
a(S'MPI_Unpack()'
p2158
S'689'
p2159
tp2160
a(S'MPI_Unpack()'
p2161
S'711'
p2162
tp2163
a(S'MPI_Unpack()'
p2164
S'715'
p2165
tp2166
a(S'MPI_Unpack()'
p2167
S'718'
p2168
tp2169
a(S'MPI_Unpack()'
p2170
S'724'
p2171
tp2172
a(S'X_MPI_INT()'
p2173
S'725'
p2174
tp2175
a(S'MPI_Comm_rank()'
p2176
S'743'
p2177
tp2178
a(S'MPI_Send()'
p2179
S'769'
p2180
tp2181
a(S'MPI_Pack()'
p2182
S'778'
p2183
tp2184
a(S'MPI_Pack()'
p2185
S'782'
p2186
tp2187
a(S'MPI_Send()'
p2188
S'786'
p2189
tp2190
a(S'MPI_Recv()'
p2191
S'821'
p2192
tp2193
a(S'X_MPI_COMM_WORLD()'
p2194
S'822'
p2195
tp2196
a(S'MPI_Unpack()'
p2197
S'826'
p2198
tp2199
a(S'MPI_Unpack()'
p2200
S'828'
p2201
tp2202
a(S'MPI_Unpack()'
p2203
S'830'
p2204
tp2205
a(S'MPI_Unpack()'
p2206
S'832'
p2207
tp2208
a(S'MPI_Unpack()'
p2209
S'834'
p2210
tp2211
a(S'MPI_Unpack()'
p2212
S'836'
p2213
tp2214
a(S'MPI_Unpack()'
p2215
S'838'
p2216
tp2217
a(S'MPI_Unpack()'
p2218
S'840'
p2219
tp2220
a(S'MPI_Unpack()'
p2221
S'842'
p2222
tp2223
a(S'MPI_Unpack()'
p2224
S'844'
p2225
tp2226
a(S'MPI_Unpack()'
p2227
S'863'
p2228
tp2229
a(S'MPI_Unpack()'
p2230
S'867'
p2231
tp2232
a(S'MPI_Send()'
p2233
S'879'
p2234
tp2235
a(S'MPI_Pack()'
p2236
S'886'
p2237
tp2238
a(S'MPI_Pack()'
p2239
S'888'
p2240
tp2241
a(S'MPI_Pack()'
p2242
S'890'
p2243
tp2244
a(S'MPI_Send()'
p2245
S'893'
p2246
tp2247
a(S'MPI_Comm_rank()'
p2248
S'1394'
p2249
tp2250
a(S'MPI_Send()'
p2251
S'1527'
p2252
tp2253
a(S'MPI_Pack()'
p2254
S'1534'
p2255
tp2256
a(S'MPI_Pack()'
p2257
S'1536'
p2258
tp2259
a(S'MPI_Pack()'
p2260
S'1538'
p2261
tp2262
a(S'MPI_Pack()'
p2263
S'1540'
p2264
tp2265
a(S'MPI_Pack()'
p2266
S'1543'
p2267
tp2268
a(S'MPI_Pack()'
p2269
S'1545'
p2270
tp2271
a(S'MPI_Pack()'
p2272
S'1547'
p2273
tp2274
a(S'MPI_Pack()'
p2275
S'1549'
p2276
tp2277
a(S'MPI_Pack()'
p2278
S'1551'
p2279
tp2280
a(S'MPI_Pack()'
p2281
S'1553'
p2282
tp2283
a(S'MPI_Pack()'
p2284
S'1557'
p2285
tp2286
a(S'MPI_Pack()'
p2287
S'1561'
p2288
tp2289
a(S'MPI_Send()'
p2290
S'1565'
p2291
tp2292
a(S'MPI_Recv()'
p2293
S'1578'
p2294
tp2295
a(S'X_MPI_COMM_WORLD()'
p2296
S'1579'
p2297
tp2298
a(S'MPI_Recv()'
p2299
S'1586'
p2300
tp2301
a(S'MPI_Unpack()'
p2302
S'1590'
p2303
tp2304
a(S'MPI_Unpack()'
p2305
S'1593'
p2306
tp2307
a(S'MPI_Unpack()'
p2308
S'1595'
p2309
tp2310
a(S'MPI_Comm_rank()'
p2311
S'1648'
p2312
tp2313
a(S'MPI_Send()'
p2314
S'1739'
p2315
tp2316
a(S'MPI_Pack()'
p2317
S'1746'
p2318
tp2319
a(S'MPI_Pack()'
p2320
S'1748'
p2321
tp2322
a(S'MPI_Pack()'
p2323
S'1751'
p2324
tp2325
a(S'MPI_Pack()'
p2326
S'1752'
p2327
tp2328
a(S'MPI_Pack()'
p2329
S'1754'
p2330
tp2331
a(S'MPI_Pack()'
p2332
S'1756'
p2333
tp2334
a(S'MPI_Pack()'
p2335
S'1758'
p2336
tp2337
a(S'MPI_Pack()'
p2338
S'1760'
p2339
tp2340
a(S'MPI_Pack()'
p2341
S'1762'
p2342
tp2343
a(S'MPI_Pack()'
p2344
S'1764'
p2345
tp2346
a(S'MPI_Pack()'
p2347
S'1766'
p2348
tp2349
a(S'MPI_Pack()'
p2350
S'1768'
p2351
tp2352
a(S'MPI_Pack()'
p2353
S'1773'
p2354
tp2355
a(S'MPI_Pack()'
p2356
S'1776'
p2357
tp2358
a(S'MPI_Pack()'
p2359
S'1786'
p2360
tp2361
a(S'MPI_Pack()'
p2362
S'1788'
p2363
tp2364
a(S'MPI_Isend()'
p2365
S'1792'
p2366
tp2367
a(S'X_MPI_COMM_WORLD()'
p2368
S'1793'
p2369
tp2370
a(S'MPI_Wait()'
p2371
S'1796'
p2372
tp2373
a(S'MPI_Send()'
p2374
S'1800'
p2375
tp2376
a(S'MPI_Recv()'
p2377
S'1865'
p2378
tp2379
a(S'X_MPI_COMM_WORLD()'
p2380
S'1866'
p2381
tp2382
a(S'MPI_Recv()'
p2383
S'1873'
p2384
tp2385
a(S'X_MPI_COMM_WORLD()'
p2386
S'1874'
p2387
tp2388
a(S'MPI_Unpack()'
p2389
S'1880'
p2390
tp2391
a(S'MPI_Unpack()'
p2392
S'1883'
p2393
tp2394
a(S'MPI_Send()'
p2395
S'1955'
p2396
tp2397
a(S'MPI_Pack()'
p2398
S'1962'
p2399
tp2400
a(S'MPI_Pack()'
p2401
S'1964'
p2402
tp2403
a(S'MPI_Pack()'
p2404
S'1967'
p2405
tp2406
a(S'MPI_Pack()'
p2407
S'1968'
p2408
tp2409
a(S'MPI_Pack()'
p2410
S'1970'
p2411
tp2412
a(S'MPI_Pack()'
p2413
S'1972'
p2414
tp2415
a(S'MPI_Pack()'
p2416
S'1974'
p2417
tp2418
a(S'MPI_Pack()'
p2419
S'1976'
p2420
tp2421
a(S'MPI_Pack()'
p2422
S'1978'
p2423
tp2424
a(S'MPI_Pack()'
p2425
S'1980'
p2426
tp2427
a(S'MPI_Pack()'
p2428
S'1982'
p2429
tp2430
a(S'MPI_Pack()'
p2431
S'1984'
p2432
tp2433
a(S'MPI_Pack()'
p2434
S'1989'
p2435
tp2436
a(S'MPI_Pack()'
p2437
S'1992'
p2438
tp2439
a(S'MPI_Pack()'
p2440
S'2002'
p2441
tp2442
a(S'MPI_Pack()'
p2443
S'2004'
p2444
tp2445
a(S'MPI_Send()'
p2446
S'2007'
p2447
tp2448
a(S'MPI_Recv()'
p2449
S'2089'
p2450
tp2451
a(S'X_MPI_COMM_WORLD()'
p2452
S'2090'
p2453
tp2454
a(S'MPI_Recv()'
p2455
S'2098'
p2456
tp2457
a(S'X_MPI_COMM_WORLD()'
p2458
S'2099'
p2459
tp2460
a(S'MPI_Unpack()'
p2461
S'2107'
p2462
tp2463
a(S'MPI_Unpack()'
p2464
S'2110'
p2465
tp2466
a(S'MPI_Comm_rank()'
p2467
S'2350'
p2468
tp2469
a(S'MPI_Recv()'
p2470
S'2357'
p2471
tp2472
a(S'X_MPI_COMM_WORLD()'
p2473
S'2358'
p2474
tp2475
a(S'MPI_Unpack()'
p2476
S'2361'
p2477
tp2478
a(S'MPI_Unpack()'
p2479
S'2366'
p2480
tp2481
a(S'X_MPI_INT()'
p2482
S'2367'
p2483
tp2484
a(S'MPI_Unpack()'
p2485
S'2395'
p2486
tp2487
a(S'MPI_Send()'
p2488
S'2426'
p2489
tp2490
a(S'MPI_Comm_rank()'
p2491
S'2463'
p2492
tp2493
a(S'MPI_Recv()'
p2494
S'2470'
p2495
tp2496
a(S'X_MPI_COMM_WORLD()'
p2497
S'2471'
p2498
tp2499
a(S'MPI_Unpack()'
p2500
S'2474'
p2501
tp2502
a(S'MPI_Unpack()'
p2503
S'2475'
p2504
tp2505
a(S'MPI_Unpack()'
p2506
S'2476'
p2507
tp2508
a(S'MPI_Unpack()'
p2509
S'2477'
p2510
tp2511
a(S'MPI_Unpack()'
p2512
S'2482'
p2513
tp2514
a(S'MPI_Unpack()'
p2515
S'2492'
p2516
tp2517
a(S'X_MPI_CHAR()'
p2518
S'2493'
p2519
tp2520
a(S'MPI_Unpack()'
p2521
S'2494'
p2522
tp2523
a(S'X_MPI_CHAR()'
p2524
S'2495'
p2525
tp2526
a(S'MPI_Unpack()'
p2527
S'2497'
p2528
tp2529
a(S'MPI_Unpack()'
p2530
S'2498'
p2531
tp2532
a(S'MPI_Unpack()'
p2533
S'2499'
p2534
tp2535
a(S'MPI_Unpack()'
p2536
S'2500'
p2537
tp2538
a(S'MPI_Unpack()'
p2539
S'2501'
p2540
tp2541
a(S'MPI_Unpack()'
p2542
S'2502'
p2543
tp2544
a(S'MPI_Unpack()'
p2545
S'2503'
p2546
tp2547
a(S'MPI_Unpack()'
p2548
S'2504'
p2549
tp2550
a(S'MPI_Unpack()'
p2551
S'2505'
p2552
tp2553
a(S'MPI_Unpack()'
p2554
S'2506'
p2555
tp2556
a(S'MPI_Send()'
p2557
S'2554'
p2558
tp2559
a(S'MPI_Pack()'
p2560
S'2563'
p2561
tp2562
a(S'MPI_Pack()'
p2563
S'2566'
p2564
tp2565
a(S'MPI_Pack()'
p2566
S'2569'
p2567
tp2568
a(S'MPI_Pack()'
p2569
S'2570'
p2570
tp2571
a(S'MPI_Send()'
p2572
S'2571'
p2573
tp2574
a(S'MPI_Comm_rank()'
p2575
S'3055'
p2576
tp2577
asS'mpi-sv-src/Artifact-Benchmark/Master-Slave/workload-balancer-master/dynamic_mpi.c'
p2578
(lp2579
(S'MPI_Init()'
p2580
S'62'
p2581
tp2582
a(S'MPI_Comm_rank()'
p2583
S'64'
p2584
tp2585
a(S'MPI_Comm_size()'
p2586
S'65'
p2587
tp2588
a(S'MPI_Wtime()'
p2589
S'69'
p2590
tp2591
a(S'MPI_Wtime()'
p2592
S'144'
p2593
tp2594
a(S'MPI_Finalize()'
p2595
S'150'
p2596
tp2597
a(S'MPI_Send()'
p2598
S'174'
p2599
tp2600
a(S'MPI_Recv()'
p2601
S'179'
p2602
tp2603
a(S'MPI_Wtime()'
p2604
S'190'
p2605
tp2606
a(S'MPI_Wtime()'
p2607
S'192'
p2608
tp2609
a(S'MPI_Iprobe()'
p2610
S'201'
p2611
tp2612
a(S'MPI_Type_commit()'
p2613
S'270'
p2614
tp2615
as.