ccollections
defaultdict
p0
(c__builtin__
list
p1
tp2
Rp3
S'challenges/hse-graph-part/algorithms/KaHIP-updated/parallel/parallel_src/app/graph2binary_external.cpp'
p4
(lp5
(S'MPI_Init()'
p6
S'21'
p7
tp8
a(S'MPI_Comm_rank()'
p9
S'24'
p10
tp11
a(S'MPI_Comm_size()'
p12
S'25'
p13
tp14
a(S'MPI_Finalize()'
p15
S'32'
p16
tp17
a(S'MPI_Finalize()'
p18
S'38'
p19
tp20
a(S'MPI_Finalize()'
p21
S'48'
p22
tp23
asS'challenges/hse-graph-part/algorithms/KaHIP-updated/parallel/parallel_src/app/parse_parameters.h'
p24
(lp25
(S'MPI_Comm_rank()'
p26
S'70'
p27
tp28
a(S'MPI_Comm_rank()'
p29
S'85'
p30
tp31
a(S'MPI_Comm_size()'
p32
S'202'
p33
tp34
asS'challenges/hse-graph-part/algorithms/KaHIP-updated/parallel/parallel_src/app/edge_list_to_metis_graph.cpp'
p35
(lp36
(S'MPI_Init()'
p37
S'26'
p38
tp39
a(S'MPI_Finalize()'
p40
S'36'
p41
tp42
asS'challenges/hse-graph-part/algorithms/KaHIP-master/parallel/parallel_src/lib/parallel_contraction_projection/parallel_block_down_propagation.cpp'
p43
(lp44
(S'MPI_Comm_rank()'
p45
S'31'
p46
tp47
a(S'MPI_Comm_size()'
p48
S'32'
p49
tp50
a(S'MPI_Isend()'
p51
S'56'
p52
tp53
a(S'X_MPI_UNSIGNED_LONG_LONG()'
p54
S'58'
p55
tp56
a(S'MPI_Probe()'
p57
S'76'
p58
tp59
a(S'MPI_Get_count()'
p60
S'79'
p61
tp62
a(S'MPI_Recv()'
p63
S'84'
p64
tp65
a(S'MPI_Comm_rank()'
p66
S'103'
p67
tp68
a(S'MPI_Comm_size()'
p69
S'104'
p70
tp71
a(S'MPI_Isend()'
p72
S'139'
p73
tp74
a(S'MPI_Probe()'
p75
S'149'
p76
tp77
a(S'MPI_Get_count()'
p78
S'152'
p79
tp80
a(S'MPI_Recv()'
p81
S'156'
p82
tp83
asS'challenges/hse-graph-part/algorithms/KaHIP-updated/parallel/parallel_src/lib/distributed_partitioning/initial_partitioning/distributed_evolutionary_partitioning.cpp'
p84
(lp85
(S'MPI_Bcast()'
p86
S'62'
p87
tp88
a(S'MPI_Bcast()'
p89
S'63'
p90
tp91
a(S'MPI_Bcast()'
p92
S'64'
p93
tp94
asS'challenges/hse-graph-part/algorithms/KaHIP-master/parallel/parallel_src/lib/dspac/dspac.cpp'
p95
(lp96
(S'MPI_Barrier()'
p97
S'17'
p98
tp99
a(S'MPI_Barrier()'
p100
S'19'
p101
tp102
a(S'MPI_Comm_size()'
p103
S'25'
p104
tp105
a(S'MPI_Comm_rank()'
p106
S'26'
p107
tp108
a(S'MPI_Allreduce()'
p109
S'51'
p110
tp111
a(S'X_MPI_UNSIGNED_LONG_LONG()'
p112
S'52'
p113
tp114
a(S'MPI_Isend()'
p115
S'133'
p116
tp117
a(S'MPI_Recv()'
p118
S'157'
p119
tp120
a(S'MPI_Wait()'
p121
S'163'
p122
tp123
a(S'MPI_Comm_size()'
p124
S'370'
p125
tp126
a(S'MPI_Comm_rank()'
p127
S'371'
p128
tp129
a(S'MPI_Comm_size()'
p130
S'383'
p131
tp132
a(S'MPI_Comm_rank()'
p133
S'384'
p134
tp135
a(S'MPI_Barrier()'
p136
S'401'
p137
tp138
a(S'MPI_Reduce()'
p139
S'430'
p140
tp141
asS'challenges/hse-graph-part/algorithms/KaHIP-master/lib/tools/graph_communication.cpp'
p142
(lp143
(S'MPI_Comm_rank()'
p144
S'22'
p145
tp146
a(S'MPI_Bcast()'
p147
S'33'
p148
tp149
a(S'MPI_Bcast()'
p150
S'57'
p151
tp152
a(S'MPI_Bcast()'
p153
S'58'
p154
tp155
a(S'MPI_Bcast()'
p156
S'59'
p157
tp158
a(S'MPI_Bcast()'
p159
S'60'
p160
tp161
asS'challenges/hse-graph-part/algorithms/KaHIP-master/parallel/modified_kahip/lib/parallel_mh/population.cpp'
p162
(lp163
(S'MPI_Bcast()'
p164
S'261'
p165
tp166
a(S'MPI_Comm_rank()'
p167
S'422'
p168
tp169
asS'challenges/hse-graph-part/algorithms/KaHIP-master/parallel/parallel_src/app/readbgf.cpp'
p170
(lp171
(S'MPI_Init()'
p172
S'22'
p173
tp174
a(S'MPI_Comm_rank()'
p175
S'25'
p176
tp177
a(S'MPI_Comm_size()'
p178
S'26'
p179
tp180
a(S'MPI_Finalize()'
p181
S'33'
p182
tp183
a(S'MPI_Finalize()'
p184
S'54'
p185
tp186
asS'challenges/hse-graph-part/algorithms/KaHIP-master/parallel/parallel_src/app/friendster_list_to_metis_graph.cpp'
p187
(lp188
(S'MPI_Init()'
p189
S'26'
p190
tp191
a(S'MPI_Finalize()'
p192
S'35'
p193
tp194
asS'challenges/hse-graph-part/algorithms/KaHIP-master/app/kaffpaE.cpp'
p195
(lp196
(S'MPI_Init()'
p197
S'32'
p198
tp199
a(S'MPI_Comm_rank()'
p200
S'90'
p201
tp202
a(S'MPI_Comm_size()'
p203
S'91'
p204
tp205
a(S'MPI_Finalize()'
p206
S'119'
p207
tp208
asS'challenges/hse-graph-part/algorithms/KaHIP-updated/parallel/parallel_src/app/parse_dspac_parameters.h'
p209
(lp210
(S'MPI_Comm_rank()'
p211
S'46'
p212
tp213
a(S'MPI_Comm_rank()'
p214
S'60'
p215
tp216
asS'challenges/hse-graph-part/algorithms/KaHIP-updated/parallel/parallel_src/lib/communication/mpi_tools.cpp'
p217
(lp218
(S'MPI_Comm_rank()'
p219
S'28'
p220
tp221
a(S'MPI_Comm_size()'
p222
S'29'
p223
tp224
a(S'MPI_Iprobe()'
p225
S'51'
p226
tp227
a(S'MPI_Get_count()'
p228
S'55'
p229
tp230
a(S'MPI_Recv()'
p231
S'59'
p232
tp233
a(S'MPI_Iprobe()'
p234
S'68'
p235
tp236
a(S'MPI_Isend()'
p237
S'74'
p238
tp239
a(S'MPI_Barrier()'
p240
S'82'
p241
tp242
a(S'MPI_Comm_rank()'
p243
S'91'
p244
tp245
a(S'MPI_Comm_size()'
p246
S'92'
p247
tp248
a(S'MPI_Iprobe()'
p249
S'129'
p250
tp251
a(S'MPI_Get_count()'
p252
S'134'
p253
tp254
a(S'MPI_Recv()'
p255
S'138'
p256
tp257
a(S'MPI_Isend()'
p258
S'157'
p259
tp260
a(S'MPI_Barrier()'
p261
S'164'
p262
tp263
a(S'MPI_Comm_rank()'
p264
S'173'
p265
tp266
a(S'MPI_Bcast()'
p267
S'184'
p268
tp269
a(S'MPI_Bcast()'
p270
S'207'
p271
tp272
a(S'MPI_Bcast()'
p273
S'208'
p274
tp275
a(S'MPI_Bcast()'
p276
S'209'
p277
tp278
a(S'MPI_Bcast()'
p279
S'210'
p280
tp281
a(S'MPI_Comm_rank()'
p282
S'227'
p283
tp284
a(S'MPI_Comm_size()'
p285
S'228'
p286
tp287
a(S'MPI_Alltoallv()'
p288
S'254'
p289
tp290
asS'challenges/hse-graph-part/algorithms/KaHIP-updated/parallel/parallel_src/app/dspac.cpp'
p291
(lp292
(S'MPI_Init()'
p293
S'37'
p294
tp295
a(S'MPI_Comm_rank()'
p296
S'41'
p297
tp298
a(S'MPI_Comm_size()'
p299
S'42'
p300
tp301
a(S'MPI_Finalize()'
p302
S'51'
p303
tp304
a(S'MPI_Barrier()'
p305
S'63'
p306
tp307
a(S'MPI_Barrier()'
p308
S'70'
p309
tp310
a(S'MPI_Barrier()'
p311
S'85'
p312
tp313
a(S'MPI_Barrier()'
p314
S'127'
p315
tp316
a(S'MPI_Finalize()'
p317
S'128'
p318
tp319
a(S'MPI_Comm_rank()'
p320
S'135'
p321
tp322
a(S'MPI_Comm_size()'
p323
S'136'
p324
tp325
a(S'MPI_Barrier()'
p326
S'138'
p327
tp328
a(S'MPI_Comm_rank()'
p329
S'141'
p330
tp331
a(S'MPI_Comm_size()'
p332
S'142'
p333
tp334
a(S'MPI_Reduce()'
p335
S'180'
p336
tp337
a(S'MPI_Reduce()'
p338
S'181'
p339
tp340
a(S'MPI_Barrier()'
p341
S'202'
p342
tp343
a(S'MPI_Iprobe()'
p344
S'229'
p345
tp346
a(S'MPI_Get_count()'
p347
S'233'
p348
tp349
a(S'MPI_Recv()'
p350
S'237'
p351
tp352
a(S'MPI_Iprobe()'
p353
S'238'
p354
tp355
a(S'MPI_Barrier()'
p356
S'240'
p357
tp358
asS'challenges/hse-graph-part/algorithms/KaHIP-master/parallel/parallel_src/app/dspac.cpp'
p359
(lp360
(S'MPI_Init()'
p361
S'37'
p362
tp363
a(S'MPI_Comm_rank()'
p364
S'41'
p365
tp366
a(S'MPI_Comm_size()'
p367
S'42'
p368
tp369
a(S'MPI_Finalize()'
p370
S'51'
p371
tp372
a(S'MPI_Barrier()'
p373
S'63'
p374
tp375
a(S'MPI_Barrier()'
p376
S'70'
p377
tp378
a(S'MPI_Barrier()'
p379
S'85'
p380
tp381
a(S'MPI_Barrier()'
p382
S'127'
p383
tp384
a(S'MPI_Finalize()'
p385
S'128'
p386
tp387
a(S'MPI_Comm_rank()'
p388
S'135'
p389
tp390
a(S'MPI_Comm_size()'
p391
S'136'
p392
tp393
a(S'MPI_Barrier()'
p394
S'138'
p395
tp396
a(S'MPI_Comm_rank()'
p397
S'141'
p398
tp399
a(S'MPI_Comm_size()'
p400
S'142'
p401
tp402
a(S'MPI_Reduce()'
p403
S'180'
p404
tp405
a(S'MPI_Reduce()'
p406
S'181'
p407
tp408
a(S'MPI_Barrier()'
p409
S'202'
p410
tp411
a(S'MPI_Iprobe()'
p412
S'229'
p413
tp414
a(S'MPI_Get_count()'
p415
S'233'
p416
tp417
a(S'MPI_Recv()'
p418
S'237'
p419
tp420
a(S'MPI_Iprobe()'
p421
S'238'
p422
tp423
a(S'MPI_Barrier()'
p424
S'240'
p425
tp426
asS'challenges/hse-graph-part/algorithms/KaHIP-master/parallel/modified_kahip/lib/tools/graph_communication.cpp'
p427
(lp428
(S'MPI_Comm_rank()'
p429
S'22'
p430
tp431
a(S'MPI_Bcast()'
p432
S'33'
p433
tp434
a(S'MPI_Bcast()'
p435
S'57'
p436
tp437
a(S'MPI_Bcast()'
p438
S'58'
p439
tp440
a(S'MPI_Bcast()'
p441
S'59'
p442
tp443
a(S'MPI_Bcast()'
p444
S'60'
p445
tp446
asS'challenges/hse-graph-part/algorithms/KaHIP-updated/parallel/modified_kahip/lib/parallel_mh/population.cpp'
p447
(lp448
(S'MPI_Bcast()'
p449
S'261'
p450
tp451
a(S'MPI_Comm_rank()'
p452
S'422'
p453
tp454
asS'challenges/hse-graph-part/algorithms/KaHIP-master/parallel/parallel_src/app/parse_parameters.h'
p455
(lp456
(S'MPI_Comm_rank()'
p457
S'70'
p458
tp459
a(S'MPI_Comm_rank()'
p460
S'85'
p461
tp462
a(S'MPI_Comm_size()'
p463
S'202'
p464
tp465
asS'challenges/hse-graph-part/algorithms/KaHIP-updated/parallel/parallel_src/app/toolbox.cpp'
p466
(lp467
(S'MPI_Init()'
p468
S'33'
p469
tp470
a(S'MPI_Finalize()'
p471
S'43'
p472
tp473
a(S'MPI_Comm_rank()'
p474
S'49'
p475
tp476
a(S'MPI_Comm_size()'
p477
S'50'
p478
tp479
a(S'MPI_Comm_rank()'
p480
S'52'
p481
tp482
a(S'MPI_Comm_size()'
p483
S'53'
p484
tp485
a(S'MPI_Barrier()'
p486
S'67'
p487
tp488
a(S'MPI_Barrier()'
p489
S'102'
p490
tp491
a(S'MPI_Finalize()'
p492
S'103'
p493
tp494
asS'challenges/hse-graph-part/algorithms/KaHIP-updated/lib/tools/graph_communication.cpp'
p495
(lp496
(S'MPI_Comm_rank()'
p497
S'22'
p498
tp499
a(S'MPI_Bcast()'
p500
S'33'
p501
tp502
a(S'MPI_Bcast()'
p503
S'57'
p504
tp505
a(S'MPI_Bcast()'
p506
S'58'
p507
tp508
a(S'MPI_Bcast()'
p509
S'59'
p510
tp511
a(S'MPI_Bcast()'
p512
S'60'
p513
tp514
asS'challenges/hse-graph-part/algorithms/KaHIP-updated/parallel/parallel_src/lib/io/parallel_vector_io.cpp'
p515
(lp516
(S'MPI_Comm_rank()'
p517
S'28'
p518
tp519
a(S'MPI_Comm_size()'
p520
S'29'
p521
tp522
a(S'MPI_Barrier()'
p523
S'39'
p524
tp525
a(S'MPI_Barrier()'
p526
S'62'
p527
tp528
a(S'MPI_Barrier()'
p529
S'65'
p530
tp531
a(S'MPI_Comm_rank()'
p532
S'73'
p533
tp534
a(S'MPI_Comm_size()'
p535
S'74'
p536
tp537
a(S'MPI_Barrier()'
p538
S'87'
p539
tp540
a(S'MPI_Barrier()'
p541
S'111'
p542
tp543
a(S'MPI_Barrier()'
p544
S'114'
p545
tp546
a(S'MPI_Comm_rank()'
p547
S'122'
p548
tp549
a(S'MPI_Comm_size()'
p550
S'123'
p551
tp552
a(S'MPI_Barrier()'
p553
S'168'
p554
tp555
a(S'MPI_Barrier()'
p556
S'171'
p557
tp558
a(S'MPI_Barrier()'
p559
S'173'
p560
tp561
a(S'MPI_Comm_rank()'
p562
S'180'
p563
tp564
a(S'MPI_Comm_size()'
p565
S'181'
p566
tp567
a(S'MPI_Barrier()'
p568
S'195'
p569
tp570
a(S'MPI_Barrier()'
p571
S'207'
p572
tp573
a(S'MPI_Comm_rank()'
p574
S'227'
p575
tp576
a(S'MPI_Comm_size()'
p577
S'228'
p578
tp579
a(S'MPI_Barrier()'
p580
S'230'
p581
tp582
a(S'MPI_Barrier()'
p583
S'259'
p584
tp585
a(S'MPI_Barrier()'
p586
S'261'
p587
tp588
asS'challenges/hse-graph-part/algorithms/KaHIP-updated/parallel/modified_kahip/lib/parallel_mh/exchange/exchanger.cpp'
p589
(lp590
(S'MPI_Comm_rank()'
p591
S'20'
p592
tp593
a(S'MPI_Comm_size()'
p594
S'21'
p595
tp596
a(S'MPI_Barrier()'
p597
S'39'
p598
tp599
a(S'MPI_Comm_rank()'
p600
S'41'
p601
tp602
a(S'MPI_Iprobe()'
p603
S'44'
p604
tp605
a(S'MPI_Get_count()'
p606
S'48'
p607
tp608
a(S'MPI_Recv()'
p609
S'52'
p610
tp611
a(S'MPI_Iprobe()'
p612
S'55'
p613
tp614
a(S'MPI_Barrier()'
p615
S'58'
p616
tp617
a(S'MPI_Cancel()'
p618
S'60'
p619
tp620
a(S'MPI_Wait()'
p621
S'65'
p622
tp623
a(S'MPI_Comm_rank()'
p624
S'75'
p625
tp626
a(S'MPI_Comm_size()'
p627
S'76'
p628
tp629
a(S'MPI_Bcast()'
p630
S'84'
p631
tp632
a(S'MPI_Comm_size()'
p633
S'115'
p634
tp635
a(S'MPI_Sendrecv()'
p636
S'153'
p637
tp638
a(S'MPI_Comm_rank()'
p639
S'173'
p640
tp641
a(S'MPI_Comm_size()'
p642
S'174'
p643
tp644
a(S'MPI_Isend()'
p645
S'217'
p646
tp647
a(S'MPI_Test()'
p648
S'231'
p649
tp650
a(S'MPI_Comm_rank()'
p651
S'248'
p652
tp653
a(S'MPI_Iprobe()'
p654
S'251'
p655
tp656
a(S'MPI_Recv()'
p657
S'260'
p658
tp659
a(S'MPI_Iprobe()'
p660
S'291'
p661
tp662
asS'challenges/hse-graph-part/algorithms/KaHIP-updated/parallel/parallel_src/lib/communication/dummy_operations.cpp'
p663
(lp664
(S'MPI_Comm_rank()'
p665
S'22'
p666
tp667
a(S'MPI_Comm_size()'
p668
S'23'
p669
tp670
a(S'MPI_Comm_rank()'
p671
S'28'
p672
tp673
a(S'MPI_Bcast()'
p674
S'29'
p675
tp676
a(S'MPI_Comm_rank()'
p677
S'34'
p678
tp679
a(S'MPI_Comm_size()'
p680
S'35'
p681
tp682
a(S'MPI_Allgather()'
p683
S'38'
p684
tp685
a(S'MPI_Comm_rank()'
p686
S'44'
p687
tp688
a(S'MPI_Allreduce()'
p689
S'47'
p690
tp691
a(S'MPI_Scan()'
p692
S'55'
p693
tp694
a(S'MPI_Alltoallv()'
p695
S'69'
p696
tp697
asS'challenges/hse-graph-part/algorithms/KaHIP-master/parallel/parallel_src/lib/io/parallel_vector_io.cpp'
p698
(lp699
(S'MPI_Comm_rank()'
p700
S'28'
p701
tp702
a(S'MPI_Comm_size()'
p703
S'29'
p704
tp705
a(S'MPI_Barrier()'
p706
S'39'
p707
tp708
a(S'MPI_Barrier()'
p709
S'62'
p710
tp711
a(S'MPI_Barrier()'
p712
S'65'
p713
tp714
a(S'MPI_Comm_rank()'
p715
S'73'
p716
tp717
a(S'MPI_Comm_size()'
p718
S'74'
p719
tp720
a(S'MPI_Barrier()'
p721
S'87'
p722
tp723
a(S'MPI_Barrier()'
p724
S'111'
p725
tp726
a(S'MPI_Barrier()'
p727
S'114'
p728
tp729
a(S'MPI_Comm_rank()'
p730
S'122'
p731
tp732
a(S'MPI_Comm_size()'
p733
S'123'
p734
tp735
a(S'MPI_Barrier()'
p736
S'168'
p737
tp738
a(S'MPI_Barrier()'
p739
S'171'
p740
tp741
a(S'MPI_Barrier()'
p742
S'173'
p743
tp744
a(S'MPI_Comm_rank()'
p745
S'180'
p746
tp747
a(S'MPI_Comm_size()'
p748
S'181'
p749
tp750
a(S'MPI_Barrier()'
p751
S'195'
p752
tp753
a(S'MPI_Barrier()'
p754
S'207'
p755
tp756
a(S'MPI_Comm_rank()'
p757
S'227'
p758
tp759
a(S'MPI_Comm_size()'
p760
S'228'
p761
tp762
a(S'MPI_Barrier()'
p763
S'230'
p764
tp765
a(S'MPI_Barrier()'
p766
S'259'
p767
tp768
a(S'MPI_Barrier()'
p769
S'261'
p770
tp771
asS'challenges/hse-graph-part/algorithms/KaHIP-master/parallel/parallel_src/lib/distributed_partitioning/distributed_partitioner.cpp'
p772
(lp773
(S'MPI_Comm_rank()'
p774
S'66'
p775
tp776
a(S'MPI_Bcast()'
p777
S'117'
p778
tp779
a(S'MPI_Barrier()'
p780
S'123'
p781
tp782
a(S'MPI_Comm_rank()'
p783
S'139'
p784
tp785
a(S'MPI_Barrier()'
p786
S'185'
p787
tp788
a(S'MPI_Comm_rank()'
p789
S'267'
p790
tp791
a(S'MPI_Comm_size()'
p792
S'268'
p793
tp794
a(S'MPI_Isend()'
p795
S'309'
p796
tp797
a(S'MPI_Probe()'
p798
S'321'
p799
tp800
a(S'MPI_Get_count()'
p801
S'324'
p802
tp803
a(S'MPI_Recv()'
p804
S'329'
p805
tp806
a(S'MPI_Barrier()'
p807
S'347'
p808
tp809
a(S'MPI_Comm_rank()'
p810
S'353'
p811
tp812
a(S'MPI_Comm_size()'
p813
S'354'
p814
tp815
a(S'MPI_Isend()'
p816
S'395'
p817
tp818
a(S'MPI_Probe()'
p819
S'406'
p820
tp821
a(S'MPI_Get_count()'
p822
S'409'
p823
tp824
a(S'MPI_Recv()'
p825
S'414'
p826
tp827
a(S'MPI_Barrier()'
p828
S'432'
p829
tp830
asS'challenges/hse-graph-part/algorithms/KaHIP-updated/parallel/parallel_src/lib/data_structure/parallel_graph_access.cpp'
p831
(lp832
(S'MPI_Comm_rank()'
p833
S'23'
p834
tp835
a(S'MPI_Comm_size()'
p836
S'24'
p837
tp838
asS'challenges/hse-graph-part/algorithms/KaHIP-updated/parallel/parallel_src/lib/io/parallel_graph_io.cpp'
p839
(lp840
(S'MPI_Barrier()'
p841
S'147'
p842
tp843
a(S'MPI_Barrier()'
p844
S'172'
p845
tp846
a(S'MPI_Bcast()'
p847
S'547'
p848
tp849
a(S'MPI_Finalize()'
p850
S'551'
p851
tp852
a(S'MPI_Bcast()'
p853
S'555'
p854
tp855
a(S'MPI_Finalize()'
p856
S'563'
p857
tp858
a(S'MPI_Barrier()'
p859
S'628'
p860
tp861
a(S'MPI_Comm_rank()'
p862
S'637'
p863
tp864
a(S'MPI_Comm_size()'
p865
S'638'
p866
tp867
a(S'MPI_Barrier()'
p868
S'654'
p869
tp870
a(S'MPI_Barrier()'
p871
S'669'
p872
tp873
a(S'MPI_Comm_rank()'
p874
S'677'
p875
tp876
a(S'MPI_Comm_size()'
p877
S'678'
p878
tp879
a(S'MPI_Barrier()'
p880
S'696'
p881
tp882
a(S'MPI_Barrier()'
p883
S'712'
p884
tp885
a(S'MPI_Barrier()'
p886
S'854'
p887
tp888
a(S'MPI_Barrier()'
p889
S'879'
p890
tp891
asS'challenges/hse-graph-part/algorithms/KaHIP-master/parallel/parallel_src/interface/parhip_interface.cpp'
p892
(lp893
(S'MPI_Comm_rank()'
p894
S'27'
p895
tp896
a(S'MPI_Comm_size()'
p897
S'28'
p898
tp899
a(S'MPI_Allreduce()'
p900
S'45'
p901
tp902
a(S'MPI_Allreduce()'
p903
S'54'
p904
tp905
a(S'MPI_Barrier()'
p906
S'144'
p907
tp908
asS'challenges/hse-graph-part/algorithms/KaHIP-master/parallel/parallel_src/lib/communication/mpi_tools.cpp'
p909
(lp910
(S'MPI_Comm_rank()'
p911
S'28'
p912
tp913
a(S'MPI_Comm_size()'
p914
S'29'
p915
tp916
a(S'MPI_Iprobe()'
p917
S'51'
p918
tp919
a(S'MPI_Get_count()'
p920
S'55'
p921
tp922
a(S'MPI_Recv()'
p923
S'59'
p924
tp925
a(S'MPI_Iprobe()'
p926
S'68'
p927
tp928
a(S'MPI_Isend()'
p929
S'74'
p930
tp931
a(S'MPI_Barrier()'
p932
S'82'
p933
tp934
a(S'MPI_Comm_rank()'
p935
S'91'
p936
tp937
a(S'MPI_Comm_size()'
p938
S'92'
p939
tp940
a(S'MPI_Iprobe()'
p941
S'129'
p942
tp943
a(S'MPI_Get_count()'
p944
S'134'
p945
tp946
a(S'MPI_Recv()'
p947
S'138'
p948
tp949
a(S'MPI_Isend()'
p950
S'157'
p951
tp952
a(S'MPI_Barrier()'
p953
S'164'
p954
tp955
a(S'MPI_Comm_rank()'
p956
S'173'
p957
tp958
a(S'MPI_Bcast()'
p959
S'184'
p960
tp961
a(S'MPI_Bcast()'
p962
S'207'
p963
tp964
a(S'MPI_Bcast()'
p965
S'208'
p966
tp967
a(S'MPI_Bcast()'
p968
S'209'
p969
tp970
a(S'MPI_Bcast()'
p971
S'210'
p972
tp973
a(S'MPI_Comm_rank()'
p974
S'227'
p975
tp976
a(S'MPI_Comm_size()'
p977
S'228'
p978
tp979
a(S'MPI_Alltoallv()'
p980
S'254'
p981
tp982
asS'challenges/hse-graph-part/algorithms/KaHIP-updated/parallel/modified_kahip/lib/tools/graph_communication.cpp'
p983
(lp984
(S'MPI_Comm_rank()'
p985
S'22'
p986
tp987
a(S'MPI_Bcast()'
p988
S'33'
p989
tp990
a(S'MPI_Bcast()'
p991
S'57'
p992
tp993
a(S'MPI_Bcast()'
p994
S'58'
p995
tp996
a(S'MPI_Bcast()'
p997
S'59'
p998
tp999
a(S'MPI_Bcast()'
p1000
S'60'
p1001
tp1002
asS'challenges/hse-graph-part/algorithms/KaHIP-master/parallel/parallel_src/lib/data_structure/balance_management_refinement.cpp'
p1003
(lp1004
(S'MPI_Allreduce()'
p1005
S'38'
p1006
tp1007
asS'challenges/hse-graph-part/algorithms/KaHIP-updated/parallel/parallel_src/app/readbgf.cpp'
p1008
(lp1009
(S'MPI_Init()'
p1010
S'22'
p1011
tp1012
a(S'MPI_Comm_rank()'
p1013
S'25'
p1014
tp1015
a(S'MPI_Comm_size()'
p1016
S'26'
p1017
tp1018
a(S'MPI_Finalize()'
p1019
S'33'
p1020
tp1021
a(S'MPI_Finalize()'
p1022
S'54'
p1023
tp1024
asS'challenges/hse-graph-part/algorithms/KaHIP-master/parallel/parallel_src/lib/distributed_partitioning/initial_partitioning/distributed_evolutionary_partitioning.cpp'
p1025
(lp1026
(S'MPI_Bcast()'
p1027
S'62'
p1028
tp1029
a(S'MPI_Bcast()'
p1030
S'63'
p1031
tp1032
a(S'MPI_Bcast()'
p1033
S'64'
p1034
tp1035
asS'challenges/hse-graph-part/algorithms/KaHIP-master/lib/parallel_mh/parallel_mh_async.cpp'
p1036
(lp1037
(S'MPI_Comm_rank()'
p1038
S'30'
p1039
tp1040
a(S'MPI_Comm_size()'
p1041
S'31'
p1042
tp1043
a(S'MPI_Comm_rank()'
p1044
S'40'
p1045
tp1046
a(S'MPI_Comm_size()'
p1047
S'41'
p1048
tp1049
a(S'MPI_Isend()'
p1050
S'139'
p1051
tp1052
a(S'MPI_Recv()'
p1053
S'143'
p1054
tp1055
a(S'MPI_Barrier()'
p1056
S'146'
p1057
tp1058
a(S'MPI_Allreduce()'
p1059
S'190'
p1060
tp1061
a(S'MPI_Allreduce()'
p1062
S'194'
p1063
tp1064
a(S'MPI_Allreduce()'
p1065
S'201'
p1066
tp1067
a(S'MPI_Allreduce()'
p1068
S'208'
p1069
tp1070
a(S'MPI_Bcast()'
p1071
S'209'
p1072
tp1073
asS'challenges/hse-graph-part/algorithms/KaHIP-updated/parallel/parallel_src/lib/dspac/edge_balanced_graph_io.cpp'
p1074
(lp1075
(S'MPI_Comm_size()'
p1076
S'33'
p1077
tp1078
a(S'MPI_Comm_rank()'
p1079
S'34'
p1080
tp1081
a(S'MPI_Bcast()'
p1082
S'56'
p1083
tp1084
a(S'MPI_Bcast()'
p1085
S'61'
p1086
tp1087
a(S'MPI_Allgather()'
p1088
S'92'
p1089
tp1090
a(S'MPI_Barrier()'
p1091
S'169'
p1092
tp1093
asS'challenges/hse-graph-part/algorithms/KaHIP-updated/app/kaffpaE.cpp'
p1094
(lp1095
(S'MPI_Init()'
p1096
S'32'
p1097
tp1098
a(S'MPI_Comm_rank()'
p1099
S'90'
p1100
tp1101
a(S'MPI_Comm_size()'
p1102
S'91'
p1103
tp1104
a(S'MPI_Finalize()'
p1105
S'119'
p1106
tp1107
asS'challenges/hse-graph-part/algorithms/KaHIP-updated/parallel/parallel_src/lib/data_structure/parallel_graph_access.h'
p1108
(lp1109
(S'MPI_Comm_rank()'
p1110
S'71'
p1111
tp1112
a(S'MPI_Comm_size()'
p1113
S'72'
p1114
tp1115
a(S'MPI_Comm_rank()'
p1116
S'195'
p1117
tp1118
a(S'MPI_Comm_size()'
p1119
S'196'
p1120
tp1121
a(S'MPI_Isend()'
p1122
S'840'
p1123
tp1124
a(S'X_MPI_UNSIGNED_LONG_LONG()'
p1125
S'842'
p1126
tp1127
a(S'MPI_Isend()'
p1128
S'882'
p1129
tp1130
a(S'X_MPI_UNSIGNED_LONG_LONG()'
p1131
S'884'
p1132
tp1133
a(S'MPI_Probe()'
p1134
S'908'
p1135
tp1136
a(S'MPI_Get_count()'
p1137
S'911'
p1138
tp1139
a(S'MPI_Recv()'
p1140
S'915'
p1141
tp1142
a(S'MPI_Wait()'
p1143
S'935'
p1144
tp1145
a(S'MPI_Barrier()'
p1146
S'972'
p1147
tp1148
a(S'MPI_Isend()'
p1149
S'1010'
p1150
tp1151
a(S'MPI_Probe()'
p1152
S'1020'
p1153
tp1154
a(S'MPI_Get_count()'
p1155
S'1023'
p1156
tp1157
a(S'MPI_Recv()'
p1158
S'1027'
p1159
tp1160
a(S'MPI_Barrier()'
p1161
S'1041'
p1162
tp1163
asS'challenges/hse-graph-part/algorithms/KaHIP-master/parallel/parallel_src/lib/io/parallel_graph_io.cpp'
p1164
(lp1165
(S'MPI_Barrier()'
p1166
S'147'
p1167
tp1168
a(S'MPI_Barrier()'
p1169
S'172'
p1170
tp1171
a(S'MPI_Bcast()'
p1172
S'547'
p1173
tp1174
a(S'MPI_Finalize()'
p1175
S'551'
p1176
tp1177
a(S'MPI_Bcast()'
p1178
S'555'
p1179
tp1180
a(S'MPI_Finalize()'
p1181
S'563'
p1182
tp1183
a(S'MPI_Barrier()'
p1184
S'628'
p1185
tp1186
a(S'MPI_Comm_rank()'
p1187
S'637'
p1188
tp1189
a(S'MPI_Comm_size()'
p1190
S'638'
p1191
tp1192
a(S'MPI_Barrier()'
p1193
S'654'
p1194
tp1195
a(S'MPI_Barrier()'
p1196
S'669'
p1197
tp1198
a(S'MPI_Comm_rank()'
p1199
S'677'
p1200
tp1201
a(S'MPI_Comm_size()'
p1202
S'678'
p1203
tp1204
a(S'MPI_Barrier()'
p1205
S'696'
p1206
tp1207
a(S'MPI_Barrier()'
p1208
S'712'
p1209
tp1210
a(S'MPI_Barrier()'
p1211
S'854'
p1212
tp1213
a(S'MPI_Barrier()'
p1214
S'879'
p1215
tp1216
asS'challenges/hse-graph-part/algorithms/KaHIP-updated/parallel/parallel_src/app/graph2binary.cpp'
p1217
(lp1218
(S'MPI_Init()'
p1219
S'22'
p1220
tp1221
a(S'MPI_Comm_rank()'
p1222
S'25'
p1223
tp1224
a(S'MPI_Comm_size()'
p1225
S'26'
p1226
tp1227
a(S'MPI_Finalize()'
p1228
S'33'
p1229
tp1230
a(S'MPI_Finalize()'
p1231
S'39'
p1232
tp1233
a(S'MPI_Finalize()'
p1234
S'53'
p1235
tp1236
asS'challenges/hse-graph-part/algorithms/KaHIP-master/parallel/parallel_src/app/parhip.cpp'
p1237
(lp1238
(S'MPI_Init()'
p1239
S'33'
p1240
tp1241
a(S'MPI_Finalize()'
p1242
S'43'
p1243
tp1244
a(S'MPI_Comm_rank()'
p1245
S'49'
p1246
tp1247
a(S'MPI_Comm_size()'
p1248
S'50'
p1249
tp1250
a(S'MPI_Barrier()'
p1251
S'53'
p1252
tp1253
a(S'MPI_Barrier()'
p1254
S'60'
p1255
tp1256
a(S'MPI_Comm_rank()'
p1257
S'67'
p1258
tp1259
a(S'MPI_Comm_size()'
p1260
S'68'
p1261
tp1262
a(S'MPI_Reduce()'
p1263
S'111'
p1264
tp1265
a(S'MPI_Reduce()'
p1266
S'112'
p1267
tp1268
a(S'MPI_Allreduce()'
p1269
S'113'
p1270
tp1271
a(S'MPI_Barrier()'
p1272
S'143'
p1273
tp1274
a(S'MPI_Iprobe()'
p1275
S'168'
p1276
tp1277
a(S'MPI_Get_count()'
p1278
S'172'
p1279
tp1280
a(S'MPI_Recv()'
p1281
S'175'
p1282
tp1283
a(S'MPI_Iprobe()'
p1284
S'176'
p1285
tp1286
a(S'MPI_Barrier()'
p1287
S'193'
p1288
tp1289
a(S'MPI_Finalize()'
p1290
S'194'
p1291
tp1292
asS'challenges/hse-graph-part/algorithms/KaHIP-updated/parallel/parallel_src/interface/parhip_interface.cpp'
p1293
(lp1294
(S'MPI_Comm_rank()'
p1295
S'27'
p1296
tp1297
a(S'MPI_Comm_size()'
p1298
S'28'
p1299
tp1300
a(S'MPI_Allreduce()'
p1301
S'45'
p1302
tp1303
a(S'MPI_Allreduce()'
p1304
S'54'
p1305
tp1306
a(S'MPI_Barrier()'
p1307
S'144'
p1308
tp1309
asS'challenges/hse-graph-part/algorithms/KaHIP-master/parallel/parallel_src/app/graph2binary_external.cpp'
p1310
(lp1311
(S'MPI_Init()'
p1312
S'21'
p1313
tp1314
a(S'MPI_Comm_rank()'
p1315
S'24'
p1316
tp1317
a(S'MPI_Comm_size()'
p1318
S'25'
p1319
tp1320
a(S'MPI_Finalize()'
p1321
S'32'
p1322
tp1323
a(S'MPI_Finalize()'
p1324
S'38'
p1325
tp1326
a(S'MPI_Finalize()'
p1327
S'48'
p1328
tp1329
asS'challenges/hse-graph-part/algorithms/KaHIP-master/parallel/parallel_src/lib/distributed_partitioning/initial_partitioning/random_initial_partitioning.cpp'
p1330
(lp1331
(S'MPI_Comm_rank()'
p1332
S'35'
p1333
tp1334
asS'challenges/hse-graph-part/algorithms/KaHIP-master/parallel/parallel_src/lib/data_structure/parallel_graph_access.cpp'
p1335
(lp1336
(S'MPI_Comm_rank()'
p1337
S'23'
p1338
tp1339
a(S'MPI_Comm_size()'
p1340
S'24'
p1341
tp1342
asS'challenges/hse-graph-part/algorithms/KaHIP-master/parallel/parallel_src/lib/parallel_contraction_projection/parallel_projection.cpp'
p1343
(lp1344
(S'MPI_Comm_rank()'
p1345
S'21'
p1346
tp1347
a(S'MPI_Comm_size()'
p1348
S'22'
p1349
tp1350
a(S'MPI_Isend()'
p1351
S'54'
p1352
tp1353
a(S'X_MPI_UNSIGNED_LONG_LONG()'
p1354
S'56'
p1355
tp1356
a(S'MPI_Probe()'
p1357
S'68'
p1358
tp1359
a(S'MPI_Get_count()'
p1360
S'71'
p1361
tp1362
a(S'MPI_Recv()'
p1363
S'75'
p1364
tp1365
a(S'MPI_Isend()'
p1366
S'83'
p1367
tp1368
a(S'X_MPI_UNSIGNED_LONG_LONG()'
p1369
S'85'
p1370
tp1371
a(S'MPI_Isend()'
p1372
S'98'
p1373
tp1374
a(S'X_MPI_UNSIGNED_LONG_LONG()'
p1375
S'100'
p1376
tp1377
a(S'MPI_Probe()'
p1378
S'109'
p1379
tp1380
a(S'MPI_Get_count()'
p1381
S'112'
p1382
tp1383
a(S'MPI_Recv()'
p1384
S'116'
p1385
tp1386
asS'challenges/hse-graph-part/algorithms/KaHIP-updated/lib/parallel_mh/population.cpp'
p1387
(lp1388
(S'MPI_Bcast()'
p1389
S'261'
p1390
tp1391
a(S'MPI_Comm_rank()'
p1392
S'422'
p1393
tp1394
asS'challenges/hse-graph-part/algorithms/KaHIP-master/parallel/parallel_src/app/toolbox.cpp'
p1395
(lp1396
(S'MPI_Init()'
p1397
S'33'
p1398
tp1399
a(S'MPI_Finalize()'
p1400
S'43'
p1401
tp1402
a(S'MPI_Comm_rank()'
p1403
S'49'
p1404
tp1405
a(S'MPI_Comm_size()'
p1406
S'50'
p1407
tp1408
a(S'MPI_Comm_rank()'
p1409
S'52'
p1410
tp1411
a(S'MPI_Comm_size()'
p1412
S'53'
p1413
tp1414
a(S'MPI_Barrier()'
p1415
S'67'
p1416
tp1417
a(S'MPI_Barrier()'
p1418
S'102'
p1419
tp1420
a(S'MPI_Finalize()'
p1421
S'103'
p1422
tp1423
asS'challenges/hse-graph-part/algorithms/KaHIP-master/parallel/parallel_src/app/graph2binary.cpp'
p1424
(lp1425
(S'MPI_Init()'
p1426
S'22'
p1427
tp1428
a(S'MPI_Comm_rank()'
p1429
S'25'
p1430
tp1431
a(S'MPI_Comm_size()'
p1432
S'26'
p1433
tp1434
a(S'MPI_Finalize()'
p1435
S'33'
p1436
tp1437
a(S'MPI_Finalize()'
p1438
S'39'
p1439
tp1440
a(S'MPI_Finalize()'
p1441
S'53'
p1442
tp1443
asS'challenges/hse-graph-part/algorithms/KaHIP-updated/lib/parallel_mh/parallel_mh_async.cpp'
p1444
(lp1445
(S'MPI_Comm_rank()'
p1446
S'30'
p1447
tp1448
a(S'MPI_Comm_size()'
p1449
S'31'
p1450
tp1451
a(S'MPI_Comm_rank()'
p1452
S'40'
p1453
tp1454
a(S'MPI_Comm_size()'
p1455
S'41'
p1456
tp1457
a(S'MPI_Isend()'
p1458
S'139'
p1459
tp1460
a(S'MPI_Recv()'
p1461
S'143'
p1462
tp1463
a(S'MPI_Barrier()'
p1464
S'146'
p1465
tp1466
a(S'MPI_Allreduce()'
p1467
S'190'
p1468
tp1469
a(S'MPI_Allreduce()'
p1470
S'194'
p1471
tp1472
a(S'MPI_Allreduce()'
p1473
S'201'
p1474
tp1475
a(S'MPI_Allreduce()'
p1476
S'208'
p1477
tp1478
a(S'MPI_Bcast()'
p1479
S'209'
p1480
tp1481
asS'challenges/hse-graph-part/algorithms/KaHIP-updated/parallel/parallel_src/lib/parallel_contraction_projection/parallel_contraction.cpp'
p1482
(lp1483
(S'MPI_Barrier()'
p1484
S'46'
p1485
tp1486
a(S'MPI_Comm_rank()'
p1487
S'63'
p1488
tp1489
a(S'MPI_Comm_size()'
p1490
S'64'
p1491
tp1492
a(S'MPI_Isend()'
p1493
S'93'
p1494
tp1495
a(S'X_MPI_UNSIGNED_LONG_LONG()'
p1496
S'95'
p1497
tp1498
a(S'MPI_Probe()'
p1499
S'111'
p1500
tp1501
a(S'MPI_Get_count()'
p1502
S'114'
p1503
tp1504
a(S'MPI_Recv()'
p1505
S'118'
p1506
tp1507
a(S'MPI_Scan()'
p1508
S'153'
p1509
tp1510
a(S'MPI_Bcast()'
p1511
S'157'
p1512
tp1513
a(S'MPI_Isend()'
p1514
S'193'
p1515
tp1516
a(S'X_MPI_UNSIGNED_LONG_LONG()'
p1517
S'195'
p1518
tp1519
a(S'MPI_Probe()'
p1520
S'209'
p1521
tp1522
a(S'MPI_Get_count()'
p1523
S'212'
p1524
tp1525
a(S'MPI_Recv()'
p1526
S'216'
p1527
tp1528
a(S'MPI_Comm_rank()'
p1529
S'232'
p1530
tp1531
a(S'MPI_Comm_size()'
p1532
S'233'
p1533
tp1534
a(S'MPI_Isend()'
p1535
S'271'
p1536
tp1537
a(S'MPI_Probe()'
p1538
S'282'
p1539
tp1540
a(S'MPI_Get_count()'
p1541
S'285'
p1542
tp1543
a(S'MPI_Recv()'
p1544
S'289'
p1545
tp1546
a(S'MPI_Comm_rank()'
p1547
S'340'
p1548
tp1549
a(S'MPI_Comm_size()'
p1550
S'341'
p1551
tp1552
a(S'MPI_Isend()'
p1553
S'373'
p1554
tp1555
a(S'X_MPI_UNSIGNED_LONG_LONG()'
p1556
S'375'
p1557
tp1558
a(S'MPI_Probe()'
p1559
S'398'
p1560
tp1561
a(S'MPI_Get_count()'
p1562
S'401'
p1563
tp1564
a(S'MPI_Recv()'
p1565
S'405'
p1566
tp1567
a(S'MPI_Allreduce()'
p1568
S'458'
p1569
tp1570
a(S'MPI_Isend()'
p1571
S'507'
p1572
tp1573
a(S'X_MPI_UNSIGNED_LONG_LONG()'
p1574
S'509'
p1575
tp1576
a(S'MPI_Probe()'
p1577
S'527'
p1578
tp1579
a(S'MPI_Get_count()'
p1580
S'530'
p1581
tp1582
a(S'MPI_Recv()'
p1583
S'534'
p1584
tp1585
a(S'MPI_Comm_rank()'
p1586
S'552'
p1587
tp1588
a(S'MPI_Comm_size()'
p1589
S'553'
p1590
tp1591
a(S'MPI_Isend()'
p1592
S'589'
p1593
tp1594
a(S'MPI_Probe()'
p1595
S'599'
p1596
tp1597
a(S'MPI_Get_count()'
p1598
S'602'
p1599
tp1600
a(S'MPI_Recv()'
p1601
S'606'
p1602
tp1603
asS'challenges/hse-graph-part/algorithms/KaHIP-updated/parallel/parallel_src/lib/tools/distributed_quality_metrics.cpp'
p1604
(lp1605
(S'MPI_Allreduce()'
p1606
S'31'
p1607
tp1608
a(S'MPI_Allreduce()'
p1609
S'62'
p1610
tp1611
a(S'MPI_Allreduce()'
p1612
S'102'
p1613
tp1614
a(S'MPI_Allreduce()'
p1615
S'105'
p1616
tp1617
a(S'MPI_Allreduce()'
p1618
S'133'
p1619
tp1620
a(S'MPI_Allreduce()'
p1621
S'136'
p1622
tp1623
a(S'MPI_Allreduce()'
p1624
S'164'
p1625
tp1626
a(S'MPI_Allreduce()'
p1627
S'167'
p1628
tp1629
a(S'MPI_Comm_rank()'
p1630
S'187'
p1631
tp1632
a(S'MPI_Comm_size()'
p1633
S'188'
p1634
tp1635
a(S'MPI_Allreduce()'
p1636
S'199'
p1637
tp1638
a(S'MPI_Allreduce()'
p1639
S'202'
p1640
tp1641
a(S'MPI_Comm_rank()'
p1642
S'222'
p1643
tp1644
a(S'MPI_Allreduce()'
p1645
S'243'
p1646
tp1647
a(S'MPI_Comm_rank()'
p1648
S'266'
p1649
tp1650
a(S'MPI_Comm_size()'
p1651
S'267'
p1652
tp1653
a(S'MPI_Reduce()'
p1654
S'291'
p1655
tp1656
a(S'MPI_Reduce()'
p1657
S'292'
p1658
tp1659
a(S'MPI_Reduce()'
p1660
S'293'
p1661
tp1662
asS'challenges/hse-graph-part/algorithms/KaHIP-updated/parallel/parallel_src/lib/parallel_contraction_projection/parallel_block_down_propagation.cpp'
p1663
(lp1664
(S'MPI_Comm_rank()'
p1665
S'31'
p1666
tp1667
a(S'MPI_Comm_size()'
p1668
S'32'
p1669
tp1670
a(S'MPI_Isend()'
p1671
S'56'
p1672
tp1673
a(S'X_MPI_UNSIGNED_LONG_LONG()'
p1674
S'58'
p1675
tp1676
a(S'MPI_Probe()'
p1677
S'76'
p1678
tp1679
a(S'MPI_Get_count()'
p1680
S'79'
p1681
tp1682
a(S'MPI_Recv()'
p1683
S'84'
p1684
tp1685
a(S'MPI_Comm_rank()'
p1686
S'103'
p1687
tp1688
a(S'MPI_Comm_size()'
p1689
S'104'
p1690
tp1691
a(S'MPI_Isend()'
p1692
S'139'
p1693
tp1694
a(S'MPI_Probe()'
p1695
S'149'
p1696
tp1697
a(S'MPI_Get_count()'
p1698
S'152'
p1699
tp1700
a(S'MPI_Recv()'
p1701
S'156'
p1702
tp1703
asS'challenges/hse-graph-part/algorithms/KaHIP-updated/parallel/parallel_src/lib/dspac/dspac.cpp'
p1704
(lp1705
(S'MPI_Barrier()'
p1706
S'17'
p1707
tp1708
a(S'MPI_Barrier()'
p1709
S'19'
p1710
tp1711
a(S'MPI_Comm_size()'
p1712
S'25'
p1713
tp1714
a(S'MPI_Comm_rank()'
p1715
S'26'
p1716
tp1717
a(S'MPI_Allreduce()'
p1718
S'51'
p1719
tp1720
a(S'X_MPI_UNSIGNED_LONG_LONG()'
p1721
S'52'
p1722
tp1723
a(S'MPI_Isend()'
p1724
S'133'
p1725
tp1726
a(S'MPI_Recv()'
p1727
S'157'
p1728
tp1729
a(S'MPI_Wait()'
p1730
S'163'
p1731
tp1732
a(S'MPI_Comm_size()'
p1733
S'370'
p1734
tp1735
a(S'MPI_Comm_rank()'
p1736
S'371'
p1737
tp1738
a(S'MPI_Comm_size()'
p1739
S'383'
p1740
tp1741
a(S'MPI_Comm_rank()'
p1742
S'384'
p1743
tp1744
a(S'MPI_Barrier()'
p1745
S'401'
p1746
tp1747
a(S'MPI_Reduce()'
p1748
S'430'
p1749
tp1750
asS'challenges/hse-graph-part/algorithms/KaHIP-updated/parallel/parallel_src/lib/distributed_partitioning/distributed_partitioner.cpp'
p1751
(lp1752
(S'MPI_Comm_rank()'
p1753
S'66'
p1754
tp1755
a(S'MPI_Bcast()'
p1756
S'117'
p1757
tp1758
a(S'MPI_Barrier()'
p1759
S'123'
p1760
tp1761
a(S'MPI_Comm_rank()'
p1762
S'139'
p1763
tp1764
a(S'MPI_Barrier()'
p1765
S'185'
p1766
tp1767
a(S'MPI_Comm_rank()'
p1768
S'267'
p1769
tp1770
a(S'MPI_Comm_size()'
p1771
S'268'
p1772
tp1773
a(S'MPI_Isend()'
p1774
S'309'
p1775
tp1776
a(S'MPI_Probe()'
p1777
S'321'
p1778
tp1779
a(S'MPI_Get_count()'
p1780
S'324'
p1781
tp1782
a(S'MPI_Recv()'
p1783
S'329'
p1784
tp1785
a(S'MPI_Barrier()'
p1786
S'347'
p1787
tp1788
a(S'MPI_Comm_rank()'
p1789
S'353'
p1790
tp1791
a(S'MPI_Comm_size()'
p1792
S'354'
p1793
tp1794
a(S'MPI_Isend()'
p1795
S'395'
p1796
tp1797
a(S'MPI_Probe()'
p1798
S'406'
p1799
tp1800
a(S'MPI_Get_count()'
p1801
S'409'
p1802
tp1803
a(S'MPI_Recv()'
p1804
S'414'
p1805
tp1806
a(S'MPI_Barrier()'
p1807
S'432'
p1808
tp1809
asS'challenges/hse-graph-part/algorithms/KaHIP-updated/parallel/parallel_src/lib/distributed_partitioning/initial_partitioning/random_initial_partitioning.cpp'
p1810
(lp1811
(S'MPI_Comm_rank()'
p1812
S'35'
p1813
tp1814
asS'challenges/hse-graph-part/algorithms/KaHIP-master/parallel/parallel_src/lib/communication/dummy_operations.cpp'
p1815
(lp1816
(S'MPI_Comm_rank()'
p1817
S'22'
p1818
tp1819
a(S'MPI_Comm_size()'
p1820
S'23'
p1821
tp1822
a(S'MPI_Comm_rank()'
p1823
S'28'
p1824
tp1825
a(S'MPI_Bcast()'
p1826
S'29'
p1827
tp1828
a(S'MPI_Comm_rank()'
p1829
S'34'
p1830
tp1831
a(S'MPI_Comm_size()'
p1832
S'35'
p1833
tp1834
a(S'MPI_Allgather()'
p1835
S'38'
p1836
tp1837
a(S'MPI_Comm_rank()'
p1838
S'44'
p1839
tp1840
a(S'MPI_Allreduce()'
p1841
S'47'
p1842
tp1843
a(S'MPI_Scan()'
p1844
S'55'
p1845
tp1846
a(S'MPI_Alltoallv()'
p1847
S'69'
p1848
tp1849
asS'challenges/hse-graph-part/algorithms/KaHIP-master/parallel/parallel_src/app/parse_dspac_parameters.h'
p1850
(lp1851
(S'MPI_Comm_rank()'
p1852
S'46'
p1853
tp1854
a(S'MPI_Comm_rank()'
p1855
S'60'
p1856
tp1857
asS'challenges/hse-graph-part/algorithms/KaHIP-master/lib/parallel_mh/population.cpp'
p1858
(lp1859
(S'MPI_Bcast()'
p1860
S'261'
p1861
tp1862
a(S'MPI_Comm_rank()'
p1863
S'422'
p1864
tp1865
asS'challenges/hse-graph-part/algorithms/KaHIP-master/parallel/parallel_src/lib/dspac/edge_balanced_graph_io.cpp'
p1866
(lp1867
(S'MPI_Comm_size()'
p1868
S'33'
p1869
tp1870
a(S'MPI_Comm_rank()'
p1871
S'34'
p1872
tp1873
a(S'MPI_Bcast()'
p1874
S'56'
p1875
tp1876
a(S'MPI_Bcast()'
p1877
S'61'
p1878
tp1879
a(S'MPI_Allgather()'
p1880
S'92'
p1881
tp1882
a(S'MPI_Barrier()'
p1883
S'169'
p1884
tp1885
asS'challenges/hse-graph-part/algorithms/KaHIP-master/parallel/parallel_src/lib/data_structure/parallel_graph_access.h'
p1886
(lp1887
(S'MPI_Comm_rank()'
p1888
S'71'
p1889
tp1890
a(S'MPI_Comm_size()'
p1891
S'72'
p1892
tp1893
a(S'MPI_Comm_rank()'
p1894
S'195'
p1895
tp1896
a(S'MPI_Comm_size()'
p1897
S'196'
p1898
tp1899
a(S'MPI_Isend()'
p1900
S'838'
p1901
tp1902
a(S'X_MPI_UNSIGNED_LONG_LONG()'
p1903
S'840'
p1904
tp1905
a(S'MPI_Isend()'
p1906
S'880'
p1907
tp1908
a(S'X_MPI_UNSIGNED_LONG_LONG()'
p1909
S'882'
p1910
tp1911
a(S'MPI_Probe()'
p1912
S'906'
p1913
tp1914
a(S'MPI_Get_count()'
p1915
S'909'
p1916
tp1917
a(S'MPI_Recv()'
p1918
S'913'
p1919
tp1920
a(S'MPI_Wait()'
p1921
S'933'
p1922
tp1923
a(S'MPI_Barrier()'
p1924
S'970'
p1925
tp1926
a(S'MPI_Isend()'
p1927
S'1008'
p1928
tp1929
a(S'MPI_Probe()'
p1930
S'1018'
p1931
tp1932
a(S'MPI_Get_count()'
p1933
S'1021'
p1934
tp1935
a(S'MPI_Recv()'
p1936
S'1025'
p1937
tp1938
a(S'MPI_Barrier()'
p1939
S'1039'
p1940
tp1941
asS'challenges/hse-graph-part/algorithms/KaHIP-master/parallel/parallel_src/lib/tools/distributed_quality_metrics.cpp'
p1942
(lp1943
(S'MPI_Allreduce()'
p1944
S'31'
p1945
tp1946
a(S'MPI_Allreduce()'
p1947
S'62'
p1948
tp1949
a(S'MPI_Allreduce()'
p1950
S'102'
p1951
tp1952
a(S'MPI_Allreduce()'
p1953
S'105'
p1954
tp1955
a(S'MPI_Allreduce()'
p1956
S'133'
p1957
tp1958
a(S'MPI_Allreduce()'
p1959
S'136'
p1960
tp1961
a(S'MPI_Allreduce()'
p1962
S'164'
p1963
tp1964
a(S'MPI_Allreduce()'
p1965
S'167'
p1966
tp1967
a(S'MPI_Comm_rank()'
p1968
S'187'
p1969
tp1970
a(S'MPI_Comm_size()'
p1971
S'188'
p1972
tp1973
a(S'MPI_Allreduce()'
p1974
S'199'
p1975
tp1976
a(S'MPI_Allreduce()'
p1977
S'202'
p1978
tp1979
a(S'MPI_Comm_rank()'
p1980
S'222'
p1981
tp1982
a(S'MPI_Allreduce()'
p1983
S'243'
p1984
tp1985
a(S'MPI_Comm_rank()'
p1986
S'266'
p1987
tp1988
a(S'MPI_Comm_size()'
p1989
S'267'
p1990
tp1991
a(S'MPI_Reduce()'
p1992
S'291'
p1993
tp1994
a(S'MPI_Reduce()'
p1995
S'292'
p1996
tp1997
a(S'MPI_Reduce()'
p1998
S'293'
p1999
tp2000
asS'challenges/hse-graph-part/algorithms/KaHIP-updated/parallel/parallel_src/lib/data_structure/balance_management_refinement.cpp'
p2001
(lp2002
(S'MPI_Allreduce()'
p2003
S'38'
p2004
tp2005
asS'challenges/hse-graph-part/algorithms/KaHIP-master/parallel/parallel_src/app/edge_list_to_metis_graph.cpp'
p2006
(lp2007
(S'MPI_Init()'
p2008
S'26'
p2009
tp2010
a(S'MPI_Finalize()'
p2011
S'36'
p2012
tp2013
asS'challenges/hse-graph-part/algorithms/KaHIP-master/parallel/modified_kahip/lib/parallel_mh/parallel_mh_async.cpp'
p2014
(lp2015
(S'MPI_Comm_rank()'
p2016
S'30'
p2017
tp2018
a(S'MPI_Comm_size()'
p2019
S'31'
p2020
tp2021
a(S'MPI_Comm_rank()'
p2022
S'40'
p2023
tp2024
a(S'MPI_Comm_size()'
p2025
S'41'
p2026
tp2027
a(S'MPI_Isend()'
p2028
S'148'
p2029
tp2030
a(S'MPI_Recv()'
p2031
S'152'
p2032
tp2033
a(S'MPI_Allreduce()'
p2034
S'197'
p2035
tp2036
a(S'MPI_Allreduce()'
p2037
S'201'
p2038
tp2039
a(S'MPI_Allreduce()'
p2040
S'208'
p2041
tp2042
a(S'MPI_Allreduce()'
p2043
S'215'
p2044
tp2045
a(S'MPI_Bcast()'
p2046
S'216'
p2047
tp2048
asS'challenges/hse-graph-part/algorithms/KaHIP-updated/lib/parallel_mh/exchange/exchanger.cpp'
p2049
(lp2050
(S'MPI_Comm_rank()'
p2051
S'20'
p2052
tp2053
a(S'MPI_Comm_size()'
p2054
S'21'
p2055
tp2056
a(S'MPI_Barrier()'
p2057
S'39'
p2058
tp2059
a(S'MPI_Comm_rank()'
p2060
S'41'
p2061
tp2062
a(S'MPI_Iprobe()'
p2063
S'44'
p2064
tp2065
a(S'MPI_Get_count()'
p2066
S'48'
p2067
tp2068
a(S'MPI_Recv()'
p2069
S'52'
p2070
tp2071
a(S'MPI_Iprobe()'
p2072
S'55'
p2073
tp2074
a(S'MPI_Barrier()'
p2075
S'58'
p2076
tp2077
a(S'MPI_Cancel()'
p2078
S'60'
p2079
tp2080
a(S'MPI_Wait()'
p2081
S'65'
p2082
tp2083
a(S'MPI_Comm_rank()'
p2084
S'75'
p2085
tp2086
a(S'MPI_Comm_size()'
p2087
S'76'
p2088
tp2089
a(S'MPI_Bcast()'
p2090
S'84'
p2091
tp2092
a(S'MPI_Comm_size()'
p2093
S'115'
p2094
tp2095
a(S'MPI_Sendrecv()'
p2096
S'153'
p2097
tp2098
a(S'MPI_Comm_rank()'
p2099
S'173'
p2100
tp2101
a(S'MPI_Comm_size()'
p2102
S'174'
p2103
tp2104
a(S'MPI_Isend()'
p2105
S'219'
p2106
tp2107
a(S'MPI_Test()'
p2108
S'232'
p2109
tp2110
a(S'MPI_Comm_rank()'
p2111
S'249'
p2112
tp2113
a(S'MPI_Iprobe()'
p2114
S'252'
p2115
tp2116
a(S'MPI_Recv()'
p2117
S'261'
p2118
tp2119
a(S'MPI_Iprobe()'
p2120
S'292'
p2121
tp2122
asS'challenges/hse-graph-part/algorithms/KaHIP-master/parallel/parallel_src/lib/parallel_contraction_projection/parallel_contraction.cpp'
p2123
(lp2124
(S'MPI_Barrier()'
p2125
S'46'
p2126
tp2127
a(S'MPI_Comm_rank()'
p2128
S'63'
p2129
tp2130
a(S'MPI_Comm_size()'
p2131
S'64'
p2132
tp2133
a(S'MPI_Isend()'
p2134
S'93'
p2135
tp2136
a(S'X_MPI_UNSIGNED_LONG_LONG()'
p2137
S'95'
p2138
tp2139
a(S'MPI_Probe()'
p2140
S'111'
p2141
tp2142
a(S'MPI_Get_count()'
p2143
S'114'
p2144
tp2145
a(S'MPI_Recv()'
p2146
S'118'
p2147
tp2148
a(S'MPI_Scan()'
p2149
S'153'
p2150
tp2151
a(S'MPI_Bcast()'
p2152
S'157'
p2153
tp2154
a(S'MPI_Isend()'
p2155
S'193'
p2156
tp2157
a(S'X_MPI_UNSIGNED_LONG_LONG()'
p2158
S'195'
p2159
tp2160
a(S'MPI_Probe()'
p2161
S'209'
p2162
tp2163
a(S'MPI_Get_count()'
p2164
S'212'
p2165
tp2166
a(S'MPI_Recv()'
p2167
S'216'
p2168
tp2169
a(S'MPI_Comm_rank()'
p2170
S'232'
p2171
tp2172
a(S'MPI_Comm_size()'
p2173
S'233'
p2174
tp2175
a(S'MPI_Isend()'
p2176
S'271'
p2177
tp2178
a(S'MPI_Probe()'
p2179
S'282'
p2180
tp2181
a(S'MPI_Get_count()'
p2182
S'285'
p2183
tp2184
a(S'MPI_Recv()'
p2185
S'289'
p2186
tp2187
a(S'MPI_Comm_rank()'
p2188
S'340'
p2189
tp2190
a(S'MPI_Comm_size()'
p2191
S'341'
p2192
tp2193
a(S'MPI_Isend()'
p2194
S'373'
p2195
tp2196
a(S'X_MPI_UNSIGNED_LONG_LONG()'
p2197
S'375'
p2198
tp2199
a(S'MPI_Probe()'
p2200
S'398'
p2201
tp2202
a(S'MPI_Get_count()'
p2203
S'401'
p2204
tp2205
a(S'MPI_Recv()'
p2206
S'405'
p2207
tp2208
a(S'MPI_Allreduce()'
p2209
S'458'
p2210
tp2211
a(S'MPI_Isend()'
p2212
S'507'
p2213
tp2214
a(S'X_MPI_UNSIGNED_LONG_LONG()'
p2215
S'509'
p2216
tp2217
a(S'MPI_Probe()'
p2218
S'527'
p2219
tp2220
a(S'MPI_Get_count()'
p2221
S'530'
p2222
tp2223
a(S'MPI_Recv()'
p2224
S'534'
p2225
tp2226
a(S'MPI_Comm_rank()'
p2227
S'552'
p2228
tp2229
a(S'MPI_Comm_size()'
p2230
S'553'
p2231
tp2232
a(S'MPI_Isend()'
p2233
S'589'
p2234
tp2235
a(S'MPI_Probe()'
p2236
S'599'
p2237
tp2238
a(S'MPI_Get_count()'
p2239
S'602'
p2240
tp2241
a(S'MPI_Recv()'
p2242
S'606'
p2243
tp2244
asS'challenges/hse-graph-part/algorithms/KaHIP-updated/parallel/modified_kahip/lib/parallel_mh/parallel_mh_async.cpp'
p2245
(lp2246
(S'MPI_Comm_rank()'
p2247
S'30'
p2248
tp2249
a(S'MPI_Comm_size()'
p2250
S'31'
p2251
tp2252
a(S'MPI_Comm_rank()'
p2253
S'40'
p2254
tp2255
a(S'MPI_Comm_size()'
p2256
S'41'
p2257
tp2258
a(S'MPI_Isend()'
p2259
S'148'
p2260
tp2261
a(S'MPI_Recv()'
p2262
S'152'
p2263
tp2264
a(S'MPI_Allreduce()'
p2265
S'197'
p2266
tp2267
a(S'MPI_Allreduce()'
p2268
S'201'
p2269
tp2270
a(S'MPI_Allreduce()'
p2271
S'208'
p2272
tp2273
a(S'MPI_Allreduce()'
p2274
S'215'
p2275
tp2276
a(S'MPI_Bcast()'
p2277
S'216'
p2278
tp2279
asS'challenges/hse-graph-part/algorithms/KaHIP-master/parallel/modified_kahip/lib/parallel_mh/exchange/exchanger.cpp'
p2280
(lp2281
(S'MPI_Comm_rank()'
p2282
S'20'
p2283
tp2284
a(S'MPI_Comm_size()'
p2285
S'21'
p2286
tp2287
a(S'MPI_Barrier()'
p2288
S'39'
p2289
tp2290
a(S'MPI_Comm_rank()'
p2291
S'41'
p2292
tp2293
a(S'MPI_Iprobe()'
p2294
S'44'
p2295
tp2296
a(S'MPI_Get_count()'
p2297
S'48'
p2298
tp2299
a(S'MPI_Recv()'
p2300
S'52'
p2301
tp2302
a(S'MPI_Iprobe()'
p2303
S'55'
p2304
tp2305
a(S'MPI_Barrier()'
p2306
S'58'
p2307
tp2308
a(S'MPI_Cancel()'
p2309
S'60'
p2310
tp2311
a(S'MPI_Wait()'
p2312
S'65'
p2313
tp2314
a(S'MPI_Comm_rank()'
p2315
S'75'
p2316
tp2317
a(S'MPI_Comm_size()'
p2318
S'76'
p2319
tp2320
a(S'MPI_Bcast()'
p2321
S'84'
p2322
tp2323
a(S'MPI_Comm_size()'
p2324
S'115'
p2325
tp2326
a(S'MPI_Sendrecv()'
p2327
S'153'
p2328
tp2329
a(S'MPI_Comm_rank()'
p2330
S'173'
p2331
tp2332
a(S'MPI_Comm_size()'
p2333
S'174'
p2334
tp2335
a(S'MPI_Isend()'
p2336
S'217'
p2337
tp2338
a(S'MPI_Test()'
p2339
S'231'
p2340
tp2341
a(S'MPI_Comm_rank()'
p2342
S'248'
p2343
tp2344
a(S'MPI_Iprobe()'
p2345
S'251'
p2346
tp2347
a(S'MPI_Recv()'
p2348
S'260'
p2349
tp2350
a(S'MPI_Iprobe()'
p2351
S'291'
p2352
tp2353
asS'challenges/hse-graph-part/algorithms/KaHIP-updated/parallel/parallel_src/lib/parallel_contraction_projection/parallel_projection.cpp'
p2354
(lp2355
(S'MPI_Comm_rank()'
p2356
S'21'
p2357
tp2358
a(S'MPI_Comm_size()'
p2359
S'22'
p2360
tp2361
a(S'MPI_Isend()'
p2362
S'54'
p2363
tp2364
a(S'X_MPI_UNSIGNED_LONG_LONG()'
p2365
S'56'
p2366
tp2367
a(S'MPI_Probe()'
p2368
S'68'
p2369
tp2370
a(S'MPI_Get_count()'
p2371
S'71'
p2372
tp2373
a(S'MPI_Recv()'
p2374
S'75'
p2375
tp2376
a(S'MPI_Isend()'
p2377
S'83'
p2378
tp2379
a(S'X_MPI_UNSIGNED_LONG_LONG()'
p2380
S'85'
p2381
tp2382
a(S'MPI_Isend()'
p2383
S'98'
p2384
tp2385
a(S'X_MPI_UNSIGNED_LONG_LONG()'
p2386
S'100'
p2387
tp2388
a(S'MPI_Probe()'
p2389
S'109'
p2390
tp2391
a(S'MPI_Get_count()'
p2392
S'112'
p2393
tp2394
a(S'MPI_Recv()'
p2395
S'116'
p2396
tp2397
asS'challenges/hse-graph-part/algorithms/KaHIP-master/lib/parallel_mh/exchange/exchanger.cpp'
p2398
(lp2399
(S'MPI_Comm_rank()'
p2400
S'20'
p2401
tp2402
a(S'MPI_Comm_size()'
p2403
S'21'
p2404
tp2405
a(S'MPI_Barrier()'
p2406
S'39'
p2407
tp2408
a(S'MPI_Comm_rank()'
p2409
S'41'
p2410
tp2411
a(S'MPI_Iprobe()'
p2412
S'44'
p2413
tp2414
a(S'MPI_Get_count()'
p2415
S'48'
p2416
tp2417
a(S'MPI_Recv()'
p2418
S'52'
p2419
tp2420
a(S'MPI_Iprobe()'
p2421
S'55'
p2422
tp2423
a(S'MPI_Barrier()'
p2424
S'58'
p2425
tp2426
a(S'MPI_Cancel()'
p2427
S'60'
p2428
tp2429
a(S'MPI_Wait()'
p2430
S'65'
p2431
tp2432
a(S'MPI_Comm_rank()'
p2433
S'75'
p2434
tp2435
a(S'MPI_Comm_size()'
p2436
S'76'
p2437
tp2438
a(S'MPI_Bcast()'
p2439
S'84'
p2440
tp2441
a(S'MPI_Comm_size()'
p2442
S'115'
p2443
tp2444
a(S'MPI_Sendrecv()'
p2445
S'153'
p2446
tp2447
a(S'MPI_Comm_rank()'
p2448
S'173'
p2449
tp2450
a(S'MPI_Comm_size()'
p2451
S'174'
p2452
tp2453
a(S'MPI_Isend()'
p2454
S'219'
p2455
tp2456
a(S'MPI_Test()'
p2457
S'232'
p2458
tp2459
a(S'MPI_Comm_rank()'
p2460
S'249'
p2461
tp2462
a(S'MPI_Iprobe()'
p2463
S'252'
p2464
tp2465
a(S'MPI_Recv()'
p2466
S'261'
p2467
tp2468
a(S'MPI_Iprobe()'
p2469
S'292'
p2470
tp2471
asS'challenges/hse-graph-part/algorithms/KaHIP-updated/parallel/parallel_src/app/friendster_list_to_metis_graph.cpp'
p2472
(lp2473
(S'MPI_Init()'
p2474
S'26'
p2475
tp2476
a(S'MPI_Finalize()'
p2477
S'35'
p2478
tp2479
asS'challenges/hse-graph-part/algorithms/KaHIP-updated/parallel/parallel_src/app/parhip.cpp'
p2480
(lp2481
(S'MPI_Init()'
p2482
S'33'
p2483
tp2484
a(S'MPI_Finalize()'
p2485
S'43'
p2486
tp2487
a(S'MPI_Comm_rank()'
p2488
S'49'
p2489
tp2490
a(S'MPI_Comm_size()'
p2491
S'50'
p2492
tp2493
a(S'MPI_Barrier()'
p2494
S'53'
p2495
tp2496
a(S'MPI_Barrier()'
p2497
S'60'
p2498
tp2499
a(S'MPI_Comm_rank()'
p2500
S'67'
p2501
tp2502
a(S'MPI_Comm_size()'
p2503
S'68'
p2504
tp2505
a(S'MPI_Reduce()'
p2506
S'111'
p2507
tp2508
a(S'MPI_Reduce()'
p2509
S'112'
p2510
tp2511
a(S'MPI_Allreduce()'
p2512
S'113'
p2513
tp2514
a(S'MPI_Barrier()'
p2515
S'143'
p2516
tp2517
a(S'MPI_Iprobe()'
p2518
S'168'
p2519
tp2520
a(S'MPI_Get_count()'
p2521
S'172'
p2522
tp2523
a(S'MPI_Recv()'
p2524
S'175'
p2525
tp2526
a(S'MPI_Iprobe()'
p2527
S'176'
p2528
tp2529
a(S'MPI_Barrier()'
p2530
S'193'
p2531
tp2532
a(S'MPI_Finalize()'
p2533
S'194'
p2534
tp2535
as.