ccollections
defaultdict
p0
(c__builtin__
list
p1
tp2
Rp3
S'CPD-PD3//P3_V2.cpp'
p4
(lp5
(S'MPI_Init()'
p6
S'16'
p7
tp8
a(S'MPI_Comm_rank()'
p9
S'17'
p10
tp11
a(S'MPI_Comm_size()'
p12
S'18'
p13
tp14
a(S'MPI_Abort()'
p15
S'23'
p16
tp17
a(S'MPI_Bcast()'
p18
S'32'
p19
tp20
a(S'MPI_Barrier()'
p21
S'33'
p22
tp23
a(S'MPI_Barrier()'
p24
S'61'
p25
tp26
a(S'MPI_Wtime()'
p27
S'64'
p28
tp29
a(S'MPI_Bcast()'
p30
S'66'
p31
tp32
a(S'MPI_Scatter()'
p33
S'67'
p34
tp35
a(S'MPI_Barrier()'
p36
S'69'
p37
tp38
a(S'MPI_Wtime()'
p39
S'71'
p40
tp41
a(S'MPI_Barrier()'
p42
S'84'
p43
tp44
a(S'MPI_Wtime()'
p45
S'86'
p46
tp47
a(S'MPI_Gather()'
p48
S'88'
p49
tp50
a(S'MPI_Barrier()'
p51
S'90'
p52
tp53
a(S'MPI_Wtime()'
p54
S'92'
p55
tp56
a(S'MPI_Finalize()'
p57
S'101'
p58
tp59
as.