ccollections
defaultdict
p0
(c__builtin__
list
p1
tp2
Rp3
S'Connected-Components//a1.hpp'
p4
(lp5
(S'MPI_Comm_rank()'
p6
S'15'
p7
tp8
a(S'MPI_Barrier()'
p9
S'40'
p10
tp11
a(S'MPI_Barrier()'
p12
S'49'
p13
tp14
a(S'MPI_Barrier()'
p15
S'62'
p16
tp17
a(S'MPI_Comm_split()'
p18
S'63'
p19
tp20
a(S'MPI_Allreduce()'
p21
S'64'
p22
tp23
a(S'MPI_Comm_free()'
p24
S'65'
p25
tp26
a(S'MPI_Barrier()'
p27
S'66'
p28
tp29
a(S'MPI_Barrier()'
p30
S'72'
p31
tp32
a(S'MPI_Barrier()'
p33
S'81'
p34
tp35
a(S'MPI_Barrier()'
p36
S'93'
p37
tp38
a(S'MPI_Barrier()'
p39
S'102'
p40
tp41
a(S'MPI_Barrier()'
p42
S'114'
p43
tp44
a(S'MPI_Comm_split()'
p45
S'115'
p46
tp47
a(S'MPI_Allreduce()'
p48
S'116'
p49
tp50
a(S'MPI_Barrier()'
p51
S'126'
p52
tp53
a(S'MPI_Barrier()'
p54
S'141'
p55
tp56
a(S'MPI_Barrier()'
p57
S'150'
p58
tp59
a(S'MPI_Barrier()'
p60
S'161'
p61
tp62
a(S'MPI_Comm_split()'
p63
S'162'
p64
tp65
a(S'MPI_Allreduce()'
p66
S'163'
p67
tp68
a(S'MPI_Barrier()'
p69
S'164'
p70
tp71
a(S'MPI_Barrier()'
p72
S'173'
p73
tp74
a(S'MPI_Barrier()'
p75
S'188'
p76
tp77
a(S'MPI_Barrier()'
p78
S'197'
p79
tp80
a(S'MPI_Barrier()'
p81
S'208'
p82
tp83
a(S'MPI_Comm_split()'
p84
S'209'
p85
tp86
a(S'MPI_Allreduce()'
p87
S'210'
p88
tp89
a(S'MPI_Barrier()'
p90
S'211'
p91
tp92
a(S'MPI_Barrier()'
p93
S'220'
p94
tp95
a(S'MPI_Barrier()'
p96
S'234'
p97
tp98
a(S'MPI_Barrier()'
p99
S'244'
p100
tp101
asS'Connected-Components//a1.cpp'
p102
(lp103
(S'MPI_Comm_rank()'
p104
S'17'
p105
tp106
a(S'MPI_Recv()'
p107
S'52'
p108
tp109
a(S'MPI_Init()'
p110
S'75'
p111
tp112
a(S'MPI_Comm_size()'
p113
S'76'
p114
tp115
a(S'MPI_Comm_rank()'
p116
S'77'
p117
tp118
a(S'MPI_Comm_split()'
p119
S'120'
p120
tp121
a(S'MPI_Barrier()'
p122
S'127'
p123
tp124
a(S'MPI_Barrier()'
p125
S'132'
p126
tp127
a(S'MPI_Comm_free()'
p128
S'141'
p129
tp130
as.