ccollections
defaultdict
p0
(c__builtin__
list
p1
tp2
Rp3
S'eager-SGD/eager-SGD-modules/fflib2/evaluation/allreduce_buffers_fflib_managed.c'
p4
(lp5
(S'MPI_Barrier()'
p6
S'42'
p7
tp8
asS'eager-SGD/eager-SGD-modules/fflib2/evaluation/ping_pong_schedule.c'
p9
(lp10
(S'MPI_Barrier()'
p11
S'62'
p12
tp13
asS'eager-SGD/eager-SGD-modules/fflib2/src/components/mpi/ffop_mpi_recv.c'
p14
(lp15
(S'MPI_Irecv()'
p16
S'34'
p17
tp18
a(S'MPI_Wait()'
p19
S'43'
p20
tp21
a(S'MPI_Test()'
p22
S'48'
p23
tp24
a(S'MPI_Cancel()'
p25
S'58'
p26
tp27
a(S'MPI_Wait()'
p28
S'61'
p29
tp30
asS'eager-SGD/eager-SGD-modules/fflib2/evaluation/ssgd.c'
p31
(lp32
(S'MPI_Init()'
p33
S'54'
p34
tp35
a(S'MPI_Comm_rank()'
p36
S'55'
p37
tp38
a(S'MPI_Comm_size()'
p39
S'56'
p40
tp41
a(S'MPI_Barrier()'
p42
S'61'
p43
tp44
a(S'MPI_Wtime()'
p45
S'75'
p46
tp47
a(S'MPI_Allreduce()'
p48
S'77'
p49
tp50
a(S'MPI_Wtime()'
p51
S'79'
p52
tp53
a(S'MPI_Reduce()'
p54
S'93'
p55
tp56
a(S'MPI_Barrier()'
p57
S'96'
p58
tp59
a(S'MPI_Barrier()'
p60
S'99'
p61
tp62
a(S'MPI_Finalize()'
p63
S'108'
p64
tp65
asS'eager-SGD/eager-SGD-modules/fflib2/src/components/mpi/ffop_mpi_progresser.c'
p66
(lp67
(S'MPI_Request_get_status()'
p68
S'50'
p69
tp70
a(S'MPI_Testsome()'
p71
S'85'
p72
tp73
asS'eager-SGD/eager-SGD-modules/fflib2/evaluation/solo_allreduce_correctness.c'
p74
(lp75
(S'MPI_Barrier()'
p76
S'72'
p77
tp78
a(S'MPI_Barrier()'
p79
S'82'
p80
tp81
a(S'MPI_Barrier()'
p82
S'85'
p83
tp84
a(S'MPI_Allreduce()'
p85
S'87'
p86
tp87
a(S'MPI_Barrier()'
p88
S'98'
p89
tp90
a(S'MPI_Barrier()'
p91
S'101'
p92
tp93
asS'eager-SGD/eager-SGD-modules/fflib2/evaluation/allreduce_buffers_user_managed.c'
p94
(lp95
(S'MPI_Barrier()'
p96
S'43'
p97
tp98
asS'eager-SGD/eager-SGD-modules/fflib2/evaluation/rand_allreduce.c'
p99
(lp100
(S'MPI_Barrier()'
p101
S'52'
p102
tp103
a(S'MPI_Barrier()'
p104
S'74'
p105
tp106
asS'eager-SGD/eager-SGD-modules/deep500/deep500/frameworks/caffe2/support/mpi_operations.cc'
p107
(lp108
(S'MPI_Comm_size()'
p109
S'26'
p110
tp111
a(S'MPI_Comm_rank()'
p112
S'27'
p113
tp114
a(S'MPI_Allreduce()'
p115
S'41'
p116
tp117
a(S'MPI_Comm_size()'
p118
S'71'
p119
tp120
a(S'MPI_Comm_rank()'
p121
S'72'
p122
tp123
a(S'MPI_Allreduce()'
p124
S'86'
p125
tp126
a(S'MPI_Comm_size()'
p127
S'124'
p128
tp129
a(S'MPI_Comm_rank()'
p130
S'125'
p131
tp132
a(S'MPI_Reduce()'
p133
S'139'
p134
tp135
a(S'MPI_Comm_size()'
p136
S'180'
p137
tp138
a(S'MPI_Comm_rank()'
p139
S'181'
p140
tp141
a(S'MPI_Gather()'
p142
S'194'
p143
tp144
a(S'MPI_Comm_size()'
p145
S'225'
p146
tp147
a(S'MPI_Comm_rank()'
p148
S'226'
p149
tp150
a(S'MPI_Bcast()'
p151
S'237'
p152
tp153
a(S'MPI_Comm_size()'
p154
S'268'
p155
tp156
a(S'MPI_Comm_rank()'
p157
S'269'
p158
tp159
a(S'MPI_Recv()'
p160
S'275'
p161
tp162
a(S'MPI_Comm_size()'
p163
S'314'
p164
tp165
a(S'MPI_Comm_rank()'
p166
S'315'
p167
tp168
a(S'MPI_Send()'
p169
S'320'
p170
tp171
asS'eager-SGD/eager-SGD-modules/fflib2/evaluation/rsgd.c'
p172
(lp173
(S'MPI_Barrier()'
p174
S'71'
p175
tp176
a(S'MPI_Wtime()'
p177
S'90'
p178
tp179
a(S'MPI_Wtime()'
p180
S'95'
p181
tp182
a(S'MPI_Reduce()'
p183
S'109'
p184
tp185
a(S'MPI_Barrier()'
p186
S'112'
p187
tp188
a(S'MPI_Barrier()'
p189
S'115'
p190
tp191
asS'eager-SGD/eager-SGD-modules/fflib2/evaluation/allreduce_buffers_fflib_managed_inplace.c'
p192
(lp193
(S'MPI_Barrier()'
p194
S'44'
p195
tp196
asS'eager-SGD/eager-SGD-modules/fflib2/src/components/mpi/ffop_mpi_send.c'
p197
(lp198
(S'MPI_Isend()'
p199
S'39'
p200
tp201
a(S'MPI_Wait()'
p202
S'52'
p203
tp204
a(S'MPI_Test()'
p205
S'57'
p206
tp207
a(S'MPI_Cancel()'
p208
S'68'
p209
tp210
a(S'MPI_Wait()'
p211
S'71'
p212
tp213
asS'eager-SGD/eager-SGD-modules/fflib2/evaluation/ssgd_synch_recv.c'
p214
(lp215
(S'MPI_Barrier()'
p216
S'68'
p217
tp218
a(S'MPI_Barrier()'
p219
S'110'
p220
tp221
a(S'MPI_Barrier()'
p222
S'113'
p223
tp224
a(S'MPI_Barrier()'
p225
S'133'
p226
tp227
a(S'MPI_Barrier()'
p228
S'151'
p229
tp230
a(S'MPI_Barrier()'
p231
S'154'
p232
tp233
a(S'MPI_Barrier()'
p234
S'191'
p235
tp236
asS'eager-SGD/test-models/tf-models-r1.11/official/utils/opt_esgd_solo_imagenet_imbalance.py'
p237
(lp238
(S'MPI_Barrier()'
p239
S'295'
p240
tp241
asS'eager-SGD/eager-SGD-modules/fflib2/evaluation/allreduce_buffers_user_managed_callback.c'
p242
(lp243
(S'MPI_Barrier()'
p244
S'70'
p245
tp246
asS'eager-SGD/eager-SGD-modules/fflib2/evaluation/ping_modify_pong.c'
p247
(lp248
(S'MPI_Barrier()'
p249
S'59'
p250
tp251
asS'eager-SGD/eager-SGD-modules/fflib2/evaluation/allreduce_inplace.c'
p252
(lp253
(S'MPI_Barrier()'
p254
S'36'
p255
tp256
asS'eager-SGD/test-models/tf-models-r1.11/official/utils/opt_esgd_majority_imagenet_imbalance.py'
p257
(lp258
(S'MPI_Barrier()'
p259
S'296'
p260
tp261
asS'eager-SGD/test-models/tf-models-r1.11/official/utils/opt_sgd_mpi.py'
p262
(lp263
(S'MPI_Comm_rank()'
p264
S'102'
p265
tp266
a(S'MPI_Comm_size()'
p267
S'103'
p268
tp269
a(S'MPI_Allreduce()'
p270
S'105'
p271
tp272
a(S'MPI_Initialized()'
p273
S'125'
p274
tp275
a(S'MPI_Init()'
p276
S'127'
p277
tp278
asS'eager-SGD/eager-SGD-modules/fflib2/evaluation/ping_pong_dep.c'
p279
(lp280
(S'MPI_Barrier()'
p281
S'61'
p282
tp283
asS'eager-SGD/eager-SGD-modules/fflib2/evaluation/send_recv.c'
p284
(lp285
(S'MPI_Barrier()'
p286
S'43'
p287
tp288
asS'eager-SGD/eager-SGD-modules/fflib2/benchmark/allreduce.c'
p289
(lp290
(S'MPI_Barrier()'
p291
S'53'
p292
tp293
a(S'MPI_Barrier()'
p294
S'62'
p295
tp296
a(S'MPI_Allreduce()'
p297
S'67'
p298
tp299
a(S'MPI_Barrier()'
p300
S'76'
p301
tp302
a(S'MPI_Barrier()'
p303
S'77'
p304
tp305
a(S'MPI_Barrier()'
p306
S'78'
p307
tp308
a(S'MPI_Allreduce()'
p309
S'87'
p310
tp311
asS'eager-SGD/eager-SGD-modules/fflib2/evaluation/ssgd_synch_send.c'
p312
(lp313
(S'MPI_Barrier()'
p314
S'68'
p315
tp316
a(S'MPI_Barrier()'
p317
S'110'
p318
tp319
a(S'MPI_Barrier()'
p320
S'113'
p321
tp322
a(S'MPI_Barrier()'
p323
S'120'
p324
tp325
a(S'MPI_Barrier()'
p326
S'151'
p327
tp328
a(S'MPI_Barrier()'
p329
S'154'
p330
tp331
a(S'MPI_Barrier()'
p332
S'191'
p333
tp334
asS'eager-SGD/eager-SGD-modules/fflib2/evaluation/rsgd_synch_recv.c'
p335
(lp336
(S'MPI_Barrier()'
p337
S'71'
p338
tp339
a(S'MPI_Barrier()'
p340
S'107'
p341
tp342
a(S'MPI_Barrier()'
p343
S'110'
p344
tp345
a(S'MPI_Barrier()'
p346
S'129'
p347
tp348
a(S'MPI_Barrier()'
p349
S'148'
p350
tp351
a(S'MPI_Barrier()'
p352
S'151'
p353
tp354
a(S'MPI_Barrier()'
p355
S'187'
p356
tp357
asS'eager-SGD/eager-SGD-modules/fflib2/evaluation/solo_allreduce_single.c'
p358
(lp359
(S'MPI_Barrier()'
p360
S'41'
p361
tp362
a(S'MPI_Ibarrier()'
p363
S'50'
p364
tp365
a(S'MPI_Wait()'
p366
S'51'
p367
tp368
a(S'MPI_Ibarrier()'
p369
S'55'
p370
tp371
a(S'MPI_Test()'
p372
S'62'
p373
tp374
asS'eager-SGD/eager-SGD-modules/fflib2/src/components/mpi/ffmpi.c'
p375
(lp376
(S'MPI_Initialized()'
p377
S'14'
p378
tp379
a(S'MPI_Init_thread()'
p380
S'19'
p381
tp382
a(S'MPI_Comm_rank()'
p383
S'40'
p384
tp385
a(S'MPI_Comm_size()'
p386
S'45'
p387
tp388
asS'eager-SGD/eager-SGD-modules/fflib2/src/ffprogress.c'
p389
(lp390
(S'MPI_Barrier()'
p391
S'62'
p392
tp393
asS'eager-SGD/eager-SGD-modules/fflib2/evaluation/rand_allreduce_correctness.c'
p394
(lp395
(S'MPI_Barrier()'
p396
S'74'
p397
tp398
a(S'MPI_Barrier()'
p399
S'84'
p400
tp401
a(S'MPI_Barrier()'
p402
S'87'
p403
tp404
a(S'MPI_Allreduce()'
p405
S'89'
p406
tp407
a(S'MPI_Barrier()'
p408
S'100'
p409
tp410
a(S'MPI_Barrier()'
p411
S'103'
p412
tp413
asS'eager-SGD/eager-SGD-modules/fflib2/evaluation/solo_allreduce_multiple.c'
p414
(lp415
(S'MPI_Barrier()'
p416
S'53'
p417
tp418
a(S'MPI_Barrier()'
p419
S'76'
p420
tp421
asS'eager-SGD/eager-SGD-modules/fflib2/evaluation/allreduce_buffers_user_managed_inplace.c'
p422
(lp423
(S'MPI_Barrier()'
p424
S'41'
p425
tp426
asS'eager-SGD/eager-SGD-modules/fflib2/evaluation/rsgd_synch_send.c'
p427
(lp428
(S'MPI_Barrier()'
p429
S'71'
p430
tp431
a(S'MPI_Barrier()'
p432
S'107'
p433
tp434
a(S'MPI_Barrier()'
p435
S'110'
p436
tp437
a(S'MPI_Barrier()'
p438
S'117'
p439
tp440
a(S'MPI_Barrier()'
p441
S'147'
p442
tp443
a(S'MPI_Barrier()'
p444
S'150'
p445
tp446
a(S'MPI_Barrier()'
p447
S'186'
p448
tp449
asS'eager-SGD/eager-SGD-modules/fflib2/evaluation/activation_tree_multiple.c'
p450
(lp451
(S'MPI_Barrier()'
p452
S'49'
p453
tp454
a(S'MPI_Barrier()'
p455
S'54'
p456
tp457
a(S'MPI_Barrier()'
p458
S'62'
p459
tp460
a(S'MPI_Barrier()'
p461
S'64'
p462
tp463
a(S'MPI_Barrier()'
p464
S'69'
p465
tp466
asS'eager-SGD/eager-SGD-modules/fflib2/src/components/mpi/ffop_mpi.c'
p467
(lp468
(S'X_MPI_INT()'
p469
S'5'
p470
tp471
a(S'X_MPI_LONG_LONG()'
p472
S'6'
p473
tp474
a(S'X_MPI_DOUBLE()'
p475
S'7'
p476
tp477
a(S'X_MPI_FLOAT()'
p478
S'8'
p479
tp480
asS'eager-SGD/eager-SGD-modules/fflib2/evaluation/allreduce.c'
p481
(lp482
(S'MPI_Comm_get_attr()'
p483
S'35'
p484
tp485
a(S'MPI_Barrier()'
p486
S'44'
p487
tp488
asS'eager-SGD/eager-SGD-modules/fflib2/evaluation/randomsgd.c'
p489
(lp490
(S'MPI_Barrier()'
p491
S'72'
p492
tp493
a(S'MPI_Wtime()'
p494
S'90'
p495
tp496
a(S'MPI_Wtime()'
p497
S'95'
p498
tp499
a(S'MPI_Reduce()'
p500
S'109'
p501
tp502
a(S'MPI_Barrier()'
p503
S'112'
p504
tp505
a(S'MPI_Barrier()'
p506
S'115'
p507
tp508
as.