ccollections
defaultdict
p0
(c__builtin__
list
p1
tp2
Rp3
S'hpc_lecture_2021/12_profiler/02_mpi_nbody.cpp'
p4
(lp5
(S'MPI_Init()'
p6
S'12'
p7
tp8
a(S'MPI_Comm_size()'
p9
S'14'
p10
tp11
a(S'MPI_Comm_rank()'
p12
S'15'
p13
tp14
a(S'MPI_Type_contiguous()'
p15
S'26'
p16
tp17
a(S'MPI_Type_commit()'
p18
S'27'
p19
tp20
a(S'MPI_Win_create()'
p21
S'29'
p22
tp23
a(S'MPI_Win_fence()'
p24
S'33'
p25
tp26
a(S'MPI_Put()'
p27
S'34'
p28
tp29
a(S'MPI_Win_fence()'
p30
S'35'
p31
tp32
a(S'MPI_Barrier()'
p33
S'50'
p34
tp35
a(S'MPI_Finalize()'
p36
S'57'
p37
tp38
asS'hpc_lecture_2021/10_io/08_mpi_io_write_view.cpp'
p39
(lp40
(S'MPI_Init()'
p41
S'11'
p42
tp43
a(S'MPI_Comm_size()'
p44
S'12'
p45
tp46
a(S'MPI_Comm_rank()'
p47
S'13'
p48
tp49
a(S'MPI_File_open()'
p50
S'17'
p51
tp52
a(S'MPI_File_set_view()'
p53
S'18'
p54
tp55
a(S'MPI_File_write()'
p56
S'20'
p57
tp58
a(S'MPI_File_close()'
p59
S'22'
p60
tp61
a(S'MPI_Finalize()'
p62
S'25'
p63
tp64
asS'hpc_lecture_2021/03_mpi/07_jloop.cpp'
p65
(lp66
(S'MPI_Init()'
p67
S'9'
p68
tp69
a(S'MPI_Comm_size()'
p70
S'11'
p71
tp72
a(S'MPI_Comm_rank()'
p73
S'12'
p74
tp75
a(S'MPI_Allgather()'
p76
S'23'
p77
tp78
a(S'MPI_Allgather()'
p79
S'24'
p80
tp81
a(S'MPI_Allgather()'
p82
S'25'
p83
tp84
a(S'MPI_Allgather()'
p85
S'26'
p86
tp87
a(S'MPI_Allgather()'
p88
S'27'
p89
tp90
a(S'MPI_Allreduce()'
p91
S'39'
p92
tp93
a(S'MPI_Allreduce()'
p94
S'40'
p95
tp96
a(S'MPI_Finalize()'
p97
S'44'
p98
tp99
asS'hpc_lecture_2021/03_mpi/11_distributed.cpp'
p100
(lp101
(S'MPI_Init()'
p102
S'12'
p103
tp104
a(S'MPI_Comm_size()'
p105
S'14'
p106
tp107
a(S'MPI_Comm_rank()'
p108
S'15'
p109
tp110
a(S'MPI_Type_contiguous()'
p111
S'27'
p112
tp113
a(S'MPI_Type_commit()'
p114
S'28'
p115
tp116
a(S'MPI_Send()'
p117
S'30'
p118
tp119
a(S'MPI_Recv()'
p120
S'31'
p121
tp122
a(S'MPI_Barrier()'
p123
S'45'
p124
tp125
a(S'MPI_Finalize()'
p126
S'52'
p127
tp128
asS'hpc_lecture_2021/03_mpi/12_non_blocking.cpp'
p129
(lp130
(S'MPI_Init()'
p131
S'6'
p132
tp133
a(S'MPI_Comm_size()'
p134
S'8'
p135
tp136
a(S'MPI_Comm_rank()'
p137
g68
tp138
a(S'MPI_Isend()'
p139
S'19'
p140
tp141
a(S'MPI_Irecv()'
p142
S'20'
p143
tp144
a(S'MPI_Waitall()'
p145
S'21'
p146
tp147
a(S'MPI_Finalize()'
p148
S'24'
p149
tp150
asS'hpc_lecture_2021/10_io/07_mpi_io_read.cpp'
p151
(lp152
(S'MPI_Init()'
p153
S'11'
p154
tp155
a(S'MPI_Comm_size()'
p156
S'12'
p157
tp158
a(S'MPI_Comm_rank()'
p159
S'13'
p160
tp161
a(S'MPI_File_open()'
p162
S'14'
p163
tp164
a(S'MPI_File_get_size()'
p165
S'15'
p166
tp167
a(S'MPI_File_read_at()'
p168
S'21'
p169
tp170
a(S'MPI_File_close()'
p171
S'23'
p172
tp173
a(S'MPI_Finalize()'
p174
S'30'
p175
tp176
asS'hpc_lecture_2021/10_io/09_mpi_io_read_view.cpp'
p177
(lp178
(S'MPI_Init()'
p179
S'11'
p180
tp181
a(S'MPI_Comm_size()'
p182
S'12'
p183
tp184
a(S'MPI_Comm_rank()'
p185
S'13'
p186
tp187
a(S'MPI_File_open()'
p188
S'14'
p189
tp190
a(S'MPI_File_get_size()'
p191
S'15'
p192
tp193
a(S'MPI_File_set_view()'
p194
S'20'
p195
tp196
a(S'MPI_File_read()'
p197
S'22'
p198
tp199
a(S'MPI_File_close()'
p200
S'24'
p201
tp202
a(S'MPI_Finalize()'
p203
S'31'
p204
tp205
asS'hpc_lecture_2021/11_debugger/07_put.cpp'
p206
(lp207
(S'MPI_Init()'
p208
S'7'
p209
tp210
a(S'MPI_Comm_size()'
p211
g68
tp212
a(S'MPI_Comm_rank()'
p213
S'10'
p214
tp215
a(S'MPI_Win_create()'
p216
S'20'
p217
tp218
a(S'MPI_Win_fence()'
p219
S'21'
p220
tp221
a(S'MPI_Put()'
p222
S'22'
p223
tp224
a(S'MPI_Win_fence()'
p225
S'23'
p226
tp227
a(S'MPI_Win_free()'
p228
S'24'
p229
tp230
a(S'MPI_Finalize()'
p231
S'25'
p232
tp233
asS'hpc_lecture_2021/10_io/16_phdf5_write.cpp'
p234
(lp235
(S'MPI_Init()'
p236
S'12'
p237
tp238
a(S'MPI_Comm_size()'
p239
S'13'
p240
tp241
a(S'MPI_Comm_rank()'
p242
S'14'
p243
tp244
a(S'MPI_Finalize()'
p245
S'44'
p246
tp247
asS'hpc_lecture_2021/16_final_report/example.cpp'
p248
(lp249
(S'MPI_Init()'
p250
S'10'
p251
tp252
a(S'MPI_Comm_size()'
p253
S'11'
p254
tp255
a(S'MPI_Comm_rank()'
p256
S'12'
p257
tp258
a(S'MPI_Send()'
p259
S'47'
p260
tp261
a(S'MPI_Recv()'
p262
S'48'
p263
tp264
a(S'MPI_Allgather()'
p265
S'52'
p266
tp267
a(S'MPI_Finalize()'
p268
S'69'
p269
tp270
asS'hpc_lecture_2021/03_mpi/13_one_sided.cpp'
p271
(lp272
(S'MPI_Init()'
p273
g132
tp274
a(S'MPI_Comm_size()'
p275
g135
tp276
a(S'MPI_Comm_rank()'
p277
g68
tp278
a(S'MPI_Win_create()'
p279
S'18'
p280
tp281
a(S'MPI_Win_fence()'
p282
S'19'
p283
tp284
a(S'MPI_Put()'
p285
S'20'
p286
tp287
a(S'MPI_Win_fence()'
p288
S'21'
p289
tp290
a(S'MPI_Win_free()'
p291
S'24'
p292
tp293
a(S'MPI_Finalize()'
p294
S'25'
p295
tp296
asS'hpc_lecture_2021/10_io/17_phdf5_read.cpp'
p297
(lp298
(S'MPI_Init()'
p299
S'11'
p300
tp301
a(S'MPI_Comm_size()'
p302
S'12'
p303
tp304
a(S'MPI_Comm_rank()'
p305
S'13'
p306
tp307
a(S'MPI_Finalize()'
p308
S'49'
p309
tp310
asS'hpc_lecture_2021/03_mpi/09_derived_reduce.cpp'
p311
(lp312
(S'MPI_Init()'
p313
S'20'
p314
tp315
a(S'MPI_Comm_size()'
p316
S'22'
p317
tp318
a(S'MPI_Comm_rank()'
p319
S'23'
p320
tp321
a(S'MPI_Type_contiguous()'
p322
S'35'
p323
tp324
a(S'MPI_Type_commit()'
p325
S'36'
p326
tp327
a(S'MPI_Allgather()'
p328
S'37'
p329
tp330
a(S'MPI_Type_indexed()'
p331
S'51'
p332
tp333
a(S'MPI_Type_create_resized()'
p334
S'52'
p335
tp336
a(S'MPI_Type_commit()'
p337
S'53'
p338
tp339
a(S'MPI_Op_create()'
p340
S'55'
p341
tp342
a(S'MPI_Allreduce()'
p343
S'56'
p344
tp345
a(S'MPI_Op_free()'
p346
S'60'
p347
tp348
a(S'MPI_Finalize()'
p349
S'61'
p350
tp351
asS'hpc_lecture_2021/10_io/04_mpi_write.cpp'
p352
(lp353
(S'MPI_Init()'
p354
S'11'
p355
tp356
a(S'MPI_Comm_size()'
p357
S'12'
p358
tp359
a(S'MPI_Comm_rank()'
p360
S'13'
p361
tp362
a(S'MPI_Finalize()'
p363
S'25'
p364
tp365
asS'hpc_lecture_2021/12_profiler/timers.h'
p366
(lp367
(S'MPI_Wtime()'
p368
S'55'
p369
tp370
asS'hpc_lecture_2021/03_mpi/10_ring.cpp'
p371
(lp372
(S'MPI_Init()'
p373
S'5'
p374
tp375
a(S'MPI_Comm_size()'
p376
g209
tp377
a(S'MPI_Comm_rank()'
p378
g135
tp379
a(S'MPI_Send()'
p380
S'17'
p381
tp382
a(S'MPI_Recv()'
p383
S'18'
p384
tp385
a(S'MPI_Finalize()'
p386
S'21'
p387
tp388
asS'hpc_lecture_2021/11_debugger/05_ssend.cpp'
p389
(lp390
(S'MPI_Init()'
p391
g374
tp392
a(S'MPI_Comm_size()'
p393
g209
tp394
a(S'MPI_Comm_rank()'
p395
g135
tp396
a(S'MPI_Ssend()'
p397
S'17'
p398
tp399
a(S'MPI_Recv()'
p400
S'18'
p401
tp402
a(S'MPI_Finalize()'
p403
S'21'
p404
tp405
asS'hpc_lecture_2021/03_mpi/02_split.cpp'
p406
(lp407
(S'MPI_Init()'
p408
g135
tp409
a(S'MPI_Comm_size()'
p410
S'10'
p411
tp412
a(S'MPI_Comm_rank()'
p413
S'11'
p414
tp415
a(S'MPI_Finalize()'
p416
S'22'
p417
tp418
asS'hpc_lecture_2021/03_mpi/06_iloop.cpp'
p419
(lp420
(S'MPI_Init()'
p421
g68
tp422
a(S'MPI_Comm_size()'
p423
S'11'
p424
tp425
a(S'MPI_Comm_rank()'
p426
S'12'
p427
tp428
a(S'MPI_Allgather()'
p429
S'23'
p430
tp431
a(S'MPI_Allgather()'
p432
S'24'
p433
tp434
a(S'MPI_Allgather()'
p435
S'25'
p436
tp437
a(S'MPI_Allgather()'
p438
S'26'
p439
tp440
a(S'MPI_Allgather()'
p441
S'27'
p442
tp443
a(S'MPI_Allgather()'
p444
S'39'
p445
tp446
a(S'MPI_Allgather()'
p447
S'40'
p448
tp449
a(S'MPI_Finalize()'
p450
S'44'
p451
tp452
asS'hpc_lecture_2021/06_cuda/10_mpi.cu'
p453
(lp454
(S'MPI_Init()'
p455
S'12'
p456
tp457
a(S'MPI_Comm_size()'
p458
S'13'
p459
tp460
a(S'MPI_Comm_rank()'
p461
S'14'
p462
tp463
a(S'MPI_Get_processor_name()'
p464
S'15'
p465
tp466
a(S'MPI_Barrier()'
p467
S'20'
p468
tp469
a(S'MPI_Finalize()'
p470
S'29'
p471
tp472
asS'hpc_lecture_2021/03_mpi/00_hello.cpp'
p473
(lp474
(S'MPI_Init()'
p475
g374
tp476
a(S'MPI_Comm_size()'
p477
g209
tp478
a(S'MPI_Comm_rank()'
p479
g135
tp480
a(S'MPI_Finalize()'
p481
S'10'
p482
tp483
asS'hpc_lecture_2021/10_io/06_mpi_io_write.cpp'
p484
(lp485
(S'MPI_Init()'
p486
S'11'
p487
tp488
a(S'MPI_Comm_size()'
p489
S'12'
p490
tp491
a(S'MPI_Comm_rank()'
p492
S'13'
p493
tp494
a(S'MPI_File_open()'
p495
S'17'
p496
tp497
a(S'MPI_File_write_at()'
p498
S'19'
p499
tp500
a(S'MPI_File_close()'
p501
S'21'
p502
tp503
a(S'MPI_Finalize()'
p504
S'24'
p505
tp506
asS'hpc_lecture_2021/10_io/05_mpi_read.cpp'
p507
(lp508
(S'MPI_Init()'
p509
S'10'
p510
tp511
a(S'MPI_Comm_size()'
p512
S'11'
p513
tp514
a(S'MPI_Comm_rank()'
p515
S'12'
p516
tp517
a(S'MPI_Finalize()'
p518
S'29'
p519
tp520
asS'hpc_lecture_2021/10_io/11_mpi_io_read_all.cpp'
p521
(lp522
(S'MPI_Init()'
p523
S'11'
p524
tp525
a(S'MPI_Comm_size()'
p526
S'12'
p527
tp528
a(S'MPI_Comm_rank()'
p529
S'13'
p530
tp531
a(S'MPI_File_open()'
p532
S'14'
p533
tp534
a(S'MPI_File_get_size()'
p535
S'15'
p536
tp537
a(S'MPI_File_set_view()'
p538
S'20'
p539
tp540
a(S'MPI_File_read_all()'
p541
S'22'
p542
tp543
a(S'MPI_File_close()'
p544
S'24'
p545
tp546
a(S'MPI_Finalize()'
p547
S'31'
p548
tp549
asS'hpc_lecture_2021/11_debugger/06_isend.cpp'
p550
(lp551
(S'MPI_Init()'
p552
g374
tp553
a(S'MPI_Comm_size()'
p554
g209
tp555
a(S'MPI_Comm_rank()'
p556
g135
tp557
a(S'MPI_Isend()'
p558
S'18'
p559
tp560
a(S'MPI_Irecv()'
p561
S'19'
p562
tp563
a(S'MPI_Finalize()'
p564
S'22'
p565
tp566
asS'hpc_lecture_2021/03_mpi/04_bcast.cpp'
p567
(lp568
(S'MPI_Init()'
p569
g68
tp570
a(S'MPI_Comm_size()'
p571
S'11'
p572
tp573
a(S'MPI_Comm_rank()'
p574
S'12'
p575
tp576
a(S'MPI_Gather()'
p577
S'23'
p578
tp579
a(S'MPI_Gather()'
p580
S'24'
p581
tp582
a(S'MPI_Gather()'
p583
S'25'
p584
tp585
a(S'MPI_Gather()'
p586
S'26'
p587
tp588
a(S'MPI_Gather()'
p589
S'27'
p590
tp591
a(S'MPI_Bcast()'
p592
S'29'
p593
tp594
a(S'MPI_Bcast()'
p595
S'30'
p596
tp597
a(S'MPI_Bcast()'
p598
S'31'
p599
tp600
a(S'MPI_Bcast()'
p601
S'32'
p602
tp603
a(S'MPI_Bcast()'
p604
S'33'
p605
tp606
a(S'MPI_Finalize()'
p607
S'46'
p608
tp609
asS'hpc_lecture_2021/10_io/10_mpi_io_write_all.cpp'
p610
(lp611
(S'MPI_Init()'
p612
S'11'
p613
tp614
a(S'MPI_Comm_size()'
p615
S'12'
p616
tp617
a(S'MPI_Comm_rank()'
p618
S'13'
p619
tp620
a(S'MPI_File_open()'
p621
S'17'
p622
tp623
a(S'MPI_File_set_view()'
p624
S'18'
p625
tp626
a(S'MPI_File_write_all()'
p627
S'20'
p628
tp629
a(S'MPI_File_close()'
p630
S'22'
p631
tp632
a(S'MPI_Finalize()'
p633
S'25'
p634
tp635
asS'hpc_lecture_2021/10_io/12_derived_write.cpp'
p636
(lp637
(S'MPI_Init()'
p638
S'13'
p639
tp640
a(S'MPI_Comm_size()'
p641
S'14'
p642
tp643
a(S'MPI_Comm_rank()'
p644
S'15'
p645
tp646
a(S'MPI_Type_create_subarray()'
p647
S'23'
p648
tp649
a(S'X_MPI_ORDER_C()'
p650
S'24'
p651
tp652
a(S'MPI_Type_commit()'
p653
S'25'
p654
tp655
a(S'MPI_File_open()'
p656
S'26'
p657
tp658
a(S'MPI_File_set_view()'
p659
S'27'
p660
tp661
a(S'MPI_File_write_all()'
p662
S'29'
p663
tp664
a(S'MPI_File_close()'
p665
S'31'
p666
tp667
a(S'MPI_Finalize()'
p668
S'34'
p669
tp670
asS'hpc_lecture_2021/03_mpi/05_allgather.cpp'
p671
(lp672
(S'MPI_Init()'
p673
g68
tp674
a(S'MPI_Comm_size()'
p675
S'11'
p676
tp677
a(S'MPI_Comm_rank()'
p678
S'12'
p679
tp680
a(S'MPI_Allgather()'
p681
S'23'
p682
tp683
a(S'MPI_Allgather()'
p684
S'24'
p685
tp686
a(S'MPI_Allgather()'
p687
S'25'
p688
tp689
a(S'MPI_Allgather()'
p690
S'26'
p691
tp692
a(S'MPI_Allgather()'
p693
S'27'
p694
tp695
a(S'MPI_Finalize()'
p696
S'40'
p697
tp698
asS'hpc_lecture_2021/03_mpi/03_gather.cpp'
p699
(lp700
(S'MPI_Init()'
p701
g68
tp702
a(S'MPI_Comm_size()'
p703
S'11'
p704
tp705
a(S'MPI_Comm_rank()'
p706
S'12'
p707
tp708
a(S'MPI_Gather()'
p709
S'23'
p710
tp711
a(S'MPI_Gather()'
p712
S'24'
p713
tp714
a(S'MPI_Gather()'
p715
S'25'
p716
tp717
a(S'MPI_Gather()'
p718
S'26'
p719
tp720
a(S'MPI_Gather()'
p721
S'27'
p722
tp723
a(S'MPI_Finalize()'
p724
S'42'
p725
tp726
asS'hpc_lecture_2021/10_io/13_derived_read.cpp'
p727
(lp728
(S'MPI_Init()'
p729
S'13'
p730
tp731
a(S'MPI_Comm_size()'
p732
S'14'
p733
tp734
a(S'MPI_Comm_rank()'
p735
S'15'
p736
tp737
a(S'MPI_File_open()'
p738
S'16'
p739
tp740
a(S'MPI_File_get_size()'
p741
S'17'
p742
tp743
a(S'MPI_Type_create_subarray()'
p744
S'26'
p745
tp746
a(S'X_MPI_ORDER_C()'
p747
S'27'
p748
tp749
a(S'MPI_Type_commit()'
p750
S'28'
p751
tp752
a(S'MPI_File_set_view()'
p753
S'29'
p754
tp755
a(S'MPI_File_read_all()'
p756
S'31'
p757
tp758
a(S'MPI_File_close()'
p759
S'33'
p760
tp761
a(S'MPI_Finalize()'
p762
S'40'
p763
tp764
asS'hpc_lecture_2021/03_mpi/08_derived_gather.cpp'
p765
(lp766
(S'MPI_Init()'
p767
S'13'
p768
tp769
a(S'MPI_Comm_size()'
p770
S'15'
p771
tp772
a(S'MPI_Comm_rank()'
p773
S'16'
p774
tp775
a(S'MPI_Type_contiguous()'
p776
S'28'
p777
tp778
a(S'MPI_Type_commit()'
p779
S'29'
p780
tp781
a(S'MPI_Allgather()'
p782
S'30'
p783
tp784
a(S'MPI_Type_indexed()'
p785
S'44'
p786
tp787
a(S'MPI_Type_create_resized()'
p788
S'45'
p789
tp790
a(S'MPI_Type_commit()'
p791
S'46'
p792
tp793
a(S'MPI_Allgather()'
p794
S'47'
p795
tp796
a(S'MPI_Finalize()'
p797
S'51'
p798
tp799
as.