ccollections
defaultdict
p0
(c__builtin__
list
p1
tp2
Rp3
S'hpsc-2022/10_io/04_mpi_write.cpp'
p4
(lp5
(S'MPI_Init()'
p6
S'11'
p7
tp8
a(S'MPI_Comm_size()'
p9
S'12'
p10
tp11
a(S'MPI_Comm_rank()'
p12
S'13'
p13
tp14
a(S'MPI_Finalize()'
p15
S'25'
p16
tp17
asS'hpsc-2022/03_mpi/10_ring.cpp'
p18
(lp19
(S'MPI_Init()'
p20
S'5'
p21
tp22
a(S'MPI_Comm_size()'
p23
S'7'
p24
tp25
a(S'MPI_Comm_rank()'
p26
S'8'
p27
tp28
a(S'MPI_Send()'
p29
S'17'
p30
tp31
a(S'MPI_Recv()'
p32
S'18'
p33
tp34
a(S'MPI_Finalize()'
p35
S'21'
p36
tp37
asS'hpsc-2022/03_mpi/11_distributed.cpp'
p38
(lp39
(S'MPI_Init()'
p40
S'12'
p41
tp42
a(S'MPI_Comm_size()'
p43
S'14'
p44
tp45
a(S'MPI_Comm_rank()'
p46
S'15'
p47
tp48
a(S'MPI_Type_contiguous()'
p49
S'27'
p50
tp51
a(S'MPI_Type_commit()'
p52
S'28'
p53
tp54
a(S'MPI_Send()'
p55
S'30'
p56
tp57
a(S'MPI_Recv()'
p58
S'31'
p59
tp60
a(S'MPI_Barrier()'
p61
S'45'
p62
tp63
a(S'MPI_Finalize()'
p64
S'52'
p65
tp66
asS'hpsc-2022/11_debugger/07_put.cpp'
p67
(lp68
(S'MPI_Init()'
p69
g24
tp70
a(S'MPI_Comm_size()'
p71
S'9'
p72
tp73
a(S'MPI_Comm_rank()'
p74
S'10'
p75
tp76
a(S'MPI_Win_create()'
p77
S'20'
p78
tp79
a(S'MPI_Win_fence()'
p80
S'21'
p81
tp82
a(S'MPI_Put()'
p83
S'22'
p84
tp85
a(S'MPI_Win_fence()'
p86
S'23'
p87
tp88
a(S'MPI_Win_free()'
p89
S'24'
p90
tp91
a(S'MPI_Finalize()'
p92
S'25'
p93
tp94
asS'hpsc-2022/03_mpi/03_gather.cpp'
p95
(lp96
(S'MPI_Init()'
p97
g72
tp98
a(S'MPI_Comm_size()'
p99
S'11'
p100
tp101
a(S'MPI_Comm_rank()'
p102
S'12'
p103
tp104
a(S'MPI_Gather()'
p105
S'23'
p106
tp107
a(S'MPI_Gather()'
p108
S'24'
p109
tp110
a(S'MPI_Gather()'
p111
S'25'
p112
tp113
a(S'MPI_Gather()'
p114
S'26'
p115
tp116
a(S'MPI_Gather()'
p117
S'27'
p118
tp119
a(S'MPI_Finalize()'
p120
S'42'
p121
tp122
asS'hpsc-2022/03_mpi/00_hello.cpp'
p123
(lp124
(S'MPI_Init()'
p125
g21
tp126
a(S'MPI_Comm_size()'
p127
g24
tp128
a(S'MPI_Comm_rank()'
p129
g27
tp130
a(S'MPI_Finalize()'
p131
S'10'
p132
tp133
asS'hpsc-2022/10_io/13_derived_read.cpp'
p134
(lp135
(S'MPI_Init()'
p136
S'13'
p137
tp138
a(S'MPI_Comm_size()'
p139
S'14'
p140
tp141
a(S'MPI_Comm_rank()'
p142
S'15'
p143
tp144
a(S'MPI_File_open()'
p145
S'16'
p146
tp147
a(S'MPI_File_get_size()'
p148
S'17'
p149
tp150
a(S'MPI_Type_create_subarray()'
p151
S'26'
p152
tp153
a(S'X_MPI_ORDER_C()'
p154
S'27'
p155
tp156
a(S'MPI_Type_commit()'
p157
S'28'
p158
tp159
a(S'MPI_File_set_view()'
p160
S'29'
p161
tp162
a(S'MPI_File_read_all()'
p163
S'31'
p164
tp165
a(S'MPI_File_close()'
p166
S'33'
p167
tp168
a(S'MPI_Finalize()'
p169
S'40'
p170
tp171
asS'hpsc-2022/11_debugger/05_ssend.cpp'
p172
(lp173
(S'MPI_Init()'
p174
g21
tp175
a(S'MPI_Comm_size()'
p176
g24
tp177
a(S'MPI_Comm_rank()'
p178
g27
tp179
a(S'MPI_Ssend()'
p180
S'17'
p181
tp182
a(S'MPI_Recv()'
p183
S'18'
p184
tp185
a(S'MPI_Finalize()'
p186
S'21'
p187
tp188
asS'hpsc-2022/12_profiler/timers.h'
p189
(lp190
(S'MPI_Wtime()'
p191
S'55'
p192
tp193
asS'hpsc-2022/10_io/05_mpi_read.cpp'
p194
(lp195
(S'MPI_Init()'
p196
S'10'
p197
tp198
a(S'MPI_Comm_size()'
p199
S'11'
p200
tp201
a(S'MPI_Comm_rank()'
p202
S'12'
p203
tp204
a(S'MPI_Finalize()'
p205
S'29'
p206
tp207
asS'hpsc-2022/03_mpi/07_jloop.cpp'
p208
(lp209
(S'MPI_Init()'
p210
g72
tp211
a(S'MPI_Comm_size()'
p212
S'11'
p213
tp214
a(S'MPI_Comm_rank()'
p215
S'12'
p216
tp217
a(S'MPI_Allgather()'
p218
S'23'
p219
tp220
a(S'MPI_Allgather()'
p221
S'24'
p222
tp223
a(S'MPI_Allgather()'
p224
S'25'
p225
tp226
a(S'MPI_Allgather()'
p227
S'26'
p228
tp229
a(S'MPI_Allgather()'
p230
S'27'
p231
tp232
a(S'MPI_Allreduce()'
p233
S'39'
p234
tp235
a(S'MPI_Allreduce()'
p236
S'40'
p237
tp238
a(S'MPI_Finalize()'
p239
S'44'
p240
tp241
asS'hpsc-2022/03_mpi/08_derived_gather.cpp'
p242
(lp243
(S'MPI_Init()'
p244
S'13'
p245
tp246
a(S'MPI_Comm_size()'
p247
S'15'
p248
tp249
a(S'MPI_Comm_rank()'
p250
S'16'
p251
tp252
a(S'MPI_Type_contiguous()'
p253
S'28'
p254
tp255
a(S'MPI_Type_commit()'
p256
S'29'
p257
tp258
a(S'MPI_Allgather()'
p259
S'30'
p260
tp261
a(S'MPI_Type_indexed()'
p262
S'44'
p263
tp264
a(S'MPI_Type_create_resized()'
p265
S'45'
p266
tp267
a(S'MPI_Type_commit()'
p268
S'46'
p269
tp270
a(S'MPI_Allgather()'
p271
S'47'
p272
tp273
a(S'MPI_Finalize()'
p274
S'51'
p275
tp276
asS'hpsc-2022/03_mpi/12_non_blocking.cpp'
p277
(lp278
(S'MPI_Init()'
p279
S'6'
p280
tp281
a(S'MPI_Comm_size()'
p282
g27
tp283
a(S'MPI_Comm_rank()'
p284
g72
tp285
a(S'MPI_Isend()'
p286
S'19'
p287
tp288
a(S'MPI_Irecv()'
p289
S'20'
p290
tp291
a(S'MPI_Waitall()'
p292
S'21'
p293
tp294
a(S'MPI_Finalize()'
p295
S'24'
p296
tp297
asS'hpsc-2022/06_cuda/11_mpi.cu'
p298
(lp299
(S'MPI_Init()'
p300
S'12'
p301
tp302
a(S'MPI_Comm_size()'
p303
S'13'
p304
tp305
a(S'MPI_Comm_rank()'
p306
S'14'
p307
tp308
a(S'MPI_Get_processor_name()'
p309
S'15'
p310
tp311
a(S'MPI_Barrier()'
p312
S'20'
p313
tp314
a(S'MPI_Finalize()'
p315
S'29'
p316
tp317
asS'hpsc-2022/10_io/16_phdf5_write.cpp'
p318
(lp319
(S'MPI_Init()'
p320
S'12'
p321
tp322
a(S'MPI_Comm_size()'
p323
S'13'
p324
tp325
a(S'MPI_Comm_rank()'
p326
S'14'
p327
tp328
a(S'MPI_Finalize()'
p329
S'44'
p330
tp331
asS'hpsc-2022/10_io/06_mpi_io_write.cpp'
p332
(lp333
(S'MPI_Init()'
p334
S'11'
p335
tp336
a(S'MPI_Comm_size()'
p337
S'12'
p338
tp339
a(S'MPI_Comm_rank()'
p340
S'13'
p341
tp342
a(S'MPI_File_open()'
p343
S'17'
p344
tp345
a(S'MPI_File_write_at()'
p346
S'19'
p347
tp348
a(S'MPI_File_close()'
p349
S'21'
p350
tp351
a(S'MPI_Finalize()'
p352
S'24'
p353
tp354
asS'hpsc-2022/03_mpi/09_derived_reduce.cpp'
p355
(lp356
(S'MPI_Init()'
p357
S'20'
p358
tp359
a(S'MPI_Comm_size()'
p360
S'22'
p361
tp362
a(S'MPI_Comm_rank()'
p363
S'23'
p364
tp365
a(S'MPI_Type_contiguous()'
p366
S'35'
p367
tp368
a(S'MPI_Type_commit()'
p369
S'36'
p370
tp371
a(S'MPI_Allgather()'
p372
S'37'
p373
tp374
a(S'MPI_Type_indexed()'
p375
S'51'
p376
tp377
a(S'MPI_Type_create_resized()'
p378
S'52'
p379
tp380
a(S'MPI_Type_commit()'
p381
S'53'
p382
tp383
a(S'MPI_Op_create()'
p384
S'55'
p385
tp386
a(S'MPI_Allreduce()'
p387
S'56'
p388
tp389
a(S'MPI_Op_free()'
p390
S'60'
p391
tp392
a(S'MPI_Finalize()'
p393
S'61'
p394
tp395
asS'hpsc-2022/03_mpi/13_one_sided.cpp'
p396
(lp397
(S'MPI_Init()'
p398
g280
tp399
a(S'MPI_Comm_size()'
p400
g27
tp401
a(S'MPI_Comm_rank()'
p402
g72
tp403
a(S'MPI_Win_create()'
p404
S'18'
p405
tp406
a(S'MPI_Win_fence()'
p407
S'19'
p408
tp409
a(S'MPI_Put()'
p410
S'20'
p411
tp412
a(S'MPI_Win_fence()'
p413
S'21'
p414
tp415
a(S'MPI_Win_free()'
p416
S'24'
p417
tp418
a(S'MPI_Finalize()'
p419
S'25'
p420
tp421
asS'hpsc-2022/03_mpi/04_bcast.cpp'
p422
(lp423
(S'MPI_Init()'
p424
g72
tp425
a(S'MPI_Comm_size()'
p426
S'11'
p427
tp428
a(S'MPI_Comm_rank()'
p429
S'12'
p430
tp431
a(S'MPI_Gather()'
p432
S'23'
p433
tp434
a(S'MPI_Gather()'
p435
S'24'
p436
tp437
a(S'MPI_Gather()'
p438
S'25'
p439
tp440
a(S'MPI_Gather()'
p441
S'26'
p442
tp443
a(S'MPI_Gather()'
p444
S'27'
p445
tp446
a(S'MPI_Bcast()'
p447
S'29'
p448
tp449
a(S'MPI_Bcast()'
p450
S'30'
p451
tp452
a(S'MPI_Bcast()'
p453
S'31'
p454
tp455
a(S'MPI_Bcast()'
p456
S'32'
p457
tp458
a(S'MPI_Bcast()'
p459
S'33'
p460
tp461
a(S'MPI_Finalize()'
p462
S'46'
p463
tp464
asS'hpsc-2022/10_io/08_mpi_io_write_view.cpp'
p465
(lp466
(S'MPI_Init()'
p467
S'11'
p468
tp469
a(S'MPI_Comm_size()'
p470
S'12'
p471
tp472
a(S'MPI_Comm_rank()'
p473
S'13'
p474
tp475
a(S'MPI_File_open()'
p476
S'17'
p477
tp478
a(S'MPI_File_set_view()'
p479
S'18'
p480
tp481
a(S'MPI_File_write()'
p482
S'20'
p483
tp484
a(S'MPI_File_close()'
p485
S'22'
p486
tp487
a(S'MPI_Finalize()'
p488
S'25'
p489
tp490
asS'hpsc-2022/12_profiler/02_mpi_nbody.cpp'
p491
(lp492
(S'MPI_Init()'
p493
S'12'
p494
tp495
a(S'MPI_Comm_size()'
p496
S'14'
p497
tp498
a(S'MPI_Comm_rank()'
p499
S'15'
p500
tp501
a(S'MPI_Type_contiguous()'
p502
S'26'
p503
tp504
a(S'MPI_Type_commit()'
p505
S'27'
p506
tp507
a(S'MPI_Win_create()'
p508
S'29'
p509
tp510
a(S'MPI_Win_fence()'
p511
S'33'
p512
tp513
a(S'MPI_Put()'
p514
S'34'
p515
tp516
a(S'MPI_Win_fence()'
p517
S'35'
p518
tp519
a(S'MPI_Barrier()'
p520
S'50'
p521
tp522
a(S'MPI_Finalize()'
p523
S'57'
p524
tp525
asS'hpsc-2022/10_io/09_mpi_io_read_view.cpp'
p526
(lp527
(S'MPI_Init()'
p528
S'11'
p529
tp530
a(S'MPI_Comm_size()'
p531
S'12'
p532
tp533
a(S'MPI_Comm_rank()'
p534
S'13'
p535
tp536
a(S'MPI_File_open()'
p537
S'14'
p538
tp539
a(S'MPI_File_get_size()'
p540
S'15'
p541
tp542
a(S'MPI_File_set_view()'
p543
S'20'
p544
tp545
a(S'MPI_File_read()'
p546
S'22'
p547
tp548
a(S'MPI_File_close()'
p549
S'24'
p550
tp551
a(S'MPI_Finalize()'
p552
S'31'
p553
tp554
asS'hpsc-2022/03_mpi/02_split.cpp'
p555
(lp556
(S'MPI_Init()'
p557
g27
tp558
a(S'MPI_Comm_size()'
p559
S'10'
p560
tp561
a(S'MPI_Comm_rank()'
p562
S'11'
p563
tp564
a(S'MPI_Finalize()'
p565
S'22'
p566
tp567
asS'hpsc-2022/10_io/12_derived_write.cpp'
p568
(lp569
(S'MPI_Init()'
p570
S'13'
p571
tp572
a(S'MPI_Comm_size()'
p573
S'14'
p574
tp575
a(S'MPI_Comm_rank()'
p576
S'15'
p577
tp578
a(S'MPI_Type_create_subarray()'
p579
S'23'
p580
tp581
a(S'X_MPI_ORDER_C()'
p582
S'24'
p583
tp584
a(S'MPI_Type_commit()'
p585
S'25'
p586
tp587
a(S'MPI_File_open()'
p588
S'26'
p589
tp590
a(S'MPI_File_set_view()'
p591
S'27'
p592
tp593
a(S'MPI_File_write_all()'
p594
S'29'
p595
tp596
a(S'MPI_File_close()'
p597
S'31'
p598
tp599
a(S'MPI_Finalize()'
p600
S'34'
p601
tp602
asS'hpsc-2022/10_io/10_mpi_io_write_all.cpp'
p603
(lp604
(S'MPI_Init()'
p605
S'11'
p606
tp607
a(S'MPI_Comm_size()'
p608
S'12'
p609
tp610
a(S'MPI_Comm_rank()'
p611
S'13'
p612
tp613
a(S'MPI_File_open()'
p614
S'17'
p615
tp616
a(S'MPI_File_set_view()'
p617
S'18'
p618
tp619
a(S'MPI_File_write_all()'
p620
S'20'
p621
tp622
a(S'MPI_File_close()'
p623
S'22'
p624
tp625
a(S'MPI_Finalize()'
p626
S'25'
p627
tp628
asS'hpsc-2022/03_mpi/05_allgather.cpp'
p629
(lp630
(S'MPI_Init()'
p631
g72
tp632
a(S'MPI_Comm_size()'
p633
S'11'
p634
tp635
a(S'MPI_Comm_rank()'
p636
S'12'
p637
tp638
a(S'MPI_Allgather()'
p639
S'23'
p640
tp641
a(S'MPI_Allgather()'
p642
S'24'
p643
tp644
a(S'MPI_Allgather()'
p645
S'25'
p646
tp647
a(S'MPI_Allgather()'
p648
S'26'
p649
tp650
a(S'MPI_Allgather()'
p651
S'27'
p652
tp653
a(S'MPI_Finalize()'
p654
S'40'
p655
tp656
asS'hpsc-2022/10_io/11_mpi_io_read_all.cpp'
p657
(lp658
(S'MPI_Init()'
p659
S'11'
p660
tp661
a(S'MPI_Comm_size()'
p662
S'12'
p663
tp664
a(S'MPI_Comm_rank()'
p665
S'13'
p666
tp667
a(S'MPI_File_open()'
p668
S'14'
p669
tp670
a(S'MPI_File_get_size()'
p671
S'15'
p672
tp673
a(S'MPI_File_set_view()'
p674
S'20'
p675
tp676
a(S'MPI_File_read_all()'
p677
S'22'
p678
tp679
a(S'MPI_File_close()'
p680
S'24'
p681
tp682
a(S'MPI_Finalize()'
p683
S'31'
p684
tp685
asS'hpsc-2022/11_debugger/06_isend.cpp'
p686
(lp687
(S'MPI_Init()'
p688
g21
tp689
a(S'MPI_Comm_size()'
p690
g24
tp691
a(S'MPI_Comm_rank()'
p692
g27
tp693
a(S'MPI_Isend()'
p694
S'18'
p695
tp696
a(S'MPI_Irecv()'
p697
S'19'
p698
tp699
a(S'MPI_Finalize()'
p700
S'22'
p701
tp702
asS'hpsc-2022/03_mpi/06_iloop.cpp'
p703
(lp704
(S'MPI_Init()'
p705
g72
tp706
a(S'MPI_Comm_size()'
p707
S'11'
p708
tp709
a(S'MPI_Comm_rank()'
p710
S'12'
p711
tp712
a(S'MPI_Allgather()'
p713
S'23'
p714
tp715
a(S'MPI_Allgather()'
p716
S'24'
p717
tp718
a(S'MPI_Allgather()'
p719
S'25'
p720
tp721
a(S'MPI_Allgather()'
p722
S'26'
p723
tp724
a(S'MPI_Allgather()'
p725
S'27'
p726
tp727
a(S'MPI_Allgather()'
p728
S'39'
p729
tp730
a(S'MPI_Allgather()'
p731
S'40'
p732
tp733
a(S'MPI_Finalize()'
p734
S'44'
p735
tp736
asS'hpsc-2022/10_io/17_phdf5_read.cpp'
p737
(lp738
(S'MPI_Init()'
p739
S'11'
p740
tp741
a(S'MPI_Comm_size()'
p742
S'12'
p743
tp744
a(S'MPI_Comm_rank()'
p745
S'13'
p746
tp747
a(S'MPI_Finalize()'
p748
S'49'
p749
tp750
asS'hpsc-2022/10_io/07_mpi_io_read.cpp'
p751
(lp752
(S'MPI_Init()'
p753
S'11'
p754
tp755
a(S'MPI_Comm_size()'
p756
S'12'
p757
tp758
a(S'MPI_Comm_rank()'
p759
S'13'
p760
tp761
a(S'MPI_File_open()'
p762
S'14'
p763
tp764
a(S'MPI_File_get_size()'
p765
S'15'
p766
tp767
a(S'MPI_File_read_at()'
p768
S'21'
p769
tp770
a(S'MPI_File_close()'
p771
S'23'
p772
tp773
a(S'MPI_Finalize()'
p774
S'30'
p775
tp776
as.