ccollections
defaultdict
p0
(c__builtin__
list
p1
tp2
Rp3
S'hpsc-2023/03_mpi/04_bcast.cpp'
p4
(lp5
(S'MPI_Init()'
p6
S'9'
p7
tp8
a(S'MPI_Comm_size()'
p9
S'11'
p10
tp11
a(S'MPI_Comm_rank()'
p12
S'12'
p13
tp14
a(S'MPI_Gather()'
p15
S'23'
p16
tp17
a(S'MPI_Gather()'
p18
S'24'
p19
tp20
a(S'MPI_Gather()'
p21
S'25'
p22
tp23
a(S'MPI_Gather()'
p24
S'26'
p25
tp26
a(S'MPI_Gather()'
p27
S'27'
p28
tp29
a(S'MPI_Bcast()'
p30
S'29'
p31
tp32
a(S'MPI_Bcast()'
p33
S'30'
p34
tp35
a(S'MPI_Bcast()'
p36
S'31'
p37
tp38
a(S'MPI_Bcast()'
p39
S'32'
p40
tp41
a(S'MPI_Bcast()'
p42
S'33'
p43
tp44
a(S'MPI_Finalize()'
p45
S'46'
p46
tp47
asS'hpsc-2023/03_mpi/06_iloop.cpp'
p48
(lp49
(S'MPI_Init()'
p50
g7
tp51
a(S'MPI_Comm_size()'
p52
S'11'
p53
tp54
a(S'MPI_Comm_rank()'
p55
S'12'
p56
tp57
a(S'MPI_Allgather()'
p58
S'23'
p59
tp60
a(S'MPI_Allgather()'
p61
S'24'
p62
tp63
a(S'MPI_Allgather()'
p64
S'25'
p65
tp66
a(S'MPI_Allgather()'
p67
S'26'
p68
tp69
a(S'MPI_Allgather()'
p70
S'27'
p71
tp72
a(S'MPI_Allgather()'
p73
S'39'
p74
tp75
a(S'MPI_Allgather()'
p76
S'40'
p77
tp78
a(S'MPI_Finalize()'
p79
S'44'
p80
tp81
asS'hpsc-2023/10_io/07_mpi_io_read.cpp'
p82
(lp83
(S'MPI_Init()'
p84
S'11'
p85
tp86
a(S'MPI_Comm_size()'
p87
S'12'
p88
tp89
a(S'MPI_Comm_rank()'
p90
S'13'
p91
tp92
a(S'MPI_File_open()'
p93
S'14'
p94
tp95
a(S'MPI_File_get_size()'
p96
S'15'
p97
tp98
a(S'MPI_File_read_at()'
p99
S'21'
p100
tp101
a(S'MPI_File_close()'
p102
S'23'
p103
tp104
a(S'MPI_Finalize()'
p105
S'30'
p106
tp107
asS'hpsc-2023/10_io/16_phdf5_write.cpp'
p108
(lp109
(S'MPI_Init()'
p110
S'12'
p111
tp112
a(S'MPI_Comm_size()'
p113
S'13'
p114
tp115
a(S'MPI_Comm_rank()'
p116
S'14'
p117
tp118
a(S'MPI_Finalize()'
p119
S'44'
p120
tp121
asS'hpsc-2023/03_mpi/05_allgather.cpp'
p122
(lp123
(S'MPI_Init()'
p124
g7
tp125
a(S'MPI_Comm_size()'
p126
S'11'
p127
tp128
a(S'MPI_Comm_rank()'
p129
S'12'
p130
tp131
a(S'MPI_Allgather()'
p132
S'23'
p133
tp134
a(S'MPI_Allgather()'
p135
S'24'
p136
tp137
a(S'MPI_Allgather()'
p138
S'25'
p139
tp140
a(S'MPI_Allgather()'
p141
S'26'
p142
tp143
a(S'MPI_Allgather()'
p144
S'27'
p145
tp146
a(S'MPI_Finalize()'
p147
S'40'
p148
tp149
asS'hpsc-2023/10_io/04_mpi_write.cpp'
p150
(lp151
(S'MPI_Init()'
p152
S'11'
p153
tp154
a(S'MPI_Comm_size()'
p155
S'12'
p156
tp157
a(S'MPI_Comm_rank()'
p158
S'13'
p159
tp160
a(S'MPI_Finalize()'
p161
S'25'
p162
tp163
asS'hpsc-2023/10_io/11_mpi_io_read_all.cpp'
p164
(lp165
(S'MPI_Init()'
p166
S'11'
p167
tp168
a(S'MPI_Comm_size()'
p169
S'12'
p170
tp171
a(S'MPI_Comm_rank()'
p172
S'13'
p173
tp174
a(S'MPI_File_open()'
p175
S'14'
p176
tp177
a(S'MPI_File_get_size()'
p178
S'15'
p179
tp180
a(S'MPI_File_set_view()'
p181
S'20'
p182
tp183
a(S'MPI_File_read_all()'
p184
S'22'
p185
tp186
a(S'MPI_File_close()'
p187
S'24'
p188
tp189
a(S'MPI_Finalize()'
p190
S'31'
p191
tp192
asS'hpsc-2023/03_mpi/13_one_sided.cpp'
p193
(lp194
(S'MPI_Init()'
p195
S'6'
p196
tp197
a(S'MPI_Comm_size()'
p198
S'8'
p199
tp200
a(S'MPI_Comm_rank()'
p201
g7
tp202
a(S'MPI_Win_create()'
p203
S'18'
p204
tp205
a(S'MPI_Win_fence()'
p206
S'19'
p207
tp208
a(S'MPI_Put()'
p209
S'20'
p210
tp211
a(S'MPI_Win_fence()'
p212
S'21'
p213
tp214
a(S'MPI_Win_free()'
p215
S'24'
p216
tp217
a(S'MPI_Finalize()'
p218
S'25'
p219
tp220
asS'hpsc-2023/10_io/05_mpi_read.cpp'
p221
(lp222
(S'MPI_Init()'
p223
S'10'
p224
tp225
a(S'MPI_Comm_size()'
p226
S'11'
p227
tp228
a(S'MPI_Comm_rank()'
p229
S'12'
p230
tp231
a(S'MPI_Finalize()'
p232
S'29'
p233
tp234
asS'hpsc-2023/10_io/12_derived_write.cpp'
p235
(lp236
(S'MPI_Init()'
p237
S'13'
p238
tp239
a(S'MPI_Comm_size()'
p240
S'14'
p241
tp242
a(S'MPI_Comm_rank()'
p243
S'15'
p244
tp245
a(S'MPI_Type_create_subarray()'
p246
S'23'
p247
tp248
a(S'X_MPI_ORDER_C()'
p249
S'24'
p250
tp251
a(S'MPI_Type_commit()'
p252
S'25'
p253
tp254
a(S'MPI_File_open()'
p255
S'26'
p256
tp257
a(S'MPI_File_set_view()'
p258
S'27'
p259
tp260
a(S'MPI_File_write_all()'
p261
S'29'
p262
tp263
a(S'MPI_File_close()'
p264
S'31'
p265
tp266
a(S'MPI_Finalize()'
p267
S'34'
p268
tp269
asS'hpsc-2023/03_mpi/09_derived_reduce.cpp'
p270
(lp271
(S'MPI_Init()'
p272
S'20'
p273
tp274
a(S'MPI_Comm_size()'
p275
S'22'
p276
tp277
a(S'MPI_Comm_rank()'
p278
S'23'
p279
tp280
a(S'MPI_Type_contiguous()'
p281
S'35'
p282
tp283
a(S'MPI_Type_commit()'
p284
S'36'
p285
tp286
a(S'MPI_Allgather()'
p287
S'37'
p288
tp289
a(S'MPI_Type_indexed()'
p290
S'51'
p291
tp292
a(S'MPI_Type_create_resized()'
p293
S'52'
p294
tp295
a(S'MPI_Type_commit()'
p296
S'53'
p297
tp298
a(S'MPI_Op_create()'
p299
S'55'
p300
tp301
a(S'MPI_Allreduce()'
p302
S'56'
p303
tp304
a(S'MPI_Op_free()'
p305
S'60'
p306
tp307
a(S'MPI_Finalize()'
p308
S'61'
p309
tp310
asS'hpsc-2023/10_io/06_mpi_io_write.cpp'
p311
(lp312
(S'MPI_Init()'
p313
S'11'
p314
tp315
a(S'MPI_Comm_size()'
p316
S'12'
p317
tp318
a(S'MPI_Comm_rank()'
p319
S'13'
p320
tp321
a(S'MPI_File_open()'
p322
S'17'
p323
tp324
a(S'MPI_File_write_at()'
p325
S'19'
p326
tp327
a(S'MPI_File_close()'
p328
S'21'
p329
tp330
a(S'MPI_Finalize()'
p331
S'24'
p332
tp333
asS'hpsc-2023/10_io/17_phdf5_read.cpp'
p334
(lp335
(S'MPI_Init()'
p336
S'11'
p337
tp338
a(S'MPI_Comm_size()'
p339
S'12'
p340
tp341
a(S'MPI_Comm_rank()'
p342
S'13'
p343
tp344
a(S'MPI_Finalize()'
p345
S'49'
p346
tp347
asS'hpsc-2023/06_cuda/11_mpi.cu'
p348
(lp349
(S'MPI_Init()'
p350
S'12'
p351
tp352
a(S'MPI_Comm_size()'
p353
S'13'
p354
tp355
a(S'MPI_Comm_rank()'
p356
S'14'
p357
tp358
a(S'MPI_Get_processor_name()'
p359
S'15'
p360
tp361
a(S'MPI_Barrier()'
p362
S'20'
p363
tp364
a(S'MPI_Finalize()'
p365
S'29'
p366
tp367
asS'hpsc-2023/10_io/09_mpi_io_read_view.cpp'
p368
(lp369
(S'MPI_Init()'
p370
S'11'
p371
tp372
a(S'MPI_Comm_size()'
p373
S'12'
p374
tp375
a(S'MPI_Comm_rank()'
p376
S'13'
p377
tp378
a(S'MPI_File_open()'
p379
S'14'
p380
tp381
a(S'MPI_File_get_size()'
p382
S'15'
p383
tp384
a(S'MPI_File_set_view()'
p385
S'20'
p386
tp387
a(S'MPI_File_read()'
p388
S'22'
p389
tp390
a(S'MPI_File_close()'
p391
S'24'
p392
tp393
a(S'MPI_Finalize()'
p394
S'31'
p395
tp396
asS'hpsc-2023/03_mpi/02_split.cpp'
p397
(lp398
(S'MPI_Init()'
p399
g199
tp400
a(S'MPI_Comm_size()'
p401
S'10'
p402
tp403
a(S'MPI_Comm_rank()'
p404
S'11'
p405
tp406
a(S'MPI_Finalize()'
p407
S'22'
p408
tp409
asS'hpsc-2023/03_mpi/11_distributed.cpp'
p410
(lp411
(S'MPI_Init()'
p412
S'12'
p413
tp414
a(S'MPI_Comm_size()'
p415
S'14'
p416
tp417
a(S'MPI_Comm_rank()'
p418
S'15'
p419
tp420
a(S'MPI_Type_contiguous()'
p421
S'27'
p422
tp423
a(S'MPI_Type_commit()'
p424
S'28'
p425
tp426
a(S'MPI_Send()'
p427
S'30'
p428
tp429
a(S'MPI_Recv()'
p430
S'31'
p431
tp432
a(S'MPI_Barrier()'
p433
S'45'
p434
tp435
a(S'MPI_Finalize()'
p436
S'52'
p437
tp438
asS'hpsc-2023/10_io/13_derived_read.cpp'
p439
(lp440
(S'MPI_Init()'
p441
S'13'
p442
tp443
a(S'MPI_Comm_size()'
p444
S'14'
p445
tp446
a(S'MPI_Comm_rank()'
p447
S'15'
p448
tp449
a(S'MPI_File_open()'
p450
S'16'
p451
tp452
a(S'MPI_File_get_size()'
p453
S'17'
p454
tp455
a(S'MPI_Type_create_subarray()'
p456
S'26'
p457
tp458
a(S'X_MPI_ORDER_C()'
p459
S'27'
p460
tp461
a(S'MPI_Type_commit()'
p462
S'28'
p463
tp464
a(S'MPI_File_set_view()'
p465
S'29'
p466
tp467
a(S'MPI_File_read_all()'
p468
S'31'
p469
tp470
a(S'MPI_File_close()'
p471
S'33'
p472
tp473
a(S'MPI_Finalize()'
p474
S'40'
p475
tp476
asS'hpsc-2023/03_mpi/03_gather.cpp'
p477
(lp478
(S'MPI_Init()'
p479
g7
tp480
a(S'MPI_Comm_size()'
p481
S'11'
p482
tp483
a(S'MPI_Comm_rank()'
p484
S'12'
p485
tp486
a(S'MPI_Gather()'
p487
S'23'
p488
tp489
a(S'MPI_Gather()'
p490
S'24'
p491
tp492
a(S'MPI_Gather()'
p493
S'25'
p494
tp495
a(S'MPI_Gather()'
p496
S'26'
p497
tp498
a(S'MPI_Gather()'
p499
S'27'
p500
tp501
a(S'MPI_Finalize()'
p502
S'42'
p503
tp504
asS'hpsc-2023/10_io/10_mpi_io_write_all.cpp'
p505
(lp506
(S'MPI_Init()'
p507
S'11'
p508
tp509
a(S'MPI_Comm_size()'
p510
S'12'
p511
tp512
a(S'MPI_Comm_rank()'
p513
S'13'
p514
tp515
a(S'MPI_File_open()'
p516
S'17'
p517
tp518
a(S'MPI_File_set_view()'
p519
S'18'
p520
tp521
a(S'MPI_File_write_all()'
p522
S'20'
p523
tp524
a(S'MPI_File_close()'
p525
S'22'
p526
tp527
a(S'MPI_Finalize()'
p528
S'25'
p529
tp530
asS'hpsc-2023/11_debugger/06_isend.cpp'
p531
(lp532
(S'MPI_Init()'
p533
S'5'
p534
tp535
a(S'MPI_Comm_size()'
p536
S'7'
p537
tp538
a(S'MPI_Comm_rank()'
p539
g199
tp540
a(S'MPI_Isend()'
p541
S'18'
p542
tp543
a(S'MPI_Irecv()'
p544
S'19'
p545
tp546
a(S'MPI_Finalize()'
p547
S'22'
p548
tp549
asS'hpsc-2023/03_mpi/12_non_blocking.cpp'
p550
(lp551
(S'MPI_Init()'
p552
g196
tp553
a(S'MPI_Comm_size()'
p554
g199
tp555
a(S'MPI_Comm_rank()'
p556
g7
tp557
a(S'MPI_Isend()'
p558
S'19'
p559
tp560
a(S'MPI_Irecv()'
p561
S'20'
p562
tp563
a(S'MPI_Waitall()'
p564
S'21'
p565
tp566
a(S'MPI_Finalize()'
p567
S'24'
p568
tp569
asS'hpsc-2023/03_mpi/10_ring.cpp'
p570
(lp571
(S'MPI_Init()'
p572
g534
tp573
a(S'MPI_Comm_size()'
p574
g537
tp575
a(S'MPI_Comm_rank()'
p576
g199
tp577
a(S'MPI_Send()'
p578
S'17'
p579
tp580
a(S'MPI_Recv()'
p581
S'18'
p582
tp583
a(S'MPI_Finalize()'
p584
S'21'
p585
tp586
asS'hpsc-2023/11_debugger/07_put.cpp'
p587
(lp588
(S'MPI_Init()'
p589
g537
tp590
a(S'MPI_Comm_size()'
p591
g7
tp592
a(S'MPI_Comm_rank()'
p593
S'10'
p594
tp595
a(S'MPI_Win_create()'
p596
S'20'
p597
tp598
a(S'MPI_Win_fence()'
p599
S'21'
p600
tp601
a(S'MPI_Put()'
p602
S'22'
p603
tp604
a(S'MPI_Win_fence()'
p605
S'23'
p606
tp607
a(S'MPI_Win_free()'
p608
S'24'
p609
tp610
a(S'MPI_Finalize()'
p611
S'25'
p612
tp613
asS'hpsc-2023/11_debugger/05_ssend.cpp'
p614
(lp615
(S'MPI_Init()'
p616
g534
tp617
a(S'MPI_Comm_size()'
p618
g537
tp619
a(S'MPI_Comm_rank()'
p620
g199
tp621
a(S'MPI_Ssend()'
p622
S'17'
p623
tp624
a(S'MPI_Recv()'
p625
S'18'
p626
tp627
a(S'MPI_Finalize()'
p628
S'21'
p629
tp630
asS'hpsc-2023/03_mpi/00_hello.cpp'
p631
(lp632
(S'MPI_Init()'
p633
g534
tp634
a(S'MPI_Comm_size()'
p635
g537
tp636
a(S'MPI_Comm_rank()'
p637
g199
tp638
a(S'MPI_Finalize()'
p639
S'10'
p640
tp641
asS'hpsc-2023/10_io/08_mpi_io_write_view.cpp'
p642
(lp643
(S'MPI_Init()'
p644
S'11'
p645
tp646
a(S'MPI_Comm_size()'
p647
S'12'
p648
tp649
a(S'MPI_Comm_rank()'
p650
S'13'
p651
tp652
a(S'MPI_File_open()'
p653
S'17'
p654
tp655
a(S'MPI_File_set_view()'
p656
S'18'
p657
tp658
a(S'MPI_File_write()'
p659
S'20'
p660
tp661
a(S'MPI_File_close()'
p662
S'22'
p663
tp664
a(S'MPI_Finalize()'
p665
S'25'
p666
tp667
asS'hpsc-2023/03_mpi/08_derived_gather.cpp'
p668
(lp669
(S'MPI_Init()'
p670
S'13'
p671
tp672
a(S'MPI_Comm_size()'
p673
S'15'
p674
tp675
a(S'MPI_Comm_rank()'
p676
S'16'
p677
tp678
a(S'MPI_Type_contiguous()'
p679
S'28'
p680
tp681
a(S'MPI_Type_commit()'
p682
S'29'
p683
tp684
a(S'MPI_Allgather()'
p685
S'30'
p686
tp687
a(S'MPI_Type_indexed()'
p688
S'44'
p689
tp690
a(S'MPI_Type_create_resized()'
p691
S'45'
p692
tp693
a(S'MPI_Type_commit()'
p694
S'46'
p695
tp696
a(S'MPI_Allgather()'
p697
S'47'
p698
tp699
a(S'MPI_Finalize()'
p700
S'51'
p701
tp702
asS'hpsc-2023/03_mpi/07_jloop.cpp'
p703
(lp704
(S'MPI_Init()'
p705
g7
tp706
a(S'MPI_Comm_size()'
p707
S'11'
p708
tp709
a(S'MPI_Comm_rank()'
p710
S'12'
p711
tp712
a(S'MPI_Allgather()'
p713
S'23'
p714
tp715
a(S'MPI_Allgather()'
p716
S'24'
p717
tp718
a(S'MPI_Allgather()'
p719
S'25'
p720
tp721
a(S'MPI_Allgather()'
p722
S'26'
p723
tp724
a(S'MPI_Allgather()'
p725
S'27'
p726
tp727
a(S'MPI_Allreduce()'
p728
S'39'
p729
tp730
a(S'MPI_Allreduce()'
p731
S'40'
p732
tp733
a(S'MPI_Finalize()'
p734
S'44'
p735
tp736
asS'hpsc-2023/12_profiler/timers.h'
p737
(lp738
(S'MPI_Wtime()'
p739
S'55'
p740
tp741
asS'hpsc-2023/12_profiler/02_mpi_nbody.cpp'
p742
(lp743
(S'MPI_Init()'
p744
S'12'
p745
tp746
a(S'MPI_Comm_size()'
p747
S'14'
p748
tp749
a(S'MPI_Comm_rank()'
p750
S'15'
p751
tp752
a(S'MPI_Type_contiguous()'
p753
S'26'
p754
tp755
a(S'MPI_Type_commit()'
p756
S'27'
p757
tp758
a(S'MPI_Win_create()'
p759
S'29'
p760
tp761
a(S'MPI_Win_fence()'
p762
S'33'
p763
tp764
a(S'MPI_Put()'
p765
S'34'
p766
tp767
a(S'MPI_Win_fence()'
p768
S'35'
p769
tp770
a(S'MPI_Barrier()'
p771
S'50'
p772
tp773
a(S'MPI_Finalize()'
p774
S'57'
p775
tp776
as.