ccollections
defaultdict
p0
(c__builtin__
list
p1
tp2
Rp3
S'math627/hw2/snapshots/greetings_3.c'
p4
(lp5
(S'MPI_Init()'
p6
S'25'
p7
tp8
a(S'MPI_Comm_rank()'
p9
S'27'
p10
tp11
a(S'MPI_Comm_size()'
p12
S'29'
p13
tp14
a(S'MPI_Send()'
p15
S'36'
p16
tp17
a(S'MPI_Recv()'
p18
S'40'
p19
tp20
a(S'X_MPI_COMM_WORLD()'
p21
S'41'
p22
tp23
a(S'MPI_Recv()'
p24
S'45'
p25
tp26
a(S'X_MPI_COMM_WORLD()'
p27
S'46'
p28
tp29
a(S'MPI_Send()'
p30
S'54'
p31
tp32
a(S'MPI_Finalize()'
p33
S'58'
p34
tp35
asS'math627/hw4/hw4/main.c'
p36
(lp37
(S'MPI_Init()'
p38
S'14'
p39
tp40
a(S'MPI_Comm_size()'
p41
S'16'
p42
tp43
a(S'MPI_Comm_rank()'
p44
S'17'
p45
tp46
a(S'MPI_Get_processor_name()'
p47
S'18'
p48
tp49
a(S'MPI_Barrier()'
p50
S'60'
p51
tp52
a(S'MPI_Wtime()'
p53
S'61'
p54
tp55
a(S'MPI_Barrier()'
p56
S'63'
p57
tp58
a(S'MPI_Wtime()'
p59
S'64'
p60
tp61
a(S'MPI_Wtime()'
p62
S'77'
p63
tp64
a(S'MPI_Wtime()'
p65
S'79'
p66
tp67
a(S'MPI_Wtime()'
p68
S'88'
p69
tp70
a(S'MPI_Wtime()'
p71
S'90'
p72
tp73
a(S'MPI_Wtime()'
p74
S'99'
p75
tp76
a(S'MPI_Wtime()'
p77
S'101'
p78
tp79
a(S'MPI_Wtime()'
p80
S'110'
p81
tp82
a(S'MPI_Wtime()'
p83
S'112'
p84
tp85
a(S'MPI_Finalize()'
p86
S'129'
p87
tp88
asS'math627/lll/source/Driver.c'
p89
(lp90
(S'MPI_Init()'
p91
S'75'
p92
tp93
a(S'MPI_Abort()'
p94
S'105'
p95
tp96
a(S'MPI_Abort()'
p97
S'116'
p98
tp99
a(S'MPI_Abort()'
p100
S'174'
p101
tp102
a(S'MPI_Barrier()'
p103
S'249'
p104
tp105
a(S'MPI_Comm_size()'
p106
S'256'
p107
tp108
a(S'MPI_Comm_rank()'
p109
S'257'
p110
tp111
a(S'MPI_Barrier()'
p112
S'268'
p113
tp114
a(S'MPI_Finalize()'
p115
S'306'
p116
tp117
asS'math627/hw3/ver0.0suppliedfiles/main.c'
p118
(lp119
(S'MPI_Init()'
p120
S'39'
p121
tp122
a(S'MPI_Comm_size()'
p123
S'42'
p124
tp125
a(S'MPI_Comm_rank()'
p126
S'43'
p127
tp128
a(S'MPI_Get_processor_name()'
p129
S'44'
p130
tp131
a(S'MPI_Recv()'
p132
S'50'
p133
tp134
a(S'MPI_Send()'
p135
S'55'
p136
tp137
a(S'MPI_Abort()'
p138
S'77'
p139
tp140
a(S'MPI_Abort()'
p141
S'91'
p142
tp143
a(S'MPI_Gather()'
p144
S'137'
p145
tp146
a(S'MPI_Barrier()'
p147
S'152'
p148
tp149
a(S'MPI_Wtime()'
p150
S'153'
p151
tp152
a(S'MPI_Barrier()'
p153
S'155'
p154
tp155
a(S'MPI_Wtime()'
p156
S'156'
p157
tp158
a(S'MPI_Gather()'
p159
S'177'
p160
tp161
a(S'MPI_Finalize()'
p162
S'195'
p163
tp164
a(S'MPI_Gather()'
p165
S'214'
p166
tp167
a(S'MPI_Gather()'
p168
S'215'
p169
tp170
a(S'MPI_Gather()'
p171
S'243'
p172
tp173
a(S'MPI_Gather()'
p174
S'244'
p175
tp176
asS'math627/hw5/serial_C/utilities.c'
p177
(lp178
(S'MPI_Allreduce()'
p179
S'35'
p180
tp181
a(S'MPI_Abort()'
p182
S'51'
p183
tp184
asS'math627/hw3/ver0.0suppliedfiles/utilities.c'
p185
(lp186
(S'MPI_Allreduce()'
p187
S'17'
p188
tp189
a(S'MPI_Reduce()'
p190
S'41'
p191
tp192
a(S'MPI_Scatter()'
p193
S'42'
p194
tp195
a(S'MPI_Gather()'
p196
S'90'
p197
tp198
a(S'MPI_Recv()'
p199
S'117'
p200
tp201
a(S'X_MPI_COMM_WORLD()'
p202
S'118'
p203
tp204
a(S'MPI_Send()'
p205
S'123'
p206
tp207
asS'math627/hw3/lafemina_hw3/lafemina_ver1.1suppliedfiles/main.c'
p208
(lp209
(S'MPI_Init()'
p210
S'39'
p211
tp212
a(S'MPI_Comm_size()'
p213
S'42'
p214
tp215
a(S'MPI_Comm_rank()'
p216
S'43'
p217
tp218
a(S'MPI_Get_processor_name()'
p219
S'44'
p220
tp221
a(S'MPI_Recv()'
p222
S'50'
p223
tp224
a(S'MPI_Send()'
p225
S'55'
p226
tp227
a(S'MPI_Abort()'
p228
S'77'
p229
tp230
a(S'MPI_Abort()'
p231
S'91'
p232
tp233
a(S'MPI_Gather()'
p234
S'137'
p235
tp236
a(S'MPI_Barrier()'
p237
S'152'
p238
tp239
a(S'MPI_Wtime()'
p240
S'153'
p241
tp242
a(S'MPI_Barrier()'
p243
S'155'
p244
tp245
a(S'MPI_Wtime()'
p246
S'156'
p247
tp248
a(S'MPI_Gather()'
p249
S'177'
p250
tp251
a(S'MPI_Finalize()'
p252
S'195'
p253
tp254
a(S'MPI_Gather()'
p255
S'214'
p256
tp257
a(S'MPI_Gather()'
p258
S'215'
p259
tp260
a(S'MPI_Gather()'
p261
S'243'
p262
tp263
a(S'MPI_Gather()'
p264
S'244'
p265
tp266
asS'math627/hw4/hw4/lin_alg.c'
p267
(lp268
(S'MPI_Abort()'
p269
S'62'
p270
tp271
a(S'MPI_Type_vector()'
p272
S'73'
p273
tp274
a(S'X_MPI_DOUBLE()'
p275
S'77'
p276
tp277
a(S'MPI_Type_commit()'
p278
S'80'
p279
tp280
a(S'MPI_Type_contiguous()'
p281
S'83'
p282
tp283
a(S'X_MPI_DOUBLE()'
p284
S'85'
p285
tp286
a(S'MPI_Type_commit()'
p287
S'88'
p288
tp289
a(S'MPI_Send()'
p290
S'94'
p291
tp292
a(S'MPI_Recv()'
p293
S'98'
p294
tp295
a(S'MPI_Send()'
p296
S'112'
p297
tp298
a(S'MPI_Recv()'
p299
S'116'
p300
tp301
a(S'MPI_Reduce()'
p302
S'136'
p303
tp304
asS'math627/hw5/serial_C/Ax.c'
p305
(lp306
(S'MPI_Isend()'
p307
S'18'
p308
tp309
a(S'MPI_Isend()'
p310
S'19'
p311
tp312
a(S'MPI_Irecv()'
p313
S'20'
p314
tp315
a(S'MPI_Irecv()'
p316
S'21'
p317
tp318
a(S'MPI_Recv()'
p319
S'27'
p320
tp321
a(S'MPI_Recv()'
p322
S'28'
p323
tp324
a(S'MPI_Send()'
p325
S'29'
p326
tp327
a(S'MPI_Send()'
p328
S'30'
p329
tp330
a(S'MPI_Send()'
p331
S'34'
p332
tp333
a(S'MPI_Send()'
p334
S'35'
p335
tp336
a(S'MPI_Recv()'
p337
S'36'
p338
tp339
a(S'MPI_Recv()'
p340
S'37'
p341
tp342
a(S'MPI_Waitall()'
p343
S'73'
p344
tp345
asS'math627/hw2/greetings.c'
p346
(lp347
(S'MPI_Init()'
p348
S'25'
p349
tp350
a(S'MPI_Comm_rank()'
p351
S'27'
p352
tp353
a(S'MPI_Comm_size()'
p354
S'29'
p355
tp356
a(S'MPI_Send()'
p357
S'36'
p358
tp359
a(S'MPI_Recv()'
p360
S'40'
p361
tp362
a(S'X_MPI_COMM_WORLD()'
p363
S'41'
p364
tp365
a(S'MPI_Recv()'
p366
S'45'
p367
tp368
a(S'X_MPI_COMM_WORLD()'
p369
S'46'
p370
tp371
a(S'MPI_Send()'
p372
S'54'
p373
tp374
a(S'MPI_Finalize()'
p375
S'58'
p376
tp377
asS'math627/lll/source/parallel_lll.c'
p378
(lp379
(S'MPI_Type_vector()'
p380
S'10'
p381
tp382
a(S'MPI_Type_commit()'
p383
S'11'
p384
tp385
a(S'MPI_Allgather()'
p386
S'59'
p387
tp388
a(S'MPI_Allgather()'
p389
S'106'
p390
tp391
a(S'MPI_Allgather()'
p392
S'107'
p393
tp394
a(S'MPI_Allgather()'
p395
S'108'
p396
tp397
a(S'MPI_Allgather()'
p398
S'109'
p399
tp400
a(S'MPI_Allgather()'
p401
S'112'
p402
tp403
a(S'MPI_Allgather()'
p404
S'113'
p405
tp406
a(S'MPI_Allgather()'
p407
S'114'
p408
tp409
a(S'MPI_Allgather()'
p410
S'115'
p411
tp412
a(S'MPI_Barrier()'
p413
S'120'
p414
tp415
a(S'MPI_Barrier()'
p416
S'135'
p417
tp418
asS'math627/hw5/submission/lafemina_hw5.gz.tar'
p419
(lp420
(S'MPI_Isend()'
p421
S'18'
p422
tp423
a(S'MPI_Isend()'
p424
S'19'
p425
tp426
a(S'MPI_Irecv()'
p427
S'20'
p428
tp429
a(S'MPI_Irecv()'
p430
S'21'
p431
tp432
a(S'MPI_Recv()'
p433
S'27'
p434
tp435
a(S'MPI_Recv()'
p436
S'28'
p437
tp438
a(S'MPI_Send()'
p439
S'29'
p440
tp441
a(S'MPI_Send()'
p442
S'30'
p443
tp444
a(S'MPI_Send()'
p445
S'34'
p446
tp447
a(S'MPI_Send()'
p448
S'35'
p449
tp450
a(S'MPI_Recv()'
p451
S'36'
p452
tp453
a(S'MPI_Recv()'
p454
S'37'
p455
tp456
a(S'MPI_Waitall()'
p457
S'73'
p458
tp459
a(S'MPI_Init()'
p460
S'230'
p461
tp462
a(S'MPI_Comm_size()'
p463
S'233'
p464
tp465
a(S'MPI_Comm_rank()'
p466
S'234'
p467
tp468
a(S'MPI_Get_processor_name()'
p469
S'235'
p470
tp471
a(S'MPI_Abort()'
p472
S'244'
p473
tp474
a(S'MPI_Abort()'
p475
S'258'
p476
tp477
a(S'MPI_Abort()'
p478
S'269'
p479
tp480
a(S'MPI_Barrier()'
p481
S'326'
p482
tp483
a(S'MPI_Wtime()'
p484
S'327'
p485
tp486
a(S'MPI_Barrier()'
p487
S'334'
p488
tp489
a(S'MPI_Wtime()'
p490
S'335'
p491
tp492
a(S'MPI_Reduce()'
p493
S'339'
p494
tp495
a(S'MPI_Gather()'
p496
S'344'
p497
tp498
a(S'MPI_Finalize()'
p499
S'374'
p500
tp501
a(S'MPI_Allreduce()'
p502
S'411'
p503
tp504
a(S'MPI_Abort()'
p505
S'427'
p506
tp507
asS'math627/hw2/report/hw2.tex'
p508
(lp509
(S'MPI_Recv()'
p510
S'62'
p511
tp512
asS'math627/hw2/snapshots/greetings_1.c'
p513
(lp514
(S'MPI_Init()'
p515
S'26'
p516
tp517
a(S'MPI_Comm_rank()'
p518
S'29'
p519
tp520
a(S'MPI_Comm_size()'
p521
S'32'
p522
tp523
a(S'MPI_Send()'
p524
S'40'
p525
tp526
a(S'MPI_Recv()'
p527
S'44'
p528
tp529
a(S'X_MPI_COMM_WORLD()'
p530
S'45'
p531
tp532
a(S'MPI_Finalize()'
p533
S'51'
p534
tp535
asS'math627/hw2/trap.c'
p536
(lp537
(S'MPI_Init()'
p538
S'51'
p539
tp540
a(S'MPI_Comm_rank()'
p541
S'54'
p542
tp543
a(S'MPI_Comm_size()'
p544
S'57'
p545
tp546
a(S'MPI_Abort()'
p547
S'61'
p548
tp549
a(S'MPI_Abort()'
p550
S'70'
p551
tp552
a(S'MPI_Barrier()'
p553
S'73'
p554
tp555
a(S'MPI_Wtime()'
p556
S'74'
p557
tp558
a(S'MPI_Recv()'
p559
S'84'
p560
tp561
a(S'X_MPI_COMM_WORLD()'
p562
S'85'
p563
tp564
a(S'MPI_Send()'
p565
S'89'
p566
tp567
a(S'MPI_Barrier()'
p568
S'93'
p569
tp570
a(S'MPI_Wtime()'
p571
S'94'
p572
tp573
a(S'MPI_Finalize()'
p574
S'116'
p575
tp576
asS'math627/hw3/lafemina_hw3/lafemina_ver1.1suppliedfiles/utilities.c'
p577
(lp578
(S'MPI_Allreduce()'
p579
S'17'
p580
tp581
a(S'MPI_Reduce()'
p582
S'41'
p583
tp584
a(S'MPI_Scatter()'
p585
S'42'
p586
tp587
a(S'MPI_Gather()'
p588
S'90'
p589
tp590
a(S'MPI_Recv()'
p591
S'117'
p592
tp593
a(S'X_MPI_COMM_WORLD()'
p594
S'118'
p595
tp596
a(S'MPI_Send()'
p597
S'123'
p598
tp599
asS'math627/hw5/serial_C/main.c'
p600
(lp601
(S'MPI_Init()'
p602
S'12'
p603
tp604
a(S'MPI_Comm_size()'
p605
S'15'
p606
tp607
a(S'MPI_Comm_rank()'
p608
S'16'
p609
tp610
a(S'MPI_Get_processor_name()'
p611
S'17'
p612
tp613
a(S'MPI_Abort()'
p614
S'26'
p615
tp616
a(S'MPI_Abort()'
p617
S'40'
p618
tp619
a(S'MPI_Abort()'
p620
S'51'
p621
tp622
a(S'MPI_Barrier()'
p623
S'108'
p624
tp625
a(S'MPI_Wtime()'
p626
S'109'
p627
tp628
a(S'MPI_Barrier()'
p629
S'116'
p630
tp631
a(S'MPI_Wtime()'
p632
S'117'
p633
tp634
a(S'MPI_Reduce()'
p635
S'121'
p636
tp637
a(S'MPI_Gather()'
p638
S'126'
p639
tp640
a(S'MPI_Finalize()'
p641
S'156'
p642
tp643
asS'math627/hw2/snapshots/greetings_2.c'
p644
(lp645
(S'MPI_Init()'
p646
S'26'
p647
tp648
a(S'MPI_Comm_rank()'
p649
S'29'
p650
tp651
a(S'MPI_Comm_size()'
p652
S'32'
p653
tp654
a(S'MPI_Send()'
p655
S'40'
p656
tp657
a(S'MPI_Recv()'
p658
S'44'
p659
tp660
a(S'X_MPI_COMM_WORLD()'
p661
S'45'
p662
tp663
a(S'MPI_Finalize()'
p664
S'51'
p665
tp666
asS'math627/hw4/hw4/utilities.c'
p667
(lp668
(S'MPI_Allreduce()'
p669
S'24'
p670
tp671
a(S'MPI_Reduce()'
p672
S'58'
p673
tp674
a(S'MPI_Scatter()'
p675
S'59'
p676
tp677
a(S'MPI_Gather()'
p678
S'78'
p679
tp680
as.