ccollections
defaultdict
p0
(c__builtin__
list
p1
tp2
Rp3
S'CS-PARALELOS-2017/CuestionarioCap3-4/programas/Greeting/greeting.c'
p4
(lp5
(S'MPI_Init()'
p6
S'11'
p7
tp8
a(S'MPI_Comm_size()'
p9
S'12'
p10
tp11
a(S'MPI_Comm_rank()'
p12
S'13'
p13
tp14
a(S'MPI_Send()'
p15
S'17'
p16
tp17
a(S'MPI_Recv()'
p18
S'21'
p19
tp20
a(S'MPI_Finalize()'
p21
S'25'
p22
tp23
asS'CS-PARALELOS-2017/Teo_Tarea2/rs.c'
p24
(lp25
(S'MPI_Init()'
p26
S'10'
p27
tp28
a(S'MPI_Comm_rank()'
p29
S'11'
p30
tp31
a(S'MPI_Rsend()'
p32
S'16'
p33
tp34
a(S'MPI_Recv()'
p35
S'23'
p36
tp37
a(S'MPI_Finalize()'
p38
S'29'
p39
tp40
asS'CS-PARALELOS-2017/CuestionarioCap3-4/programas/TypeCont/type_cont.c'
p41
(lp42
(S'MPI_Init()'
p43
S'10'
p44
tp45
a(S'MPI_Comm_size()'
p46
S'11'
p47
tp48
a(S'MPI_Comm_rank()'
p49
S'12'
p50
tp51
a(S'MPI_Type_contiguous()'
p52
S'18'
p53
tp54
a(S'MPI_Type_commit()'
p55
S'19'
p56
tp57
a(S'MPI_Scatter()'
p58
S'20'
p59
tp60
a(S'MPI_Gather()'
p61
S'25'
p62
tp63
a(S'MPI_Finalize()'
p64
S'33'
p65
tp66
asS'CS-PARALELOS-2017/Lab_Tarea3/ScatterGather/scatter_gather.c'
p67
(lp68
(S'MPI_Init()'
p69
S'26'
p70
tp71
a(S'MPI_Comm_rank()'
p72
S'27'
p73
tp74
a(S'MPI_Comm_size()'
p75
S'28'
p76
tp77
a(S'MPI_Scatter()'
p78
S'38'
p79
tp80
a(S'MPI_Scatter()'
p81
S'41'
p82
tp83
a(S'MPI_Gather()'
p84
S'50'
p85
tp86
a(S'MPI_Gather()'
p87
S'58'
p88
tp89
a(S'MPI_Finalize()'
p90
S'60'
p91
tp92
asS'CS-PARALELOS-2017/CuestionarioCap3-4/programas/VectorScalar/vector_scalar.c'
p93
(lp94
(S'MPI_Init()'
p95
S'46'
p96
tp97
a(S'MPI_Comm_size()'
p98
S'47'
p99
tp100
a(S'MPI_Comm_rank()'
p101
S'48'
p102
tp103
a(S'MPI_Scatter()'
p104
S'74'
p105
tp106
a(S'MPI_Scatter()'
p107
S'75'
p108
tp109
a(S'MPI_Send()'
p110
S'78'
p111
tp112
a(S'MPI_Reduce()'
p113
S'85'
p114
tp115
a(S'MPI_Gather()'
p116
S'88'
p117
tp118
a(S'MPI_Gather()'
p119
S'89'
p120
tp121
a(S'MPI_Finalize()'
p122
S'97'
p123
tp124
asS'CS-PARALELOS-2017/Teo_Tarea2/sts1.c'
p125
(lp126
(S'MPI_Init()'
p127
S'9'
p128
tp129
a(S'MPI_Comm_rank()'
p130
S'10'
p131
tp132
a(S'MPI_Send()'
p133
S'15'
p134
tp135
a(S'MPI_Recv()'
p136
S'22'
p137
tp138
a(S'MPI_Finalize()'
p139
S'28'
p140
tp141
asS'CS-PARALELOS-2017/CuestionarioCap3-4/documento/doc.tex.backup'
p142
(lp143
(S'MPI_Init()'
p144
S'110'
p145
tp146
a(S'MPI_Comm_size()'
p147
S'111'
p148
tp149
a(S'MPI_Comm_rank()'
p150
S'112'
p151
tp152
a(S'MPI_Send()'
p153
S'114'
p154
tp155
a(S'MPI_Recv()'
p156
S'120'
p157
tp158
a(S'MPI_Finalize()'
p159
S'124'
p160
tp161
a(S'MPI_Init()'
p162
S'241'
p163
tp164
a(S'MPI_Comm_size()'
p165
S'242'
p166
tp167
a(S'MPI_Comm_rank()'
p168
S'243'
p169
tp170
a(S'MPI_Scatter()'
p171
S'269'
p172
tp173
a(S'MPI_Scatter()'
p174
S'270'
p175
tp176
a(S'MPI_Send()'
p177
S'273'
p178
tp179
a(S'MPI_Reduce()'
p180
S'280'
p181
tp182
a(S'MPI_Gather()'
p183
S'283'
p184
tp185
a(S'MPI_Gather()'
p186
S'284'
p187
tp188
a(S'MPI_Finalize()'
p189
S'292'
p190
tp191
a(S'MPI_Init()'
p192
S'364'
p193
tp194
a(S'MPI_Comm_size()'
p195
S'365'
p196
tp197
a(S'MPI_Comm_rank()'
p198
S'366'
p199
tp200
a(S'MPI_Recv()'
p201
S'375'
p202
tp203
a(S'MPI_Send()'
p204
S'376'
p205
tp206
a(S'MPI_Gather()'
p207
S'379'
p208
tp209
a(S'MPI_Finalize()'
p210
S'382'
p211
tp212
a(S'MPI_Init()'
p213
S'398'
p214
tp215
a(S'MPI_Comm_size()'
p216
S'399'
p217
tp218
a(S'MPI_Comm_rank()'
p219
S'400'
p220
tp221
a(S'MPI_Scan()'
p222
S'404'
p223
tp224
a(S'MPI_Finalize()'
p225
S'409'
p226
tp227
a(S'MPI_Init()'
p228
S'448'
p229
tp230
a(S'MPI_Comm_size()'
p231
S'449'
p232
tp233
a(S'MPI_Comm_rank()'
p234
S'450'
p235
tp236
a(S'MPI_Sendrecv_replace()'
p237
S'460'
p238
tp239
a(S'MPI_Finalize()'
p240
S'464'
p241
tp242
a(S'MPI_Init()'
p243
S'499'
p244
tp245
a(S'MPI_Comm_size()'
p246
S'500'
p247
tp248
a(S'MPI_Comm_rank()'
p249
S'501'
p250
tp251
a(S'MPI_Scatterv()'
p252
S'515'
p253
tp254
a(S'MPI_Reduce()'
p255
S'517'
p256
tp257
a(S'MPI_Finalize()'
p258
S'524'
p259
tp260
a(S'MPI_Init()'
p261
S'615'
p262
tp263
a(S'MPI_Comm_size()'
p264
S'616'
p265
tp266
a(S'MPI_Comm_rank()'
p267
S'617'
p268
tp269
a(S'MPI_Type_contiguous()'
p270
S'623'
p271
tp272
a(S'MPI_Type_commit()'
p273
S'624'
p274
tp275
a(S'MPI_Scatter()'
p276
S'625'
p277
tp278
a(S'MPI_Gather()'
p279
S'630'
p280
tp281
a(S'MPI_Finalize()'
p282
S'638'
p283
tp284
a(S'MPI_Init()'
p285
S'682'
p286
tp287
a(S'MPI_Comm_size()'
p288
S'683'
p289
tp290
a(S'MPI_Comm_rank()'
p291
S'684'
p292
tp293
a(S'MPI_Type_vector()'
p294
S'690'
p295
tp296
a(S'MPI_Type_commit()'
p297
S'691'
p298
tp299
a(S'MPI_Send()'
p300
S'698'
p301
tp302
a(S'MPI_Recv()'
p303
S'702'
p304
tp305
a(S'MPI_Send()'
p306
S'710'
p307
tp308
a(S'MPI_Recv()'
p309
S'717'
p310
tp311
a(S'MPI_Finalize()'
p312
S'721'
p313
tp314
a(S'MPI_Init()'
p315
S'755'
p316
tp317
a(S'MPI_Comm_size()'
p318
S'756'
p319
tp320
a(S'MPI_Comm_rank()'
p321
S'757'
p322
tp323
a(S'MPI_Type_indexed()'
p324
S'769'
p325
tp326
a(S'MPI_Type_commit()'
p327
S'770'
p328
tp329
a(S'MPI_Send()'
p330
S'773'
p331
tp332
a(S'MPI_Recv()'
p333
S'776'
p334
tp335
a(S'MPI_Finalize()'
p336
S'780'
p337
tp338
a(S'MPI_Pack()'
p339
S'806'
p340
tp341
a(S'MPI_Pack()'
p342
S'807'
p343
tp344
a(S'MPI_Pack()'
p345
S'808'
p346
tp347
a(S'MPI_Pack()'
p348
S'843'
p349
tp350
a(S'MPI_Pack()'
p351
S'844'
p352
tp353
a(S'MPI_Pack()'
p354
S'845'
p355
tp356
a(S'MPI_Bcast()'
p357
S'847'
p358
tp359
a(S'MPI_Unpack()'
p360
S'849'
p361
tp362
a(S'MPI_Unpack()'
p363
S'850'
p364
tp365
a(S'MPI_Unpack()'
p366
S'851'
p367
tp368
asS'CS-PARALELOS-2017/CuestionarioCap3-4/programas/PrefixSums/scan_psum.c'
p369
(lp370
(S'MPI_Init()'
p371
S'10'
p372
tp373
a(S'MPI_Comm_size()'
p374
S'11'
p375
tp376
a(S'MPI_Comm_rank()'
p377
S'12'
p378
tp379
a(S'MPI_Scan()'
p380
S'16'
p381
tp382
a(S'MPI_Finalize()'
p383
S'21'
p384
tp385
asS'CS-PARALELOS-2017/CuestionarioCap3-4/programas/OddEven/odd_even_parallel.c'
p386
(lp387
(S'MPI_Send()'
p388
S'25'
p389
tp390
a(S'MPI_Recv()'
p391
S'26'
p392
tp393
a(S'MPI_Recv()'
p394
S'29'
p395
tp396
a(S'MPI_Recv()'
p397
S'36'
p398
tp399
a(S'MPI_Send()'
p400
S'53'
p401
tp402
a(S'MPI_Send()'
p403
S'54'
p404
tp405
a(S'MPI_Init()'
p406
S'77'
p407
tp408
a(S'MPI_Comm_rank()'
p409
S'78'
p410
tp411
a(S'MPI_Comm_size()'
p412
S'79'
p413
tp414
a(S'MPI_Scatter()'
p415
S'92'
p416
tp417
a(S'MPI_Barrier()'
p418
S'96'
p419
tp420
a(S'MPI_Gather()'
p421
S'116'
p422
tp423
a(S'MPI_Finalize()'
p424
S'126'
p425
tp426
asS'CS-PARALELOS-2017/ProyectoFinal/bin/invest/main.c'
p427
(lp428
(S'MPI_Allgatherv()'
p429
S'57'
p430
tp431
a(S'MPI_Bcast()'
p432
S'73'
p433
tp434
a(S'MPI_Init()'
p435
S'91'
p436
tp437
a(S'MPI_Comm_rank()'
p438
S'92'
p439
tp440
a(S'MPI_Comm_size()'
p441
S'93'
p442
tp443
a(S'MPI_Bcast()'
p444
S'121'
p445
tp446
a(S'MPI_Bcast()'
p447
S'122'
p448
tp449
a(S'MPI_Bcast()'
p450
S'129'
p451
tp452
a(S'MPI_Bcast()'
p453
S'130'
p454
tp455
a(S'MPI_Bcast()'
p456
S'131'
p457
tp458
a(S'MPI_Bcast()'
p459
S'132'
p460
tp461
a(S'MPI_Reduce()'
p462
S'152'
p463
tp464
a(S'MPI_Reduce()'
p465
S'185'
p466
tp467
a(S'MPI_Allgatherv()'
p468
S'198'
p469
tp470
a(S'MPI_Finalize()'
p471
S'209'
p472
tp473
asS'CS-PARALELOS-2017/CuestionarioCap3-4/programas/TypeVec/type_vec.c'
p474
(lp475
(S'MPI_Init()'
p476
S'10'
p477
tp478
a(S'MPI_Comm_size()'
p479
S'11'
p480
tp481
a(S'MPI_Comm_rank()'
p482
S'12'
p483
tp484
a(S'MPI_Type_vector()'
p485
S'18'
p486
tp487
a(S'MPI_Type_commit()'
p488
S'19'
p489
tp490
a(S'MPI_Send()'
p491
S'26'
p492
tp493
a(S'MPI_Recv()'
p494
S'30'
p495
tp496
a(S'MPI_Send()'
p497
S'38'
p498
tp499
a(S'MPI_Recv()'
p500
S'45'
p501
tp502
a(S'MPI_Finalize()'
p503
S'49'
p504
tp505
asS'CS-PARALELOS-2017/Teo_Tarea2/bs.c'
p506
(lp507
(S'MPI_Init()'
p508
S'10'
p509
tp510
a(S'MPI_Comm_rank()'
p511
S'11'
p512
tp513
a(S'MPI_Buffer_attach()'
p514
S'18'
p515
tp516
a(S'MPI_Bsend()'
p517
S'20'
p518
tp519
a(S'MPI_Recv()'
p520
S'27'
p521
tp522
a(S'MPI_Finalize()'
p523
S'33'
p524
tp525
asS'CS-PARALELOS-2017/ProyectoFinal/bin/test/test.c'
p526
(lp527
(S'MPI_Init()'
p528
S'36'
p529
tp530
a(S'MPI_Comm_rank()'
p531
S'37'
p532
tp533
a(S'MPI_Comm_size()'
p534
S'38'
p535
tp536
a(S'MPI_Allgatherv()'
p537
S'58'
p538
tp539
a(S'MPI_Init()'
p540
S'73'
p541
tp542
a(S'MPI_Comm_rank()'
p543
S'74'
p544
tp545
a(S'MPI_Comm_size()'
p546
S'75'
p547
tp548
a(S'MPI_Allgatherv()'
p549
S'102'
p550
tp551
a(S'MPI_Init()'
p552
S'122'
p553
tp554
a(S'MPI_Comm_rank()'
p555
S'123'
p556
tp557
a(S'MPI_Allgather()'
p558
S'142'
p559
tp560
asS'CS-PARALELOS-2017/CuestionarioCap3-4/programas/TrapecioPackUnpack/trap_pu.c'
p561
(lp562
(S'MPI_Init()'
p563
S'34'
p564
tp565
a(S'MPI_Comm_rank()'
p566
S'35'
p567
tp568
a(S'MPI_Comm_size()'
p569
S'36'
p570
tp571
a(S'MPI_Pack()'
p572
S'42'
p573
tp574
a(S'MPI_Pack()'
p575
S'43'
p576
tp577
a(S'MPI_Pack()'
p578
S'44'
p579
tp580
a(S'MPI_Bcast()'
p581
S'46'
p582
tp583
a(S'MPI_Unpack()'
p584
S'48'
p585
tp586
a(S'MPI_Unpack()'
p587
S'49'
p588
tp589
a(S'MPI_Unpack()'
p590
S'50'
p591
tp592
a(S'MPI_Send()'
p593
S'59'
p594
tp595
a(S'MPI_Recv()'
p596
S'64'
p597
tp598
a(S'MPI_Finalize()'
p599
S'70'
p600
tp601
asS'CS-PARALELOS-2017/CuestionarioCap3-4/programas/Trapecio/trapecio.c'
p602
(lp603
(S'MPI_Init()'
p604
S'34'
p605
tp606
a(S'MPI_Comm_rank()'
p607
S'35'
p608
tp609
a(S'MPI_Comm_size()'
p610
S'36'
p611
tp612
a(S'MPI_Reduce()'
p613
S'47'
p614
tp615
a(S'MPI_Send()'
p616
S'53'
p617
tp618
a(S'MPI_Recv()'
p619
S'58'
p620
tp621
a(S'MPI_Finalize()'
p622
S'71'
p623
tp624
asS'CS-PARALELOS-2017/CuestionarioCap3-4/programas/Output/mpi_output.c'
p625
(lp626
(S'MPI_Init()'
p627
S'6'
p628
tp629
a(S'MPI_Comm_size()'
p630
S'7'
p631
tp632
a(S'MPI_Comm_rank()'
p633
S'8'
p634
tp635
a(S'MPI_Send()'
p636
S'10'
p637
tp638
a(S'MPI_Recv()'
p639
S'16'
p640
tp641
a(S'MPI_Finalize()'
p642
S'20'
p643
tp644
asS'CS-PARALELOS-2017/CuestionarioCap3-4/programas/RingPass/ring_pass.c'
p645
(lp646
(S'MPI_Init()'
p647
g128
tp648
a(S'MPI_Comm_size()'
p649
S'10'
p650
tp651
a(S'MPI_Comm_rank()'
p652
S'11'
p653
tp654
a(S'MPI_Sendrecv_replace()'
p655
S'21'
p656
tp657
a(S'MPI_Finalize()'
p658
S'25'
p659
tp660
asS'CS-PARALELOS-2017/CuestionarioCap3-4/programas/TypeIndexed/type_indexed.c'
p661
(lp662
(S'MPI_Init()'
p663
S'10'
p664
tp665
a(S'MPI_Comm_size()'
p666
S'11'
p667
tp668
a(S'MPI_Comm_rank()'
p669
S'12'
p670
tp671
a(S'MPI_Type_indexed()'
p672
S'24'
p673
tp674
a(S'MPI_Type_commit()'
p675
S'25'
p676
tp677
a(S'MPI_Send()'
p678
S'28'
p679
tp680
a(S'MPI_Recv()'
p681
S'31'
p682
tp683
a(S'MPI_Finalize()'
p684
S'35'
p685
tp686
asS'CS-PARALELOS-2017/CuestionarioCap3-4/documento/doc.tex'
p687
(lp688
(S'MPI_Init()'
p689
S'110'
p690
tp691
a(S'MPI_Comm_size()'
p692
S'111'
p693
tp694
a(S'MPI_Comm_rank()'
p695
S'112'
p696
tp697
a(S'MPI_Send()'
p698
S'114'
p699
tp700
a(S'MPI_Recv()'
p701
S'120'
p702
tp703
a(S'MPI_Finalize()'
p704
S'124'
p705
tp706
a(S'MPI_Init()'
p707
S'241'
p708
tp709
a(S'MPI_Comm_size()'
p710
S'242'
p711
tp712
a(S'MPI_Comm_rank()'
p713
S'243'
p714
tp715
a(S'MPI_Scatter()'
p716
S'269'
p717
tp718
a(S'MPI_Scatter()'
p719
S'270'
p720
tp721
a(S'MPI_Send()'
p722
S'273'
p723
tp724
a(S'MPI_Reduce()'
p725
S'280'
p726
tp727
a(S'MPI_Gather()'
p728
S'283'
p729
tp730
a(S'MPI_Gather()'
p731
S'284'
p732
tp733
a(S'MPI_Finalize()'
p734
S'292'
p735
tp736
a(S'MPI_Init()'
p737
S'364'
p738
tp739
a(S'MPI_Comm_size()'
p740
S'365'
p741
tp742
a(S'MPI_Comm_rank()'
p743
S'366'
p744
tp745
a(S'MPI_Recv()'
p746
S'375'
p747
tp748
a(S'MPI_Send()'
p749
S'376'
p750
tp751
a(S'MPI_Gather()'
p752
S'379'
p753
tp754
a(S'MPI_Finalize()'
p755
S'382'
p756
tp757
a(S'MPI_Init()'
p758
S'398'
p759
tp760
a(S'MPI_Comm_size()'
p761
S'399'
p762
tp763
a(S'MPI_Comm_rank()'
p764
S'400'
p765
tp766
a(S'MPI_Scan()'
p767
S'404'
p768
tp769
a(S'MPI_Finalize()'
p770
S'409'
p771
tp772
a(S'MPI_Init()'
p773
S'448'
p774
tp775
a(S'MPI_Comm_size()'
p776
S'449'
p777
tp778
a(S'MPI_Comm_rank()'
p779
S'450'
p780
tp781
a(S'MPI_Sendrecv_replace()'
p782
S'460'
p783
tp784
a(S'MPI_Finalize()'
p785
S'464'
p786
tp787
a(S'MPI_Init()'
p788
S'499'
p789
tp790
a(S'MPI_Comm_size()'
p791
S'500'
p792
tp793
a(S'MPI_Comm_rank()'
p794
S'501'
p795
tp796
a(S'MPI_Scatterv()'
p797
S'515'
p798
tp799
a(S'MPI_Reduce()'
p800
S'517'
p801
tp802
a(S'MPI_Finalize()'
p803
S'524'
p804
tp805
a(S'MPI_Init()'
p806
S'615'
p807
tp808
a(S'MPI_Comm_size()'
p809
S'616'
p810
tp811
a(S'MPI_Comm_rank()'
p812
S'617'
p813
tp814
a(S'MPI_Type_contiguous()'
p815
S'623'
p816
tp817
a(S'MPI_Type_commit()'
p818
S'624'
p819
tp820
a(S'MPI_Scatter()'
p821
S'625'
p822
tp823
a(S'MPI_Gather()'
p824
S'630'
p825
tp826
a(S'MPI_Finalize()'
p827
S'638'
p828
tp829
a(S'MPI_Init()'
p830
S'682'
p831
tp832
a(S'MPI_Comm_size()'
p833
S'683'
p834
tp835
a(S'MPI_Comm_rank()'
p836
S'684'
p837
tp838
a(S'MPI_Type_vector()'
p839
S'690'
p840
tp841
a(S'MPI_Type_commit()'
p842
S'691'
p843
tp844
a(S'MPI_Send()'
p845
S'698'
p846
tp847
a(S'MPI_Recv()'
p848
S'702'
p849
tp850
a(S'MPI_Send()'
p851
S'710'
p852
tp853
a(S'MPI_Recv()'
p854
S'717'
p855
tp856
a(S'MPI_Finalize()'
p857
S'721'
p858
tp859
a(S'MPI_Init()'
p860
S'755'
p861
tp862
a(S'MPI_Comm_size()'
p863
S'756'
p864
tp865
a(S'MPI_Comm_rank()'
p866
S'757'
p867
tp868
a(S'MPI_Type_indexed()'
p869
S'769'
p870
tp871
a(S'MPI_Type_commit()'
p872
S'770'
p873
tp874
a(S'MPI_Send()'
p875
S'773'
p876
tp877
a(S'MPI_Recv()'
p878
S'776'
p879
tp880
a(S'MPI_Finalize()'
p881
S'780'
p882
tp883
a(S'MPI_Pack()'
p884
S'806'
p885
tp886
a(S'MPI_Pack()'
p887
S'807'
p888
tp889
a(S'MPI_Pack()'
p890
S'808'
p891
tp892
a(S'MPI_Pack()'
p893
S'843'
p894
tp895
a(S'MPI_Pack()'
p896
S'844'
p897
tp898
a(S'MPI_Pack()'
p899
S'845'
p900
tp901
a(S'MPI_Bcast()'
p902
S'847'
p903
tp904
a(S'MPI_Unpack()'
p905
S'849'
p906
tp907
a(S'MPI_Unpack()'
p908
S'850'
p909
tp910
a(S'MPI_Unpack()'
p911
S'851'
p912
tp913
asS'CS-PARALELOS-2017/Lab_Tarea3/MatrizVectorMul/matrix_x_vector.c'
p914
(lp915
(S'MPI_Init()'
p916
S'60'
p917
tp918
a(S'MPI_Comm_rank()'
p919
S'61'
p920
tp921
a(S'MPI_Comm_size()'
p922
S'62'
p923
tp924
a(S'MPI_Scatter()'
p925
S'81'
p926
tp927
a(S'MPI_Barrier()'
p928
S'85'
p929
tp930
a(S'MPI_Reduce()'
p931
S'88'
p932
tp933
a(S'MPI_Allgather()'
p934
S'90'
p935
tp936
a(S'MPI_Finalize()'
p937
S'107'
p938
tp939
asS'CS-PARALELOS-2017/Lab_Tarea2/mpi_main.c'
p940
(lp941
(S'MPI_Init()'
p942
S'10'
p943
tp944
a(S'MPI_Comm_rank()'
p945
S'11'
p946
tp947
a(S'MPI_Recv()'
p948
S'14'
p949
tp950
a(S'MPI_Send()'
p951
S'18'
p952
tp953
a(S'MPI_Send()'
p954
S'23'
p955
tp956
a(S'MPI_Recv()'
p957
S'24'
p958
tp959
a(S'MPI_Send()'
p960
S'30'
p961
tp962
a(S'MPI_Finalize()'
p963
S'32'
p964
tp965
asS'CS-PARALELOS-2017/Teo_Tarea2/sts2.c'
p966
(lp967
(S'MPI_Init()'
p968
S'11'
p969
tp970
a(S'MPI_Comm_rank()'
p971
S'12'
p972
tp973
a(S'MPI_Send()'
p974
S'20'
p975
tp976
a(S'MPI_Recv()'
p977
S'27'
p978
tp979
a(S'MPI_Finalize()'
p980
S'33'
p981
tp982
asS'CS-PARALELOS-2017/Lab_Tarea3/Trapecio/trapecio.c'
p983
(lp984
(S'MPI_Init()'
p985
S'32'
p986
tp987
a(S'MPI_Comm_rank()'
p988
S'33'
p989
tp990
a(S'MPI_Comm_size()'
p991
S'34'
p992
tp993
a(S'MPI_Send()'
p994
S'41'
p995
tp996
a(S'MPI_Recv()'
p997
S'46'
p998
tp999
a(S'MPI_Finalize()'
p1000
S'52'
p1001
tp1002
asS'CS-PARALELOS-2017/CuestionarioCap3-4/programas/GSV/gs_vector.c'
p1003
(lp1004
(S'MPI_Init()'
p1005
S'18'
p1006
tp1007
a(S'MPI_Comm_size()'
p1008
S'19'
p1009
tp1010
a(S'MPI_Comm_rank()'
p1011
S'20'
p1012
tp1013
a(S'MPI_Scatterv()'
p1014
S'34'
p1015
tp1016
a(S'MPI_Reduce()'
p1017
S'36'
p1018
tp1019
a(S'MPI_Finalize()'
p1020
S'43'
p1021
tp1022
asS'CS-PARALELOS-2017/CuestionarioCap3-4/programas/PrefixSums/parallel_psum.c'
p1023
(lp1024
(S'MPI_Init()'
p1025
S'17'
p1026
tp1027
a(S'MPI_Comm_size()'
p1028
S'18'
p1029
tp1030
a(S'MPI_Comm_rank()'
p1031
S'19'
p1032
tp1033
a(S'MPI_Recv()'
p1034
S'28'
p1035
tp1036
a(S'MPI_Send()'
p1037
S'29'
p1038
tp1039
a(S'MPI_Gather()'
p1040
S'32'
p1041
tp1042
a(S'MPI_Finalize()'
p1043
S'35'
p1044
tp1045
asS'CS-PARALELOS-2017/Lab_Tarea3/OddEven/odd_even_parallel.c'
p1046
(lp1047
(S'MPI_Send()'
p1048
S'25'
p1049
tp1050
a(S'MPI_Recv()'
p1051
S'26'
p1052
tp1053
a(S'MPI_Recv()'
p1054
S'27'
p1055
tp1056
a(S'MPI_Recv()'
p1057
S'34'
p1058
tp1059
a(S'MPI_Send()'
p1060
S'51'
p1061
tp1062
a(S'MPI_Send()'
p1063
S'52'
p1064
tp1065
a(S'MPI_Init()'
p1066
S'74'
p1067
tp1068
a(S'MPI_Comm_rank()'
p1069
S'75'
p1070
tp1071
a(S'MPI_Comm_size()'
p1072
S'76'
p1073
tp1074
a(S'MPI_Scatter()'
p1075
S'89'
p1076
tp1077
a(S'MPI_Barrier()'
p1078
S'92'
p1079
tp1080
a(S'MPI_Gather()'
p1081
S'110'
p1082
tp1083
a(S'MPI_Finalize()'
p1084
S'119'
p1085
tp1086
asS'CS-PARALELOS-2017/Teo_Tarea2/documento/doc.tex'
p1087
(lp1088
(S'MPI_Init()'
p1089
S'75'
p1090
tp1091
a(S'MPI_Comm_rank()'
p1092
S'76'
p1093
tp1094
a(S'MPI_Ssend()'
p1095
S'81'
p1096
tp1097
a(S'MPI_Recv()'
p1098
S'88'
p1099
tp1100
a(S'MPI_Finalize()'
p1101
S'94'
p1102
tp1103
a(S'MPI_Init()'
p1104
S'122'
p1105
tp1106
a(S'MPI_Comm_rank()'
p1107
S'123'
p1108
tp1109
a(S'MPI_Rsend()'
p1110
S'128'
p1111
tp1112
a(S'MPI_Recv()'
p1113
S'135'
p1114
tp1115
a(S'MPI_Finalize()'
p1116
S'141'
p1117
tp1118
a(S'MPI_Init()'
p1119
S'169'
p1120
tp1121
a(S'MPI_Comm_rank()'
p1122
S'170'
p1123
tp1124
a(S'MPI_Buffer_attach()'
p1125
S'177'
p1126
tp1127
a(S'MPI_Bsend()'
p1128
S'179'
p1129
tp1130
a(S'MPI_Recv()'
p1131
S'186'
p1132
tp1133
a(S'MPI_Finalize()'
p1134
S'192'
p1135
tp1136
a(S'MPI_Init()'
p1137
S'220'
p1138
tp1139
a(S'MPI_Comm_rank()'
p1140
S'221'
p1141
tp1142
a(S'MPI_Send()'
p1143
S'226'
p1144
tp1145
a(S'MPI_Recv()'
p1146
S'233'
p1147
tp1148
a(S'MPI_Finalize()'
p1149
S'239'
p1150
tp1151
asS'CS-PARALELOS-2017/Teo_Tarea2/ss.c'
p1152
(lp1153
(S'MPI_Init()'
p1154
S'10'
p1155
tp1156
a(S'MPI_Comm_rank()'
p1157
S'11'
p1158
tp1159
a(S'MPI_Ssend()'
p1160
S'16'
p1161
tp1162
a(S'MPI_Recv()'
p1163
S'23'
p1164
tp1165
a(S'MPI_Finalize()'
p1166
S'29'
p1167
tp1168
as.