ccollections
defaultdict
p0
(c__builtin__
list
p1
tp2
Rp3
S'ScSFSimulator/testsuite/expect/mpi-testscripts/alltoall_timed.c'
p4
(lp5
(S'MPI_Init()'
p6
S'16'
p7
tp8
a(S'MPI_Comm_size()'
p9
S'17'
p10
tp11
a(S'MPI_Finalize()'
p12
S'21'
p13
tp14
a(S'MPI_Comm_rank()'
p15
S'25'
p16
tp17
a(S'MPI_Barrier()'
p18
S'31'
p19
tp20
a(S'MPI_Wtime()'
p21
S'33'
p22
tp23
a(S'MPI_Alltoall()'
p24
S'37'
p25
tp26
a(S'MPI_Wtime()'
p27
S'40'
p28
tp29
a(S'MPI_Finalize()'
p30
S'57'
p31
tp32
asS'ScSFSimulator/testsuite/expect/mpi-testscripts/allred.c'
p33
(lp34
(S'MPI_Init()'
p35
S'18'
p36
tp37
a(S'MPI_Comm_size()'
p38
S'20'
p39
tp40
a(S'MPI_Comm_rank()'
p41
S'25'
p42
tp43
a(S'MPI_Allreduce()'
p44
S'59'
p45
tp46
a(S'MPI_Allreduce()'
p47
S'92'
p48
tp49
a(S'MPI_Allreduce()'
p50
S'125'
p51
tp52
a(S'MPI_Allreduce()'
p53
S'158'
p54
tp55
a(S'MPI_Allreduce()'
p56
S'191'
p57
tp58
a(S'MPI_Allreduce()'
p59
S'224'
p60
tp61
a(S'MPI_Allreduce()'
p62
S'257'
p63
tp64
a(S'MPI_Allreduce()'
p65
S'290'
p66
tp67
a(S'MPI_Allreduce()'
p68
S'337'
p69
tp70
a(S'MPI_Allreduce()'
p71
S'374'
p72
tp73
a(S'MPI_Allreduce()'
p74
S'411'
p75
tp76
a(S'MPI_Allreduce()'
p77
S'448'
p78
tp79
a(S'MPI_Allreduce()'
p80
S'485'
p81
tp82
a(S'MPI_Allreduce()'
p83
S'522'
p84
tp85
a(S'MPI_Allreduce()'
p86
S'559'
p87
tp88
a(S'MPI_Allreduce()'
p89
S'596'
p90
tp91
a(S'MPI_Allreduce()'
p92
S'626'
p93
tp94
a(S'MPI_Allreduce()'
p95
S'644'
p96
tp97
a(S'MPI_Allreduce()'
p98
S'662'
p99
tp100
a(S'MPI_Allreduce()'
p101
S'680'
p102
tp103
a(S'MPI_Allreduce()'
p104
S'698'
p105
tp106
a(S'MPI_Allreduce()'
p107
S'716'
p108
tp109
a(S'MPI_Allreduce()'
p110
S'734'
p111
tp112
a(S'MPI_Allreduce()'
p113
S'752'
p114
tp115
a(S'MPI_Allreduce()'
p116
S'780'
p117
tp118
a(S'MPI_Allreduce()'
p119
S'798'
p120
tp121
a(S'MPI_Allreduce()'
p122
S'816'
p123
tp124
a(S'MPI_Allreduce()'
p125
S'834'
p126
tp127
a(S'MPI_Allreduce()'
p128
S'852'
p129
tp130
a(S'MPI_Allreduce()'
p131
S'870'
p132
tp133
a(S'MPI_Allreduce()'
p134
S'888'
p135
tp136
a(S'MPI_Allreduce()'
p137
S'906'
p138
tp139
a(S'MPI_Allreduce()'
p140
S'946'
p141
tp142
a(S'MPI_Allreduce()'
p143
S'969'
p144
tp145
a(S'MPI_Allreduce()'
p146
S'987'
p147
tp148
a(S'MPI_Allreduce()'
p149
S'1005'
p150
tp151
a(S'MPI_Allreduce()'
p152
S'1023'
p153
tp154
a(S'MPI_Allreduce()'
p155
S'1041'
p156
tp157
a(S'MPI_Allreduce()'
p158
S'1070'
p159
tp160
a(S'MPI_Allreduce()'
p161
S'1097'
p162
tp163
a(S'MPI_Allreduce()'
p164
S'1124'
p165
tp166
a(S'MPI_Allreduce()'
p167
S'1151'
p168
tp169
a(S'MPI_Allreduce()'
p170
S'1178'
p171
tp172
a(S'MPI_Allreduce()'
p173
S'1205'
p174
tp175
a(S'MPI_Allreduce()'
p176
S'1245'
p177
tp178
a(S'MPI_Allreduce()'
p179
S'1267'
p180
tp181
a(S'MPI_Allreduce()'
p182
S'1285'
p183
tp184
a(S'MPI_Allreduce()'
p185
S'1303'
p186
tp187
a(S'MPI_Allreduce()'
p188
S'1321'
p189
tp190
a(S'MPI_Allreduce()'
p191
S'1339'
p192
tp193
a(S'MPI_Allreduce()'
p194
S'1363'
p195
tp196
a(S'MPI_Allreduce()'
p197
S'1381'
p198
tp199
a(S'MPI_Allreduce()'
p200
S'1399'
p201
tp202
a(S'MPI_Allreduce()'
p203
S'1417'
p204
tp205
a(S'MPI_Allreduce()'
p206
S'1435'
p207
tp208
a(S'MPI_Allreduce()'
p209
S'1453'
p210
tp211
a(S'MPI_Allreduce()'
p212
S'1477'
p213
tp214
a(S'MPI_Allreduce()'
p215
S'1495'
p216
tp217
a(S'MPI_Allreduce()'
p218
S'1513'
p219
tp220
a(S'MPI_Allreduce()'
p221
S'1531'
p222
tp223
a(S'MPI_Allreduce()'
p224
S'1549'
p225
tp226
a(S'MPI_Allreduce()'
p227
S'1567'
p228
tp229
a(S'MPI_Allreduce()'
p230
S'1600'
p231
tp232
a(S'MPI_Allreduce()'
p233
S'1628'
p234
tp235
a(S'MPI_Allreduce()'
p236
S'1656'
p237
tp238
a(S'MPI_Allreduce()'
p239
S'1684'
p240
tp241
a(S'MPI_Allreduce()'
p242
S'1713'
p243
tp244
a(S'MPI_Allreduce()'
p245
S'1742'
p246
tp247
a(S'MPI_Allreduce()'
p248
S'1776'
p249
tp250
a(S'MPI_Allreduce()'
p251
S'1804'
p252
tp253
a(S'MPI_Allreduce()'
p254
S'1832'
p255
tp256
a(S'MPI_Allreduce()'
p257
S'1860'
p258
tp259
a(S'MPI_Allreduce()'
p260
S'1890'
p261
tp262
a(S'MPI_Allreduce()'
p263
S'1918'
p264
tp265
a(S'MPI_Allreduce()'
p266
S'1953'
p267
tp268
a(S'MPI_Allreduce()'
p269
S'1971'
p270
tp271
a(S'MPI_Allreduce()'
p272
S'1989'
p273
tp274
a(S'MPI_Allreduce()'
p275
S'2007'
p276
tp277
a(S'MPI_Allreduce()'
p278
S'2025'
p279
tp280
a(S'MPI_Allreduce()'
p281
S'2043'
p282
tp283
a(S'MPI_Allreduce()'
p284
S'2061'
p285
tp286
a(S'MPI_Allreduce()'
p287
S'2089'
p288
tp289
a(S'MPI_Allreduce()'
p290
S'2107'
p291
tp292
a(S'MPI_Allreduce()'
p293
S'2125'
p294
tp295
a(S'MPI_Allreduce()'
p296
S'2143'
p297
tp298
a(S'MPI_Allreduce()'
p299
S'2161'
p300
tp301
a(S'MPI_Allreduce()'
p302
S'2179'
p303
tp304
a(S'MPI_Allreduce()'
p305
S'2197'
p306
tp307
a(S'MPI_Allreduce()'
p308
S'2221'
p309
tp310
a(S'MPI_Allreduce()'
p311
S'2239'
p312
tp313
a(S'MPI_Allreduce()'
p314
S'2257'
p315
tp316
a(S'MPI_Allreduce()'
p317
S'2275'
p318
tp319
a(S'MPI_Allreduce()'
p320
S'2293'
p321
tp322
a(S'MPI_Allreduce()'
p323
S'2311'
p324
tp325
a(S'MPI_Allreduce()'
p326
S'2339'
p327
tp328
a(S'MPI_Allreduce()'
p329
S'2357'
p330
tp331
a(S'MPI_Allreduce()'
p332
S'2375'
p333
tp334
a(S'MPI_Allreduce()'
p335
S'2393'
p336
tp337
a(S'MPI_Allreduce()'
p338
S'2411'
p339
tp340
a(S'MPI_Allreduce()'
p341
S'2429'
p342
tp343
a(S'MPI_Allreduce()'
p344
S'2453'
p345
tp346
a(S'MPI_Allreduce()'
p347
S'2471'
p348
tp349
a(S'MPI_Allreduce()'
p350
S'2489'
p351
tp352
a(S'MPI_Allreduce()'
p353
S'2507'
p354
tp355
a(S'MPI_Allreduce()'
p356
S'2525'
p357
tp358
a(S'MPI_Allreduce()'
p359
S'2543'
p360
tp361
a(S'MPI_Allreduce()'
p362
S'2567'
p363
tp364
a(S'MPI_Allreduce()'
p365
S'2585'
p366
tp367
a(S'MPI_Allreduce()'
p368
S'2603'
p369
tp370
a(S'MPI_Allreduce()'
p371
S'2621'
p372
tp373
a(S'MPI_Allreduce()'
p374
S'2639'
p375
tp376
a(S'MPI_Allreduce()'
p377
S'2657'
p378
tp379
a(S'MPI_Allreduce()'
p380
S'2687'
p381
tp382
a(S'MPI_Allreduce()'
p383
S'2713'
p384
tp385
a(S'MPI_Allreduce()'
p386
S'2739'
p387
tp388
a(S'MPI_Allreduce()'
p389
S'2765'
p390
tp391
a(S'MPI_Allreduce()'
p392
S'2791'
p393
tp394
a(S'MPI_Allreduce()'
p395
S'2829'
p396
tp397
a(S'MPI_Allreduce()'
p398
S'2855'
p399
tp400
a(S'MPI_Allreduce()'
p401
S'2881'
p402
tp403
a(S'MPI_Allreduce()'
p404
S'2907'
p405
tp406
a(S'MPI_Allreduce()'
p407
S'2933'
p408
tp409
a(S'MPI_Comm_rank()'
p410
S'2957'
p411
tp412
a(S'MPI_Finalize()'
p413
S'2964'
p414
tp415
asS'ScSFSimulator/testsuite/expect/test7.4.prog.c'
p416
(lp417
(S'MPI_Irecv()'
p418
S'38'
p419
tp420
a(S'X_MPI_COMM_WORLD()'
p421
S'39'
p422
tp423
a(S'MPI_Isend()'
p424
S'40'
p425
tp426
a(S'X_MPI_COMM_WORLD()'
p427
S'41'
p428
tp429
a(S'MPI_Waitall()'
p430
S'42'
p431
tp432
a(S'MPI_Init()'
p433
S'52'
p434
tp435
a(S'MPI_Comm_size()'
p436
S'53'
p437
tp438
a(S'MPI_Comm_rank()'
p439
S'54'
p440
tp441
a(S'MPI_Finalize()'
p442
S'60'
p443
tp444
asS'ScSFSimulator/testsuite/expect/mpi-testscripts/allred_timed.c'
p445
(lp446
(S'MPI_Init()'
p447
S'16'
p448
tp449
a(S'MPI_Comm_size()'
p450
S'17'
p451
tp452
a(S'MPI_Finalize()'
p453
S'21'
p454
tp455
a(S'MPI_Comm_rank()'
p456
S'25'
p457
tp458
a(S'MPI_Barrier()'
p459
S'29'
p460
tp461
a(S'MPI_Wtime()'
p462
S'31'
p463
tp464
a(S'MPI_Allreduce()'
p465
S'35'
p466
tp467
a(S'MPI_Wtime()'
p468
S'38'
p469
tp470
a(S'MPI_Finalize()'
p471
S'55'
p472
tp473
asS'ScSFSimulator/testsuite/expect/mpi-testscripts/barrier_timed.c'
p474
(lp475
(S'MPI_Init()'
p476
S'50'
p477
tp478
a(S'MPI_Comm_size()'
p479
S'51'
p480
tp481
a(S'MPI_Finalize()'
p482
S'56'
p483
tp484
a(S'MPI_Comm_rank()'
p485
S'60'
p486
tp487
a(S'MPI_Barrier()'
p488
S'62'
p489
tp490
a(S'MPI_Wtime()'
p491
S'65'
p492
tp493
a(S'MPI_Barrier()'
p494
S'69'
p495
tp496
a(S'MPI_Wtime()'
p497
S'72'
p498
tp499
a(S'MPI_Finalize()'
p500
S'89'
p501
tp502
asS'ScSFSimulator/testsuite/expect/test7.6.prog.c'
p503
(lp504
(S'MPI_Irecv()'
p505
S'38'
p506
tp507
a(S'X_MPI_COMM_WORLD()'
p508
S'39'
p509
tp510
a(S'MPI_Isend()'
p511
S'40'
p512
tp513
a(S'X_MPI_COMM_WORLD()'
p514
S'41'
p515
tp516
a(S'MPI_Waitall()'
p517
S'42'
p518
tp519
a(S'MPI_Init()'
p520
S'52'
p521
tp522
a(S'MPI_Comm_size()'
p523
S'53'
p524
tp525
a(S'MPI_Comm_rank()'
p526
S'54'
p527
tp528
a(S'MPI_Finalize()'
p529
S'61'
p530
tp531
asS'ScSFSimulator/testsuite/expect/test1.94.master.c'
p532
(lp533
(S'MPI_Init()'
p534
S'37'
p535
tp536
a(S'MPI_Comm_size()'
p537
S'38'
p538
tp539
a(S'MPI_Comm_rank()'
p540
S'44'
p541
tp542
a(S'MPI_Comm_get_attr()'
p543
S'50'
p544
tp545
a(S'MPI_Comm_spawn()'
p546
S'59'
p547
tp548
a(S'X_MPI_INFO_NULL()'
p549
S'60'
p550
tp551
a(S'MPI_Finalize()'
p552
S'67'
p553
tp554
asS'ScSFSimulator/testsuite/expect/test1.88.prog.c'
p555
(lp556
(S'MPI_Irecv()'
p557
S'43'
p558
tp559
a(S'X_MPI_COMM_WORLD()'
p560
S'44'
p561
tp562
a(S'MPI_Isend()'
p563
S'45'
p564
tp565
a(S'X_MPI_COMM_WORLD()'
p566
S'46'
p567
tp568
a(S'MPI_Waitall()'
p569
S'47'
p570
tp571
a(S'MPI_Init()'
p572
S'60'
p573
tp574
a(S'MPI_Comm_size()'
p575
S'61'
p576
tp577
a(S'MPI_Comm_rank()'
p578
S'62'
p579
tp580
a(S'MPI_Finalize()'
p581
S'80'
p582
tp583
asS'ScSFSimulator/testsuite/expect/test1.94.slave.c'
p584
(lp585
(S'MPI_Irecv()'
p586
S'41'
p587
tp588
a(S'X_MPI_COMM_WORLD()'
p589
S'42'
p590
tp591
a(S'MPI_Isend()'
p592
S'43'
p593
tp594
a(S'X_MPI_COMM_WORLD()'
p595
S'44'
p596
tp597
a(S'MPI_Waitall()'
p598
S'45'
p599
tp600
a(S'MPI_Init()'
p601
S'57'
p602
tp603
a(S'MPI_Comm_get_parent()'
p604
S'58'
p605
tp606
a(S'MPI_Comm_remote_size()'
p607
S'64'
p608
tp609
a(S'MPI_Comm_size()'
p610
S'70'
p611
tp612
a(S'MPI_Comm_rank()'
p613
S'71'
p614
tp615
asS'ScSFSimulator/testsuite/expect/mpi-testscripts/alltoall.c'
p616
(lp617
(S'MPI_Init()'
p618
S'13'
p619
tp620
a(S'MPI_Comm_rank()'
p621
S'14'
p622
tp623
a(S'MPI_Comm_size()'
p624
S'15'
p625
tp626
a(S'MPI_Alltoall()'
p627
S'21'
p628
tp629
a(S'MPI_Barrier()'
p630
S'36'
p631
tp632
a(S'MPI_Finalize()'
p633
S'42'
p634
tp635
asS'ScSFSimulator/testsuite/expect/test8.4.prog.c'
p636
(lp637
(S'MPI_Irecv()'
p638
S'38'
p639
tp640
a(S'X_MPI_COMM_WORLD()'
p641
S'39'
p642
tp643
a(S'MPI_Isend()'
p644
S'40'
p645
tp646
a(S'X_MPI_COMM_WORLD()'
p647
S'41'
p648
tp649
a(S'MPI_Waitall()'
p650
S'42'
p651
tp652
a(S'MPI_Init()'
p653
S'52'
p654
tp655
a(S'MPI_Comm_size()'
p656
S'53'
p657
tp658
a(S'MPI_Comm_rank()'
p659
S'54'
p660
tp661
a(S'MPI_Finalize()'
p662
S'60'
p663
tp664
as.