ccollections
defaultdict
p0
(c__builtin__
list
p1
tp2
Rp3
S'HackAssembler/packages/boost.1.72.0.0/lib/native/include/boost/graph/distributed/page_rank.hpp'
p4
(lp5
(S'MPI_Comm_rank()'
p6
S'40'
p7
tp8
a(S'MPI_Accumulate()'
p9
S'53'
p10
tp11
a(S'MPI_Win_fence()'
p12
S'60'
p13
tp14
a(S'MPI_Comm_rank()'
p15
S'90'
p16
tp17
a(S'MPI_Win_create()'
p18
S'115'
p19
tp20
a(S'X_MPI_INFO_NULL()'
p21
S'118'
p22
tp23
a(S'MPI_Win_set_name()'
p24
S'119'
p25
tp26
a(S'MPI_Win_create()'
p27
S'120'
p28
tp29
a(S'X_MPI_INFO_NULL()'
p30
S'123'
p31
tp32
a(S'MPI_Win_set_name()'
p33
S'124'
p34
tp35
a(S'MPI_Win_fence()'
p36
S'129'
p37
tp38
a(S'MPI_Win_fence()'
p39
S'130'
p40
tp41
a(S'MPI_Win_free()'
p42
S'144'
p43
tp44
a(S'MPI_Win_free()'
p45
S'145'
p46
tp47
asS'HackAssembler/packages/boost.1.72.0.0/lib/native/include/boost/mpi/datatype.hpp'
p48
(lp49
(S'X_MPI_LONG_DOUBLE_INT()'
p50
S'254'
p51
tp52
a(S'MPI_Type_contiguous()'
p53
S'323'
p54
tp55
a(S'MPI_Type_commit()'
p56
S'324'
p57
tp58
asS'HackAssembler/packages/boost.1.72.0.0/lib/native/include/boost/mpi/detail/request_handlers.hpp'
p59
(lp60
(S'MPI_Comm()'
p61
S'324'
p62
tp63
a(S'MPI_Comm()'
p64
S'349'
p65
tp66
a(S'MPI_Comm()'
p67
S'392'
p68
tp69
a(S'MPI_Comm()'
p70
S'417'
p71
tp72
a(S'MPI_Comm()'
p73
S'461'
p74
tp75
a(S'MPI_Comm()'
p76
S'483'
p77
tp78
asS'HackAssembler/packages/boost.1.72.0.0/lib/native/include/boost/mpi/collectives/all_gather.hpp'
p79
(lp80
(S'MPI_Comm()'
p81
S'62'
p82
tp83
a(S'MPI_Comm()'
p84
S'73'
p85
tp86
asS'HackAssembler/packages/boost.1.72.0.0/lib/native/include/boost/mpi/exception.hpp'
p87
(lp88
(S'MPI_Error_class()'
p89
S'74'
p90
tp91
asS'HackAssembler/packages/boost.1.72.0.0/lib/native/include/boost/graph/distributed/mpi_process_group.hpp'
p92
(lp93
(S'MPI_Bsend()'
p94
S'709'
p95
tp96
a(S'MPI_Isend()'
p97
S'715'
p98
tp99
a(S'MPI_Test()'
p100
S'721'
p101
tp102
a(S'MPI_Bsend()'
p103
S'745'
p104
tp105
a(S'MPI_Isend()'
p106
S'751'
p107
tp108
a(S'MPI_Test()'
p109
S'757'
p110
tp111
asS'HackAssembler/packages/boost.1.72.0.0/lib/native/include/boost/graph/distributed/detail/mpi_process_group.ipp'
p112
(lp113
(S'MPI_Recv()'
p114
S'493'
p115
tp116
a(S'MPI_Get_count()'
p117
S'511'
p118
tp119
a(S'MPI_Recv()'
p120
S'517'
p121
tp122
a(S'MPI_Irecv()'
p123
S'666'
p124
tp125
a(S'X_MPI_PACKED()'
p126
S'667'
p127
tp128
a(S'MPI_Allgather()'
p129
S'838'
p130
tp131
a(S'MPI_Allgatherv()'
p132
S'866'
p133
tp134
a(S'X_MPI_BYTE()'
p135
S'869'
p136
tp137
a(S'MPI_Comm_group()'
p138
S'890'
p139
tp140
a(S'MPI_Group_incl()'
p141
S'895'
p142
tp143
a(S'MPI_Comm_create()'
p144
S'899'
p145
tp146
a(S'MPI_Group_free()'
p147
S'902'
p148
tp149
a(S'MPI_Group_free()'
p150
S'904'
p151
tp152
a(S'MPI_Comm_free()'
p153
S'909'
p154
tp155
a(S'MPI_Irecv()'
p156
S'940'
p157
tp158
a(S'MPI_Test()'
p159
S'945'
p160
tp161
a(S'MPI_Get_count()'
p162
S'978'
p163
tp164
a(S'MPI_Recv()'
p165
S'983'
p166
tp167
asS'HackAssembler/packages/boost.1.72.0.0/lib/native/include/boost/mpi/communicator.hpp'
p168
(lp169
(S'MPI_Comm()'
p170
S'1515'
p171
tp172
asS'HackAssembler/packages/boost.1.72.0.0/lib/native/include/boost/mpi/operations.hpp'
p173
(lp174
(S'MPI_Op_free()'
p175
S'310'
p176
tp177
asS'HackAssembler/packages/boost.1.72.0.0/lib/native/include/boost/mpi/collectives/broadcast.hpp'
p178
(lp179
(S'X_MPI_BYTE()'
p180
S'120'
p181
tp182
a(S'X_MPI_BYTE()'
p183
S'130'
p184
tp185
asS'HackAssembler/packages/boost.1.72.0.0/lib/native/include/boost/mpi/allocator.hpp'
p186
(lp187
(S'X_MPI_INFO_NULL()'
p188
S'141'
p189
tp190
asS'HackAssembler/packages/boost.1.72.0.0/lib/native/include/boost/mpi/timer.hpp'
p191
(lp192
(S'MPI_Wtime()'
p193
S'71'
p194
tp195
as.