ccollections
defaultdict
p0
(c__builtin__
list
p1
tp2
Rp3
S'gromacs_fhmd-langevin_localthermostat/src/gromacs/pulling/pull_rotation.cpp'
p4
(lp5
(S'MPI_Reduce()'
p6
S'381'
p7
tp8
a(S'MPI_Wtime()'
p9
S'3997'
p10
tp11
asS'gromacs_fhmd-langevin_localthermostat/src/programs/mdrun/repl_ex.cpp'
p12
(lp13
(S'MPI_Sendrecv()'
p14
S'444'
p15
tp16
a(S'MPI_Isend()'
p17
S'451'
p18
tp19
a(S'MPI_Recv()'
p20
S'453'
p21
tp22
a(S'MPI_Wait()'
p23
S'455'
p24
tp25
a(S'MPI_Sendrecv()'
p26
S'477'
p27
tp28
a(S'MPI_Isend()'
p29
S'484'
p30
tp31
a(S'MPI_Recv()'
p32
S'486'
p33
tp34
a(S'MPI_Wait()'
p35
S'488'
p36
tp37
a(S'MPI_Sendrecv()'
p38
S'509'
p39
tp40
a(S'MPI_Isend()'
p41
S'516'
p42
tp43
a(S'MPI_Recv()'
p44
S'518'
p45
tp46
a(S'MPI_Wait()'
p47
S'520'
p48
tp49
a(S'MPI_Bcast()'
p50
S'1303'
p51
tp52
asS'gromacs_fhmd-langevin_localthermostat/src/gromacs/utility/basenetwork.cpp'
p53
(lp54
(S'MPI_Initialized()'
p55
S'58'
p56
tp57
a(S'MPI_Get_processor_name()'
p58
S'174'
p59
tp60
a(S'MPI_Bcast()'
p61
S'220'
p62
tp63
a(S'MPI_Abort()'
p64
S'230'
p65
tp66
asS'gromacs_fhmd-langevin_localthermostat/src/gromacs/gmxlib/network.cpp'
p67
(lp68
(S'MPI_Comm_size()'
p69
S'159'
p70
tp71
a(S'MPI_Comm_rank()'
p72
S'160'
p73
tp74
a(S'MPI_Comm_split()'
p75
S'171'
p76
tp77
a(S'MPI_Comm_rank()'
p78
S'172'
p79
tp80
a(S'MPI_Comm_split()'
p81
S'182'
p82
tp83
a(S'MPI_Comm_size()'
p84
S'186'
p85
tp86
a(S'MPI_Comm_size()'
p87
S'187'
p88
tp89
a(S'MPI_Comm_free()'
p90
S'205'
p91
tp92
a(S'MPI_Comm_free()'
p93
S'211'
p94
tp95
a(S'MPI_Comm_free()'
p96
S'212'
p97
tp98
a(S'MPI_Comm_size()'
p99
S'235'
p100
tp101
a(S'MPI_Comm_rank()'
p102
S'236'
p103
tp104
a(S'MPI_Allreduce()'
p105
S'250'
p106
tp107
a(S'MPI_Allreduce()'
p108
S'251'
p109
tp110
a(S'MPI_Barrier()'
p111
S'318'
p112
tp113
a(S'MPI_Bcast()'
p114
S'327'
p115
tp116
a(S'MPI_Bcast()'
p117
S'336'
p118
tp119
a(S'MPI_Reduce()'
p120
S'351'
p121
tp122
a(S'MPI_Allreduce()'
p123
S'354'
p124
tp125
a(S'MPI_Reduce()'
p126
S'361'
p127
tp128
a(S'MPI_Bcast()'
p129
S'363'
p130
tp131
a(S'MPI_Allreduce()'
p132
S'367'
p133
tp134
a(S'MPI_Allreduce()'
p135
S'381'
p136
tp137
a(S'MPI_Allreduce()'
p138
S'385'
p139
tp140
a(S'MPI_Bcast()'
p141
S'388'
p142
tp143
a(S'MPI_Allreduce()'
p144
S'392'
p145
tp146
a(S'MPI_Reduce()'
p147
S'414'
p148
tp149
a(S'MPI_Allreduce()'
p150
S'417'
p151
tp152
a(S'MPI_Reduce()'
p153
S'424'
p154
tp155
a(S'MPI_Bcast()'
p156
S'426'
p157
tp158
a(S'MPI_Allreduce()'
p159
S'430'
p160
tp161
a(S'MPI_Allreduce()'
p162
S'443'
p163
tp164
a(S'MPI_Allreduce()'
p165
S'447'
p166
tp167
a(S'MPI_Bcast()'
p168
S'450'
p169
tp170
a(S'MPI_Allreduce()'
p171
S'454'
p172
tp173
a(S'MPI_Reduce()'
p174
S'476'
p175
tp176
a(S'MPI_Allreduce()'
p177
S'478'
p178
tp179
a(S'MPI_Reduce()'
p180
S'484'
p181
tp182
a(S'MPI_Bcast()'
p183
S'486'
p184
tp185
a(S'MPI_Allreduce()'
p186
S'490'
p187
tp188
a(S'MPI_Allreduce()'
p189
S'503'
p190
tp191
a(S'MPI_Allreduce()'
p192
S'507'
p193
tp194
a(S'MPI_Bcast()'
p195
S'509'
p196
tp197
a(S'MPI_Allreduce()'
p198
S'513'
p199
tp200
a(S'MPI_Reduce()'
p201
S'534'
p202
tp203
a(S'MPI_Allreduce()'
p204
S'537'
p205
tp206
a(S'MPI_Reduce()'
p207
S'544'
p208
tp209
a(S'MPI_Bcast()'
p210
S'546'
p211
tp212
a(S'MPI_Allreduce()'
p213
S'550'
p214
tp215
a(S'MPI_Allreduce()'
p216
S'563'
p217
tp218
a(S'MPI_Allreduce()'
p219
S'568'
p220
tp221
a(S'MPI_Bcast()'
p222
S'571'
p223
tp224
a(S'MPI_Allreduce()'
p225
S'575'
p226
tp227
a(S'MPI_Allreduce()'
p228
S'592'
p229
tp230
a(S'MPI_Allreduce()'
p231
S'601'
p232
tp233
a(S'MPI_Allreduce()'
p234
S'615'
p235
tp236
a(S'MPI_Allreduce()'
p237
S'624'
p238
tp239
a(S'MPI_Allreduce()'
p240
S'658'
p241
tp242
a(S'MPI_Allreduce()'
p243
S'668'
p244
tp245
a(S'MPI_Allreduce()'
p246
S'683'
p247
tp248
a(S'MPI_Allreduce()'
p249
S'694'
p250
tp251
a(S'MPI_Comm_compare()'
p252
S'719'
p253
tp254
asS'gromacs_fhmd-langevin_localthermostat/src/gromacs/ewald/pme-spread.cpp'
p255
(lp256
(S'MPI_Sendrecv()'
p257
S'763'
p258
tp259
a(S'MPI_Sendrecv()'
p260
S'831'
p261
tp262
asS'gromacs_fhmd-langevin_localthermostat/src/gromacs/utility/gmxmpi.h'
p263
(lp264
(S'X_MPI_NO_CPPBIND()'
p265
S'60'
p266
tp267
a(S'X_MPI_COMM_NULL()'
p268
S'84'
p269
tp270
asS'gromacs_fhmd-langevin_localthermostat/src/gromacs/fft/fft5d.cpp'
p271
(lp272
(S'MPI_Comm_size()'
p273
S'189'
p274
tp275
a(S'MPI_Comm_rank()'
p276
S'190'
p277
tp278
a(S'MPI_Comm_size()'
p279
S'201'
p280
tp281
a(S'MPI_Comm_rank()'
p282
S'202'
p283
tp284
a(S'MPI_Wtime()'
p285
S'1001'
p286
tp287
a(S'MPI_Wtime()'
p288
S'1042'
p289
tp290
a(S'MPI_Wtime()'
p291
S'1091'
p292
tp293
a(S'MPI_Wtime()'
p294
S'1119'
p295
tp296
a(S'MPI_Alltoall()'
p297
S'1130'
p298
tp299
a(S'MPI_Alltoall()'
p300
S'1134'
p301
tp302
a(S'MPI_Wtime()'
p303
S'1158'
p304
tp305
a(S'MPI_Wtime()'
p306
S'1211'
p307
tp308
a(S'MPI_Comm_size()'
p309
S'1346'
p310
tp311
a(S'MPI_Comm_rank()'
p312
S'1347'
p313
tp314
a(S'MPI_Cart_create()'
p315
S'1367'
p316
tp317
a(S'MPI_Cart_get()'
p318
S'1368'
p319
tp320
a(S'MPI_Cart_sub()'
p321
S'1369'
p322
tp323
a(S'MPI_Cart_sub()'
p324
S'1370'
p325
tp326
asS'gromacs_fhmd-langevin_localthermostat/src/gromacs/ewald/pme.cpp'
p327
(lp328
(S'MPI_Comm_size()'
p329
S'223'
p330
tp331
a(S'MPI_Comm_rank()'
p332
S'224'
p333
tp334
a(S'MPI_Sendrecv()'
p335
S'391'
p336
tp337
a(S'MPI_Comm_rank()'
p338
S'500'
p339
tp340
a(S'MPI_Comm_size()'
p341
S'501'
p342
tp343
a(S'MPI_Comm_split()'
p344
S'558'
p345
tp346
a(S'MPI_Comm_split()'
p347
S'560'
p348
tp349
a(S'MPI_Comm_rank()'
p350
S'563'
p351
tp352
a(S'MPI_Comm_size()'
p353
S'564'
p354
tp355
a(S'MPI_Comm_rank()'
p356
S'565'
p357
tp358
a(S'MPI_Comm_size()'
p359
S'566'
p360
tp361
a(S'MPI_Allreduce()'
p362
S'579'
p363
tp364
a(S'X_MPI_SUM()'
p365
S'580'
p366
tp367
a(S'MPI_Type_contiguous()'
p368
S'623'
p369
tp370
a(S'MPI_Type_commit()'
p371
S'624'
p372
tp373
asS'gromacs_fhmd-langevin_localthermostat/src/programs/mdrun/tests/moduletest.cpp'
p374
(lp375
(S'MPI_Barrier()'
p376
S'202'
p377
tp378
asS'gromacs_fhmd-langevin_localthermostat/src/gromacs/hardware/detecthardware.cpp'
p379
(lp380
(S'MPI_Barrier()'
p381
S'553'
p382
tp383
a(S'MPI_Comm_rank()'
p384
S'653'
p385
tp386
a(S'MPI_Comm_split()'
p387
S'654'
p388
tp389
a(S'MPI_Comm_rank()'
p390
S'656'
p391
tp392
a(S'MPI_Bcast()'
p393
S'693'
p394
tp395
a(S'MPI_Bcast()'
p396
S'706'
p397
tp398
a(S'MPI_Bcast()'
p399
S'708'
p400
tp401
a(S'MPI_Comm_free()'
p402
S'713'
p403
tp404
a(S'MPI_Comm_rank()'
p405
S'727'
p406
tp407
a(S'MPI_Comm_size()'
p408
S'728'
p409
tp410
a(S'MPI_Allreduce()'
p411
S'753'
p412
tp413
a(S'MPI_Allreduce()'
p414
S'793'
p415
tp416
a(S'MPI_Allreduce()'
p417
S'813'
p418
tp419
a(S'MPI_Comm_rank()'
p420
S'1110'
p421
tp422
a(S'MPI_Barrier()'
p423
S'1473'
p424
tp425
asS'gromacs_fhmd-langevin_localthermostat/cmake/gmxTestMPI_IN_PLACE.cmake'
p426
(lp427
(S'MPI_Allreduce()'
p428
S'54'
p429
tp430
asS'gromacs_fhmd-langevin_localthermostat/src/gromacs/mdlib/force.cpp'
p431
(lp432
(S'MPI_Barrier()'
p433
S'191'
p434
tp435
a(S'MPI_Wtime()'
p436
S'192'
p437
tp438
a(S'MPI_Wtime()'
p439
S'290'
p440
tp441
a(S'MPI_Wtime()'
p442
S'618'
p443
tp444
a(S'MPI_Barrier()'
p445
S'619'
p446
tp447
a(S'MPI_Wtime()'
p448
S'620'
p449
tp450
asS'gromacs_fhmd-langevin_localthermostat/src/testutils/mpi-printer.cpp'
p451
(lp452
(S'MPI_Recv()'
p453
S'111'
p454
tp455
a(S'MPI_Send()'
p456
S'138'
p457
tp458
a(S'MPI_Gather()'
p459
S'142'
p460
tp461
a(S'MPI_Comm_size()'
p462
S'190'
p463
tp464
a(S'MPI_Comm_rank()'
p465
S'195'
p466
tp467
asS'gromacs_fhmd-langevin_localthermostat/src/gromacs/pulling/pull.cpp'
p468
(lp469
(S'MPI_Comm_free()'
p470
S'1894'
p471
tp472
a(S'MPI_Comm_split()'
p473
S'1901'
p474
tp475
a(S'MPI_Comm_free()'
p476
S'2581'
p477
tp478
asS'gromacs_fhmd-langevin_localthermostat/src/gromacs/gmxana/gmx_pme_error.cpp'
p479
(lp480
(S'MPI_Wtime()'
p481
S'518'
p482
tp483
a(S'MPI_Wtime()'
p484
S'761'
p485
tp486
asS'gromacs_fhmd-langevin_localthermostat/src/gromacs/mdlib/minimize.cpp'
p487
(lp488
(S'MPI_Send()'
p489
S'3007'
p490
tp491
a(S'MPI_Recv()'
p492
S'3019'
p493
tp494
asS'gromacs_fhmd-langevin_localthermostat/src/gromacs/ewald/pme-redistribute.cpp'
p495
(lp496
(S'MPI_Sendrecv()'
p497
S'239'
p498
tp499
a(S'MPI_Send()'
p500
S'247'
p501
tp502
a(S'MPI_Recv()'
p503
S'253'
p504
tp505
asS'gromacs_fhmd-langevin_localthermostat/src/gromacs/mdlib/main.cpp'
p506
(lp507
(S'MPI_Comm_group()'
p508
S'283'
p509
tp510
a(S'MPI_Group_incl()'
p511
S'284'
p512
tp513
a(S'MPI_Comm_create()'
p514
S'286'
p515
tp516
a(S'MPI_Comm_split()'
p517
S'308'
p518
tp519
asS'gromacs_fhmd-langevin_localthermostat/src/gromacs/utility/fatalerror.cpp'
p520
(lp521
(S'MPI_Finalize()'
p522
S'227'
p523
tp524
a(S'MPI_Barrier()'
p525
S'237'
p526
tp527
asS'gromacs_fhmd-langevin_localthermostat/src/gromacs/mdlib/sim_util.cpp'
p528
(lp529
(S'MPI_Allreduce()'
p530
S'2599'
p531
tp532
a(S'MPI_Allreduce()'
p533
S'2616'
p534
tp535
a(S'MPI_Allreduce()'
p536
S'2623'
p537
tp538
asS'gromacs_fhmd-langevin_localthermostat/src/gromacs/ewald/pme-pp.cpp'
p539
(lp540
(S'MPI_Comm_rank()'
p541
S'179'
p542
tp543
a(S'MPI_Waitall()'
p544
S'203'
p545
tp546
a(S'MPI_Isend()'
p547
S'262'
p548
tp549
a(S'MPI_Isend()'
p550
S'271'
p551
tp552
a(S'MPI_Isend()'
p553
S'282'
p554
tp555
a(S'MPI_Isend()'
p556
S'288'
p557
tp558
a(S'MPI_Isend()'
p559
S'294'
p560
tp561
a(S'MPI_Isend()'
p562
S'300'
p563
tp564
a(S'MPI_Isend()'
p565
S'306'
p566
tp567
a(S'MPI_Isend()'
p568
S'312'
p569
tp570
a(S'MPI_Isend()'
p571
S'318'
p572
tp573
a(S'MPI_Send()'
p574
S'417'
p575
tp576
a(S'MPI_Send()'
p577
S'435'
p578
tp579
a(S'MPI_Recv()'
p580
S'478'
p581
tp582
a(S'MPI_Irecv()'
p583
S'520'
p584
tp585
a(S'X_MPI_BYTE()'
p586
S'521'
p587
tp588
a(S'MPI_Waitall()'
p589
S'526'
p590
tp591
a(S'MPI_Irecv()'
p592
S'594'
p593
tp594
a(S'X_MPI_BYTE()'
p595
S'596'
p596
tp597
a(S'MPI_Irecv()'
p598
S'653'
p599
tp600
a(S'X_MPI_BYTE()'
p601
S'654'
p602
tp603
a(S'MPI_Waitall()'
p604
S'669'
p605
tp606
a(S'MPI_Recv()'
p607
S'723'
p608
tp609
a(S'MPI_Recv()'
p610
S'770'
p611
tp612
a(S'MPI_Isend()'
p613
S'845'
p614
tp615
a(S'MPI_Waitall()'
p616
S'850'
p617
tp618
asS'gromacs_fhmd-langevin_localthermostat/src/gromacs/domdec/domdec.cpp'
p619
(lp620
(S'MPI_Cart_rank()'
p621
S'233'
p622
tp623
a(S'MPI_Send()'
p624
S'1155'
p625
tp626
a(S'MPI_Recv()'
p627
S'1184'
p628
tp629
a(S'MPI_Send()'
p630
S'1452'
p631
tp632
a(S'MPI_Recv()'
p633
S'1471'
p634
tp635
a(S'X_MPI_ANY_TAG()'
p636
S'1472'
p637
tp638
a(S'MPI_Cart_rank()'
p639
S'1937'
p640
tp641
a(S'MPI_Cart_coords()'
p642
S'1976'
p643
tp644
a(S'MPI_Cart_rank()'
p645
S'1981'
p646
tp647
a(S'MPI_Cart_coords()'
p648
S'2106'
p649
tp650
a(S'MPI_Cart_rank()'
p651
S'2111'
p652
tp653
a(S'MPI_Allreduce()'
p654
S'2580'
p655
tp656
a(S'MPI_Bcast()'
p657
S'3334'
p658
tp659
a(S'MPI_Gather()'
p660
S'5036'
p661
tp662
a(S'MPI_Comm_split()'
p663
S'5361'
p664
tp665
a(S'MPI_Comm_split()'
p666
S'5433'
p667
tp668
a(S'MPI_Comm_split()'
p669
S'5435'
p670
tp671
a(S'MPI_Comm_free()'
p672
S'5437'
p673
tp674
a(S'MPI_Comm_size()'
p675
S'5438'
p676
tp677
a(S'MPI_Comm_free()'
p678
S'5449'
p679
tp680
a(S'MPI_Cart_create()'
p681
S'5641'
p682
tp683
a(S'MPI_Comm_rank()'
p684
S'5648'
p685
tp686
a(S'MPI_Allreduce()'
p687
S'5669'
p688
tp689
a(S'MPI_Cart_coords()'
p690
S'5682'
p691
tp692
a(S'MPI_Allreduce()'
p693
S'5694'
p694
tp695
a(S'MPI_Cart_rank()'
p696
S'5706'
p697
tp698
a(S'MPI_Allreduce()'
p699
S'5755'
p700
tp701
a(S'MPI_Cart_create()'
p702
S'5861'
p703
tp704
a(S'MPI_Comm_rank()'
p705
S'5863'
p706
tp707
a(S'MPI_Cart_coords()'
p708
S'5875'
p709
tp710
a(S'MPI_Comm_split()'
p711
S'5894'
p712
tp713
a(S'MPI_Comm_split()'
p714
S'5933'
p715
tp716
a(S'MPI_Comm_rank()'
p717
S'5937'
p718
tp719
asS'gromacs_fhmd-langevin_localthermostat/src/gromacs/utility/init.cpp'
p720
(lp721
(S'MPI_Finalized()'
p722
S'70'
p723
tp724
a(S'MPI_Initialized()'
p725
S'72'
p726
tp727
a(S'MPI_Init_thread()'
p728
S'108'
p729
tp730
a(S'MPI_Init()'
p731
S'112'
p732
tp733
a(S'MPI_Init()'
p734
S'115'
p735
tp736
a(S'MPI_Barrier()'
p737
S'141'
p738
tp739
a(S'MPI_Finalize()'
p740
S'146'
p741
tp742
asS'gromacs_fhmd-langevin_localthermostat/src/gromacs/linearalgebra/eigensolver.cpp'
p743
(lp744
(S'MPI_Comm_size()'
p745
S'165'
p746
tp747
a(S'MPI_Comm_rank()'
p748
S'166'
p749
tp750
a(S'MPI_Comm_size()'
p751
S'288'
p752
tp753
asS'gromacs_fhmd-langevin_localthermostat/src/programs/mdrun/resource-division.cpp'
p754
(lp755
(S'MPI_Allreduce()'
p756
S'559'
p757
tp758
asS'gromacs_fhmd-langevin_localthermostat/src/gromacs/domdec/domdec_network.cpp'
p759
(lp760
(S'MPI_Sendrecv()'
p761
S'75'
p762
tp763
a(S'MPI_Send()'
p764
S'81'
p765
tp766
a(S'MPI_Recv()'
p767
S'86'
p768
tp769
a(S'MPI_Sendrecv()'
p770
S'107'
p771
tp772
a(S'MPI_Send()'
p773
S'113'
p774
tp775
a(S'MPI_Recv()'
p776
S'118'
p777
tp778
a(S'MPI_Sendrecv()'
p779
S'139'
p780
tp781
a(S'MPI_Send()'
p782
S'145'
p783
tp784
a(S'MPI_Recv()'
p785
S'150'
p786
tp787
a(S'MPI_Irecv()'
p788
S'185'
p789
tp790
a(S'MPI_Irecv()'
p791
S'190'
p792
tp793
a(S'MPI_Isend()'
p794
S'195'
p795
tp796
a(S'MPI_Isend()'
p797
S'200'
p798
tp799
a(S'MPI_Waitall()'
p800
S'205'
p801
tp802
a(S'MPI_Sendrecv()'
p803
S'215'
p804
tp805
a(S'MPI_Sendrecv()'
p806
S'219'
p807
tp808
a(S'MPI_Bcast()'
p809
S'241'
p810
tp811
a(S'MPI_Bcast()'
p812
S'263'
p813
tp814
a(S'MPI_Scatter()'
p815
S'277'
p816
tp817
a(S'MPI_Gather()'
p818
S'295'
p819
tp820
a(S'MPI_Scatterv()'
p821
S'315'
p822
tp823
a(S'MPI_Gatherv()'
p824
S'342'
p825
tp826
asS'gromacs_fhmd-langevin_localthermostat/src/gromacs/ewald/pme-grid.cpp'
p827
(lp828
(S'MPI_Sendrecv()'
p829
S'130'
p830
tp831
a(S'MPI_Sendrecv()'
p832
S'215'
p833
tp834
asS'gromacs_fhmd-langevin_localthermostat/src/gromacs/timing/wallcycle.cpp'
p835
(lp836
(S'MPI_Barrier()'
p837
S'266'
p838
tp839
a(S'MPI_Barrier()'
p840
S'313'
p841
tp842
a(S'MPI_Allreduce()'
p843
S'553'
p844
tp845
a(S'MPI_Allreduce()'
p846
S'569'
p847
tp848
a(S'MPI_Allreduce()'
p849
S'583'
p850
tp851
asS'gromacs_fhmd-langevin_localthermostat/src/gromacs/pulling/pullutil.cpp'
p852
(lp853
(S'MPI_Allreduce()'
p854
S'79'
p855
tp856
a(S'MPI_Allreduce()'
p857
S'86'
p858
tp859
a(S'MPI_Allreduce()'
p860
S'119'
p861
tp862
a(S'MPI_Allreduce()'
p863
S'126'
p864
tp865
asS'gromacs_fhmd-langevin_localthermostat/cmake/TestMPI.c'
p866
(lp867
(S'MPI_Init()'
p868
S'5'
p869
tp870
asS'gromacs_fhmd-langevin_localthermostat/src/gromacs/mdlib/gmx_omp_nthreads.cpp'
p871
(lp872
(S'MPI_Allreduce()'
p873
S'422'
p874
tp875
a(S'MPI_Barrier()'
p876
S'543'
p877
tp878
asS'gromacs_fhmd-langevin_localthermostat/src/external/thread_mpi/include/thread_mpi/mpi_bindings.h'
p879
(lp880
(S'X_MPI_CHAR()'
p881
S'81'
p882
tp883
a(S'X_MPI_SHORT()'
p884
S'82'
p885
tp886
a(S'X_MPI_INT()'
p887
S'83'
p888
tp889
a(S'X_MPI_LONG()'
p890
S'84'
p891
tp892
a(S'X_MPI_LONG_LONG()'
p893
S'85'
p894
tp895
a(S'X_MPI_LONG_LONG_INT()'
p896
S'86'
p897
tp898
a(S'X_MPI_SIGNED_CHAR()'
p899
S'87'
p900
tp901
a(S'X_MPI_UNSIGNED_CHAR()'
p902
S'88'
p903
tp904
a(S'X_MPI_UNSIGNED_SHORT()'
p905
S'89'
p906
tp907
a(S'X_MPI_UNSIGNED()'
p908
S'90'
p909
tp910
a(S'X_MPI_UNSIGNED_LONG_LONG()'
p911
S'91'
p912
tp913
a(S'X_MPI_FLOAT()'
p914
S'92'
p915
tp916
a(S'X_MPI_DOUBLE()'
p917
S'93'
p918
tp919
a(S'X_MPI_LONG_DOUBLE()'
p920
S'94'
p921
tp922
a(S'X_MPI_WCHAR()'
p923
S'95'
p924
tp925
a(S'X_MPI_BYTE()'
p926
S'96'
p927
tp928
a(S'X_MPI_SUCCESS()'
p929
S'100'
p930
tp931
a(S'X_MPI_ERR_MALLOC()'
p932
S'101'
p933
tp934
a(S'X_MPI_ERR_INIT()'
p935
S'102'
p936
tp937
a(S'X_MPI_ERR_FINALIZE()'
p938
S'103'
p939
tp940
a(S'X_MPI_ERR_GROUP()'
p941
S'104'
p942
tp943
a(S'X_MPI_ERR_COMM()'
p944
S'105'
p945
tp946
a(S'X_MPI_ERR_STATUS()'
p947
S'106'
p948
tp949
a(S'X_MPI_ERR_GROUP_RANK()'
p950
S'107'
p951
tp952
a(S'X_MPI_ERR_DIMS()'
p953
S'108'
p954
tp955
a(S'X_MPI_ERR_COORDS()'
p956
S'109'
p957
tp958
a(S'X_MPI_ERR_CART_CREATE_NPROCS()'
p959
S'110'
p960
tp961
a(S'X_MPI_ERR_XFER_COUNTERPART()'
p962
S'111'
p963
tp964
a(S'X_MPI_ERR_XFER_BUFSIZE()'
p965
S'112'
p966
tp967
a(S'X_MPI_ERR_XFER_BUF_OVERLAP()'
p968
S'113'
p969
tp970
a(S'X_MPI_ERR_SEND_DEST()'
p971
S'114'
p972
tp973
a(S'X_MPI_ERR_RECV_SRC()'
p974
S'115'
p975
tp976
a(S'X_MPI_ERR_BUF()'
p977
S'116'
p978
tp979
a(S'X_MPI_ERR_MULTI_MISMATCH()'
p980
S'117'
p981
tp982
a(S'X_MPI_ERR_OP_FN()'
p983
S'118'
p984
tp985
a(S'X_MPI_ERR_ENVELOPES()'
p986
S'119'
p987
tp988
a(S'X_MPI_ERR_REQUESTS()'
p989
S'120'
p990
tp991
a(S'X_MPI_ERR_IN_STATUS()'
p992
S'121'
p993
tp994
a(S'X_MPI_FAILURE()'
p995
S'122'
p996
tp997
a(S'X_MPI_ERR_UNKNOWN()'
p998
S'123'
p999
tp1000
a(S'X_MPI_MAX_ERROR_STRING()'
p1001
S'126'
p1002
tp1003
a(S'X_MPI_UNDEFINED()'
p1004
S'127'
p1005
tp1006
a(S'X_MPI_Errhandler_fn()'
p1007
S'130'
p1008
tp1009
a(S'X_MPI_Errhandler()'
p1010
S'131'
p1011
tp1012
a(S'X_MPI_ERRORS_ARE_FATAL()'
p1013
S'132'
p1014
tp1015
a(S'X_MPI_ERRORS_RETURN()'
p1016
S'133'
p1017
tp1018
a(S'X_MPI_ANY_SOURCE()'
p1019
S'138'
p1020
tp1021
a(S'X_MPI_ANY_TAG()'
p1022
S'139'
p1023
tp1024
a(S'X_MPI_IDENT()'
p1025
S'142'
p1026
tp1027
a(S'X_MPI_CONGRUENT()'
p1028
S'143'
p1029
tp1030
a(S'X_MPI_SIMILAR()'
p1031
S'144'
p1032
tp1033
a(S'X_MPI_UNEQUAL()'
p1034
S'145'
p1035
tp1036
a(S'X_MPI_CART()'
p1037
S'149'
p1038
tp1039
a(S'X_MPI_GRAPH()'
p1040
S'150'
p1041
tp1042
a(S'X_MPI_COMM_WORLD()'
p1043
S'153'
p1044
tp1045
a(S'X_MPI_COMM_NULL()'
p1046
S'154'
p1047
tp1048
a(S'X_MPI_GROUP_NULL()'
p1049
S'157'
p1050
tp1051
a(S'X_MPI_GROUP_EMPTY()'
p1052
S'158'
p1053
tp1054
a(S'X_MPI_MAX_PROCESSOR_NAME()'
p1055
S'160'
p1056
tp1057
a(S'X_MPI_STATUS_IGNORE()'
p1058
S'164'
p1059
tp1060
a(S'X_MPI_STATUSES_IGNORE()'
p1061
S'165'
p1062
tp1063
a(S'X_MPI_SOURCE()'
p1064
S'167'
p1065
tp1066
a(S'X_MPI_TAG()'
p1067
S'168'
p1068
tp1069
a(S'X_MPI_ERROR()'
p1070
S'169'
p1071
tp1072
a(S'X_MPI_REQUEST_NULL()'
p1073
S'173'
p1074
tp1075
a(S'X_MPI_IN_PLACE()'
p1076
S'175'
p1077
tp1078
a(S'X_MPI_MAX()'
p1079
S'179'
p1080
tp1081
a(S'X_MPI_MIN()'
p1082
S'180'
p1083
tp1084
a(S'X_MPI_SUM()'
p1085
S'181'
p1086
tp1087
a(S'X_MPI_PROD()'
p1088
S'182'
p1089
tp1090
a(S'X_MPI_LAND()'
p1091
S'183'
p1092
tp1093
a(S'X_MPI_BAND()'
p1094
S'184'
p1095
tp1096
a(S'X_MPI_LOR()'
p1097
S'185'
p1098
tp1099
a(S'X_MPI_BOR()'
p1100
S'186'
p1101
tp1102
a(S'X_MPI_LXOR()'
p1103
S'187'
p1104
tp1105
a(S'X_MPI_BXOR()'
p1106
S'188'
p1107
tp1108
a(S'X_MPI_Init()'
p1109
S'191'
p1110
tp1111
a(S'X_MPI_Finalize()'
p1112
S'192'
p1113
tp1114
a(S'X_MPI_Abort()'
p1115
S'193'
p1116
tp1117
a(S'X_MPI_Initialized()'
p1118
S'194'
p1119
tp1120
a(S'X_MPI_Finalized()'
p1121
S'195'
p1122
tp1123
a(S'X_MPI_Create_errhandler()'
p1124
S'197'
p1125
tp1126
a(S'X_MPI_Errhandler_free()'
p1127
S'198'
p1128
tp1129
a(S'X_MPI_Comm_set_errhandler()'
p1130
S'199'
p1131
tp1132
a(S'X_MPI_Comm_get_errhandler()'
p1133
S'200'
p1134
tp1135
a(S'X_MPI_Error_string()'
p1136
S'201'
p1137
tp1138
a(S'X_MPI_Get_processor_name()'
p1139
S'203'
p1140
tp1141
a(S'X_MPI_Wtime()'
p1142
S'204'
p1143
tp1144
a(S'X_MPI_Group_size()'
p1145
S'206'
p1146
tp1147
a(S'X_MPI_Group_rank()'
p1148
S'207'
p1149
tp1150
a(S'X_MPI_Group_incl()'
p1151
S'208'
p1152
tp1153
a(S'X_MPI_Comm_group()'
p1154
S'209'
p1155
tp1156
a(S'X_MPI_Group_free()'
p1157
S'210'
p1158
tp1159
a(S'X_MPI_Comm_size()'
p1160
S'212'
p1161
tp1162
a(S'X_MPI_Comm_rank()'
p1163
S'213'
p1164
tp1165
a(S'X_MPI_Comm_compare()'
p1166
S'214'
p1167
tp1168
a(S'X_MPI_Comm_free()'
p1169
S'215'
p1170
tp1171
a(S'X_MPI_Comm_create()'
p1172
S'216'
p1173
tp1174
a(S'X_MPI_Comm_split()'
p1175
S'217'
p1176
tp1177
a(S'X_MPI_Comm_dup()'
p1178
S'218'
p1179
tp1180
a(S'X_MPI_Topo_test()'
p1181
S'220'
p1182
tp1183
a(S'X_MPI_Cartdim_get()'
p1184
S'221'
p1185
tp1186
a(S'X_MPI_Cart_get()'
p1187
S'222'
p1188
tp1189
a(S'X_MPI_Cart_rank()'
p1190
S'223'
p1191
tp1192
a(S'X_MPI_Cart_coords()'
p1193
S'224'
p1194
tp1195
a(S'X_MPI_Cart_map()'
p1196
S'225'
p1197
tp1198
a(S'X_MPI_Cart_create()'
p1199
S'226'
p1200
tp1201
a(S'X_MPI_Cart_sub()'
p1202
S'227'
p1203
tp1204
a(S'X_MPI_Type_contiguous()'
p1205
S'229'
p1206
tp1207
a(S'X_MPI_Type_commit()'
p1208
S'230'
p1209
tp1210
a(S'X_MPI_Send()'
p1211
S'232'
p1212
tp1213
a(S'X_MPI_Recv()'
p1214
S'233'
p1215
tp1216
a(S'X_MPI_Sendrecv()'
p1217
S'234'
p1218
tp1219
a(S'X_MPI_Get_count()'
p1220
S'235'
p1221
tp1222
a(S'X_MPI_Isend()'
p1223
S'237'
p1224
tp1225
a(S'X_MPI_Irecv()'
p1226
S'238'
p1227
tp1228
a(S'X_MPI_Test()'
p1229
S'239'
p1230
tp1231
a(S'X_MPI_Wait()'
p1232
S'240'
p1233
tp1234
a(S'X_MPI_Waitall()'
p1235
S'241'
p1236
tp1237
a(S'X_MPI_Barrier()'
p1238
S'243'
p1239
tp1240
a(S'X_MPI_Bcast()'
p1241
S'245'
p1242
tp1243
a(S'X_MPI_Gather()'
p1244
S'247'
p1245
tp1246
a(S'X_MPI_Gatherv()'
p1247
S'248'
p1248
tp1249
a(S'X_MPI_Scatter()'
p1250
S'249'
p1251
tp1252
a(S'X_MPI_Scatterv()'
p1253
S'250'
p1254
tp1255
a(S'X_MPI_Alltoall()'
p1256
S'251'
p1257
tp1258
a(S'X_MPI_Alltoallv()'
p1259
S'252'
p1260
tp1261
a(S'X_MPI_Reduce()'
p1262
S'255'
p1263
tp1264
a(S'X_MPI_Allreduce()'
p1265
S'256'
p1266
tp1267
a(S'X_MPI_Scan()'
p1268
S'257'
p1269
tp1270
asS'gromacs_fhmd-langevin_localthermostat/src/gromacs/mdrunutility/threadaffinity.cpp'
p1271
(lp1272
(S'MPI_Reduce()'
p1273
S'75'
p1274
tp1275
a(S'MPI_Comm_split()'
p1276
S'386'
p1277
tp1278
a(S'MPI_Scan()'
p1279
S'389'
p1280
tp1281
a(S'MPI_Allreduce()'
p1282
S'393'
p1283
tp1284
a(S'MPI_Comm_free()'
p1285
S'394'
p1286
tp1287
a(S'MPI_Initialized()'
p1288
S'520'
p1289
tp1290
a(S'MPI_Allreduce()'
p1291
S'529'
p1292
tp1293
as.