ccollections
defaultdict
p0
(c__builtin__
list
p1
tp2
Rp3
S'shooter-player/Thirdparty/boost/boost/graph/distributed/detail/mpi_process_group.ipp'
p4
(lp5
(S'MPI_Recv()'
p6
S'492'
p7
tp8
a(S'MPI_Get_count()'
p9
S'510'
p10
tp11
a(S'MPI_Recv()'
p12
S'516'
p13
tp14
a(S'MPI_Irecv()'
p15
S'665'
p16
tp17
a(S'X_MPI_PACKED()'
p18
S'666'
p19
tp20
a(S'MPI_Allgather()'
p21
S'837'
p22
tp23
a(S'MPI_Allgatherv()'
p24
S'856'
p25
tp26
a(S'X_MPI_BYTE()'
p27
S'859'
p28
tp29
a(S'MPI_Comm_group()'
p30
S'880'
p31
tp32
a(S'MPI_Group_incl()'
p33
S'884'
p34
tp35
a(S'MPI_Comm_create()'
p36
S'888'
p37
tp38
a(S'MPI_Group_free()'
p39
S'891'
p40
tp41
a(S'MPI_Group_free()'
p42
S'893'
p43
tp44
a(S'MPI_Comm_free()'
p45
S'898'
p46
tp47
a(S'MPI_Irecv()'
p48
S'929'
p49
tp50
a(S'MPI_Test()'
p51
S'934'
p52
tp53
a(S'MPI_Get_count()'
p54
S'967'
p55
tp56
a(S'MPI_Recv()'
p57
S'972'
p58
tp59
asS'shooter-player/Thirdparty/boost/boost/mpi/exception.hpp'
p60
(lp61
(S'MPI_Error_class()'
p62
S'73'
p63
tp64
asS'shooter-player/Thirdparty/boost/boost/mpi/timer.hpp'
p65
(lp66
(S'MPI_Wtime()'
p67
S'71'
p68
tp69
asS'shooter-player/Thirdparty/boost/boost/mpi/operations.hpp'
p70
(lp71
(S'MPI_Op_free()'
p72
S'293'
p73
tp74
asS'shooter-player/Thirdparty/boost/boost/mpi/datatype.hpp'
p75
(lp76
(S'X_MPI_LONG_DOUBLE_INT()'
p77
S'250'
p78
tp79
a(S'MPI_Type_contiguous()'
p80
S'310'
p81
tp82
a(S'MPI_Type_commit()'
p83
S'311'
p84
tp85
asS'shooter-player/Thirdparty/boost/boost/mpi/allocator.hpp'
p86
(lp87
(S'X_MPI_INFO_NULL()'
p88
S'141'
p89
tp90
asS'shooter-player/Thirdparty/boost/boost/graph/distributed/mpi_process_group.hpp'
p91
(lp92
(S'MPI_Bsend()'
p93
S'708'
p94
tp95
a(S'MPI_Isend()'
p96
S'714'
p97
tp98
a(S'MPI_Test()'
p99
S'720'
p100
tp101
a(S'MPI_Bsend()'
p102
S'744'
p103
tp104
a(S'MPI_Isend()'
p105
S'750'
p106
tp107
a(S'MPI_Test()'
p108
S'756'
p109
tp110
asS'shooter-player/Thirdparty/boost/boost/mpi/communicator.hpp'
p111
(lp112
(S'MPI_Comm()'
p113
S'1425'
p114
tp115
a(S'MPI_Comm()'
p116
S'1448'
p117
tp118
a(S'MPI_Comm()'
p119
S'1484'
p120
tp121
a(S'MPI_Comm()'
p122
S'1507'
p123
tp124
asS'shooter-player/Thirdparty/boost/boost/graph/distributed/page_rank.hpp'
p125
(lp126
(S'MPI_Comm_rank()'
p127
S'40'
p128
tp129
a(S'MPI_Accumulate()'
p130
S'53'
p131
tp132
a(S'MPI_Win_fence()'
p133
S'60'
p134
tp135
a(S'MPI_Comm_rank()'
p136
S'90'
p137
tp138
a(S'MPI_Win_create()'
p139
S'117'
p140
tp141
a(S'X_MPI_INFO_NULL()'
p142
S'120'
p143
tp144
a(S'MPI_Win_set_name()'
p145
S'121'
p146
tp147
a(S'MPI_Win_create()'
p148
S'122'
p149
tp150
a(S'X_MPI_INFO_NULL()'
p151
S'125'
p152
tp153
a(S'MPI_Win_set_name()'
p154
S'126'
p155
tp156
a(S'MPI_Win_fence()'
p157
S'131'
p158
tp159
a(S'MPI_Win_fence()'
p160
S'132'
p161
tp162
a(S'MPI_Win_free()'
p163
S'146'
p164
tp165
a(S'MPI_Win_free()'
p166
S'147'
p167
tp168
as.