ccollections
defaultdict
p0
(c__builtin__
list
p1
tp2
Rp3
S'SCFD-mesh_proto/include/scfd/communication/mpi_communicator.h'
p4
(lp5
(S'MPI_Allreduce()'
p6
S'61'
p7
tp8
a(S'MPI_Allreduce()'
p9
S'69'
p10
tp11
a(S'MPI_Allreduce()'
p12
S'77'
p13
tp14
a(S'MPI_Allreduce()'
p15
S'85'
p16
tp17
a(S'MPI_Allreduce()'
p18
S'93'
p19
tp20
a(S'MPI_Allreduce()'
p21
S'101'
p22
tp23
asS'SCFD-mesh_proto/include/scfd/utils/mpi_timer_event.h'
p24
(lp25
(S'MPI_Wtime()'
p26
S'38'
p27
tp28
as.