ccollections
defaultdict
p0
(c__builtin__
list
p1
tp2
Rp3
S'espressopp/contrib/mpi4py/mpi4py-1.3/demo/spawning/cpi-worker.cxx'
p4
(lp5
(S'X_MPI_SUM()'
p6
S'23'
p7
tp8
asS'espressopp/contrib/mpi4py/mpi4py-1.3/src/MPI/atimport.pxi'
p9
(lp10
(S'MPI_Finalized()'
p11
S'154'
p12
tp13
a(S'MPI_Finalize()'
p14
S'181'
p15
tp16
asS'espressopp/contrib/boost/libs/mpi/src/exception.cpp'
p17
(lp18
(S'MPI_Error_string()'
p19
S'19'
p20
tp21
asS'espressopp/contrib/mpi4py/mpi4py-1.3/docs/usrman/_sources/tutorial.txt'
p22
(lp23
(S'MPI_Comm_size()'
p24
S'216'
p25
tp26
a(S'MPI_Comm_rank()'
p27
S'217'
p28
tp29
a(S'MPI_Comm_size()'
p30
S'258'
p31
tp32
a(S'MPI_Comm_rank()'
p33
S'259'
p34
tp35
asS'espressopp/contrib/mpi4py/mpi4py-1.3/src/config/mpich2.h'
p36
(lp37
(S'X_MPI_UNWEIGHTED()'
p38
S'53'
p39
tp40
asS'espressopp/contrib/mpi4py/mpi4py-1.3/conf/mpidistutils.py'
p41
(lp42
(S'MPI_Init()'
p43
S'504'
p44
tp45
a(S'MPI_Finalize()'
p46
S'506'
p47
tp48
asS'espressopp/contrib/boost/libs/mpi/src/environment.cpp'
p49
(lp50
(S'MPI_Errhandler_set()'
p51
S'27'
p52
tp53
a(S'MPI_Errhandler_set()'
p54
S'40'
p55
tp56
asS'espressopp/contrib/mpi4py/mpi4py-1.3/src/fallback.h'
p57
(lp58
(S'X_MPI_VERSION()'
p59
S'34'
p60
tp61
a(S'X_MPI_SUBVERSION()'
p62
S'40'
p63
tp64
a(S'X_MPI_Get_version()'
p65
S'54'
p66
tp67
a(S'MPI_Init()'
p68
S'67'
p69
tp70
a(S'X_MPI_Init_thread()'
p71
S'73'
p72
tp73
a(S'X_MPI_Query_thread()'
p74
S'84'
p75
tp76
a(S'X_MPI_Is_thread_main()'
p77
S'95'
p78
tp79
a(S'X_MPI_STATUS_IGNORE()'
p80
S'105'
p81
tp82
a(S'X_MPI_STATUSES_IGNORE()'
p83
S'118'
p84
tp85
a(S'X_MPI_LONG_LONG()'
p86
S'127'
p87
tp88
a(S'MPI_Type_lb()'
p89
S'135'
p90
tp91
a(S'MPI_Type_extent()'
p92
S'137'
p93
tp94
a(S'X_MPI_Type_get_extent()'
p95
S'142'
p96
tp97
a(S'MPI_Type_contiguous()'
p98
S'149'
p99
tp100
a(S'MPI_Type_commit()'
p101
S'151'
p102
tp103
a(S'X_MPI_Type_dup()'
p104
S'156'
p105
tp106
a(S'MPI_Type_indexed()'
p107
S'173'
p108
tp109
a(S'X_MPI_Type_create_indexed_block()'
p110
S'178'
p111
tp112
a(S'MPI_Type_extent()'
p113
S'221'
p114
tp115
a(S'MPI_Type_contiguous()'
p116
S'225'
p117
tp118
a(S'MPI_Type_vector()'
p119
S'229'
p120
tp121
a(S'MPI_Type_hvector()'
p122
S'234'
p123
tp124
a(S'MPI_Type_free()'
p125
S'236'
p126
tp127
a(S'MPI_Type_contiguous()'
p128
S'250'
p129
tp130
a(S'MPI_Type_vector()'
p131
S'253'
p132
tp133
a(S'MPI_Type_hvector()'
p134
S'259'
p135
tp136
a(S'MPI_Type_free()'
p137
S'261'
p138
tp139
a(S'MPI_Type_struct()'
p140
S'283'
p141
tp142
a(S'MPI_Type_free()'
p143
S'285'
p144
tp145
a(S'X_MPI_Type_create_subarray()'
p146
S'293'
p147
tp148
a(S'MPI_Type_contiguous()'
p149
S'340'
p150
tp151
a(S'MPI_Type_hvector()'
p152
S'344'
p153
tp154
a(S'MPI_Type_contiguous()'
p155
S'349'
p156
tp157
a(S'MPI_Type_hvector()'
p158
S'353'
p159
tp160
a(S'MPI_Type_hvector()'
p161
S'411'
p162
tp163
a(S'MPI_Type_struct()'
p164
S'422'
p165
tp166
a(S'MPI_Type_free()'
p167
S'424'
p168
tp169
a(S'MPI_Type_struct()'
p170
S'439'
p171
tp172
a(S'MPI_Type_free()'
p173
S'441'
p174
tp175
a(S'MPI_Type_extent()'
p176
S'477'
p177
tp178
a(S'MPI_Type_free()'
p179
S'541'
p180
tp181
a(S'MPI_Type_free()'
p182
S'577'
p183
tp184
a(S'MPI_Type_struct()'
p185
S'599'
p186
tp187
a(S'MPI_Type_free()'
p188
S'601'
p189
tp190
a(S'X_MPI_Type_create_darray()'
p191
S'614'
p192
tp193
a(S'MPI_Status_set_elements()'
p194
S'640'
p195
tp196
a(S'MPI_Status_set_cancelled()'
p197
S'643'
p198
tp199
a(S'X_MPI_Request_get_status()'
p200
S'649'
p201
tp202
a(S'MPI_Comm_size()'
p203
S'662'
p204
tp205
a(S'MPI_Reduce_scatter()'
p206
S'667'
p207
tp208
a(S'X_MPI_Reduce_scatter_block()'
p209
S'675'
p210
tp211
a(S'X_MPI_Alloc_mem()'
p212
S'698'
p213
tp214
a(S'X_MPI_Free_mem()'
p215
S'707'
p216
tp217
asS'espressopp/contrib/boost/boost/mpi/datatype.hpp'
p218
(lp219
(S'X_MPI_LONG_DOUBLE_INT()'
p220
S'250'
p221
tp222
a(S'MPI_Type_contiguous()'
p223
S'310'
p224
tp225
a(S'MPI_Type_commit()'
p226
S'311'
p227
tp228
asS'espressopp/contrib/mpi4py/mpi4py-1.3/demo/spawning/cpi-master.c'
p229
(lp230
(S'MPI_Init()'
p231
S'13'
p232
tp233
a(S'MPI_Comm_spawn()'
p234
S'18'
p235
tp236
a(S'X_MPI_INFO_NULL()'
p237
S'19'
p238
tp239
a(S'X_MPI_COMM_SELF()'
p240
S'20'
p241
tp242
a(S'MPI_Bcast()'
p243
S'24'
p244
tp245
a(S'MPI_Reduce()'
p246
S'26'
p247
tp248
a(S'X_MPI_SUM()'
p249
S'27'
p250
tp251
a(S'MPI_Comm_disconnect()'
p252
S'29'
p253
tp254
a(S'MPI_Finalize()'
p255
S'33'
p256
tp257
asS'espressopp/contrib/boost/libs/mpi/src/request.cpp'
p258
(lp259
(S'MPI_Waitall()'
p260
S'39'
p261
tp262
a(S'MPI_Testall()'
p263
S'82'
p264
tp265
asS'espressopp/contrib/boost/boost/mpi/communicator.hpp'
p266
(lp267
(S'MPI_Comm()'
p268
S'1425'
p269
tp270
a(S'MPI_Comm()'
p271
S'1448'
p272
tp273
a(S'MPI_Comm()'
p274
S'1484'
p275
tp276
a(S'MPI_Comm()'
p277
S'1507'
p278
tp279
asS'espressopp/contrib/boost/boost/mpi/operations.hpp'
p280
(lp281
(S'MPI_Op_free()'
p282
S'293'
p283
tp284
asS'espressopp/contrib/mpi4py/mpi4py-1.3/src/mpi4py.MPI.c'
p285
(lp286
(S'MPI_Initialized()'
p287
S'3962'
p288
tp289
a(S'MPI_Finalized()'
p290
S'3980'
p291
tp292
a(S'MPI_Init_thread()'
p293
S'4100'
p294
tp295
a(S'MPI_Init()'
p296
S'4149'
p297
tp298
a(S'MPI_Initialized()'
p299
S'4308'
p300
tp301
a(S'MPI_Finalized()'
p302
S'4346'
p303
tp304
a(S'MPI_Finalize()'
p305
S'4565'
p306
tp307
a(S'MPI_Type_free()'
p308
S'9741'
p309
tp310
a(S'MPI_Type_get_envelope()'
p311
S'9812'
p312
tp313
a(S'MPI_Status_set_elements()'
p314
S'10618'
p315
tp316
a(S'MPI_Status_set_cancelled()'
p317
S'10627'
p318
tp319
a(S'MPI_Status_set_cancelled()'
p320
S'10710'
p321
tp322
a(S'MPI_Request_free()'
p323
S'11894'
p324
tp325
a(S'MPI_Abort()'
p326
S'13210'
p327
tp328
a(S'MPI_Abort()'
p329
S'13267'
p330
tp331
a(S'MPI_Abort()'
p332
S'13281'
p333
tp334
a(S'MPI_Type_get_extent()'
p335
S'13303'
p336
tp337
a(S'MPI_Op_free()'
p338
S'14642'
p339
tp340
a(S'MPI_Info_free()'
p341
S'14782'
p342
tp343
a(S'MPI_Group_free()'
p344
S'14982'
p345
tp346
a(S'MPI_Comm_free()'
p347
S'16565'
p348
tp349
a(S'MPI_Win_create_keyval()'
p350
S'16718'
p351
tp352
a(S'MPI_Win_set_attr()'
p353
S'16744'
p354
tp355
a(S'MPI_Win_free()'
p356
S'17924'
p357
tp358
a(S'MPI_File_close()'
p359
S'18064'
p360
tp361
a(S'MPI_Errhandler_free()'
p362
S'18204'
p363
tp364
asS'espressopp/contrib/boost/boost/mpi/allocator.hpp'
p365
(lp366
(S'X_MPI_INFO_NULL()'
p367
S'141'
p368
tp369
asS'espressopp/contrib/mpi4py/mpi4py-1.3/demo/spawning/cpi-worker.f90'
p370
(lp371
(S'MPI_INIT()'
p372
S'10'
p373
tp374
a(S'MPI_COMM_GET_PARENT()'
p375
S'11'
p376
tp377
a(S'MPI_COMM_SIZE()'
p378
S'12'
p379
tp380
a(S'MPI_COMM_RANK()'
p381
S'13'
p382
tp383
a(S'MPI_BCAST()'
p384
S'15'
p385
tp386
a(S'MPI_REDUCE()'
p387
S'26'
p388
tp389
a(S'X_MPI_SUM()'
p390
S'27'
p391
tp392
a(S'MPI_COMM_DISCONNECT()'
p393
S'29'
p394
tp395
a(S'MPI_FINALIZE()'
p396
S'30'
p397
tp398
asS'espressopp/contrib/boost/boost/mpi/timer.hpp'
p399
(lp400
(S'MPI_Wtime()'
p401
S'71'
p402
tp403
asS'espressopp/contrib/mpi4py/mpi4py-1.3/src/compat/mpich1.h'
p404
(lp405
(S'X_MPI_Init()'
p406
S'36'
p407
tp408
a(S'X_MPI_Init_thread()'
p409
S'45'
p410
tp411
a(S'X_MPI_SIGNED_CHAR()'
p412
S'50'
p413
tp414
a(S'X_MPI_Status_set_elements()'
p415
S'62'
p416
tp417
a(S'X_MPI_Sendrecv()'
p418
S'86'
p419
tp420
a(S'MPI_File_get_errhandler()'
p421
S'112'
p422
tp423
a(S'MPI_File_get_errhandler()'
p424
S'129'
p425
tp426
a(S'MPI_File_set_errhandler()'
p427
S'131'
p428
tp429
a(S'X_MPI_File_get_errhandler()'
p430
S'148'
p431
tp432
a(S'X_MPI_File_set_errhandler()'
p433
S'151'
p434
tp435
a(S'X_MPI_ERR_KEYVAL()'
p436
S'158'
p437
tp438
a(S'X_MPI_MAX_OBJECT_NAME()'
p439
S'161'
p440
tp441
asS'espressopp/contrib/mpi4py/mpi4py-1.3/docs/source/usrman/appendix.rst'
p442
(lp443
(S'MPI_Init()'
p444
S'24'
p445
tp446
a(S'MPI_Finalized()'
p447
S'26'
p448
tp449
asS'espressopp/contrib/boost/libs/mpi/src/mpi_datatype_cache.cpp'
p450
(lp451
(S'MPI_Type_free()'
p452
S'36'
p453
tp454
asS'espressopp/contrib/mpi4py/mpi4py-1.3/src/compat/lammpi.h'
p455
(lp456
(S'X_MPI_Info_free()'
p457
S'13'
p458
tp459
a(S'MPI_Cancel()'
p460
S'20'
p461
tp462
a(S'X_MPI_Cancel()'
p463
S'28'
p464
tp465
a(S'X_MPI_Comm_disconnect()'
p466
S'39'
p467
tp468
a(S'X_MPI_Errhandler_free()'
p469
S'72'
p470
tp471
a(S'MPI_Errhandler_get()'
p472
S'83'
p473
tp474
a(S'X_MPI_Errhandler_get()'
p475
S'88'
p476
tp477
a(S'X_MPI_Comm_get_errhandler()'
p478
S'90'
p479
tp480
a(S'MPI_Errhandler_get()'
p481
S'100'
p482
tp483
a(S'MPI_Errhandler_set()'
p484
S'108'
p485
tp486
a(S'MPI_Errhandler_free()'
p487
S'116'
p488
tp489
a(S'X_MPI_Errhandler_set()'
p490
S'123'
p491
tp492
a(S'X_MPI_Comm_set_errhandler()'
p493
S'125'
p494
tp495
a(S'MPI_Win_get_errhandler()'
p496
S'136'
p497
tp498
a(S'X_MPI_Win_get_errhandler()'
p499
S'146'
p500
tp501
a(S'MPI_Win_get_errhandler()'
p502
S'156'
p503
tp504
a(S'MPI_Win_set_errhandler()'
p505
S'164'
p506
tp507
a(S'MPI_Errhandler_free()'
p508
S'172'
p509
tp510
a(S'X_MPI_Win_set_errhandler()'
p511
S'179'
p512
tp513
a(S'MPI_Win_create()'
p514
S'187'
p515
tp516
a(S'MPI_Win_get_errhandler()'
p517
S'189'
p518
tp519
a(S'X_MPI_Win_create()'
p520
S'194'
p521
tp522
a(S'MPI_Win_get_errhandler()'
p523
S'202'
p524
tp525
a(S'MPI_Errhandler_free()'
p526
S'206'
p527
tp528
a(S'MPI_Win_free()'
p529
S'210'
p530
tp531
a(S'MPI_Errhandler_free()'
p532
S'212'
p533
tp534
a(S'X_MPI_Win_free()'
p535
S'219'
p536
tp537
a(S'X_MPI_File_get_errhandler()'
p538
S'304'
p539
tp540
a(S'X_MPI_File_set_errhandler()'
p541
S'341'
p542
tp543
asS'espressopp/contrib/mpi4py/mpi4py-1.3/demo/mandelbrot/mandelbrot-worker.f90'
p544
(lp545
(S'MPI_Init()'
p546
S'19'
p547
tp548
a(S'MPI_Comm_get_parent()'
p549
S'20'
p550
tp551
a(S'MPI_Abort()'
p552
S'23'
p553
tp554
a(S'MPI_Comm_size()'
p555
S'25'
p556
tp557
a(S'MPI_Comm_rank()'
p558
S'26'
p559
tp560
a(S'MPI_Bcast()'
p561
S'29'
p562
tp563
a(S'MPI_Bcast()'
p564
S'30'
p565
tp566
a(S'MPI_Gather()'
p567
S'58'
p568
tp569
a(S'X_MPI_BOTTOM()'
p570
S'59'
p571
tp572
a(S'MPI_Gatherv()'
p573
S'63'
p574
tp575
a(S'X_MPI_BOTTOM()'
p576
S'64'
p577
tp578
a(S'MPI_Gatherv()'
p579
S'68'
p580
tp581
a(S'X_MPI_BOTTOM()'
p582
S'69'
p583
tp584
a(S'MPI_Comm_disconnect()'
p585
S'76'
p586
tp587
a(S'MPI_Finalize()'
p588
S'77'
p589
tp590
asS'espressopp/contrib/boost/libs/mpi/src/communicator.cpp'
p591
(lp592
(S'MPI_Errhandler_set()'
p593
S'46'
p594
tp595
asS'espressopp/contrib/mpi4py/mpi4py-1.3/src/compat/hpmpi.h'
p596
(lp597
(S'X_MPI_Init()'
p598
S'63'
p599
tp600
a(S'X_MPI_Init_thread()'
p601
S'72'
p602
tp603
asS'espressopp/contrib/boost/libs/mpi/src/point_to_point.cpp'
p604
(lp605
(S'X_MPI_PACKED()'
p606
S'38'
p607
tp608
a(S'X_MPI_PACKED()'
p609
S'55'
p610
tp611
a(S'X_MPI_PACKED()'
p612
S'75'
p613
tp614
asS'espressopp/contrib/mpi4py/mpi4py-1.3/src/missing.h'
p615
(lp616
(S'X_MPI_Aint()'
p617
S'23'
p618
tp619
a(S'X_MPI_Offset()'
p620
S'29'
p621
tp622
a(S'X_MPI_Status()'
p623
S'39'
p624
tp625
a(S'X_MPI_Datatype()'
p626
S'45'
p627
tp628
a(S'X_MPI_Request()'
p629
S'51'
p630
tp631
a(S'X_MPI_Op()'
p632
S'57'
p633
tp634
a(S'X_MPI_Group()'
p635
S'63'
p636
tp637
a(S'X_MPI_Info()'
p638
S'69'
p639
tp640
a(S'X_MPI_Comm()'
p641
S'75'
p642
tp643
a(S'X_MPI_Win()'
p644
S'81'
p645
tp646
a(S'X_MPI_File()'
p647
S'87'
p648
tp649
a(S'X_MPI_Errhandler()'
p650
S'93'
p651
tp652
a(S'X_MPI_UNDEFINED()'
p653
S'98'
p654
tp655
a(S'X_MPI_ANY_SOURCE()'
p656
S'103'
p657
tp658
a(S'X_MPI_ANY_TAG()'
p659
S'108'
p660
tp661
a(S'X_MPI_PROC_NULL()'
p662
S'113'
p663
tp664
a(S'X_MPI_ROOT()'
p665
S'118'
p666
tp667
a(S'X_MPI_IDENT()'
p668
S'123'
p669
tp670
a(S'X_MPI_CONGRUENT()'
p671
S'128'
p672
tp673
a(S'X_MPI_SIMILAR()'
p674
S'133'
p675
tp676
a(S'X_MPI_UNEQUAL()'
p677
S'138'
p678
tp679
a(S'X_MPI_BOTTOM()'
p680
S'143'
p681
tp682
a(S'X_MPI_IN_PLACE()'
p683
S'148'
p684
tp685
a(S'X_MPI_KEYVAL_INVALID()'
p686
S'153'
p687
tp688
a(S'X_MPI_MAX_OBJECT_NAME()'
p689
S'158'
p690
tp691
a(S'X_MPI_DATATYPE_NULL()'
p692
S'163'
p693
tp694
a(S'X_MPI_UB()'
p695
S'168'
p696
tp697
a(S'X_MPI_LB()'
p698
S'173'
p699
tp700
a(S'X_MPI_PACKED()'
p701
S'178'
p702
tp703
a(S'X_MPI_BYTE()'
p704
S'183'
p705
tp706
a(S'X_MPI_AINT()'
p707
S'188'
p708
tp709
a(S'X_MPI_OFFSET()'
p710
S'193'
p711
tp712
a(S'X_MPI_CHAR()'
p713
S'198'
p714
tp715
a(S'X_MPI_WCHAR()'
p716
S'203'
p717
tp718
a(S'X_MPI_SIGNED_CHAR()'
p719
S'208'
p720
tp721
a(S'X_MPI_SHORT()'
p722
S'213'
p723
tp724
a(S'X_MPI_INT()'
p725
S'218'
p726
tp727
a(S'X_MPI_LONG()'
p728
S'223'
p729
tp730
a(S'X_MPI_LONG_LONG()'
p731
S'228'
p732
tp733
a(S'X_MPI_LONG_LONG_INT()'
p734
S'233'
p735
tp736
a(S'X_MPI_UNSIGNED_CHAR()'
p737
S'238'
p738
tp739
a(S'X_MPI_UNSIGNED_SHORT()'
p740
S'243'
p741
tp742
a(S'X_MPI_UNSIGNED()'
p743
S'248'
p744
tp745
a(S'X_MPI_UNSIGNED_LONG()'
p746
S'253'
p747
tp748
a(S'X_MPI_UNSIGNED_LONG_LONG()'
p749
S'258'
p750
tp751
a(S'X_MPI_FLOAT()'
p752
S'263'
p753
tp754
a(S'X_MPI_DOUBLE()'
p755
S'268'
p756
tp757
a(S'X_MPI_LONG_DOUBLE()'
p758
S'273'
p759
tp760
a(S'X_MPI_C_BOOL()'
p761
S'278'
p762
tp763
a(S'X_MPI_C_COMPLEX()'
p764
S'323'
p765
tp766
a(S'X_MPI_C_FLOAT_COMPLEX()'
p767
S'328'
p768
tp769
a(S'X_MPI_C_DOUBLE_COMPLEX()'
p770
S'333'
p771
tp772
a(S'X_MPI_C_LONG_DOUBLE_COMPLEX()'
p773
S'338'
p774
tp775
a(S'X_MPI_SHORT_INT()'
p776
S'343'
p777
tp778
a(S'X_MPI_LONG_INT()'
p779
S'353'
p780
tp781
a(S'X_MPI_FLOAT_INT()'
p782
S'358'
p783
tp784
a(S'X_MPI_DOUBLE_INT()'
p785
S'363'
p786
tp787
a(S'X_MPI_LONG_DOUBLE_INT()'
p788
S'368'
p789
tp790
a(S'X_MPI_CHARACTER()'
p791
S'373'
p792
tp793
a(S'X_MPI_LOGICAL()'
p794
S'378'
p795
tp796
a(S'X_MPI_INTEGER()'
p797
S'383'
p798
tp799
a(S'X_MPI_REAL()'
p800
S'388'
p801
tp802
a(S'X_MPI_DOUBLE_PRECISION()'
p803
S'393'
p804
tp805
a(S'X_MPI_COMPLEX()'
p806
S'398'
p807
tp808
a(S'X_MPI_DOUBLE_COMPLEX()'
p809
S'403'
p810
tp811
a(S'X_MPI_ORDER_C()'
p812
S'538'
p813
tp814
a(S'X_MPI_ORDER_FORTRAN()'
p815
S'543'
p816
tp817
a(S'X_MPI_DISTRIBUTE_NONE()'
p818
S'553'
p819
tp820
a(S'X_MPI_DISTRIBUTE_BLOCK()'
p821
S'558'
p822
tp823
a(S'X_MPI_DISTRIBUTE_CYCLIC()'
p824
S'563'
p825
tp826
a(S'X_MPI_DISTRIBUTE_DFLT_DARG()'
p827
S'568'
p828
tp829
a(S'X_MPI_Get_address()'
p830
S'598'
p831
tp832
a(S'X_MPI_Type_create_hvector()'
p833
S'603'
p834
tp835
a(S'X_MPI_Type_create_hindexed()'
p836
S'608'
p837
tp838
a(S'X_MPI_Type_create_struct()'
p839
S'613'
p840
tp841
a(S'X_MPI_TYPECLASS_INTEGER()'
p842
S'648'
p843
tp844
a(S'X_MPI_TYPECLASS_REAL()'
p845
S'653'
p846
tp847
a(S'X_MPI_TYPECLASS_COMPLEX()'
p848
S'658'
p849
tp850
a(S'X_MPI_COMBINER_NAMED()'
p851
S'708'
p852
tp853
a(S'X_MPI_COMBINER_DUP()'
p854
S'713'
p855
tp856
a(S'X_MPI_COMBINER_CONTIGUOUS()'
p857
S'718'
p858
tp859
a(S'X_MPI_COMBINER_VECTOR()'
p860
S'723'
p861
tp862
a(S'X_MPI_COMBINER_HVECTOR_INTEGER()'
p863
S'728'
p864
tp865
a(S'X_MPI_COMBINER_HVECTOR()'
p866
S'733'
p867
tp868
a(S'X_MPI_COMBINER_INDEXED()'
p869
S'738'
p870
tp871
a(S'X_MPI_COMBINER_HINDEXED_INTEGER()'
p872
S'743'
p873
tp874
a(S'X_MPI_COMBINER_HINDEXED()'
p875
S'748'
p876
tp877
a(S'X_MPI_COMBINER_INDEXED_BLOCK()'
p878
S'753'
p879
tp880
a(S'X_MPI_COMBINER_STRUCT_INTEGER()'
p881
S'758'
p882
tp883
a(S'X_MPI_COMBINER_STRUCT()'
p884
S'763'
p885
tp886
a(S'X_MPI_COMBINER_SUBARRAY()'
p887
S'768'
p888
tp889
a(S'X_MPI_COMBINER_DARRAY()'
p890
S'773'
p891
tp892
a(S'X_MPI_COMBINER_RESIZED()'
p893
S'793'
p894
tp895
a(S'X_MPI_Type_copy_attr_function()'
p896
S'834'
p897
tp898
a(S'X_MPI_Type_delete_attr_function()'
p899
S'840'
p900
tp901
a(S'X_MPI_TYPE_NULL_COPY_FN()'
p902
S'845'
p903
tp904
a(S'X_MPI_TYPE_DUP_FN()'
p905
S'850'
p906
tp907
a(S'X_MPI_TYPE_NULL_DELETE_FN()'
p908
S'855'
p909
tp910
a(S'X_MPI_STATUS_IGNORE()'
p911
S'870'
p912
tp913
a(S'X_MPI_STATUSES_IGNORE()'
p914
S'875'
p915
tp916
a(S'X_MPI_REQUEST_NULL()'
p917
S'905'
p918
tp919
a(S'X_MPI_Grequest_cancel_function()'
p920
S'976'
p921
tp922
a(S'X_MPI_Grequest_free_function()'
p923
S'982'
p924
tp925
a(S'X_MPI_Grequest_query_function()'
p926
S'988'
p927
tp928
a(S'X_MPI_OP_NULL()'
p929
S'1003'
p930
tp931
a(S'X_MPI_MAX()'
p932
S'1008'
p933
tp934
a(S'X_MPI_MIN()'
p935
S'1013'
p936
tp937
a(S'X_MPI_SUM()'
p938
S'1018'
p939
tp940
a(S'X_MPI_PROD()'
p941
S'1023'
p942
tp943
a(S'X_MPI_LAND()'
p944
S'1028'
p945
tp946
a(S'X_MPI_BAND()'
p947
S'1033'
p948
tp949
a(S'X_MPI_LOR()'
p950
S'1038'
p951
tp952
a(S'X_MPI_BOR()'
p953
S'1043'
p954
tp955
a(S'X_MPI_LXOR()'
p956
S'1048'
p957
tp958
a(S'X_MPI_BXOR()'
p959
S'1053'
p960
tp961
a(S'X_MPI_MAXLOC()'
p962
S'1058'
p963
tp964
a(S'X_MPI_MINLOC()'
p965
S'1063'
p966
tp967
a(S'X_MPI_REPLACE()'
p968
S'1068'
p969
tp970
a(S'X_MPI_User_function()'
p971
S'1079'
p972
tp973
a(S'X_MPI_INFO_NULL()'
p974
S'1094'
p975
tp976
a(S'X_MPI_MAX_INFO_KEY()'
p977
S'1114'
p978
tp979
a(S'X_MPI_MAX_INFO_VAL()'
p980
S'1119'
p981
tp982
a(S'X_MPI_GROUP_NULL()'
p983
S'1154'
p984
tp985
a(S'X_MPI_GROUP_EMPTY()'
p986
S'1159'
p987
tp988
a(S'X_MPI_COMM_NULL()'
p989
S'1224'
p990
tp991
a(S'X_MPI_COMM_SELF()'
p992
S'1229'
p993
tp994
a(S'X_MPI_COMM_WORLD()'
p995
S'1234'
p996
tp997
a(S'X_MPI_BSEND_OVERHEAD()'
p998
S'1299'
p999
tp1000
a(S'X_MPI_CART()'
p1001
S'1494'
p1002
tp1003
a(S'X_MPI_GRAPH()'
p1004
S'1544'
p1005
tp1006
a(S'X_MPI_DIST_GRAPH()'
p1007
S'1579'
p1008
tp1009
a(S'X_MPI_UNWEIGHTED()'
p1010
S'1584'
p1011
tp1012
a(S'X_MPI_MAX_PORT_NAME()'
p1013
S'1629'
p1014
tp1015
a(S'X_MPI_ARGV_NULL()'
p1016
S'1679'
p1017
tp1018
a(S'X_MPI_ARGVS_NULL()'
p1019
S'1684'
p1020
tp1021
a(S'X_MPI_ERRCODES_IGNORE()'
p1022
S'1689'
p1023
tp1024
a(S'X_MPI_Handler_function()'
p1025
S'1720'
p1026
tp1027
a(S'X_MPI_TAG_UB()'
p1028
S'1730'
p1029
tp1030
a(S'X_MPI_HOST()'
p1031
S'1735'
p1032
tp1033
a(S'X_MPI_IO()'
p1034
S'1740'
p1035
tp1036
a(S'X_MPI_WTIME_IS_GLOBAL()'
p1037
S'1745'
p1038
tp1039
a(S'X_MPI_Copy_function()'
p1040
S'1766'
p1041
tp1042
a(S'X_MPI_Delete_function()'
p1043
S'1772'
p1044
tp1045
a(S'X_MPI_DUP_FN()'
p1046
S'1777'
p1047
tp1048
a(S'X_MPI_NULL_COPY_FN()'
p1049
S'1782'
p1050
tp1051
a(S'X_MPI_NULL_DELETE_FN()'
p1052
S'1787'
p1053
tp1054
a(S'X_MPI_Comm_get_errhandler()'
p1055
S'1802'
p1056
tp1057
a(S'X_MPI_Comm_set_errhandler()'
p1058
S'1807'
p1059
tp1060
a(S'X_MPI_Comm_errhandler_fn()'
p1061
S'1812'
p1062
tp1063
a(S'X_MPI_Comm_errhandler_function()'
p1064
S'1817'
p1065
tp1066
a(S'X_MPI_Comm_create_errhandler()'
p1067
S'1822'
p1068
tp1069
a(S'X_MPI_UNIVERSE_SIZE()'
p1070
S'1842'
p1071
tp1072
a(S'X_MPI_APPNUM()'
p1073
S'1847'
p1074
tp1075
a(S'X_MPI_LASTUSEDCODE()'
p1076
S'1852'
p1077
tp1078
a(S'X_MPI_Comm_get_attr()'
p1079
S'1857'
p1080
tp1081
a(S'X_MPI_Comm_set_attr()'
p1082
S'1862'
p1083
tp1084
a(S'X_MPI_Comm_delete_attr()'
p1085
S'1867'
p1086
tp1087
a(S'X_MPI_Comm_copy_attr_function()'
p1088
S'1872'
p1089
tp1090
a(S'X_MPI_Comm_delete_attr_function()'
p1091
S'1877'
p1092
tp1093
a(S'X_MPI_COMM_DUP_FN()'
p1094
S'1882'
p1095
tp1096
a(S'X_MPI_COMM_NULL_COPY_FN()'
p1097
S'1887'
p1098
tp1099
a(S'X_MPI_COMM_NULL_DELETE_FN()'
p1100
S'1892'
p1101
tp1102
a(S'X_MPI_Comm_create_keyval()'
p1103
S'1897'
p1104
tp1105
a(S'X_MPI_Comm_free_keyval()'
p1106
S'1902'
p1107
tp1108
a(S'X_MPI_WIN_NULL()'
p1109
S'1907'
p1110
tp1111
a(S'X_MPI_MODE_NOCHECK()'
p1112
S'1942'
p1113
tp1114
a(S'X_MPI_MODE_NOSTORE()'
p1115
S'1947'
p1116
tp1117
a(S'X_MPI_MODE_NOPUT()'
p1118
S'1952'
p1119
tp1120
a(S'X_MPI_MODE_NOPRECEDE()'
p1121
S'1957'
p1122
tp1123
a(S'X_MPI_MODE_NOSUCCEED()'
p1124
S'1962'
p1125
tp1126
a(S'X_MPI_LOCK_EXCLUSIVE()'
p1127
S'1997'
p1128
tp1129
a(S'X_MPI_LOCK_SHARED()'
p1130
S'2002'
p1131
tp1132
a(S'X_MPI_Win_errhandler_fn()'
p1133
S'2028'
p1134
tp1135
a(S'X_MPI_Win_errhandler_function()'
p1136
S'2033'
p1137
tp1138
a(S'X_MPI_WIN_BASE()'
p1139
S'2058'
p1140
tp1141
a(S'X_MPI_WIN_SIZE()'
p1142
S'2063'
p1143
tp1144
a(S'X_MPI_WIN_DISP_UNIT()'
p1145
S'2068'
p1146
tp1147
a(S'X_MPI_Win_copy_attr_function()'
p1148
S'2089'
p1149
tp1150
a(S'X_MPI_Win_delete_attr_function()'
p1151
S'2095'
p1152
tp1153
a(S'X_MPI_WIN_DUP_FN()'
p1154
S'2100'
p1155
tp1156
a(S'X_MPI_WIN_NULL_COPY_FN()'
p1157
S'2105'
p1158
tp1159
a(S'X_MPI_WIN_NULL_DELETE_FN()'
p1160
S'2110'
p1161
tp1162
a(S'X_MPI_FILE_NULL()'
p1163
S'2125'
p1164
tp1165
a(S'X_MPI_MODE_RDONLY()'
p1166
S'2130'
p1167
tp1168
a(S'X_MPI_MODE_RDWR()'
p1169
S'2135'
p1170
tp1171
a(S'X_MPI_MODE_WRONLY()'
p1172
S'2140'
p1173
tp1174
a(S'X_MPI_MODE_CREATE()'
p1175
S'2145'
p1176
tp1177
a(S'X_MPI_MODE_EXCL()'
p1178
S'2150'
p1179
tp1180
a(S'X_MPI_MODE_DELETE_ON_CLOSE()'
p1181
S'2155'
p1182
tp1183
a(S'X_MPI_MODE_UNIQUE_OPEN()'
p1184
S'2160'
p1185
tp1186
a(S'X_MPI_MODE_APPEND()'
p1187
S'2165'
p1188
tp1189
a(S'X_MPI_MODE_SEQUENTIAL()'
p1190
S'2170'
p1191
tp1192
a(S'X_MPI_MAX_DATAREP_STRING()'
p1193
S'2225'
p1194
tp1195
a(S'X_MPI_SEEK_SET()'
p1196
S'2270'
p1197
tp1198
a(S'X_MPI_SEEK_CUR()'
p1199
S'2275'
p1200
tp1201
a(S'X_MPI_SEEK_END()'
p1202
S'2280'
p1203
tp1204
a(S'X_MPI_DISPLACEMENT_CURRENT()'
p1205
S'2285'
p1206
tp1207
a(S'X_MPI_File_errhandler_fn()'
p1208
S'2466'
p1209
tp1210
a(S'X_MPI_File_errhandler_function()'
p1211
S'2471'
p1212
tp1213
a(S'X_MPI_Datarep_conversion_function()'
p1214
S'2487'
p1215
tp1216
a(S'X_MPI_Datarep_extent_function()'
p1217
S'2493'
p1218
tp1219
a(S'X_MPI_ERRHANDLER_NULL()'
p1220
S'2503'
p1221
tp1222
a(S'X_MPI_ERRORS_RETURN()'
p1223
S'2508'
p1224
tp1225
a(S'X_MPI_ERRORS_ARE_FATAL()'
p1226
S'2513'
p1227
tp1228
a(S'X_MPI_MAX_ERROR_STRING()'
p1229
S'2523'
p1230
tp1231
a(S'X_MPI_SUCCESS()'
p1232
S'2553'
p1233
tp1234
a(S'X_MPI_ERR_LASTCODE()'
p1235
S'2558'
p1236
tp1237
a(S'X_MPI_ERR_COMM()'
p1238
S'2563'
p1239
tp1240
a(S'X_MPI_ERR_GROUP()'
p1241
S'2568'
p1242
tp1243
a(S'X_MPI_ERR_TYPE()'
p1244
S'2573'
p1245
tp1246
a(S'X_MPI_ERR_REQUEST()'
p1247
S'2578'
p1248
tp1249
a(S'X_MPI_ERR_OP()'
p1250
S'2583'
p1251
tp1252
a(S'X_MPI_ERR_BUFFER()'
p1253
S'2588'
p1254
tp1255
a(S'X_MPI_ERR_COUNT()'
p1256
S'2593'
p1257
tp1258
a(S'X_MPI_ERR_TAG()'
p1259
S'2598'
p1260
tp1261
a(S'X_MPI_ERR_RANK()'
p1262
S'2603'
p1263
tp1264
a(S'X_MPI_ERR_ROOT()'
p1265
S'2608'
p1266
tp1267
a(S'X_MPI_ERR_TRUNCATE()'
p1268
S'2613'
p1269
tp1270
a(S'X_MPI_ERR_IN_STATUS()'
p1271
S'2618'
p1272
tp1273
a(S'X_MPI_ERR_PENDING()'
p1274
S'2623'
p1275
tp1276
a(S'X_MPI_ERR_TOPOLOGY()'
p1277
S'2628'
p1278
tp1279
a(S'X_MPI_ERR_DIMS()'
p1280
S'2633'
p1281
tp1282
a(S'X_MPI_ERR_ARG()'
p1283
S'2638'
p1284
tp1285
a(S'X_MPI_ERR_OTHER()'
p1286
S'2643'
p1287
tp1288
a(S'X_MPI_ERR_UNKNOWN()'
p1289
S'2648'
p1290
tp1291
a(S'X_MPI_ERR_INTERN()'
p1292
S'2653'
p1293
tp1294
a(S'X_MPI_ERR_KEYVAL()'
p1295
S'2658'
p1296
tp1297
a(S'X_MPI_ERR_NO_MEM()'
p1298
S'2663'
p1299
tp1300
a(S'X_MPI_ERR_INFO()'
p1301
S'2668'
p1302
tp1303
a(S'X_MPI_ERR_INFO_KEY()'
p1304
S'2673'
p1305
tp1306
a(S'X_MPI_ERR_INFO_VALUE()'
p1307
S'2678'
p1308
tp1309
a(S'X_MPI_ERR_INFO_NOKEY()'
p1310
S'2683'
p1311
tp1312
a(S'X_MPI_ERR_SPAWN()'
p1313
S'2688'
p1314
tp1315
a(S'X_MPI_ERR_PORT()'
p1316
S'2693'
p1317
tp1318
a(S'X_MPI_ERR_SERVICE()'
p1319
S'2698'
p1320
tp1321
a(S'X_MPI_ERR_NAME()'
p1322
S'2703'
p1323
tp1324
a(S'X_MPI_ERR_FILE()'
p1325
S'2708'
p1326
tp1327
a(S'X_MPI_ERR_NOT_SAME()'
p1328
S'2713'
p1329
tp1330
a(S'X_MPI_ERR_BAD_FILE()'
p1331
S'2718'
p1332
tp1333
a(S'X_MPI_ERR_NO_SUCH_FILE()'
p1334
S'2723'
p1335
tp1336
a(S'X_MPI_ERR_FILE_EXISTS()'
p1337
S'2728'
p1338
tp1339
a(S'X_MPI_ERR_FILE_IN_USE()'
p1340
S'2733'
p1341
tp1342
a(S'X_MPI_ERR_AMODE()'
p1343
S'2738'
p1344
tp1345
a(S'X_MPI_ERR_ACCESS()'
p1346
S'2743'
p1347
tp1348
a(S'X_MPI_ERR_READ_ONLY()'
p1349
S'2748'
p1350
tp1351
a(S'X_MPI_ERR_NO_SPACE()'
p1352
S'2753'
p1353
tp1354
a(S'X_MPI_ERR_QUOTA()'
p1355
S'2758'
p1356
tp1357
a(S'X_MPI_ERR_UNSUPPORTED_DATAREP()'
p1358
S'2763'
p1359
tp1360
a(S'X_MPI_ERR_UNSUPPORTED_OPERATION()'
p1361
S'2768'
p1362
tp1363
a(S'X_MPI_ERR_CONVERSION()'
p1364
S'2773'
p1365
tp1366
a(S'X_MPI_ERR_DUP_DATAREP()'
p1367
S'2778'
p1368
tp1369
a(S'X_MPI_ERR_IO()'
p1370
S'2783'
p1371
tp1372
a(S'X_MPI_ERR_WIN()'
p1373
S'2788'
p1374
tp1375
a(S'X_MPI_ERR_BASE()'
p1376
S'2793'
p1377
tp1378
a(S'X_MPI_ERR_SIZE()'
p1379
S'2798'
p1380
tp1381
a(S'X_MPI_ERR_DISP()'
p1382
S'2803'
p1383
tp1384
a(S'X_MPI_ERR_ASSERT()'
p1385
S'2808'
p1386
tp1387
a(S'X_MPI_ERR_LOCKTYPE()'
p1388
S'2813'
p1389
tp1390
a(S'X_MPI_ERR_RMA_CONFLICT()'
p1391
S'2818'
p1392
tp1393
a(S'X_MPI_ERR_RMA_SYNC()'
p1394
S'2823'
p1395
tp1396
a(S'X_MPI_THREAD_SINGLE()'
p1397
S'2858'
p1398
tp1399
a(S'X_MPI_THREAD_FUNNELED()'
p1400
S'2863'
p1401
tp1402
a(S'X_MPI_THREAD_SERIALIZED()'
p1403
S'2868'
p1404
tp1405
a(S'X_MPI_THREAD_MULTIPLE()'
p1406
S'2873'
p1407
tp1408
a(S'X_MPI_VERSION()'
p1409
S'2893'
p1410
tp1411
a(S'X_MPI_SUBVERSION()'
p1412
S'2898'
p1413
tp1414
a(S'X_MPI_MAX_PROCESSOR_NAME()'
p1415
S'2908'
p1416
tp1417
a(S'X_MPI_Fint()'
p1418
S'2934'
p1419
tp1420
a(S'X_MPI_F_STATUS_IGNORE()'
p1421
S'2939'
p1422
tp1423
a(S'X_MPI_F_STATUSES_IGNORE()'
p1424
S'2944'
p1425
tp1426
asS'espressopp/contrib/mpi4py/mpi4py-1.3/demo/wrap-swig/helloworld.i'
p1427
(lp1428
(S'MPI_Comm_size()'
p1429
S'18'
p1430
tp1431
a(S'MPI_Comm_rank()'
p1432
S'19'
p1433
tp1434
a(S'MPI_Get_processor_name()'
p1435
S'20'
p1436
tp1437
asS'espressopp/contrib/mpi4py/mpi4py-1.3/demo/wrap-boost/helloworld.cxx'
p1438
(lp1439
(S'MPI_Comm_size()'
p1440
S'11'
p1441
tp1442
a(S'MPI_Comm_rank()'
p1443
S'13'
p1444
tp1445
a(S'MPI_Get_processor_name()'
p1446
S'15'
p1447
tp1448
asS'espressopp/contrib/mpi4py/mpi4py-1.3/demo/spawning/cpi-master.f90'
p1449
(lp1450
(S'MPI_INIT()'
p1451
S'15'
p1452
tp1453
a(S'MPI_COMM_SPAWN()'
p1454
S'27'
p1455
tp1456
a(S'X_MPI_INFO_NULL()'
p1457
S'28'
p1458
tp1459
a(S'X_MPI_COMM_SELF()'
p1460
S'29'
p1461
tp1462
a(S'X_MPI_ERRCODES_IGNORE()'
p1463
S'30'
p1464
tp1465
a(S'MPI_BCAST()'
p1466
S'33'
p1467
tp1468
a(S'X_MPI_ROOT()'
p1469
S'34'
p1470
tp1471
a(S'MPI_REDUCE()'
p1472
S'36'
p1473
tp1474
a(S'X_MPI_SUM()'
p1475
S'37'
p1476
tp1477
a(S'MPI_COMM_DISCONNECT()'
p1478
S'39'
p1479
tp1480
a(S'MPI_FINALIZE()'
p1481
S'43'
p1482
tp1483
asS'espressopp/contrib/mpi4py/mpi4py-1.3/demo/embedding/helloworld.c'
p1484
(lp1485
(S'MPI_Init()'
p1486
S'24'
p1487
tp1488
a(S'MPI_Finalize()'
p1489
S'34'
p1490
tp1491
asS'espressopp/contrib/mpi4py/mpi4py-1.3/src/compat/sicortex.h'
p1492
(lp1493
(S'X_MPI_Init()'
p1494
S'18'
p1495
tp1496
a(S'X_MPI_Init_thread()'
p1497
S'27'
p1498
tp1499
asS'espressopp/contrib/mpi4py/mpi4py-1.3/demo/wrap-f2py/helloworld.f90'
p1500
(lp1501
(S'MPI_Comm_rank()'
p1502
S'15'
p1503
tp1504
a(S'MPI_Comm_size()'
p1505
S'16'
p1506
tp1507
a(S'MPI_Get_processor_name()'
p1508
S'17'
p1509
tp1510
asS'espressopp/contrib/mpi4py/mpi4py-1.3/src/compat/openmpi.h'
p1511
(lp1512
(S'X_MPI_Init()'
p1513
S'85'
p1514
tp1515
a(S'X_MPI_Init_thread()'
p1516
S'94'
p1517
tp1518
a(S'X_MPI_Errhandler_free()'
p1519
S'135'
p1520
tp1521
a(S'X_MPI_File_get_errhandler()'
p1522
S'165'
p1523
tp1524
a(S'MPI_File_set_errhandler()'
p1525
S'170'
p1526
tp1527
a(S'X_MPI_File_set_errhandler()'
p1528
S'178'
p1529
tp1530
a(S'MPI_Comm_call_errhandler()'
p1531
S'202'
p1532
tp1533
a(S'X_MPI_Cancel()'
p1534
S'208'
p1535
tp1536
a(S'MPI_Comm_call_errhandler()'
p1537
S'213'
p1538
tp1539
a(S'X_MPI_Request_free()'
p1540
S'219'
p1541
tp1542
a(S'MPI_Comm_call_errhandler()'
p1543
S'225'
p1544
tp1545
a(S'X_MPI_Win_get_errhandler()'
p1546
S'231'
p1547
tp1548
a(S'MPI_Comm_call_errhandler()'
p1549
S'237'
p1550
tp1551
a(S'X_MPI_Win_set_errhandler()'
p1552
S'243'
p1553
tp1554
asS'espressopp/contrib/mpi4py/mpi4py-1.3/demo/helloworld.c'
p1555
(lp1556
(S'MPI_Init_thread()'
p1557
S'11'
p1558
tp1559
a(S'MPI_Init()'
p1560
S'13'
p1561
tp1562
a(S'MPI_Comm_size()'
p1563
S'16'
p1564
tp1565
a(S'MPI_Comm_rank()'
p1566
S'17'
p1567
tp1568
a(S'MPI_Get_processor_name()'
p1569
S'18'
p1570
tp1571
a(S'MPI_Finalize()'
p1572
S'22'
p1573
tp1574
asS'espressopp/contrib/mpi4py/mpi4py-1.3/docs/source/usrman/tutorial.rst'
p1575
(lp1576
(S'MPI_Comm_size()'
p1577
S'216'
p1578
tp1579
a(S'MPI_Comm_rank()'
p1580
S'217'
p1581
tp1582
a(S'MPI_Comm_size()'
p1583
S'258'
p1584
tp1585
a(S'MPI_Comm_rank()'
p1586
S'259'
p1587
tp1588
asS'espressopp/contrib/mpi4py/mpi4py-1.3/docs/usrman/_sources/appendix.txt'
p1589
(lp1590
(S'MPI_Init()'
p1591
S'24'
p1592
tp1593
a(S'MPI_Finalized()'
p1594
S'26'
p1595
tp1596
asS'espressopp/contrib/mpi4py/mpi4py-1.3/demo/helloworld.f90'
p1597
(lp1598
(S'MPI_Init_thread()'
p1599
S'9'
p1600
tp1601
a(S'MPI_Comm_rank()'
p1602
S'11'
p1603
tp1604
a(S'MPI_Comm_size()'
p1605
S'12'
p1606
tp1607
a(S'MPI_Get_processor_name()'
p1608
S'13'
p1609
tp1610
a(S'MPI_Finalize()'
p1611
S'21'
p1612
tp1613
asS'espressopp/contrib/mpi4py/mpi4py-1.3/demo/wrap-c/helloworld.c'
p1614
(lp1615
(S'MPI_Comm_size()'
p1616
S'15'
p1617
tp1618
a(S'MPI_Comm_rank()'
p1619
S'16'
p1620
tp1621
a(S'MPI_Get_processor_name()'
p1622
S'17'
p1623
tp1624
asS'espressopp/contrib/boost/boost/mpi/exception.hpp'
p1625
(lp1626
(S'MPI_Error_class()'
p1627
S'73'
p1628
tp1629
asS'espressopp/contrib/mpi4py/mpi4py-1.3/demo/spawning/cpi-worker.c'
p1630
(lp1631
(S'MPI_Init()'
p1632
S'10'
p1633
tp1634
a(S'MPI_Comm_get_parent()'
p1635
S'12'
p1636
tp1637
a(S'MPI_Comm_size()'
p1638
S'13'
p1639
tp1640
a(S'MPI_Comm_rank()'
p1641
S'14'
p1642
tp1643
a(S'MPI_Bcast()'
p1644
S'16'
p1645
tp1646
a(S'MPI_Reduce()'
p1647
S'26'
p1648
tp1649
a(S'X_MPI_SUM()'
p1650
S'27'
p1651
tp1652
a(S'MPI_Comm_disconnect()'
p1653
S'29'
p1654
tp1655
a(S'MPI_Finalize()'
p1656
S'31'
p1657
tp1658
as.