ccollections
defaultdict
p0
(c__builtin__
list
p1
tp2
Rp3
S'pubsed/src/transport/spectrum_array.cpp'
p4
(lp5
(S'MPI_average()'
p6
S'86'
p7
tp8
a(S'MPI_Comm_rank()'
p9
S'87'
p10
tp11
a(S'MPI_Comm_size()'
p12
S'88'
p13
tp14
a(S'MPI_Barrier()'
p15
S'113'
p16
tp17
a(S'MPI_Comm_rank()'
p18
S'117'
p19
tp20
a(S'MPI_Comm_size()'
p21
S'118'
p22
tp23
a(S'MPI_Barrier()'
p24
S'134'
p25
tp26
a(S'MPI_Comm_size()'
p27
S'258'
p28
tp29
a(S'MPI_Allreduce()'
p30
S'439'
p31
tp32
a(S'MPI_Allreduce()'
p33
S'448'
p34
tp35
a(S'MPI_Comm_size()'
p36
S'453'
p37
tp38
a(S'MPI_Comm_rank()'
p39
S'454'
p40
tp41
asS'pubsed/src/grid/grid_2D_cyln.cpp'
p42
(lp43
(S'MPI_Comm_rank()'
p44
S'36'
p45
tp46
a(S'MPI_Barrier()'
p47
S'598'
p48
tp49
a(S'MPI_Barrier()'
p50
S'635'
p51
tp52
a(S'MPI_Comm_rank()'
p53
S'643'
p54
tp55
asS'pubsed/src/sandbox/checkpoint/mpicheck.cpp'
p56
(lp57
(S'MPI_Init()'
p58
S'38'
p59
tp60
a(S'MPI_Comm_rank()'
p61
S'42'
p62
tp63
a(S'MPI_Comm_size()'
p64
S'44'
p65
tp66
a(S'MPI_File_open()'
p67
S'63'
p68
tp69
a(S'X_MPI_COMM_WORLD()'
p70
S'64'
p71
tp72
a(S'X_MPI_INFO_NULL()'
p73
S'65'
p74
tp75
a(S'MPI_File_set_view()'
p76
S'66'
p77
tp78
a(S'MPI_File_write_at_all()'
p79
S'68'
p80
tp81
a(S'MPI_File_close()'
p82
S'72'
p83
tp84
a(S'MPI_Finalize()'
p85
S'73'
p86
tp87
asS'pubsed/src/grid/grid_2D_cyln_test.cpp'
p88
(lp89
(S'MPI_Barrier()'
p90
S'62'
p91
tp92
asS'pubsed/src/transport/thread_RNG.cpp'
p93
(lp94
(S'MPI_Comm_rank()'
p95
S'21'
p96
tp97
a(S'MPI_Comm_size()'
p98
S'22'
p99
tp100
a(S'MPI_Comm_rank()'
p101
S'83'
p102
tp103
a(S'MPI_Comm_size()'
p104
S'84'
p105
tp106
a(S'MPI_Barrier()'
p107
S'102'
p108
tp109
a(S'MPI_Barrier()'
p110
S'117'
p111
tp112
a(S'MPI_Comm_rank()'
p113
S'124'
p114
tp115
a(S'MPI_Comm_size()'
p116
S'125'
p117
tp118
a(S'MPI_Bcast()'
p119
S'130'
p120
tp121
a(S'MPI_Barrier()'
p122
S'182'
p123
tp124
asS'pubsed/src/transport/transport_init.cpp'
p125
(lp126
(S'MPI_Comm_size()'
p127
S'433'
p128
tp129
a(S'MPI_Comm_rank()'
p130
S'434'
p131
tp132
asS'pubsed/src/sandbox/nlte_tests/sedona.h'
p133
(lp134
(S'X_MPI_PARALLEL()'
p135
S'10'
p136
tp137
asS'pubsed/src/grid/grid_general.cpp'
p138
(lp139
(S'MPI_Comm_rank()'
p140
S'13'
p141
tp142
a(S'MPI_Comm_size()'
p143
S'14'
p144
tp145
a(S'MPI_Barrier()'
p146
S'123'
p147
tp148
a(S'MPI_Barrier()'
p149
S'289'
p150
tp151
asS'pubsed/src/transport/transport_test.cpp'
p152
(lp153
(S'MPI_Barrier()'
p154
S'14'
p155
tp156
a(S'MPI_Barrier()'
p157
S'83'
p158
tp159
a(S'MPI_Barrier()'
p160
S'91'
p161
tp162
asS'pubsed/src/utils/compute_spectrum.cpp'
p163
(lp164
(S'MPI_Init()'
p165
S'31'
p166
tp167
a(S'MPI_Comm_rank()'
p168
S'33'
p169
tp170
a(S'MPI_Comm_size()'
p171
S'35'
p172
tp173
a(S'MPI_Barrier()'
p174
S'120'
p175
tp176
a(S'MPI_Finalize()'
p177
S'139'
p178
tp179
asS'pubsed/src/opacity/GasState.cpp'
p180
(lp181
(S'MPI_Comm_rank()'
p182
S'43'
p183
tp184
asS'pubsed/src/grid/grid_test.cpp'
p185
(lp186
(S'MPI_Barrier()'
p187
S'11'
p188
tp189
a(S'MPI_Barrier()'
p190
S'141'
p191
tp192
a(S'MPI_Barrier()'
p193
S'149'
p194
tp195
a(S'MPI_Barrier()'
p196
S'186'
p197
tp198
asS'pubsed/src/main/main.cpp'
p199
(lp200
(S'MPI_Init()'
p201
S'11'
p202
tp203
a(S'MPI_Finalize()'
p204
S'26'
p205
tp206
asS'pubsed/src/grid/grid_3D_sphere.cpp'
p207
(lp208
(S'MPI_Comm_rank()'
p209
S'32'
p210
tp211
a(S'MPI_Comm_rank()'
p212
S'743'
p213
tp214
asS'pubsed/src/main/sedona.h'
p215
(lp216
(S'X_MPI_PARALLEL()'
p217
S'10'
p218
tp219
asS'pubsed/src/grid/grid_3D_cart.cpp'
p220
(lp221
(S'MPI_Comm_rank()'
p222
S'32'
p223
tp224
asS'pubsed/src/sandbox/nlte_tests/main.cpp'
p225
(lp226
(S'MPI_Init()'
p227
S'14'
p228
tp229
asS'pubsed/src/grid/grid_1D_sphere.cpp'
p230
(lp231
(S'MPI_Comm_rank()'
p232
S'30'
p233
tp234
a(S'MPI_Comm_rank()'
p235
S'434'
p236
tp237
a(S'MPI_Barrier()'
p238
S'796'
p239
tp240
a(S'MPI_Barrier()'
p241
S'813'
p242
tp243
asS'pubsed/src/grid/grid_1D_sphere_test.cpp'
p244
(lp245
(S'MPI_Barrier()'
p246
S'37'
p247
tp248
asS'pubsed/src/transport/transport_mpi.cpp'
p249
(lp250
(S'MPI_Allreduce()'
p251
S'106'
p252
tp253
a(S'MPI_Allreduce()'
p254
S'134'
p255
tp256
a(S'MPI_Allreduce()'
p257
S'160'
p258
tp259
a(S'MPI_Allreduce()'
p260
S'181'
p261
tp262
a(S'MPI_Allreduce()'
p263
S'189'
p264
tp265
a(S'MPI_Allreduce()'
p266
S'197'
p267
tp268
a(S'MPI_Allreduce()'
p269
S'205'
p270
tp271
a(S'MPI_Allreduce()'
p272
S'238'
p273
tp274
a(S'MPI_Allreduce()'
p275
S'249'
p276
tp277
a(S'MPI_Allreduce()'
p278
S'258'
p279
tp280
a(S'MPI_Allreduce()'
p281
S'267'
p282
tp283
a(S'MPI_Allreduce()'
p284
S'276'
p285
tp286
a(S'MPI_Allreduce()'
p287
S'285'
p288
tp289
a(S'MPI_Allreduce()'
p290
S'313'
p291
tp292
a(S'MPI_Allreduce()'
p293
S'342'
p294
tp295
a(S'MPI_Allreduce()'
p296
S'381'
p297
tp298
a(S'MPI_Allreduce()'
p299
S'397'
p300
tp301
a(S'MPI_Allreduce()'
p302
S'406'
p303
tp304
asS'pubsed/src/main/SedonaClass.cpp'
p305
(lp306
(S'MPI_Comm_rank()'
p307
S'41'
p308
tp309
a(S'MPI_Comm_size()'
p310
S'42'
p311
tp312
a(S'MPI_Barrier()'
p313
S'396'
p314
tp315
a(S'MPI_Bcast()'
p316
S'403'
p317
tp318
a(S'MPI_Barrier()'
p319
S'509'
p320
tp321
a(S'MPI_Barrier()'
p322
S'563'
p323
tp324
a(S'MPI_Wtime()'
p325
S'577'
p326
tp327
asS'pubsed/src/sandbox/testing/test_opacity.cpp'
p328
(lp329
(S'MPI_Init()'
p330
S'20'
p331
tp332
asS'pubsed/src/sandbox/nlte_tests/GasState.cpp'
p333
(lp334
(S'MPI_Comm_rank()'
p335
S'43'
p336
tp337
asS'pubsed/src/grid/grid_3D_octree.cpp'
p338
(lp339
(S'MPI_Comm_rank()'
p340
S'30'
p341
tp342
asS'pubsed/src/opacity/snopac.cpp'
p343
(lp344
(S'MPI_Init()'
p345
S'37'
p346
tp347
a(S'MPI_Comm_rank()'
p348
S'38'
p349
tp350
a(S'MPI_Comm_size()'
p351
S'39'
p352
tp353
a(S'MPI_Finalize()'
p354
S'143'
p355
tp356
asS'pubsed/src/transport/transport_output.cpp'
p357
(lp358
(S'MPI_Gather()'
p359
S'308'
p360
tp361
a(S'MPI_Scatter()'
p362
S'316'
p363
tp364
a(S'MPI_Bcast()'
p365
S'317'
p366
tp367
a(S'MPI_Barrier()'
p368
S'343'
p369
tp370
a(S'MPI_Barrier()'
p371
S'359'
p372
tp373
a(S'MPI_Barrier()'
p374
S'516'
p375
tp376
a(S'MPI_Barrier()'
p377
S'538'
p378
tp379
a(S'MPI_Barrier()'
p380
S'543'
p381
tp382
a(S'MPI_Gather()'
p383
S'544'
p384
tp385
a(S'MPI_Scatter()'
p386
S'552'
p387
tp388
a(S'MPI_Barrier()'
p389
S'553'
p390
tp391
a(S'MPI_Barrier()'
p392
S'581'
p393
tp394
asS'pubsed/src/utils/hdf5check.cpp'
p395
(lp396
(S'MPI_Init()'
p397
S'47'
p398
tp399
a(S'MPI_Comm_rank()'
p400
S'50'
p401
tp402
a(S'MPI_Comm_size()'
p403
S'52'
p404
tp405
a(S'MPI_Finalize()'
p406
S'93'
p407
tp408
as.