ccollections
defaultdict
p0
(c__builtin__
list
p1
tp2
Rp3
S'SPPARKS/src/solve_group.cpp'
p4
(lp5
(S'MPI_Allreduce()'
p6
S'237'
p7
tp8
a(S'MPI_Allreduce()'
p9
S'238'
p10
tp11
a(S'MPI_Allreduce()'
p12
S'239'
p13
tp14
a(S'MPI_Allreduce()'
p15
S'240'
p16
tp17
a(S'MPI_Comm_rank()'
p18
S'243'
p19
tp20
asS'SPPARKS/src/app_erbium.cpp'
p21
(lp22
(S'MPI_Allreduce()'
p23
S'254'
p24
tp25
asS'SPPARKS/src/read_sites.cpp'
p26
(lp27
(S'MPI_Comm_rank()'
p28
S'43'
p29
tp30
a(S'MPI_Bcast()'
p31
S'223'
p32
tp33
a(S'MPI_Bcast()'
p34
S'234'
p35
tp36
a(S'MPI_Bcast()'
p37
S'348'
p38
tp39
a(S'MPI_Bcast()'
p40
S'349'
p41
tp42
a(S'MPI_Barrier()'
p43
S'350'
p44
tp45
a(S'MPI_Allreduce()'
p46
S'389'
p47
tp48
a(S'MPI_Allreduce()'
p49
S'406'
p50
tp51
a(S'MPI_Bcast()'
p52
S'454'
p53
tp54
a(S'MPI_Bcast()'
p55
S'455'
p56
tp57
a(S'MPI_Barrier()'
p58
S'456'
p59
tp60
a(S'MPI_Allreduce()'
p61
S'490'
p62
tp63
a(S'MPI_Bcast()'
p64
S'581'
p65
tp66
a(S'MPI_Bcast()'
p67
S'582'
p68
tp69
a(S'MPI_Barrier()'
p70
S'583'
p71
tp72
a(S'MPI_Bcast()'
p73
S'694'
p74
tp75
a(S'MPI_Bcast()'
p76
S'704'
p77
tp78
a(S'MPI_Bcast()'
p79
S'705'
p80
tp81
asS'SPPARKS/src/diag_array.cpp'
p82
(lp83
(S'MPI_Allreduce()'
p84
S'117'
p85
tp86
a(S'MPI_Allreduce()'
p87
S'151'
p88
tp89
a(S'MPI_Allreduce()'
p90
S'159'
p91
tp92
a(S'MPI_Allreduce()'
p93
S'164'
p94
tp95
a(S'MPI_Allreduce()'
p96
S'181'
p97
tp98
a(S'MPI_Allreduce()'
p99
S'189'
p100
tp101
a(S'MPI_Allreduce()'
p102
S'194'
p103
tp104
asS'SPPARKS/src/app_potts_weld_jom.cpp'
p105
(lp106
(S'MPI_Allreduce()'
p107
S'114'
p108
tp109
asS'SPPARKS/src/app_rpv.cpp'
p110
(lp111
(S'MPI_Allreduce()'
p112
S'501'
p113
tp114
a(S'MPI_Allreduce()'
p115
S'969'
p116
tp117
a(S'MPI_Allreduce()'
p118
S'992'
p119
tp120
a(S'MPI_Allreduce()'
p121
S'1114'
p122
tp123
a(S'MPI_Allreduce()'
p124
S'1138'
p125
tp126
a(S'MPI_Allreduce()'
p127
S'1139'
p128
tp129
a(S'MPI_Allreduce()'
p130
S'1140'
p131
tp132
a(S'MPI_Allreduce()'
p133
S'1141'
p134
tp135
a(S'MPI_Allreduce()'
p136
S'1151'
p137
tp138
a(S'MPI_Allreduce()'
p139
S'1177'
p140
tp141
a(S'MPI_Allreduce()'
p142
S'1227'
p143
tp144
a(S'MPI_Allreduce()'
p145
S'1337'
p146
tp147
a(S'MPI_Allreduce()'
p148
S'1338'
p149
tp150
a(S'MPI_Allreduce()'
p151
S'1347'
p152
tp153
a(S'MPI_Allreduce()'
p154
S'1348'
p155
tp156
asS'SPPARKS/src/main.cpp'
p157
(lp158
(S'MPI_Init()'
p159
S'26'
p160
tp161
a(S'MPI_Finalize()'
p162
S'32'
p163
tp164
asS'SPPARKS/src/diag_sinter_density.cpp'
p165
(lp166
(S'MPI_Allreduce()'
p167
S'92'
p168
tp169
asS'SPPARKS/examples/COUPLE/library/send2one.cpp'
p170
(lp171
(S'MPI_Comm_rank()'
p172
S'13'
p173
tp174
a(S'MPI_Comm_size()'
p175
S'14'
p176
tp177
a(S'MPI_Allreduce()'
p178
S'49'
p179
tp180
a(S'MPI_Irecv()'
p181
S'68'
p182
tp183
a(S'MPI_Send()'
p184
S'69'
p185
tp186
a(S'MPI_Wait()'
p187
S'70'
p188
tp189
a(S'MPI_Get_count()'
p190
S'71'
p191
tp192
a(S'MPI_Recv()'
p193
S'78'
p194
tp195
a(S'MPI_Rsend()'
p196
S'79'
p197
tp198
asS'SPPARKS/src/app_diffusion.cpp'
p199
(lp200
(S'MPI_Allreduce()'
p201
S'262'
p202
tp203
asS'SPPARKS/src/app_potts_weld.cpp'
p204
(lp205
(S'MPI_Allreduce()'
p206
S'167'
p207
tp208
asS'SPPARKS/examples/COUPLE/lammps_spparks/lmpspk.cpp'
p209
(lp210
(S'MPI_Init()'
p211
S'47'
p212
tp213
a(S'MPI_Comm_rank()'
p214
S'51'
p215
tp216
a(S'MPI_Comm_size()'
p217
S'52'
p218
tp219
a(S'MPI_Finalize()'
p220
S'222'
p221
tp222
asS'SPPARKS/examples/COUPLE/library/error.cpp'
p223
(lp224
(S'MPI_Comm_rank()'
p225
S'11'
p226
tp227
a(S'MPI_Finalize()'
p228
S'21'
p229
tp230
a(S'MPI_Abort()'
p231
S'32'
p232
tp233
asS'SPPARKS/src/dump.cpp'
p234
(lp235
(S'MPI_Comm_rank()'
p236
S'39'
p237
tp238
a(S'MPI_Comm_size()'
p239
S'40'
p240
tp241
a(S'MPI_Comm_split()'
p242
S'88'
p243
tp244
a(S'MPI_Allreduce()'
p245
S'216'
p246
tp247
a(S'MPI_Allreduce()'
p248
S'217'
p249
tp250
a(S'MPI_Allreduce()'
p251
S'259'
p252
tp253
a(S'MPI_Allreduce()'
p254
S'274'
p255
tp256
a(S'MPI_Irecv()'
p257
S'318'
p258
tp259
a(S'MPI_Send()'
p260
S'319'
p261
tp262
a(S'MPI_Wait()'
p263
S'320'
p264
tp265
a(S'MPI_Get_count()'
p266
S'321'
p267
tp268
a(S'MPI_Recv()'
p269
S'330'
p270
tp271
a(S'MPI_Rsend()'
p272
S'331'
p273
tp274
a(S'MPI_Allreduce()'
p275
S'472'
p276
tp277
a(S'MPI_Allreduce()'
p278
S'473'
p279
tp280
a(S'MPI_Allreduce()'
p281
S'494'
p282
tp283
a(S'MPI_Allreduce()'
p284
S'495'
p285
tp286
a(S'MPI_Allreduce()'
p287
S'543'
p288
tp289
a(S'MPI_Allreduce()'
p290
S'563'
p291
tp292
a(S'MPI_Comm_free()'
p293
S'673'
p294
tp295
a(S'MPI_Comm_split()'
p296
S'674'
p297
tp298
a(S'MPI_Comm_free()'
p299
S'735'
p300
tp301
a(S'MPI_Comm_split()'
p302
S'736'
p303
tp304
asS'SPPARKS/src/library.cpp'
p305
(lp306
(S'MPI_Initialized()'
p307
S'48'
p308
tp309
a(S'MPI_Init()'
p310
S'53'
p311
tp312
a(S'MPI_Allreduce()'
p313
S'141'
p314
tp315
asS'SPPARKS/src/app_sinter.cpp'
p316
(lp317
(S'MPI_Allreduce()'
p318
S'438'
p319
tp320
a(S'MPI_Allreduce()'
p321
S'1002'
p322
tp323
a(S'MPI_Allreduce()'
p324
S'1016'
p325
tp326
a(S'MPI_Allgather()'
p327
S'1453'
p328
tp329
a(S'MPI_Allgatherv()'
p330
S'1461'
p331
tp332
a(S'MPI_Allreduce()'
p333
S'1477'
p334
tp335
a(S'MPI_Allgather()'
p336
S'1653'
p337
tp338
a(S'MPI_Allgatherv()'
p339
S'1660'
p340
tp341
a(S'MPI_Send()'
p342
S'1774'
p343
tp344
a(S'MPI_Recv()'
p345
S'1779'
p346
tp347
a(S'MPI_Recv()'
p348
S'1787'
p349
tp350
a(S'MPI_Reduce()'
p351
S'1925'
p352
tp353
a(S'MPI_Irecv()'
p354
S'1942'
p355
tp356
a(S'MPI_Send()'
p357
S'1943'
p358
tp359
a(S'MPI_Wait()'
p360
S'1944'
p361
tp362
a(S'MPI_Get_count()'
p363
S'1945'
p364
tp365
a(S'MPI_Recv()'
p366
S'2013'
p367
tp368
a(S'MPI_Rsend()'
p369
S'2014'
p370
tp371
a(S'MPI_Bcast()'
p372
S'2023'
p373
tp374
a(S'MPI_Reduce()'
p375
S'2109'
p376
tp377
a(S'MPI_Irecv()'
p378
S'2134'
p379
tp380
a(S'MPI_Send()'
p381
S'2135'
p382
tp383
a(S'MPI_Wait()'
p384
S'2136'
p385
tp386
a(S'MPI_Get_count()'
p387
S'2137'
p388
tp389
a(S'MPI_Recv()'
p390
S'2205'
p391
tp392
a(S'MPI_Rsend()'
p393
S'2206'
p394
tp395
a(S'MPI_Bcast()'
p396
S'2215'
p397
tp398
a(S'MPI_Gather()'
p399
S'2418'
p400
tp401
a(S'MPI_Gatherv()'
p402
S'2437'
p403
tp404
a(S'MPI_Gatherv()'
p405
S'2444'
p406
tp407
a(S'MPI_Bcast()'
p408
S'2476'
p409
tp410
a(S'MPI_Bcast()'
p411
S'2481'
p412
tp413
a(S'MPI_Bcast()'
p414
S'2482'
p415
tp416
a(S'MPI_Allreduce()'
p417
S'2528'
p418
tp419
a(S'MPI_Allreduce()'
p420
S'2529'
p421
tp422
a(S'MPI_Allreduce()'
p423
S'2540'
p424
tp425
a(S'MPI_Allreduce()'
p426
S'2567'
p427
tp428
a(S'MPI_Allreduce()'
p429
S'2587'
p430
tp431
a(S'MPI_Allreduce()'
p432
S'2627'
p433
tp434
asS'SPPARKS/src/error.cpp'
p435
(lp436
(S'MPI_Barrier()'
p437
S'33'
p438
tp439
a(S'MPI_Finalize()'
p440
S'49'
p441
tp442
a(S'MPI_Abort()'
p443
S'63'
p444
tp445
a(S'MPI_Barrier()'
p446
S'75'
p447
tp448
a(S'MPI_Comm_rank()'
p449
S'78'
p450
tp451
a(S'MPI_Finalize()'
p452
S'90'
p453
tp454
a(S'MPI_Comm_rank()'
p455
S'104'
p456
tp457
a(S'MPI_Abort()'
p458
S'110'
p459
tp460
a(S'MPI_Barrier()'
p461
S'144'
p462
tp463
a(S'MPI_Finalize()'
p464
S'150'
p465
tp466
asS'SPPARKS/src/input.cpp'
p467
(lp468
(S'MPI_Comm_rank()'
p469
S'46'
p470
tp471
a(S'MPI_Bcast()'
p472
S'139'
p473
tp474
a(S'MPI_Bcast()'
p475
S'146'
p476
tp477
a(S'MPI_Bcast()'
p478
S'152'
p479
tp480
asS'SPPARKS/src/comm_lattice.cpp'
p481
(lp482
(S'MPI_Comm_rank()'
p483
S'34'
p484
tp485
a(S'MPI_Comm_size()'
p486
S'35'
p487
tp488
a(S'MPI_Allreduce()'
p489
S'212'
p490
tp491
a(S'MPI_Allreduce()'
p492
S'286'
p493
tp494
a(S'MPI_Allreduce()'
p495
S'359'
p496
tp497
a(S'MPI_Allreduce()'
p498
S'434'
p499
tp500
a(S'MPI_Irecv()'
p501
S'511'
p502
tp503
a(S'MPI_Send()'
p504
S'512'
p505
tp506
a(S'MPI_Wait()'
p507
S'513'
p508
tp509
a(S'MPI_Get_count()'
p510
S'514'
p511
tp512
a(S'MPI_Irecv()'
p513
S'718'
p514
tp515
a(S'MPI_Send()'
p516
S'719'
p517
tp518
a(S'MPI_Wait()'
p519
S'720'
p520
tp521
a(S'MPI_Get_count()'
p522
S'721'
p523
tp524
a(S'MPI_Irecv()'
p525
S'917'
p526
tp527
a(S'MPI_Send()'
p528
S'927'
p529
tp530
a(S'MPI_Irecv()'
p531
S'957'
p532
tp533
a(S'MPI_Send()'
p534
S'970'
p535
tp536
a(S'MPI_Irecv()'
p537
S'1004'
p538
tp539
a(S'MPI_Send()'
p540
S'1017'
p541
tp542
a(S'MPI_Irecv()'
p543
S'1052'
p544
tp545
a(S'MPI_Send()'
p546
S'1069'
p547
tp548
asS'SPPARKS/src/app.cpp'
p549
(lp550
(S'MPI_Allreduce()'
p551
S'205'
p552
tp553
a(S'MPI_Allreduce()'
p554
S'219'
p555
tp556
a(S'MPI_Allreduce()'
p557
S'238'
p558
tp559
a(S'MPI_Allreduce()'
p560
S'240'
p561
tp562
asS'SPPARKS/src/domain.cpp'
p563
(lp564
(S'MPI_Comm_rank()'
p565
S'31'
p566
tp567
a(S'MPI_Comm_size()'
p568
S'32'
p569
tp570
asS'SPPARKS/src/image.cpp'
p571
(lp572
(S'MPI_Comm_rank()'
p573
S'52'
p574
tp575
a(S'MPI_Comm_size()'
p576
S'53'
p577
tp578
a(S'MPI_Allreduce()'
p579
S'288'
p580
tp581
a(S'MPI_Irecv()'
p582
S'354'
p583
tp584
a(S'MPI_Irecv()'
p585
S'355'
p586
tp587
a(S'MPI_Irecv()'
p588
S'357'
p589
tp590
a(S'MPI_Send()'
p591
S'377'
p592
tp593
a(S'MPI_Send()'
p594
S'378'
p595
tp596
a(S'MPI_Bcast()'
p597
S'391'
p598
tp599
a(S'MPI_Bcast()'
p600
S'392'
p601
tp602
a(S'MPI_Bcast()'
p603
S'393'
p604
tp605
a(S'MPI_Gather()'
p606
S'396'
p607
tp608
asS'SPPARKS/src/spparks.cpp'
p609
(lp610
(S'MPI_Comm_split()'
p611
S'172'
p612
tp613
a(S'MPI_Comm_rank()'
p614
S'173'
p615
tp616
a(S'MPI_Type_size()'
p617
S'253'
p618
tp619
a(S'MPI_Type_size()'
p620
S'257'
p621
tp622
asS'SPPARKS/examples/COUPLE/library/many2one.cpp'
p623
(lp624
(S'MPI_Comm_rank()'
p625
S'12'
p626
tp627
a(S'MPI_Comm_size()'
p628
S'13'
p629
tp630
a(S'MPI_Allreduce()'
p631
S'46'
p632
tp633
a(S'MPI_Gather()'
p634
S'47'
p635
tp636
a(S'MPI_Gatherv()'
p637
S'60'
p638
tp639
a(S'MPI_Gatherv()'
p640
S'81'
p641
tp642
a(S'X_MPI_DOUBLE()'
p643
S'82'
p644
tp645
asS'SPPARKS/src/app_membrane.cpp'
p646
(lp647
(S'MPI_Allreduce()'
p648
S'128'
p649
tp650
asS'SPPARKS/src/app_potts_strain.cpp'
p651
(lp652
(S'MPI_Allreduce()'
p653
S'76'
p654
tp655
asS'SPPARKS/src/create_sites.cpp'
p656
(lp657
(S'MPI_Allreduce()'
p658
S'358'
p659
tp660
a(S'MPI_Allreduce()'
p661
S'601'
p662
tp663
a(S'MPI_Allreduce()'
p664
S'685'
p665
tp666
a(S'MPI_Irecv()'
p667
S'713'
p668
tp669
a(S'MPI_Send()'
p670
S'714'
p671
tp672
a(S'MPI_Wait()'
p673
S'715'
p674
tp675
a(S'MPI_Get_count()'
p676
S'716'
p677
tp678
a(S'MPI_Allreduce()'
p679
S'827'
p680
tp681
a(S'MPI_Allreduce()'
p682
S'1003'
p683
tp684
a(S'MPI_Irecv()'
p685
S'1022'
p686
tp687
a(S'MPI_Send()'
p688
S'1023'
p689
tp690
a(S'MPI_Wait()'
p691
S'1024'
p692
tp693
a(S'MPI_Get_count()'
p694
S'1025'
p695
tp696
asS'SPPARKS/src/diag_rpv.cpp'
p697
(lp698
(S'MPI_Allreduce()'
p699
S'242'
p700
tp701
a(S'MPI_Allreduce()'
p702
S'243'
p703
tp704
asS'SPPARKS/src/set.cpp'
p705
(lp706
(S'MPI_Allreduce()'
p707
S'214'
p708
tp709
asS'SPPARKS/src/diag_diffusion.cpp'
p710
(lp711
(S'MPI_Allreduce()'
p712
S'48'
p713
tp714
a(S'MPI_Allreduce()'
p715
S'49'
p716
tp717
asS'SPPARKS/src/shell.cpp'
p718
(lp719
(S'MPI_Comm_rank()'
p720
S'34'
p721
tp722
asS'SPPARKS/examples/COUPLE/library/many2many.cpp'
p723
(lp724
(S'MPI_Comm_rank()'
p725
S'16'
p726
tp727
a(S'MPI_Comm_size()'
p728
S'17'
p729
tp730
a(S'MPI_Allreduce()'
p731
S'93'
p732
tp733
asS'SPPARKS/src/app_lattice.cpp'
p734
(lp735
(S'MPI_Comm_rank()'
p736
S'44'
p737
tp738
a(S'MPI_Comm_size()'
p739
S'45'
p740
tp741
a(S'MPI_Allreduce()'
p742
S'369'
p743
tp744
a(S'MPI_Allreduce()'
p745
S'414'
p746
tp747
a(S'MPI_Allreduce()'
p748
S'630'
p749
tp750
a(S'MPI_Allreduce()'
p751
S'893'
p752
tp753
a(S'MPI_Allreduce()'
p754
S'900'
p755
tp756
a(S'MPI_Allreduce()'
p757
S'1368'
p758
tp759
a(S'MPI_Allreduce()'
p760
S'1369'
p761
tp762
a(S'MPI_Allreduce()'
p763
S'1377'
p764
tp765
asS'SPPARKS/examples/COUPLE/library/irregular.cpp'
p766
(lp767
(S'MPI_Comm_rank()'
p768
S'18'
p769
tp770
a(S'MPI_Comm_size()'
p771
S'19'
p772
tp773
a(S'MPI_Reduce_scatter()'
p774
S'69'
p775
tp776
a(S'MPI_Irecv()'
p777
S'120'
p778
tp779
a(S'MPI_Barrier()'
p780
S'124'
p781
tp782
a(S'MPI_Send()'
p783
S'129'
p784
tp785
a(S'MPI_Irecv()'
p786
S'264'
p787
tp788
a(S'MPI_Barrier()'
p789
S'275'
p790
tp791
a(S'MPI_Send()'
p792
S'286'
p793
tp794
a(S'MPI_Irecv()'
p795
S'319'
p796
tp797
a(S'MPI_Barrier()'
p798
S'330'
p799
tp800
a(S'MPI_Send()'
p801
S'343'
p802
tp803
asS'SPPARKS/src/app_potts_pin.cpp'
p804
(lp805
(S'MPI_Allreduce()'
p806
S'78'
p807
tp808
a(S'MPI_Allreduce()'
p809
S'279'
p810
tp811
a(S'MPI_Allreduce()'
p812
S'324'
p813
tp814
a(S'MPI_Bcast()'
p815
S'327'
p816
tp817
a(S'MPI_Allreduce()'
p818
S'336'
p819
tp820
asS'SPPARKS/src/app_potts_strain_pin.cpp'
p821
(lp822
(S'MPI_Allreduce()'
p823
S'102'
p824
tp825
a(S'MPI_Allreduce()'
p826
S'277'
p827
tp828
a(S'MPI_Allreduce()'
p829
S'322'
p830
tp831
a(S'MPI_Bcast()'
p832
S'325'
p833
tp834
a(S'MPI_Allreduce()'
p835
S'334'
p836
tp837
asS'SPPARKS/src/app_potts_neighonly.cpp'
p838
(lp839
(S'MPI_Allreduce()'
p840
S'56'
p841
tp842
asS'SPPARKS/src/comm_off_lattice.cpp'
p843
(lp844
(S'MPI_Comm_rank()'
p845
S'31'
p846
tp847
a(S'MPI_Comm_size()'
p848
S'32'
p849
tp850
a(S'MPI_Reduce_scatter()'
p851
S'433'
p852
tp853
a(S'MPI_Send()'
p854
S'449'
p855
tp856
a(S'MPI_Recv()'
p857
S'452'
p858
tp859
a(S'MPI_Barrier()'
p860
S'474'
p861
tp862
a(S'MPI_Irecv()'
p863
S'486'
p864
tp865
a(S'MPI_Barrier()'
p866
S'489'
p867
tp868
a(S'MPI_Send()'
p869
S'492'
p870
tp871
a(S'MPI_Irecv()'
p872
S'593'
p873
tp874
a(S'MPI_Barrier()'
p875
S'598'
p876
tp877
a(S'MPI_Send()'
p878
S'624'
p879
tp880
a(S'MPI_Irecv()'
p881
S'694'
p882
tp883
a(S'MPI_Barrier()'
p884
S'701'
p885
tp886
a(S'MPI_Send()'
p887
S'731'
p888
tp889
a(S'MPI_Irecv()'
p890
S'836'
p891
tp892
a(S'MPI_Barrier()'
p893
S'841'
p894
tp895
a(S'MPI_Send()'
p896
S'870'
p897
tp898
a(S'MPI_Irecv()'
p899
S'939'
p900
tp901
a(S'MPI_Barrier()'
p902
S'946'
p903
tp904
a(S'MPI_Send()'
p905
S'974'
p906
tp907
asS'SPPARKS/src/app_off_lattice.cpp'
p908
(lp909
(S'MPI_Comm_rank()'
p910
S'45'
p911
tp912
a(S'MPI_Comm_size()'
p913
S'46'
p914
tp915
a(S'MPI_Allreduce()'
p916
S'277'
p917
tp918
a(S'MPI_Allreduce()'
p919
S'461'
p920
tp921
a(S'MPI_Barrier()'
p922
S'611'
p923
tp924
a(S'MPI_Barrier()'
p925
S'701'
p926
tp927
a(S'MPI_Allreduce()'
p928
S'778'
p929
tp930
a(S'MPI_Allreduce()'
p931
S'785'
p932
tp933
asS'SPPARKS/src/app_potts_grad.cpp'
p934
(lp935
(S'MPI_Allreduce()'
p936
S'136'
p937
tp938
a(S'MPI_Allreduce()'
p939
S'163'
p940
tp941
a(S'MPI_Allreduce()'
p942
S'176'
p943
tp944
asS'SPPARKS/src/app_potts_phasefield.cpp'
p945
(lp946
(S'MPI_Allreduce()'
p947
S'494'
p948
tp949
a(S'X_MPI_INT()'
p950
S'496'
p951
tp952
asS'SPPARKS/src/variable.cpp'
p953
(lp954
(S'MPI_Comm_rank()'
p955
S'42'
p956
tp957
a(S'MPI_Bcast()'
p958
S'305'
p959
tp960
asS'SPPARKS/src/irregular.cpp'
p961
(lp962
(S'MPI_Comm_rank()'
p963
S'38'
p964
tp965
a(S'MPI_Comm_size()'
p966
S'39'
p967
tp968
a(S'MPI_Reduce_scatter()'
p969
S'107'
p970
tp971
a(S'MPI_Send()'
p972
S'182'
p973
tp974
a(S'MPI_Recv()'
p975
S'193'
p976
tp977
a(S'MPI_Barrier()'
p978
S'228'
p979
tp980
a(S'MPI_Irecv()'
p981
S'265'
p982
tp983
a(S'MPI_Send()'
p984
S'289'
p985
tp986
asS'SPPARKS/src/app_potts_neigh.cpp'
p987
(lp988
(S'MPI_Allreduce()'
p989
S'56'
p990
tp991
asS'SPPARKS/src/timer.cpp'
p992
(lp993
(S'MPI_Wtime()'
p994
S'47'
p995
tp996
a(S'MPI_Barrier()'
p997
S'65'
p998
tp999
a(S'MPI_Barrier()'
p1000
S'73'
p1001
tp1002
asS'SPPARKS/src/diag_erbium.cpp'
p1003
(lp1004
(S'MPI_Allreduce()'
p1005
S'140'
p1006
tp1007
asS'SPPARKS/src/diag.cpp'
p1008
(lp1009
(S'MPI_Comm_rank()'
p1010
S'31'
p1011
tp1012
a(S'MPI_Comm_size()'
p1013
S'32'
p1014
tp1015
asS'SPPARKS/src/app_ising.cpp'
p1016
(lp1017
(S'MPI_Allreduce()'
p1018
S'84'
p1019
tp1020
asS'SPPARKS/src/diag_sinter_free_energy.cpp'
p1021
(lp1022
(S'MPI_Allreduce()'
p1023
S'70'
p1024
tp1025
asS'SPPARKS/src/diag_energy.cpp'
p1026
(lp1027
(S'MPI_Allreduce()'
p1028
S'61'
p1029
tp1030
asS'SPPARKS/src/universe.cpp'
p1031
(lp1032
(S'MPI_Comm_rank()'
p1033
S'32'
p1034
tp1035
a(S'MPI_Comm_size()'
p1036
S'33'
p1037
tp1038
asS'SPPARKS/src/spktype.h'
p1039
(lp1040
(S'X_MPI_SPK_TAGINT()'
p1041
S'62'
p1042
tp1043
a(S'X_MPI_SPK_BIGINT()'
p1044
S'63'
p1045
tp1046
a(S'X_MPI_SPK_TAGINT()'
p1047
S'86'
p1048
tp1049
a(S'X_MPI_SPK_BIGINT()'
p1050
S'87'
p1051
tp1052
a(S'X_MPI_SPK_TAGINT()'
p1053
S'110'
p1054
tp1055
a(S'X_MPI_SPK_BIGINT()'
p1056
S'111'
p1057
tp1058
asS'SPPARKS/src/app_relax.cpp'
p1059
(lp1060
(S'MPI_Allreduce()'
p1061
S'79'
p1062
tp1063
asS'SPPARKS/examples/COUPLE/library/one2many.cpp'
p1064
(lp1065
(S'MPI_Comm_rank()'
p1066
S'12'
p1067
tp1068
a(S'MPI_Comm_size()'
p1069
S'13'
p1070
tp1071
a(S'MPI_Bcast()'
p1072
S'56'
p1073
tp1074
asS'SPPARKS/src/output.cpp'
p1075
(lp1076
(S'MPI_Comm_rank()'
p1077
S'36'
p1078
tp1079
a(S'MPI_Comm_size()'
p1080
S'37'
p1081
tp1082
asS'SPPARKS/src/finish.cpp'
p1083
(lp1084
(S'MPI_Comm_rank()'
p1085
S'30'
p1086
tp1087
a(S'MPI_Comm_size()'
p1088
S'31'
p1089
tp1090
a(S'MPI_Allreduce()'
p1091
S'41'
p1092
tp1093
a(S'MPI_Allreduce()'
p1094
S'67'
p1095
tp1096
a(S'MPI_Allreduce()'
p1097
S'77'
p1098
tp1099
a(S'MPI_Allreduce()'
p1100
S'87'
p1101
tp1102
a(S'MPI_Allreduce()'
p1103
S'97'
p1104
tp1105
a(S'MPI_Allreduce()'
p1106
S'107'
p1107
tp1108
a(S'MPI_Allreduce()'
p1109
S'117'
p1110
tp1111
a(S'MPI_Allreduce()'
p1112
S'146'
p1113
tp1114
a(S'MPI_Allreduce()'
p1115
S'148'
p1116
tp1117
a(S'MPI_Allreduce()'
p1118
S'150'
p1119
tp1120
a(S'MPI_Allreduce()'
p1121
S'152'
p1122
tp1123
a(S'MPI_Allreduce()'
p1124
S'167'
p1125
tp1126
asS'SPPARKS/src/diag_cluster.cpp'
p1127
(lp1128
(S'MPI_Allreduce()'
p1129
S'334'
p1130
tp1131
a(S'MPI_Scan()'
p1132
S'339'
p1133
tp1134
a(S'MPI_Allreduce()'
p1135
S'375'
p1136
tp1137
a(S'MPI_Irecv()'
p1138
S'405'
p1139
tp1140
a(S'MPI_Send()'
p1141
S'406'
p1142
tp1143
a(S'MPI_Wait()'
p1144
S'407'
p1145
tp1146
a(S'MPI_Get_count()'
p1147
S'408'
p1148
tp1149
a(S'MPI_Recv()'
p1150
S'427'
p1151
tp1152
a(S'MPI_Rsend()'
p1153
S'428'
p1154
tp1155
a(S'MPI_Allreduce()'
p1156
S'633'
p1157
tp1158
a(S'MPI_Irecv()'
p1159
S'659'
p1160
tp1161
a(S'MPI_Send()'
p1162
S'660'
p1163
tp1164
a(S'MPI_Wait()'
p1165
S'661'
p1166
tp1167
a(S'MPI_Get_count()'
p1168
S'662'
p1169
tp1170
a(S'MPI_Recv()'
p1171
S'690'
p1172
tp1173
a(S'MPI_Rsend()'
p1174
S'691'
p1175
tp1176
asS'SPPARKS/src/diag_propensity.cpp'
p1177
(lp1178
(S'MPI_Allreduce()'
p1179
S'54'
p1180
tp1181
asS'SPPARKS/src/app_potts_additive.cpp'
p1182
(lp1183
(S'MPI_Allreduce()'
p1184
S'195'
p1185
tp1186
asS'SPPARKS/src/diag_sinter_free_energy_pore.cpp'
p1187
(lp1188
(S'MPI_Allreduce()'
p1189
S'96'
p1190
tp1191
asS'SPPARKS/src/app_potts.cpp'
p1192
(lp1193
(S'MPI_Allreduce()'
p1194
S'85'
p1195
tp1196
asS'SPPARKS/src/STUBS/mpi.h'
p1197
(lp1198
(S'X_MPI_COMM_WORLD()'
p1199
S'19'
p1200
tp1201
a(S'X_MPI_SUCCESS()'
p1202
S'21'
p1203
tp1204
a(S'X_MPI_INT()'
p1205
S'23'
p1206
tp1207
a(S'X_MPI_FLOAT()'
p1208
S'24'
p1209
tp1210
a(S'X_MPI_DOUBLE()'
p1211
S'25'
p1212
tp1213
a(S'X_MPI_CHAR()'
p1214
S'26'
p1215
tp1216
a(S'X_MPI_BYTE()'
p1217
S'27'
p1218
tp1219
a(S'X_MPI_LONG_LONG()'
p1220
S'28'
p1221
tp1222
a(S'X_MPI_DOUBLE_INT()'
p1223
S'29'
p1224
tp1225
a(S'X_MPI_SUM()'
p1226
S'31'
p1227
tp1228
a(S'X_MPI_MAX()'
p1229
S'32'
p1230
tp1231
a(S'X_MPI_MIN()'
p1232
S'33'
p1233
tp1234
a(S'X_MPI_MAXLOC()'
p1235
S'34'
p1236
tp1237
a(S'X_MPI_MINLOC()'
p1238
S'35'
p1239
tp1240
a(S'X_MPI_LOR()'
p1241
S'36'
p1242
tp1243
a(S'X_MPI_ANY_SOURCE()'
p1244
S'38'
p1245
tp1246
a(S'X_MPI_Comm()'
p1247
S'40'
p1248
tp1249
a(S'X_MPI_Request()'
p1250
S'41'
p1251
tp1252
a(S'X_MPI_Datatype()'
p1253
S'42'
p1254
tp1255
a(S'X_MPI_Op()'
p1256
S'43'
p1257
tp1258
a(S'X_MPI_MAX_PROCESSOR_NAME()'
p1259
S'45'
p1260
tp1261
as.