ccollections
defaultdict
p0
(c__builtin__
list
p1
tp2
Rp3
S'abacus-develop/ABACUS.develop/source/src_external/src_pdiag/pdsyg2st.cpp'
p4
(lp5
(S'MPI_Cart_get()'
p6
S'77'
p7
tp8
a(S'MPI_Comm_free()'
p9
S'104'
p10
tp11
a(S'MPI_Comm_free()'
p12
S'105'
p13
tp14
a(S'MPI_Barrier()'
p15
S'111'
p16
tp17
a(S'MPI_Bcast()'
p18
S'142'
p19
tp20
a(S'MPI_Bcast()'
p21
S'143'
p22
tp23
a(S'MPI_Bcast()'
p24
S'187'
p25
tp26
a(S'MPI_Bcast()'
p27
S'188'
p28
tp29
a(S'MPI_Cart_rank()'
p30
S'201'
p31
tp32
a(S'MPI_Cart_rank()'
p33
S'209'
p34
tp35
a(S'MPI_Send()'
p36
S'236'
p37
tp38
a(S'MPI_Send()'
p39
S'237'
p40
tp41
a(S'MPI_Recv()'
p42
S'241'
p43
tp44
a(S'MPI_Recv()'
p45
S'242'
p46
tp47
a(S'MPI_Bcast()'
p48
S'251'
p49
tp50
a(S'MPI_Bcast()'
p51
S'252'
p52
tp53
a(S'MPI_Bcast()'
p54
S'319'
p55
tp56
a(S'MPI_Bcast()'
p57
S'320'
p58
tp59
a(S'MPI_Bcast()'
p60
S'361'
p61
tp62
a(S'MPI_Bcast()'
p63
S'362'
p64
tp65
a(S'MPI_Barrier()'
p66
S'365'
p67
tp68
a(S'MPI_Cart_rank()'
p69
S'376'
p70
tp71
a(S'MPI_Cart_rank()'
p72
S'384'
p73
tp74
a(S'MPI_Send()'
p75
S'407'
p76
tp77
a(S'MPI_Send()'
p78
S'408'
p79
tp80
a(S'MPI_Recv()'
p81
S'412'
p82
tp83
a(S'MPI_Recv()'
p84
S'413'
p85
tp86
a(S'MPI_Bcast()'
p87
S'422'
p88
tp89
a(S'MPI_Barrier()'
p90
S'423'
p91
tp92
a(S'MPI_Bcast()'
p93
S'424'
p94
tp95
a(S'MPI_Barrier()'
p96
S'425'
p97
tp98
a(S'MPI_Comm_free()'
p99
S'459'
p100
tp101
a(S'MPI_Comm_free()'
p102
S'460'
p103
tp104
asS'abacus-develop/ABACUS.develop/source/src_global/mathzone.cpp'
p105
(lp106
(S'MPI_Barrier()'
p107
S'1297'
p108
tp109
a(S'MPI_Barrier()'
p110
S'1325'
p111
tp112
asS'abacus-develop/ABACUS.develop/source/src_pw/chi0_standard.cpp'
p113
(lp114
(S'MPI_Allgather()'
p115
S'316'
p116
tp117
a(S'MPI_Allgatherv()'
p118
S'341'
p119
tp120
a(S'MPI_Allgatherv()'
p121
S'342'
p122
tp123
a(S'MPI_Allgatherv()'
p124
S'596'
p125
tp126
asS'abacus-develop/ABACUS.develop/source/src_lcao/gint_speed.cpp'
p127
(lp128
(S'MPI_Barrier()'
p129
S'248'
p130
tp131
asS'abacus-develop/ABACUS.develop/source/src_pw/energy.cpp'
p132
(lp133
(S'MPI_Allreduce()'
p134
S'804'
p135
tp136
a(S'MPI_Reduce()'
p137
S'1181'
p138
tp139
asS'abacus-develop/ABACUS.develop/source/src_pw/mdNVT.cpp'
p140
(lp141
(S'MPI_Bcast()'
p142
S'302'
p143
tp144
a(S'MPI_Bcast()'
p145
S'303'
p146
tp147
a(S'MPI_Bcast()'
p148
S'304'
p149
tp150
a(S'MPI_Bcast()'
p151
S'305'
p152
tp153
a(S'MPI_Bcast()'
p154
S'306'
p155
tp156
asS'abacus-develop/ABACUS.develop/source/src_external/src_pdiag/pdiag_common.cpp'
p157
(lp158
(S'MPI_Cart_get()'
p159
S'17'
p160
tp161
a(S'MPI_Cart_sub()'
p162
S'28'
p163
tp164
a(S'MPI_Cart_sub()'
p165
S'37'
p166
tp167
asS'abacus-develop/ABACUS.develop/tools/SIAB/SimulatedAnnealing/source/src_parallel/parallel_kpoints.cpp'
p168
(lp169
(S'MPI_Barrier()'
p170
S'65'
p171
tp172
a(S'MPI_Comm_split()'
p173
S'133'
p174
tp175
a(S'MPI_Send()'
p176
S'222'
p177
tp178
a(S'MPI_Recv()'
p179
S'234'
p180
tp181
a(S'MPI_Barrier()'
p182
S'237'
p183
tp184
a(S'MPI_Send()'
p185
S'269'
p186
tp187
a(S'MPI_Recv()'
p188
S'288'
p189
tp190
asS'abacus-develop/ABACUS.develop/tools/SIAB/SimulatedAnnealing/backup_old_version/1_Source/src_spillage/common.cpp'
p191
(lp192
(S'MPI_Finalize()'
p193
S'115'
p194
tp195
asS'abacus-develop/ABACUS.develop/source/src_lcao/dftu.cpp'
p196
(lp197
(S'MPI_Allreduce()'
p198
S'321'
p199
tp200
a(S'MPI_Allreduce()'
p201
S'468'
p202
tp203
a(S'X_MPI_DOUBLE_COMPLEX()'
p204
S'469'
p205
tp206
a(S'MPI_Allreduce()'
p207
S'473'
p208
tp209
a(S'X_MPI_DOUBLE_COMPLEX()'
p210
S'474'
p211
tp212
a(S'MPI_Allreduce()'
p213
S'476'
p214
tp215
a(S'X_MPI_DOUBLE_COMPLEX()'
p216
S'477'
p217
tp218
a(S'MPI_Allreduce()'
p219
S'669'
p220
tp221
a(S'MPI_Allreduce()'
p222
S'770'
p223
tp224
a(S'X_MPI_DOUBLE()'
p225
S'771'
p226
tp227
a(S'MPI_Bcast()'
p228
S'1063'
p229
tp230
a(S'MPI_Allreduce()'
p231
S'1744'
p232
tp233
a(S'MPI_Allreduce()'
p234
S'1849'
p235
tp236
a(S'MPI_Allreduce()'
p237
S'1852'
p238
tp239
a(S'MPI_Allreduce()'
p240
S'2061'
p241
tp242
a(S'MPI_Allreduce()'
p243
S'2165'
p244
tp245
a(S'MPI_Allreduce()'
p246
S'2537'
p247
tp248
a(S'MPI_Allreduce()'
p249
S'2538'
p250
tp251
asS'abacus-develop/ABACUS.develop/source/src_pw/dos.cpp'
p252
(lp253
(S'MPI_Barrier()'
p254
S'165'
p255
tp256
a(S'MPI_Barrier()'
p257
S'321'
p258
tp259
a(S'MPI_Barrier()'
p260
S'348'
p261
tp262
a(S'MPI_Barrier()'
p263
S'372'
p264
tp265
a(S'MPI_Barrier()'
p266
S'393'
p267
tp268
asS'abacus-develop/ABACUS.develop/source/src_global/global_function.cpp'
p269
(lp270
(S'MPI_Barrier()'
p271
S'108'
p272
tp273
a(S'MPI_Finalize()'
p274
S'144'
p275
tp276
a(S'MPI_Bcast()'
p277
S'423'
p278
tp279
asS'abacus-develop/ABACUS.develop/source/src_external/src_pdiag/pzgseps.cpp'
p280
(lp281
(S'MPI_Cart_get()'
p282
S'24'
p283
tp284
asS'abacus-develop/ABACUS.develop/source/src_external/src_pdiag/MRRR/dstemr_mpi.cpp'
p285
(lp286
(S'MPI_Comm_size()'
p287
S'173'
p288
tp289
a(S'MPI_Comm_rank()'
p290
S'174'
p291
tp292
a(S'MPI_Barrier()'
p293
S'474'
p294
tp295
a(S'MPI_Send()'
p296
S'576'
p297
tp298
a(S'MPI_Recv()'
p299
S'581'
p300
tp301
a(S'MPI_Send()'
p302
S'716'
p303
tp304
a(S'MPI_Recv()'
p305
S'721'
p306
tp307
asS'abacus-develop/ABACUS.develop/tools/SIAB/SimulatedAnnealing/backup_old_version/1_Source/src_spillage/main.cpp'
p308
(lp309
(S'MPI_Finalize()'
p310
S'91'
p311
tp312
asS'abacus-develop/ABACUS.develop/source/src_pw/unitcell_pseudo.cpp'
p313
(lp314
(S'MPI_Barrier()'
p315
S'1684'
p316
tp317
asS'abacus-develop/ABACUS.develop/source/src_global/global_file.cpp'
p318
(lp319
(S'MPI_Barrier()'
p320
S'44'
p321
tp322
a(S'MPI_Barrier()'
p323
S'77'
p324
tp325
asS'abacus-develop/ABACUS.develop/source/src_external/src_pdiag/pdgseps.cpp'
p326
(lp327
(S'MPI_Cart_get()'
p328
S'23'
p329
tp330
asS'abacus-develop/ABACUS.develop/source/src_lcao/local_orbital_elec.cpp'
p331
(lp332
(S'MPI_Barrier()'
p333
S'838'
p334
tp335
asS'abacus-develop/ABACUS.develop/source/src_parallel/ft.cpp'
p336
(lp337
(S'MPI_Finalize()'
p338
S'269'
p339
tp340
a(S'MPI_Alltoallv()'
p341
S'692'
p342
tp343
a(S'MPI_Alltoallv()'
p344
S'696'
p345
tp346
a(S'MPI_Alltoallv()'
p347
S'703'
p348
tp349
a(S'MPI_Alltoallv()'
p350
S'707'
p351
tp352
asS'abacus-develop/ABACUS.develop/source/src_parallel/parallel_global.cpp'
p353
(lp354
(S'MPI_Comm_split()'
p355
S'75'
p356
tp357
a(S'MPI_Comm_rank()'
p358
S'76'
p359
tp360
a(S'MPI_Comm_size()'
p361
S'77'
p362
tp363
a(S'MPI_Comm_split()'
p364
S'130'
p365
tp366
a(S'MPI_Comm_rank()'
p367
S'131'
p368
tp369
a(S'MPI_Comm_size()'
p370
S'132'
p371
tp372
a(S'MPI_Init()'
p373
S'154'
p374
tp375
a(S'MPI_Comm_size()'
p376
S'165'
p377
tp378
a(S'MPI_Comm_rank()'
p379
S'166'
p380
tp381
a(S'MPI_Barrier()'
p382
S'213'
p383
tp384
a(S'MPI_Type_struct()'
p385
S'232'
p386
tp387
a(S'MPI_Type_commit()'
p388
S'239'
p389
tp390
a(S'MPI_Op_create()'
p391
S'240'
p392
tp393
asS'abacus-develop/ABACUS.develop/source/src_pw/md.cpp'
p394
(lp395
(S'MPI_Bcast()'
p396
S'159'
p397
tp398
a(S'MPI_Bcast()'
p399
S'160'
p400
tp401
a(S'MPI_Bcast()'
p402
S'161'
p403
tp404
a(S'MPI_Bcast()'
p405
S'162'
p406
tp407
a(S'MPI_Bcast()'
p408
S'355'
p409
tp410
a(S'MPI_Bcast()'
p411
S'571'
p412
tp413
a(S'MPI_Bcast()'
p414
S'572'
p415
tp416
asS'abacus-develop/ABACUS.develop/tools/SIAB/SimulatedAnnealing/source/src_spillage/common.cpp'
p417
(lp418
(S'MPI_Finalize()'
p419
S'115'
p420
tp421
asS'abacus-develop/ABACUS.develop/source/src_external/src_pdiag/pzt2s.cpp'
p422
(lp423
(S'MPI_Cart_get()'
p424
S'63'
p425
tp426
a(S'MPI_Bcast()'
p427
S'106'
p428
tp429
a(S'MPI_Bcast()'
p430
S'109'
p431
tp432
a(S'MPI_Allreduce()'
p433
S'117'
p434
tp435
a(S'MPI_Bcast()'
p436
S'208'
p437
tp438
a(S'MPI_Bcast()'
p439
S'211'
p440
tp441
a(S'MPI_Allreduce()'
p442
S'219'
p443
tp444
a(S'MPI_Comm_free()'
p445
S'281'
p446
tp447
a(S'MPI_Comm_free()'
p448
S'282'
p449
tp450
asS'abacus-develop/ABACUS.develop/source/src_external/src_pdiag/pzhetrd.cpp'
p451
(lp452
(S'MPI_Cart_get()'
p453
S'70'
p454
tp455
a(S'MPI_Bcast()'
p456
S'151'
p457
tp458
a(S'MPI_Bcast()'
p459
S'154'
p460
tp461
a(S'MPI_Allreduce()'
p462
S'162'
p463
tp464
a(S'MPI_Allreduce()'
p465
S'264'
p466
tp467
a(S'MPI_Allreduce()'
p468
S'265'
p469
tp470
a(S'MPI_Barrier()'
p471
S'322'
p472
tp473
a(S'MPI_Barrier()'
p474
S'341'
p475
tp476
a(S'MPI_Bcast()'
p477
S'401'
p478
tp479
a(S'MPI_Bcast()'
p480
S'404'
p481
tp482
a(S'MPI_Allreduce()'
p483
S'412'
p484
tp485
a(S'MPI_Allreduce()'
p486
S'511'
p487
tp488
a(S'MPI_Allreduce()'
p489
S'512'
p490
tp491
a(S'MPI_Barrier()'
p492
S'563'
p493
tp494
a(S'MPI_Barrier()'
p495
S'581'
p496
tp497
a(S'MPI_Allreduce()'
p498
S'598'
p499
tp500
a(S'MPI_Allreduce()'
p501
S'599'
p502
tp503
a(S'MPI_Comm_free()'
p504
S'611'
p505
tp506
a(S'MPI_Comm_free()'
p507
S'612'
p508
tp509
asS'abacus-develop/ABACUS.develop/source/src_lcao/local_orbital_charge.cpp'
p510
(lp511
(S'MPI_Alltoall()'
p512
S'289'
p513
tp514
a(S'MPI_Alltoallv()'
p515
S'309'
p516
tp517
a(S'MPI_Alltoallv()'
p518
S'926'
p519
tp520
a(S'MPI_Comm_size()'
p521
S'1070'
p522
tp523
a(S'MPI_Comm_rank()'
p524
S'1071'
p525
tp526
a(S'MPI_Barrier()'
p527
S'1153'
p528
tp529
asS'abacus-develop/ABACUS.develop/tools/SIAB/SimulatedAnnealing/backup_old_version/1_Source/src_parallel/parallel_global.cpp'
p530
(lp531
(S'MPI_Init()'
p532
S'42'
p533
tp534
a(S'MPI_Comm_size()'
p535
S'53'
p536
tp537
a(S'MPI_Comm_rank()'
p538
S'54'
p539
tp540
a(S'MPI_Barrier()'
p541
S'62'
p542
tp543
a(S'MPI_Type_struct()'
p544
S'73'
p545
tp546
a(S'MPI_Type_commit()'
p547
S'80'
p548
tp549
a(S'MPI_Op_create()'
p550
S'81'
p551
tp552
asS'abacus-develop/ABACUS.develop/tools/SIAB/SimulatedAnnealing/source/src_parallel/parallel_reduce.cpp'
p553
(lp554
(S'MPI_Allreduce()'
p555
S'9'
p556
tp557
a(S'MPI_Allreduce()'
p558
S'18'
p559
tp560
a(S'MPI_Allreduce()'
p561
S'29'
p562
tp563
a(S'MPI_Allreduce()'
p564
S'39'
p565
tp566
a(S'MPI_Allreduce()'
p567
S'50'
p568
tp569
a(S'MPI_Allreduce()'
p570
S'60'
p571
tp572
a(S'MPI_Allreduce()'
p573
S'74'
p574
tp575
a(S'MPI_Allreduce()'
p576
S'82'
p577
tp578
a(S'MPI_Allreduce()'
p579
S'91'
p580
tp581
a(S'MPI_Allreduce()'
p582
S'101'
p583
tp584
a(S'MPI_Allgather()'
p585
S'111'
p586
tp587
a(S'MPI_Allgather()'
p588
S'128'
p589
tp590
a(S'MPI_Allgather()'
p591
S'146'
p592
tp593
a(S'MPI_Allgather()'
p594
S'164'
p595
tp596
a(S'MPI_Allgather()'
p597
S'181'
p598
tp599
a(S'MPI_Allgather()'
p600
S'197'
p601
tp602
asS'abacus-develop/ABACUS.develop/source/src_external/src_pdiag/pdstebz.cpp'
p603
(lp604
(S'MPI_Comm_size()'
p605
S'40'
p606
tp607
a(S'MPI_Comm_rank()'
p608
S'41'
p609
tp610
asS'abacus-develop/ABACUS.develop/source/src_external/src_pdiag/pdtrsm.cpp'
p611
(lp612
(S'MPI_Cart_get()'
p613
S'53'
p614
tp615
a(S'MPI_Bcast()'
p616
S'105'
p617
tp618
a(S'MPI_Bcast()'
p619
S'126'
p620
tp621
a(S'MPI_Bcast()'
p622
S'191'
p623
tp624
a(S'MPI_Bcast()'
p625
S'211'
p626
tp627
a(S'MPI_Comm_free()'
p628
S'233'
p629
tp630
a(S'MPI_Comm_free()'
p631
S'234'
p632
tp633
asS'abacus-develop/ABACUS.develop/source/src_pw/charge.cpp'
p634
(lp635
(S'MPI_Allgatherv()'
p636
S'926'
p637
tp638
a(S'MPI_Allreduce()'
p639
S'976'
p640
tp641
a(S'MPI_Send()'
p642
S'1193'
p643
tp644
a(S'MPI_Recv()'
p645
S'1200'
p646
tp647
a(S'MPI_Barrier()'
p648
S'1222'
p649
tp650
a(S'MPI_Send()'
p651
S'1619'
p652
tp653
a(S'MPI_Recv()'
p654
S'1626'
p655
tp656
a(S'MPI_Barrier()'
p657
S'1773'
p658
tp659
asS'abacus-develop/ABACUS.develop/tools/SIAB/SimulatedAnnealing/source/src_parallel/parallel_common.cpp'
p660
(lp661
(S'MPI_Bcast()'
p662
g556
tp663
a(S'MPI_Bcast()'
p664
S'21'
p665
tp666
a(S'MPI_Bcast()'
p667
S'61'
p668
tp669
a(S'MPI_Bcast()'
p670
S'68'
p671
tp672
a(S'MPI_Bcast()'
p673
S'73'
p674
tp675
a(S'MPI_Bcast()'
p676
S'80'
p677
tp678
a(S'MPI_Bcast()'
p679
S'87'
p680
tp681
a(S'MPI_Bcast()'
p682
S'95'
p683
tp684
asS'abacus-develop/ABACUS.develop/tools/SIAB/SimulatedAnnealing/source/src_parallel/parallel_global.cpp'
p685
(lp686
(S'MPI_Init()'
p687
S'42'
p688
tp689
a(S'MPI_Comm_size()'
p690
S'53'
p691
tp692
a(S'MPI_Comm_rank()'
p693
S'54'
p694
tp695
a(S'MPI_Barrier()'
p696
S'62'
p697
tp698
a(S'MPI_Type_struct()'
p699
S'73'
p700
tp701
a(S'MPI_Type_commit()'
p702
S'80'
p703
tp704
a(S'MPI_Op_create()'
p705
S'81'
p706
tp707
asS'abacus-develop/ABACUS.develop/source/src_external/src_pdiag/GenELPA.cpp'
p708
(lp709
(S'MPI_Comm_rank()'
p710
S'127'
p711
tp712
a(S'MPI_Barrier()'
p713
S'130'
p714
tp715
a(S'MPI_Comm_rank()'
p716
S'181'
p717
tp718
a(S'MPI_Barrier()'
p719
S'184'
p720
tp721
a(S'MPI_Comm_rank()'
p722
S'233'
p723
tp724
a(S'MPI_Barrier()'
p725
S'236'
p726
tp727
a(S'MPI_Comm_rank()'
p728
S'309'
p729
tp730
a(S'MPI_Barrier()'
p731
S'312'
p732
tp733
a(S'MPI_Comm_rank()'
p734
S'391'
p735
tp736
a(S'MPI_Barrier()'
p737
S'394'
p738
tp739
a(S'MPI_Allreduce()'
p740
S'416'
p741
tp742
a(S'MPI_Allreduce()'
p743
S'435'
p744
tp745
a(S'MPI_Allreduce()'
p746
S'456'
p747
tp748
a(S'MPI_Allreduce()'
p749
S'476'
p750
tp751
a(S'MPI_Comm_rank()'
p752
S'544'
p753
tp754
a(S'MPI_Barrier()'
p755
S'547'
p756
tp757
a(S'MPI_Comm_rank()'
p758
S'626'
p759
tp760
a(S'MPI_Barrier()'
p761
S'629'
p762
tp763
a(S'MPI_Comm_rank()'
p764
S'709'
p765
tp766
a(S'MPI_Barrier()'
p767
S'712'
p768
tp769
a(S'MPI_Comm_rank()'
p770
S'880'
p771
tp772
a(S'MPI_Barrier()'
p773
S'883'
p774
tp775
a(S'MPI_Comm_rank()'
p776
S'1050'
p777
tp778
a(S'MPI_Barrier()'
p779
S'1053'
p780
tp781
a(S'MPI_Comm_rank()'
p782
S'1104'
p783
tp784
a(S'MPI_Barrier()'
p785
S'1107'
p786
tp787
a(S'MPI_Comm_rank()'
p788
S'1156'
p789
tp790
a(S'MPI_Barrier()'
p791
S'1159'
p792
tp793
a(S'MPI_Comm_rank()'
p794
S'1232'
p795
tp796
a(S'MPI_Barrier()'
p797
S'1235'
p798
tp799
a(S'MPI_Comm_rank()'
p800
S'1319'
p801
tp802
a(S'MPI_Barrier()'
p803
S'1322'
p804
tp805
a(S'MPI_Allreduce()'
p806
S'1344'
p807
tp808
a(S'MPI_Allreduce()'
p809
S'1363'
p810
tp811
a(S'MPI_Allreduce()'
p812
S'1384'
p813
tp814
a(S'MPI_Allreduce()'
p815
S'1404'
p816
tp817
a(S'MPI_Comm_rank()'
p818
S'1472'
p819
tp820
a(S'MPI_Barrier()'
p821
S'1475'
p822
tp823
a(S'MPI_Comm_rank()'
p824
S'1554'
p825
tp826
a(S'MPI_Barrier()'
p827
S'1557'
p828
tp829
a(S'MPI_Comm_rank()'
p830
S'1637'
p831
tp832
a(S'MPI_Barrier()'
p833
S'1640'
p834
tp835
a(S'MPI_Comm_rank()'
p836
S'1808'
p837
tp838
a(S'MPI_Barrier()'
p839
S'1811'
p840
tp841
asS'abacus-develop/ABACUS.develop/source/src_pw/wf_io.cpp'
p842
(lp843
(S'MPI_Recv()'
p844
S'95'
p845
tp846
a(S'MPI_Recv()'
p847
S'96'
p848
tp849
a(S'MPI_Recv()'
p850
S'97'
p851
tp852
a(S'MPI_Recv()'
p853
S'98'
p854
tp855
a(S'MPI_Send()'
p856
S'105'
p857
tp858
a(S'MPI_Send()'
p859
S'106'
p860
tp861
a(S'MPI_Send()'
p862
S'107'
p863
tp864
a(S'MPI_Send()'
p865
S'108'
p866
tp867
a(S'MPI_Barrier()'
p868
S'113'
p869
tp870
asS'abacus-develop/ABACUS.develop/source/src_lcao/evolve_lcao_matrix.cpp'
p871
(lp872
(S'MPI_Barrier()'
p873
S'395'
p874
tp875
a(S'MPI_Allreduce()'
p876
S'414'
p877
tp878
a(S'MPI_Allreduce()'
p879
S'430'
p880
tp881
a(S'MPI_Barrier()'
p882
S'434'
p883
tp884
asS'abacus-develop/ABACUS.develop/source/src_parallel/parallel_kpoints.cpp'
p885
(lp886
(S'MPI_Barrier()'
p887
S'49'
p888
tp889
a(S'MPI_Comm_split()'
p890
S'117'
p891
tp892
a(S'MPI_Send()'
p893
S'214'
p894
tp895
a(S'MPI_Recv()'
p896
S'229'
p897
tp898
a(S'MPI_Barrier()'
p899
S'234'
p900
tp901
a(S'MPI_Recv()'
p902
S'279'
p903
tp904
a(S'MPI_Recv()'
p905
S'280'
p906
tp907
a(S'MPI_Send()'
p908
S'288'
p909
tp910
a(S'MPI_Send()'
p911
S'289'
p912
tp913
a(S'MPI_Barrier()'
p914
S'297'
p915
tp916
a(S'MPI_Send()'
p917
S'307'
p918
tp919
a(S'MPI_Send()'
p920
S'308'
p921
tp922
a(S'MPI_Recv()'
p923
S'330'
p924
tp925
a(S'MPI_Recv()'
p926
S'331'
p927
tp928
asS'abacus-develop/ABACUS.develop/source/src_lcao/wf_local.cpp'
p929
(lp930
(S'MPI_Recv()'
p931
S'398'
p932
tp933
a(S'MPI_Recv()'
p934
S'403'
p935
tp936
a(S'MPI_Send()'
p937
S'422'
p938
tp939
a(S'MPI_Send()'
p940
S'436'
p941
tp942
a(S'MPI_Send()'
p943
S'443'
p944
tp945
a(S'MPI_Recv()'
p946
S'450'
p947
tp948
a(S'MPI_Barrier()'
p949
S'462'
p950
tp951
a(S'MPI_Recv()'
p952
S'527'
p953
tp954
a(S'MPI_Recv()'
p955
S'537'
p956
tp957
a(S'MPI_Send()'
p958
S'555'
p959
tp960
a(S'MPI_Send()'
p961
S'567'
p962
tp963
a(S'MPI_Send()'
p964
S'573'
p965
tp966
a(S'MPI_Recv()'
p967
S'580'
p968
tp969
a(S'MPI_Barrier()'
p970
S'594'
p971
tp972
a(S'MPI_Recv()'
p973
S'667'
p974
tp975
a(S'MPI_Recv()'
p976
S'674'
p977
tp978
a(S'MPI_Send()'
p979
S'696'
p980
tp981
a(S'MPI_Send()'
p982
S'719'
p983
tp984
a(S'MPI_Send()'
p985
S'726'
p986
tp987
a(S'MPI_Recv()'
p988
S'735'
p989
tp990
a(S'MPI_Barrier()'
p991
S'763'
p992
tp993
a(S'MPI_Recv()'
p994
S'836'
p995
tp996
a(S'MPI_Recv()'
p997
S'841'
p998
tp999
a(S'MPI_Send()'
p1000
S'863'
p1001
tp1002
a(S'MPI_Send()'
p1003
S'884'
p1004
tp1005
a(S'MPI_Send()'
p1006
S'895'
p1007
tp1008
a(S'MPI_Recv()'
p1009
S'906'
p1010
tp1011
a(S'MPI_Barrier()'
p1012
S'935'
p1013
tp1014
asS'abacus-develop/ABACUS.develop/source/src_pw/unkOverlap_pw.cpp'
p1015
(lp1016
(S'MPI_Allreduce()'
p1017
S'52'
p1018
tp1019
a(S'MPI_Allreduce()'
p1020
S'53'
p1021
tp1022
a(S'MPI_Allreduce()'
p1023
S'119'
p1024
tp1025
a(S'MPI_Allreduce()'
p1026
S'120'
p1027
tp1028
a(S'MPI_Allreduce()'
p1029
S'167'
p1030
tp1031
a(S'MPI_Allreduce()'
p1032
S'168'
p1033
tp1034
a(S'MPI_Allreduce()'
p1035
S'242'
p1036
tp1037
a(S'MPI_Allreduce()'
p1038
S'243'
p1039
tp1040
asS'abacus-develop/ABACUS.develop/source/src_lcao/gint_speed2.cpp'
p1041
(lp1042
(S'MPI_Barrier()'
p1043
S'425'
p1044
tp1045
asS'abacus-develop/ABACUS.develop/source/src_lcao/hs_matrix.cpp'
p1046
(lp1047
(S'MPI_Barrier()'
p1048
S'192'
p1049
tp1050
a(S'MPI_Barrier()'
p1051
S'471'
p1052
tp1053
asS'abacus-develop/ABACUS.develop/tools/SIAB/SimulatedAnnealing/source/src_pw/ylm_real.cpp'
p1054
(lp1055
(S'MPI_Barrier()'
p1056
S'199'
p1057
tp1058
a(S'MPI_Barrier()'
p1059
S'227'
p1060
tp1061
asS'abacus-develop/ABACUS.develop/source/src_external/src_pdiag/pdiag_basic.cpp'
p1062
(lp1063
(S'MPI_Cart_create()'
p1064
S'150'
p1065
tp1066
a(S'MPI_Cart_get()'
p1067
S'171'
p1068
tp1069
a(S'MPI_Cart_get()'
p1070
S'329'
p1071
tp1072
a(S'MPI_Allgather()'
p1073
S'360'
p1074
tp1075
a(S'MPI_Send()'
p1076
S'443'
p1077
tp1078
a(S'MPI_Send()'
p1079
S'451'
p1080
tp1081
a(S'MPI_Recv()'
p1082
S'464'
p1083
tp1084
a(S'MPI_Comm_free()'
p1085
S'480'
p1086
tp1087
a(S'MPI_Comm_free()'
p1088
S'481'
p1089
tp1090
a(S'MPI_Comm_size()'
p1091
S'515'
p1092
tp1093
a(S'MPI_Comm_rank()'
p1094
S'516'
p1095
tp1096
a(S'MPI_Barrier()'
p1097
S'575'
p1098
tp1099
a(S'MPI_Send()'
p1100
S'613'
p1101
tp1102
a(S'MPI_Recv()'
p1103
S'630'
p1104
tp1105
a(S'MPI_Barrier()'
p1106
S'679'
p1107
tp1108
a(S'MPI_Comm_size()'
p1109
S'746'
p1110
tp1111
a(S'MPI_Comm_rank()'
p1112
S'747'
p1113
tp1114
a(S'MPI_Barrier()'
p1115
S'805'
p1116
tp1117
a(S'MPI_Send()'
p1118
S'842'
p1119
tp1120
a(S'MPI_Recv()'
p1121
S'859'
p1122
tp1123
a(S'MPI_Comm_size()'
p1124
S'942'
p1125
tp1126
a(S'MPI_Comm_rank()'
p1127
S'943'
p1128
tp1129
a(S'MPI_Barrier()'
p1130
S'973'
p1131
tp1132
a(S'MPI_Send()'
p1133
S'997'
p1134
tp1135
a(S'MPI_Recv()'
p1136
S'1010'
p1137
tp1138
a(S'MPI_Barrier()'
p1139
S'1022'
p1140
tp1141
a(S'MPI_Comm_size()'
p1142
S'1046'
p1143
tp1144
a(S'MPI_Comm_rank()'
p1145
S'1047'
p1146
tp1147
a(S'MPI_Barrier()'
p1148
S'1077'
p1149
tp1150
a(S'MPI_Send()'
p1151
S'1101'
p1152
tp1153
a(S'MPI_Recv()'
p1154
S'1114'
p1155
tp1156
a(S'MPI_Barrier()'
p1157
S'1126'
p1158
tp1159
asS'abacus-develop/ABACUS.develop/source/src_pw/toWannier90.cpp'
p1160
(lp1161
(S'MPI_Send()'
p1162
S'498'
p1163
tp1164
a(S'MPI_Recv()'
p1165
S'505'
p1166
tp1167
a(S'MPI_Barrier()'
p1168
S'522'
p1169
tp1170
a(S'MPI_Barrier()'
p1171
S'532'
p1172
tp1173
a(S'MPI_Allreduce()'
p1174
S'596'
p1175
tp1176
a(S'MPI_Allreduce()'
p1177
S'1381'
p1178
tp1179
a(S'MPI_Allreduce()'
p1180
S'1537'
p1181
tp1182
a(S'MPI_Allreduce()'
p1183
S'1668'
p1184
tp1185
a(S'MPI_Barrier()'
p1186
S'1691'
p1187
tp1188
a(S'MPI_Recv()'
p1189
S'1730'
p1190
tp1191
a(S'MPI_Recv()'
p1192
S'1740'
p1193
tp1194
a(S'MPI_Recv()'
p1195
S'1746'
p1196
tp1197
a(S'MPI_Send()'
p1198
S'1772'
p1199
tp1200
a(S'MPI_Send()'
p1201
S'1778'
p1202
tp1203
a(S'MPI_Send()'
p1204
S'1793'
p1205
tp1206
a(S'MPI_Barrier()'
p1207
S'1801'
p1208
tp1209
a(S'MPI_Bcast()'
p1210
S'1804'
p1211
tp1212
asS'abacus-develop/ABACUS.develop/tools/SIAB/SimulatedAnnealing/backup_old_version/1_Source/src_pw/ylm_real.cpp'
p1213
(lp1214
(S'MPI_Barrier()'
p1215
S'199'
p1216
tp1217
a(S'MPI_Barrier()'
p1218
S'227'
p1219
tp1220
asS'abacus-develop/ABACUS.develop/source/src_external/src_pdiag/pdt2s.cpp'
p1221
(lp1222
(S'MPI_Cart_get()'
p1223
S'63'
p1224
tp1225
a(S'MPI_Bcast()'
p1226
S'100'
p1227
tp1228
a(S'MPI_Bcast()'
p1229
S'103'
p1230
tp1231
a(S'MPI_Allreduce()'
p1232
S'111'
p1233
tp1234
a(S'MPI_Bcast()'
p1235
S'188'
p1236
tp1237
a(S'MPI_Bcast()'
p1238
S'191'
p1239
tp1240
a(S'MPI_Allreduce()'
p1241
S'199'
p1242
tp1243
a(S'MPI_Comm_free()'
p1244
S'256'
p1245
tp1246
a(S'MPI_Comm_free()'
p1247
S'257'
p1248
tp1249
asS'abacus-develop/ABACUS.develop/source/src_external/src_pdiag/pdiag_double.cpp'
p1250
(lp1251
(S'MPI_Cart_rank()'
p1252
S'39'
p1253
tp1254
a(S'MPI_Comm_size()'
p1255
S'454'
p1256
tp1257
a(S'MPI_Comm_rank()'
p1258
S'455'
p1259
tp1260
a(S'MPI_Reduce()'
p1261
S'512'
p1262
tp1263
a(S'MPI_Bcast()'
p1264
S'513'
p1265
tp1266
a(S'MPI_Cart_rank()'
p1267
S'566'
p1268
tp1269
a(S'MPI_Comm_size()'
p1270
S'782'
p1271
tp1272
a(S'MPI_Comm_rank()'
p1273
S'783'
p1274
tp1275
a(S'MPI_Reduce()'
p1276
S'824'
p1277
tp1278
a(S'MPI_Bcast()'
p1279
S'825'
p1280
tp1281
a(S'MPI_Cart_rank()'
p1282
S'870'
p1283
tp1284
asS'abacus-develop/ABACUS.develop/source/src_pw/potential.cpp'
p1285
(lp1286
(S'MPI_Barrier()'
p1287
S'748'
p1288
tp1289
a(S'MPI_Send()'
p1290
S'819'
p1291
tp1292
a(S'MPI_Recv()'
p1293
S'826'
p1294
tp1295
a(S'MPI_Barrier()'
p1296
S'847'
p1297
tp1298
a(S'MPI_Barrier()'
p1299
S'1550'
p1300
tp1301
a(S'MPI_Send()'
p1302
S'1626'
p1303
tp1304
a(S'MPI_Recv()'
p1305
S'1633'
p1306
tp1307
a(S'MPI_Barrier()'
p1308
S'1675'
p1309
tp1310
asS'abacus-develop/ABACUS.develop/source/src_lcao/gint_gamma_fvl.cpp'
p1311
(lp1312
(S'MPI_Barrier()'
p1313
S'712'
p1314
tp1315
asS'abacus-develop/ABACUS.develop/source/src_pw/myfunc3.cpp'
p1316
(lp1317
(S'MPI_Allreduce()'
p1318
S'186'
p1319
tp1320
a(S'MPI_Allreduce()'
p1321
S'187'
p1322
tp1323
asS'abacus-develop/ABACUS.develop/tools/SIAB/SimulatedAnnealing/backup_old_version/1_Source/src_parallel/parallel_common.cpp'
p1324
(lp1325
(S'MPI_Bcast()'
p1326
g556
tp1327
a(S'MPI_Bcast()'
p1328
S'21'
p1329
tp1330
a(S'MPI_Bcast()'
p1331
S'61'
p1332
tp1333
a(S'MPI_Bcast()'
p1334
S'68'
p1335
tp1336
a(S'MPI_Bcast()'
p1337
S'73'
p1338
tp1339
a(S'MPI_Bcast()'
p1340
S'80'
p1341
tp1342
a(S'MPI_Bcast()'
p1343
S'87'
p1344
tp1345
a(S'MPI_Bcast()'
p1346
S'95'
p1347
tp1348
asS'abacus-develop/ABACUS.develop/source/src_lcao/gint_gamma_vl.cpp'
p1349
(lp1350
(S'MPI_Alltoall()'
p1351
S'318'
p1352
tp1353
a(S'MPI_Alltoallv()'
p1354
S'332'
p1355
tp1356
a(S'MPI_Barrier()'
p1357
S'1036'
p1358
tp1359
a(S'MPI_Alltoallv()'
p1360
S'1083'
p1361
tp1362
asS'abacus-develop/ABACUS.develop/source/src_ions/ions_move_basic.cpp'
p1363
(lp1364
(S'MPI_Barrier()'
p1365
S'185'
p1366
tp1367
asS'abacus-develop/ABACUS.develop/tools/SIAB/SimulatedAnnealing/source/src_spillage/main.cpp'
p1368
(lp1369
(S'MPI_Finalize()'
p1370
S'90'
p1371
tp1372
asS'abacus-develop/ABACUS.develop/source/src_pw/wavefunc.cpp'
p1373
(lp1374
(S'MPI_Allreduce()'
p1375
S'593'
p1376
tp1377
a(S'MPI_Allreduce()'
p1378
S'594'
p1379
tp1380
asS'abacus-develop/ABACUS.develop/source/src_pw/chi0_hilbert.cpp'
p1381
(lp1382
(S'MPI_Allgather()'
p1383
S'979'
p1384
tp1385
a(S'MPI_Allgatherv()'
p1386
S'1004'
p1387
tp1388
a(S'MPI_Allgatherv()'
p1389
S'1005'
p1390
tp1391
a(S'MPI_Allgatherv()'
p1392
S'1293'
p1393
tp1394
asS'abacus-develop/ABACUS.develop/source/src_lcao/gint_gamma_fvna.cpp'
p1395
(lp1396
(S'MPI_Barrier()'
p1397
S'538'
p1398
tp1399
asS'abacus-develop/ABACUS.develop/source/src_lcao/unkOverlap_lcao.cpp'
p1400
(lp1401
(S'MPI_Comm_size()'
p1402
S'129'
p1403
tp1404
a(S'MPI_Comm_rank()'
p1405
S'130'
p1406
tp1407
a(S'MPI_Allreduce()'
p1408
S'549'
p1409
tp1410
a(S'MPI_Allreduce()'
p1411
S'550'
p1412
tp1413
a(S'MPI_Recv()'
p1414
S'590'
p1415
tp1416
a(S'MPI_Recv()'
p1417
S'600'
p1418
tp1419
a(S'MPI_Recv()'
p1420
S'606'
p1421
tp1422
a(S'MPI_Send()'
p1423
S'632'
p1424
tp1425
a(S'MPI_Send()'
p1426
S'638'
p1427
tp1428
a(S'MPI_Send()'
p1429
S'653'
p1430
tp1431
a(S'MPI_Barrier()'
p1432
S'661'
p1433
tp1434
a(S'MPI_Bcast()'
p1435
S'664'
p1436
tp1437
a(S'MPI_Allreduce()'
p1438
S'772'
p1439
tp1440
asS'abacus-develop/ABACUS.develop/source/src_pw/mdNVE.cpp'
p1441
(lp1442
(S'MPI_Bcast()'
p1443
S'355'
p1444
tp1445
a(S'MPI_Bcast()'
p1446
S'356'
p1447
tp1448
a(S'MPI_Bcast()'
p1449
S'357'
p1450
tp1451
a(S'MPI_Bcast()'
p1452
S'358'
p1453
tp1454
a(S'MPI_Bcast()'
p1455
S'359'
p1456
tp1457
asS'abacus-develop/ABACUS.develop/tools/SIAB/SimulatedAnnealing/backup_old_version/1_Source/src_spillage/ReadData.cpp'
p1458
(lp1459
(S'MPI_Send()'
p1460
S'305'
p1461
tp1462
a(S'MPI_Send()'
p1463
S'306'
p1464
tp1465
a(S'MPI_Send()'
p1466
S'323'
p1467
tp1468
a(S'MPI_Send()'
p1469
S'324'
p1470
tp1471
a(S'MPI_Recv()'
p1472
S'334'
p1473
tp1474
a(S'MPI_Recv()'
p1475
S'335'
p1476
tp1477
a(S'MPI_Barrier()'
p1478
S'348'
p1479
tp1480
a(S'MPI_Send()'
p1481
S'449'
p1482
tp1483
a(S'MPI_Send()'
p1484
S'450'
p1485
tp1486
a(S'MPI_Send()'
p1487
S'467'
p1488
tp1489
a(S'MPI_Send()'
p1490
S'468'
p1491
tp1492
a(S'MPI_Recv()'
p1493
S'478'
p1494
tp1495
a(S'MPI_Recv()'
p1496
S'479'
p1497
tp1498
a(S'MPI_Barrier()'
p1499
S'492'
p1500
tp1501
asS'abacus-develop/ABACUS.develop/tools/SIAB/SimulatedAnnealing/source/src_spillage/Metropolis.cpp'
p1502
(lp1503
(S'MPI_Barrier()'
p1504
S'74'
p1505
tp1506
asS'abacus-develop/ABACUS.develop/source/main.cpp'
p1507
(lp1508
(S'MPI_Finalize()'
p1509
S'25'
p1510
tp1511
asS'abacus-develop/ABACUS.develop/tools/SIAB/SimulatedAnnealing/source/src_spillage/ReadData.cpp'
p1512
(lp1513
(S'MPI_Send()'
p1514
S'305'
p1515
tp1516
a(S'MPI_Send()'
p1517
S'306'
p1518
tp1519
a(S'MPI_Send()'
p1520
S'323'
p1521
tp1522
a(S'MPI_Send()'
p1523
S'324'
p1524
tp1525
a(S'MPI_Recv()'
p1526
S'334'
p1527
tp1528
a(S'MPI_Recv()'
p1529
S'335'
p1530
tp1531
a(S'MPI_Barrier()'
p1532
S'348'
p1533
tp1534
a(S'MPI_Send()'
p1535
S'449'
p1536
tp1537
a(S'MPI_Send()'
p1538
S'450'
p1539
tp1540
a(S'MPI_Send()'
p1541
S'467'
p1542
tp1543
a(S'MPI_Send()'
p1544
S'468'
p1545
tp1546
a(S'MPI_Recv()'
p1547
S'478'
p1548
tp1549
a(S'MPI_Recv()'
p1550
S'479'
p1551
tp1552
a(S'MPI_Barrier()'
p1553
S'492'
p1554
tp1555
asS'abacus-develop/ABACUS.develop/source/src_global/export.h'
p1556
(lp1557
(S'MPI_Finalize()'
p1558
S'40'
p1559
tp1560
asS'abacus-develop/ABACUS.develop/source/src_pw/epsilon0_vasp.cpp'
p1561
(lp1562
(S'MPI_Allreduce()'
p1563
S'366'
p1564
tp1565
a(S'MPI_Allreduce()'
p1566
S'367'
p1567
tp1568
a(S'MPI_Allreduce()'
p1569
S'479'
p1570
tp1571
a(S'MPI_Allreduce()'
p1572
S'480'
p1573
tp1574
asS'abacus-develop/ABACUS.develop/tools/SIAB/SimulatedAnnealing/backup_old_version/1_Source/src_parallel/parallel_kpoints.cpp'
p1575
(lp1576
(S'MPI_Barrier()'
p1577
S'65'
p1578
tp1579
a(S'MPI_Comm_split()'
p1580
S'133'
p1581
tp1582
a(S'MPI_Send()'
p1583
S'222'
p1584
tp1585
a(S'MPI_Recv()'
p1586
S'234'
p1587
tp1588
a(S'MPI_Barrier()'
p1589
S'237'
p1590
tp1591
a(S'MPI_Send()'
p1592
S'269'
p1593
tp1594
a(S'MPI_Recv()'
p1595
S'288'
p1596
tp1597
asS'abacus-develop/ABACUS.develop/source/src_external/src_pdiag/pzhtrsm.cpp'
p1598
(lp1599
(S'MPI_Cart_get()'
p1600
S'58'
p1601
tp1602
a(S'MPI_Bcast()'
p1603
S'115'
p1604
tp1605
a(S'MPI_Bcast()'
p1606
S'149'
p1607
tp1608
a(S'MPI_Bcast()'
p1609
S'221'
p1610
tp1611
a(S'MPI_Bcast()'
p1612
S'243'
p1613
tp1614
a(S'MPI_Comm_free()'
p1615
S'265'
p1616
tp1617
a(S'MPI_Comm_free()'
p1618
S'266'
p1619
tp1620
asS'abacus-develop/ABACUS.develop/source/src_parallel/parallel_grid.cpp'
p1621
(lp1622
(S'MPI_Send()'
p1623
S'199'
p1624
tp1625
a(S'MPI_Recv()'
p1626
S'207'
p1627
tp1628
a(S'MPI_Send()'
p1629
S'222'
p1630
tp1631
a(S'MPI_Recv()'
p1632
S'233'
p1633
tp1634
a(S'MPI_Barrier()'
p1635
S'255'
p1636
tp1637
a(S'MPI_Send()'
p1638
S'286'
p1639
tp1640
a(S'MPI_Recv()'
p1641
S'293'
p1642
tp1643
a(S'MPI_Barrier()'
p1644
S'311'
p1645
tp1646
asS'abacus-develop/ABACUS.develop/source/src_external/src_test/src_global/scalapack-test.cpp'
p1647
(lp1648
(S'MPI_Init()'
p1649
S'7'
p1650
tp1651
a(S'MPI_Dims_create()'
p1652
S'56'
p1653
tp1654
a(S'MPI_Finalize()'
p1655
S'361'
p1656
tp1657
asS'abacus-develop/ABACUS.develop/source/src_external/src_pdiag/pzst2g.cpp'
p1658
(lp1659
(S'MPI_Cart_get()'
p1660
S'52'
p1661
tp1662
a(S'MPI_Bcast()'
p1663
S'79'
p1664
tp1665
a(S'MPI_Bcast()'
p1666
S'82'
p1667
tp1668
a(S'MPI_Bcast()'
p1669
S'107'
p1670
tp1671
a(S'MPI_Bcast()'
p1672
S'110'
p1673
tp1674
a(S'MPI_Bcast()'
p1675
S'149'
p1676
tp1677
a(S'MPI_Bcast()'
p1678
S'152'
p1679
tp1680
a(S'MPI_Bcast()'
p1681
S'176'
p1682
tp1683
a(S'MPI_Bcast()'
p1684
S'179'
p1685
tp1686
asS'abacus-develop/ABACUS.develop/source/src_parallel/parallel_common.cpp'
p1687
(lp1688
(S'MPI_Bcast()'
p1689
S'8'
p1690
tp1691
a(S'MPI_Bcast()'
p1692
S'11'
p1693
tp1694
a(S'MPI_Bcast()'
p1695
S'58'
p1696
tp1697
a(S'MPI_Bcast()'
p1698
S'65'
p1699
tp1700
a(S'MPI_Bcast()'
p1701
S'71'
p1702
tp1703
a(S'MPI_Bcast()'
p1704
S'78'
p1705
tp1706
a(S'MPI_Bcast()'
p1707
S'85'
p1708
tp1709
a(S'MPI_Bcast()'
p1710
S'93'
p1711
tp1712
asS'abacus-develop/ABACUS.develop/source/src_parallel/subgrid_oper.cpp'
p1713
(lp1714
(S'MPI_Bcast()'
p1715
S'308'
p1716
tp1717
a(S'MPI_Recv()'
p1718
S'342'
p1719
tp1720
a(S'MPI_Recv()'
p1721
S'355'
p1722
tp1723
a(S'MPI_Send()'
p1724
S'386'
p1725
tp1726
a(S'MPI_Send()'
p1727
S'398'
p1728
tp1729
a(S'MPI_Send()'
p1730
S'404'
p1731
tp1732
a(S'MPI_Recv()'
p1733
S'414'
p1734
tp1735
a(S'MPI_Barrier()'
p1736
S'428'
p1737
tp1738
a(S'MPI_Bcast()'
p1739
S'513'
p1740
tp1741
a(S'MPI_Recv()'
p1742
S'547'
p1743
tp1744
a(S'MPI_Recv()'
p1745
S'560'
p1746
tp1747
a(S'MPI_Send()'
p1748
S'591'
p1749
tp1750
a(S'MPI_Send()'
p1751
S'603'
p1752
tp1753
a(S'MPI_Send()'
p1754
S'609'
p1755
tp1756
a(S'MPI_Recv()'
p1757
S'619'
p1758
tp1759
a(S'MPI_Barrier()'
p1760
S'633'
p1761
tp1762
a(S'MPI_Recv()'
p1763
S'724'
p1764
tp1765
a(S'MPI_Recv()'
p1766
S'731'
p1767
tp1768
asS'abacus-develop/ABACUS.develop/source/src_lcao/force_lcao_gamma.cpp'
p1769
(lp1770
(S'MPI_Comm_size()'
p1771
S'274'
p1772
tp1773
a(S'MPI_Comm_rank()'
p1774
S'275'
p1775
tp1776
a(S'MPI_Barrier()'
p1777
S'451'
p1778
tp1779
a(S'MPI_Barrier()'
p1780
S'525'
p1781
tp1782
a(S'MPI_Barrier()'
p1783
S'618'
p1784
tp1785
a(S'MPI_Barrier()'
p1786
S'690'
p1787
tp1788
a(S'MPI_Barrier()'
p1789
S'758'
p1790
tp1791
asS'abacus-develop/ABACUS.develop/source/src_global/export.cpp'
p1792
(lp1793
(S'MPI_Finalize()'
p1794
S'23'
p1795
tp1796
asS'abacus-develop/ABACUS.develop/source/src_external/src_pdiag/pdsytrd.cpp'
p1797
(lp1798
(S'MPI_Cart_get()'
p1799
S'73'
p1800
tp1801
a(S'MPI_Bcast()'
p1802
S'134'
p1803
tp1804
a(S'MPI_Bcast()'
p1805
S'137'
p1806
tp1807
a(S'MPI_Allreduce()'
p1808
S'145'
p1809
tp1810
a(S'MPI_Allreduce()'
p1811
S'239'
p1812
tp1813
a(S'MPI_Allreduce()'
p1814
S'240'
p1815
tp1816
a(S'MPI_Barrier()'
p1817
S'276'
p1818
tp1819
a(S'MPI_Barrier()'
p1820
S'293'
p1821
tp1822
a(S'MPI_Bcast()'
p1823
S'341'
p1824
tp1825
a(S'MPI_Bcast()'
p1826
S'344'
p1827
tp1828
a(S'MPI_Allreduce()'
p1829
S'352'
p1830
tp1831
a(S'MPI_Allreduce()'
p1832
S'449'
p1833
tp1834
a(S'MPI_Allreduce()'
p1835
S'450'
p1836
tp1837
a(S'MPI_Barrier()'
p1838
S'486'
p1839
tp1840
a(S'MPI_Barrier()'
p1841
S'504'
p1842
tp1843
a(S'MPI_Allreduce()'
p1844
S'516'
p1845
tp1846
a(S'MPI_Allreduce()'
p1847
S'517'
p1848
tp1849
a(S'MPI_Comm_free()'
p1850
S'521'
p1851
tp1852
a(S'MPI_Comm_free()'
p1853
S'522'
p1854
tp1855
asS'abacus-develop/ABACUS.develop/source/src_lcao/Mulliken_Charge.cpp'
p1856
(lp1857
(S'MPI_Reduce()'
p1858
S'283'
p1859
tp1860
asS'abacus-develop/ABACUS.develop/source/src_external/src_pdiag/saveMatrix.hpp'
p1861
(lp1862
(S'MPI_Comm_rank()'
p1863
S'15'
p1864
tp1865
a(S'MPI_Comm_rank()'
p1866
S'54'
p1867
tp1868
asS'abacus-develop/ABACUS.develop/source/src_external/src_pdiag/pdst2g.cpp'
p1869
(lp1870
(S'MPI_Cart_get()'
p1871
S'50'
p1872
tp1873
a(S'MPI_Bcast()'
p1874
S'79'
p1875
tp1876
a(S'MPI_Bcast()'
p1877
S'82'
p1878
tp1879
a(S'MPI_Bcast()'
p1880
S'107'
p1881
tp1882
a(S'MPI_Bcast()'
p1883
S'110'
p1884
tp1885
a(S'MPI_Bcast()'
p1886
S'151'
p1887
tp1888
a(S'MPI_Bcast()'
p1889
S'154'
p1890
tp1891
a(S'MPI_Bcast()'
p1892
S'178'
p1893
tp1894
a(S'MPI_Bcast()'
p1895
S'181'
p1896
tp1897
asS'abacus-develop/ABACUS.develop/source/src_pw/epsilon0_pwscf.cpp'
p1898
(lp1899
(S'MPI_Allreduce()'
p1900
S'463'
p1901
tp1902
a(S'MPI_Allreduce()'
p1903
S'464'
p1904
tp1905
asS'abacus-develop/ABACUS.develop/source/src_pw/eximport.cpp'
p1906
(lp1907
(S'MPI_Barrier()'
p1908
S'779'
p1909
tp1910
a(S'MPI_Bcast()'
p1911
S'785'
p1912
tp1913
asS'abacus-develop/ABACUS.develop/tools/SIAB/SimulatedAnnealing/backup_old_version/1_Source/src_spillage/Metropolis.cpp'
p1914
(lp1915
(S'MPI_Barrier()'
p1916
S'72'
p1917
tp1918
asS'abacus-develop/ABACUS.develop/source/src_external/src_pdiag/pzheg2st.cpp'
p1919
(lp1920
(S'MPI_Cart_get()'
p1921
S'85'
p1922
tp1923
a(S'MPI_Comm_free()'
p1924
S'112'
p1925
tp1926
a(S'MPI_Comm_free()'
p1927
S'113'
p1928
tp1929
a(S'MPI_Barrier()'
p1930
S'126'
p1931
tp1932
a(S'MPI_Bcast()'
p1933
S'164'
p1934
tp1935
a(S'MPI_Bcast()'
p1936
S'165'
p1937
tp1938
a(S'MPI_Bcast()'
p1939
S'209'
p1940
tp1941
a(S'MPI_Bcast()'
p1942
S'213'
p1943
tp1944
a(S'MPI_Cart_rank()'
p1945
S'228'
p1946
tp1947
a(S'MPI_Cart_rank()'
p1948
S'236'
p1949
tp1950
a(S'MPI_Send()'
p1951
S'265'
p1952
tp1953
a(S'MPI_Send()'
p1954
S'266'
p1955
tp1956
a(S'MPI_Recv()'
p1957
S'273'
p1958
tp1959
a(S'MPI_Recv()'
p1960
S'274'
p1961
tp1962
a(S'MPI_Bcast()'
p1963
S'285'
p1964
tp1965
a(S'MPI_Bcast()'
p1966
S'286'
p1967
tp1968
a(S'MPI_Bcast()'
p1969
S'360'
p1970
tp1971
a(S'MPI_Bcast()'
p1972
S'361'
p1973
tp1974
a(S'MPI_Bcast()'
p1975
S'405'
p1976
tp1977
a(S'MPI_Bcast()'
p1978
S'406'
p1979
tp1980
a(S'MPI_Barrier()'
p1981
S'409'
p1982
tp1983
a(S'MPI_Cart_rank()'
p1984
S'420'
p1985
tp1986
a(S'MPI_Cart_rank()'
p1987
S'428'
p1988
tp1989
a(S'MPI_Send()'
p1990
S'452'
p1991
tp1992
a(S'MPI_Send()'
p1993
S'453'
p1994
tp1995
a(S'MPI_Recv()'
p1996
S'457'
p1997
tp1998
a(S'MPI_Recv()'
p1999
S'458'
p2000
tp2001
a(S'MPI_Bcast()'
p2002
S'467'
p2003
tp2004
a(S'MPI_Barrier()'
p2005
S'468'
p2006
tp2007
a(S'MPI_Bcast()'
p2008
S'469'
p2009
tp2010
a(S'MPI_Barrier()'
p2011
S'470'
p2012
tp2013
a(S'MPI_Comm_free()'
p2014
S'505'
p2015
tp2016
a(S'MPI_Comm_free()'
p2017
S'506'
p2018
tp2019
asS'abacus-develop/ABACUS.develop/source/src_parallel/parallel_reduce.cpp'
p2020
(lp2021
(S'MPI_Allreduce()'
p2022
S'10'
p2023
tp2024
a(S'MPI_Allreduce()'
p2025
S'19'
p2026
tp2027
a(S'MPI_Allreduce()'
p2028
S'30'
p2029
tp2030
a(S'MPI_Allreduce()'
p2031
S'40'
p2032
tp2033
a(S'MPI_Allreduce()'
p2034
S'52'
p2035
tp2036
a(S'MPI_Allreduce()'
p2037
S'65'
p2038
tp2039
a(S'MPI_Allreduce()'
p2040
S'78'
p2041
tp2042
a(S'MPI_Allreduce()'
p2043
S'90'
p2044
tp2045
a(S'MPI_Allreduce()'
p2046
S'103'
p2047
tp2048
a(S'MPI_Allreduce()'
p2049
S'113'
p2050
tp2051
a(S'MPI_Allreduce()'
p2052
S'127'
p2053
tp2054
a(S'MPI_Allreduce()'
p2055
S'142'
p2056
tp2057
a(S'MPI_Allreduce()'
p2058
S'153'
p2059
tp2060
a(S'MPI_Allreduce()'
p2061
S'164'
p2062
tp2063
a(S'MPI_Allreduce()'
p2064
S'174'
p2065
tp2066
a(S'MPI_Allreduce()'
p2067
S'184'
p2068
tp2069
a(S'MPI_Allgather()'
p2070
S'195'
p2071
tp2072
a(S'MPI_Allgather()'
p2073
S'204'
p2074
tp2075
a(S'MPI_Allgather()'
p2076
S'222'
p2077
tp2078
a(S'MPI_Allgather()'
p2079
S'240'
p2080
tp2081
a(S'MPI_Allgather()'
p2082
S'258'
p2083
tp2084
a(S'MPI_Allgather()'
p2085
S'275'
p2086
tp2087
a(S'MPI_Allgather()'
p2088
S'291'
p2089
tp2090
asS'abacus-develop/ABACUS.develop/tools/SIAB/SimulatedAnnealing/backup_old_version/1_Source/src_parallel/parallel_reduce.cpp'
p2091
(lp2092
(S'MPI_Allreduce()'
p2093
g556
tp2094
a(S'MPI_Allreduce()'
p2095
S'18'
p2096
tp2097
a(S'MPI_Allreduce()'
p2098
S'29'
p2099
tp2100
a(S'MPI_Allreduce()'
p2101
S'39'
p2102
tp2103
a(S'MPI_Allreduce()'
p2104
S'50'
p2105
tp2106
a(S'MPI_Allreduce()'
p2107
S'60'
p2108
tp2109
a(S'MPI_Allreduce()'
p2110
S'74'
p2111
tp2112
a(S'MPI_Allreduce()'
p2113
S'82'
p2114
tp2115
a(S'MPI_Allreduce()'
p2116
S'91'
p2117
tp2118
a(S'MPI_Allreduce()'
p2119
S'101'
p2120
tp2121
a(S'MPI_Allgather()'
p2122
S'111'
p2123
tp2124
a(S'MPI_Allgather()'
p2125
S'128'
p2126
tp2127
a(S'MPI_Allgather()'
p2128
S'146'
p2129
tp2130
a(S'MPI_Allgather()'
p2131
S'164'
p2132
tp2133
a(S'MPI_Allgather()'
p2134
S'181'
p2135
tp2136
a(S'MPI_Allgather()'
p2137
S'197'
p2138
tp2139
asS'abacus-develop/ABACUS.develop/source/src_pw/numerical_basis.cpp'
p2140
(lp2141
(S'MPI_Barrier()'
p2142
S'223'
p2143
tp2144
a(S'MPI_Barrier()'
p2145
S'229'
p2146
tp2147
a(S'MPI_Recv()'
p2148
S'287'
p2149
tp2150
a(S'MPI_Recv()'
p2151
S'288'
p2152
tp2153
a(S'MPI_Recv()'
p2154
S'289'
p2155
tp2156
a(S'MPI_Recv()'
p2157
S'290'
p2158
tp2159
a(S'MPI_Send()'
p2160
S'297'
p2161
tp2162
a(S'MPI_Send()'
p2163
S'298'
p2164
tp2165
a(S'MPI_Send()'
p2166
S'299'
p2167
tp2168
a(S'MPI_Send()'
p2169
S'300'
p2170
tp2171
a(S'MPI_Barrier()'
p2172
S'305'
p2173
tp2174
a(S'MPI_Barrier()'
p2175
S'366'
p2176
tp2177
as.