ccollections
defaultdict
p0
(c__builtin__
list
p1
tp2
Rp3
S'mapredict/OpenARC-devel/test/benchmarks/impacc/lulesh/lulesh.c'
p4
(lp5
(S'MPI_Allreduce()'
p6
S'415'
p7
tp8
a(S'MPI_Abort()'
p9
S'1643'
p10
tp11
a(S'MPI_Abort()'
p12
S'1713'
p13
tp14
a(S'MPI_Abort()'
p15
S'2618'
p16
tp17
a(S'MPI_Abort()'
p18
S'3127'
p19
tp20
a(S'MPI_Abort()'
p21
S'3659'
p22
tp23
a(S'MPI_Init()'
p24
S'4057'
p25
tp26
a(S'MPI_Comm_size()'
p27
S'4058'
p28
tp29
a(S'MPI_Comm_rank()'
p30
S'4059'
p31
tp32
a(S'MPI_Get_processor_name()'
p33
S'4061'
p34
tp35
a(S'MPI_Barrier()'
p36
S'4126'
p37
tp38
a(S'MPI_Wtime()'
p39
S'4132'
p40
tp41
a(S'MPI_Wtime()'
p42
S'4394'
p43
tp44
a(S'MPI_Reduce()'
p45
S'4400'
p46
tp47
a(S'MPI_Finalize()'
p48
S'4418'
p49
tp50
asS'mapredict/OpenARC-devel/test/benchmarks/nvl-c/xsbench/Main.c'
p51
(lp52
(S'MPI_Init()'
p53
S'67'
p54
tp55
a(S'MPI_Comm_size()'
p56
S'68'
p57
tp58
a(S'MPI_Comm_rank()'
p59
S'69'
p60
tp61
a(S'MPI_Finalize()'
p62
S'387'
p63
tp64
asS'mapredict/OpenARC-devel/impacc/src/impacc.cpp'
p65
(lp66
(S'MPI_Initialized()'
p67
S'8'
p68
tp69
a(S'MPI_Barrier()'
p70
S'80'
p71
tp72
asS'mapredict/OpenARC-devel/test/benchmarks/openacc/lulesh/lulesh-init.c'
p73
(lp74
(S'MPI_Comm_size()'
p75
S'290'
p76
tp77
a(S'MPI_Comm_rank()'
p78
S'291'
p79
tp80
a(S'MPI_Abort()'
p81
S'531'
p82
tp83
a(S'MPI_Comm_rank()'
p84
S'628'
p85
tp86
a(S'MPI_Abort()'
p87
S'1014'
p88
tp89
a(S'MPI_Abort()'
p90
S'1022'
p91
tp92
a(S'MPI_Abort()'
p93
S'1030'
p94
tp95
a(S'MPI_Abort()'
p96
S'1044'
p97
tp98
asS'mapredict/OpenARC-devel/test/benchmarks/impacc/dgemm/dgemm.c'
p99
(lp100
(S'MPI_Init()'
p101
S'23'
p102
tp103
a(S'MPI_Comm_rank()'
p104
S'24'
p105
tp106
a(S'MPI_Comm_size()'
p107
S'25'
p108
tp109
a(S'MPI_Bcast()'
p110
S'49'
p111
tp112
a(S'MPI_Isend()'
p113
S'52'
p114
tp115
a(S'MPI_Waitall()'
p116
S'54'
p117
tp118
a(S'MPI_Recv()'
p119
S'56'
p120
tp121
a(S'MPI_Irecv()'
p122
S'74'
p123
tp124
a(S'MPI_Waitall()'
p125
S'76'
p126
tp127
a(S'MPI_Send()'
p128
S'78'
p129
tp130
a(S'MPI_Finalize()'
p131
S'107'
p132
tp133
asS'mapredict/OpenARC-devel/test/benchmarks/impacc/lulesh/lulesh-util.c'
p134
(lp135
(S'MPI_Abort()'
p136
S'53'
p137
tp138
a(S'MPI_Abort()'
p139
S'155'
p140
tp141
asS'mapredict/OpenARC-devel/test/benchmarks/openacc/xsbench/GridInit.c'
p142
(lp143
(S'MPI_Comm_rank()'
p144
S'63'
p145
tp146
a(S'MPI_Comm_rank()'
p147
S'95'
p148
tp149
asS'mapredict/OpenARC-devel/test/benchmarks/impacc/jacobi/jacobi.c.pmas'
p150
(lp151
(S'MPI_Init()'
p152
S'40'
p153
tp154
a(S'MPI_Comm_rank()'
p155
S'41'
p156
tp157
a(S'MPI_Comm_size()'
p158
S'42'
p159
tp160
a(S'MPI_Wtime()'
p161
S'72'
p162
tp163
a(S'MPI_Wtime()'
p164
S'76'
p165
tp166
a(S'MPI_Send()'
p167
S'84'
p168
tp169
a(S'MPI_Recv()'
p170
S'91'
p171
tp172
a(S'MPI_Send()'
p173
S'99'
p174
tp175
a(S'MPI_Recv()'
p176
S'106'
p177
tp178
a(S'MPI_Allreduce()'
p179
S'136'
p180
tp181
a(S'MPI_Wtime()'
p182
S'139'
p183
tp184
a(S'MPI_Wtime()'
p185
S'145'
p186
tp187
a(S'MPI_Finalize()'
p188
S'151'
p189
tp190
asS'mapredict/OpenARC-devel/test/benchmarks/openacc/xsbench/Main.c'
p191
(lp192
(S'MPI_Init()'
p193
S'46'
p194
tp195
a(S'MPI_Comm_size()'
p196
S'47'
p197
tp198
a(S'MPI_Comm_rank()'
p199
S'48'
p200
tp201
a(S'MPI_Finalize()'
p202
S'300'
p203
tp204
asS'mapredict/OpenARC-devel/test/benchmarks/openacc/xsbench/io.c'
p205
(lp206
(S'MPI_Barrier()'
p207
S'50'
p208
tp209
a(S'MPI_Reduce()'
p210
S'51'
p211
tp212
a(S'X_MPI_SUM()'
p213
S'52'
p214
tp215
asS'mapredict/OpenARC-devel/test/benchmarks/impacc/jacobi/jacobi.c.mpi'
p216
(lp217
(S'MPI_Init()'
p218
S'30'
p219
tp220
a(S'MPI_Comm_rank()'
p221
S'31'
p222
tp223
a(S'MPI_Comm_size()'
p224
S'32'
p225
tp226
a(S'MPI_Wtime()'
p227
S'60'
p228
tp229
a(S'MPI_Wtime()'
p230
S'64'
p231
tp232
a(S'MPI_Send()'
p233
S'68'
p234
tp235
a(S'MPI_Recv()'
p236
S'70'
p237
tp238
a(S'MPI_Send()'
p239
S'73'
p240
tp241
a(S'MPI_Recv()'
p242
S'75'
p243
tp244
a(S'MPI_Allreduce()'
p245
S'97'
p246
tp247
a(S'MPI_Wtime()'
p248
S'100'
p249
tp250
a(S'MPI_Wtime()'
p251
S'106'
p252
tp253
a(S'MPI_Finalize()'
p254
S'111'
p255
tp256
asS'mapredict/OpenARC-devel/test/benchmarks/impacc/lulesh/lulesh-comm.c'
p257
(lp258
(S'MPI_Comm_rank()'
p259
S'133'
p260
tp261
a(S'MPI_Irecv()'
p262
S'142'
p263
tp264
a(S'X_MPI_COMM_WORLD()'
p265
S'144'
p266
tp267
a(S'MPI_Irecv()'
p268
S'151'
p269
tp270
a(S'X_MPI_COMM_WORLD()'
p271
S'153'
p272
tp273
a(S'MPI_Irecv()'
p274
S'160'
p275
tp276
a(S'X_MPI_COMM_WORLD()'
p277
S'162'
p278
tp279
a(S'MPI_Irecv()'
p280
S'169'
p281
tp282
a(S'X_MPI_COMM_WORLD()'
p283
S'171'
p284
tp285
a(S'MPI_Irecv()'
p286
S'178'
p287
tp288
a(S'X_MPI_COMM_WORLD()'
p289
S'180'
p290
tp291
a(S'MPI_Irecv()'
p292
S'187'
p293
tp294
a(S'X_MPI_COMM_WORLD()'
p295
S'189'
p296
tp297
a(S'MPI_Irecv()'
p298
S'197'
p299
tp300
a(S'X_MPI_COMM_WORLD()'
p301
S'200'
p302
tp303
a(S'MPI_Irecv()'
p304
S'206'
p305
tp306
a(S'X_MPI_COMM_WORLD()'
p307
S'209'
p308
tp309
a(S'MPI_Irecv()'
p310
S'215'
p311
tp312
a(S'X_MPI_COMM_WORLD()'
p313
S'218'
p314
tp315
a(S'MPI_Irecv()'
p316
S'224'
p317
tp318
a(S'X_MPI_COMM_WORLD()'
p319
S'227'
p320
tp321
a(S'MPI_Irecv()'
p322
S'233'
p323
tp324
a(S'X_MPI_COMM_WORLD()'
p325
S'236'
p326
tp327
a(S'MPI_Irecv()'
p328
S'242'
p329
tp330
a(S'X_MPI_COMM_WORLD()'
p331
S'245'
p332
tp333
a(S'MPI_Irecv()'
p334
S'251'
p335
tp336
a(S'X_MPI_COMM_WORLD()'
p337
S'254'
p338
tp339
a(S'MPI_Irecv()'
p340
S'260'
p341
tp342
a(S'X_MPI_COMM_WORLD()'
p343
S'263'
p344
tp345
a(S'MPI_Irecv()'
p346
S'269'
p347
tp348
a(S'X_MPI_COMM_WORLD()'
p349
S'272'
p350
tp351
a(S'MPI_Irecv()'
p352
S'278'
p353
tp354
a(S'X_MPI_COMM_WORLD()'
p355
S'281'
p356
tp357
a(S'MPI_Irecv()'
p358
S'287'
p359
tp360
a(S'X_MPI_COMM_WORLD()'
p361
S'290'
p362
tp363
a(S'MPI_Irecv()'
p364
S'296'
p365
tp366
a(S'X_MPI_COMM_WORLD()'
p367
S'299'
p368
tp369
a(S'MPI_Irecv()'
p370
S'307'
p371
tp372
a(S'X_MPI_COMM_WORLD()'
p373
S'311'
p374
tp375
a(S'MPI_Irecv()'
p376
S'317'
p377
tp378
a(S'X_MPI_COMM_WORLD()'
p379
S'321'
p380
tp381
a(S'MPI_Irecv()'
p382
S'327'
p383
tp384
a(S'X_MPI_COMM_WORLD()'
p385
S'331'
p386
tp387
a(S'MPI_Irecv()'
p388
S'337'
p389
tp390
a(S'X_MPI_COMM_WORLD()'
p391
S'341'
p392
tp393
a(S'MPI_Irecv()'
p394
S'347'
p395
tp396
a(S'X_MPI_COMM_WORLD()'
p397
S'351'
p398
tp399
a(S'MPI_Irecv()'
p400
S'357'
p401
tp402
a(S'X_MPI_COMM_WORLD()'
p403
S'361'
p404
tp405
a(S'MPI_Irecv()'
p406
S'367'
p407
tp408
a(S'X_MPI_COMM_WORLD()'
p409
S'371'
p410
tp411
a(S'MPI_Irecv()'
p412
S'377'
p413
tp414
a(S'X_MPI_COMM_WORLD()'
p415
S'381'
p416
tp417
a(S'MPI_Comm_rank()'
p418
S'442'
p419
tp420
a(S'MPI_Type_vector()'
p421
S'456'
p422
tp423
a(S'MPI_Type_commit()'
p424
S'459'
p425
tp426
a(S'MPI_Isend()'
p427
S'483'
p428
tp429
a(S'X_MPI_COMM_WORLD()'
p430
S'485'
p431
tp432
a(S'MPI_Isend()'
p433
S'504'
p434
tp435
a(S'X_MPI_COMM_WORLD()'
p436
S'506'
p437
tp438
a(S'MPI_Type_vector()'
p439
S'523'
p440
tp441
a(S'MPI_Type_commit()'
p442
S'524'
p443
tp444
a(S'MPI_Type_vector()'
p445
S'526'
p446
tp447
a(S'MPI_Type_commit()'
p448
S'528'
p449
tp450
a(S'MPI_Isend()'
p451
S'555'
p452
tp453
a(S'X_MPI_COMM_WORLD()'
p454
S'557'
p455
tp456
a(S'MPI_Isend()'
p457
S'579'
p458
tp459
a(S'X_MPI_COMM_WORLD()'
p460
S'581'
p461
tp462
a(S'MPI_Type_vector()'
p463
S'599'
p464
tp465
a(S'MPI_Type_commit()'
p466
S'600'
p467
tp468
a(S'MPI_Type_vector()'
p469
S'603'
p470
tp471
a(S'MPI_Type_commit()'
p472
S'604'
p473
tp474
a(S'MPI_Type_vector()'
p475
S'606'
p476
tp477
a(S'MPI_Type_commit()'
p478
S'608'
p479
tp480
a(S'MPI_Isend()'
p481
S'636'
p482
tp483
a(S'X_MPI_COMM_WORLD()'
p484
S'638'
p485
tp486
a(S'MPI_Isend()'
p487
S'661'
p488
tp489
a(S'X_MPI_COMM_WORLD()'
p490
S'663'
p491
tp492
a(S'MPI_Isend()'
p493
S'681'
p494
tp495
a(S'X_MPI_COMM_WORLD()'
p496
S'682'
p497
tp498
a(S'MPI_Isend()'
p499
S'698'
p500
tp501
a(S'X_MPI_COMM_WORLD()'
p502
S'699'
p503
tp504
a(S'MPI_Isend()'
p505
S'715'
p506
tp507
a(S'X_MPI_COMM_WORLD()'
p508
S'716'
p509
tp510
a(S'MPI_Isend()'
p511
S'733'
p512
tp513
a(S'X_MPI_COMM_WORLD()'
p514
S'734'
p515
tp516
a(S'MPI_Isend()'
p517
S'751'
p518
tp519
a(S'X_MPI_COMM_WORLD()'
p520
S'752'
p521
tp522
a(S'MPI_Isend()'
p523
S'769'
p524
tp525
a(S'X_MPI_COMM_WORLD()'
p526
S'770'
p527
tp528
a(S'MPI_Isend()'
p529
S'787'
p530
tp531
a(S'X_MPI_COMM_WORLD()'
p532
S'788'
p533
tp534
a(S'MPI_Isend()'
p535
S'805'
p536
tp537
a(S'X_MPI_COMM_WORLD()'
p538
S'806'
p539
tp540
a(S'MPI_Isend()'
p541
S'823'
p542
tp543
a(S'X_MPI_COMM_WORLD()'
p544
S'824'
p545
tp546
a(S'MPI_Isend()'
p547
S'841'
p548
tp549
a(S'X_MPI_COMM_WORLD()'
p550
S'842'
p551
tp552
a(S'MPI_Isend()'
p553
S'859'
p554
tp555
a(S'X_MPI_COMM_WORLD()'
p556
S'860'
p557
tp558
a(S'MPI_Isend()'
p559
S'877'
p560
tp561
a(S'X_MPI_COMM_WORLD()'
p562
S'878'
p563
tp564
a(S'MPI_Isend()'
p565
S'892'
p566
tp567
a(S'X_MPI_COMM_WORLD()'
p568
S'893'
p569
tp570
a(S'MPI_Isend()'
p571
S'906'
p572
tp573
a(S'X_MPI_COMM_WORLD()'
p574
S'907'
p575
tp576
a(S'MPI_Isend()'
p577
S'920'
p578
tp579
a(S'X_MPI_COMM_WORLD()'
p580
S'921'
p581
tp582
a(S'MPI_Isend()'
p583
S'934'
p584
tp585
a(S'X_MPI_COMM_WORLD()'
p586
S'935'
p587
tp588
a(S'MPI_Isend()'
p589
S'948'
p590
tp591
a(S'X_MPI_COMM_WORLD()'
p592
S'949'
p593
tp594
a(S'MPI_Isend()'
p595
S'962'
p596
tp597
a(S'X_MPI_COMM_WORLD()'
p598
S'963'
p599
tp600
a(S'MPI_Isend()'
p601
S'976'
p602
tp603
a(S'X_MPI_COMM_WORLD()'
p604
S'977'
p605
tp606
a(S'MPI_Isend()'
p607
S'990'
p608
tp609
a(S'X_MPI_COMM_WORLD()'
p610
S'991'
p611
tp612
a(S'MPI_Waitall()'
p613
S'996'
p614
tp615
a(S'MPI_Comm_rank()'
p616
S'1043'
p617
tp618
a(S'MPI_Wait()'
p619
S'1052'
p620
tp621
a(S'MPI_Wait()'
p622
S'1066'
p623
tp624
a(S'MPI_Wait()'
p625
S'1085'
p626
tp627
a(S'MPI_Wait()'
p628
S'1101'
p629
tp630
a(S'MPI_Wait()'
p631
S'1121'
p632
tp633
a(S'MPI_Wait()'
p634
S'1137'
p635
tp636
a(S'MPI_Wait()'
p637
S'1154'
p638
tp639
a(S'MPI_Wait()'
p640
S'1168'
p641
tp642
a(S'MPI_Wait()'
p643
S'1182'
p644
tp645
a(S'MPI_Wait()'
p646
S'1197'
p647
tp648
a(S'MPI_Wait()'
p649
S'1212'
p650
tp651
a(S'MPI_Wait()'
p652
S'1227'
p653
tp654
a(S'MPI_Wait()'
p655
S'1242'
p656
tp657
a(S'MPI_Wait()'
p658
S'1257'
p659
tp660
a(S'MPI_Wait()'
p661
S'1272'
p662
tp663
a(S'MPI_Wait()'
p664
S'1287'
p665
tp666
a(S'MPI_Wait()'
p667
S'1302'
p668
tp669
a(S'MPI_Wait()'
p670
S'1317'
p671
tp672
a(S'MPI_Wait()'
p673
S'1334'
p674
tp675
a(S'MPI_Wait()'
p676
S'1346'
p677
tp678
a(S'MPI_Wait()'
p679
S'1358'
p680
tp681
a(S'MPI_Wait()'
p682
S'1370'
p683
tp684
a(S'MPI_Wait()'
p685
S'1382'
p686
tp687
a(S'MPI_Wait()'
p688
S'1394'
p689
tp690
a(S'MPI_Wait()'
p691
S'1406'
p692
tp693
a(S'MPI_Wait()'
p694
S'1418'
p695
tp696
a(S'MPI_Comm_rank()'
p697
S'1478'
p698
tp699
a(S'MPI_Wait()'
p700
S'1487'
p701
tp702
a(S'MPI_Wait()'
p703
S'1501'
p704
tp705
a(S'MPI_Wait()'
p706
S'1520'
p707
tp708
a(S'MPI_Wait()'
p709
S'1536'
p710
tp711
a(S'MPI_Wait()'
p712
S'1556'
p713
tp714
a(S'MPI_Wait()'
p715
S'1572'
p716
tp717
a(S'MPI_Wait()'
p718
S'1589'
p719
tp720
a(S'MPI_Wait()'
p721
S'1603'
p722
tp723
a(S'MPI_Wait()'
p724
S'1617'
p725
tp726
a(S'MPI_Wait()'
p727
S'1632'
p728
tp729
a(S'MPI_Wait()'
p730
S'1647'
p731
tp732
a(S'MPI_Wait()'
p733
S'1662'
p734
tp735
a(S'MPI_Wait()'
p736
S'1677'
p737
tp738
a(S'MPI_Wait()'
p739
S'1692'
p740
tp741
a(S'MPI_Wait()'
p742
S'1707'
p743
tp744
a(S'MPI_Wait()'
p745
S'1722'
p746
tp747
a(S'MPI_Wait()'
p748
S'1737'
p749
tp750
a(S'MPI_Wait()'
p751
S'1752'
p752
tp753
a(S'MPI_Wait()'
p754
S'1769'
p755
tp756
a(S'MPI_Wait()'
p757
S'1781'
p758
tp759
a(S'MPI_Wait()'
p760
S'1793'
p761
tp762
a(S'MPI_Wait()'
p763
S'1805'
p764
tp765
a(S'MPI_Wait()'
p766
S'1817'
p767
tp768
a(S'MPI_Wait()'
p769
S'1829'
p770
tp771
a(S'MPI_Wait()'
p772
S'1841'
p773
tp774
a(S'MPI_Wait()'
p775
S'1853'
p776
tp777
a(S'MPI_Comm_rank()'
p778
S'1907'
p779
tp780
a(S'MPI_Wait()'
p781
S'1916'
p782
tp783
a(S'MPI_Wait()'
p784
S'1930'
p785
tp786
a(S'MPI_Wait()'
p787
S'1950'
p788
tp789
a(S'MPI_Wait()'
p790
S'1964'
p791
tp792
a(S'MPI_Wait()'
p793
S'1983'
p794
tp795
a(S'MPI_Wait()'
p796
S'1997'
p797
tp798
asS'mapredict/OpenARC-devel/nvl/rt/nvlrt-pmemobj.c'
p799
(lp800
(S'MPI_Comm_group()'
p801
S'279'
p802
tp803
a(S'MPI_Group_size()'
p804
S'280'
p805
tp806
a(S'MPI_Group_translate_ranks()'
p807
S'296'
p808
tp809
a(S'MPI_Group_free()'
p810
S'297'
p811
tp812
a(S'MPI_Comm_rank()'
p813
S'603'
p814
tp815
a(S'MPI_Comm_rank()'
p816
S'640'
p817
tp818
a(S'MPI_Type_size()'
p819
S'642'
p820
tp821
a(S'MPI_Isend()'
p822
S'659'
p823
tp824
a(S'MPI_Recv()'
p825
S'662'
p826
tp827
a(S'X_MPI_COMM_WORLD()'
p828
S'663'
p829
tp830
a(S'MPI_Waitall()'
p831
S'664'
p832
tp833
a(S'MPI_Comm_rank()'
p834
S'723'
p835
tp836
a(S'MPI_Comm_rank()'
p837
S'1041'
p838
tp839
a(S'MPI_Comm_create()'
p840
S'1556'
p841
tp842
a(S'MPI_Barrier()'
p843
S'1560'
p844
tp845
a(S'MPI_Comm_free()'
p846
S'1561'
p847
tp848
asS'mapredict/OpenARC-devel/test/benchmarks/openacc/lulesh/lulesh-util.c'
p849
(lp850
(S'MPI_Abort()'
p851
S'53'
p852
tp853
a(S'MPI_Abort()'
p854
S'155'
p855
tp856
asS'mapredict/OpenARC-devel/test/benchmarks/nvl-c/xsbench/GridInit.c'
p857
(lp858
(S'MPI_Comm_rank()'
p859
S'98'
p860
tp861
a(S'MPI_Comm_rank()'
p862
S'161'
p863
tp864
asS'mapredict/OpenARC-devel/test/benchmarks/nvl-c/xsbench/io.c'
p865
(lp866
(S'MPI_Barrier()'
p867
S'50'
p868
tp869
a(S'MPI_Reduce()'
p870
S'51'
p871
tp872
a(S'X_MPI_SUM()'
p873
S'52'
p874
tp875
asS'mapredict/OpenARC-devel/test/benchmarks/nvl-c/kernels/jacobi-mpi-checkpoints/jacobi.c'
p876
(lp877
(S'MPI_Init()'
p878
S'83'
p879
tp880
a(S'MPI_Comm_rank()'
p881
S'88'
p882
tp883
a(S'MPI_Comm_size()'
p884
S'89'
p885
tp886
a(S'MPI_Get_processor_name()'
p887
S'90'
p888
tp889
a(S'MPI_Comm_group()'
p890
S'91'
p891
tp892
a(S'MPI_Abort()'
p893
S'176'
p894
tp895
a(S'MPI_Abort()'
p896
S'194'
p897
tp898
a(S'MPI_Abort()'
p899
S'210'
p900
tp901
a(S'MPI_Abort()'
p902
S'250'
p903
tp904
a(S'MPI_Abort()'
p905
S'267'
p906
tp907
a(S'MPI_Abort()'
p908
S'274'
p909
tp910
a(S'MPI_Send()'
p911
S'318'
p912
tp913
a(S'MPI_Recv()'
p914
S'320'
p915
tp916
a(S'MPI_Send()'
p917
S'324'
p918
tp919
a(S'MPI_Recv()'
p920
S'326'
p921
tp922
a(S'MPI_Abort()'
p923
S'351'
p924
tp925
a(S'MPI_Reduce()'
p926
S'360'
p927
tp928
a(S'MPI_Finalize()'
p929
S'367'
p930
tp931
asS'mapredict/OpenARC-devel/test/benchmarks/openacc/lulesh/lulesh-comm.c'
p932
(lp933
(S'MPI_Comm_rank()'
p934
S'133'
p935
tp936
a(S'MPI_Irecv()'
p937
S'142'
p938
tp939
a(S'X_MPI_COMM_WORLD()'
p940
S'144'
p941
tp942
a(S'MPI_Irecv()'
p943
S'151'
p944
tp945
a(S'X_MPI_COMM_WORLD()'
p946
S'153'
p947
tp948
a(S'MPI_Irecv()'
p949
S'160'
p950
tp951
a(S'X_MPI_COMM_WORLD()'
p952
S'162'
p953
tp954
a(S'MPI_Irecv()'
p955
S'169'
p956
tp957
a(S'X_MPI_COMM_WORLD()'
p958
S'171'
p959
tp960
a(S'MPI_Irecv()'
p961
S'178'
p962
tp963
a(S'X_MPI_COMM_WORLD()'
p964
S'180'
p965
tp966
a(S'MPI_Irecv()'
p967
S'187'
p968
tp969
a(S'X_MPI_COMM_WORLD()'
p970
S'189'
p971
tp972
a(S'MPI_Irecv()'
p973
S'197'
p974
tp975
a(S'X_MPI_COMM_WORLD()'
p976
S'200'
p977
tp978
a(S'MPI_Irecv()'
p979
S'206'
p980
tp981
a(S'X_MPI_COMM_WORLD()'
p982
S'209'
p983
tp984
a(S'MPI_Irecv()'
p985
S'215'
p986
tp987
a(S'X_MPI_COMM_WORLD()'
p988
S'218'
p989
tp990
a(S'MPI_Irecv()'
p991
S'224'
p992
tp993
a(S'X_MPI_COMM_WORLD()'
p994
S'227'
p995
tp996
a(S'MPI_Irecv()'
p997
S'233'
p998
tp999
a(S'X_MPI_COMM_WORLD()'
p1000
S'236'
p1001
tp1002
a(S'MPI_Irecv()'
p1003
S'242'
p1004
tp1005
a(S'X_MPI_COMM_WORLD()'
p1006
S'245'
p1007
tp1008
a(S'MPI_Irecv()'
p1009
S'251'
p1010
tp1011
a(S'X_MPI_COMM_WORLD()'
p1012
S'254'
p1013
tp1014
a(S'MPI_Irecv()'
p1015
S'260'
p1016
tp1017
a(S'X_MPI_COMM_WORLD()'
p1018
S'263'
p1019
tp1020
a(S'MPI_Irecv()'
p1021
S'269'
p1022
tp1023
a(S'X_MPI_COMM_WORLD()'
p1024
S'272'
p1025
tp1026
a(S'MPI_Irecv()'
p1027
S'278'
p1028
tp1029
a(S'X_MPI_COMM_WORLD()'
p1030
S'281'
p1031
tp1032
a(S'MPI_Irecv()'
p1033
S'287'
p1034
tp1035
a(S'X_MPI_COMM_WORLD()'
p1036
S'290'
p1037
tp1038
a(S'MPI_Irecv()'
p1039
S'296'
p1040
tp1041
a(S'X_MPI_COMM_WORLD()'
p1042
S'299'
p1043
tp1044
a(S'MPI_Irecv()'
p1045
S'307'
p1046
tp1047
a(S'X_MPI_COMM_WORLD()'
p1048
S'311'
p1049
tp1050
a(S'MPI_Irecv()'
p1051
S'317'
p1052
tp1053
a(S'X_MPI_COMM_WORLD()'
p1054
S'321'
p1055
tp1056
a(S'MPI_Irecv()'
p1057
S'327'
p1058
tp1059
a(S'X_MPI_COMM_WORLD()'
p1060
S'331'
p1061
tp1062
a(S'MPI_Irecv()'
p1063
S'337'
p1064
tp1065
a(S'X_MPI_COMM_WORLD()'
p1066
S'341'
p1067
tp1068
a(S'MPI_Irecv()'
p1069
S'347'
p1070
tp1071
a(S'X_MPI_COMM_WORLD()'
p1072
S'351'
p1073
tp1074
a(S'MPI_Irecv()'
p1075
S'357'
p1076
tp1077
a(S'X_MPI_COMM_WORLD()'
p1078
S'361'
p1079
tp1080
a(S'MPI_Irecv()'
p1081
S'367'
p1082
tp1083
a(S'X_MPI_COMM_WORLD()'
p1084
S'371'
p1085
tp1086
a(S'MPI_Irecv()'
p1087
S'377'
p1088
tp1089
a(S'X_MPI_COMM_WORLD()'
p1090
S'381'
p1091
tp1092
a(S'MPI_Comm_rank()'
p1093
S'442'
p1094
tp1095
a(S'MPI_Type_vector()'
p1096
S'456'
p1097
tp1098
a(S'MPI_Type_commit()'
p1099
S'459'
p1100
tp1101
a(S'MPI_Isend()'
p1102
S'483'
p1103
tp1104
a(S'X_MPI_COMM_WORLD()'
p1105
S'485'
p1106
tp1107
a(S'MPI_Isend()'
p1108
S'504'
p1109
tp1110
a(S'X_MPI_COMM_WORLD()'
p1111
S'506'
p1112
tp1113
a(S'MPI_Type_vector()'
p1114
S'523'
p1115
tp1116
a(S'MPI_Type_commit()'
p1117
S'524'
p1118
tp1119
a(S'MPI_Type_vector()'
p1120
S'526'
p1121
tp1122
a(S'MPI_Type_commit()'
p1123
S'528'
p1124
tp1125
a(S'MPI_Isend()'
p1126
S'555'
p1127
tp1128
a(S'X_MPI_COMM_WORLD()'
p1129
S'557'
p1130
tp1131
a(S'MPI_Isend()'
p1132
S'579'
p1133
tp1134
a(S'X_MPI_COMM_WORLD()'
p1135
S'581'
p1136
tp1137
a(S'MPI_Type_vector()'
p1138
S'599'
p1139
tp1140
a(S'MPI_Type_commit()'
p1141
S'600'
p1142
tp1143
a(S'MPI_Type_vector()'
p1144
S'603'
p1145
tp1146
a(S'MPI_Type_commit()'
p1147
S'604'
p1148
tp1149
a(S'MPI_Type_vector()'
p1150
S'606'
p1151
tp1152
a(S'MPI_Type_commit()'
p1153
S'608'
p1154
tp1155
a(S'MPI_Isend()'
p1156
S'636'
p1157
tp1158
a(S'X_MPI_COMM_WORLD()'
p1159
S'638'
p1160
tp1161
a(S'MPI_Isend()'
p1162
S'661'
p1163
tp1164
a(S'X_MPI_COMM_WORLD()'
p1165
S'663'
p1166
tp1167
a(S'MPI_Isend()'
p1168
S'681'
p1169
tp1170
a(S'X_MPI_COMM_WORLD()'
p1171
S'682'
p1172
tp1173
a(S'MPI_Isend()'
p1174
S'698'
p1175
tp1176
a(S'X_MPI_COMM_WORLD()'
p1177
S'699'
p1178
tp1179
a(S'MPI_Isend()'
p1180
S'715'
p1181
tp1182
a(S'X_MPI_COMM_WORLD()'
p1183
S'716'
p1184
tp1185
a(S'MPI_Isend()'
p1186
S'733'
p1187
tp1188
a(S'X_MPI_COMM_WORLD()'
p1189
S'734'
p1190
tp1191
a(S'MPI_Isend()'
p1192
S'751'
p1193
tp1194
a(S'X_MPI_COMM_WORLD()'
p1195
S'752'
p1196
tp1197
a(S'MPI_Isend()'
p1198
S'769'
p1199
tp1200
a(S'X_MPI_COMM_WORLD()'
p1201
S'770'
p1202
tp1203
a(S'MPI_Isend()'
p1204
S'787'
p1205
tp1206
a(S'X_MPI_COMM_WORLD()'
p1207
S'788'
p1208
tp1209
a(S'MPI_Isend()'
p1210
S'805'
p1211
tp1212
a(S'X_MPI_COMM_WORLD()'
p1213
S'806'
p1214
tp1215
a(S'MPI_Isend()'
p1216
S'823'
p1217
tp1218
a(S'X_MPI_COMM_WORLD()'
p1219
S'824'
p1220
tp1221
a(S'MPI_Isend()'
p1222
S'841'
p1223
tp1224
a(S'X_MPI_COMM_WORLD()'
p1225
S'842'
p1226
tp1227
a(S'MPI_Isend()'
p1228
S'859'
p1229
tp1230
a(S'X_MPI_COMM_WORLD()'
p1231
S'860'
p1232
tp1233
a(S'MPI_Isend()'
p1234
S'877'
p1235
tp1236
a(S'X_MPI_COMM_WORLD()'
p1237
S'878'
p1238
tp1239
a(S'MPI_Isend()'
p1240
S'892'
p1241
tp1242
a(S'X_MPI_COMM_WORLD()'
p1243
S'893'
p1244
tp1245
a(S'MPI_Isend()'
p1246
S'906'
p1247
tp1248
a(S'X_MPI_COMM_WORLD()'
p1249
S'907'
p1250
tp1251
a(S'MPI_Isend()'
p1252
S'920'
p1253
tp1254
a(S'X_MPI_COMM_WORLD()'
p1255
S'921'
p1256
tp1257
a(S'MPI_Isend()'
p1258
S'934'
p1259
tp1260
a(S'X_MPI_COMM_WORLD()'
p1261
S'935'
p1262
tp1263
a(S'MPI_Isend()'
p1264
S'948'
p1265
tp1266
a(S'X_MPI_COMM_WORLD()'
p1267
S'949'
p1268
tp1269
a(S'MPI_Isend()'
p1270
S'962'
p1271
tp1272
a(S'X_MPI_COMM_WORLD()'
p1273
S'963'
p1274
tp1275
a(S'MPI_Isend()'
p1276
S'976'
p1277
tp1278
a(S'X_MPI_COMM_WORLD()'
p1279
S'977'
p1280
tp1281
a(S'MPI_Isend()'
p1282
S'990'
p1283
tp1284
a(S'X_MPI_COMM_WORLD()'
p1285
S'991'
p1286
tp1287
a(S'MPI_Waitall()'
p1288
S'996'
p1289
tp1290
a(S'MPI_Comm_rank()'
p1291
S'1043'
p1292
tp1293
a(S'MPI_Wait()'
p1294
S'1052'
p1295
tp1296
a(S'MPI_Wait()'
p1297
S'1066'
p1298
tp1299
a(S'MPI_Wait()'
p1300
S'1085'
p1301
tp1302
a(S'MPI_Wait()'
p1303
S'1101'
p1304
tp1305
a(S'MPI_Wait()'
p1306
S'1121'
p1307
tp1308
a(S'MPI_Wait()'
p1309
S'1137'
p1310
tp1311
a(S'MPI_Wait()'
p1312
S'1154'
p1313
tp1314
a(S'MPI_Wait()'
p1315
S'1168'
p1316
tp1317
a(S'MPI_Wait()'
p1318
S'1182'
p1319
tp1320
a(S'MPI_Wait()'
p1321
S'1197'
p1322
tp1323
a(S'MPI_Wait()'
p1324
S'1212'
p1325
tp1326
a(S'MPI_Wait()'
p1327
S'1227'
p1328
tp1329
a(S'MPI_Wait()'
p1330
S'1242'
p1331
tp1332
a(S'MPI_Wait()'
p1333
S'1257'
p1334
tp1335
a(S'MPI_Wait()'
p1336
S'1272'
p1337
tp1338
a(S'MPI_Wait()'
p1339
S'1287'
p1340
tp1341
a(S'MPI_Wait()'
p1342
S'1302'
p1343
tp1344
a(S'MPI_Wait()'
p1345
S'1317'
p1346
tp1347
a(S'MPI_Wait()'
p1348
S'1334'
p1349
tp1350
a(S'MPI_Wait()'
p1351
S'1346'
p1352
tp1353
a(S'MPI_Wait()'
p1354
S'1358'
p1355
tp1356
a(S'MPI_Wait()'
p1357
S'1370'
p1358
tp1359
a(S'MPI_Wait()'
p1360
S'1382'
p1361
tp1362
a(S'MPI_Wait()'
p1363
S'1394'
p1364
tp1365
a(S'MPI_Wait()'
p1366
S'1406'
p1367
tp1368
a(S'MPI_Wait()'
p1369
S'1418'
p1370
tp1371
a(S'MPI_Comm_rank()'
p1372
S'1478'
p1373
tp1374
a(S'MPI_Wait()'
p1375
S'1487'
p1376
tp1377
a(S'MPI_Wait()'
p1378
S'1501'
p1379
tp1380
a(S'MPI_Wait()'
p1381
S'1520'
p1382
tp1383
a(S'MPI_Wait()'
p1384
S'1536'
p1385
tp1386
a(S'MPI_Wait()'
p1387
S'1556'
p1388
tp1389
a(S'MPI_Wait()'
p1390
S'1572'
p1391
tp1392
a(S'MPI_Wait()'
p1393
S'1589'
p1394
tp1395
a(S'MPI_Wait()'
p1396
S'1603'
p1397
tp1398
a(S'MPI_Wait()'
p1399
S'1617'
p1400
tp1401
a(S'MPI_Wait()'
p1402
S'1632'
p1403
tp1404
a(S'MPI_Wait()'
p1405
S'1647'
p1406
tp1407
a(S'MPI_Wait()'
p1408
S'1662'
p1409
tp1410
a(S'MPI_Wait()'
p1411
S'1677'
p1412
tp1413
a(S'MPI_Wait()'
p1414
S'1692'
p1415
tp1416
a(S'MPI_Wait()'
p1417
S'1707'
p1418
tp1419
a(S'MPI_Wait()'
p1420
S'1722'
p1421
tp1422
a(S'MPI_Wait()'
p1423
S'1737'
p1424
tp1425
a(S'MPI_Wait()'
p1426
S'1752'
p1427
tp1428
a(S'MPI_Wait()'
p1429
S'1769'
p1430
tp1431
a(S'MPI_Wait()'
p1432
S'1781'
p1433
tp1434
a(S'MPI_Wait()'
p1435
S'1793'
p1436
tp1437
a(S'MPI_Wait()'
p1438
S'1805'
p1439
tp1440
a(S'MPI_Wait()'
p1441
S'1817'
p1442
tp1443
a(S'MPI_Wait()'
p1444
S'1829'
p1445
tp1446
a(S'MPI_Wait()'
p1447
S'1841'
p1448
tp1449
a(S'MPI_Wait()'
p1450
S'1853'
p1451
tp1452
a(S'MPI_Comm_rank()'
p1453
S'1907'
p1454
tp1455
a(S'MPI_Wait()'
p1456
S'1916'
p1457
tp1458
a(S'MPI_Wait()'
p1459
S'1930'
p1460
tp1461
a(S'MPI_Wait()'
p1462
S'1950'
p1463
tp1464
a(S'MPI_Wait()'
p1465
S'1964'
p1466
tp1467
a(S'MPI_Wait()'
p1468
S'1983'
p1469
tp1470
a(S'MPI_Wait()'
p1471
S'1997'
p1472
tp1473
asS'mapredict/OpenARC-devel/test/benchmarks/impacc/ep/ep.c'
p1474
(lp1475
(S'MPI_Init()'
p1476
S'74'
p1477
tp1478
a(S'MPI_Comm_rank()'
p1479
S'75'
p1480
tp1481
a(S'MPI_Comm_size()'
p1482
S'76'
p1483
tp1484
a(S'MPI_Abort()'
p1485
S'114'
p1486
tp1487
a(S'MPI_Allreduce()'
p1488
S'329'
p1489
tp1490
a(S'MPI_Allreduce()'
p1491
S'331'
p1492
tp1493
a(S'MPI_Allreduce()'
p1494
S'335'
p1495
tp1496
a(S'MPI_Allreduce()'
p1497
S'341'
p1498
tp1499
a(S'MPI_Allreduce()'
p1500
S'342'
p1501
tp1502
a(S'MPI_Allreduce()'
p1503
S'343'
p1504
tp1505
a(S'MPI_Allreduce()'
p1506
S'344'
p1507
tp1508
a(S'MPI_Allreduce()'
p1509
S'345'
p1510
tp1511
a(S'MPI_Allreduce()'
p1512
S'346'
p1513
tp1514
a(S'MPI_Allreduce()'
p1515
S'347'
p1516
tp1517
a(S'MPI_Allreduce()'
p1518
S'348'
p1519
tp1520
a(S'MPI_Allreduce()'
p1521
S'349'
p1522
tp1523
a(S'MPI_Allreduce()'
p1524
S'350'
p1525
tp1526
a(S'MPI_Allreduce()'
p1527
S'359'
p1528
tp1529
a(S'MPI_Finalize()'
p1530
S'431'
p1531
tp1532
asS'mapredict/OpenARC-devel/test/benchmarks/impacc/lulesh/lulesh-init.c'
p1533
(lp1534
(S'MPI_Comm_size()'
p1535
S'173'
p1536
tp1537
a(S'MPI_Comm_rank()'
p1538
S'174'
p1539
tp1540
a(S'MPI_Abort()'
p1541
S'398'
p1542
tp1543
a(S'MPI_Comm_rank()'
p1544
S'486'
p1545
tp1546
a(S'MPI_Abort()'
p1547
S'819'
p1548
tp1549
a(S'MPI_Abort()'
p1550
S'827'
p1551
tp1552
a(S'MPI_Abort()'
p1553
S'835'
p1554
tp1555
a(S'MPI_Abort()'
p1556
S'849'
p1557
tp1558
asS'mapredict/OpenARC-devel/test/benchmarks/impacc/jacobi/jacobi.c'
p1559
(lp1560
(S'MPI_Init()'
p1561
S'30'
p1562
tp1563
a(S'MPI_Comm_rank()'
p1564
S'31'
p1565
tp1566
a(S'MPI_Comm_size()'
p1567
S'32'
p1568
tp1569
a(S'MPI_Wtime()'
p1570
S'60'
p1571
tp1572
a(S'MPI_Wtime()'
p1573
S'66'
p1574
tp1575
a(S'MPI_Send()'
p1576
S'71'
p1577
tp1578
a(S'MPI_Recv()'
p1579
S'75'
p1580
tp1581
a(S'MPI_Send()'
p1582
S'80'
p1583
tp1584
a(S'MPI_Recv()'
p1585
S'84'
p1586
tp1587
a(S'MPI_Allreduce()'
p1588
S'107'
p1589
tp1590
a(S'MPI_Wtime()'
p1591
S'110'
p1592
tp1593
a(S'MPI_Wtime()'
p1594
S'118'
p1595
tp1596
a(S'MPI_Finalize()'
p1597
S'123'
p1598
tp1599
asS'mapredict/OpenARC-devel/test/benchmarks/impacc/ep/c_timers.c'
p1600
(lp1601
(S'MPI_Wtime()'
p1602
S'32'
p1603
tp1604
asS'mapredict/OpenARC-devel/test/examples/openarc/jacobi_mpi/jacobi_mpi.c'
p1605
(lp1606
(S'MPI_Init()'
p1607
S'32'
p1608
tp1609
a(S'MPI_Comm_rank()'
p1610
S'33'
p1611
tp1612
a(S'MPI_Comm_size()'
p1613
S'34'
p1614
tp1615
a(S'MPI_Wtime()'
p1616
S'62'
p1617
tp1618
a(S'MPI_Wtime()'
p1619
S'66'
p1620
tp1621
a(S'MPI_Send()'
p1622
S'70'
p1623
tp1624
a(S'MPI_Recv()'
p1625
S'72'
p1626
tp1627
a(S'MPI_Send()'
p1628
S'75'
p1629
tp1630
a(S'MPI_Recv()'
p1631
S'77'
p1632
tp1633
a(S'MPI_Allreduce()'
p1634
S'99'
p1635
tp1636
a(S'MPI_Wtime()'
p1637
S'102'
p1638
tp1639
a(S'MPI_Wtime()'
p1640
S'108'
p1641
tp1642
a(S'MPI_Finalize()'
p1643
S'113'
p1644
tp1645
asS'mapredict/OpenARC-devel/impacc/src/runtime.cpp'
p1646
(lp1647
(S'MPI_Comm_size()'
p1648
S'21'
p1649
tp1650
a(S'MPI_Comm_rank()'
p1651
S'22'
p1652
tp1653
a(S'MPI_Get_processor_name()'
p1654
S'23'
p1655
tp1656
a(S'MPI_Finalize()'
p1657
S'34'
p1658
tp1659
a(S'MPI_Wait()'
p1660
S'136'
p1661
tp1662
a(S'MPI_Send()'
p1663
S'157'
p1664
tp1665
a(S'MPI_Isend()'
p1666
S'173'
p1667
tp1668
a(S'MPI_Recv()'
p1669
S'298'
p1670
tp1671
a(S'MPI_Irecv()'
p1672
S'313'
p1673
tp1674
a(S'MPI_Test()'
p1675
S'582'
p1676
tp1677
a(S'MPI_Isend()'
p1678
S'662'
p1679
tp1680
a(S'MPI_Send()'
p1681
S'666'
p1682
tp1683
a(S'MPI_Irecv()'
p1684
S'695'
p1685
tp1686
a(S'MPI_Irecv()'
p1687
S'698'
p1688
tp1689
a(S'MPI_Recv()'
p1690
S'704'
p1691
tp1692
a(S'MPI_Recv()'
p1693
S'709'
p1694
tp1695
a(S'MPI_Recv()'
p1696
S'712'
p1697
tp1698
a(S'MPI_Bcast()'
p1699
S'751'
p1700
tp1701
a(S'MPI_Reduce()'
p1702
S'826'
p1703
tp1704
a(S'MPI_Allreduce()'
p1705
S'905'
p1706
tp1707
a(S'MPI_Barrier()'
p1708
S'919'
p1709
tp1710
a(S'MPI_Type_commit()'
p1711
S'925'
p1712
tp1713
asS'mapredict/OpenARC-devel/test/benchmarks/openacc/lulesh/lulesh.c'
p1714
(lp1715
(S'MPI_Allreduce()'
p1716
S'409'
p1717
tp1718
a(S'MPI_Abort()'
p1719
S'1737'
p1720
tp1721
a(S'MPI_Abort()'
p1722
S'1815'
p1723
tp1724
a(S'MPI_Abort()'
p1725
S'2847'
p1726
tp1727
a(S'MPI_Abort()'
p1728
S'3409'
p1729
tp1730
a(S'MPI_Abort()'
p1731
S'4110'
p1732
tp1733
a(S'MPI_Init()'
p1734
S'4544'
p1735
tp1736
a(S'MPI_Comm_size()'
p1737
S'4545'
p1738
tp1739
a(S'MPI_Comm_rank()'
p1740
S'4546'
p1741
tp1742
a(S'MPI_Barrier()'
p1743
S'4611'
p1744
tp1745
a(S'MPI_Wtime()'
p1746
S'4617'
p1747
tp1748
a(S'MPI_Wtime()'
p1749
S'4885'
p1750
tp1751
a(S'MPI_Reduce()'
p1752
S'4891'
p1753
tp1754
a(S'MPI_Finalize()'
p1755
S'4909'
p1756
tp1757
asS'mapredict/OpenARC-devel/impacc/src/impacc_app.h'
p1758
(lp1759
(S'MPI_Init_thread()'
p1760
S'10'
p1761
tp1762
as.