ccollections
defaultdict
p0
(c__builtin__
list
p1
tp2
Rp3
S'wcg_ai_soccer/extlibs/boost-1.65.1/include/boost/graph/distributed/page_rank.hpp'
p4
(lp5
(S'MPI_Comm_rank()'
p6
S'40'
p7
tp8
a(S'MPI_Accumulate()'
p9
S'53'
p10
tp11
a(S'MPI_Win_fence()'
p12
S'60'
p13
tp14
a(S'MPI_Comm_rank()'
p15
S'90'
p16
tp17
a(S'MPI_Win_create()'
p18
S'115'
p19
tp20
a(S'X_MPI_INFO_NULL()'
p21
S'118'
p22
tp23
a(S'MPI_Win_set_name()'
p24
S'119'
p25
tp26
a(S'MPI_Win_create()'
p27
S'120'
p28
tp29
a(S'X_MPI_INFO_NULL()'
p30
S'123'
p31
tp32
a(S'MPI_Win_set_name()'
p33
S'124'
p34
tp35
a(S'MPI_Win_fence()'
p36
S'129'
p37
tp38
a(S'MPI_Win_fence()'
p39
S'130'
p40
tp41
a(S'MPI_Win_free()'
p42
S'144'
p43
tp44
a(S'MPI_Win_free()'
p45
S'145'
p46
tp47
asS'wcg_ai_soccer/extlibs/boost-1.65.1/include/boost/mpi/communicator.hpp'
p48
(lp49
(S'MPI_Comm()'
p50
S'1366'
p51
tp52
a(S'MPI_Comm()'
p53
S'1566'
p54
tp55
a(S'MPI_Comm()'
p56
S'1589'
p57
tp58
a(S'MPI_Comm()'
p59
S'1625'
p60
tp61
a(S'MPI_Comm()'
p62
S'1648'
p63
tp64
asS'wcg_ai_soccer/extlibs/boost-1.65.1/include/boost/graph/distributed/detail/mpi_process_group.ipp'
p65
(lp66
(S'MPI_Recv()'
p67
S'493'
p68
tp69
a(S'MPI_Get_count()'
p70
S'511'
p71
tp72
a(S'MPI_Recv()'
p73
S'517'
p74
tp75
a(S'MPI_Irecv()'
p76
S'666'
p77
tp78
a(S'X_MPI_PACKED()'
p79
S'667'
p80
tp81
a(S'MPI_Allgather()'
p82
S'838'
p83
tp84
a(S'MPI_Allgatherv()'
p85
S'857'
p86
tp87
a(S'X_MPI_BYTE()'
p88
S'860'
p89
tp90
a(S'MPI_Comm_group()'
p91
S'881'
p92
tp93
a(S'MPI_Group_incl()'
p94
S'885'
p95
tp96
a(S'MPI_Comm_create()'
p97
S'889'
p98
tp99
a(S'MPI_Group_free()'
p100
S'892'
p101
tp102
a(S'MPI_Group_free()'
p103
S'894'
p104
tp105
a(S'MPI_Comm_free()'
p106
S'899'
p107
tp108
a(S'MPI_Irecv()'
p109
S'930'
p110
tp111
a(S'MPI_Test()'
p112
S'935'
p113
tp114
a(S'MPI_Get_count()'
p115
S'968'
p116
tp117
a(S'MPI_Recv()'
p118
S'973'
p119
tp120
asS'wcg_ai_soccer/extlibs/boost-1.65.1/include/boost/mpi/exception.hpp'
p121
(lp122
(S'MPI_Error_class()'
p123
S'73'
p124
tp125
asS'wcg_ai_soccer/extlibs/boost-1.65.1/include/boost/graph/distributed/mpi_process_group.hpp'
p126
(lp127
(S'MPI_Bsend()'
p128
S'709'
p129
tp130
a(S'MPI_Isend()'
p131
S'715'
p132
tp133
a(S'MPI_Test()'
p134
S'721'
p135
tp136
a(S'MPI_Bsend()'
p137
S'745'
p138
tp139
a(S'MPI_Isend()'
p140
S'751'
p141
tp142
a(S'MPI_Test()'
p143
S'757'
p144
tp145
asS'wcg_ai_soccer/extlibs/boost-1.65.1/include/boost/mpi/datatype.hpp'
p146
(lp147
(S'X_MPI_LONG_DOUBLE_INT()'
p148
S'254'
p149
tp150
a(S'MPI_Type_contiguous()'
p151
S'323'
p152
tp153
a(S'MPI_Type_commit()'
p154
S'324'
p155
tp156
asS'wcg_ai_soccer/extlibs/boost-1.65.1/include/boost/mpi/allocator.hpp'
p157
(lp158
(S'X_MPI_INFO_NULL()'
p159
S'141'
p160
tp161
asS'wcg_ai_soccer/extlibs/boost-1.65.1/include/boost/mpi/operations.hpp'
p162
(lp163
(S'MPI_Op_free()'
p164
S'293'
p165
tp166
asS'wcg_ai_soccer/extlibs/boost-1.65.1/include/boost/mpi/timer.hpp'
p167
(lp168
(S'MPI_Wtime()'
p169
S'71'
p170
tp171
as.