ccollections
defaultdict
p0
(c__builtin__
list
p1
tp2
Rp3
S'AntSimulator/AntSimulator/vendor/boost_1_76_0/libs/mpi/src/point_to_point.cpp'
p4
(lp5
(S'X_MPI_PACKED()'
p6
S'50'
p7
tp8
asS'AntSimulator/AntSimulator/vendor/boost_1_76_0/boost/mpi/operations.hpp'
p9
(lp10
(S'MPI_Op_free()'
p11
S'310'
p12
tp13
asS'AntSimulator/AntSimulator/vendor/boost_1_76_0/libs/mpi/doc/getting_started.qbk'
p14
(lp15
(S'MPI_Init()'
p16
S'25'
p17
tp18
a(S'MPI_Comm_rank()'
p19
S'28'
p20
tp21
a(S'MPI_Send()'
p22
S'31'
p23
tp24
a(S'MPI_Recv()'
p25
S'36'
p26
tp27
a(S'MPI_Finalize()'
p28
S'41'
p29
tp30
asS'AntSimulator/AntSimulator/vendor/boost_1_76_0/libs/mpi/src/communicator.cpp'
p31
(lp32
(S'MPI_Comm_set_errhandler()'
p33
S'33'
p34
tp35
asS'AntSimulator/AntSimulator/vendor/boost_1_76_0/boost/mpi/datatype.hpp'
p36
(lp37
(S'X_MPI_LONG_DOUBLE_INT()'
p38
S'254'
p39
tp40
a(S'MPI_Type_contiguous()'
p41
S'323'
p42
tp43
a(S'MPI_Type_commit()'
p44
S'324'
p45
tp46
asS'AntSimulator/AntSimulator/vendor/boost_1_76_0/libs/mpi/src/request.cpp'
p47
(lp48
(S'X_MPI_PACKED()'
p49
S'87'
p50
tp51
a(S'MPI_Waitall()'
p52
S'166'
p53
tp54
a(S'MPI_Testall()'
p55
S'194'
p56
tp57
asS'AntSimulator/AntSimulator/vendor/boost_1_76_0/boost/mpi/collectives/all_gather.hpp'
p58
(lp59
(S'MPI_Comm()'
p60
S'62'
p61
tp62
a(S'MPI_Comm()'
p63
S'73'
p64
tp65
asS'AntSimulator/AntSimulator/vendor/boost_1_76_0/boost/mpi/allocator.hpp'
p66
(lp67
(S'X_MPI_INFO_NULL()'
p68
S'141'
p69
tp70
asS'AntSimulator/AntSimulator/vendor/boost_1_76_0/boost/graph/distributed/mpi_process_group.hpp'
p71
(lp72
(S'MPI_Bsend()'
p73
S'709'
p74
tp75
a(S'MPI_Isend()'
p76
S'715'
p77
tp78
a(S'MPI_Test()'
p79
S'721'
p80
tp81
a(S'MPI_Bsend()'
p82
S'745'
p83
tp84
a(S'MPI_Isend()'
p85
S'751'
p86
tp87
a(S'MPI_Test()'
p88
S'757'
p89
tp90
asS'AntSimulator/AntSimulator/vendor/boost_1_76_0/boost/mpi/communicator.hpp'
p91
(lp92
(S'MPI_Comm()'
p93
S'1483'
p94
tp95
asS'AntSimulator/AntSimulator/vendor/boost_1_76_0/libs/mpi/src/error_string.cpp'
p96
(lp97
(S'MPI_Error_string()'
p98
S'16'
p99
tp100
asS'AntSimulator/AntSimulator/vendor/boost_1_76_0/boost/mpi/collectives/broadcast.hpp'
p101
(lp102
(S'X_MPI_BYTE()'
p103
S'120'
p104
tp105
a(S'X_MPI_BYTE()'
p106
S'130'
p107
tp108
asS'AntSimulator/AntSimulator/vendor/boost_1_76_0/boost/graph/distributed/page_rank.hpp'
p109
(lp110
(S'MPI_Comm_rank()'
p111
S'40'
p112
tp113
a(S'MPI_Accumulate()'
p114
S'53'
p115
tp116
a(S'MPI_Win_fence()'
p117
S'60'
p118
tp119
a(S'MPI_Comm_rank()'
p120
S'90'
p121
tp122
a(S'MPI_Win_create()'
p123
S'115'
p124
tp125
a(S'X_MPI_INFO_NULL()'
p126
S'118'
p127
tp128
a(S'MPI_Win_set_name()'
p129
S'119'
p130
tp131
a(S'MPI_Win_create()'
p132
S'120'
p133
tp134
a(S'X_MPI_INFO_NULL()'
p135
S'123'
p136
tp137
a(S'MPI_Win_set_name()'
p138
S'124'
p139
tp140
a(S'MPI_Win_fence()'
p141
S'129'
p142
tp143
a(S'MPI_Win_fence()'
p144
S'130'
p145
tp146
a(S'MPI_Win_free()'
p147
S'144'
p148
tp149
a(S'MPI_Win_free()'
p150
S'145'
p151
tp152
asS'AntSimulator/AntSimulator/vendor/boost_1_76_0/boost/mpi/timer.hpp'
p153
(lp154
(S'MPI_Wtime()'
p155
S'71'
p156
tp157
asS'AntSimulator/AntSimulator/vendor/boost_1_76_0/libs/graph_parallel/test/distributed_betweenness_centrality_test.cpp'
p158
(lp159
(S'MPI_Abort()'
p160
S'292'
p161
tp162
asS'AntSimulator/AntSimulator/vendor/boost_1_76_0/boost/mpi/detail/request_handlers.hpp'
p163
(lp164
(S'MPI_Comm()'
p165
S'324'
p166
tp167
a(S'MPI_Comm()'
p168
S'349'
p169
tp170
a(S'MPI_Comm()'
p171
S'392'
p172
tp173
a(S'MPI_Comm()'
p174
S'417'
p175
tp176
a(S'MPI_Comm()'
p177
S'461'
p178
tp179
a(S'MPI_Comm()'
p180
S'483'
p181
tp182
asS'AntSimulator/AntSimulator/vendor/boost_1_76_0/libs/graph_parallel/src/mpi_process_group.cpp'
p183
(lp184
(S'MPI_Cancel()'
p185
S'142'
p186
tp187
a(S'MPI_Isend()'
p188
S'561'
p189
tp190
a(S'X_MPI_PACKED()'
p191
S'562'
p192
tp193
a(S'MPI_Test()'
p194
S'570'
p195
tp196
a(S'MPI_Get_count()'
p197
S'732'
p198
tp199
a(S'MPI_Recv()'
p200
S'739'
p201
tp202
a(S'MPI_Isend()'
p203
S'823'
p204
tp205
a(S'MPI_Test()'
p206
S'827'
p207
tp208
a(S'MPI_Testsome()'
p209
S'930'
p210
tp211
a(S'MPI_Test()'
p212
S'1037'
p213
tp214
a(S'MPI_Test()'
p215
S'1048'
p216
tp217
a(S'MPI_Buffer_detach()'
p218
S'1095'
p219
tp220
a(S'MPI_Buffer_detach()'
p221
S'1100'
p222
tp223
a(S'MPI_Buffer_attach()'
p224
S'1103'
p225
tp226
a(S'MPI_Buffer_attach()'
p227
S'1105'
p228
tp229
asS'AntSimulator/AntSimulator/vendor/boost_1_76_0/libs/mpi/example/reduce_performance_test.cpp'
p230
(lp231
(S'MPI_Reduce()'
p232
S'94'
p233
tp234
asS'AntSimulator/AntSimulator/vendor/boost_1_76_0/libs/mpi/test/sendrecv_vector.cpp'
p235
(lp236
(S'MPI_Type_create_struct()'
p237
S'46'
p238
tp239
a(S'MPI_Type_commit()'
p240
S'53'
p241
tp242
asS'AntSimulator/AntSimulator/vendor/boost_1_76_0/boost/graph/distributed/detail/mpi_process_group.ipp'
p243
(lp244
(S'MPI_Recv()'
p245
S'493'
p246
tp247
a(S'MPI_Get_count()'
p248
S'511'
p249
tp250
a(S'MPI_Recv()'
p251
S'517'
p252
tp253
a(S'MPI_Irecv()'
p254
S'666'
p255
tp256
a(S'X_MPI_PACKED()'
p257
S'667'
p258
tp259
a(S'MPI_Allgather()'
p260
S'838'
p261
tp262
a(S'MPI_Allgatherv()'
p263
S'866'
p264
tp265
a(S'X_MPI_BYTE()'
p266
S'869'
p267
tp268
a(S'MPI_Comm_group()'
p269
S'890'
p270
tp271
a(S'MPI_Group_incl()'
p272
S'895'
p273
tp274
a(S'MPI_Comm_create()'
p275
S'899'
p276
tp277
a(S'MPI_Group_free()'
p278
S'902'
p279
tp280
a(S'MPI_Group_free()'
p281
S'904'
p282
tp283
a(S'MPI_Comm_free()'
p284
S'909'
p285
tp286
a(S'MPI_Irecv()'
p287
S'940'
p288
tp289
a(S'MPI_Test()'
p290
S'945'
p291
tp292
a(S'MPI_Get_count()'
p293
S'978'
p294
tp295
a(S'MPI_Recv()'
p296
S'983'
p297
tp298
asS'AntSimulator/AntSimulator/vendor/boost_1_76_0/boost/mpi/exception.hpp'
p299
(lp300
(S'MPI_Error_class()'
p301
S'74'
p302
tp303
asS'AntSimulator/AntSimulator/vendor/boost_1_76_0/libs/mpi/src/environment.cpp'
p304
(lp305
(S'MPI_Comm_set_errhandler()'
p306
S'76'
p307
tp308
a(S'MPI_Errhandler_set()'
p309
S'78'
p310
tp311
a(S'MPI_Comm_set_errhandler()'
p312
S'95'
p313
tp314
a(S'MPI_Errhandler_set()'
p315
S'97'
p316
tp317
a(S'MPI_Comm_set_errhandler()'
p318
S'112'
p319
tp320
a(S'MPI_Errhandler_set()'
p321
S'114'
p322
tp323
a(S'MPI_Comm_set_errhandler()'
p324
S'132'
p325
tp326
a(S'MPI_Errhandler_set()'
p327
S'134'
p328
tp329
asS'AntSimulator/AntSimulator/vendor/boost_1_76_0/libs/mpi/src/mpi_datatype_cache.cpp'
p330
(lp331
(S'MPI_Type_free()'
p332
S'36'
p333
tp334
as.