ccollections
defaultdict
p0
(c__builtin__
list
p1
tp2
Rp3
S'gromacs-gmxapi/src/gromacs/ewald/pme.cpp'
p4
(lp5
(S'MPI_Comm_size()'
p6
S'340'
p7
tp8
a(S'MPI_Comm_rank()'
p9
S'341'
p10
tp11
a(S'MPI_Sendrecv()'
p12
S'546'
p13
tp14
a(S'MPI_Comm_rank()'
p15
S'673'
p16
tp17
a(S'MPI_Comm_size()'
p18
S'674'
p19
tp20
a(S'MPI_Comm_split()'
p21
S'731'
p22
tp23
a(S'MPI_Comm_split()'
p24
S'733'
p25
tp26
a(S'MPI_Comm_rank()'
p27
S'736'
p28
tp29
a(S'MPI_Comm_size()'
p30
S'737'
p31
tp32
a(S'MPI_Comm_rank()'
p33
S'738'
p34
tp35
a(S'MPI_Comm_size()'
p36
S'739'
p37
tp38
a(S'MPI_Allreduce()'
p39
S'752'
p40
tp41
a(S'X_MPI_SUM()'
p42
S'753'
p43
tp44
a(S'MPI_Type_contiguous()'
p45
S'811'
p46
tp47
a(S'MPI_Type_commit()'
p48
S'812'
p49
tp50
asS'gromacs-gmxapi/src/gromacs/pulling/pullutil.cpp'
p51
(lp52
(S'MPI_Allreduce()'
p53
S'113'
p54
tp55
a(S'MPI_Allreduce()'
p56
S'118'
p57
tp58
asS'gromacs-gmxapi/src/gromacs/domdec/domdec.cpp'
p59
(lp60
(S'MPI_Cart_rank()'
p61
S'174'
p62
tp63
a(S'MPI_Cart_rank()'
p64
S'801'
p65
tp66
a(S'MPI_Cart_coords()'
p67
S'840'
p68
tp69
a(S'MPI_Cart_rank()'
p70
S'845'
p71
tp72
a(S'MPI_Cart_coords()'
p73
S'958'
p74
tp75
a(S'MPI_Cart_rank()'
p76
S'963'
p77
tp78
a(S'MPI_Comm_split()'
p79
S'1138'
p80
tp81
a(S'MPI_Comm_split()'
p82
S'1208'
p83
tp84
a(S'MPI_Comm_split()'
p85
S'1210'
p86
tp87
a(S'MPI_Comm_free()'
p88
S'1212'
p89
tp90
a(S'MPI_Comm_size()'
p91
S'1213'
p92
tp93
a(S'MPI_Comm_free()'
p94
S'1224'
p95
tp96
a(S'MPI_Cart_create()'
p97
S'1417'
p98
tp99
a(S'MPI_Comm_rank()'
p100
S'1424'
p101
tp102
a(S'MPI_Allreduce()'
p103
S'1445'
p104
tp105
a(S'MPI_Cart_coords()'
p106
S'1458'
p107
tp108
a(S'MPI_Allreduce()'
p109
S'1470'
p110
tp111
a(S'MPI_Cart_rank()'
p112
S'1482'
p113
tp114
a(S'MPI_Allreduce()'
p115
S'1528'
p116
tp117
a(S'MPI_Cart_create()'
p118
S'1604'
p119
tp120
a(S'MPI_Comm_rank()'
p121
S'1606'
p122
tp123
a(S'MPI_Cart_coords()'
p124
S'1618'
p125
tp126
a(S'MPI_Comm_split()'
p127
S'1635'
p128
tp129
a(S'MPI_Comm_split()'
p130
S'1669'
p131
tp132
a(S'MPI_Comm_rank()'
p133
S'1673'
p134
tp135
asS'gromacs-gmxapi/src/gromacs/ewald/pme_only.cpp'
p136
(lp137
(S'MPI_Comm_rank()'
p138
S'140'
p139
tp140
a(S'MPI_Recv()'
p141
S'258'
p142
tp143
a(S'MPI_Irecv()'
p144
S'311'
p145
tp146
a(S'X_MPI_BYTE()'
p147
S'312'
p148
tp149
a(S'MPI_Waitall()'
p150
S'317'
p151
tp152
a(S'MPI_Irecv()'
p153
S'381'
p154
tp155
a(S'X_MPI_BYTE()'
p156
S'383'
p157
tp158
a(S'MPI_Irecv()'
p159
S'416'
p160
tp161
a(S'X_MPI_BYTE()'
p162
S'418'
p163
tp164
a(S'MPI_Waitall()'
p165
S'435'
p166
tp167
a(S'MPI_Isend()'
p168
S'508'
p169
tp170
a(S'MPI_Waitall()'
p171
S'513'
p172
tp173
asS'gromacs-gmxapi/src/gromacs/ewald/pme_pp.cpp'
p174
(lp175
(S'MPI_Waitall()'
p176
S'84'
p177
tp178
a(S'MPI_Isend()'
p179
S'144'
p180
tp181
a(S'MPI_Isend()'
p182
S'153'
p183
tp184
a(S'MPI_Isend()'
p185
S'164'
p186
tp187
a(S'MPI_Isend()'
p188
S'170'
p189
tp190
a(S'MPI_Isend()'
p191
S'176'
p192
tp193
a(S'MPI_Isend()'
p194
S'182'
p195
tp196
a(S'MPI_Isend()'
p197
S'188'
p198
tp199
a(S'MPI_Isend()'
p200
S'194'
p201
tp202
a(S'MPI_Isend()'
p203
S'200'
p204
tp205
a(S'MPI_Send()'
p206
S'289'
p207
tp208
a(S'MPI_Send()'
p209
S'312'
p210
tp211
a(S'MPI_Recv()'
p212
S'336'
p213
tp214
a(S'MPI_Recv()'
p215
S'384'
p216
tp217
asS'gromacs-gmxapi/src/gromacs/utility/gmxmpi.h'
p218
(lp219
(S'X_MPI_NO_CPPBIND()'
p220
S'60'
p221
tp222
a(S'X_MPI_COMM_NULL()'
p223
S'85'
p224
tp225
a(S'X_MPI_GROUP_NULL()'
p226
S'86'
p227
tp228
a(S'X_MPI_COMM_WORLD()'
p229
S'87'
p230
tp231
asS'gromacs-gmxapi/src/programs/mdrun/tests/moduletest.cpp'
p232
(lp233
(S'MPI_Barrier()'
p234
S'213'
p235
tp236
a(S'MPI_Barrier()'
p237
S'326'
p238
tp239
asS'gromacs-gmxapi/src/gromacs/ewald/pme_spread.cpp'
p240
(lp241
(S'MPI_Sendrecv()'
p242
S'769'
p243
tp244
a(S'MPI_Sendrecv()'
p245
S'836'
p246
tp247
asS'gromacs-gmxapi/src/gromacs/mdrunutility/multisim.cpp'
p248
(lp249
(S'MPI_Comm_size()'
p250
S'83'
p251
tp252
a(S'MPI_Comm_rank()'
p253
S'91'
p254
tp255
a(S'MPI_Comm_group()'
p256
S'107'
p257
tp258
a(S'MPI_Group_incl()'
p259
S'108'
p260
tp261
a(S'MPI_Comm_create()'
p262
S'110'
p263
tp264
asS'gromacs-gmxapi/src/gromacs/utility/physicalnodecommunicator.cpp'
p265
(lp266
(S'MPI_Comm_free_wrapper()'
p267
S'54'
p268
tp269
a(S'MPI_Comm_free()'
p270
S'63'
p271
tp272
a(S'MPI_Initialized()'
p273
S'74'
p274
tp275
a(S'MPI_Comm_size()'
p276
S'78'
p277
tp278
a(S'MPI_Comm_rank()'
p279
S'82'
p280
tp281
a(S'MPI_Comm_split()'
p282
S'83'
p283
tp284
a(S'MPI_Comm_size()'
p285
S'86'
p286
tp287
a(S'MPI_Comm_rank()'
p288
S'87'
p289
tp290
a(S'MPI_Barrier()'
p291
S'120'
p292
tp293
asS'gromacs-gmxapi/src/gromacs/fft/fft5d.cpp'
p294
(lp295
(S'MPI_Comm_size()'
p296
S'164'
p297
tp298
a(S'MPI_Comm_rank()'
p299
S'165'
p300
tp301
a(S'MPI_Comm_size()'
p302
S'176'
p303
tp304
a(S'MPI_Comm_rank()'
p305
S'177'
p306
tp307
a(S'MPI_Wtime()'
p308
S'988'
p309
tp310
a(S'MPI_Wtime()'
p311
S'1029'
p312
tp313
a(S'MPI_Wtime()'
p314
S'1078'
p315
tp316
a(S'MPI_Wtime()'
p317
S'1106'
p318
tp319
a(S'MPI_Alltoall()'
p320
S'1117'
p321
tp322
a(S'MPI_Alltoall()'
p323
S'1121'
p324
tp325
a(S'MPI_Wtime()'
p326
S'1145'
p327
tp328
a(S'MPI_Wtime()'
p329
S'1198'
p330
tp331
a(S'MPI_Comm_size()'
p332
S'1339'
p333
tp334
a(S'MPI_Comm_rank()'
p335
S'1340'
p336
tp337
a(S'MPI_Cart_create()'
p338
S'1360'
p339
tp340
a(S'MPI_Cart_get()'
p341
S'1361'
p342
tp343
a(S'MPI_Cart_sub()'
p344
S'1362'
p345
tp346
a(S'MPI_Cart_sub()'
p347
S'1363'
p348
tp349
asS'gromacs-gmxapi/src/gromacs/hardware/printhardware.cpp'
p350
(lp351
(S'MPI_Comm_rank()'
p352
S'204'
p353
tp354
asS'gromacs-gmxapi/src/gromacs/utility/physicalnodecommunicator.h'
p355
(lp356
(S'MPI_Comm_free_wrapper()'
p357
S'56'
p358
tp359
asS'gromacs-gmxapi/src/gromacs/ewald/pme_redistribute.cpp'
p360
(lp361
(S'MPI_Sendrecv()'
p362
S'239'
p363
tp364
a(S'MPI_Send()'
p365
S'247'
p366
tp367
a(S'MPI_Recv()'
p368
S'253'
p369
tp370
asS'gromacs-gmxapi/src/gromacs/domdec/collect.cpp'
p371
(lp372
(S'MPI_Send()'
p373
S'156'
p374
tp375
a(S'MPI_Recv()'
p376
S'194'
p377
tp378
asS'gromacs-gmxapi/src/gromacs/hardware/detecthardware.cpp'
p379
(lp380
(S'MPI_Bcast()'
p381
S'163'
p382
tp383
a(S'MPI_Bcast()'
p384
S'176'
p385
tp386
a(S'MPI_Bcast()'
p387
S'178'
p388
tp389
a(S'MPI_Allreduce()'
p390
S'236'
p391
tp392
a(S'X_MPI_INT()'
p393
S'237'
p394
tp395
a(S'MPI_Allreduce()'
p396
S'259'
p397
tp398
a(S'X_MPI_INT()'
p399
S'260'
p400
tp401
asS'gromacs-gmxapi/src/gromacs/domdec/partition.cpp'
p402
(lp403
(S'MPI_Allreduce()'
p404
S'777'
p405
tp406
a(S'MPI_Gather()'
p407
S'917'
p408
tp409
asS'gromacs-gmxapi/src/gromacs/mdrun/legacymdrunoptions.cpp'
p410
(lp411
(S'MPI_Comm_split()'
p412
S'165'
p413
tp414
a(S'MPI_Comm_rank()'
p415
S'167'
p416
tp417
a(S'MPI_Comm_rank()'
p418
S'168'
p419
tp420
asS'gromacs-gmxapi/src/gromacs/utility/fatalerror.cpp'
p421
(lp422
(S'MPI_Finalize()'
p423
S'183'
p424
tp425
a(S'MPI_Barrier()'
p426
S'194'
p427
tp428
asS'gromacs-gmxapi/src/gromacs/ewald/pme_grid.cpp'
p429
(lp430
(S'MPI_Sendrecv()'
p431
S'133'
p432
tp433
a(S'MPI_Sendrecv()'
p434
S'218'
p435
tp436
asS'gromacs-gmxapi/src/gromacs/mdrunutility/threadaffinity.cpp'
p437
(lp438
(S'MPI_Reduce()'
p439
S'100'
p440
tp441
a(S'MPI_Scan()'
p442
S'366'
p443
tp444
a(S'MPI_Allreduce()'
p445
S'370'
p446
tp447
a(S'MPI_Allreduce()'
p448
S'557'
p449
tp450
asS'gromacs-gmxapi/src/gromacs/domdec/distribute.cpp'
p451
(lp452
(S'MPI_Send()'
p453
S'94'
p454
tp455
a(S'MPI_Recv()'
p456
S'114'
p457
tp458
a(S'X_MPI_ANY_TAG()'
p459
S'115'
p460
tp461
asS'gromacs-gmxapi/src/gromacs/pulling/pull_rotation.cpp'
p462
(lp463
(S'MPI_Reduce()'
p464
S'480'
p465
tp466
a(S'MPI_Wtime()'
p467
S'3872'
p468
tp469
asS'gromacs-gmxapi/src/gromacs/mdlib/gmx_omp_nthreads.cpp'
p470
(lp471
(S'MPI_Allreduce()'
p472
S'413'
p473
tp474
a(S'MPI_Barrier()'
p475
S'490'
p476
tp477
asS'gromacs-gmxapi/src/gromacs/mdrun/minimize.cpp'
p478
(lp479
(S'MPI_Send()'
p480
S'2902'
p481
tp482
a(S'MPI_Recv()'
p483
S'2914'
p484
tp485
asS'gromacs-gmxapi/src/gromacs/domdec/box.cpp'
p486
(lp487
(S'MPI_Allreduce()'
p488
S'103'
p489
tp490
a(S'X_MPI_SUM()'
p491
S'104'
p492
tp493
asS'gromacs-gmxapi/src/gromacs/domdec/cellsizes.cpp'
p494
(lp495
(S'MPI_Bcast()'
p496
S'751'
p497
tp498
asS'gromacs-gmxapi/src/external/thread_mpi/include/thread_mpi/mpi_bindings.h'
p499
(lp500
(S'X_MPI_C_BOOL()'
p501
S'74'
p502
tp503
a(S'X_MPI_CHAR()'
p504
S'75'
p505
tp506
a(S'X_MPI_SHORT()'
p507
S'76'
p508
tp509
a(S'X_MPI_INT()'
p510
S'77'
p511
tp512
a(S'X_MPI_LONG()'
p513
S'78'
p514
tp515
a(S'X_MPI_LONG_LONG()'
p516
S'79'
p517
tp518
a(S'X_MPI_LONG_LONG_INT()'
p519
S'80'
p520
tp521
a(S'X_MPI_SIGNED_CHAR()'
p522
S'81'
p523
tp524
a(S'X_MPI_UNSIGNED_CHAR()'
p525
S'82'
p526
tp527
a(S'X_MPI_UNSIGNED_SHORT()'
p528
S'83'
p529
tp530
a(S'X_MPI_UNSIGNED()'
p531
S'84'
p532
tp533
a(S'X_MPI_UNSIGNED_LONG_LONG()'
p534
S'85'
p535
tp536
a(S'X_MPI_FLOAT()'
p537
S'86'
p538
tp539
a(S'X_MPI_DOUBLE()'
p540
S'87'
p541
tp542
a(S'X_MPI_LONG_DOUBLE()'
p543
S'88'
p544
tp545
a(S'X_MPI_WCHAR()'
p546
S'89'
p547
tp548
a(S'X_MPI_BYTE()'
p549
S'90'
p550
tp551
a(S'X_MPI_SUCCESS()'
p552
S'94'
p553
tp554
a(S'X_MPI_ERR_MALLOC()'
p555
S'95'
p556
tp557
a(S'X_MPI_ERR_INIT()'
p558
S'96'
p559
tp560
a(S'X_MPI_ERR_FINALIZE()'
p561
S'97'
p562
tp563
a(S'X_MPI_ERR_GROUP()'
p564
S'98'
p565
tp566
a(S'X_MPI_ERR_COMM()'
p567
S'99'
p568
tp569
a(S'X_MPI_ERR_STATUS()'
p570
S'100'
p571
tp572
a(S'X_MPI_ERR_GROUP_RANK()'
p573
S'101'
p574
tp575
a(S'X_MPI_ERR_DIMS()'
p576
S'102'
p577
tp578
a(S'X_MPI_ERR_COORDS()'
p579
S'103'
p580
tp581
a(S'X_MPI_ERR_CART_CREATE_NPROCS()'
p582
S'104'
p583
tp584
a(S'X_MPI_ERR_XFER_COUNTERPART()'
p585
S'105'
p586
tp587
a(S'X_MPI_ERR_XFER_BUFSIZE()'
p588
S'106'
p589
tp590
a(S'X_MPI_ERR_XFER_BUF_OVERLAP()'
p591
S'107'
p592
tp593
a(S'X_MPI_ERR_SEND_DEST()'
p594
S'108'
p595
tp596
a(S'X_MPI_ERR_RECV_SRC()'
p597
S'109'
p598
tp599
a(S'X_MPI_ERR_BUF()'
p600
S'110'
p601
tp602
a(S'X_MPI_ERR_MULTI_MISMATCH()'
p603
S'111'
p604
tp605
a(S'X_MPI_ERR_OP_FN()'
p606
S'112'
p607
tp608
a(S'X_MPI_ERR_ENVELOPES()'
p609
S'113'
p610
tp611
a(S'X_MPI_ERR_REQUESTS()'
p612
S'114'
p613
tp614
a(S'X_MPI_ERR_IN_STATUS()'
p615
S'115'
p616
tp617
a(S'X_MPI_FAILURE()'
p618
S'116'
p619
tp620
a(S'X_MPI_ERR_UNKNOWN()'
p621
S'117'
p622
tp623
a(S'X_MPI_MAX_ERROR_STRING()'
p624
S'120'
p625
tp626
a(S'X_MPI_UNDEFINED()'
p627
S'121'
p628
tp629
a(S'X_MPI_Errhandler_fn()'
p630
S'124'
p631
tp632
a(S'X_MPI_Errhandler()'
p633
S'125'
p634
tp635
a(S'X_MPI_ERRORS_ARE_FATAL()'
p636
S'126'
p637
tp638
a(S'X_MPI_ERRORS_RETURN()'
p639
S'127'
p640
tp641
a(S'X_MPI_ANY_SOURCE()'
p642
S'132'
p643
tp644
a(S'X_MPI_ANY_TAG()'
p645
S'133'
p646
tp647
a(S'X_MPI_IDENT()'
p648
S'136'
p649
tp650
a(S'X_MPI_CONGRUENT()'
p651
S'137'
p652
tp653
a(S'X_MPI_SIMILAR()'
p654
S'138'
p655
tp656
a(S'X_MPI_UNEQUAL()'
p657
S'139'
p658
tp659
a(S'X_MPI_CART()'
p660
S'143'
p661
tp662
a(S'X_MPI_GRAPH()'
p663
S'144'
p664
tp665
a(S'X_MPI_COMM_WORLD()'
p666
S'147'
p667
tp668
a(S'X_MPI_COMM_NULL()'
p669
S'148'
p670
tp671
a(S'X_MPI_GROUP_NULL()'
p672
S'151'
p673
tp674
a(S'X_MPI_GROUP_EMPTY()'
p675
S'152'
p676
tp677
a(S'X_MPI_MAX_PROCESSOR_NAME()'
p678
S'154'
p679
tp680
a(S'X_MPI_STATUS_IGNORE()'
p681
S'158'
p682
tp683
a(S'X_MPI_STATUSES_IGNORE()'
p684
S'159'
p685
tp686
a(S'X_MPI_SOURCE()'
p687
S'161'
p688
tp689
a(S'X_MPI_TAG()'
p690
S'162'
p691
tp692
a(S'X_MPI_ERROR()'
p693
S'163'
p694
tp695
a(S'X_MPI_REQUEST_NULL()'
p696
S'167'
p697
tp698
a(S'X_MPI_IN_PLACE()'
p699
S'169'
p700
tp701
a(S'X_MPI_MAX()'
p702
S'173'
p703
tp704
a(S'X_MPI_MIN()'
p705
S'174'
p706
tp707
a(S'X_MPI_SUM()'
p708
S'175'
p709
tp710
a(S'X_MPI_PROD()'
p711
S'176'
p712
tp713
a(S'X_MPI_LAND()'
p714
S'177'
p715
tp716
a(S'X_MPI_BAND()'
p717
S'178'
p718
tp719
a(S'X_MPI_LOR()'
p720
S'179'
p721
tp722
a(S'X_MPI_BOR()'
p723
S'180'
p724
tp725
a(S'X_MPI_LXOR()'
p726
S'181'
p727
tp728
a(S'X_MPI_BXOR()'
p729
S'182'
p730
tp731
a(S'X_MPI_Init()'
p732
S'185'
p733
tp734
a(S'X_MPI_Finalize()'
p735
S'186'
p736
tp737
a(S'X_MPI_Abort()'
p738
S'187'
p739
tp740
a(S'X_MPI_Initialized()'
p741
S'188'
p742
tp743
a(S'X_MPI_Finalized()'
p744
S'189'
p745
tp746
a(S'X_MPI_Create_errhandler()'
p747
S'191'
p748
tp749
a(S'X_MPI_Errhandler_free()'
p750
S'192'
p751
tp752
a(S'X_MPI_Comm_set_errhandler()'
p753
S'193'
p754
tp755
a(S'X_MPI_Comm_get_errhandler()'
p756
S'194'
p757
tp758
a(S'X_MPI_Error_string()'
p759
S'195'
p760
tp761
a(S'X_MPI_Get_processor_name()'
p762
S'197'
p763
tp764
a(S'X_MPI_Wtime()'
p765
S'198'
p766
tp767
a(S'X_MPI_Group_size()'
p768
S'200'
p769
tp770
a(S'X_MPI_Group_rank()'
p771
S'201'
p772
tp773
a(S'X_MPI_Group_incl()'
p774
S'202'
p775
tp776
a(S'X_MPI_Comm_group()'
p777
S'203'
p778
tp779
a(S'X_MPI_Group_free()'
p780
S'204'
p781
tp782
a(S'X_MPI_Comm_size()'
p783
S'206'
p784
tp785
a(S'X_MPI_Comm_rank()'
p786
S'207'
p787
tp788
a(S'X_MPI_Comm_compare()'
p789
S'208'
p790
tp791
a(S'X_MPI_Comm_free()'
p792
S'209'
p793
tp794
a(S'X_MPI_Comm_create()'
p795
S'210'
p796
tp797
a(S'X_MPI_Comm_split()'
p798
S'211'
p799
tp800
a(S'X_MPI_Comm_dup()'
p801
S'212'
p802
tp803
a(S'X_MPI_Topo_test()'
p804
S'214'
p805
tp806
a(S'X_MPI_Cartdim_get()'
p807
S'215'
p808
tp809
a(S'X_MPI_Cart_get()'
p810
S'216'
p811
tp812
a(S'X_MPI_Cart_rank()'
p813
S'217'
p814
tp815
a(S'X_MPI_Cart_coords()'
p816
S'218'
p817
tp818
a(S'X_MPI_Cart_map()'
p819
S'219'
p820
tp821
a(S'X_MPI_Cart_create()'
p822
S'220'
p823
tp824
a(S'X_MPI_Cart_sub()'
p825
S'221'
p826
tp827
a(S'X_MPI_Type_contiguous()'
p828
S'223'
p829
tp830
a(S'X_MPI_Type_commit()'
p831
S'224'
p832
tp833
a(S'X_MPI_Send()'
p834
S'226'
p835
tp836
a(S'X_MPI_Recv()'
p837
S'227'
p838
tp839
a(S'X_MPI_Sendrecv()'
p840
S'228'
p841
tp842
a(S'X_MPI_Get_count()'
p843
S'229'
p844
tp845
a(S'X_MPI_Isend()'
p846
S'231'
p847
tp848
a(S'X_MPI_Irecv()'
p849
S'232'
p850
tp851
a(S'X_MPI_Test()'
p852
S'233'
p853
tp854
a(S'X_MPI_Wait()'
p855
S'234'
p856
tp857
a(S'X_MPI_Waitall()'
p858
S'235'
p859
tp860
a(S'X_MPI_Barrier()'
p861
S'237'
p862
tp863
a(S'X_MPI_Bcast()'
p864
S'239'
p865
tp866
a(S'X_MPI_Gather()'
p867
S'241'
p868
tp869
a(S'X_MPI_Gatherv()'
p870
S'242'
p871
tp872
a(S'X_MPI_Scatter()'
p873
S'243'
p874
tp875
a(S'X_MPI_Scatterv()'
p876
S'244'
p877
tp878
a(S'X_MPI_Alltoall()'
p879
S'245'
p880
tp881
a(S'X_MPI_Alltoallv()'
p882
S'246'
p883
tp884
a(S'X_MPI_Reduce()'
p885
S'249'
p886
tp887
a(S'X_MPI_Allreduce()'
p888
S'250'
p889
tp890
a(S'X_MPI_Scan()'
p891
S'251'
p892
tp893
asS'gromacs-gmxapi/src/gromacs/timing/wallcycle.cpp'
p894
(lp895
(S'MPI_Barrier()'
p896
S'289'
p897
tp898
a(S'MPI_Barrier()'
p899
S'336'
p900
tp901
a(S'MPI_Allreduce()'
p902
S'576'
p903
tp904
a(S'MPI_Allreduce()'
p905
S'592'
p906
tp907
a(S'MPI_Allreduce()'
p908
S'606'
p909
tp910
asS'gromacs-gmxapi/src/gromacs/taskassignment/findallgputasks.cpp'
p911
(lp912
(S'MPI_Gather()'
p913
S'83'
p914
tp915
a(S'X_MPI_INT()'
p916
S'85'
p917
tp918
a(S'X_MPI_INT()'
p919
S'88'
p920
tp921
a(S'MPI_Bcast()'
p922
S'91'
p923
tp924
a(S'X_MPI_INT()'
p925
S'93'
p926
tp927
a(S'MPI_Gatherv()'
p928
S'140'
p929
tp930
a(S'X_MPI_INT()'
p931
S'142'
p932
tp933
a(S'X_MPI_INT()'
p934
S'146'
p935
tp936
a(S'MPI_Bcast()'
p937
S'149'
p938
tp939
a(S'X_MPI_INT()'
p940
S'151'
p941
tp942
asS'gromacs-gmxapi/src/gromacs/pulling/pull.cpp'
p943
(lp944
(S'MPI_Comm_free()'
p945
S'1681'
p946
tp947
a(S'MPI_Comm_split()'
p948
S'1688'
p949
tp950
a(S'MPI_Comm_free()'
p951
S'2261'
p952
tp953
asS'gromacs-gmxapi/src/gromacs/gmxana/gmx_pme_error.cpp'
p954
(lp955
(S'MPI_Wtime()'
p956
S'505'
p957
tp958
a(S'MPI_Wtime()'
p959
S'748'
p960
tp961
asS'gromacs-gmxapi/cmake/gmxTestMPI_IN_PLACE.cmake'
p962
(lp963
(S'MPI_Allreduce()'
p964
S'54'
p965
tp966
asS'gromacs-gmxapi/src/gromacs/linearalgebra/eigensolver.cpp'
p967
(lp968
(S'MPI_Comm_size()'
p969
S'165'
p970
tp971
a(S'MPI_Comm_rank()'
p972
S'166'
p973
tp974
a(S'MPI_Comm_size()'
p975
S'288'
p976
tp977
asS'gromacs-gmxapi/cmake/TestMPI.cpp'
p978
(lp979
(S'MPI_Init()'
p980
S'5'
p981
tp982
asS'gromacs-gmxapi/src/gromacs/domdec/domdec_network.cpp'
p983
(lp984
(S'MPI_Sendrecv()'
p985
S'85'
p986
tp987
a(S'MPI_Send()'
p988
S'94'
p989
tp990
a(S'MPI_Recv()'
p991
S'100'
p992
tp993
a(S'MPI_Irecv()'
p994
S'177'
p995
tp996
a(S'MPI_Irecv()'
p997
S'182'
p998
tp999
a(S'MPI_Isend()'
p1000
S'187'
p1001
tp1002
a(S'MPI_Isend()'
p1003
S'192'
p1004
tp1005
a(S'MPI_Waitall()'
p1006
S'197'
p1007
tp1008
a(S'MPI_Sendrecv()'
p1009
S'207'
p1010
tp1011
a(S'MPI_Sendrecv()'
p1012
S'211'
p1013
tp1014
a(S'MPI_Bcast()'
p1015
S'223'
p1016
tp1017
a(S'MPI_Bcast()'
p1018
S'238'
p1019
tp1020
a(S'MPI_Scatter()'
p1021
S'250'
p1022
tp1023
a(S'MPI_Gather()'
p1024
S'269'
p1025
tp1026
a(S'MPI_Scatterv()'
p1027
S'290'
p1028
tp1029
a(S'MPI_Gatherv()'
p1030
S'318'
p1031
tp1032
asS'gromacs-gmxapi/src/gromacs/utility/basenetwork.cpp'
p1033
(lp1034
(S'MPI_Initialized()'
p1035
S'58'
p1036
tp1037
a(S'MPI_Get_processor_name()'
p1038
S'110'
p1039
tp1040
a(S'MPI_Bcast()'
p1041
S'155'
p1042
tp1043
a(S'MPI_Abort()'
p1044
S'165'
p1045
tp1046
asS'gromacs-gmxapi/src/gromacs/utility/init.cpp'
p1047
(lp1048
(S'MPI_Finalized()'
p1049
S'70'
p1050
tp1051
a(S'MPI_Initialized()'
p1052
S'72'
p1053
tp1054
a(S'MPI_Init_thread()'
p1055
S'108'
p1056
tp1057
a(S'MPI_Init()'
p1058
S'112'
p1059
tp1060
a(S'MPI_Init()'
p1061
S'115'
p1062
tp1063
a(S'MPI_Barrier()'
p1064
S'141'
p1065
tp1066
a(S'MPI_Finalize()'
p1067
S'146'
p1068
tp1069
asS'gromacs-gmxapi/src/gromacs/mdrun/runner.cpp'
p1070
(lp1071
(S'MPI_Barrier()'
p1072
S'168'
p1073
tp1074
a(S'MPI_Allreduce()'
p1075
S'472'
p1076
tp1077
a(S'MPI_Allreduce()'
p1078
S'487'
p1079
tp1080
a(S'MPI_Allreduce()'
p1081
S'494'
p1082
tp1083
a(S'MPI_Barrier()'
p1084
S'1155'
p1085
tp1086
a(S'MPI_Barrier()'
p1087
S'1161'
p1088
tp1089
a(S'MPI_Barrier()'
p1090
S'1166'
p1091
tp1092
asS'gromacs-gmxapi/src/gromacs/gmxlib/network.cpp'
p1093
(lp1094
(S'MPI_Comm_size()'
p1095
S'188'
p1096
tp1097
a(S'MPI_Comm_rank()'
p1098
S'189'
p1099
tp1100
a(S'MPI_Comm_split()'
p1101
S'200'
p1102
tp1103
a(S'MPI_Comm_rank()'
p1104
S'201'
p1105
tp1106
a(S'MPI_Comm_split()'
p1107
S'211'
p1108
tp1109
a(S'MPI_Comm_size()'
p1110
S'215'
p1111
tp1112
a(S'MPI_Comm_size()'
p1113
S'216'
p1114
tp1115
a(S'MPI_Comm_free()'
p1116
S'234'
p1117
tp1118
a(S'MPI_Comm_free()'
p1119
S'240'
p1120
tp1121
a(S'MPI_Comm_free()'
p1122
S'241'
p1123
tp1124
a(S'MPI_Barrier()'
p1125
S'259'
p1126
tp1127
a(S'MPI_Bcast()'
p1128
S'268'
p1129
tp1130
a(S'MPI_Bcast()'
p1131
S'277'
p1132
tp1133
a(S'MPI_Reduce()'
p1134
S'292'
p1135
tp1136
a(S'MPI_Allreduce()'
p1137
S'295'
p1138
tp1139
a(S'MPI_Reduce()'
p1140
S'302'
p1141
tp1142
a(S'MPI_Bcast()'
p1143
S'304'
p1144
tp1145
a(S'MPI_Allreduce()'
p1146
S'308'
p1147
tp1148
a(S'MPI_Allreduce()'
p1149
S'322'
p1150
tp1151
a(S'MPI_Allreduce()'
p1152
S'326'
p1153
tp1154
a(S'MPI_Bcast()'
p1155
S'329'
p1156
tp1157
a(S'MPI_Allreduce()'
p1158
S'333'
p1159
tp1160
a(S'MPI_Reduce()'
p1161
S'355'
p1162
tp1163
a(S'MPI_Allreduce()'
p1164
S'358'
p1165
tp1166
a(S'MPI_Reduce()'
p1167
S'365'
p1168
tp1169
a(S'MPI_Bcast()'
p1170
S'367'
p1171
tp1172
a(S'MPI_Allreduce()'
p1173
S'371'
p1174
tp1175
a(S'MPI_Allreduce()'
p1176
S'384'
p1177
tp1178
a(S'MPI_Allreduce()'
p1179
S'388'
p1180
tp1181
a(S'MPI_Bcast()'
p1182
S'391'
p1183
tp1184
a(S'MPI_Allreduce()'
p1185
S'395'
p1186
tp1187
a(S'MPI_Reduce()'
p1188
S'417'
p1189
tp1190
a(S'MPI_Allreduce()'
p1191
S'419'
p1192
tp1193
a(S'MPI_Reduce()'
p1194
S'425'
p1195
tp1196
a(S'MPI_Bcast()'
p1197
S'427'
p1198
tp1199
a(S'MPI_Allreduce()'
p1200
S'431'
p1201
tp1202
a(S'MPI_Allreduce()'
p1203
S'444'
p1204
tp1205
a(S'MPI_Allreduce()'
p1206
S'448'
p1207
tp1208
a(S'MPI_Bcast()'
p1209
S'450'
p1210
tp1211
a(S'MPI_Allreduce()'
p1212
S'454'
p1213
tp1214
a(S'MPI_Reduce()'
p1215
S'475'
p1216
tp1217
a(S'MPI_Allreduce()'
p1218
S'478'
p1219
tp1220
a(S'MPI_Reduce()'
p1221
S'485'
p1222
tp1223
a(S'MPI_Bcast()'
p1224
S'487'
p1225
tp1226
a(S'MPI_Allreduce()'
p1227
S'491'
p1228
tp1229
a(S'MPI_Allreduce()'
p1230
S'504'
p1231
tp1232
a(S'MPI_Allreduce()'
p1233
S'509'
p1234
tp1235
a(S'MPI_Bcast()'
p1236
S'512'
p1237
tp1238
a(S'MPI_Allreduce()'
p1239
S'516'
p1240
tp1241
a(S'MPI_Allreduce()'
p1242
S'533'
p1243
tp1244
a(S'MPI_Allreduce()'
p1245
S'542'
p1246
tp1247
a(S'MPI_Allreduce()'
p1248
S'556'
p1249
tp1250
a(S'MPI_Allreduce()'
p1251
S'565'
p1252
tp1253
a(S'MPI_Allreduce()'
p1254
S'599'
p1255
tp1256
a(S'MPI_Allreduce()'
p1257
S'609'
p1258
tp1259
a(S'MPI_Allreduce()'
p1260
S'624'
p1261
tp1262
a(S'MPI_Allreduce()'
p1263
S'635'
p1264
tp1265
a(S'MPI_Comm_compare()'
p1266
S'769'
p1267
tp1268
asS'gromacs-gmxapi/src/testutils/mpi_printer.cpp'
p1269
(lp1270
(S'MPI_Recv()'
p1271
S'111'
p1272
tp1273
a(S'MPI_Send()'
p1274
S'138'
p1275
tp1276
a(S'MPI_Gather()'
p1277
S'142'
p1278
tp1279
a(S'MPI_Comm_size()'
p1280
S'190'
p1281
tp1282
a(S'MPI_Comm_rank()'
p1283
S'195'
p1284
tp1285
asS'gromacs-gmxapi/src/gromacs/mdrun/replicaexchange.cpp'
p1286
(lp1287
(S'MPI_Sendrecv()'
p1288
S'487'
p1289
tp1290
a(S'MPI_Isend()'
p1291
S'494'
p1292
tp1293
a(S'MPI_Recv()'
p1294
S'496'
p1295
tp1296
a(S'MPI_Wait()'
p1297
S'498'
p1298
tp1299
a(S'MPI_Sendrecv()'
p1300
S'520'
p1301
tp1302
a(S'MPI_Isend()'
p1303
S'527'
p1304
tp1305
a(S'MPI_Recv()'
p1306
S'529'
p1307
tp1308
a(S'MPI_Wait()'
p1309
S'531'
p1310
tp1311
a(S'MPI_Sendrecv()'
p1312
S'552'
p1313
tp1314
a(S'MPI_Isend()'
p1315
S'559'
p1316
tp1317
a(S'MPI_Recv()'
p1318
S'561'
p1319
tp1320
a(S'MPI_Wait()'
p1321
S'563'
p1322
tp1323
a(S'MPI_Bcast()'
p1324
S'1273'
p1325
tp1326
asS'gromacs-gmxapi/src/gromacs/taskassignment/taskassignment.cpp'
p1327
(lp1328
(S'MPI_Barrier()'
p1329
S'299'
p1330
tp1331
a(S'MPI_Barrier()'
p1332
S'305'
p1333
tp1334
asS'gromacs-gmxapi/src/gromacs/taskassignment/resourcedivision.cpp'
p1335
(lp1336
(S'MPI_Allreduce()'
p1337
S'580'
p1338
tp1339
a(S'MPI_Allreduce()'
p1340
S'911'
p1341
tp1342
asS'gromacs-gmxapi/src/testutils/tests/mpitest.cpp'
p1343
(lp1344
(S'MPI_Barrier()'
p1345
S'70'
p1346
tp1347
a(S'MPI_Gather()'
p1348
S'73'
p1349
tp1350
as.