ccollections
defaultdict
p0
(c__builtin__
list
p1
tp2
Rp3
S'pocketbook-sdk5/arm-obreey-linux-gnueabi/sysroot/usr/include/boost/graph/distributed/page_rank.hpp'
p4
(lp5
(S'MPI_Comm_rank()'
p6
S'40'
p7
tp8
a(S'MPI_Accumulate()'
p9
S'53'
p10
tp11
a(S'MPI_Win_fence()'
p12
S'60'
p13
tp14
a(S'MPI_Comm_rank()'
p15
S'90'
p16
tp17
a(S'MPI_Win_create()'
p18
S'115'
p19
tp20
a(S'X_MPI_INFO_NULL()'
p21
S'118'
p22
tp23
a(S'MPI_Win_set_name()'
p24
S'119'
p25
tp26
a(S'MPI_Win_create()'
p27
S'120'
p28
tp29
a(S'X_MPI_INFO_NULL()'
p30
S'123'
p31
tp32
a(S'MPI_Win_set_name()'
p33
S'124'
p34
tp35
a(S'MPI_Win_fence()'
p36
S'129'
p37
tp38
a(S'MPI_Win_fence()'
p39
S'130'
p40
tp41
a(S'MPI_Win_free()'
p42
S'144'
p43
tp44
a(S'MPI_Win_free()'
p45
S'145'
p46
tp47
asS'pocketbook-sdk5/arm-obreey-linux-gnueabi/sysroot/usr/include/boost/graph/distributed/mpi_process_group.hpp'
p48
(lp49
(S'MPI_Bsend()'
p50
S'708'
p51
tp52
a(S'MPI_Isend()'
p53
S'714'
p54
tp55
a(S'MPI_Test()'
p56
S'720'
p57
tp58
a(S'MPI_Bsend()'
p59
S'744'
p60
tp61
a(S'MPI_Isend()'
p62
S'750'
p63
tp64
a(S'MPI_Test()'
p65
S'756'
p66
tp67
asS'pocketbook-sdk5/arm-obreey-linux-gnueabi/sysroot/usr/include/opencv2/flann/hdf5.h'
p68
(lp69
(S'MPI_Comm_size()'
p70
S'175'
p71
tp72
a(S'MPI_Comm_rank()'
p73
S'176'
p74
tp75
asS'pocketbook-sdk5/arm-obreey-linux-gnueabi/sysroot/usr/include/boost/graph/distributed/detail/mpi_process_group.ipp'
p76
(lp77
(S'MPI_Recv()'
p78
S'492'
p79
tp80
a(S'MPI_Get_count()'
p81
S'510'
p82
tp83
a(S'MPI_Recv()'
p84
S'516'
p85
tp86
a(S'MPI_Irecv()'
p87
S'665'
p88
tp89
a(S'X_MPI_PACKED()'
p90
S'666'
p91
tp92
a(S'MPI_Allgather()'
p93
S'837'
p94
tp95
a(S'MPI_Allgatherv()'
p96
S'856'
p97
tp98
a(S'X_MPI_BYTE()'
p99
S'859'
p100
tp101
a(S'MPI_Comm_group()'
p102
S'880'
p103
tp104
a(S'MPI_Group_incl()'
p105
S'884'
p106
tp107
a(S'MPI_Comm_create()'
p108
S'888'
p109
tp110
a(S'MPI_Group_free()'
p111
S'891'
p112
tp113
a(S'MPI_Group_free()'
p114
S'893'
p115
tp116
a(S'MPI_Comm_free()'
p117
S'898'
p118
tp119
a(S'MPI_Irecv()'
p120
S'929'
p121
tp122
a(S'MPI_Test()'
p123
S'934'
p124
tp125
a(S'MPI_Get_count()'
p126
S'967'
p127
tp128
a(S'MPI_Recv()'
p129
S'972'
p130
tp131
asS'pocketbook-sdk5/arm-obreey-linux-gnueabi/sysroot/usr/include/boost/mpi/exception.hpp'
p132
(lp133
(S'MPI_Error_class()'
p134
S'73'
p135
tp136
asS'pocketbook-sdk5/arm-obreey-linux-gnueabi/sysroot/usr/include/boost/mpi/communicator.hpp'
p137
(lp138
(S'MPI_Comm()'
p139
S'1428'
p140
tp141
a(S'MPI_Comm()'
p142
S'1451'
p143
tp144
a(S'MPI_Comm()'
p145
S'1487'
p146
tp147
a(S'MPI_Comm()'
p148
S'1510'
p149
tp150
asS'pocketbook-sdk5/arm-obreey-linux-gnueabi/sysroot/usr/include/boost/mpi/timer.hpp'
p151
(lp152
(S'MPI_Wtime()'
p153
S'71'
p154
tp155
asS'pocketbook-sdk5/arm-obreey-linux-gnueabi/sysroot/usr/include/boost/mpi/allocator.hpp'
p156
(lp157
(S'X_MPI_INFO_NULL()'
p158
S'141'
p159
tp160
asS'pocketbook-sdk5/arm-obreey-linux-gnueabi/sysroot/usr/include/boost/mpi/operations.hpp'
p161
(lp162
(S'MPI_Op_free()'
p163
S'293'
p164
tp165
asS'pocketbook-sdk5/arm-obreey-linux-gnueabi/sysroot/usr/include/boost/mpi/datatype.hpp'
p166
(lp167
(S'X_MPI_LONG_DOUBLE_INT()'
p168
S'250'
p169
tp170
a(S'MPI_Type_contiguous()'
p171
S'310'
p172
tp173
a(S'MPI_Type_commit()'
p174
S'311'
p175
tp176
as.