ccollections
defaultdict
p0
(c__builtin__
list
p1
tp2
Rp3
S'to_merge_master_parmoon/src/System/SystemTCD3D.C'
p4
(lp5
(S'MPI_Comm_rank()'
p6
S'391'
p7
tp8
a(S'MPI_Allreduce()'
p9
S'398'
p10
tp11
asS'to_merge_master_parmoon/Examples/RB_3D/TeraHertzBreast.h'
p12
(lp13
(S'MPI_Comm_rank()'
p14
S'655'
p15
tp16
a(S'MPI_Comm_size()'
p17
S'656'
p18
tp19
a(S'MPI_Comm_rank()'
p20
S'1030'
p21
tp22
a(S'MPI_Comm_size()'
p23
S'1031'
p24
tp25
a(S'MPI_Bcast()'
p26
S'1186'
p27
tp28
a(S'MPI_Bcast()'
p29
S'1187'
p30
tp31
a(S'MPI_Bcast()'
p32
S'1196'
p33
tp34
a(S'MPI_Bcast()'
p35
S'1197'
p36
tp37
a(S'MPI_Bcast()'
p38
S'1319'
p39
tp40
a(S'MPI_Bcast()'
p41
S'1328'
p42
tp43
a(S'MPI_Bcast()'
p44
S'1329'
p45
tp46
a(S'MPI_Comm_rank()'
p47
S'1597'
p48
tp49
a(S'MPI_Comm_size()'
p50
S'1598'
p51
tp52
a(S'MPI_Bcast()'
p53
S'1668'
p54
tp55
a(S'MPI_Bcast()'
p56
S'1669'
p57
tp58
a(S'MPI_Bcast()'
p59
S'1678'
p60
tp61
a(S'MPI_Bcast()'
p62
S'1679'
p63
tp64
a(S'MPI_Comm_rank()'
p65
S'2071'
p66
tp67
a(S'MPI_Comm_size()'
p68
S'2072'
p69
tp70
a(S'MPI_Bcast()'
p71
S'2160'
p72
tp73
a(S'MPI_Bcast()'
p74
S'2161'
p75
tp76
a(S'MPI_Bcast()'
p77
S'2171'
p78
tp79
a(S'MPI_Bcast()'
p80
S'2172'
p81
tp82
a(S'MPI_Bcast()'
p83
S'2173'
p84
tp85
asS'to_merge_master_parmoon/src/System/AssembleMat3D.C'
p86
(lp87
(S'MPI_Allreduce()'
p88
S'364'
p89
tp90
a(S'MPI_Allreduce()'
p91
S'368'
p92
tp93
asS'to_merge_master_parmoon/Examples/RB_3D/import3Dmesh.h'
p94
(lp95
(S'MPI_Comm_rank()'
p96
S'1012'
p97
tp98
a(S'MPI_Comm_size()'
p99
S'1013'
p100
tp101
a(S'MPI_Comm_rank()'
p102
S'1399'
p103
tp104
a(S'MPI_Comm_size()'
p105
S'1400'
p106
tp107
a(S'MPI_Bcast()'
p108
S'1555'
p109
tp110
a(S'MPI_Bcast()'
p111
S'1556'
p112
tp113
a(S'MPI_Bcast()'
p114
S'1565'
p115
tp116
a(S'MPI_Bcast()'
p117
S'1566'
p118
tp119
a(S'MPI_Bcast()'
p120
S'1688'
p121
tp122
a(S'MPI_Bcast()'
p123
S'1697'
p124
tp125
a(S'MPI_Bcast()'
p126
S'1698'
p127
tp128
a(S'MPI_Comm_rank()'
p129
S'1964'
p130
tp131
a(S'MPI_Comm_size()'
p132
S'1965'
p133
tp134
a(S'MPI_Bcast()'
p135
S'2028'
p136
tp137
a(S'MPI_Bcast()'
p138
S'2029'
p139
tp140
a(S'MPI_Bcast()'
p141
S'2035'
p142
tp143
a(S'MPI_Bcast()'
p144
S'2036'
p145
tp146
a(S'MPI_Comm_rank()'
p147
S'2395'
p148
tp149
a(S'MPI_Comm_size()'
p150
S'2396'
p151
tp152
a(S'MPI_Bcast()'
p153
S'2475'
p154
tp155
a(S'MPI_Bcast()'
p156
S'2476'
p157
tp158
a(S'MPI_Bcast()'
p159
S'2485'
p160
tp161
a(S'MPI_Bcast()'
p162
S'2486'
p163
tp164
a(S'MPI_Bcast()'
p165
S'2487'
p166
tp167
asS'to_merge_master_parmoon/Examples/TNSE_3D/Channel3D.h'
p168
(lp169
(S'MPI_Comm_rank()'
p170
S'10'
p171
tp172
asS'to_merge_master_parmoon/Examples/TNSE_3D/cancer_exp_3d_nd.h'
p173
(lp174
(S'MPI_Comm_rank()'
p175
S'779'
p176
tp177
a(S'MPI_Comm_size()'
p178
S'780'
p179
tp180
a(S'MPI_Comm_rank()'
p181
S'1254'
p182
tp183
a(S'MPI_Comm_size()'
p184
S'1255'
p185
tp186
a(S'MPI_Bcast()'
p187
S'1410'
p188
tp189
a(S'MPI_Bcast()'
p190
S'1411'
p191
tp192
a(S'MPI_Bcast()'
p193
S'1420'
p194
tp195
a(S'MPI_Bcast()'
p196
S'1421'
p197
tp198
a(S'MPI_Bcast()'
p199
S'1543'
p200
tp201
a(S'MPI_Bcast()'
p202
S'1552'
p203
tp204
a(S'MPI_Bcast()'
p205
S'1553'
p206
tp207
a(S'MPI_Comm_rank()'
p208
S'1821'
p209
tp210
a(S'MPI_Comm_size()'
p211
S'1822'
p212
tp213
a(S'MPI_Bcast()'
p214
S'1892'
p215
tp216
a(S'MPI_Bcast()'
p217
S'1893'
p218
tp219
a(S'MPI_Bcast()'
p220
S'1902'
p221
tp222
a(S'MPI_Bcast()'
p223
S'1903'
p224
tp225
a(S'MPI_Comm_rank()'
p226
S'2295'
p227
tp228
a(S'MPI_Comm_size()'
p229
S'2296'
p230
tp231
a(S'MPI_Bcast()'
p232
S'2384'
p233
tp234
a(S'MPI_Bcast()'
p235
S'2385'
p236
tp237
a(S'MPI_Bcast()'
p238
S'2395'
p239
tp240
a(S'MPI_Bcast()'
p241
S'2396'
p242
tp243
a(S'MPI_Bcast()'
p244
S'2397'
p245
tp246
asS'to_merge_master_parmoon/src/FE/Assemble3D.C'
p247
(lp248
(S'MPI_Comm_rank()'
p249
S'1117'
p250
tp251
a(S'MPI_Barrier()'
p252
S'1119'
p253
tp254
asS'to_merge_master_parmoon/src/Parallel/MumpsSolver.C'
p255
(lp256
(S'MPI_Comm_rank()'
p257
S'59'
p258
tp259
a(S'MPI_Barrier()'
p260
S'61'
p261
tp262
a(S'MPI_Bcast()'
p263
S'64'
p264
tp265
a(S'MPI_Bcast()'
p266
S'65'
p267
tp268
a(S'MPI_Bcast()'
p269
S'66'
p270
tp271
a(S'MPI_Comm_rank()'
p272
S'72'
p273
tp274
a(S'MPI_Wtime()'
p275
S'75'
p276
tp277
a(S'MPI_Comm_rank()'
p278
S'201'
p279
tp280
a(S'MPI_Finalize()'
p281
S'244'
p282
tp283
a(S'MPI_Finalize()'
p284
S'259'
p285
tp286
a(S'MPI_Comm_rank()'
p287
S'268'
p288
tp289
a(S'MPI_Finalize()'
p290
S'289'
p291
tp292
asS'to_merge_master_parmoon/src/FE/MultiGrid3D.C'
p293
(lp294
(S'MPI_Finalize()'
p295
S'316'
p296
tp297
a(S'MPI_Comm_rank()'
p298
S'421'
p299
tp300
a(S'MPI_Finalize()'
p301
S'479'
p302
tp303
a(S'MPI_Finalize()'
p304
S'647'
p305
tp306
a(S'MPI_Finalize()'
p307
S'758'
p308
tp309
a(S'MPI_Comm_rank()'
p310
S'801'
p311
tp312
a(S'MPI_Wtime()'
p313
S'829'
p314
tp315
a(S'MPI_Wtime()'
p316
S'840'
p317
tp318
a(S'MPI_Wtime()'
p319
S'899'
p320
tp321
a(S'MPI_Wtime()'
p322
S'910'
p323
tp324
a(S'MPI_Wtime()'
p325
S'1008'
p326
tp327
a(S'MPI_Wtime()'
p328
S'1019'
p329
tp330
asS'to_merge_master_parmoon/Main_Users/neha/NSE3D_ParMooN.C'
p331
(lp332
(S'MPI_Init()'
p333
S'112'
p334
tp335
a(S'MPI_Comm_rank()'
p336
S'116'
p337
tp338
a(S'MPI_Comm_size()'
p339
S'117'
p340
tp341
a(S'MPI_Wtime()'
p342
S'158'
p343
tp344
a(S'MPI_Reduce()'
p345
S'255'
p346
tp347
a(S'MPI_Wtime()'
p348
S'513'
p349
tp350
a(S'MPI_Wtime()'
p351
S'533'
p352
tp353
a(S'MPI_Wtime()'
p354
S'542'
p355
tp356
a(S'MPI_Wtime()'
p357
S'555'
p358
tp359
a(S'MPI_Wtime()'
p360
S'624'
p361
tp362
a(S'MPI_Wtime()'
p363
S'642'
p364
tp365
a(S'MPI_Wtime()'
p366
S'693'
p367
tp368
a(S'MPI_Wtime()'
p369
S'741'
p370
tp371
a(S'MPI_Allreduce()'
p372
S'751'
p373
tp374
a(S'MPI_Allreduce()'
p375
S'759'
p376
tp377
a(S'MPI_Reduce()'
p378
S'767'
p379
tp380
a(S'MPI_Reduce()'
p381
S'768'
p382
tp383
a(S'MPI_Reduce()'
p384
S'771'
p385
tp386
a(S'MPI_Finalize()'
p387
S'805'
p388
tp389
asS'to_merge_master_parmoon/Examples/TNSE_3D/Aerofoil_3D.h'
p390
(lp391
(S'MPI_Comm_rank()'
p392
S'10'
p393
tp394
asS'to_merge_master_parmoon/src/FE/MultiGridScaIte.C'
p395
(lp396
(S'MPI_Wtime()'
p397
S'112'
p398
tp399
a(S'MPI_Wtime()'
p400
S'121'
p401
tp402
a(S'MPI_Wtime()'
p403
S'157'
p404
tp405
a(S'MPI_Wtime()'
p406
S'166'
p407
tp408
asS'to_merge_master_parmoon/src/FE/DiscreteForm2D.C'
p409
(lp410
(S'MPI_Comm_rank()'
p411
S'104'
p412
tp413
a(S'MPI_Comm_rank()'
p414
S'177'
p415
tp416
asS'to_merge_master_parmoon/src/General/ReadParam.C'
p417
(lp418
(S'MPI_Comm_rank()'
p419
S'44'
p420
tp421
a(S'MPI_Comm_rank()'
p422
S'3732'
p423
tp424
a(S'MPI_Comm_rank()'
p425
S'3942'
p426
tp427
asS'to_merge_master_parmoon/Examples/TNSE_3D/climate_2.h'
p428
(lp429
(S'MPI_Comm_rank()'
p430
S'17'
p431
tp432
asS'to_merge_master_parmoon/Examples/TNSE_3D/Channel_6DOF_ALE.h'
p433
(lp434
(S'MPI_Comm_rank()'
p435
S'11'
p436
tp437
asS'to_merge_master_parmoon/3DPrograms/TCD3D_ParMooN.C'
p438
(lp439
(S'MPI_Init()'
p440
S'98'
p441
tp442
a(S'MPI_Comm_rank()'
p443
S'102'
p444
tp445
a(S'MPI_Comm_size()'
p446
S'103'
p447
tp448
a(S'MPI_Wtime()'
p449
S'135'
p450
tp451
a(S'MPI_Reduce()'
p452
S'224'
p453
tp454
a(S'MPI_Wtime()'
p455
S'385'
p456
tp457
a(S'MPI_Wtime()'
p458
S'404'
p459
tp460
a(S'MPI_Wtime()'
p461
S'417'
p462
tp463
a(S'MPI_Wtime()'
p464
S'426'
p465
tp466
a(S'MPI_Allreduce()'
p467
S'485'
p468
tp469
a(S'MPI_Allreduce()'
p470
S'513'
p471
tp472
a(S'MPI_Wtime()'
p473
S'574'
p474
tp475
a(S'MPI_Wtime()'
p476
S'604'
p477
tp478
a(S'MPI_Wtime()'
p479
S'613'
p480
tp481
a(S'MPI_Wtime()'
p482
S'623'
p483
tp484
a(S'MPI_Wtime()'
p485
S'644'
p486
tp487
a(S'MPI_Allreduce()'
p488
S'687'
p489
tp490
a(S'MPI_Wtime()'
p491
S'735'
p492
tp493
a(S'MPI_Wtime()'
p494
S'743'
p495
tp496
a(S'MPI_Wtime()'
p497
S'772'
p498
tp499
a(S'MPI_Reduce()'
p500
S'799'
p501
tp502
a(S'MPI_Reduce()'
p503
S'800'
p504
tp505
a(S'MPI_Finalize()'
p506
S'824'
p507
tp508
asS'to_merge_master_parmoon/src/System/SystemNSE3D.C'
p509
(lp510
(S'MPI_Finalize()'
p511
S'101'
p512
tp513
a(S'MPI_Finalize()'
p514
S'278'
p515
tp516
a(S'MPI_Finalize()'
p517
S'296'
p518
tp519
a(S'MPI_Wtime()'
p520
S'387'
p521
tp522
a(S'MPI_Comm_rank()'
p523
S'391'
p524
tp525
a(S'MPI_Reduce()'
p526
S'392'
p527
tp528
a(S'MPI_Comm_rank()'
p529
S'459'
p530
tp531
a(S'MPI_Reduce()'
p532
S'461'
p533
tp534
a(S'MPI_Reduce()'
p535
S'467'
p536
tp537
a(S'MPI_Reduce()'
p538
S'474'
p539
tp540
a(S'MPI_Reduce()'
p541
S'480'
p542
tp543
a(S'MPI_Comm_rank()'
p544
S'1162'
p545
tp546
a(S'MPI_Allreduce()'
p547
S'1175'
p548
tp549
a(S'MPI_Allreduce()'
p550
S'1188'
p551
tp552
asS'to_merge_master_parmoon/Examples/TCD_3D/cancer_exp_3d_nd.h'
p553
(lp554
(S'MPI_Comm_rank()'
p555
S'779'
p556
tp557
a(S'MPI_Comm_size()'
p558
S'780'
p559
tp560
a(S'MPI_Comm_rank()'
p561
S'1254'
p562
tp563
a(S'MPI_Comm_size()'
p564
S'1255'
p565
tp566
a(S'MPI_Bcast()'
p567
S'1410'
p568
tp569
a(S'MPI_Bcast()'
p570
S'1411'
p571
tp572
a(S'MPI_Bcast()'
p573
S'1420'
p574
tp575
a(S'MPI_Bcast()'
p576
S'1421'
p577
tp578
a(S'MPI_Bcast()'
p579
S'1543'
p580
tp581
a(S'MPI_Bcast()'
p582
S'1552'
p583
tp584
a(S'MPI_Bcast()'
p585
S'1553'
p586
tp587
a(S'MPI_Comm_rank()'
p588
S'1821'
p589
tp590
a(S'MPI_Comm_size()'
p591
S'1822'
p592
tp593
a(S'MPI_Bcast()'
p594
S'1892'
p595
tp596
a(S'MPI_Bcast()'
p597
S'1893'
p598
tp599
a(S'MPI_Bcast()'
p600
S'1902'
p601
tp602
a(S'MPI_Bcast()'
p603
S'1903'
p604
tp605
a(S'MPI_Comm_rank()'
p606
S'2295'
p607
tp608
a(S'MPI_Comm_size()'
p609
S'2296'
p610
tp611
a(S'MPI_Bcast()'
p612
S'2384'
p613
tp614
a(S'MPI_Bcast()'
p615
S'2385'
p616
tp617
a(S'MPI_Bcast()'
p618
S'2395'
p619
tp620
a(S'MPI_Bcast()'
p621
S'2396'
p622
tp623
a(S'MPI_Bcast()'
p624
S'2397'
p625
tp626
asS'to_merge_master_parmoon/src/System/SystemTNSE3D_ALE.C'
p627
(lp628
(S'MPI_Comm_rank()'
p629
S'1617'
p630
tp631
a(S'MPI_Allreduce()'
p632
S'1698'
p633
tp634
a(S'MPI_Allreduce()'
p635
S'1711'
p636
tp637
a(S'MPI_Comm_rank()'
p638
S'2226'
p639
tp640
a(S'MPI_Allreduce()'
p641
S'2319'
p642
tp643
a(S'MPI_Comm_rank()'
p644
S'2351'
p645
tp646
asS'to_merge_master_parmoon/src/Geometry/BaseCell.C'
p647
(lp648
(S'MPI_Finalize()'
p649
S'205'
p650
tp651
asS'to_merge_master_parmoon/3DPrograms/TNSE3D_ParMooN_ALE.C'
p652
(lp653
(S'MPI_Init()'
p654
S'137'
p655
tp656
a(S'MPI_Comm_rank()'
p657
S'141'
p658
tp659
a(S'MPI_Comm_size()'
p660
S'142'
p661
tp662
a(S'MPI_Wtime()'
p663
S'202'
p664
tp665
a(S'MPI_Reduce()'
p666
S'297'
p667
tp668
a(S'MPI_Wtime()'
p669
S'539'
p670
tp671
a(S'MPI_Wtime()'
p672
S'568'
p673
tp674
a(S'MPI_Wtime()'
p675
S'577'
p676
tp677
a(S'MPI_Bcast()'
p678
S'675'
p679
tp680
a(S'MPI_Bcast()'
p681
S'678'
p682
tp683
a(S'MPI_Bcast()'
p684
S'679'
p685
tp686
a(S'MPI_Bcast()'
p687
S'680'
p688
tp689
a(S'MPI_Bcast()'
p690
S'760'
p691
tp692
a(S'MPI_Bcast()'
p693
S'824'
p694
tp695
a(S'MPI_Finalize()'
p696
S'902'
p697
tp698
asS'to_merge_master_parmoon/src/FE/Output2D.C'
p699
(lp700
(S'MPI_Comm_rank()'
p701
S'2774'
p702
tp703
a(S'MPI_Comm_size()'
p704
S'2775'
p705
tp706
a(S'MPI_Abort()'
p707
S'2813'
p708
tp709
a(S'MPI_Abort()'
p710
S'3114'
p711
tp712
asS'to_merge_master_parmoon/Examples/TNSE_3D/Channel3D_volker.h'
p713
(lp714
(S'MPI_Comm_rank()'
p715
S'10'
p716
tp717
asS'to_merge_master_parmoon/Examples/TNSE_3D/DrivenCavity3D_slip.h'
p718
(lp719
(S'MPI_Comm_rank()'
p720
S'10'
p721
tp722
asS'to_merge_master_parmoon/src/FE/NSE_CellVanka.cu'
p723
(lp724
(S'MPI_Comm_rank()'
p725
S'921'
p726
tp727
a(S'MPI_Wtime()'
p728
S'1555'
p729
tp730
a(S'MPI_Wtime()'
p731
S'1662'
p732
tp733
a(S'MPI_Comm_rank()'
p734
S'1796'
p735
tp736
a(S'MPI_Wtime()'
p737
S'2251'
p738
tp739
a(S'MPI_Wtime()'
p740
S'2468'
p741
tp742
a(S'MPI_Comm_rank()'
p743
S'2628'
p744
tp745
asS'to_merge_master_parmoon/Examples/TNSE_3D/ChannelObstacle3D_ALE.h'
p746
(lp747
(S'MPI_Comm_rank()'
p748
S'11'
p749
tp750
asS'to_merge_master_parmoon/src/FE/MGComponents3D_bkup.C'
p751
(lp752
(S'MPI_Wtime()'
p753
S'211'
p754
tp755
a(S'MPI_Wtime()'
p756
S'455'
p757
tp758
a(S'MPI_Wtime()'
p759
S'715'
p760
tp761
a(S'MPI_Wtime()'
p762
S'962'
p763
tp764
a(S'MPI_Allreduce()'
p765
S'1744'
p766
tp767
a(S'MPI_Allreduce()'
p768
S'1745'
p769
tp770
a(S'MPI_Allreduce()'
p771
S'1764'
p772
tp773
a(S'MPI_Allreduce()'
p774
S'1765'
p775
tp776
a(S'MPI_Allreduce()'
p777
S'1784'
p778
tp779
a(S'MPI_Allreduce()'
p780
S'1785'
p781
tp782
a(S'MPI_Allreduce()'
p783
S'1909'
p784
tp785
a(S'MPI_Allreduce()'
p786
S'1911'
p787
tp788
a(S'MPI_Allreduce()'
p789
S'2058'
p790
tp791
a(S'MPI_Allreduce()'
p792
S'2060'
p793
tp794
asS'to_merge_master_parmoon/Examples/TNSE_3D/Hole3D.h'
p795
(lp796
(S'MPI_Comm_rank()'
p797
S'10'
p798
tp799
asS'to_merge_master_parmoon/Examples/TNSE_3D/ChannelObstacle3D_ALE_slip.h'
p800
(lp801
(S'MPI_Comm_rank()'
p802
S'11'
p803
tp804
asS'to_merge_master_parmoon/src/FE/MGLevel3D.C'
p805
(lp806
(S'MPI_Comm_rank()'
p807
S'229'
p808
tp809
a(S'MPI_Wtime()'
p810
S'232'
p811
tp812
a(S'MPI_Wtime()'
p813
S'243'
p814
tp815
a(S'MPI_Wtime()'
p816
S'245'
p817
tp818
a(S'MPI_Allreduce()'
p819
S'267'
p820
tp821
a(S'MPI_Wtime()'
p822
S'272'
p823
tp824
a(S'MPI_Comm_rank()'
p825
S'292'
p826
tp827
a(S'MPI_Comm_rank()'
p828
S'373'
p829
tp830
a(S'MPI_Comm_rank()'
p831
S'481'
p832
tp833
a(S'MPI_Comm_rank()'
p834
S'1008'
p835
tp836
a(S'MPI_Comm_rank()'
p837
S'1201'
p838
tp839
a(S'MPI_Comm_rank()'
p840
S'1452'
p841
tp842
a(S'MPI_Comm_rank()'
p843
S'1680'
p844
tp845
asS'to_merge_master_parmoon/Main_Users/neha/CircularChannel.h'
p846
(lp847
(S'MPI_Comm_rank()'
p848
S'302'
p849
tp850
a(S'MPI_Comm_size()'
p851
S'303'
p852
tp853
a(S'MPI_Bcast()'
p854
S'462'
p855
tp856
a(S'MPI_Bcast()'
p857
S'463'
p858
tp859
a(S'MPI_Bcast()'
p860
S'472'
p861
tp862
a(S'MPI_Bcast()'
p863
S'473'
p864
tp865
a(S'MPI_Bcast()'
p866
S'599'
p867
tp868
a(S'MPI_Bcast()'
p869
S'608'
p870
tp871
a(S'MPI_Bcast()'
p872
S'609'
p873
tp874
asS'to_merge_master_parmoon/3DPrograms/NSE3D_ParMooN.C'
p875
(lp876
(S'MPI_Init()'
p877
S'79'
p878
tp879
a(S'MPI_Comm_rank()'
p880
S'83'
p881
tp882
a(S'MPI_Comm_size()'
p883
S'84'
p884
tp885
a(S'MPI_Wtime()'
p886
S'125'
p887
tp888
a(S'MPI_Reduce()'
p889
S'221'
p890
tp891
a(S'MPI_Wtime()'
p892
S'479'
p893
tp894
a(S'MPI_Wtime()'
p895
S'499'
p896
tp897
a(S'MPI_Wtime()'
p898
S'508'
p899
tp900
a(S'MPI_Wtime()'
p901
S'607'
p902
tp903
a(S'MPI_Wtime()'
p904
S'655'
p905
tp906
a(S'MPI_Allreduce()'
p907
S'665'
p908
tp909
a(S'MPI_Allreduce()'
p910
S'673'
p911
tp912
a(S'MPI_Reduce()'
p913
S'681'
p914
tp915
a(S'MPI_Reduce()'
p916
S'682'
p917
tp918
a(S'MPI_Reduce()'
p919
S'685'
p920
tp921
a(S'MPI_Finalize()'
p922
S'707'
p923
tp924
asS'to_merge_master_parmoon/src/Parallel/ParFECommunicator2D.C'
p925
(lp926
(S'MPI_Finalize()'
p927
S'38'
p928
tp929
a(S'MPI_Comm_rank()'
p930
S'64'
p931
tp932
a(S'MPI_Reduce()'
p933
S'73'
p934
tp935
a(S'MPI_Comm_rank()'
p936
S'100'
p937
tp938
a(S'MPI_Comm_size()'
p939
S'101'
p940
tp941
a(S'MPI_Allgatherv()'
p942
S'122'
p943
tp944
a(S'MPI_Abort()'
p945
S'221'
p946
tp947
a(S'MPI_Finalize()'
p948
S'366'
p949
tp950
a(S'MPI_Comm_rank()'
p951
S'393'
p952
tp953
a(S'MPI_Comm_size()'
p954
S'394'
p955
tp956
a(S'MPI_Finalize()'
p957
S'439'
p958
tp959
a(S'MPI_Recv()'
p960
S'449'
p961
tp962
a(S'MPI_Recv()'
p963
S'464'
p964
tp965
a(S'MPI_Recv()'
p966
S'467'
p967
tp968
a(S'MPI_Recv()'
p969
S'470'
p970
tp971
a(S'MPI_Wait()'
p972
S'516'
p973
tp974
a(S'MPI_Isend()'
p975
S'520'
p976
tp977
a(S'MPI_Isend()'
p978
S'524'
p979
tp980
a(S'MPI_Send()'
p981
S'537'
p982
tp983
a(S'MPI_Send()'
p984
S'540'
p985
tp986
a(S'MPI_Send()'
p987
S'542'
p988
tp989
a(S'MPI_Send()'
p990
S'543'
p991
tp992
a(S'MPI_Irecv()'
p993
S'546'
p994
tp995
a(S'MPI_Comm_rank()'
p996
S'582'
p997
tp998
a(S'MPI_Abort()'
p999
S'704'
p1000
tp1001
a(S'MPI_Abort()'
p1002
S'735'
p1003
tp1004
a(S'MPI_Wait()'
p1005
S'780'
p1006
tp1007
a(S'MPI_Finalize()'
p1008
S'794'
p1009
tp1010
a(S'MPI_Comm_rank()'
p1011
S'797'
p1012
tp1013
a(S'MPI_Comm_size()'
p1014
S'798'
p1015
tp1016
a(S'MPI_Abort()'
p1017
S'829'
p1018
tp1019
a(S'MPI_Abort()'
p1020
S'842'
p1021
tp1022
a(S'MPI_Abort()'
p1023
S'855'
p1024
tp1025
a(S'MPI_Abort()'
p1026
S'868'
p1027
tp1028
a(S'MPI_Comm_rank()'
p1029
S'894'
p1030
tp1031
a(S'MPI_Comm_size()'
p1032
S'895'
p1033
tp1034
a(S'MPI_Allreduce()'
p1035
S'1062'
p1036
tp1037
a(S'MPI_Gather()'
p1038
S'1075'
p1039
tp1040
a(S'MPI_Gatherv()'
p1041
S'1076'
p1042
tp1043
a(S'X_MPI_INT()'
p1044
S'1077'
p1045
tp1046
a(S'MPI_Abort()'
p1047
S'1200'
p1048
tp1049
a(S'MPI_Bcast()'
p1050
S'1221'
p1051
tp1052
a(S'MPI_Barrier()'
p1053
S'1222'
p1054
tp1055
a(S'MPI_Bcast()'
p1056
S'1231'
p1057
tp1058
a(S'MPI_Bcast()'
p1059
S'1232'
p1060
tp1061
a(S'MPI_Bcast()'
p1062
S'1233'
p1063
tp1064
a(S'MPI_Comm_rank()'
p1065
S'1256'
p1066
tp1067
a(S'MPI_Send()'
p1068
S'1271'
p1069
tp1070
a(S'MPI_Recv()'
p1071
S'1275'
p1072
tp1073
a(S'MPI_Send()'
p1074
S'1286'
p1075
tp1076
a(S'MPI_Recv()'
p1077
S'1290'
p1078
tp1079
a(S'MPI_Comm_rank()'
p1080
S'1324'
p1081
tp1082
a(S'MPI_Pack()'
p1083
S'1342'
p1084
tp1085
a(S'MPI_Send()'
p1086
S'1347'
p1087
tp1088
a(S'MPI_Recv()'
p1089
S'1357'
p1090
tp1091
a(S'MPI_Unpack()'
p1092
S'1362'
p1093
tp1094
a(S'MPI_Pack()'
p1095
S'1381'
p1096
tp1097
a(S'MPI_Send()'
p1098
S'1386'
p1099
tp1100
a(S'MPI_Recv()'
p1101
S'1396'
p1102
tp1103
a(S'MPI_Unpack()'
p1104
S'1401'
p1105
tp1106
asS'to_merge_master_parmoon/src/FE/FgmresIte.C'
p1107
(lp1108
(S'MPI_Comm_rank()'
p1109
S'262'
p1110
tp1111
a(S'MPI_Wtime()'
p1112
S'272'
p1113
tp1114
a(S'MPI_Wtime()'
p1115
S'522'
p1116
tp1117
a(S'MPI_Wtime()'
p1118
S'649'
p1119
tp1120
a(S'MPI_Comm_rank()'
p1121
S'865'
p1122
tp1123
a(S'MPI_Allreduce()'
p1124
S'914'
p1125
tp1126
a(S'MPI_Wtime()'
p1127
S'977'
p1128
tp1129
a(S'MPI_Comm_rank()'
p1130
S'997'
p1131
tp1132
a(S'MPI_Wtime()'
p1133
S'1236'
p1134
tp1135
a(S'MPI_Wtime()'
p1136
S'1363'
p1137
tp1138
asS'to_merge_master_parmoon/Examples/TNSE_3D/ChannelObstacle3D_slip_volker.h'
p1139
(lp1140
(S'MPI_Comm_rank()'
p1141
S'15'
p1142
tp1143
asS'to_merge_master_parmoon/src/Parallel/ColorCell.cu'
p1144
(lp1145
(S'MPI_Comm_rank()'
p1146
S'115'
p1147
tp1148
a(S'MPI_Comm_size()'
p1149
S'116'
p1150
tp1151
a(S'MPI_Comm_rank()'
p1152
S'427'
p1153
tp1154
a(S'MPI_Comm_size()'
p1155
S'428'
p1156
tp1157
asS'to_merge_master_parmoon/src/FE/NSE_MGLevel4.C'
p1158
(lp1159
(S'MPI_Comm_rank()'
p1160
S'473'
p1161
tp1162
a(S'MPI_Allreduce()'
p1163
S'529'
p1164
tp1165
a(S'MPI_Comm_rank()'
p1166
S'555'
p1167
tp1168
a(S'MPI_Wtime()'
p1169
S'814'
p1170
tp1171
a(S'MPI_Wtime()'
p1172
S'1293'
p1173
tp1174
a(S'MPI_Wtime()'
p1175
S'1443'
p1176
tp1177
a(S'MPI_Wtime()'
p1178
S'1584'
p1179
tp1180
a(S'MPI_Wtime()'
p1181
S'1804'
p1182
tp1183
a(S'MPI_Wtime()'
p1184
S'1964'
p1185
tp1186
a(S'MPI_Wtime()'
p1187
S'1971'
p1188
tp1189
a(S'MPI_Wtime()'
p1190
S'2035'
p1191
tp1192
a(S'MPI_Comm_rank()'
p1193
S'4115'
p1194
tp1195
a(S'MPI_Wtime()'
p1196
S'4222'
p1197
tp1198
a(S'MPI_Wtime()'
p1199
S'4417'
p1200
tp1201
a(S'MPI_Wtime()'
p1202
S'4448'
p1203
tp1204
a(S'MPI_Wtime()'
p1205
S'4496'
p1206
tp1207
a(S'MPI_Wtime()'
p1208
S'4821'
p1209
tp1210
a(S'MPI_Comm_rank()'
p1211
S'5889'
p1212
tp1213
a(S'MPI_Allreduce()'
p1214
S'5956'
p1215
tp1216
a(S'MPI_Allreduce()'
p1217
S'5994'
p1218
tp1219
asS'to_merge_master_parmoon/3DPrograms/HyperElastic3D_ParMooN.C'
p1220
(lp1221
(S'MPI_Init()'
p1222
S'118'
p1223
tp1224
a(S'MPI_Comm_rank()'
p1225
S'122'
p1226
tp1227
a(S'MPI_Comm_size()'
p1228
S'123'
p1229
tp1230
a(S'MPI_Wtime()'
p1231
S'163'
p1232
tp1233
a(S'MPI_Reduce()'
p1234
S'252'
p1235
tp1236
a(S'MPI_Wtime()'
p1237
S'478'
p1238
tp1239
a(S'MPI_Wtime()'
p1240
S'496'
p1241
tp1242
a(S'MPI_Wtime()'
p1243
S'505'
p1244
tp1245
a(S'MPI_Wtime()'
p1246
S'604'
p1247
tp1248
asS'to_merge_master_parmoon/src/FE/Structure2D.C'
p1249
(lp1250
(S'MPI_Comm_rank()'
p1251
S'749'
p1252
tp1253
a(S'MPI_Comm_rank()'
p1254
S'1044'
p1255
tp1256
a(S'MPI_Comm_rank()'
p1257
S'1671'
p1258
tp1259
a(S'MPI_Comm_rank()'
p1260
S'1747'
p1261
tp1262
a(S'MPI_Comm_rank()'
p1263
S'2072'
p1264
tp1265
a(S'MPI_Comm_rank()'
p1266
S'2302'
p1267
tp1268
asS'to_merge_master_parmoon/src/Geometry/Domain.C'
p1269
(lp1270
(S'MPI_Comm_rank()'
p1271
S'346'
p1272
tp1273
a(S'MPI_Comm_rank()'
p1274
S'2913'
p1275
tp1276
asS'to_merge_master_parmoon/src/System/SystemTNSE3D.C'
p1277
(lp1278
(S'MPI_Comm_rank()'
p1279
S'1281'
p1280
tp1281
a(S'MPI_Allreduce()'
p1282
S'1362'
p1283
tp1284
a(S'MPI_Allreduce()'
p1285
S'1375'
p1286
tp1287
a(S'MPI_Comm_rank()'
p1288
S'2096'
p1289
tp1290
a(S'MPI_Allreduce()'
p1291
S'2194'
p1292
tp1293
a(S'MPI_Comm_rank()'
p1294
S'2226'
p1295
tp1296
asS'to_merge_master_parmoon/src/FE/FE3D.C'
p1297
(lp1298
(S'MPI_Comm_rank()'
p1299
S'63'
p1300
tp1301
asS'to_merge_master_parmoon/src/FE/SquareStructure2D.C'
p1302
(lp1303
(S'MPI_Comm_rank()'
p1304
S'882'
p1305
tp1306
asS'to_merge_master_parmoon/src/System/SystemHyperElast3D.C'
p1307
(lp1308
(S'MPI_Wtime()'
p1309
S'220'
p1310
tp1311
a(S'MPI_Comm_rank()'
p1312
S'224'
p1313
tp1314
a(S'MPI_Reduce()'
p1315
S'225'
p1316
tp1317
a(S'MPI_Comm_rank()'
p1318
S'1012'
p1319
tp1320
a(S'MPI_Allreduce()'
p1321
S'1025'
p1322
tp1323
a(S'MPI_Allreduce()'
p1324
S'1038'
p1325
tp1326
asS'to_merge_master_parmoon/3DPrograms/TNSE3D_ParMooN.C'
p1327
(lp1328
(S'MPI_Init()'
p1329
S'131'
p1330
tp1331
a(S'MPI_Comm_rank()'
p1332
S'135'
p1333
tp1334
a(S'MPI_Comm_size()'
p1335
S'136'
p1336
tp1337
a(S'MPI_Wtime()'
p1338
S'191'
p1339
tp1340
a(S'MPI_Reduce()'
p1341
S'288'
p1342
tp1343
a(S'MPI_Wtime()'
p1344
S'501'
p1345
tp1346
a(S'MPI_Wtime()'
p1347
S'530'
p1348
tp1349
a(S'MPI_Wtime()'
p1350
S'539'
p1351
tp1352
a(S'MPI_Bcast()'
p1353
S'640'
p1354
tp1355
a(S'MPI_Bcast()'
p1356
S'643'
p1357
tp1358
a(S'MPI_Bcast()'
p1359
S'644'
p1360
tp1361
a(S'MPI_Bcast()'
p1362
S'645'
p1363
tp1364
a(S'MPI_Bcast()'
p1365
S'731'
p1366
tp1367
a(S'MPI_Bcast()'
p1368
S'813'
p1369
tp1370
a(S'MPI_Finalize()'
p1371
S'887'
p1372
tp1373
asS'to_merge_master_parmoon/src/FE/MGLevel2D.C'
p1374
(lp1375
(S'MPI_Comm_rank()'
p1376
S'161'
p1377
tp1378
asS'to_merge_master_parmoon/src/Parallel/ParDirectSolver_bkup.C'
p1379
(lp1380
(S'MPI_Comm_rank()'
p1381
S'57'
p1382
tp1383
a(S'MPI_Comm_size()'
p1384
S'58'
p1385
tp1386
a(S'MPI_Finalize()'
p1387
S'64'
p1388
tp1389
a(S'MPI_Finalize()'
p1390
S'79'
p1391
tp1392
a(S'MPI_Comm_rank()'
p1393
S'106'
p1394
tp1395
a(S'MPI_Comm_size()'
p1396
S'107'
p1397
tp1398
a(S'MPI_Allreduce()'
p1399
S'141'
p1400
tp1401
a(S'MPI_Allreduce()'
p1402
S'191'
p1403
tp1404
a(S'MPI_Allreduce()'
p1405
S'250'
p1406
tp1407
a(S'MPI_Comm_rank()'
p1408
S'263'
p1409
tp1410
a(S'MPI_Comm_size()'
p1411
S'264'
p1412
tp1413
a(S'MPI_Comm_rank()'
p1414
S'372'
p1415
tp1416
a(S'MPI_Comm_size()'
p1417
S'373'
p1418
tp1419
a(S'MPI_Comm_rank()'
p1420
S'439'
p1421
tp1422
a(S'MPI_Comm_size()'
p1423
S'440'
p1424
tp1425
a(S'MPI_Comm_rank()'
p1426
S'506'
p1427
tp1428
a(S'MPI_Comm_size()'
p1429
S'507'
p1430
tp1431
a(S'MPI_Finalize()'
p1432
S'528'
p1433
tp1434
asS'to_merge_master_parmoon/src/FE/MGCycleGPU.cu'
p1435
(lp1436
(S'MPI_Comm_rank()'
p1437
S'80'
p1438
tp1439
a(S'MPI_Comm_rank()'
p1440
S'126'
p1441
tp1442
a(S'MPI_Wtime()'
p1443
S'169'
p1444
tp1445
a(S'MPI_Wtime()'
p1446
S'180'
p1447
tp1448
a(S'MPI_Comm_rank()'
p1449
S'276'
p1450
tp1451
a(S'MPI_Wtime()'
p1452
S'321'
p1453
tp1454
a(S'MPI_Wtime()'
p1455
S'332'
p1456
tp1457
a(S'MPI_Comm_rank()'
p1458
S'388'
p1459
tp1460
a(S'MPI_Wtime()'
p1461
S'474'
p1462
tp1463
a(S'MPI_Wtime()'
p1464
S'485'
p1465
tp1466
asS'to_merge_master_parmoon/src/FE/MGComponents2D.C'
p1467
(lp1468
(S'MPI_Comm_rank()'
p1469
S'1838'
p1470
tp1471
a(S'MPI_Allreduce()'
p1472
S'1916'
p1473
tp1474
a(S'MPI_Allreduce()'
p1475
S'1918'
p1476
tp1477
asS'to_merge_master_parmoon/Examples/RB_3D/import3Dmesh4.h'
p1478
(lp1479
(S'MPI_Comm_rank()'
p1480
S'1026'
p1481
tp1482
a(S'MPI_Comm_size()'
p1483
S'1027'
p1484
tp1485
a(S'MPI_Bcast()'
p1486
S'1178'
p1487
tp1488
a(S'MPI_Bcast()'
p1489
S'1179'
p1490
tp1491
a(S'MPI_Bcast()'
p1492
S'1188'
p1493
tp1494
a(S'MPI_Bcast()'
p1495
S'1189'
p1496
tp1497
a(S'MPI_Bcast()'
p1498
S'1305'
p1499
tp1500
a(S'MPI_Bcast()'
p1501
S'1314'
p1502
tp1503
a(S'MPI_Bcast()'
p1504
S'1315'
p1505
tp1506
a(S'MPI_Comm_rank()'
p1507
S'1564'
p1508
tp1509
a(S'MPI_Comm_size()'
p1510
S'1565'
p1511
tp1512
a(S'MPI_Bcast()'
p1513
S'1628'
p1514
tp1515
a(S'MPI_Bcast()'
p1516
S'1629'
p1517
tp1518
a(S'MPI_Bcast()'
p1519
S'1635'
p1520
tp1521
a(S'MPI_Bcast()'
p1522
S'1636'
p1523
tp1524
a(S'MPI_Comm_rank()'
p1525
S'1995'
p1526
tp1527
a(S'MPI_Comm_size()'
p1528
S'1996'
p1529
tp1530
a(S'MPI_Bcast()'
p1531
S'2075'
p1532
tp1533
a(S'MPI_Bcast()'
p1534
S'2076'
p1535
tp1536
a(S'MPI_Bcast()'
p1537
S'2085'
p1538
tp1539
a(S'MPI_Bcast()'
p1540
S'2086'
p1541
tp1542
a(S'MPI_Bcast()'
p1543
S'2087'
p1544
tp1545
asS'to_merge_master_parmoon/3DPrograms/CD3D_ParMooN.C'
p1546
(lp1547
(S'MPI_Init()'
p1548
S'73'
p1549
tp1550
a(S'MPI_Comm_rank()'
p1551
S'77'
p1552
tp1553
a(S'MPI_Comm_size()'
p1554
S'78'
p1555
tp1556
a(S'MPI_Wtime()'
p1557
S'110'
p1558
tp1559
a(S'MPI_Reduce()'
p1560
S'210'
p1561
tp1562
a(S'MPI_Wtime()'
p1563
S'382'
p1564
tp1565
a(S'MPI_Wtime()'
p1566
S'398'
p1567
tp1568
a(S'MPI_Reduce()'
p1569
S'404'
p1570
tp1571
a(S'MPI_Wtime()'
p1572
S'411'
p1573
tp1574
a(S'MPI_Wtime()'
p1575
S'421'
p1576
tp1577
a(S'MPI_Reduce()'
p1578
S'427'
p1579
tp1580
a(S'MPI_Wtime()'
p1581
S'435'
p1582
tp1583
a(S'MPI_Wtime()'
p1584
S'445'
p1585
tp1586
a(S'MPI_Reduce()'
p1587
S'451'
p1588
tp1589
a(S'MPI_Wtime()'
p1590
S'461'
p1591
tp1592
a(S'MPI_Wtime()'
p1593
S'494'
p1594
tp1595
a(S'MPI_Reduce()'
p1596
S'500'
p1597
tp1598
a(S'MPI_Reduce()'
p1599
S'521'
p1600
tp1601
a(S'MPI_Wtime()'
p1602
S'539'
p1603
tp1604
a(S'MPI_Reduce()'
p1605
S'540'
p1606
tp1607
a(S'MPI_Reduce()'
p1608
S'541'
p1609
tp1610
a(S'MPI_Reduce()'
p1611
S'555'
p1612
tp1613
a(S'MPI_Reduce()'
p1614
S'556'
p1615
tp1616
a(S'MPI_Finalize()'
p1617
S'586'
p1618
tp1619
asS'to_merge_master_parmoon/src/FE/FEVectFunct3D.C'
p1620
(lp1621
(S'MPI_Comm_rank()'
p1622
S'442'
p1623
tp1624
a(S'MPI_Comm_rank()'
p1625
S'508'
p1626
tp1627
a(S'MPI_Finalize()'
p1628
S'523'
p1629
tp1630
a(S'MPI_Finalize()'
p1631
S'540'
p1632
tp1633
asS'to_merge_master_parmoon/Examples/TNSE_3D/Aerofoil_3D_ALE_slip.h'
p1634
(lp1635
(S'MPI_Comm_rank()'
p1636
S'11'
p1637
tp1638
asS'to_merge_master_parmoon/include/General/Constants.h'
p1639
(lp1640
(S'MPI_Barrier()'
p1641
S'316'
p1642
tp1643
a(S'MPI_Barrier()'
p1644
S'324'
p1645
tp1646
asS'to_merge_master_parmoon/Main_Users/neha/CD3D_ParMooN.C'
p1647
(lp1648
(S'MPI_Init()'
p1649
S'86'
p1650
tp1651
a(S'MPI_Comm_rank()'
p1652
S'90'
p1653
tp1654
a(S'MPI_Comm_size()'
p1655
S'91'
p1656
tp1657
a(S'MPI_Wtime()'
p1658
S'123'
p1659
tp1660
a(S'MPI_Reduce()'
p1661
S'223'
p1662
tp1663
a(S'MPI_Wtime()'
p1664
S'458'
p1665
tp1666
a(S'MPI_Wtime()'
p1667
S'474'
p1668
tp1669
a(S'MPI_Reduce()'
p1670
S'480'
p1671
tp1672
a(S'MPI_Wtime()'
p1673
S'487'
p1674
tp1675
a(S'MPI_Wtime()'
p1676
S'497'
p1677
tp1678
a(S'MPI_Reduce()'
p1679
S'503'
p1680
tp1681
a(S'MPI_Wtime()'
p1682
S'511'
p1683
tp1684
a(S'MPI_Wtime()'
p1685
S'524'
p1686
tp1687
a(S'MPI_Reduce()'
p1688
S'531'
p1689
tp1690
a(S'MPI_Wtime()'
p1691
S'541'
p1692
tp1693
a(S'MPI_Wtime()'
p1694
S'574'
p1695
tp1696
a(S'MPI_Reduce()'
p1697
S'580'
p1698
tp1699
a(S'MPI_Reduce()'
p1700
S'601'
p1701
tp1702
a(S'MPI_Wtime()'
p1703
S'619'
p1704
tp1705
a(S'MPI_Reduce()'
p1706
S'620'
p1707
tp1708
a(S'MPI_Reduce()'
p1709
S'621'
p1710
tp1711
a(S'MPI_Reduce()'
p1712
S'635'
p1713
tp1714
a(S'MPI_Reduce()'
p1715
S'636'
p1716
tp1717
a(S'MPI_Finalize()'
p1718
S'671'
p1719
tp1720
asS'to_merge_master_parmoon/Examples/TNSE_3D/Channel3D_slip.h'
p1721
(lp1722
(S'MPI_Comm_rank()'
p1723
S'10'
p1724
tp1725
asS'to_merge_master_parmoon/Examples/TNSE_3D/ChannelObstacle3D_slip.h'
p1726
(lp1727
(S'MPI_Comm_rank()'
p1728
S'10'
p1729
tp1730
asS'to_merge_master_parmoon/src/Parallel/ParFEMapper3D.C'
p1731
(lp1732
(S'MPI_Finalize()'
p1733
S'78'
p1734
tp1735
a(S'MPI_Comm_rank()'
p1736
S'124'
p1737
tp1738
a(S'MPI_Comm_size()'
p1739
S'125'
p1740
tp1741
a(S'MPI_Comm_rank()'
p1742
S'766'
p1743
tp1744
a(S'MPI_Comm_size()'
p1745
S'767'
p1746
tp1747
a(S'MPI_Finalize()'
p1748
S'1107'
p1749
tp1750
a(S'MPI_Comm_rank()'
p1751
S'1128'
p1752
tp1753
a(S'MPI_Comm_size()'
p1754
S'1129'
p1755
tp1756
a(S'MPI_Wtime()'
p1757
S'1131'
p1758
tp1759
a(S'MPI_Alltoall()'
p1760
S'1263'
p1761
tp1762
a(S'MPI_Alltoallv()'
p1763
S'1293'
p1764
tp1765
a(S'MPI_Alltoallv()'
p1766
S'1294'
p1767
tp1768
a(S'MPI_Alltoallv()'
p1769
S'1304'
p1770
tp1771
a(S'MPI_Wtime()'
p1772
S'1332'
p1773
tp1774
a(S'MPI_Allgather()'
p1775
S'1398'
p1776
tp1777
a(S'MPI_Allgather()'
p1778
S'1399'
p1779
tp1780
a(S'MPI_Alltoall()'
p1781
S'1432'
p1782
tp1783
a(S'MPI_Alltoallv()'
p1784
S'1476'
p1785
tp1786
a(S'MPI_Alltoallv()'
p1787
S'1477'
p1788
tp1789
a(S'MPI_Finalize()'
p1790
S'1489'
p1791
tp1792
a(S'MPI_Finalize()'
p1793
S'1496'
p1794
tp1795
a(S'MPI_Finalize()'
p1796
S'1503'
p1797
tp1798
a(S'MPI_Alltoallv()'
p1799
S'1512'
p1800
tp1801
a(S'MPI_Finalize()'
p1802
S'1526'
p1803
tp1804
a(S'MPI_Finalize()'
p1805
S'1533'
p1806
tp1807
a(S'MPI_Finalize()'
p1808
S'1540'
p1809
tp1810
a(S'MPI_Finalize()'
p1811
S'1568'
p1812
tp1813
a(S'MPI_Finalize()'
p1814
S'1576'
p1815
tp1816
a(S'MPI_Allgather()'
p1817
S'1608'
p1818
tp1819
a(S'MPI_Allgatherv()'
p1820
S'1628'
p1821
tp1822
a(S'MPI_Finalize()'
p1823
S'1672'
p1824
tp1825
a(S'MPI_Finalize()'
p1826
S'1735'
p1827
tp1828
a(S'MPI_Wtime()'
p1829
S'1760'
p1830
tp1831
a(S'MPI_Wtime()'
p1832
S'1995'
p1833
tp1834
a(S'MPI_Barrier()'
p1835
S'2084'
p1836
tp1837
a(S'MPI_Alltoall()'
p1838
S'2101'
p1839
tp1840
a(S'MPI_Alltoall()'
p1841
S'2102'
p1842
tp1843
a(S'MPI_Alltoall()'
p1844
S'2103'
p1845
tp1846
a(S'MPI_Alltoall()'
p1847
S'2104'
p1848
tp1849
a(S'MPI_Alltoallv()'
p1850
S'2231'
p1851
tp1852
a(S'MPI_Alltoallv()'
p1853
S'2232'
p1854
tp1855
a(S'MPI_Alltoallv()'
p1856
S'2310'
p1857
tp1858
a(S'MPI_Alltoallv()'
p1859
S'2311'
p1860
tp1861
a(S'MPI_Alltoallv()'
p1862
S'2335'
p1863
tp1864
a(S'MPI_Alltoallv()'
p1865
S'2336'
p1866
tp1867
a(S'MPI_Wtime()'
p1868
S'2397'
p1869
tp1870
a(S'MPI_Finalize()'
p1871
S'2416'
p1872
tp1873
a(S'MPI_Finalize()'
p1874
S'2424'
p1875
tp1876
a(S'MPI_Finalize()'
p1877
S'2430'
p1878
tp1879
a(S'MPI_Comm_rank()'
p1880
S'2460'
p1881
tp1882
a(S'MPI_Comm_size()'
p1883
S'2461'
p1884
tp1885
a(S'MPI_Alltoall()'
p1886
S'2589'
p1887
tp1888
a(S'MPI_Alltoallv()'
p1889
S'2628'
p1890
tp1891
a(S'MPI_Alltoallv()'
p1892
S'2629'
p1893
tp1894
a(S'MPI_Alltoallv()'
p1895
S'2640'
p1896
tp1897
a(S'MPI_Alltoall()'
p1898
S'2705'
p1899
tp1900
a(S'MPI_Alltoallv()'
p1901
S'2747'
p1902
tp1903
a(S'MPI_Alltoallv()'
p1904
S'2748'
p1905
tp1906
a(S'MPI_Barrier()'
p1907
S'2799'
p1908
tp1909
a(S'MPI_Comm_rank()'
p1910
S'2809'
p1911
tp1912
a(S'MPI_Comm_size()'
p1913
S'2810'
p1914
tp1915
a(S'MPI_Allgather()'
p1916
S'2826'
p1917
tp1918
a(S'MPI_Alltoallv()'
p1919
S'2885'
p1920
tp1921
a(S'MPI_Alltoallv()'
p1922
S'2897'
p1923
tp1924
a(S'MPI_Alltoallv()'
p1925
S'2909'
p1926
tp1927
a(S'MPI_Alltoallv()'
p1928
S'2927'
p1929
tp1930
a(S'MPI_Finalize()'
p1931
S'2973'
p1932
tp1933
asS'to_merge_master_parmoon/src/Parallel/MeshPartition.C'
p1934
(lp1935
(S'MPI_Comm_rank()'
p1936
S'332'
p1937
tp1938
a(S'MPI_Comm_size()'
p1939
S'333'
p1940
tp1941
a(S'MPI_Allreduce()'
p1942
S'364'
p1943
tp1944
a(S'MPI_Finalize()'
p1945
S'383'
p1946
tp1947
a(S'MPI_Finalize()'
p1948
S'392'
p1949
tp1950
a(S'MPI_Finalize()'
p1951
S'424'
p1952
tp1953
a(S'MPI_Send()'
p1954
S'498'
p1955
tp1956
a(S'MPI_Send()'
p1957
S'505'
p1958
tp1959
a(S'MPI_Wtime()'
p1960
S'515'
p1961
tp1962
a(S'MPI_Abort()'
p1963
S'528'
p1964
tp1965
a(S'MPI_Wtime()'
p1966
S'531'
p1967
tp1968
a(S'MPI_Send()'
p1969
S'552'
p1970
tp1971
a(S'MPI_Send()'
p1972
S'577'
p1973
tp1974
a(S'MPI_Recv()'
p1975
S'586'
p1976
tp1977
a(S'MPI_Recv()'
p1978
S'589'
p1979
tp1980
a(S'MPI_Recv()'
p1981
S'591'
p1982
tp1983
a(S'MPI_Recv()'
p1984
S'595'
p1985
tp1986
a(S'MPI_Bcast()'
p1987
S'600'
p1988
tp1989
a(S'MPI_Bcast()'
p1990
S'601'
p1991
tp1992
a(S'MPI_Allreduce()'
p1993
S'792'
p1994
tp1995
a(S'MPI_Abort()'
p1996
S'909'
p1997
tp1998
a(S'MPI_Barrier()'
p1999
S'1256'
p2000
tp2001
a(S'MPI_Comm_rank()'
p2002
S'1301'
p2003
tp2004
a(S'MPI_Comm_size()'
p2005
S'1302'
p2006
tp2007
a(S'MPI_Abort()'
p2008
S'1723'
p2009
tp2010
a(S'MPI_Barrier()'
p2011
S'2115'
p2012
tp2013
asS'to_merge_master_parmoon/src/FE/FESpace3D.C'
p2014
(lp2015
(S'MPI_Comm_rank()'
p2016
S'519'
p2017
tp2018
a(S'MPI_Abort()'
p2019
S'584'
p2020
tp2021
a(S'MPI_Abort()'
p2022
S'1560'
p2023
tp2024
a(S'MPI_Finalize()'
p2025
S'1586'
p2026
tp2027
asS'to_merge_master_parmoon/src/FE/MultiGridIte.C'
p2028
(lp2029
(S'MPI_Comm_rank()'
p2030
S'85'
p2031
tp2032
a(S'MPI_Comm_rank()'
p2033
S'144'
p2034
tp2035
asS'to_merge_master_parmoon/src/FE/SOR_Re.cu'
p2036
(lp2037
(S'MPI_Comm_rank()'
p2038
S'866'
p2039
tp2040
a(S'MPI_Comm_rank()'
p2041
S'1056'
p2042
tp2043
a(S'MPI_Comm_rank()'
p2044
S'1674'
p2045
tp2046
a(S'MPI_Comm_rank()'
p2047
S'2103'
p2048
tp2049
a(S'MPI_Comm_rank()'
p2050
S'2696'
p2051
tp2052
asS'to_merge_master_parmoon/Examples/NSE_3D/DrivenCavity3D.h'
p2053
(lp2054
(S'MPI_Comm_rank()'
p2055
S'10'
p2056
tp2057
asS'to_merge_master_parmoon/src/FE/FEVectFunct2D.C'
p2058
(lp2059
(S'MPI_Comm_rank()'
p2060
S'514'
p2061
tp2062
asS'to_merge_master_parmoon/Examples/TNSE_3D/ShipHydro.h'
p2063
(lp2064
(S'MPI_Comm_rank()'
p2065
S'11'
p2066
tp2067
asS'to_merge_master_parmoon/src/System/SystemCD3D.C'
p2068
(lp2069
(S'MPI_Comm_rank()'
p2070
S'144'
p2071
tp2072
a(S'MPI_Wtime()'
p2073
S'148'
p2074
tp2075
a(S'MPI_Reduce()'
p2076
S'150'
p2077
tp2078
a(S'MPI_Reduce()'
p2079
S'160'
p2080
tp2081
a(S'MPI_Reduce()'
p2082
S'166'
p2083
tp2084
asS'to_merge_master_parmoon/src/Parallel/ParFECommunicator3D.C'
p2085
(lp2086
(S'MPI_Finalize()'
p2087
S'70'
p2088
tp2089
a(S'MPI_Alltoallv()'
p2090
S'87'
p2091
tp2092
a(S'MPI_Finalize()'
p2093
S'107'
p2094
tp2095
a(S'MPI_Alltoallv()'
p2096
S'124'
p2097
tp2098
a(S'MPI_Finalize()'
p2099
S'145'
p2100
tp2101
a(S'MPI_Alltoallv()'
p2102
S'162'
p2103
tp2104
a(S'MPI_Finalize()'
p2105
S'182'
p2106
tp2107
a(S'MPI_Finalize()'
p2108
S'198'
p2109
tp2110
a(S'MPI_Alltoallv()'
p2111
S'224'
p2112
tp2113
a(S'MPI_Finalize()'
p2114
S'246'
p2115
tp2116
a(S'MPI_Comm_rank()'
p2117
S'255'
p2118
tp2119
a(S'MPI_Comm_size()'
p2120
S'256'
p2121
tp2122
a(S'MPI_Alltoallv()'
p2123
S'299'
p2124
tp2125
a(S'MPI_Alltoallv()'
p2126
S'320'
p2127
tp2128
a(S'MPI_Comm_rank()'
p2129
S'338'
p2130
tp2131
a(S'MPI_Comm_size()'
p2132
S'339'
p2133
tp2134
a(S'MPI_Allgather()'
p2135
S'344'
p2136
tp2137
a(S'MPI_Gatherv()'
p2138
S'350'
p2139
tp2140
a(S'MPI_Comm_rank()'
p2141
S'368'
p2142
tp2143
a(S'MPI_Comm_size()'
p2144
S'369'
p2145
tp2146
a(S'MPI_Allgather()'
p2147
S'374'
p2148
tp2149
a(S'MPI_Scatterv()'
p2150
S'380'
p2151
tp2152
a(S'MPI_Finalize()'
p2153
S'403'
p2154
tp2155
a(S'MPI_Alltoallv()'
p2156
S'452'
p2157
tp2158
a(S'MPI_Finalize()'
p2159
S'474'
p2160
tp2161
a(S'MPI_Alltoallv()'
p2162
S'492'
p2163
tp2164
a(S'MPI_Finalize()'
p2165
S'512'
p2166
tp2167
a(S'MPI_Alltoallv()'
p2168
S'530'
p2169
tp2170
a(S'MPI_Finalize()'
p2171
S'551'
p2172
tp2173
a(S'MPI_Alltoallv()'
p2174
S'568'
p2175
tp2176
asS'to_merge_master_parmoon/Examples/RB_3D/aerofoil_expt.h'
p2177
(lp2178
(S'MPI_Comm_rank()'
p2179
S'911'
p2180
tp2181
a(S'MPI_Comm_size()'
p2182
S'912'
p2183
tp2184
a(S'MPI_Comm_rank()'
p2185
S'1618'
p2186
tp2187
a(S'MPI_Comm_size()'
p2188
S'1619'
p2189
tp2190
a(S'MPI_Bcast()'
p2191
S'1820'
p2192
tp2193
a(S'MPI_Bcast()'
p2194
S'1821'
p2195
tp2196
a(S'MPI_Bcast()'
p2197
S'1830'
p2198
tp2199
a(S'MPI_Bcast()'
p2200
S'1831'
p2201
tp2202
a(S'MPI_Bcast()'
p2203
S'1993'
p2204
tp2205
a(S'MPI_Bcast()'
p2206
S'2002'
p2207
tp2208
a(S'MPI_Bcast()'
p2209
S'2003'
p2210
tp2211
a(S'MPI_Comm_rank()'
p2212
S'2271'
p2213
tp2214
a(S'MPI_Comm_size()'
p2215
S'2272'
p2216
tp2217
a(S'MPI_Bcast()'
p2218
S'2343'
p2219
tp2220
a(S'MPI_Bcast()'
p2221
S'2344'
p2222
tp2223
a(S'MPI_Bcast()'
p2224
S'2353'
p2225
tp2226
a(S'MPI_Bcast()'
p2227
S'2354'
p2228
tp2229
a(S'MPI_Comm_rank()'
p2230
S'2746'
p2231
tp2232
a(S'MPI_Comm_size()'
p2233
S'2747'
p2234
tp2235
a(S'MPI_Bcast()'
p2236
S'2839'
p2237
tp2238
a(S'MPI_Bcast()'
p2239
S'2840'
p2240
tp2241
a(S'MPI_Bcast()'
p2242
S'2850'
p2243
tp2244
a(S'MPI_Bcast()'
p2245
S'2851'
p2246
tp2247
a(S'MPI_Bcast()'
p2248
S'2852'
p2249
tp2250
asS'to_merge_master_parmoon/src/FE/MultiGrid2D.C'
p2251
(lp2252
(S'MPI_Finalize()'
p2253
S'370'
p2254
tp2255
a(S'MPI_Finalize()'
p2256
S'631'
p2257
tp2258
asS'to_merge_master_parmoon/src/FE/FEM_TVD_FCT.C'
p2259
(lp2260
(S'MPI_Finalize()'
p2261
S'556'
p2262
tp2263
asS'to_merge_master_parmoon/Examples/RB_3D/import3Dmesh3.h'
p2264
(lp2265
(S'MPI_Comm_rank()'
p2266
S'1013'
p2267
tp2268
a(S'MPI_Comm_size()'
p2269
S'1014'
p2270
tp2271
a(S'MPI_Bcast()'
p2272
S'1165'
p2273
tp2274
a(S'MPI_Bcast()'
p2275
S'1166'
p2276
tp2277
a(S'MPI_Bcast()'
p2278
S'1175'
p2279
tp2280
a(S'MPI_Bcast()'
p2281
S'1176'
p2282
tp2283
a(S'MPI_Bcast()'
p2284
S'1292'
p2285
tp2286
a(S'MPI_Bcast()'
p2287
S'1301'
p2288
tp2289
a(S'MPI_Bcast()'
p2290
S'1302'
p2291
tp2292
a(S'MPI_Comm_rank()'
p2293
S'1551'
p2294
tp2295
a(S'MPI_Comm_size()'
p2296
S'1552'
p2297
tp2298
a(S'MPI_Bcast()'
p2299
S'1615'
p2300
tp2301
a(S'MPI_Bcast()'
p2302
S'1616'
p2303
tp2304
a(S'MPI_Bcast()'
p2305
S'1622'
p2306
tp2307
a(S'MPI_Bcast()'
p2308
S'1623'
p2309
tp2310
a(S'MPI_Comm_rank()'
p2311
S'1982'
p2312
tp2313
a(S'MPI_Comm_size()'
p2314
S'1983'
p2315
tp2316
a(S'MPI_Bcast()'
p2317
S'2062'
p2318
tp2319
a(S'MPI_Bcast()'
p2320
S'2063'
p2321
tp2322
a(S'MPI_Bcast()'
p2323
S'2072'
p2324
tp2325
a(S'MPI_Bcast()'
p2326
S'2073'
p2327
tp2328
a(S'MPI_Bcast()'
p2329
S'2074'
p2330
tp2331
asS'to_merge_master_parmoon/src/FE/DiscreteForm3D.C'
p2332
(lp2333
(S'MPI_Comm_rank()'
p2334
S'90'
p2335
tp2336
a(S'MPI_Comm_rank()'
p2337
S'164'
p2338
tp2339
asS'to_merge_master_parmoon/Examples/RB_3D/import3Dmesh1.h'
p2340
(lp2341
(S'MPI_Comm_rank()'
p2342
S'1057'
p2343
tp2344
a(S'MPI_Comm_size()'
p2345
S'1058'
p2346
tp2347
a(S'MPI_Bcast()'
p2348
S'1209'
p2349
tp2350
a(S'MPI_Bcast()'
p2351
S'1210'
p2352
tp2353
a(S'MPI_Bcast()'
p2354
S'1219'
p2355
tp2356
a(S'MPI_Bcast()'
p2357
S'1220'
p2358
tp2359
a(S'MPI_Bcast()'
p2360
S'1336'
p2361
tp2362
a(S'MPI_Bcast()'
p2363
S'1345'
p2364
tp2365
a(S'MPI_Bcast()'
p2366
S'1346'
p2367
tp2368
a(S'MPI_Comm_rank()'
p2369
S'1612'
p2370
tp2371
a(S'MPI_Comm_size()'
p2372
S'1613'
p2373
tp2374
a(S'MPI_Bcast()'
p2375
S'1676'
p2376
tp2377
a(S'MPI_Bcast()'
p2378
S'1677'
p2379
tp2380
a(S'MPI_Bcast()'
p2381
S'1683'
p2382
tp2383
a(S'MPI_Bcast()'
p2384
S'1684'
p2385
tp2386
a(S'MPI_Comm_rank()'
p2387
S'2043'
p2388
tp2389
a(S'MPI_Comm_size()'
p2390
S'2044'
p2391
tp2392
a(S'MPI_Bcast()'
p2393
S'2123'
p2394
tp2395
a(S'MPI_Bcast()'
p2396
S'2124'
p2397
tp2398
a(S'MPI_Bcast()'
p2399
S'2133'
p2400
tp2401
a(S'MPI_Bcast()'
p2402
S'2134'
p2403
tp2404
a(S'MPI_Bcast()'
p2405
S'2135'
p2406
tp2407
asS'to_merge_master_parmoon/src/FE/FixedPointIte.C'
p2408
(lp2409
(S'MPI_Comm_rank()'
p2410
S'193'
p2411
tp2412
a(S'MPI_Wtime()'
p2413
S'195'
p2414
tp2415
a(S'MPI_Allreduce()'
p2416
S'210'
p2417
tp2418
a(S'MPI_Allreduce()'
p2419
S'258'
p2420
tp2421
a(S'MPI_Wtime()'
p2422
S'293'
p2423
tp2424
a(S'MPI_Comm_rank()'
p2425
S'347'
p2426
tp2427
a(S'MPI_Wtime()'
p2428
S'349'
p2429
tp2430
a(S'MPI_Allreduce()'
p2431
S'364'
p2432
tp2433
a(S'MPI_Allreduce()'
p2434
S'412'
p2435
tp2436
a(S'MPI_Wtime()'
p2437
S'447'
p2438
tp2439
asS'to_merge_master_parmoon/src/FE/FEDatabase3D.C'
p2440
(lp2441
(S'MPI_Comm_rank()'
p2442
S'371'
p2443
tp2444
a(S'MPI_Comm_rank()'
p2445
S'440'
p2446
tp2447
a(S'MPI_Comm_rank()'
p2448
S'509'
p2449
tp2450
a(S'MPI_Comm_rank()'
p2451
S'580'
p2452
tp2453
a(S'MPI_Comm_rank()'
p2454
S'787'
p2455
tp2456
a(S'MPI_Comm_rank()'
p2457
S'919'
p2458
tp2459
a(S'MPI_Comm_rank()'
p2460
S'957'
p2461
tp2462
a(S'MPI_Comm_rank()'
p2463
S'973'
p2464
tp2465
a(S'MPI_Comm_rank()'
p2466
S'1146'
p2467
tp2468
asS'to_merge_master_parmoon/Examples/NSE_3D/CircularChannel.h'
p2469
(lp2470
(S'MPI_Comm_rank()'
p2471
S'302'
p2472
tp2473
a(S'MPI_Comm_size()'
p2474
S'303'
p2475
tp2476
a(S'MPI_Bcast()'
p2477
S'462'
p2478
tp2479
a(S'MPI_Bcast()'
p2480
S'463'
p2481
tp2482
a(S'MPI_Bcast()'
p2483
S'472'
p2484
tp2485
a(S'MPI_Bcast()'
p2486
S'473'
p2487
tp2488
a(S'MPI_Bcast()'
p2489
S'599'
p2490
tp2491
a(S'MPI_Bcast()'
p2492
S'608'
p2493
tp2494
a(S'MPI_Bcast()'
p2495
S'609'
p2496
tp2497
asS'to_merge_master_parmoon/Examples/TNSE_3D/DrivenCavity3D.h'
p2498
(lp2499
(S'MPI_Comm_rank()'
p2500
S'10'
p2501
tp2502
asS'to_merge_master_parmoon/src/Parallel/SeqParDirectSolver.C'
p2503
(lp2504
(S'MPI_Comm_size()'
p2505
S'50'
p2506
tp2507
a(S'MPI_Finalize()'
p2508
S'71'
p2509
tp2510
a(S'MPI_Finalize()'
p2511
S'88'
p2512
tp2513
a(S'MPI_Finalize()'
p2514
S'123'
p2515
tp2516
a(S'MPI_Finalize()'
p2517
S'134'
p2518
tp2519
a(S'MPI_Finalize()'
p2520
S'154'
p2521
tp2522
a(S'MPI_Finalize()'
p2523
S'400'
p2524
tp2525
a(S'MPI_Finalize()'
p2526
S'434'
p2527
tp2528
a(S'MPI_Finalize()'
p2529
S'445'
p2530
tp2531
a(S'MPI_Finalize()'
p2532
S'924'
p2533
tp2534
a(S'MPI_Finalize()'
p2535
S'2587'
p2536
tp2537
asS'to_merge_master_parmoon/Examples/TNSE_3D/Aerofoil_3D_slip.h'
p2538
(lp2539
(S'MPI_Comm_rank()'
p2540
S'10'
p2541
tp2542
asS'to_merge_master_parmoon/src/FE/Structure3D.C'
p2543
(lp2544
(S'MPI_Comm_rank()'
p2545
S'519'
p2546
tp2547
asS'to_merge_master_parmoon/Examples/TNSE_3D/Aerofoil_3D_ALE.h'
p2548
(lp2549
(S'MPI_Comm_rank()'
p2550
S'11'
p2551
tp2552
asS'to_merge_master_parmoon/src/FE/NSE_MultiGrid.C'
p2553
(lp2554
(S'MPI_Comm_rank()'
p2555
S'455'
p2556
tp2557
a(S'MPI_Wtime()'
p2558
S'539'
p2559
tp2560
a(S'MPI_Wtime()'
p2561
S'1103'
p2562
tp2563
a(S'MPI_Wtime()'
p2564
S'1187'
p2565
tp2566
a(S'MPI_Wtime()'
p2567
S'1332'
p2568
tp2569
a(S'MPI_Wtime()'
p2570
S'1602'
p2571
tp2572
a(S'MPI_Wtime()'
p2573
S'1745'
p2574
tp2575
asS'to_merge_master_parmoon/Examples/TCD_3D/cancer_exp_3d.h'
p2576
(lp2577
(S'MPI_Comm_rank()'
p2578
S'764'
p2579
tp2580
a(S'MPI_Comm_size()'
p2581
S'765'
p2582
tp2583
a(S'MPI_Comm_rank()'
p2584
S'1239'
p2585
tp2586
a(S'MPI_Comm_size()'
p2587
S'1240'
p2588
tp2589
a(S'MPI_Bcast()'
p2590
S'1395'
p2591
tp2592
a(S'MPI_Bcast()'
p2593
S'1396'
p2594
tp2595
a(S'MPI_Bcast()'
p2596
S'1405'
p2597
tp2598
a(S'MPI_Bcast()'
p2599
S'1406'
p2600
tp2601
a(S'MPI_Bcast()'
p2602
S'1528'
p2603
tp2604
a(S'MPI_Bcast()'
p2605
S'1537'
p2606
tp2607
a(S'MPI_Bcast()'
p2608
S'1538'
p2609
tp2610
a(S'MPI_Comm_rank()'
p2611
S'1806'
p2612
tp2613
a(S'MPI_Comm_size()'
p2614
S'1807'
p2615
tp2616
a(S'MPI_Bcast()'
p2617
S'1877'
p2618
tp2619
a(S'MPI_Bcast()'
p2620
S'1878'
p2621
tp2622
a(S'MPI_Bcast()'
p2623
S'1887'
p2624
tp2625
a(S'MPI_Bcast()'
p2626
S'1888'
p2627
tp2628
a(S'MPI_Comm_rank()'
p2629
S'2280'
p2630
tp2631
a(S'MPI_Comm_size()'
p2632
S'2281'
p2633
tp2634
a(S'MPI_Bcast()'
p2635
S'2369'
p2636
tp2637
a(S'MPI_Bcast()'
p2638
S'2370'
p2639
tp2640
a(S'MPI_Bcast()'
p2641
S'2380'
p2642
tp2643
a(S'MPI_Bcast()'
p2644
S'2381'
p2645
tp2646
a(S'MPI_Bcast()'
p2647
S'2382'
p2648
tp2649
asS'to_merge_master_parmoon/Main_Users/neha/TCD3D_ParMooN.C'
p2650
(lp2651
(S'MPI_Init()'
p2652
S'98'
p2653
tp2654
a(S'MPI_Comm_rank()'
p2655
S'102'
p2656
tp2657
a(S'MPI_Comm_size()'
p2658
S'103'
p2659
tp2660
a(S'MPI_Wtime()'
p2661
S'135'
p2662
tp2663
a(S'MPI_Reduce()'
p2664
S'224'
p2665
tp2666
a(S'MPI_Wtime()'
p2667
S'385'
p2668
tp2669
a(S'MPI_Wtime()'
p2670
S'404'
p2671
tp2672
a(S'MPI_Wtime()'
p2673
S'417'
p2674
tp2675
a(S'MPI_Wtime()'
p2676
S'426'
p2677
tp2678
a(S'MPI_Allreduce()'
p2679
S'485'
p2680
tp2681
a(S'MPI_Allreduce()'
p2682
S'513'
p2683
tp2684
a(S'MPI_Wtime()'
p2685
S'574'
p2686
tp2687
a(S'MPI_Wtime()'
p2688
S'604'
p2689
tp2690
a(S'MPI_Wtime()'
p2691
S'613'
p2692
tp2693
a(S'MPI_Wtime()'
p2694
S'623'
p2695
tp2696
a(S'MPI_Wtime()'
p2697
S'644'
p2698
tp2699
a(S'MPI_Allreduce()'
p2700
S'687'
p2701
tp2702
a(S'MPI_Wtime()'
p2703
S'735'
p2704
tp2705
a(S'MPI_Wtime()'
p2706
S'743'
p2707
tp2708
a(S'MPI_Wtime()'
p2709
S'772'
p2710
tp2711
a(S'MPI_Reduce()'
p2712
S'799'
p2713
tp2714
a(S'MPI_Reduce()'
p2715
S'800'
p2716
tp2717
a(S'MPI_Finalize()'
p2718
S'824'
p2719
tp2720
asS'to_merge_master_parmoon/src/FE/JacobiIte.C'
p2721
(lp2722
(S'MPI_Wtime()'
p2723
S'182'
p2724
tp2725
a(S'MPI_Comm_rank()'
p2726
S'186'
p2727
tp2728
a(S'MPI_Wtime()'
p2729
S'189'
p2730
tp2731
a(S'MPI_Wtime()'
p2732
S'200'
p2733
tp2734
a(S'MPI_Wtime()'
p2735
S'221'
p2736
tp2737
a(S'MPI_Comm_rank()'
p2738
S'252'
p2739
tp2740
a(S'MPI_Allreduce()'
p2741
S'259'
p2742
tp2743
asS'to_merge_master_parmoon/src/FE/FE2D.C'
p2744
(lp2745
(S'MPI_Comm_rank()'
p2746
S'62'
p2747
tp2748
asS'to_merge_master_parmoon/src/FE/Output3D.C'
p2749
(lp2750
(S'MPI_Comm_rank()'
p2751
S'2524'
p2752
tp2753
a(S'MPI_Comm_size()'
p2754
S'2525'
p2755
tp2756
a(S'MPI_Abort()'
p2757
S'2566'
p2758
tp2759
a(S'MPI_Abort()'
p2760
S'2854'
p2761
tp2762
asS'to_merge_master_parmoon/src/FE/FEFunction3D.C'
p2763
(lp2764
(S'MPI_Comm_rank()'
p2765
S'96'
p2766
tp2767
asS'to_merge_master_parmoon/src/FE/MGComponents3D.C'
p2768
(lp2769
(S'MPI_Wtime()'
p2770
S'214'
p2771
tp2772
a(S'MPI_Wtime()'
p2773
S'461'
p2774
tp2775
a(S'MPI_Comm_rank()'
p2776
S'515'
p2777
tp2778
a(S'MPI_Wtime()'
p2779
S'739'
p2780
tp2781
a(S'MPI_Wtime()'
p2782
S'987'
p2783
tp2784
a(S'MPI_Allreduce()'
p2785
S'1774'
p2786
tp2787
a(S'MPI_Allreduce()'
p2788
S'1775'
p2789
tp2790
a(S'MPI_Allreduce()'
p2791
S'1794'
p2792
tp2793
a(S'MPI_Allreduce()'
p2794
S'1795'
p2795
tp2796
a(S'MPI_Allreduce()'
p2797
S'1814'
p2798
tp2799
a(S'MPI_Allreduce()'
p2800
S'1815'
p2801
tp2802
a(S'MPI_Allreduce()'
p2803
S'1939'
p2804
tp2805
a(S'MPI_Allreduce()'
p2806
S'1941'
p2807
tp2808
a(S'MPI_Allreduce()'
p2809
S'2088'
p2810
tp2811
a(S'MPI_Allreduce()'
p2812
S'2090'
p2813
tp2814
asS'to_merge_master_parmoon/src/Geometry/Edge.C'
p2815
(lp2816
(S'MPI_Abort()'
p2817
S'172'
p2818
tp2819
asS'to_merge_master_parmoon/src/FE/SquareStructure3D.C'
p2820
(lp2821
(S'MPI_Comm_rank()'
p2822
S'487'
p2823
tp2824
asS'to_merge_master_parmoon/src/FE/FEFunction2D.C'
p2825
(lp2826
(S'MPI_Comm_rank()'
p2827
S'170'
p2828
tp2829
asS'to_merge_master_parmoon/src/FE/FEDatabase2D.C'
p2830
(lp2831
(S'MPI_Comm_rank()'
p2832
S'138'
p2833
tp2834
a(S'MPI_Comm_rank()'
p2835
S'316'
p2836
tp2837
a(S'MPI_Comm_rank()'
p2838
S'465'
p2839
tp2840
a(S'MPI_Comm_rank()'
p2841
S'610'
p2842
tp2843
a(S'MPI_Comm_rank()'
p2844
S'757'
p2845
tp2846
a(S'MPI_Comm_rank()'
p2847
S'1190'
p2848
tp2849
a(S'MPI_Comm_rank()'
p2850
S'1587'
p2851
tp2852
a(S'MPI_Comm_rank()'
p2853
S'1628'
p2854
tp2855
a(S'MPI_Comm_rank()'
p2856
S'1648'
p2857
tp2858
a(S'MPI_Comm_rank()'
p2859
S'1794'
p2860
tp2861
asS'to_merge_master_parmoon/Examples/TNSE_3D/ChannelObstacle3D.h'
p2862
(lp2863
(S'MPI_Comm_rank()'
p2864
S'10'
p2865
tp2866
asS'to_merge_master_parmoon/src/FE/NSE_NodalVanka.cu'
p2867
(lp2868
(S'MPI_Comm_rank()'
p2869
S'662'
p2870
tp2871
a(S'MPI_Wtime()'
p2872
S'1059'
p2873
tp2874
a(S'MPI_Wtime()'
p2875
S'1157'
p2876
tp2877
a(S'MPI_Wtime()'
p2878
S'1188'
p2879
tp2880
a(S'MPI_Wtime()'
p2881
S'1366'
p2882
tp2883
a(S'MPI_Wtime()'
p2884
S'1377'
p2885
tp2886
a(S'MPI_Wtime()'
p2887
S'1517'
p2888
tp2889
a(S'MPI_Comm_rank()'
p2890
S'1648'
p2891
tp2892
a(S'MPI_Wtime()'
p2893
S'2099'
p2894
tp2895
a(S'MPI_Wtime()'
p2896
S'2249'
p2897
tp2898
asS'to_merge_master_parmoon/Examples/RB_3D/import3Dmesh2.h'
p2899
(lp2900
(S'MPI_Comm_rank()'
p2901
S'978'
p2902
tp2903
a(S'MPI_Comm_size()'
p2904
S'979'
p2905
tp2906
a(S'MPI_Bcast()'
p2907
S'1130'
p2908
tp2909
a(S'MPI_Bcast()'
p2910
S'1131'
p2911
tp2912
a(S'MPI_Bcast()'
p2913
S'1140'
p2914
tp2915
a(S'MPI_Bcast()'
p2916
S'1141'
p2917
tp2918
a(S'MPI_Bcast()'
p2919
S'1257'
p2920
tp2921
a(S'MPI_Bcast()'
p2922
S'1266'
p2923
tp2924
a(S'MPI_Bcast()'
p2925
S'1267'
p2926
tp2927
a(S'MPI_Comm_rank()'
p2928
S'1533'
p2929
tp2930
a(S'MPI_Comm_size()'
p2931
S'1534'
p2932
tp2933
a(S'MPI_Bcast()'
p2934
S'1597'
p2935
tp2936
a(S'MPI_Bcast()'
p2937
S'1598'
p2938
tp2939
a(S'MPI_Bcast()'
p2940
S'1604'
p2941
tp2942
a(S'MPI_Bcast()'
p2943
S'1605'
p2944
tp2945
a(S'MPI_Comm_rank()'
p2946
S'1964'
p2947
tp2948
a(S'MPI_Comm_size()'
p2949
S'1965'
p2950
tp2951
a(S'MPI_Bcast()'
p2952
S'2044'
p2953
tp2954
a(S'MPI_Bcast()'
p2955
S'2045'
p2956
tp2957
a(S'MPI_Bcast()'
p2958
S'2054'
p2959
tp2960
a(S'MPI_Bcast()'
p2961
S'2055'
p2962
tp2963
a(S'MPI_Bcast()'
p2964
S'2056'
p2965
tp2966
asS'to_merge_master_parmoon/src/Parallel/ParDirectSolver.C'
p2967
(lp2968
(S'MPI_Comm_rank()'
p2969
S'38'
p2970
tp2971
a(S'MPI_Comm_size()'
p2972
S'39'
p2973
tp2974
a(S'MPI_Finalize()'
p2975
S'58'
p2976
tp2977
a(S'MPI_Finalize()'
p2978
S'75'
p2979
tp2980
a(S'MPI_Finalize()'
p2981
S'104'
p2982
tp2983
a(S'MPI_Finalize()'
p2984
S'119'
p2985
tp2986
a(S'MPI_Finalize()'
p2987
S'130'
p2988
tp2989
a(S'MPI_Finalize()'
p2990
S'150'
p2991
tp2992
a(S'MPI_Comm_rank()'
p2993
S'177'
p2994
tp2995
a(S'MPI_Comm_size()'
p2996
S'178'
p2997
tp2998
a(S'MPI_Allreduce()'
p2999
S'210'
p3000
tp3001
a(S'MPI_Comm_rank()'
p3002
S'227'
p3003
tp3004
a(S'MPI_Comm_size()'
p3005
S'228'
p3006
tp3007
a(S'MPI_Allreduce()'
p3008
S'272'
p3009
tp3010
a(S'MPI_Allreduce()'
p3011
S'276'
p3012
tp3013
a(S'MPI_Finalize()'
p3014
S'379'
p3015
tp3016
a(S'MPI_Comm_rank()'
p3017
S'424'
p3018
tp3019
a(S'MPI_Comm_size()'
p3020
S'425'
p3021
tp3022
a(S'MPI_Allreduce()'
p3023
S'470'
p3024
tp3025
a(S'MPI_Allreduce()'
p3026
S'472'
p3027
tp3028
a(S'MPI_Comm_rank()'
p3029
S'673'
p3030
tp3031
a(S'MPI_Comm_size()'
p3032
S'674'
p3033
tp3034
a(S'MPI_Finalize()'
p3035
S'699'
p3036
tp3037
a(S'MPI_Finalize()'
p3038
S'710'
p3039
tp3040
a(S'MPI_Comm_rank()'
p3041
S'725'
p3042
tp3043
a(S'MPI_Comm_size()'
p3044
S'726'
p3045
tp3046
a(S'MPI_Comm_rank()'
p3047
S'847'
p3048
tp3049
a(S'MPI_Comm_size()'
p3050
S'848'
p3051
tp3052
a(S'MPI_Comm_rank()'
p3053
S'1032'
p3054
tp3055
a(S'MPI_Comm_size()'
p3056
S'1033'
p3057
tp3058
a(S'MPI_Comm_rank()'
p3059
S'1101'
p3060
tp3061
a(S'MPI_Comm_size()'
p3062
S'1102'
p3063
tp3064
a(S'MPI_Comm_rank()'
p3065
S'1185'
p3066
tp3067
a(S'MPI_Finalize()'
p3068
S'1217'
p3069
tp3070
asS'to_merge_master_parmoon/src/FE/NSEMGCycleGPU.cu'
p3071
(lp3072
(S'MPI_Comm_rank()'
p3073
S'96'
p3074
tp3075
a(S'MPI_Wtime()'
p3076
S'236'
p3077
tp3078
a(S'MPI_Wtime()'
p3079
S'383'
p3080
tp3081
a(S'MPI_Wtime()'
p3082
S'606'
p3083
tp3084
a(S'MPI_Wtime()'
p3085
S'1172'
p3086
tp3087
a(S'MPI_Wtime()'
p3088
S'1428'
p3089
tp3090
a(S'MPI_Wtime()'
p3091
S'1571'
p3092
tp3093
as.