ccollections
defaultdict
p0
(c__builtin__
list
p1
tp2
Rp3
S'ELBA/src/ParallelFastaReader.cpp'
p4
(lp5
(S'MPI_File_open()'
p6
S'18'
p7
tp8
a(S'X_MPI_MODE_RDONLY()'
p9
S'19'
p10
tp11
a(S'MPI_Finalize()'
p12
S'22'
p13
tp14
a(S'MPI_File_get_size()'
p15
S'47'
p16
tp17
a(S'MPI_File_read_at_all()'
p18
S'72'
p19
tp20
a(S'X_MPI_CHAR()'
p21
S'73'
p22
tp23
a(S'MPI_Abort()'
p24
S'110'
p25
tp26
a(S'MPI_Finalize()'
p27
S'112'
p28
tp29
asS'ELBA/src/pw/PairwiseFunction.cpp'
p30
(lp31
(S'MPI_Allreduce()'
p32
S'42'
p33
tp34
a(S'MPI_Reduce()'
p35
S'87'
p36
tp37
a(S'MPI_Reduce()'
p38
S'88'
p39
tp40
a(S'MPI_Allreduce()'
p41
S'95'
p42
tp43
a(S'MPI_Allreduce()'
p44
S'97'
p45
tp46
a(S'X_MPI_DOUBLE()'
p47
S'98'
p48
tp49
asS'ELBA/src/ParallelOps.cpp'
p50
(lp51
(S'MPI_Init()'
p52
S'17'
p53
tp54
a(S'MPI_Comm_rank()'
p55
S'18'
p56
tp57
a(S'MPI_Comm_size()'
p58
S'19'
p59
tp60
a(S'MPI_Initialized()'
p61
S'26'
p62
tp63
a(S'MPI_Finalize()'
p64
S'29'
p65
tp66
a(S'MPI_Allgather()'
p67
S'41'
p68
tp69
a(S'MPI_Barrier()'
p70
S'64'
p71
tp72
a(S'MPI_Abort()'
p73
S'68'
p74
tp75
a(S'MPI_Abort()'
p76
S'85'
p77
tp78
a(S'MPI_Initialized()'
p79
S'105'
p80
tp81
a(S'MPI_Finalize()'
p82
S'107'
p83
tp84
asS'ELBA/src/kmer/KmerOps.cpp'
p85
(lp86
(S'MPI_Pcontrol()'
p87
S'137'
p88
tp89
a(S'MPI_Pcontrol()'
p90
S'139'
p91
tp92
a(S'MPI_Pcontrol()'
p93
S'148'
p94
tp95
a(S'MPI_Pcontrol()'
p96
S'150'
p97
tp98
a(S'MPI_Pcontrol()'
p99
S'159'
p100
tp101
a(S'MPI_Pcontrol()'
p102
S'172'
p103
tp104
a(S'MPI_Pcontrol()'
p105
S'208'
p106
tp107
a(S'MPI_Pcontrol()'
p108
S'220'
p109
tp110
a(S'MPI_Abort()'
p111
S'413'
p112
tp113
a(S'MPI_Abort()'
p114
S'422'
p115
tp116
a(S'MPI_Wtime()'
p117
S'798'
p118
tp119
a(S'MPI_Barrier()'
p120
S'935'
p121
tp122
a(S'MPI_Comm_size()'
p123
S'973'
p124
tp125
a(S'MPI_Allreduce()'
p126
S'1011'
p127
tp128
a(S'MPI_Wtime()'
p129
S'1066'
p130
tp131
a(S'MPI_Wtime()'
p132
S'1119'
p133
tp134
a(S'MPI_Wtime()'
p135
S'1149'
p136
tp137
a(S'MPI_Allgather()'
p138
S'1164'
p139
tp140
asS'ELBA/include/kmer/KmerIntersectSR.hpp'
p141
(lp142
(S'MPI_Op_create()'
p143
S'95'
p144
tp145
a(S'MPI_func()'
p146
S'102'
p147
tp148
asS'ELBA/include/ContigGeneration.hpp'
p149
(lp150
(S'MPI_Exscan()'
p151
S'53'
p152
tp153
a(S'MPI_Allgather()'
p154
S'58'
p155
tp156
a(S'MPI_Allgather()'
p157
S'59'
p158
tp159
a(S'MPI_Alltoallv_str()'
p160
S'134'
p161
tp162
a(S'MPI_Barrier()'
p163
S'211'
p164
tp165
a(S'MPI_Reduce_scatter()'
p166
S'289'
p167
tp168
a(S'MPI_Allgather()'
p169
S'322'
p170
tp171
a(S'MPI_Allgatherv()'
p172
S'333'
p173
tp174
a(S'MPI_Alltoall()'
p175
S'369'
p176
tp177
a(S'MPI_Alltoallv()'
p178
S'383'
p179
tp180
a(S'MPI_Bcast()'
p181
S'449'
p182
tp183
a(S'MPI_Bcast()'
p184
S'450'
p185
tp186
a(S'MPI_Alltoall()'
p187
S'558'
p188
tp189
a(S'MPI_Alltoall()'
p190
S'559'
p191
tp192
a(S'MPI_Alltoallv()'
p193
S'572'
p194
tp195
a(S'MPI_Alltoallv_str()'
p196
S'594'
p197
tp198
a(S'MPI_Comm_rank()'
p199
S'769'
p200
tp201
a(S'MPI_Comm_size()'
p202
S'770'
p203
tp204
a(S'MPI_Irecv()'
p205
S'778'
p206
tp207
a(S'MPI_Type_vector()'
p208
S'781'
p209
tp210
a(S'MPI_Type_contiguous()'
p211
S'782'
p212
tp213
a(S'MPI_Type_create_struct()'
p214
S'787'
p215
tp216
a(S'MPI_Type_free()'
p217
S'788'
p218
tp219
a(S'MPI_Type_free()'
p220
S'789'
p221
tp222
a(S'MPI_Type_commit()'
p223
S'790'
p224
tp225
a(S'MPI_Irecv()'
p226
S'791'
p227
tp228
a(S'MPI_Type_free()'
p229
S'792'
p230
tp231
a(S'MPI_Isend()'
p232
S'801'
p233
tp234
a(S'MPI_Type_vector()'
p235
S'804'
p236
tp237
a(S'MPI_Type_contiguous()'
p238
S'805'
p239
tp240
a(S'MPI_Type_create_struct()'
p241
S'810'
p242
tp243
a(S'MPI_Type_free()'
p244
S'811'
p245
tp246
a(S'MPI_Type_free()'
p247
S'812'
p248
tp249
a(S'MPI_Type_commit()'
p250
S'813'
p251
tp252
a(S'MPI_Isend()'
p253
S'814'
p254
tp255
a(S'MPI_Type_free()'
p256
S'815'
p257
tp258
a(S'MPI_Waitall()'
p259
S'819'
p260
tp261
asS'ELBA/src/DistributedPairwiseRunner.cpp'
p262
(lp263
(S'MPI_Reduce()'
p264
S'79'
p265
tp266
a(S'MPI_Comm_rank()'
p267
S'216'
p268
tp269
a(S'MPI_Comm_size()'
p270
S'416'
p271
tp272
a(S'MPI_Alltoall()'
p273
S'441'
p274
tp275
a(S'MPI_Alltoallv()'
p276
S'470'
p277
tp278
a(S'MPI_Reduce()'
p279
S'499'
p280
tp281
a(S'X_MPI_SUM()'
p282
S'500'
p283
tp284
a(S'MPI_Reduce()'
p285
S'502'
p286
tp287
a(S'X_MPI_SUM()'
p288
S'503'
p289
tp290
a(S'MPI_Reduce()'
p291
S'509'
p292
tp293
a(S'MPI_Reduce()'
p294
S'510'
p295
tp296
asS'ELBA/src/DistributedFastaData.cpp'
p297
(lp298
(S'MPI_Allgather()'
p299
S'78'
p300
tp301
a(S'MPI_Exscan()'
p302
S'95'
p303
tp304
a(S'MPI_Irecv()'
p305
S'203'
p306
tp307
a(S'X_MPI_COMM_WORLD()'
p308
S'206'
p309
tp310
a(S'MPI_Type_create_struct()'
p311
S'219'
p312
tp313
a(S'MPI_Type_commit()'
p314
S'220'
p315
tp316
a(S'MPI_Allgather()'
p317
S'228'
p318
tp319
a(S'MPI_Allgatherv()'
p320
S'242'
p321
tp322
a(S'MPI_Isend()'
p323
S'314'
p324
tp325
a(S'MPI_Waitall()'
p326
S'323'
p327
tp328
a(S'MPI_Waitall()'
p329
S'324'
p330
tp331
a(S'MPI_Irecv()'
p332
S'367'
p333
tp334
a(S'X_MPI_CHAR()'
p335
S'368'
p336
tp337
a(S'MPI_Isend()'
p338
S'376'
p339
tp340
a(S'MPI_Type_free()'
p341
S'388'
p342
tp343
a(S'MPI_Abort()'
p344
S'409'
p345
tp346
a(S'MPI_Finalize()'
p347
S'411'
p348
tp349
a(S'MPI_Abort()'
p350
S'427'
p351
tp352
a(S'MPI_Finalize()'
p353
S'428'
p354
tp355
a(S'MPI_Abort()'
p356
S'460'
p357
tp358
a(S'MPI_Finalize()'
p359
S'461'
p360
tp361
a(S'MPI_Waitall()'
p362
S'558'
p363
tp364
a(S'MPI_Waitall()'
p365
S'559'
p366
tp367
asS'ELBA/include/Contig.hpp'
p368
(lp369
(S'MPI_Comm_rank()'
p370
S'23'
p371
tp372
a(S'MPI_Comm_rank()'
p373
S'35'
p374
tp375
a(S'MPI_Comm_size()'
p376
S'101'
p377
tp378
a(S'MPI_Comm_rank()'
p379
S'102'
p380
tp381
a(S'MPI_Reduce_scatter()'
p382
S'114'
p383
tp384
a(S'MPI_Comm_size()'
p385
S'126'
p386
tp387
a(S'MPI_Comm_rank()'
p388
S'127'
p389
tp390
a(S'MPI_Allgather()'
p391
S'143'
p392
tp393
a(S'MPI_Allgatherv()'
p394
S'153'
p395
tp396
a(S'MPI_Comm_size()'
p397
S'166'
p398
tp399
a(S'MPI_Comm_rank()'
p400
S'167'
p401
tp402
a(S'MPI_Comm_rank()'
p403
S'196'
p404
tp405
a(S'MPI_Comm_size()'
p406
S'197'
p407
tp408
a(S'MPI_Bcast()'
p409
S'209'
p410
tp411
a(S'MPI_Bcast()'
p412
S'210'
p413
tp414
a(S'MPI_Comm_rank()'
p415
S'305'
p416
tp417
a(S'MPI_Comm_size()'
p418
S'306'
p419
tp420
a(S'MPI_Allgather()'
p421
S'319'
p422
tp423
a(S'MPI_Allgatherv()'
p424
S'323'
p425
tp426
a(S'MPI_Exscan()'
p427
S'328'
p428
tp429
a(S'MPI_Alltoall()'
p430
S'394'
p431
tp432
a(S'MPI_Alltoall()'
p433
S'395'
p434
tp435
a(S'MPI_Alltoallv()'
p436
S'408'
p437
tp438
a(S'MPI_Alltoallv()'
p439
S'409'
p440
tp441
a(S'MPI_Alltoallv()'
p442
S'429'
p443
tp444
asS'ELBA/include/MPIUtils.hpp'
p445
(lp446
(S'MPI_Error_string()'
p447
S'20'
p448
tp449
a(S'MPI_Error_class()'
p450
S'22'
p451
tp452
a(S'MPI_Comm_rank()'
p453
S'24'
p454
tp455
a(S'MPI_Abort()'
p456
S'27'
p457
tp458
asS'ELBA/src/main.cpp'
p459
(lp460
(S'MPI_Bcast()'
p461
S'170'
p462
tp463
a(S'MPI_Bcast()'
p464
S'177'
p465
tp466
a(S'MPI_Comm_size()'
p467
S'192'
p468
tp469
a(S'MPI_Comm_rank()'
p470
S'193'
p471
tp472
a(S'MPI_Exscan()'
p473
S'294'
p474
tp475
a(S'MPI_File_open()'
p476
S'302'
p477
tp478
a(S'MPI_File_write_ordered()'
p479
S'308'
p480
tp481
a(S'MPI_File_close()'
p482
S'309'
p483
tp484
a(S'MPI_Barrier()'
p485
S'342'
p486
tp487
a(S'MPI_Reduce()'
p488
S'742'
p489
tp490
asS'ELBA/src/TraceUtils.cpp'
p491
(lp492
(S'MPI_Recv()'
p493
S'9'
p494
tp495
a(S'MPI_Send()'
p496
S'15'
p497
tp498
a(S'MPI_Barrier()'
p499
S'18'
p500
tp501
asS'ELBA/include/ParallelOps.hpp'
p502
(lp503
(S'MPI_Bcast()'
p504
S'24'
p505
tp506
a(S'MPI_Bcast()'
p507
S'28'
p508
tp509
asS'ELBA/include/CC.h'
p510
(lp511
(S'MPI_Comm_size()'
p512
S'137'
p513
tp514
a(S'MPI_Comm_rank()'
p515
S'138'
p516
tp517
a(S'MPI_Sendrecv()'
p518
S'187'
p519
tp520
a(S'MPI_Sendrecv()'
p521
S'194'
p522
tp523
a(S'MPI_Sendrecv()'
p524
S'233'
p525
tp526
a(S'MPI_Sendrecv()'
p527
S'240'
p528
tp529
a(S'MPI_Comm_size()'
p530
S'315'
p531
tp532
a(S'MPI_Comm_rank()'
p533
S'316'
p534
tp535
a(S'MPI_Allreduce()'
p536
S'326'
p537
tp538
a(S'MPI_Alltoall()'
p539
S'364'
p540
tp541
a(S'MPI_Allgather()'
p542
S'376'
p543
tp544
a(S'MPI_Ibcast()'
p545
S'399'
p546
tp547
a(S'MPI_Waitall()'
p548
S'403'
p549
tp550
a(S'MPI_Wtime()'
p551
S'483'
p552
tp553
a(S'MPI_Alltoall()'
p554
S'485'
p555
tp556
a(S'MPI_Wtime()'
p557
S'519'
p558
tp559
a(S'MPI_Wtime()'
p560
S'544'
p561
tp562
a(S'MPI_Comm_rank()'
p563
S'586'
p564
tp565
a(S'MPI_Alltoall()'
p566
S'606'
p567
tp568
a(S'MPI_Allgather()'
p569
S'617'
p570
tp571
a(S'MPI_Ireduce()'
p572
S'642'
p573
tp574
a(S'MPI_Ireduce()'
p575
S'644'
p576
tp577
a(S'MPI_Waitall()'
p578
S'648'
p579
tp580
a(S'MPI_Comm_rank()'
p581
S'668'
p582
tp583
a(S'MPI_Alltoall()'
p584
S'685'
p585
tp586
a(S'MPI_Allgather()'
p587
S'696'
p588
tp589
a(S'MPI_Ireduce()'
p590
S'721'
p591
tp592
a(S'MPI_Ireduce()'
p593
S'723'
p594
tp595
a(S'MPI_Waitall()'
p596
S'727'
p597
tp598
a(S'MPI_Wtime()'
p599
S'814'
p600
tp601
a(S'MPI_Alltoall()'
p602
S'816'
p603
tp604
a(S'MPI_Wtime()'
p605
S'845'
p606
tp607
a(S'MPI_Wtime()'
p608
S'856'
p609
tp610
a(S'MPI_Comm_rank()'
p611
S'869'
p612
tp613
a(S'MPI_Wtime()'
p614
S'962'
p615
tp616
a(S'MPI_Alltoall()'
p617
S'964'
p618
tp619
a(S'MPI_Wtime()'
p620
S'989'
p621
tp622
a(S'MPI_Comm_rank()'
p623
S'1004'
p624
tp625
a(S'MPI_Wtime()'
p626
S'1266'
p627
tp628
a(S'MPI_Wtime()'
p629
S'1270'
p630
tp631
a(S'MPI_Wtime()'
p632
S'1284'
p633
tp634
a(S'MPI_Wtime()'
p635
S'1288'
p636
tp637
a(S'MPI_Wtime()'
p638
S'1438'
p639
tp640
a(S'MPI_Wtime()'
p641
S'1464'
p642
tp643
a(S'MPI_Wtime()'
p644
S'1470'
p645
tp646
a(S'MPI_Wtime()'
p647
S'1498'
p648
tp649
a(S'MPI_Wtime()'
p650
S'1503'
p651
tp652
a(S'MPI_Wtime()'
p653
S'1510'
p654
tp655
a(S'MPI_Reduce()'
p656
S'1600'
p657
tp658
a(S'MPI_Comm_rank()'
p659
S'1604'
p660
tp661
asS'ELBA/include/TransitiveReduction.hpp'
p662
(lp663
(S'MPI_Comm_rank()'
p664
S'208'
p665
tp666
a(S'MPI_Wtime()'
p667
S'255'
p668
tp669
a(S'MPI_Wtime()'
p670
S'294'
p671
tp672
a(S'MPI_Reduce()'
p673
S'364'
p674
tp675
a(S'MPI_Reduce()'
p676
S'365'
p677
tp678
a(S'MPI_Reduce()'
p679
S'366'
p680
tp681
a(S'MPI_Reduce()'
p682
S'367'
p683
tp684
as.