ccollections
defaultdict
p0
(c__builtin__
list
p1
tp2
Rp3
S'mpitb/examples/Spawn_slv_bcast/startup_bcastSlv.m'
p4
(lp5
(S'MPI_Errhandler_set()'
p6
S'41'
p7
tp8
a(S'MPI_Errhandler_set()'
p9
S'44'
p10
tp11
a(S'MPI_Bcast()'
p12
S'52'
p13
tp14
asS'mpitb/examples/Mandelbrot/mandelTBg2.m'
p15
(lp16
(S'MPI_Send()'
p17
S'133'
p18
tp19
a(S'MPI_Send()'
p20
S'138'
p21
tp22
asS'mpitb/examples/Mandelbrot/mandelStrp.m'
p23
(lp24
(S'MPI_Send()'
p25
S'128'
p26
tp27
asS'mpitb/examples/Mandelbrot/mandelStrd.m'
p28
(lp29
(S'MPI_Send()'
p30
S'128'
p31
tp32
asS'mpitb/examples/PingPong/PingPong.m'
p33
(lp34
(S'MPI_Barrier()'
p35
S'93'
p36
tp37
a(S'MPI_Recv()'
p38
S'98'
p39
tp40
a(S'MPI_Send()'
p41
S'99'
p42
tp43
a(S'MPI_Send()'
p44
S'108'
p45
tp46
a(S'MPI_Recv()'
p47
S'109'
p48
tp49
a(S'MPI_Barrier()'
p50
S'122'
p51
tp52
a(S'MPI_Reduce()'
p53
S'127'
p54
tp55
a(S'MPI_Reduce()'
p56
S'128'
p57
tp58
a(S'MPI_Reduce()'
p59
S'137'
p60
tp61
a(S'MPI_Reduce()'
p62
S'138'
p63
tp64
asS'mpitb/examples/NPB/EP/ep.m'
p65
(lp66
(S'MPI_Abort()'
p67
S'481'
p68
tp69
a(S'MPI_Barrier()'
p70
S'549'
p71
tp72
a(S'MPI_Allreduce()'
p73
S'866'
p74
tp75
a(S'MPI_Allreduce()'
p76
S'867'
p77
tp78
a(S'MPI_Allreduce()'
p79
S'868'
p80
tp81
a(S'MPI_Allreduce()'
p82
S'886'
p83
tp84
asS'mpitb/examples/Pi/Pi.m'
p85
(lp86
(S'MPI_Send()'
p87
S'81'
p88
tp89
a(S'MPI_Recv()'
p90
S'85'
p91
tp92
a(S'MPI_Reduce()'
p93
S'90'
p94
tp95
asS'mpitb/examples/Mandelbrot/mandelTBag.m'
p96
(lp97
(S'MPI_Send()'
p98
S'129'
p99
tp100
a(S'MPI_Send()'
p101
S'134'
p102
tp103
asS'mpitb/examples/Spawn_slv_eval/startup_bcastSlv.m'
p104
(lp105
(S'MPI_Errhandler_set()'
p106
S'41'
p107
tp108
a(S'MPI_Errhandler_set()'
p109
S'44'
p110
tp111
a(S'MPI_Bcast()'
p112
S'52'
p113
tp114
asS'mpitb//README'
p115
(lp116
(S'X_MPI_Init()'
p117
S'64'
p118
tp119
a(S'X_MPI_Init()'
p120
S'88'
p121
tp122
a(S'X_MPI_Init()'
p123
S'213'
p124
tp125
a(S'X_MPI_Init()'
p126
S'249'
p127
tp128
a(S'X_MPI_Init()'
p129
S'294'
p130
tp131
a(S'X_MPI_Init()'
p132
S'409'
p133
tp134
as.