ccollections
defaultdict
p0
(c__builtin__
list
p1
tp2
Rp3
S'overkit/src/core/Comm.inl'
p4
(lp5
(S'MPI_Comm_size()'
p6
S'18'
p7
tp8
a(S'MPI_Comm_rank()'
p9
S'27'
p10
tp11
asS'overkit/src/core/CommunicationOps.inl'
p12
(lp13
(S'MPI_Barrier()'
p14
S'11'
p15
tp16
a(S'MPI_Barrier()'
p17
S'16'
p18
tp19
asS'overkit/src/core/GeometryComponent.cpp'
p20
(lp21
(S'MPI_Barrier()'
p22
S'37'
p23
tp24
a(S'MPI_Barrier()'
p25
S'44'
p26
tp27
a(S'MPI_Allreduce()'
p28
S'125'
p29
tp30
a(S'MPI_Allreduce()'
p31
S'148'
p32
tp33
a(S'MPI_Barrier()'
p34
S'166'
p35
tp36
a(S'MPI_Barrier()'
p37
S'190'
p38
tp39
a(S'MPI_Barrier()'
p40
S'224'
p41
tp42
a(S'MPI_Barrier()'
p43
S'232'
p44
tp45
a(S'MPI_Barrier()'
p46
S'241'
p47
tp48
a(S'MPI_Barrier()'
p49
S'298'
p50
tp51
a(S'MPI_Barrier()'
p52
S'315'
p53
tp54
a(S'MPI_Barrier()'
p55
S'323'
p56
tp57
a(S'MPI_Allreduce()'
p58
S'335'
p59
tp60
a(S'MPI_Barrier()'
p61
S'344'
p62
tp63
a(S'MPI_Barrier()'
p64
S'358'
p65
tp66
a(S'MPI_Barrier()'
p67
S'370'
p68
tp69
a(S'MPI_Allreduce()'
p70
S'392'
p71
tp72
a(S'MPI_Barrier()'
p73
S'408'
p74
tp75
a(S'MPI_Barrier()'
p76
S'432'
p77
tp78
a(S'MPI_Barrier()'
p79
S'450'
p80
tp81
a(S'MPI_Allreduce()'
p82
S'468'
p83
tp84
a(S'MPI_Barrier()'
p85
S'486'
p86
tp87
a(S'MPI_Barrier()'
p88
S'492'
p89
tp90
a(S'MPI_Barrier()'
p91
S'562'
p92
tp93
a(S'MPI_Barrier()'
p94
S'564'
p95
tp96
asS'overkit/src/core/Domain.cpp'
p97
(lp98
(S'MPI_Barrier()'
p99
S'46'
p100
tp101
a(S'MPI_Barrier()'
p102
S'78'
p103
tp104
a(S'MPI_Allreduce()'
p105
S'90'
p106
tp107
a(S'MPI_Comm_rank()'
p108
S'98'
p109
tp110
a(S'MPI_Barrier()'
p111
S'118'
p112
tp113
a(S'MPI_Barrier()'
p114
S'126'
p115
tp116
a(S'MPI_Barrier()'
p117
S'133'
p118
tp119
a(S'MPI_Allreduce()'
p120
S'153'
p121
tp122
a(S'MPI_Comm_rank()'
p123
S'163'
p124
tp125
a(S'MPI_Barrier()'
p126
S'192'
p127
tp128
a(S'MPI_Barrier()'
p129
S'209'
p130
tp131
a(S'MPI_Barrier()'
p132
S'215'
p133
tp134
a(S'MPI_Barrier()'
p135
S'222'
p136
tp137
a(S'MPI_Barrier()'
p138
S'238'
p139
tp140
a(S'MPI_Barrier()'
p141
S'249'
p142
tp143
a(S'MPI_Barrier()'
p144
S'266'
p145
tp146
a(S'MPI_Barrier()'
p147
S'292'
p148
tp149
a(S'MPI_Barrier()'
p150
S'343'
p151
tp152
a(S'MPI_Barrier()'
p153
S'358'
p154
tp155
a(S'MPI_Barrier()'
p156
S'390'
p157
tp158
a(S'MPI_Barrier()'
p159
S'397'
p160
tp161
a(S'MPI_Barrier()'
p162
S'401'
p163
tp164
asS'overkit/tests/MPIPrinter.hpp'
p165
(lp166
(S'MPI_Comm_size()'
p167
S'62'
p168
tp169
a(S'MPI_Comm_rank()'
p170
S'63'
p171
tp172
a(S'MPI_Barrier()'
p173
S'80'
p174
tp175
a(S'MPI_Barrier()'
p176
S'91'
p177
tp178
a(S'MPI_Barrier()'
p179
S'109'
p180
tp181
a(S'MPI_Barrier()'
p182
S'122'
p183
tp184
a(S'MPI_Gather()'
p185
S'144'
p186
tp187
a(S'MPI_Send()'
p188
S'164'
p189
tp190
a(S'MPI_Send()'
p191
S'165'
p192
tp193
a(S'MPI_Recv()'
p194
S'177'
p195
tp196
a(S'MPI_Recv()'
p197
S'179'
p198
tp199
a(S'MPI_Barrier()'
p200
S'191'
p201
tp202
a(S'MPI_Reduce()'
p203
S'210'
p204
tp205
a(S'MPI_Barrier()'
p206
S'228'
p207
tp208
a(S'MPI_Reduce()'
p209
S'238'
p210
tp211
a(S'MPI_Barrier()'
p212
S'247'
p213
tp214
a(S'MPI_Barrier()'
p215
S'258'
p216
tp217
a(S'MPI_Reduce()'
p218
S'278'
p219
tp220
a(S'MPI_Reduce()'
p221
S'309'
p222
tp223
a(S'MPI_Reduce()'
p224
S'312'
p225
tp226
a(S'MPI_Barrier()'
p227
S'364'
p228
tp229
asS'overkit/src/core/Recv.cpp'
p230
(lp231
(S'MPI_Irecv()'
p232
S'151'
p233
tp234
asS'overkit/src/core/OverlapM.cpp'
p235
(lp236
(S'MPI_Barrier()'
p237
S'33'
p238
tp239
a(S'MPI_Barrier()'
p240
S'39'
p241
tp242
a(S'MPI_Barrier()'
p243
S'60'
p244
tp245
a(S'MPI_Barrier()'
p246
S'72'
p247
tp248
a(S'MPI_Barrier()'
p249
S'101'
p250
tp251
a(S'MPI_Barrier()'
p252
S'135'
p253
tp254
a(S'MPI_Barrier()'
p255
S'143'
p256
tp257
a(S'MPI_Barrier()'
p258
S'156'
p259
tp260
a(S'MPI_Barrier()'
p261
S'160'
p262
tp263
a(S'MPI_Barrier()'
p264
S'162'
p265
tp266
a(S'MPI_Barrier()'
p267
S'189'
p268
tp269
a(S'MPI_Barrier()'
p270
S'193'
p271
tp272
a(S'MPI_Barrier()'
p273
S'195'
p274
tp275
a(S'MPI_Barrier()'
p276
S'221'
p277
tp278
a(S'MPI_Barrier()'
p279
S'225'
p280
tp281
a(S'MPI_Barrier()'
p282
S'227'
p283
tp284
a(S'MPI_Barrier()'
p285
S'254'
p286
tp287
a(S'MPI_Barrier()'
p288
S'258'
p289
tp290
a(S'MPI_Barrier()'
p291
S'260'
p292
tp293
asS'overkit/tests/CommTests.cpp'
p294
(lp295
(S'MPI_Comm_rank()'
p296
S'99'
p297
tp298
a(S'MPI_Comm_split()'
p299
S'102'
p300
tp301
a(S'MPI_Comm_size()'
p302
S'157'
p303
tp304
a(S'MPI_Comm_rank()'
p305
S'167'
p306
tp307
a(S'MPI_Comm_dup()'
p308
S'192'
p309
tp310
a(S'MPI_Comm_dup()'
p311
S'219'
p312
tp313
a(S'MPI_Comm_dup()'
p314
S'229'
p315
tp316
a(S'MPI_Comm_rank()'
p317
S'231'
p318
tp319
a(S'MPI_Comm_split()'
p320
S'233'
p321
tp322
a(S'MPI_Comm_dup()'
p323
S'259'
p324
tp325
a(S'MPI_Comm_dup()'
p326
S'279'
p327
tp328
a(S'MPI_Comm_free()'
p329
S'285'
p330
tp331
a(S'MPI_Comm_dup()'
p332
S'300'
p333
tp334
a(S'MPI_Comm_dup()'
p335
S'310'
p336
tp337
a(S'MPI_Comm_dup()'
p338
S'322'
p339
tp340
a(S'MPI_Comm_size()'
p341
S'332'
p342
tp343
a(S'MPI_Comm_dup()'
p344
S'335'
p345
tp346
a(S'MPI_Comm_rank()'
p347
S'345'
p348
tp349
a(S'MPI_Comm_dup()'
p350
S'348'
p351
tp352
a(S'MPI_Comm_dup()'
p353
S'358'
p354
tp355
a(S'MPI_Comm_compare()'
p356
S'364'
p357
tp358
a(S'MPI_Comm_dup()'
p359
S'373'
p360
tp361
a(S'MPI_Comm_rank()'
p362
S'392'
p363
tp364
a(S'MPI_Comm_dup()'
p365
S'464'
p366
tp367
asS'overkit/src/core/DistributedFieldOps.cpp'
p368
(lp369
(S'MPI_Allreduce()'
p370
S'47'
p371
tp372
a(S'MPI_Scan()'
p373
S'322'
p374
tp375
a(S'MPI_Allgather()'
p376
S'380'
p377
tp378
a(S'MPI_Allgatherv()'
p379
S'402'
p380
tp381
a(S'MPI_Allreduce()'
p382
S'426'
p383
tp384
a(S'MPI_Allreduce()'
p385
S'440'
p386
tp387
a(S'MPI_Allreduce()'
p388
S'484'
p389
tp390
asS'overkit/src/core/Exchanger.cpp'
p391
(lp392
(S'MPI_Barrier()'
p393
S'128'
p394
tp395
a(S'MPI_Barrier()'
p396
S'150'
p397
tp398
a(S'MPI_Barrier()'
p399
S'161'
p400
tp401
a(S'MPI_Barrier()'
p402
S'289'
p403
tp404
a(S'MPI_Isend()'
p405
S'528'
p406
tp407
a(S'MPI_Irecv()'
p408
S'535'
p409
tp410
a(S'MPI_Waitall()'
p411
S'562'
p412
tp413
a(S'MPI_Waitall()'
p414
S'602'
p415
tp416
a(S'MPI_Waitall()'
p417
S'664'
p418
tp419
a(S'MPI_Barrier()'
p420
S'775'
p421
tp422
a(S'MPI_Barrier()'
p423
S'898'
p424
tp425
a(S'MPI_Barrier()'
p426
S'949'
p427
tp428
a(S'MPI_Barrier()'
p429
S'977'
p430
tp431
a(S'MPI_Barrier()'
p432
S'986'
p433
tp434
a(S'MPI_Barrier()'
p435
S'1014'
p436
tp437
a(S'MPI_Barrier()'
p438
S'1031'
p439
tp440
asS'overkit/src/core/OverlapN.cpp'
p441
(lp442
(S'MPI_Barrier()'
p443
S'33'
p444
tp445
a(S'MPI_Barrier()'
p446
S'39'
p447
tp448
a(S'MPI_Barrier()'
p449
S'60'
p450
tp451
a(S'MPI_Barrier()'
p452
S'72'
p453
tp454
a(S'MPI_Barrier()'
p455
S'101'
p456
tp457
a(S'MPI_Barrier()'
p458
S'129'
p459
tp460
a(S'MPI_Barrier()'
p461
S'136'
p462
tp463
a(S'MPI_Barrier()'
p464
S'149'
p465
tp466
a(S'MPI_Barrier()'
p467
S'154'
p468
tp469
a(S'MPI_Barrier()'
p470
S'156'
p471
tp472
a(S'MPI_Barrier()'
p473
S'204'
p474
tp475
a(S'MPI_Barrier()'
p476
S'208'
p477
tp478
a(S'MPI_Barrier()'
p479
S'210'
p480
tp481
a(S'MPI_Barrier()'
p482
S'237'
p483
tp484
a(S'MPI_Barrier()'
p485
S'241'
p486
tp487
a(S'MPI_Barrier()'
p488
S'243'
p489
tp490
asS'overkit/src/core/OverlapComponent.cpp'
p491
(lp492
(S'MPI_Barrier()'
p493
S'40'
p494
tp495
a(S'MPI_Barrier()'
p496
S'47'
p497
tp498
a(S'MPI_Allreduce()'
p499
S'146'
p500
tp501
a(S'MPI_Allreduce()'
p502
S'175'
p503
tp504
a(S'MPI_Barrier()'
p505
S'190'
p506
tp507
a(S'MPI_Barrier()'
p508
S'225'
p509
tp510
a(S'MPI_Barrier()'
p511
S'263'
p512
tp513
a(S'MPI_Barrier()'
p514
S'271'
p515
tp516
a(S'MPI_Barrier()'
p517
S'279'
p518
tp519
a(S'MPI_Barrier()'
p520
S'333'
p521
tp522
a(S'MPI_Barrier()'
p523
S'352'
p524
tp525
a(S'MPI_Barrier()'
p526
S'360'
p527
tp528
a(S'MPI_Allreduce()'
p529
S'381'
p530
tp531
a(S'MPI_Barrier()'
p532
S'390'
p533
tp534
a(S'MPI_Barrier()'
p535
S'406'
p536
tp537
a(S'MPI_Barrier()'
p538
S'418'
p539
tp540
a(S'MPI_Allreduce()'
p541
S'448'
p542
tp543
a(S'MPI_Barrier()'
p544
S'467'
p545
tp546
a(S'MPI_Barrier()'
p547
S'492'
p548
tp549
a(S'MPI_Barrier()'
p550
S'582'
p551
tp552
a(S'MPI_Barrier()'
p553
S'690'
p554
tp555
asS'overkit/src/core/ConnectivityM.cpp'
p556
(lp557
(S'MPI_Barrier()'
p558
S'33'
p559
tp560
a(S'MPI_Barrier()'
p561
S'39'
p562
tp563
a(S'MPI_Barrier()'
p564
S'62'
p565
tp566
a(S'MPI_Barrier()'
p567
S'74'
p568
tp569
a(S'MPI_Barrier()'
p570
S'104'
p571
tp572
a(S'MPI_Barrier()'
p573
S'154'
p574
tp575
a(S'MPI_Barrier()'
p576
S'163'
p577
tp578
a(S'MPI_Barrier()'
p579
S'176'
p580
tp581
a(S'MPI_Barrier()'
p582
S'180'
p583
tp584
a(S'MPI_Barrier()'
p585
S'182'
p586
tp587
a(S'MPI_Barrier()'
p588
S'209'
p589
tp590
a(S'MPI_Barrier()'
p591
S'213'
p592
tp593
a(S'MPI_Barrier()'
p594
S'215'
p595
tp596
a(S'MPI_Barrier()'
p597
S'241'
p598
tp599
a(S'MPI_Barrier()'
p600
S'245'
p601
tp602
a(S'MPI_Barrier()'
p603
S'247'
p604
tp605
a(S'MPI_Barrier()'
p606
S'274'
p607
tp608
a(S'MPI_Barrier()'
p609
S'278'
p610
tp611
a(S'MPI_Barrier()'
p612
S'280'
p613
tp614
a(S'MPI_Barrier()'
p615
S'307'
p616
tp617
a(S'MPI_Barrier()'
p618
S'311'
p619
tp620
a(S'MPI_Barrier()'
p621
S'313'
p622
tp623
asS'overkit/src/core/StateComponent.cpp'
p624
(lp625
(S'MPI_Barrier()'
p626
S'37'
p627
tp628
a(S'MPI_Barrier()'
p629
S'44'
p630
tp631
a(S'MPI_Allreduce()'
p632
S'125'
p633
tp634
a(S'MPI_Allreduce()'
p635
S'148'
p636
tp637
a(S'MPI_Barrier()'
p638
S'166'
p639
tp640
a(S'MPI_Barrier()'
p641
S'190'
p642
tp643
a(S'MPI_Barrier()'
p644
S'221'
p645
tp646
a(S'MPI_Barrier()'
p647
S'229'
p648
tp649
a(S'MPI_Barrier()'
p650
S'238'
p651
tp652
a(S'MPI_Barrier()'
p653
S'290'
p654
tp655
a(S'MPI_Barrier()'
p656
S'307'
p657
tp658
a(S'MPI_Barrier()'
p659
S'315'
p660
tp661
a(S'MPI_Allreduce()'
p662
S'327'
p663
tp664
a(S'MPI_Barrier()'
p665
S'336'
p666
tp667
a(S'MPI_Barrier()'
p668
S'350'
p669
tp670
a(S'MPI_Barrier()'
p671
S'362'
p672
tp673
a(S'MPI_Allreduce()'
p674
S'384'
p675
tp676
a(S'MPI_Barrier()'
p677
S'400'
p678
tp679
a(S'MPI_Barrier()'
p680
S'424'
p681
tp682
a(S'MPI_Barrier()'
p683
S'442'
p684
tp685
a(S'MPI_Allreduce()'
p686
S'460'
p687
tp688
a(S'MPI_Barrier()'
p689
S'478'
p690
tp691
a(S'MPI_Barrier()'
p692
S'484'
p693
tp694
a(S'MPI_Barrier()'
p695
S'545'
p696
tp697
a(S'MPI_Barrier()'
p698
S'547'
p699
tp700
asS'overkit/src/core/DataTypeOps.hpp'
p701
(lp702
(S'MPI_Type_contiguous()'
p703
S'23'
p704
tp705
a(S'MPI_Type_create_struct()'
p706
S'53'
p707
tp708
a(S'MPI_Type_create_resized()'
p709
S'58'
p710
tp711
asS'overkit/tests/UnitTestMain.cpp'
p712
(lp713
(S'MPI_Init()'
p714
S'27'
p715
tp716
a(S'MPI_Finalize()'
p717
S'46'
p718
tp719
asS'overkit/src/core/Request.cpp'
p720
(lp721
(S'MPI_Waitany()'
p722
S'30'
p723
tp724
a(S'MPI_Waitany()'
p725
S'188'
p726
tp727
a(S'MPI_Waitany()'
p728
S'294'
p729
tp730
asS'overkit/src/core/Profiler.inl'
p731
(lp732
(S'MPI_Wtime()'
p733
S'10'
p734
tp735
a(S'MPI_Wtime()'
p736
S'20'
p737
tp738
asS'overkit/src/core/Context.cpp'
p739
(lp740
(S'MPI_Barrier()'
p741
S'42'
p742
tp743
a(S'MPI_Comm_set_errhandler()'
p744
S'57'
p745
tp746
a(S'MPI_Barrier()'
p747
S'63'
p748
tp749
a(S'MPI_Barrier()'
p750
S'80'
p751
tp752
a(S'MPI_Initialized()'
p753
S'92'
p754
tp755
asS'overkit/src/core/Logger.inl'
p756
(lp757
(S'MPI_Allreduce()'
p758
S'75'
p759
tp760
asS'overkit/support/XDMF.cpp'
p761
(lp762
(S'MPI_Barrier()'
p763
S'140'
p764
tp765
a(S'MPI_Bcast()'
p766
S'330'
p767
tp768
a(S'MPI_Bcast()'
p769
S'331'
p770
tp771
a(S'MPI_Bcast()'
p772
S'332'
p773
tp774
a(S'MPI_Bcast()'
p775
S'347'
p776
tp777
a(S'MPI_Bcast()'
p778
S'366'
p779
tp780
a(S'MPI_Barrier()'
p781
S'372'
p782
tp783
asS'overkit/src/core/Assembler.cpp'
p784
(lp785
(S'MPI_Barrier()'
p786
S'151'
p787
tp788
a(S'MPI_Barrier()'
p789
S'173'
p790
tp791
a(S'MPI_Barrier()'
p792
S'193'
p793
tp794
a(S'MPI_Barrier()'
p795
S'227'
p796
tp797
a(S'MPI_Barrier()'
p798
S'233'
p799
tp800
asS'overkit/tests/AssemblerTests.cpp'
p801
(lp802
(S'MPI_Gather()'
p803
S'70'
p804
tp805
a(S'X_MPI_INT()'
p806
S'76'
p807
tp808
asS'overkit/src/core/Send.cpp'
p809
(lp810
(S'MPI_Isend()'
p811
S'143'
p812
tp813
asS'overkit/examples/Blobs.cpp'
p814
(lp815
(S'MPI_Init()'
p816
S'41'
p817
tp818
a(S'MPI_Comm_rank()'
p819
S'44'
p820
tp821
a(S'MPI_Barrier()'
p822
S'54'
p823
tp824
a(S'MPI_Barrier()'
p825
S'59'
p826
tp827
a(S'MPI_Finalize()'
p828
S'65'
p829
tp830
a(S'MPI_Comm_rank()'
p831
S'76'
p832
tp833
a(S'MPI_Comm_free()'
p834
S'101'
p835
tp836
a(S'MPI_Comm_size()'
p837
S'109'
p838
tp839
a(S'MPI_Comm_rank()'
p840
S'110'
p841
tp842
a(S'MPI_Comm_split()'
p843
S'146'
p844
tp845
a(S'MPI_Comm_split()'
p846
S'147'
p847
tp848
a(S'MPI_Comm_split()'
p849
S'148'
p850
tp851
a(S'MPI_Comm_split()'
p852
S'149'
p853
tp854
a(S'MPI_Comm_size()'
p855
S'156'
p856
tp857
a(S'MPI_Cart_create()'
p858
S'159'
p859
tp860
a(S'MPI_Comm_free()'
p861
S'160'
p862
tp863
a(S'MPI_Comm_size()'
p864
S'183'
p865
tp866
a(S'MPI_Cart_create()'
p867
S'187'
p868
tp869
a(S'MPI_Comm_free()'
p870
S'188'
p871
tp872
a(S'MPI_Comm_size()'
p873
S'211'
p874
tp875
a(S'MPI_Cart_create()'
p876
S'215'
p877
tp878
a(S'MPI_Comm_free()'
p879
S'216'
p880
tp881
a(S'MPI_Comm_size()'
p882
S'239'
p883
tp884
a(S'MPI_Cart_create()'
p885
S'243'
p886
tp887
a(S'MPI_Comm_free()'
p888
S'244'
p889
tp890
asS'overkit/src/core/ConnectivityComponent.cpp'
p891
(lp892
(S'MPI_Barrier()'
p893
S'41'
p894
tp895
a(S'MPI_Barrier()'
p896
S'48'
p897
tp898
a(S'MPI_Allreduce()'
p899
S'147'
p900
tp901
a(S'MPI_Allreduce()'
p902
S'176'
p903
tp904
a(S'MPI_Barrier()'
p905
S'191'
p906
tp907
a(S'MPI_Barrier()'
p908
S'226'
p909
tp910
a(S'MPI_Barrier()'
p911
S'265'
p912
tp913
a(S'MPI_Barrier()'
p914
S'273'
p915
tp916
a(S'MPI_Barrier()'
p917
S'281'
p918
tp919
a(S'MPI_Barrier()'
p920
S'335'
p921
tp922
a(S'MPI_Barrier()'
p923
S'355'
p924
tp925
a(S'MPI_Barrier()'
p926
S'363'
p927
tp928
a(S'MPI_Allreduce()'
p929
S'385'
p930
tp931
a(S'MPI_Barrier()'
p932
S'394'
p933
tp934
a(S'MPI_Barrier()'
p935
S'410'
p936
tp937
a(S'MPI_Barrier()'
p938
S'422'
p939
tp940
a(S'MPI_Allreduce()'
p941
S'452'
p942
tp943
a(S'MPI_Barrier()'
p944
S'472'
p945
tp946
a(S'MPI_Barrier()'
p947
S'497'
p948
tp949
a(S'MPI_Barrier()'
p950
S'590'
p951
tp952
a(S'MPI_Barrier()'
p953
S'702'
p954
tp955
asS'overkit/examples/Interface.cpp'
p956
(lp957
(S'MPI_Init()'
p958
S'38'
p959
tp960
a(S'MPI_Comm_rank()'
p961
S'41'
p962
tp963
a(S'MPI_Barrier()'
p964
S'51'
p965
tp966
a(S'MPI_Barrier()'
p967
S'56'
p968
tp969
a(S'MPI_Finalize()'
p970
S'62'
p971
tp972
a(S'MPI_Comm_rank()'
p973
S'73'
p974
tp975
a(S'MPI_Comm_free()'
p976
S'97'
p977
tp978
a(S'MPI_Comm_size()'
p979
S'105'
p980
tp981
a(S'MPI_Comm_rank()'
p982
S'106'
p983
tp984
a(S'MPI_Comm_split()'
p985
S'133'
p986
tp987
a(S'MPI_Comm_size()'
p988
S'135'
p989
tp990
a(S'MPI_Cart_create()'
p991
S'138'
p992
tp993
a(S'MPI_Comm_free()'
p994
S'139'
p995
tp996
a(S'MPI_Comm_split()'
p997
S'158'
p998
tp999
a(S'MPI_Comm_split()'
p1000
S'164'
p1001
tp1002
a(S'MPI_Comm_size()'
p1003
S'166'
p1004
tp1005
a(S'MPI_Cart_create()'
p1006
S'169'
p1007
tp1008
a(S'MPI_Comm_free()'
p1009
S'170'
p1010
tp1011
a(S'MPI_Comm_split()'
p1012
S'189'
p1013
tp1014
asS'overkit/src/core/Grid.cpp'
p1015
(lp1016
(S'MPI_Barrier()'
p1017
S'40'
p1018
tp1019
a(S'MPI_Barrier()'
p1020
S'92'
p1021
tp1022
a(S'MPI_Barrier()'
p1023
S'147'
p1024
tp1025
a(S'MPI_Barrier()'
p1026
S'158'
p1027
tp1028
a(S'MPI_Barrier()'
p1029
S'171'
p1030
tp1031
a(S'MPI_Bcast()'
p1032
S'332'
p1033
tp1034
a(S'MPI_Bcast()'
p1035
S'339'
p1036
tp1037
a(S'MPI_Bcast()'
p1038
S'340'
p1039
tp1040
a(S'MPI_Bcast()'
p1041
S'345'
p1042
tp1043
a(S'MPI_Bcast()'
p1044
S'350'
p1045
tp1046
asS'overkit/src/extras/XINTOUT.cpp'
p1047
(lp1048
(S'MPI_Barrier()'
p1049
S'233'
p1050
tp1051
a(S'MPI_Barrier()'
p1052
S'343'
p1053
tp1054
a(S'MPI_Barrier()'
p1055
S'363'
p1056
tp1057
a(S'MPI_Barrier()'
p1058
S'376'
p1059
tp1060
a(S'MPI_Barrier()'
p1061
S'393'
p1062
tp1063
a(S'MPI_Barrier()'
p1064
S'404'
p1065
tp1066
a(S'MPI_Barrier()'
p1067
S'453'
p1068
tp1069
a(S'MPI_File_open()'
p1070
S'483'
p1071
tp1072
a(S'X_MPI_INFO_NULL()'
p1073
S'484'
p1074
tp1075
a(S'MPI_File_close()'
p1076
S'492'
p1077
tp1078
a(S'MPI_Get_count()'
p1079
S'509'
p1080
tp1081
a(S'MPI_Get_count()'
p1082
S'537'
p1083
tp1084
a(S'MPI_Get_count()'
p1085
S'553'
p1086
tp1087
a(S'MPI_Get_count()'
p1088
S'560'
p1089
tp1090
a(S'MPI_Get_count()'
p1091
S'590'
p1092
tp1093
a(S'MPI_Bcast()'
p1094
S'628'
p1095
tp1096
a(S'MPI_Bcast()'
p1097
S'633'
p1098
tp1099
a(S'MPI_Bcast()'
p1100
S'638'
p1101
tp1102
a(S'MPI_File_read_at()'
p1103
S'649'
p1104
tp1105
a(S'MPI_File_open()'
p1106
S'707'
p1107
tp1108
a(S'X_MPI_INFO_NULL()'
p1109
S'708'
p1110
tp1111
a(S'MPI_File_close()'
p1112
S'716'
p1113
tp1114
a(S'MPI_File_open()'
p1115
S'722'
p1116
tp1117
a(S'X_MPI_INFO_NULL()'
p1118
S'723'
p1119
tp1120
a(S'MPI_File_close()'
p1121
S'731'
p1122
tp1123
a(S'MPI_Get_count()'
p1124
S'763'
p1125
tp1126
a(S'MPI_Get_count()'
p1127
S'780'
p1128
tp1129
a(S'MPI_Get_count()'
p1130
S'788'
p1131
tp1132
a(S'MPI_Get_count()'
p1133
S'797'
p1134
tp1135
a(S'MPI_Get_count()'
p1136
S'843'
p1137
tp1138
a(S'MPI_Get_count()'
p1139
S'866'
p1140
tp1141
a(S'MPI_Get_count()'
p1142
S'885'
p1143
tp1144
a(S'MPI_Get_count()'
p1145
S'893'
p1146
tp1147
a(S'MPI_Get_count()'
p1148
S'902'
p1149
tp1150
a(S'MPI_Bcast()'
p1151
S'957'
p1152
tp1153
a(S'MPI_Bcast()'
p1154
S'958'
p1155
tp1156
a(S'MPI_Bcast()'
p1157
S'959'
p1158
tp1159
a(S'MPI_Bcast()'
p1160
S'960'
p1161
tp1162
a(S'MPI_Bcast()'
p1163
S'961'
p1164
tp1165
a(S'MPI_Bcast()'
p1166
S'962'
p1167
tp1168
a(S'MPI_Bcast()'
p1169
S'963'
p1170
tp1171
a(S'MPI_Bcast()'
p1172
S'964'
p1173
tp1174
a(S'MPI_Bcast()'
p1175
S'965'
p1176
tp1177
a(S'MPI_File_open()'
p1178
S'1046'
p1179
tp1180
a(S'MPI_File_close()'
p1181
S'1055'
p1182
tp1183
a(S'MPI_File_open()'
p1184
S'1061'
p1185
tp1186
a(S'MPI_File_close()'
p1187
S'1070'
p1188
tp1189
a(S'MPI_File_set_view()'
p1190
S'1099'
p1191
tp1192
a(S'MPI_Get_count()'
p1193
S'1103'
p1194
tp1195
a(S'MPI_File_set_view()'
p1196
S'1148'
p1197
tp1198
a(S'MPI_Get_count()'
p1199
S'1152'
p1200
tp1201
a(S'MPI_File_set_view()'
p1202
S'1195'
p1203
tp1204
a(S'MPI_Get_count()'
p1205
S'1199'
p1206
tp1207
a(S'MPI_Allreduce()'
p1208
S'1234'
p1209
tp1210
a(S'MPI_Scan()'
p1211
S'1236'
p1212
tp1213
a(S'MPI_File_set_view()'
p1214
S'1249'
p1215
tp1216
a(S'MPI_Get_count()'
p1217
S'1253'
p1218
tp1219
a(S'MPI_File_open()'
p1220
S'1374'
p1221
tp1222
a(S'MPI_File_close()'
p1223
S'1383'
p1224
tp1225
a(S'MPI_File_set_view()'
p1226
S'1410'
p1227
tp1228
a(S'MPI_Get_count()'
p1229
S'1414'
p1230
tp1231
a(S'MPI_File_set_view()'
p1232
S'1448'
p1233
tp1234
a(S'MPI_Get_count()'
p1235
S'1452'
p1236
tp1237
a(S'MPI_Barrier()'
p1238
S'1496'
p1239
tp1240
a(S'MPI_Allreduce()'
p1241
S'1521'
p1242
tp1243
a(S'MPI_Allreduce()'
p1244
S'1522'
p1245
tp1246
a(S'MPI_Isend()'
p1247
S'1679'
p1248
tp1249
a(S'MPI_Irecv()'
p1250
S'1686'
p1251
tp1252
a(S'MPI_Waitall()'
p1253
S'1713'
p1254
tp1255
a(S'MPI_Waitall()'
p1256
S'1751'
p1257
tp1258
a(S'MPI_Waitall()'
p1259
S'1828'
p1260
tp1261
a(S'MPI_Barrier()'
p1262
S'1885'
p1263
tp1264
a(S'MPI_Barrier()'
p1265
S'1897'
p1266
tp1267
a(S'MPI_Barrier()'
p1268
S'1911'
p1269
tp1270
a(S'MPI_Isend()'
p1271
S'2261'
p1272
tp1273
a(S'MPI_Irecv()'
p1274
S'2268'
p1275
tp1276
a(S'MPI_Waitall()'
p1277
S'2297'
p1278
tp1279
a(S'MPI_Waitall()'
p1280
S'2341'
p1281
tp1282
a(S'MPI_Barrier()'
p1283
S'2419'
p1284
tp1285
a(S'MPI_Allreduce()'
p1286
S'2441'
p1287
tp1288
a(S'MPI_Barrier()'
p1289
S'2509'
p1290
tp1291
a(S'MPI_File_read_all()'
p1292
S'2730'
p1293
tp1294
a(S'MPI_Type_size()'
p1295
S'2736'
p1296
tp1297
a(S'MPI_File_read_at()'
p1298
S'2749'
p1299
tp1300
a(S'MPI_Type_size()'
p1301
S'2755'
p1302
tp1303
asS'overkit/src/core/Comm.hpp'
p1304
(lp1305
(S'MPI_Comm_free()'
p1306
S'78'
p1307
tp1308
asS'overkit/src/core/Debug.hpp'
p1309
(lp1310
(S'MPI_Comm_rank()'
p1311
S'34'
p1312
tp1313
a(S'MPI_Abort()'
p1314
S'42'
p1315
tp1316
asS'overkit/src/core/State.cpp'
p1317
(lp1318
(S'MPI_Barrier()'
p1319
S'32'
p1320
tp1321
a(S'MPI_Barrier()'
p1322
S'38'
p1323
tp1324
a(S'MPI_Barrier()'
p1325
S'52'
p1326
tp1327
a(S'MPI_Barrier()'
p1328
S'63'
p1329
tp1330
a(S'MPI_Barrier()'
p1331
S'97'
p1332
tp1333
a(S'MPI_Barrier()'
p1334
S'102'
p1335
tp1336
a(S'MPI_Barrier()'
p1337
S'125'
p1338
tp1339
asS'overkit/src/core/Halo.inl'
p1340
(lp1341
(S'MPI_Irecv()'
p1342
S'96'
p1343
tp1344
a(S'MPI_Isend()'
p1345
S'111'
p1346
tp1347
asS'overkit/src/core/AssemblerAssembly.cpp'
p1348
(lp1349
(S'MPI_Barrier()'
p1350
S'87'
p1351
tp1352
a(S'MPI_Barrier()'
p1353
S'110'
p1354
tp1355
a(S'MPI_Allreduce()'
p1356
S'145'
p1357
tp1358
a(S'MPI_Barrier()'
p1359
S'695'
p1360
tp1361
a(S'MPI_Barrier()'
p1362
S'766'
p1363
tp1364
a(S'MPI_Barrier()'
p1365
S'782'
p1366
tp1367
a(S'MPI_Barrier()'
p1368
S'824'
p1369
tp1370
a(S'MPI_Barrier()'
p1371
S'840'
p1372
tp1373
a(S'MPI_Irecv()'
p1374
S'936'
p1375
tp1376
a(S'MPI_Isend()'
p1377
S'954'
p1378
tp1379
a(S'MPI_Waitall()'
p1380
S'957'
p1381
tp1382
a(S'MPI_Irecv()'
p1383
S'967'
p1384
tp1385
a(S'MPI_Isend()'
p1386
S'998'
p1387
tp1388
a(S'MPI_Waitall()'
p1389
S'1001'
p1390
tp1391
a(S'MPI_Barrier()'
p1392
S'1038'
p1393
tp1394
a(S'MPI_Irecv()'
p1395
S'1087'
p1396
tp1397
a(S'MPI_Isend()'
p1398
S'1112'
p1399
tp1400
a(S'MPI_Waitall()'
p1401
S'1115'
p1402
tp1403
a(S'MPI_Irecv()'
p1404
S'1128'
p1405
tp1406
a(S'MPI_Isend()'
p1407
S'1136'
p1408
tp1409
a(S'MPI_Waitall()'
p1410
S'1140'
p1411
tp1412
a(S'MPI_Irecv()'
p1413
S'1273'
p1414
tp1415
a(S'MPI_Irecv()'
p1416
S'1275'
p1417
tp1418
a(S'MPI_Isend()'
p1419
S'1284'
p1420
tp1421
a(S'MPI_Isend()'
p1422
S'1286'
p1423
tp1424
a(S'MPI_Waitall()'
p1425
S'1290'
p1426
tp1427
a(S'MPI_Irecv()'
p1428
S'1443'
p1429
tp1430
a(S'MPI_Irecv()'
p1431
S'1465'
p1432
tp1433
a(S'MPI_Irecv()'
p1434
S'1469'
p1435
tp1436
a(S'MPI_Isend()'
p1437
S'1471'
p1438
tp1439
a(S'MPI_Testsome()'
p1440
S'1485'
p1441
tp1442
a(S'MPI_Isend()'
p1443
S'1496'
p1444
tp1445
a(S'MPI_Isend()'
p1446
S'1499'
p1447
tp1448
a(S'MPI_Testsome()'
p1449
S'1503'
p1450
tp1451
a(S'MPI_Testsome()'
p1452
S'1514'
p1453
tp1454
a(S'MPI_Irecv()'
p1455
S'1624'
p1456
tp1457
a(S'MPI_Irecv()'
p1458
S'1628'
p1459
tp1460
a(S'MPI_Isend()'
p1461
S'1630'
p1462
tp1463
a(S'MPI_Waitall()'
p1464
S'1637'
p1465
tp1466
a(S'MPI_Irecv()'
p1467
S'1857'
p1468
tp1469
a(S'MPI_Irecv()'
p1470
S'1859'
p1471
tp1472
a(S'MPI_Irecv()'
p1473
S'1861'
p1474
tp1475
a(S'MPI_Irecv()'
p1476
S'1863'
p1477
tp1478
a(S'MPI_Isend()'
p1479
S'1871'
p1480
tp1481
a(S'MPI_Isend()'
p1482
S'1873'
p1483
tp1484
a(S'MPI_Isend()'
p1485
S'1875'
p1486
tp1487
a(S'MPI_Isend()'
p1488
S'1877'
p1489
tp1490
a(S'MPI_Waitall()'
p1491
S'1881'
p1492
tp1493
a(S'MPI_Irecv()'
p1494
S'1925'
p1495
tp1496
a(S'MPI_Isend()'
p1497
S'1958'
p1498
tp1499
a(S'MPI_Waitall()'
p1500
S'1964'
p1501
tp1502
a(S'MPI_Barrier()'
p1503
S'2006'
p1504
tp1505
a(S'MPI_Allreduce()'
p1506
S'2022'
p1507
tp1508
a(S'MPI_Barrier()'
p1509
S'2038'
p1510
tp1511
a(S'MPI_Barrier()'
p1512
S'2045'
p1513
tp1514
a(S'MPI_Reduce()'
p1515
S'2067'
p1516
tp1517
a(S'MPI_Reduce()'
p1518
S'2069'
p1519
tp1520
a(S'MPI_Bcast()'
p1521
S'2094'
p1522
tp1523
a(S'MPI_Irecv()'
p1524
S'2187'
p1525
tp1526
a(S'MPI_Irecv()'
p1527
S'2189'
p1528
tp1529
a(S'MPI_Irecv()'
p1530
S'2191'
p1531
tp1532
a(S'MPI_Isend()'
p1533
S'2235'
p1534
tp1535
a(S'MPI_Isend()'
p1536
S'2237'
p1537
tp1538
a(S'MPI_Isend()'
p1539
S'2239'
p1540
tp1541
a(S'MPI_Waitall()'
p1542
S'2289'
p1543
tp1544
a(S'MPI_Barrier()'
p1545
S'2477'
p1546
tp1547
a(S'MPI_Barrier()'
p1548
S'2526'
p1549
tp1550
a(S'MPI_Barrier()'
p1551
S'2683'
p1552
tp1553
a(S'MPI_Barrier()'
p1554
S'2687'
p1555
tp1556
a(S'MPI_Barrier()'
p1557
S'2700'
p1558
tp1559
a(S'MPI_Barrier()'
p1560
S'2780'
p1561
tp1562
a(S'MPI_Barrier()'
p1563
S'2786'
p1564
tp1565
a(S'MPI_Barrier()'
p1566
S'2799'
p1567
tp1568
a(S'MPI_Barrier()'
p1569
S'2837'
p1570
tp1571
a(S'MPI_Allreduce()'
p1572
S'2989'
p1573
tp1574
a(S'MPI_Barrier()'
p1575
S'3147'
p1576
tp1577
a(S'MPI_Barrier()'
p1578
S'3241'
p1579
tp1580
a(S'MPI_Barrier()'
p1581
S'3252'
p1582
tp1583
a(S'MPI_Barrier()'
p1584
S'3258'
p1585
tp1586
a(S'MPI_Barrier()'
p1587
S'3394'
p1588
tp1589
a(S'MPI_Barrier()'
p1590
S'3409'
p1591
tp1592
a(S'MPI_Barrier()'
p1593
S'3511'
p1594
tp1595
a(S'MPI_Barrier()'
p1596
S'3515'
p1597
tp1598
a(S'MPI_Barrier()'
p1599
S'3528'
p1600
tp1601
a(S'MPI_Barrier()'
p1602
S'3745'
p1603
tp1604
a(S'MPI_Barrier()'
p1605
S'3759'
p1606
tp1607
a(S'MPI_Barrier()'
p1608
S'3765'
p1609
tp1610
a(S'MPI_Barrier()'
p1611
S'3906'
p1612
tp1613
a(S'MPI_Barrier()'
p1614
S'3921'
p1615
tp1616
a(S'MPI_Barrier()'
p1617
S'3927'
p1618
tp1619
a(S'MPI_Barrier()'
p1620
S'3984'
p1621
tp1622
a(S'MPI_Barrier()'
p1623
S'3996'
p1624
tp1625
a(S'MPI_Barrier()'
p1626
S'4000'
p1627
tp1628
a(S'MPI_Barrier()'
p1629
S'4015'
p1630
tp1631
a(S'MPI_Barrier()'
p1632
S'4232'
p1633
tp1634
a(S'MPI_Barrier()'
p1635
S'4243'
p1636
tp1637
a(S'MPI_Barrier()'
p1638
S'4247'
p1639
tp1640
a(S'MPI_Barrier()'
p1641
S'4260'
p1642
tp1643
a(S'MPI_Barrier()'
p1644
S'4316'
p1645
tp1646
a(S'MPI_Barrier()'
p1647
S'4328'
p1648
tp1649
a(S'MPI_Barrier()'
p1650
S'4334'
p1651
tp1652
a(S'MPI_Barrier()'
p1653
S'4458'
p1654
tp1655
a(S'MPI_Barrier()'
p1656
S'4605'
p1657
tp1658
a(S'MPI_Barrier()'
p1659
S'4617'
p1660
tp1661
a(S'MPI_Barrier()'
p1662
S'4623'
p1663
tp1664
a(S'MPI_Reduce()'
p1665
S'4736'
p1666
tp1667
a(S'MPI_Reduce()'
p1668
S'4739'
p1669
tp1670
a(S'MPI_Bcast()'
p1671
S'4762'
p1672
tp1673
a(S'MPI_Irecv()'
p1674
S'4873'
p1675
tp1676
a(S'MPI_Isend()'
p1677
S'4901'
p1678
tp1679
a(S'MPI_Waitall()'
p1680
S'4906'
p1681
tp1682
a(S'MPI_Irecv()'
p1683
S'4923'
p1684
tp1685
a(S'MPI_Irecv()'
p1686
S'4925'
p1687
tp1688
a(S'MPI_Irecv()'
p1689
S'4927'
p1690
tp1691
a(S'MPI_Irecv()'
p1692
S'4929'
p1693
tp1694
a(S'MPI_Isend()'
p1695
S'4978'
p1696
tp1697
a(S'MPI_Isend()'
p1698
S'4980'
p1699
tp1700
a(S'MPI_Isend()'
p1701
S'4982'
p1702
tp1703
a(S'MPI_Isend()'
p1704
S'4984'
p1705
tp1706
a(S'MPI_Waitall()'
p1707
S'4989'
p1708
tp1709
a(S'MPI_Barrier()'
p1710
S'5232'
p1711
tp1712
asS'overkit/src/core/ConnectivityN.cpp'
p1713
(lp1714
(S'MPI_Barrier()'
p1715
S'33'
p1716
tp1717
a(S'MPI_Barrier()'
p1718
S'39'
p1719
tp1720
a(S'MPI_Barrier()'
p1721
S'59'
p1722
tp1723
a(S'MPI_Barrier()'
p1724
S'71'
p1725
tp1726
a(S'MPI_Barrier()'
p1727
S'100'
p1728
tp1729
a(S'MPI_Barrier()'
p1730
S'128'
p1731
tp1732
a(S'MPI_Barrier()'
p1733
S'135'
p1734
tp1735
a(S'MPI_Barrier()'
p1736
S'148'
p1737
tp1738
a(S'MPI_Barrier()'
p1739
S'152'
p1740
tp1741
a(S'MPI_Barrier()'
p1742
S'154'
p1743
tp1744
a(S'MPI_Barrier()'
p1745
S'180'
p1746
tp1747
a(S'MPI_Barrier()'
p1748
S'184'
p1749
tp1750
a(S'MPI_Barrier()'
p1751
S'186'
p1752
tp1753
a(S'MPI_Barrier()'
p1754
S'213'
p1755
tp1756
a(S'MPI_Barrier()'
p1757
S'217'
p1758
tp1759
a(S'MPI_Barrier()'
p1760
S'219'
p1761
tp1762
asS'overkit/src/core/CollectBase.cpp'
p1763
(lp1764
(S'MPI_Irecv()'
p1765
S'189'
p1766
tp1767
a(S'MPI_Irecv()'
p1768
S'195'
p1769
tp1770
a(S'MPI_Isend()'
p1771
S'223'
p1772
tp1773
a(S'MPI_Waitall()'
p1774
S'227'
p1775
tp1776
asS'overkit/examples/BoxInBox.cpp'
p1777
(lp1778
(S'MPI_Init()'
p1779
S'43'
p1780
tp1781
a(S'MPI_Comm_rank()'
p1782
S'46'
p1783
tp1784
a(S'MPI_Barrier()'
p1785
S'57'
p1786
tp1787
a(S'MPI_Barrier()'
p1788
S'62'
p1789
tp1790
a(S'MPI_Finalize()'
p1791
S'68'
p1792
tp1793
a(S'MPI_Comm_rank()'
p1794
S'79'
p1795
tp1796
a(S'MPI_Comm_free()'
p1797
S'109'
p1798
tp1799
a(S'MPI_Comm_size()'
p1800
S'117'
p1801
tp1802
a(S'MPI_Comm_rank()'
p1803
S'118'
p1804
tp1805
a(S'MPI_Comm_split()'
p1806
S'150'
p1807
tp1808
a(S'MPI_Comm_split()'
p1809
S'151'
p1810
tp1811
a(S'MPI_Comm_size()'
p1812
S'158'
p1813
tp1814
a(S'MPI_Cart_create()'
p1815
S'161'
p1816
tp1817
a(S'MPI_Comm_free()'
p1818
S'162'
p1819
tp1820
a(S'MPI_Comm_size()'
p1821
S'185'
p1822
tp1823
a(S'MPI_Cart_create()'
p1824
S'188'
p1825
tp1826
a(S'MPI_Comm_free()'
p1827
S'189'
p1828
tp1829
asS'overkit/src/core/Exception.hpp'
p1830
(lp1831
(S'MPI_Allreduce()'
p1832
S'138'
p1833
tp1834
a(S'X_MPI_MIN()'
p1835
S'139'
p1836
tp1837
a(S'MPI_Allreduce()'
p1838
S'149'
p1839
tp1840
asS'overkit/src/core/Comm.cpp'
p1841
(lp1842
(S'MPI_Comm_dup()'
p1843
S'24'
p1844
tp1845
a(S'MPI_Comm_split()'
p1846
S'35'
p1847
tp1848
a(S'MPI_Dims_create()'
p1849
S'47'
p1850
tp1851
a(S'MPI_Cart_create()'
p1852
S'148'
p1853
tp1854
a(S'MPI_Topo_test()'
p1855
S'157'
p1856
tp1857
a(S'MPI_Cartdim_get()'
p1858
S'166'
p1859
tp1860
a(S'MPI_Cart_get()'
p1861
S'179'
p1862
tp1863
a(S'MPI_Cart_get()'
p1864
S'192'
p1865
tp1866
a(S'MPI_Cart_get()'
p1867
S'205'
p1868
tp1869
asS'overkit/src/core/CommunicationOps.cpp'
p1870
(lp1871
(S'MPI_Bcast()'
p1872
S'26'
p1873
tp1874
a(S'MPI_Bcast()'
p1875
S'31'
p1876
tp1877
a(S'MPI_Recv()'
p1878
S'42'
p1879
tp1880
a(S'MPI_Send()'
p1881
S'44'
p1882
tp1883
a(S'MPI_Bcast()'
p1884
S'47'
p1885
tp1886
a(S'MPI_Recv()'
p1887
S'56'
p1888
tp1889
a(S'MPI_Recv()'
p1890
S'58'
p1891
tp1892
a(S'MPI_Send()'
p1893
S'63'
p1894
tp1895
a(S'MPI_Send()'
p1896
S'65'
p1897
tp1898
a(S'MPI_Ibarrier()'
p1899
S'90'
p1900
tp1901
a(S'MPI_Isend()'
p1902
S'93'
p1903
tp1904
a(S'MPI_Issend()'
p1905
S'94'
p1906
tp1907
a(S'MPI_Test()'
p1908
S'106'
p1909
tp1910
a(S'MPI_Testall()'
p1911
S'111'
p1912
tp1913
a(S'MPI_Iprobe()'
p1914
S'118'
p1915
tp1916
a(S'MPI_Recv()'
p1917
S'120'
p1918
tp1919
a(S'MPI_Recv()'
p1920
S'126'
p1921
tp1922
a(S'MPI_Issend()'
p1923
S'164'
p1924
tp1925
a(S'MPI_Iprobe()'
p1926
S'178'
p1927
tp1928
a(S'MPI_Irecv()'
p1929
S'181'
p1930
tp1931
a(S'MPI_Testall()'
p1932
S'187'
p1933
tp1934
a(S'MPI_Waitall()'
p1935
S'194'
p1936
tp1937
a(S'MPI_Comm_rank()'
p1938
S'222'
p1939
tp1940
a(S'MPI_Comm_size()'
p1941
S'223'
p1942
tp1943
a(S'MPI_Abort()'
p1944
S'230'
p1945
tp1946
asS'overkit/src/core/Domain.inl'
p1947
(lp1948
(S'MPI_Barrier()'
p1949
S'10'
p1950
tp1951
a(S'MPI_Barrier()'
p1952
S'18'
p1953
tp1954
a(S'MPI_Barrier()'
p1955
S'22'
p1956
tp1957
a(S'MPI_Barrier()'
p1958
S'48'
p1959
tp1960
a(S'MPI_Barrier()'
p1961
S'56'
p1962
tp1963
a(S'MPI_Barrier()'
p1964
S'58'
p1965
tp1966
asS'overkit/src/core/Profiler.cpp'
p1967
(lp1968
(S'MPI_Barrier()'
p1969
S'141'
p1970
tp1971
a(S'MPI_Allreduce()'
p1972
S'179'
p1973
tp1974
a(S'MPI_Allreduce()'
p1975
S'205'
p1976
tp1977
a(S'MPI_Allreduce()'
p1978
S'206'
p1979
tp1980
a(S'MPI_Allreduce()'
p1981
S'207'
p1982
tp1983
asS'overkit/src/core/Decomp.cpp'
p1984
(lp1985
(S'MPI_Irecv()'
p1986
S'231'
p1987
tp1988
a(S'MPI_Isend()'
p1989
S'246'
p1990
tp1991
a(S'MPI_Waitany()'
p1992
S'253'
p1993
tp1994
asS'overkit/examples/InterfaceC.c'
p1995
(lp1996
(S'MPI_Init()'
p1997
S'54'
p1998
tp1999
a(S'MPI_Comm_rank()'
p2000
S'57'
p2001
tp2002
a(S'MPI_Barrier()'
p2003
S'74'
p2004
tp2005
a(S'MPI_Finalize()'
p2006
S'80'
p2007
tp2008
a(S'MPI_Comm_rank()'
p2009
S'89'
p2010
tp2011
a(S'MPI_Comm_free()'
p2012
S'160'
p2013
tp2014
a(S'MPI_Comm_size()'
p2015
S'227'
p2016
tp2017
a(S'MPI_Comm_rank()'
p2018
S'228'
p2019
tp2020
a(S'MPI_Comm_split()'
p2021
S'269'
p2022
tp2023
a(S'MPI_Comm_size()'
p2024
S'271'
p2025
tp2026
a(S'MPI_Cart_create()'
p2027
S'275'
p2028
tp2029
a(S'MPI_Comm_free()'
p2030
S'276'
p2031
tp2032
a(S'MPI_Comm_split()'
p2033
S'298'
p2034
tp2035
a(S'MPI_Comm_split()'
p2036
S'304'
p2037
tp2038
a(S'MPI_Comm_size()'
p2039
S'306'
p2040
tp2041
a(S'MPI_Cart_create()'
p2042
S'310'
p2043
tp2044
a(S'MPI_Comm_free()'
p2045
S'311'
p2046
tp2047
a(S'MPI_Comm_split()'
p2048
S'333'
p2049
tp2050
asS'overkit/src/core/DistributedRegionHash.inl'
p2051
(lp2052
(S'MPI_Allreduce()'
p2053
S'31'
p2054
tp2055
a(S'MPI_Allreduce()'
p2056
S'32'
p2057
tp2058
a(S'MPI_Irecv()'
p2059
S'77'
p2060
tp2061
a(S'MPI_Isend()'
p2062
S'81'
p2063
tp2064
a(S'MPI_Waitall()'
p2065
S'84'
p2066
tp2067
a(S'MPI_Type_commit()'
p2068
S'101'
p2069
tp2070
a(S'MPI_Irecv()'
p2071
S'111'
p2072
tp2073
a(S'MPI_Isend()'
p2074
S'121'
p2075
tp2076
a(S'MPI_Waitall()'
p2077
S'125'
p2078
tp2079
a(S'MPI_Allgather()'
p2080
S'167'
p2081
tp2082
a(S'MPI_Irecv()'
p2083
S'182'
p2084
tp2085
a(S'MPI_Isend()'
p2086
S'215'
p2087
tp2088
a(S'MPI_Waitall()'
p2089
S'219'
p2090
tp2091
a(S'MPI_Irecv()'
p2092
S'231'
p2093
tp2094
a(S'MPI_Isend()'
p2095
S'241'
p2096
tp2097
a(S'MPI_Waitall()'
p2098
S'245'
p2099
tp2100
a(S'MPI_Irecv()'
p2101
S'354'
p2102
tp2103
a(S'MPI_Isend()'
p2104
S'367'
p2105
tp2106
a(S'MPI_Waitall()'
p2107
S'370'
p2108
tp2109
a(S'MPI_Irecv()'
p2110
S'382'
p2111
tp2112
a(S'MPI_Isend()'
p2113
S'403'
p2114
tp2115
a(S'MPI_Waitall()'
p2116
S'406'
p2117
tp2118
a(S'MPI_Irecv()'
p2119
S'432'
p2120
tp2121
a(S'MPI_Isend()'
p2122
S'441'
p2123
tp2124
a(S'MPI_Waitall()'
p2125
S'444'
p2126
tp2127
a(S'MPI_Type_commit()'
p2128
S'451'
p2129
tp2130
a(S'MPI_Irecv()'
p2131
S'466'
p2132
tp2133
a(S'MPI_Irecv()'
p2134
S'468'
p2135
tp2136
a(S'MPI_Isend()'
p2137
S'486'
p2138
tp2139
a(S'MPI_Isend()'
p2140
S'488'
p2141
tp2142
a(S'MPI_Waitall()'
p2143
S'491'
p2144
tp2145
a(S'MPI_Irecv()'
p2146
S'508'
p2147
tp2148
a(S'MPI_Isend()'
p2149
S'524'
p2150
tp2151
a(S'MPI_Waitall()'
p2152
S'528'
p2153
tp2154
a(S'MPI_Irecv()'
p2155
S'540'
p2156
tp2157
a(S'MPI_Isend()'
p2158
S'569'
p2159
tp2160
a(S'MPI_Waitall()'
p2161
S'573'
p2162
tp2163
asS'overkit/src/core-c/Context.cpp'
p2164
(lp2165
(S'MPI_Initialized()'
p2166
S'20'
p2167
tp2168
asS'overkit/src/core/Geometry.cpp'
p2169
(lp2170
(S'MPI_Barrier()'
p2171
S'38'
p2172
tp2173
a(S'MPI_Barrier()'
p2174
S'44'
p2175
tp2176
a(S'MPI_Barrier()'
p2177
S'86'
p2178
tp2179
a(S'MPI_Barrier()'
p2180
S'97'
p2181
tp2182
a(S'MPI_Barrier()'
p2183
S'148'
p2184
tp2185
a(S'MPI_Barrier()'
p2186
S'153'
p2187
tp2188
a(S'MPI_Barrier()'
p2189
S'228'
p2190
tp2191
a(S'MPI_Barrier()'
p2192
S'270'
p2193
tp2194
a(S'MPI_Bcast()'
p2195
S'320'
p2196
tp2197
a(S'MPI_Bcast()'
p2198
S'325'
p2199
tp2200
asS'overkit/src/core/Partition.cpp'
p2201
(lp2202
(S'MPI_Allreduce()'
p2203
S'87'
p2204
tp2205
a(S'MPI_Allreduce()'
p2206
S'115'
p2207
tp2208
a(S'MPI_Allreduce()'
p2209
S'145'
p2210
tp2211
asS'overkit/tests/RequestTests.cpp'
p2212
(lp2213
(S'MPI_Irecv()'
p2214
S'83'
p2215
tp2216
a(S'MPI_Isend()'
p2217
S'86'
p2218
tp2219
a(S'MPI_Irecv()'
p2220
S'142'
p2221
tp2222
a(S'MPI_Isend()'
p2223
S'144'
p2224
tp2225
a(S'MPI_Irecv()'
p2226
S'147'
p2227
tp2228
a(S'MPI_Isend()'
p2229
S'149'
p2230
tp2231
a(S'MPI_Irecv()'
p2232
S'245'
p2233
tp2234
a(S'MPI_Isend()'
p2235
S'247'
p2236
tp2237
a(S'MPI_Irecv()'
p2238
S'250'
p2239
tp2240
a(S'MPI_Isend()'
p2241
S'252'
p2242
tp2243
as.