ccollections
defaultdict
p0
(c__builtin__
list
p1
tp2
Rp3
S'raptor/raptor/krylov/tests/test_par_cg_partial_inner.cpp'
p4
(lp5
(S'MPI_Init()'
p6
S'8'
p7
tp8
a(S'MPI_Comm_rank()'
p9
S'11'
p10
tp11
a(S'MPI_Comm_size()'
p12
S'12'
p13
tp14
a(S'MPI_Finalize()'
p15
S'40'
p16
tp17
asS'raptor/raptor/multilevel/tests/test_par_amg.cpp'
p18
(lp19
(S'MPI_Init()'
p20
S'15'
p21
tp22
a(S'MPI_Finalize()'
p23
S'21'
p24
tp25
a(S'MPI_Comm_rank()'
p26
S'29'
p27
tp28
a(S'MPI_Comm_size()'
p29
S'30'
p30
tp31
a(S'MPI_Reduce()'
p32
S'78'
p33
tp34
a(S'MPI_Reduce()'
p35
S'94'
p36
tp37
asS'raptor/raptor/external/trilinos_wrapper.cpp'
p38
(lp39
(S'MPI_Comm_rank()'
p40
S'10'
p41
tp42
a(S'MPI_Comm_rank()'
p43
S'22'
p44
tp45
a(S'MPI_Comm_rank()'
p46
S'79'
p47
tp48
asS'raptor/raptor/aggregation/tests/test_tap_aggregate.cpp'
p49
(lp50
(S'MPI_Init()'
p51
S'13'
p52
tp53
a(S'MPI_Finalize()'
p54
S'16'
p55
tp56
a(S'MPI_Comm_rank()'
p57
S'23'
p58
tp59
a(S'MPI_Comm_size()'
p60
S'24'
p61
tp62
a(S'MPI_Allgather()'
p63
S'86'
p64
tp65
a(S'MPI_Allgatherv()'
p66
S'101'
p67
tp68
asS'raptor/raptor/ruge_stuben/tests/test_par_ruge_stuben.cpp'
p69
(lp70
(S'MPI_Init()'
p71
S'14'
p72
tp73
a(S'MPI_Finalize()'
p74
S'17'
p75
tp76
a(S'MPI_Comm_rank()'
p77
S'24'
p78
tp79
a(S'MPI_Comm_size()'
p80
S'25'
p81
tp82
a(S'MPI_Allgather()'
p83
S'60'
p84
tp85
a(S'MPI_Allgather()'
p86
S'74'
p87
tp88
a(S'MPI_Allgather()'
p89
S'108'
p90
tp91
asS'raptor/raptor/ruge_stuben/tests/test_tap_splitting.cpp'
p92
(lp93
(S'MPI_Init()'
p94
S'14'
p95
tp96
a(S'MPI_Finalize()'
p97
S'17'
p98
tp99
a(S'MPI_Comm_rank()'
p100
S'24'
p101
tp102
a(S'MPI_Comm_size()'
p103
S'25'
p104
tp105
asS'raptor/examples/profile_tap_amg.cpp'
p106
(lp107
(S'MPI_Init()'
p108
S'16'
p109
tp110
a(S'MPI_Comm_rank()'
p111
S'18'
p112
tp113
a(S'MPI_Comm_size()'
p114
S'19'
p115
tp116
a(S'MPI_Barrier()'
p117
S'168'
p118
tp119
a(S'MPI_Barrier()'
p120
S'172'
p121
tp122
a(S'MPI_Barrier()'
p123
S'189'
p124
tp125
a(S'MPI_Barrier()'
p126
S'193'
p127
tp128
a(S'MPI_Barrier()'
p129
S'218'
p130
tp131
a(S'MPI_Barrier()'
p132
S'222'
p133
tp134
a(S'MPI_Barrier()'
p135
S'239'
p136
tp137
a(S'MPI_Barrier()'
p138
S'243'
p139
tp140
a(S'MPI_Finalize()'
p141
S'252'
p142
tp143
asS'raptor/raptor/ruge_stuben/tests/test_tap_interpolation.cpp'
p144
(lp145
(S'MPI_Comm_rank()'
p146
S'21'
p147
tp148
a(S'MPI_Comm_size()'
p149
S'22'
p150
tp151
a(S'MPI_Allgather()'
p152
S'34'
p153
tp154
a(S'MPI_Allgather()'
p155
S'70'
p156
tp157
a(S'X_MPI_INT()'
p158
S'71'
p159
tp160
a(S'MPI_Init()'
p161
S'86'
p162
tp163
a(S'MPI_Finalize()'
p164
S'89'
p165
tp166
a(S'MPI_Comm_rank()'
p167
S'97'
p168
tp169
a(S'MPI_Comm_size()'
p170
S'98'
p171
tp172
asS'raptor/examples/example.cpp'
p173
(lp174
(S'MPI_Init()'
p175
S'17'
p176
tp177
a(S'MPI_Comm_rank()'
p178
S'18'
p179
tp180
a(S'MPI_Comm_size()'
p181
S'19'
p182
tp183
a(S'MPI_Barrier()'
p184
S'61'
p185
tp186
a(S'MPI_Wtime()'
p187
S'62'
p188
tp189
a(S'MPI_Reduce()'
p190
S'77'
p191
tp192
a(S'MPI_Barrier()'
p193
S'82'
p194
tp195
a(S'MPI_Wtime()'
p196
S'83'
p197
tp198
a(S'MPI_Wtime()'
p199
S'85'
p200
tp201
a(S'MPI_Reduce()'
p202
S'87'
p203
tp204
a(S'MPI_Reduce()'
p205
S'89'
p206
tp207
a(S'MPI_Finalize()'
p208
S'95'
p209
tp210
asS'raptor/examples/benchmark_rss.cpp'
p211
(lp212
(S'MPI_Comm_rank()'
p213
S'32'
p214
tp215
a(S'MPI_Init()'
p216
S'47'
p217
tp218
a(S'MPI_Comm_rank()'
p219
S'49'
p220
tp221
a(S'MPI_Comm_size()'
p222
S'50'
p223
tp224
a(S'MPI_Barrier()'
p225
S'203'
p226
tp227
a(S'MPI_Wtime()'
p228
S'204'
p229
tp230
a(S'MPI_Wtime()'
p231
S'209'
p232
tp233
a(S'MPI_Barrier()'
p234
S'215'
p235
tp236
a(S'MPI_Wtime()'
p237
S'216'
p238
tp239
a(S'MPI_Wtime()'
p240
S'220'
p241
tp242
a(S'MPI_Barrier()'
p243
S'225'
p244
tp245
a(S'MPI_Wtime()'
p246
S'226'
p247
tp248
a(S'MPI_Wtime()'
p249
S'228'
p250
tp251
a(S'MPI_Reduce()'
p252
S'238'
p253
tp254
a(S'MPI_Reduce()'
p255
S'250'
p256
tp257
a(S'MPI_Reduce()'
p258
S'252'
p259
tp260
a(S'MPI_Reduce()'
p261
S'254'
p262
tp263
a(S'MPI_Finalize()'
p264
S'261'
p265
tp266
asS'raptor/examples/benchmark_tap_spmv.cpp'
p267
(lp268
(S'MPI_Init()'
p269
S'33'
p270
tp271
a(S'MPI_Comm_rank()'
p272
S'35'
p273
tp274
a(S'MPI_Comm_size()'
p275
S'36'
p276
tp277
a(S'MPI_Barrier()'
p278
S'202'
p279
tp280
a(S'MPI_Wtime()'
p281
S'203'
p282
tp283
a(S'MPI_Reduce()'
p284
S'209'
p285
tp286
a(S'MPI_Barrier()'
p287
S'214'
p288
tp289
a(S'MPI_Wtime()'
p290
S'215'
p291
tp292
a(S'MPI_Reduce()'
p293
S'221'
p294
tp295
a(S'MPI_Reduce()'
p296
S'265'
p297
tp298
a(S'MPI_Reduce()'
p299
S'267'
p300
tp301
a(S'MPI_Reduce()'
p302
S'269'
p303
tp304
a(S'MPI_Reduce()'
p305
S'271'
p306
tp307
a(S'MPI_Reduce()'
p308
S'273'
p309
tp310
a(S'MPI_Reduce()'
p311
S'275'
p312
tp313
a(S'MPI_Reduce()'
p314
S'277'
p315
tp316
a(S'MPI_Reduce()'
p317
S'279'
p318
tp319
a(S'MPI_Finalize()'
p320
S'284'
p321
tp322
asS'raptor/raptor/core/mpi_types.cpp'
p323
(lp324
(S'MPI_Allreduce()'
p325
S'48'
p326
tp327
a(S'MPI_Reduce()'
p328
S'52'
p329
tp330
a(S'MPI_Reduce()'
p331
S'54'
p332
tp333
a(S'MPI_Reduce()'
p334
S'56'
p335
tp336
a(S'MPI_Reduce()'
p337
S'58'
p338
tp339
a(S'MPI_Allreduce()'
p340
S'68'
p341
tp342
a(S'MPI_Reduce()'
p343
S'76'
p344
tp345
a(S'MPI_Gather()'
p346
S'84'
p347
tp348
a(S'MPI_Allgather()'
p349
S'93'
p350
tp351
a(S'MPI_Allgatherv()'
p352
S'103'
p353
tp354
a(S'MPI_Iallreduce()'
p355
S'112'
p356
tp357
a(S'MPI_Bcast()'
p358
S'121'
p359
tp360
a(S'MPI_Ibarrier()'
p361
S'128'
p362
tp363
a(S'MPI_Barrier()'
p364
S'136'
p365
tp366
a(S'MPI_Send()'
p367
S'148'
p368
tp369
a(S'MPI_Isend()'
p370
S'156'
p371
tp372
a(S'MPI_Issend()'
p373
S'165'
p374
tp375
a(S'MPI_Recv()'
p376
S'174'
p377
tp378
a(S'MPI_Irecv()'
p379
S'182'
p380
tp381
a(S'MPI_Probe()'
p382
S'190'
p383
tp384
a(S'MPI_Iprobe()'
p385
S'198'
p386
tp387
a(S'MPI_Wait()'
p388
S'210'
p389
tp390
a(S'MPI_Waitall()'
p391
S'217'
p392
tp393
a(S'MPI_Test()'
p394
S'224'
p395
tp396
a(S'MPI_Testall()'
p397
S'232'
p398
tp399
a(S'MPI_Comm_split()'
p400
S'283'
p401
tp402
a(S'MPI_Comm_group()'
p403
S'290'
p404
tp405
a(S'MPI_Comm_create_group()'
p406
S'298'
p407
tp408
a(S'MPI_Group_incl()'
p409
S'306'
p410
tp411
a(S'MPI_Comm_free()'
p412
S'313'
p413
tp414
a(S'MPI_Group_free()'
p415
S'320'
p416
tp417
a(S'MPI_Comm_dup()'
p418
S'327'
p419
tp420
asS'raptor/raptor/gallery/tests/test_par_laplacian.cpp'
p421
(lp422
(S'MPI_Init()'
p423
S'11'
p424
tp425
a(S'MPI_Finalize()'
p426
S'14'
p427
tp428
a(S'MPI_Comm_rank()'
p429
S'21'
p430
tp431
a(S'MPI_Comm_size()'
p432
S'22'
p433
tp434
a(S'MPI_Allgather()'
p435
S'46'
p436
tp437
a(S'MPI_Allgather()'
p438
S'48'
p439
tp440
asS'raptor/raptor/util/tests/test_tap_spmv_laplacian.cpp'
p441
(lp442
(S'MPI_Init()'
p443
S'10'
p444
tp445
a(S'MPI_Finalize()'
p446
S'13'
p447
tp448
a(S'MPI_Comm_rank()'
p449
S'20'
p450
tp451
a(S'MPI_Comm_size()'
p452
S'21'
p453
tp454
asS'raptor/examples/profile_tap_steps.cpp'
p455
(lp456
(S'MPI_Comm_rank()'
p457
S'62'
p458
tp459
a(S'MPI_Init()'
p460
S'143'
p461
tp462
a(S'MPI_Comm_rank()'
p463
S'145'
p464
tp465
a(S'MPI_Comm_size()'
p466
S'146'
p467
tp468
a(S'MPI_Finalize()'
p469
S'296'
p470
tp471
asS'raptor/examples/test_tap.cpp'
p472
(lp473
(S'MPI_Init()'
p474
S'26'
p475
tp476
a(S'MPI_Comm_rank()'
p477
S'28'
p478
tp479
a(S'MPI_Comm_size()'
p480
S'29'
p481
tp482
a(S'MPI_Finalize()'
p483
S'117'
p484
tp485
asS'raptor/raptor/krylov/tests/test_par_bicgstab.cpp'
p486
(lp487
(S'MPI_Init()'
p488
S'11'
p489
tp490
a(S'MPI_Finalize()'
p491
S'14'
p492
tp493
a(S'MPI_Comm_rank()'
p494
S'21'
p495
tp496
a(S'MPI_Comm_size()'
p497
S'22'
p498
tp499
a(S'MPI_Barrier()'
p500
S'52'
p501
tp502
asS'raptor/raptor/multilevel/tests/test_par_sparsify.cpp'
p503
(lp504
(S'MPI_Init()'
p505
S'16'
p506
tp507
a(S'MPI_Finalize()'
p508
S'22'
p509
tp510
a(S'MPI_Comm_rank()'
p511
S'30'
p512
tp513
a(S'MPI_Comm_size()'
p514
S'31'
p515
tp516
a(S'MPI_Allgather()'
p517
S'83'
p518
tp519
asS'raptor/raptor/aggregation/tests/test_tap_mis.cpp'
p520
(lp521
(S'MPI_Init()'
p522
S'13'
p523
tp524
a(S'MPI_Finalize()'
p525
S'16'
p526
tp527
a(S'MPI_Comm_rank()'
p528
S'23'
p529
tp530
a(S'MPI_Comm_size()'
p531
S'24'
p532
tp533
asS'raptor/raptor/ruge_stuben/tests/test_hypre_splitting.cpp'
p534
(lp535
(S'MPI_Comm_rank()'
p536
S'16'
p537
tp538
a(S'MPI_Init()'
p539
S'33'
p540
tp541
a(S'MPI_Finalize()'
p542
S'36'
p543
tp544
a(S'MPI_Comm_rank()'
p545
S'43'
p546
tp547
a(S'MPI_Comm_size()'
p548
S'44'
p549
tp550
asS'raptor/raptor/util/tests/test_parmetis.cpp'
p551
(lp552
(S'MPI_Init()'
p553
S'11'
p554
tp555
a(S'MPI_Finalize()'
p556
S'15'
p557
tp558
a(S'MPI_Comm_rank()'
p559
S'23'
p560
tp561
a(S'MPI_Comm_size()'
p562
S'24'
p563
tp564
a(S'MPI_Allgather()'
p565
S'40'
p566
tp567
a(S'X_MPI_INT()'
p568
S'41'
p569
tp570
a(S'MPI_Gatherv()'
p571
S'46'
p572
tp573
a(S'X_MPI_DOUBLE()'
p574
S'48'
p575
tp576
a(S'MPI_Allgather()'
p577
S'64'
p578
tp579
a(S'X_MPI_INT()'
p580
S'65'
p581
tp582
a(S'MPI_Gatherv()'
p583
S'70'
p584
tp585
a(S'X_MPI_DOUBLE()'
p586
S'72'
p587
tp588
a(S'MPI_Gatherv()'
p589
S'74'
p590
tp591
a(S'X_MPI_INT()'
p592
S'76'
p593
tp594
a(S'MPI_Allgather()'
p595
S'94'
p596
tp597
a(S'X_MPI_INT()'
p598
S'95'
p599
tp600
a(S'MPI_Gatherv()'
p601
S'100'
p602
tp603
a(S'X_MPI_DOUBLE()'
p604
S'102'
p605
tp606
a(S'MPI_Gatherv()'
p607
S'104'
p608
tp609
a(S'X_MPI_INT()'
p610
S'106'
p611
tp612
asS'raptor/raptor/krylov/tests/test_bicgstab_reproducibility.cpp'
p613
(lp614
(S'MPI_Init()'
p615
g7
tp616
a(S'MPI_Comm_rank()'
p617
S'11'
p618
tp619
a(S'MPI_Comm_size()'
p620
S'12'
p621
tp622
a(S'MPI_Barrier()'
p623
S'51'
p624
tp625
a(S'MPI_Finalize()'
p626
S'57'
p627
tp628
asS'raptor/examples/coo_example.cpp'
p629
(lp630
(S'MPI_Init()'
p631
S'19'
p632
tp633
a(S'MPI_Comm_rank()'
p634
S'20'
p635
tp636
a(S'MPI_Comm_size()'
p637
S'21'
p638
tp639
a(S'MPI_Finalize()'
p640
S'62'
p641
tp642
asS'raptor/raptor/tests/test_par_strength.cpp'
p643
(lp644
(S'MPI_Init()'
p645
S'16'
p646
tp647
a(S'MPI_Finalize()'
p648
S'19'
p649
tp650
a(S'MPI_Comm_rank()'
p651
S'26'
p652
tp653
a(S'MPI_Comm_size()'
p654
S'27'
p655
tp656
asS'raptor/examples/model_tap_steps.cpp'
p657
(lp658
(S'MPI_Comm_rank()'
p659
S'62'
p660
tp661
a(S'MPI_Init()'
p662
S'148'
p663
tp664
a(S'MPI_Comm_rank()'
p665
S'150'
p666
tp667
a(S'MPI_Comm_size()'
p668
S'151'
p669
tp670
a(S'MPI_Finalize()'
p671
S'302'
p672
tp673
asS'raptor/raptor/ruge_stuben/tests/test_mfem_amg.cpp'
p674
(lp675
(S'MPI_Comm_rank()'
p676
S'17'
p677
tp678
a(S'MPI_Init()'
p679
S'34'
p680
tp681
a(S'MPI_Finalize()'
p682
S'37'
p683
tp684
a(S'MPI_Comm_rank()'
p685
S'44'
p686
tp687
a(S'MPI_Comm_size()'
p688
S'45'
p689
tp690
asS'raptor/raptor/gallery/tests/test_par_aniso.cpp'
p691
(lp692
(S'MPI_Init()'
p693
S'11'
p694
tp695
a(S'MPI_Finalize()'
p696
S'14'
p697
tp698
a(S'MPI_Comm_rank()'
p699
S'21'
p700
tp701
a(S'MPI_Comm_size()'
p702
S'22'
p703
tp704
a(S'MPI_Allgather()'
p705
S'48'
p706
tp707
a(S'MPI_Allgather()'
p708
S'50'
p709
tp710
asS'raptor/raptor/krylov/tests/test_par_cg.cpp'
p711
(lp712
(S'MPI_Init()'
p713
S'11'
p714
tp715
a(S'MPI_Finalize()'
p716
S'14'
p717
tp718
a(S'MPI_Comm_rank()'
p719
S'21'
p720
tp721
a(S'MPI_Comm_size()'
p722
S'22'
p723
tp724
asS'raptor/raptor/aggregation/tests/test_tap_candidates.cpp'
p725
(lp726
(S'MPI_Init()'
p727
S'14'
p728
tp729
a(S'MPI_Finalize()'
p730
S'17'
p731
tp732
a(S'MPI_Comm_rank()'
p733
S'24'
p734
tp735
a(S'MPI_Comm_size()'
p736
S'25'
p737
tp738
a(S'MPI_Allgather()'
p739
S'67'
p740
tp741
asS'raptor/examples/csr_example.cpp'
p742
(lp743
(S'MPI_Init()'
p744
S'19'
p745
tp746
a(S'MPI_Comm_rank()'
p747
S'20'
p748
tp749
a(S'MPI_Comm_size()'
p750
S'21'
p751
tp752
a(S'MPI_Finalize()'
p753
S'61'
p754
tp755
asS'raptor/raptor/util/tests/test_par_add.cpp'
p756
(lp757
(S'MPI_Init()'
p758
S'11'
p759
tp760
a(S'MPI_Finalize()'
p761
S'14'
p762
tp763
a(S'MPI_Comm_rank()'
p764
S'21'
p765
tp766
a(S'MPI_Comm_size()'
p767
S'22'
p768
tp769
asS'raptor/raptor/util/tests/test_par_scale_aniso.cpp'
p770
(lp771
(S'MPI_Init()'
p772
S'10'
p773
tp774
a(S'MPI_Finalize()'
p775
S'13'
p776
tp777
a(S'MPI_Comm_rank()'
p778
S'20'
p779
tp780
a(S'MPI_Comm_size()'
p781
S'21'
p782
tp783
asS'raptor/raptor/core/tests/test_par_vector.cpp'
p784
(lp785
(S'MPI_Init()'
p786
S'11'
p787
tp788
a(S'MPI_Finalize()'
p789
S'14'
p790
tp791
a(S'MPI_Comm_rank()'
p792
S'21'
p793
tp794
a(S'MPI_Comm_size()'
p795
S'22'
p796
tp797
asS'raptor/raptor/ruge_stuben/tests/test_hypre_agg.cpp'
p798
(lp799
(S'MPI_Comm_rank()'
p800
S'16'
p801
tp802
a(S'MPI_Init()'
p803
S'33'
p804
tp805
a(S'MPI_Finalize()'
p806
S'36'
p807
tp808
a(S'MPI_Comm_rank()'
p809
S'43'
p810
tp811
a(S'MPI_Comm_size()'
p812
S'44'
p813
tp814
asS'raptor/raptor/ruge_stuben/tests/test_hypre_strength.cpp'
p815
(lp816
(S'MPI_Init()'
p817
S'15'
p818
tp819
a(S'MPI_Finalize()'
p820
S'18'
p821
tp822
a(S'MPI_Comm_rank()'
p823
S'25'
p824
tp825
a(S'MPI_Comm_size()'
p826
S'26'
p827
tp828
asS'raptor/raptor/krylov/tests/test_par_bicgstab_partial_inner_aniso.cpp'
p829
(lp830
(S'MPI_Init()'
p831
g7
tp832
a(S'MPI_Comm_rank()'
p833
S'11'
p834
tp835
a(S'MPI_Comm_size()'
p836
S'12'
p837
tp838
a(S'MPI_Barrier()'
p839
S'44'
p840
tp841
a(S'MPI_Barrier()'
p842
S'53'
p843
tp844
a(S'MPI_Barrier()'
p845
S'79'
p846
tp847
a(S'MPI_Barrier()'
p848
S'86'
p849
tp850
a(S'MPI_Comm_free()'
p851
S'88'
p852
tp853
a(S'MPI_Comm_free()'
p854
S'89'
p855
tp856
a(S'MPI_Finalize()'
p857
S'94'
p858
tp859
asS'raptor/raptor/aggregation/tests/test_par_aggregate.cpp'
p860
(lp861
(S'MPI_Init()'
p862
S'13'
p863
tp864
a(S'MPI_Finalize()'
p865
S'16'
p866
tp867
a(S'MPI_Comm_rank()'
p868
S'23'
p869
tp870
a(S'MPI_Comm_size()'
p871
S'24'
p872
tp873
a(S'MPI_Allgather()'
p874
S'83'
p875
tp876
a(S'MPI_Allgatherv()'
p877
S'98'
p878
tp879
asS'raptor/raptor/util/tests/test_ptscotch.cpp'
p880
(lp881
(S'MPI_Init()'
p882
S'11'
p883
tp884
a(S'MPI_Finalize()'
p885
S'14'
p886
tp887
a(S'MPI_Comm_rank()'
p888
S'21'
p889
tp890
a(S'MPI_Comm_size()'
p891
S'22'
p892
tp893
asS'raptor/examples/benchmark_matops.cpp'
p894
(lp895
(S'MPI_Waitsome()'
p896
S'36'
p897
tp898
a(S'MPI_Init()'
p899
S'56'
p900
tp901
a(S'MPI_Comm_rank()'
p902
S'58'
p903
tp904
a(S'MPI_Comm_size()'
p905
S'59'
p906
tp907
a(S'MPI_Allgather()'
p908
S'85'
p909
tp910
a(S'MPI_Allgather()'
p911
S'101'
p912
tp913
a(S'MPI_Isend()'
p914
S'298'
p915
tp916
a(S'MPI_Probe()'
p917
S'303'
p918
tp919
a(S'MPI_Get_count()'
p920
S'305'
p921
tp922
a(S'MPI_Recv()'
p923
S'306'
p924
tp925
a(S'MPI_Allreduce()'
p926
S'324'
p927
tp928
a(S'MPI_Allreduce()'
p929
S'327'
p930
tp931
a(S'MPI_Reduce()'
p932
S'336'
p933
tp934
a(S'MPI_Barrier()'
p935
S'343'
p936
tp937
a(S'MPI_Wtime()'
p938
S'344'
p939
tp940
a(S'MPI_Reduce()'
p941
S'350'
p942
tp943
a(S'MPI_Reduce()'
p944
S'358'
p945
tp946
a(S'MPI_Barrier()'
p947
S'366'
p948
tp949
a(S'MPI_Reduce()'
p950
S'372'
p951
tp952
a(S'MPI_Reduce()'
p953
S'374'
p954
tp955
a(S'MPI_Barrier()'
p956
S'383'
p957
tp958
a(S'MPI_Reduce()'
p959
S'389'
p960
tp961
a(S'MPI_Barrier()'
p962
S'394'
p963
tp964
a(S'MPI_Wtime()'
p965
S'395'
p966
tp967
a(S'MPI_Irecv()'
p968
S'406'
p969
tp970
a(S'MPI_Send()'
p971
S'420'
p972
tp973
a(S'MPI_Waitall()'
p974
S'425'
p975
tp976
a(S'MPI_Reduce()'
p977
S'429'
p978
tp979
a(S'MPI_Barrier()'
p980
S'434'
p981
tp982
a(S'MPI_Wtime()'
p983
S'435'
p984
tp985
a(S'MPI_Isend()'
p986
S'451'
p987
tp988
a(S'MPI_Irecv()'
p989
S'460'
p990
tp991
a(S'MPI_Reduce()'
p992
S'468'
p993
tp994
a(S'MPI_Finalize()'
p995
S'475'
p996
tp997
asS'raptor/examples/profile_amg.cpp'
p998
(lp999
(S'MPI_Init()'
p1000
S'15'
p1001
tp1002
a(S'MPI_Comm_rank()'
p1003
S'17'
p1004
tp1005
a(S'MPI_Comm_size()'
p1006
S'18'
p1007
tp1008
a(S'MPI_Barrier()'
p1009
S'216'
p1010
tp1011
a(S'MPI_Wtime()'
p1012
S'217'
p1013
tp1014
a(S'MPI_Wtime()'
p1015
S'221'
p1016
tp1017
a(S'MPI_Reduce()'
p1018
S'222'
p1019
tp1020
a(S'MPI_Barrier()'
p1021
S'235'
p1022
tp1023
a(S'MPI_Wtime()'
p1024
S'236'
p1025
tp1026
a(S'MPI_Wtime()'
p1027
S'238'
p1028
tp1029
a(S'MPI_Reduce()'
p1030
S'239'
p1031
tp1032
a(S'MPI_Barrier()'
p1033
S'249'
p1034
tp1035
a(S'MPI_Wtime()'
p1036
S'250'
p1037
tp1038
a(S'MPI_Wtime()'
p1039
S'255'
p1040
tp1041
a(S'MPI_Reduce()'
p1042
S'256'
p1043
tp1044
a(S'MPI_Barrier()'
p1045
S'271'
p1046
tp1047
a(S'MPI_Wtime()'
p1048
S'272'
p1049
tp1050
a(S'MPI_Wtime()'
p1051
S'274'
p1052
tp1053
a(S'MPI_Reduce()'
p1054
S'275'
p1055
tp1056
a(S'MPI_Barrier()'
p1057
S'300'
p1058
tp1059
a(S'MPI_Wtime()'
p1060
S'301'
p1061
tp1062
a(S'MPI_Reduce()'
p1063
S'319'
p1064
tp1065
a(S'MPI_Reduce()'
p1066
S'321'
p1067
tp1068
a(S'MPI_Barrier()'
p1069
S'347'
p1070
tp1071
a(S'MPI_Wtime()'
p1072
S'348'
p1073
tp1074
a(S'MPI_Wtime()'
p1075
S'352'
p1076
tp1077
a(S'MPI_Reduce()'
p1078
S'353'
p1079
tp1080
a(S'MPI_Barrier()'
p1081
S'366'
p1082
tp1083
a(S'MPI_Wtime()'
p1084
S'367'
p1085
tp1086
a(S'MPI_Wtime()'
p1087
S'369'
p1088
tp1089
a(S'MPI_Reduce()'
p1090
S'370'
p1091
tp1092
a(S'MPI_Barrier()'
p1093
S'380'
p1094
tp1095
a(S'MPI_Wtime()'
p1096
S'381'
p1097
tp1098
a(S'MPI_Wtime()'
p1099
S'386'
p1100
tp1101
a(S'MPI_Reduce()'
p1102
S'387'
p1103
tp1104
a(S'MPI_Barrier()'
p1105
S'402'
p1106
tp1107
a(S'MPI_Wtime()'
p1108
S'403'
p1109
tp1110
a(S'MPI_Wtime()'
p1111
S'405'
p1112
tp1113
a(S'MPI_Reduce()'
p1114
S'406'
p1115
tp1116
a(S'MPI_Barrier()'
p1117
S'432'
p1118
tp1119
a(S'MPI_Wtime()'
p1120
S'433'
p1121
tp1122
a(S'MPI_Reduce()'
p1123
S'440'
p1124
tp1125
a(S'MPI_Barrier()'
p1126
S'447'
p1127
tp1128
a(S'MPI_Wtime()'
p1129
S'448'
p1130
tp1131
a(S'MPI_Reduce()'
p1132
S'454'
p1133
tp1134
a(S'MPI_Barrier()'
p1135
S'461'
p1136
tp1137
a(S'MPI_Wtime()'
p1138
S'462'
p1139
tp1140
a(S'MPI_Reduce()'
p1141
S'468'
p1142
tp1143
a(S'MPI_Barrier()'
p1144
S'475'
p1145
tp1146
a(S'MPI_Wtime()'
p1147
S'476'
p1148
tp1149
a(S'MPI_Reduce()'
p1150
S'482'
p1151
tp1152
a(S'MPI_Reduce()'
p1153
S'503'
p1154
tp1155
a(S'MPI_Reduce()'
p1156
S'505'
p1157
tp1158
a(S'MPI_Barrier()'
p1159
S'514'
p1160
tp1161
a(S'MPI_Wtime()'
p1162
S'515'
p1163
tp1164
a(S'MPI_Reduce()'
p1165
S'518'
p1166
tp1167
a(S'MPI_Barrier()'
p1168
S'527'
p1169
tp1170
a(S'MPI_Wtime()'
p1171
S'528'
p1172
tp1173
a(S'MPI_Reduce()'
p1174
S'531'
p1175
tp1176
a(S'MPI_Barrier()'
p1177
S'539'
p1178
tp1179
a(S'MPI_Wtime()'
p1180
S'540'
p1181
tp1182
a(S'MPI_Reduce()'
p1183
S'543'
p1184
tp1185
a(S'MPI_Barrier()'
p1186
S'553'
p1187
tp1188
a(S'MPI_Wtime()'
p1189
S'554'
p1190
tp1191
a(S'MPI_Reduce()'
p1192
S'558'
p1193
tp1194
a(S'MPI_Barrier()'
p1195
S'569'
p1196
tp1197
a(S'MPI_Wtime()'
p1198
S'570'
p1199
tp1200
a(S'MPI_Reduce()'
p1201
S'576'
p1202
tp1203
a(S'MPI_Barrier()'
p1204
S'583'
p1205
tp1206
a(S'MPI_Wtime()'
p1207
S'584'
p1208
tp1209
a(S'MPI_Reduce()'
p1210
S'590'
p1211
tp1212
a(S'MPI_Barrier()'
p1213
S'597'
p1214
tp1215
a(S'MPI_Wtime()'
p1216
S'598'
p1217
tp1218
a(S'MPI_Reduce()'
p1219
S'604'
p1220
tp1221
a(S'MPI_Barrier()'
p1222
S'611'
p1223
tp1224
a(S'MPI_Wtime()'
p1225
S'612'
p1226
tp1227
a(S'MPI_Reduce()'
p1228
S'618'
p1229
tp1230
a(S'MPI_Finalize()'
p1231
S'632'
p1232
tp1233
asS'raptor/raptor/ruge_stuben/tests/test_hypre_unknown.cpp'
p1234
(lp1235
(S'MPI_Init()'
p1236
S'15'
p1237
tp1238
a(S'MPI_Finalize()'
p1239
S'18'
p1240
tp1241
a(S'MPI_Comm_rank()'
p1242
S'56'
p1243
tp1244
a(S'MPI_Comm_rank()'
p1245
S'74'
p1246
tp1247
a(S'MPI_Comm_size()'
p1248
S'75'
p1249
tp1250
asS'raptor/raptor/util/linalg/repartition.cpp'
p1251
(lp1252
(S'MPI_Comm_rank()'
p1253
S'66'
p1254
tp1255
a(S'MPI_Comm_size()'
p1256
S'67'
p1257
tp1258
a(S'MPI_Pack_size()'
p1259
S'97'
p1260
tp1261
a(S'MPI_Pack_size()'
p1262
S'98'
p1263
tp1264
a(S'MPI_Allreduce()'
p1265
S'143'
p1266
tp1267
a(S'MPI_Pack_size()'
p1268
S'156'
p1269
tp1270
a(S'MPI_Pack_size()'
p1271
S'157'
p1272
tp1273
a(S'MPI_Pack()'
p1274
S'168'
p1275
tp1276
a(S'MPI_Pack()'
p1277
S'179'
p1278
tp1279
a(S'MPI_Pack()'
p1280
S'181'
p1281
tp1282
a(S'MPI_Pack()'
p1283
S'191'
p1284
tp1285
a(S'MPI_Pack()'
p1286
S'193'
p1287
tp1288
a(S'MPI_Pack()'
p1289
S'208'
p1290
tp1291
a(S'MPI_Pack()'
p1292
S'210'
p1293
tp1294
a(S'MPI_Pack()'
p1295
S'225'
p1296
tp1297
a(S'MPI_Pack()'
p1298
S'227'
p1299
tp1300
a(S'MPI_Pack()'
p1301
S'236'
p1302
tp1303
a(S'MPI_Pack()'
p1304
S'238'
p1305
tp1306
a(S'MPI_Isend()'
p1307
S'241'
p1308
tp1309
a(S'X_MPI_COMM_WORLD()'
p1310
S'242'
p1311
tp1312
a(S'MPI_Probe()'
p1313
S'252'
p1314
tp1315
a(S'MPI_Get_count()'
p1316
S'254'
p1317
tp1318
a(S'MPI_Recv()'
p1319
S'256'
p1320
tp1321
a(S'MPI_Unpack()'
p1322
S'261'
p1323
tp1324
a(S'MPI_Unpack()'
p1325
S'265'
p1326
tp1327
a(S'MPI_Unpack()'
p1328
S'268'
p1329
tp1330
a(S'MPI_Unpack()'
p1331
S'274'
p1332
tp1333
a(S'MPI_Unpack()'
p1334
S'277'
p1335
tp1336
a(S'MPI_Unpack()'
p1337
S'284'
p1338
tp1339
a(S'MPI_Unpack()'
p1340
S'286'
p1341
tp1342
a(S'MPI_Waitall()'
p1343
S'298'
p1344
tp1345
a(S'MPI_Allgather()'
p1346
S'300'
p1347
tp1348
asS'raptor/raptor/aggregation/tests/test_par_prolongation.cpp'
p1349
(lp1350
(S'MPI_Init()'
p1351
S'14'
p1352
tp1353
a(S'MPI_Finalize()'
p1354
S'17'
p1355
tp1356
a(S'MPI_Comm_rank()'
p1357
S'24'
p1358
tp1359
a(S'MPI_Comm_size()'
p1360
S'25'
p1361
tp1362
asS'raptor/examples/benchmark_setup_sweeps.cpp'
p1363
(lp1364
(S'MPI_Init()'
p1365
S'15'
p1366
tp1367
a(S'MPI_Comm_rank()'
p1368
S'17'
p1369
tp1370
a(S'MPI_Comm_size()'
p1371
S'18'
p1372
tp1373
a(S'MPI_Wtime()'
p1374
S'155'
p1375
tp1376
a(S'MPI_Wtime()'
p1377
S'157'
p1378
tp1379
a(S'MPI_Reduce()'
p1380
S'158'
p1381
tp1382
a(S'MPI_Wtime()'
p1383
S'164'
p1384
tp1385
a(S'MPI_Wtime()'
p1386
S'166'
p1387
tp1388
a(S'MPI_Reduce()'
p1389
S'167'
p1390
tp1391
a(S'MPI_Wtime()'
p1392
S'182'
p1393
tp1394
a(S'MPI_Wtime()'
p1395
S'184'
p1396
tp1397
a(S'MPI_Reduce()'
p1398
S'185'
p1399
tp1400
a(S'MPI_Wtime()'
p1401
S'191'
p1402
tp1403
a(S'MPI_Wtime()'
p1404
S'193'
p1405
tp1406
a(S'MPI_Reduce()'
p1407
S'194'
p1408
tp1409
a(S'MPI_Finalize()'
p1410
S'203'
p1411
tp1412
asS'raptor/raptor/aggregation/tests/test_par_mis.cpp'
p1413
(lp1414
(S'MPI_Init()'
p1415
S'13'
p1416
tp1417
a(S'MPI_Finalize()'
p1418
S'16'
p1419
tp1420
a(S'MPI_Comm_rank()'
p1421
S'23'
p1422
tp1423
a(S'MPI_Comm_size()'
p1424
S'24'
p1425
tp1426
asS'raptor/raptor/ruge_stuben/tests/test_hypre_interpolation.cpp'
p1427
(lp1428
(S'MPI_Comm_rank()'
p1429
S'16'
p1430
tp1431
a(S'MPI_Init()'
p1432
S'33'
p1433
tp1434
a(S'MPI_Finalize()'
p1435
S'36'
p1436
tp1437
a(S'MPI_Comm_rank()'
p1438
S'43'
p1439
tp1440
a(S'MPI_Comm_size()'
p1441
S'44'
p1442
tp1443
asS'raptor/raptor/ruge_stuben/tests/test_par_splitting.cpp'
p1444
(lp1445
(S'MPI_Init()'
p1446
S'14'
p1447
tp1448
a(S'MPI_Finalize()'
p1449
S'17'
p1450
tp1451
a(S'MPI_Comm_rank()'
p1452
S'24'
p1453
tp1454
a(S'MPI_Comm_size()'
p1455
S'25'
p1456
tp1457
asS'raptor/raptor/ruge_stuben/tests/test_hypre.cpp'
p1458
(lp1459
(S'MPI_Comm_rank()'
p1460
S'16'
p1461
tp1462
a(S'MPI_Init()'
p1463
S'33'
p1464
tp1465
a(S'MPI_Finalize()'
p1466
S'36'
p1467
tp1468
a(S'MPI_Comm_rank()'
p1469
S'43'
p1470
tp1471
a(S'MPI_Comm_size()'
p1472
S'44'
p1473
tp1474
asS'raptor/raptor/ruge_stuben/tests/test_par_interpolation.cpp'
p1475
(lp1476
(S'MPI_Comm_rank()'
p1477
S'21'
p1478
tp1479
a(S'MPI_Comm_size()'
p1480
S'22'
p1481
tp1482
a(S'MPI_Allgather()'
p1483
S'34'
p1484
tp1485
a(S'MPI_Allgather()'
p1486
S'69'
p1487
tp1488
a(S'X_MPI_INT()'
p1489
S'70'
p1490
tp1491
a(S'MPI_Init()'
p1492
S'85'
p1493
tp1494
a(S'MPI_Finalize()'
p1495
S'88'
p1496
tp1497
a(S'MPI_Comm_rank()'
p1498
S'96'
p1499
tp1500
a(S'MPI_Comm_size()'
p1501
S'97'
p1502
tp1503
asS'raptor/raptor/krylov/tests/test_partial_inner.cpp'
p1504
(lp1505
(S'MPI_Init()'
p1506
S'11'
p1507
tp1508
a(S'MPI_Finalize()'
p1509
S'14'
p1510
tp1511
a(S'MPI_Comm_rank()'
p1512
S'21'
p1513
tp1514
a(S'MPI_Comm_size()'
p1515
S'22'
p1516
tp1517
a(S'MPI_Barrier()'
p1518
S'47'
p1519
tp1520
a(S'MPI_Comm_free()'
p1521
S'51'
p1522
tp1523
a(S'MPI_Comm_free()'
p1524
S'52'
p1525
tp1526
asS'raptor/examples/profile_rss.cpp'
p1527
(lp1528
(S'MPI_Init()'
p1529
S'30'
p1530
tp1531
a(S'MPI_Comm_rank()'
p1532
S'32'
p1533
tp1534
a(S'MPI_Comm_size()'
p1535
S'33'
p1536
tp1537
a(S'MPI_Barrier()'
p1538
S'220'
p1539
tp1540
a(S'MPI_Wtime()'
p1541
S'221'
p1542
tp1543
a(S'MPI_Reduce()'
p1544
S'224'
p1545
tp1546
a(S'MPI_Barrier()'
p1547
S'231'
p1548
tp1549
a(S'MPI_Wtime()'
p1550
S'232'
p1551
tp1552
a(S'MPI_Reduce()'
p1553
S'235'
p1554
tp1555
a(S'MPI_Barrier()'
p1556
S'241'
p1557
tp1558
a(S'MPI_Wtime()'
p1559
S'242'
p1560
tp1561
a(S'MPI_Reduce()'
p1562
S'245'
p1563
tp1564
a(S'MPI_Barrier()'
p1565
S'251'
p1566
tp1567
a(S'MPI_Wtime()'
p1568
S'252'
p1569
tp1570
a(S'MPI_Reduce()'
p1571
S'255'
p1572
tp1573
a(S'MPI_Barrier()'
p1574
S'262'
p1575
tp1576
a(S'MPI_Wtime()'
p1577
S'263'
p1578
tp1579
a(S'MPI_Reduce()'
p1580
S'266'
p1581
tp1582
a(S'MPI_Barrier()'
p1583
S'272'
p1584
tp1585
a(S'MPI_Wtime()'
p1586
S'273'
p1587
tp1588
a(S'MPI_Reduce()'
p1589
S'276'
p1590
tp1591
a(S'MPI_Barrier()'
p1592
S'283'
p1593
tp1594
a(S'MPI_Wtime()'
p1595
S'284'
p1596
tp1597
a(S'MPI_Reduce()'
p1598
S'287'
p1599
tp1600
a(S'MPI_Barrier()'
p1601
S'293'
p1602
tp1603
a(S'MPI_Wtime()'
p1604
S'294'
p1605
tp1606
a(S'MPI_Reduce()'
p1607
S'297'
p1608
tp1609
a(S'MPI_Barrier()'
p1610
S'305'
p1611
tp1612
a(S'MPI_Wtime()'
p1613
S'306'
p1614
tp1615
a(S'MPI_Reduce()'
p1616
S'309'
p1617
tp1618
a(S'MPI_Barrier()'
p1619
S'314'
p1620
tp1621
a(S'MPI_Wtime()'
p1622
S'315'
p1623
tp1624
a(S'MPI_Reduce()'
p1625
S'318'
p1626
tp1627
a(S'MPI_Barrier()'
p1628
S'323'
p1629
tp1630
a(S'MPI_Wtime()'
p1631
S'324'
p1632
tp1633
a(S'MPI_Reduce()'
p1634
S'330'
p1635
tp1636
a(S'MPI_Barrier()'
p1637
S'335'
p1638
tp1639
a(S'MPI_Wtime()'
p1640
S'336'
p1641
tp1642
a(S'MPI_Reduce()'
p1643
S'342'
p1644
tp1645
a(S'MPI_Barrier()'
p1646
S'347'
p1647
tp1648
a(S'MPI_Wtime()'
p1649
S'348'
p1650
tp1651
a(S'MPI_Reduce()'
p1652
S'354'
p1653
tp1654
a(S'MPI_Barrier()'
p1655
S'359'
p1656
tp1657
a(S'MPI_Wtime()'
p1658
S'360'
p1659
tp1660
a(S'MPI_Reduce()'
p1661
S'366'
p1662
tp1663
a(S'MPI_Barrier()'
p1664
S'371'
p1665
tp1666
a(S'MPI_Wtime()'
p1667
S'372'
p1668
tp1669
a(S'MPI_Reduce()'
p1670
S'378'
p1671
tp1672
a(S'MPI_Barrier()'
p1673
S'383'
p1674
tp1675
a(S'MPI_Wtime()'
p1676
S'384'
p1677
tp1678
a(S'MPI_Reduce()'
p1679
S'390'
p1680
tp1681
a(S'MPI_Finalize()'
p1682
S'400'
p1683
tp1684
asS'raptor/examples/benchmark_par_spmv.cpp'
p1685
(lp1686
(S'MPI_Init()'
p1687
S'20'
p1688
tp1689
a(S'MPI_Comm_rank()'
p1690
S'22'
p1691
tp1692
a(S'MPI_Comm_size()'
p1693
S'23'
p1694
tp1695
a(S'MPI_Wtime()'
p1696
S'166'
p1697
tp1698
a(S'MPI_Reduce()'
p1699
S'172'
p1700
tp1701
a(S'MPI_Wtime()'
p1702
S'178'
p1703
tp1704
a(S'MPI_Reduce()'
p1705
S'184'
p1706
tp1707
a(S'MPI_Finalize()'
p1708
S'193'
p1709
tp1710
asS'raptor/examples/benchmark_tap_amg.cpp'
p1711
(lp1712
(S'MPI_Comm_rank()'
p1713
S'16'
p1714
tp1715
a(S'MPI_Init()'
p1716
S'33'
p1717
tp1718
a(S'MPI_Comm_rank()'
p1719
S'35'
p1720
tp1721
a(S'MPI_Comm_size()'
p1722
S'36'
p1723
tp1724
a(S'MPI_Reduce()'
p1725
S'180'
p1726
tp1727
a(S'MPI_Barrier()'
p1728
S'213'
p1729
tp1730
a(S'MPI_Wtime()'
p1731
S'214'
p1732
tp1733
a(S'MPI_Wtime()'
p1734
S'218'
p1735
tp1736
a(S'MPI_Reduce()'
p1737
S'219'
p1738
tp1739
a(S'MPI_Barrier()'
p1740
S'221'
p1741
tp1742
a(S'MPI_Wtime()'
p1743
S'222'
p1744
tp1745
a(S'MPI_Wtime()'
p1746
S'224'
p1747
tp1748
a(S'MPI_Reduce()'
p1749
S'225'
p1750
tp1751
a(S'MPI_Barrier()'
p1752
S'244'
p1753
tp1754
a(S'MPI_Wtime()'
p1755
S'245'
p1756
tp1757
a(S'MPI_Wtime()'
p1758
S'254'
p1759
tp1760
a(S'MPI_Reduce()'
p1761
S'255'
p1762
tp1763
a(S'MPI_Barrier()'
p1764
S'257'
p1765
tp1766
a(S'MPI_Wtime()'
p1767
S'259'
p1768
tp1769
a(S'MPI_Wtime()'
p1770
S'261'
p1771
tp1772
a(S'MPI_Reduce()'
p1773
S'262'
p1774
tp1775
a(S'MPI_Barrier()'
p1776
S'272'
p1777
tp1778
a(S'MPI_Wtime()'
p1779
S'273'
p1780
tp1781
a(S'MPI_Wtime()'
p1782
S'283'
p1783
tp1784
a(S'MPI_Reduce()'
p1785
S'284'
p1786
tp1787
a(S'MPI_Barrier()'
p1788
S'286'
p1789
tp1790
a(S'MPI_Wtime()'
p1791
S'288'
p1792
tp1793
a(S'MPI_Wtime()'
p1794
S'290'
p1795
tp1796
a(S'MPI_Reduce()'
p1797
S'291'
p1798
tp1799
a(S'MPI_Wtime()'
p1800
S'317'
p1801
tp1802
a(S'MPI_Wtime()'
p1803
S'319'
p1804
tp1805
a(S'MPI_Reduce()'
p1806
S'320'
p1807
tp1808
a(S'MPI_Wtime()'
p1809
S'323'
p1810
tp1811
a(S'MPI_Wtime()'
p1812
S'325'
p1813
tp1814
a(S'MPI_Reduce()'
p1815
S'326'
p1816
tp1817
a(S'MPI_Wtime()'
p1818
S'344'
p1819
tp1820
a(S'MPI_Wtime()'
p1821
S'346'
p1822
tp1823
a(S'MPI_Reduce()'
p1824
S'347'
p1825
tp1826
a(S'MPI_Wtime()'
p1827
S'350'
p1828
tp1829
a(S'MPI_Wtime()'
p1830
S'352'
p1831
tp1832
a(S'MPI_Reduce()'
p1833
S'353'
p1834
tp1835
a(S'MPI_Finalize()'
p1836
S'367'
p1837
tp1838
asS'raptor/examples/profile_tap_sas.cpp'
p1839
(lp1840
(S'MPI_Init()'
p1841
S'15'
p1842
tp1843
a(S'MPI_Comm_rank()'
p1844
S'17'
p1845
tp1846
a(S'MPI_Comm_size()'
p1847
S'18'
p1848
tp1849
a(S'MPI_Barrier()'
p1850
S'178'
p1851
tp1852
a(S'MPI_Barrier()'
p1853
S'186'
p1854
tp1855
a(S'MPI_Barrier()'
p1856
S'222'
p1857
tp1858
a(S'MPI_Barrier()'
p1859
S'230'
p1860
tp1861
a(S'MPI_Barrier()'
p1862
S'247'
p1863
tp1864
a(S'MPI_Barrier()'
p1865
S'254'
p1866
tp1867
a(S'MPI_Barrier()'
p1868
S'270'
p1869
tp1870
a(S'MPI_Barrier()'
p1871
S'280'
p1872
tp1873
a(S'MPI_Barrier()'
p1874
S'302'
p1875
tp1876
a(S'MPI_Barrier()'
p1877
S'311'
p1878
tp1879
a(S'MPI_Barrier()'
p1880
S'331'
p1881
tp1882
a(S'MPI_Barrier()'
p1883
S'339'
p1884
tp1885
a(S'MPI_Barrier()'
p1886
S'357'
p1887
tp1888
a(S'MPI_Barrier()'
p1889
S'365'
p1890
tp1891
a(S'MPI_Barrier()'
p1892
S'382'
p1893
tp1894
a(S'MPI_Barrier()'
p1895
S'392'
p1896
tp1897
a(S'MPI_Barrier()'
p1898
S'410'
p1899
tp1900
a(S'MPI_Barrier()'
p1901
S'420'
p1902
tp1903
a(S'MPI_Barrier()'
p1904
S'441'
p1905
tp1906
a(S'MPI_Barrier()'
p1907
S'452'
p1908
tp1909
a(S'MPI_Barrier()'
p1910
S'469'
p1911
tp1912
a(S'MPI_Barrier()'
p1913
S'480'
p1914
tp1915
a(S'MPI_Barrier()'
p1916
S'497'
p1917
tp1918
a(S'MPI_Barrier()'
p1919
S'508'
p1920
tp1921
a(S'MPI_Barrier()'
p1922
S'525'
p1923
tp1924
a(S'MPI_Barrier()'
p1925
S'536'
p1926
tp1927
a(S'MPI_Finalize()'
p1928
S'549'
p1929
tp1930
asS'raptor/raptor/krylov/tests/test_par_bicgstab_partial_inner_infile.cpp'
p1931
(lp1932
(S'MPI_Init()'
p1933
g7
tp1934
a(S'MPI_Comm_rank()'
p1935
S'11'
p1936
tp1937
a(S'MPI_Comm_size()'
p1938
S'12'
p1939
tp1940
a(S'MPI_Barrier()'
p1941
S'45'
p1942
tp1943
a(S'MPI_Barrier()'
p1944
S'55'
p1945
tp1946
a(S'MPI_Barrier()'
p1947
S'87'
p1948
tp1949
a(S'MPI_Barrier()'
p1950
S'96'
p1951
tp1952
a(S'MPI_Barrier()'
p1953
S'106'
p1954
tp1955
a(S'MPI_Comm_free()'
p1956
S'114'
p1957
tp1958
a(S'MPI_Comm_free()'
p1959
S'115'
p1960
tp1961
a(S'MPI_Finalize()'
p1962
S'119'
p1963
tp1964
asS'raptor/examples/benchmark_matmult.cpp'
p1965
(lp1966
(S'MPI_Init()'
p1967
S'26'
p1968
tp1969
a(S'MPI_Comm_rank()'
p1970
S'28'
p1971
tp1972
a(S'MPI_Comm_size()'
p1973
S'29'
p1974
tp1975
a(S'MPI_Barrier()'
p1976
S'121'
p1977
tp1978
a(S'MPI_Wtime()'
p1979
S'122'
p1980
tp1981
a(S'MPI_Wtime()'
p1982
S'124'
p1983
tp1984
a(S'MPI_Reduce()'
p1985
S'127'
p1986
tp1987
a(S'MPI_Finalize()'
p1988
S'133'
p1989
tp1990
asS'raptor/examples/profile_tap_spgemm.cpp'
p1991
(lp1992
(S'MPI_Init()'
p1993
S'31'
p1994
tp1995
a(S'MPI_Comm_rank()'
p1996
S'33'
p1997
tp1998
a(S'MPI_Comm_size()'
p1999
S'34'
p2000
tp2001
a(S'MPI_Barrier()'
p2002
S'168'
p2003
tp2004
a(S'MPI_Reduce()'
p2005
S'186'
p2006
tp2007
a(S'MPI_Reduce()'
p2008
S'192'
p2009
tp2010
a(S'MPI_Finalize()'
p2011
S'203'
p2012
tp2013
asS'raptor/raptor/krylov/tests/partial_inner_comm.hpp'
p2014
(lp2015
(S'MPI_Comm_rank()'
p2016
S'15'
p2017
tp2018
a(S'MPI_Comm_size()'
p2019
S'16'
p2020
tp2021
a(S'MPI_Comm_split()'
p2022
S'34'
p2023
tp2024
a(S'MPI_Comm_split()'
p2025
S'47'
p2026
tp2027
a(S'MPI_Comm_size()'
p2028
S'48'
p2029
tp2030
a(S'MPI_Comm_split()'
p2031
S'51'
p2032
tp2033
a(S'MPI_Comm_size()'
p2034
S'52'
p2035
tp2036
a(S'MPI_Comm_split()'
p2037
S'63'
p2038
tp2039
a(S'MPI_Comm_size()'
p2040
S'64'
p2041
tp2042
a(S'MPI_Comm_split()'
p2043
S'67'
p2044
tp2045
a(S'MPI_Comm_size()'
p2046
S'68'
p2047
tp2048
a(S'MPI_Comm_split()'
p2049
S'78'
p2050
tp2051
a(S'MPI_Comm_split()'
p2052
S'88'
p2053
tp2054
a(S'MPI_Comm_size()'
p2055
S'89'
p2056
tp2057
a(S'MPI_Comm_split()'
p2058
S'92'
p2059
tp2060
a(S'MPI_Comm_size()'
p2061
S'93'
p2062
tp2063
a(S'MPI_Comm_split()'
p2064
S'108'
p2065
tp2066
a(S'MPI_Comm_size()'
p2067
S'109'
p2068
tp2069
a(S'MPI_Comm_split()'
p2070
S'112'
p2071
tp2072
a(S'MPI_Comm_size()'
p2073
S'113'
p2074
tp2075
a(S'MPI_All_Reduce()'
p2076
S'120'
p2077
tp2078
asS'raptor/examples/benchmark_setup.cpp'
p2079
(lp2080
(S'MPI_Init()'
p2081
S'26'
p2082
tp2083
a(S'MPI_Comm_rank()'
p2084
S'28'
p2085
tp2086
a(S'MPI_Comm_size()'
p2087
S'29'
p2088
tp2089
a(S'MPI_Barrier()'
p2090
S'110'
p2091
tp2092
a(S'MPI_Wtime()'
p2093
S'111'
p2094
tp2095
a(S'MPI_Wtime()'
p2096
S'114'
p2097
tp2098
a(S'MPI_Barrier()'
p2099
S'119'
p2100
tp2101
a(S'MPI_Wtime()'
p2102
S'120'
p2103
tp2104
a(S'MPI_Wtime()'
p2105
S'123'
p2106
tp2107
a(S'MPI_Reduce()'
p2108
S'133'
p2109
tp2110
a(S'MPI_Reduce()'
p2111
S'145'
p2112
tp2113
a(S'MPI_Reduce()'
p2114
S'149'
p2115
tp2116
a(S'MPI_Allreduce()'
p2117
S'353'
p2118
tp2119
a(S'MPI_Allreduce()'
p2120
S'355'
p2121
tp2122
a(S'MPI_Allreduce()'
p2123
S'357'
p2124
tp2125
a(S'MPI_Allreduce()'
p2126
S'359'
p2127
tp2128
a(S'MPI_Barrier()'
p2129
S'382'
p2130
tp2131
a(S'MPI_Wtime()'
p2132
S'383'
p2133
tp2134
a(S'MPI_Reduce()'
p2135
S'390'
p2136
tp2137
a(S'MPI_Reduce()'
p2138
S'392'
p2139
tp2140
a(S'MPI_Reduce()'
p2141
S'394'
p2142
tp2143
a(S'MPI_Reduce()'
p2144
S'396'
p2145
tp2146
a(S'MPI_Finalize()'
p2147
S'404'
p2148
tp2149
asS'raptor/examples/profile_tap_rss.cpp'
p2150
(lp2151
(S'MPI_Init()'
p2152
S'15'
p2153
tp2154
a(S'MPI_Comm_rank()'
p2155
S'17'
p2156
tp2157
a(S'MPI_Comm_size()'
p2158
S'18'
p2159
tp2160
a(S'MPI_Barrier()'
p2161
S'178'
p2162
tp2163
a(S'MPI_Barrier()'
p2164
S'186'
p2165
tp2166
a(S'MPI_Barrier()'
p2167
S'221'
p2168
tp2169
a(S'MPI_Barrier()'
p2170
S'229'
p2171
tp2172
a(S'MPI_Barrier()'
p2173
S'245'
p2174
tp2175
a(S'MPI_Barrier()'
p2176
S'252'
p2177
tp2178
a(S'MPI_Barrier()'
p2179
S'268'
p2180
tp2181
a(S'MPI_Barrier()'
p2182
S'276'
p2183
tp2184
a(S'MPI_Barrier()'
p2185
S'294'
p2186
tp2187
a(S'MPI_Barrier()'
p2188
S'302'
p2189
tp2190
a(S'MPI_Barrier()'
p2191
S'318'
p2192
tp2193
a(S'MPI_Barrier()'
p2194
S'329'
p2195
tp2196
a(S'MPI_Barrier()'
p2197
S'347'
p2198
tp2199
a(S'MPI_Barrier()'
p2200
S'357'
p2201
tp2202
a(S'MPI_Barrier()'
p2203
S'375'
p2204
tp2205
a(S'MPI_Barrier()'
p2206
S'386'
p2207
tp2208
a(S'MPI_Barrier()'
p2209
S'403'
p2210
tp2211
a(S'MPI_Barrier()'
p2212
S'414'
p2213
tp2214
a(S'MPI_Barrier()'
p2215
S'431'
p2216
tp2217
a(S'MPI_Barrier()'
p2218
S'442'
p2219
tp2220
a(S'MPI_Barrier()'
p2221
S'459'
p2222
tp2223
a(S'MPI_Barrier()'
p2224
S'470'
p2225
tp2226
a(S'MPI_Finalize()'
p2227
S'483'
p2228
tp2229
asS'raptor/raptor/util/tests/test_par_spmv_random.cpp'
p2230
(lp2231
(S'MPI_Init()'
p2232
S'10'
p2233
tp2234
a(S'MPI_Finalize()'
p2235
S'13'
p2236
tp2237
a(S'MPI_Comm_rank()'
p2238
S'20'
p2239
tp2240
a(S'MPI_Comm_size()'
p2241
S'21'
p2242
tp2243
asS'raptor/raptor/core/tests/test_par_block_matrix.cpp'
p2244
(lp2245
(S'MPI_Init()'
p2246
S'36'
p2247
tp2248
a(S'MPI_Finalize()'
p2249
S'39'
p2250
tp2251
a(S'MPI_Comm_rank()'
p2252
S'47'
p2253
tp2254
a(S'MPI_Comm_size()'
p2255
S'48'
p2256
tp2257
asS'raptor/raptor/gallery/tests/test_par_matrix_market.cpp'
p2258
(lp2259
(S'MPI_Init()'
p2260
S'12'
p2261
tp2262
a(S'MPI_Finalize()'
p2263
S'15'
p2264
tp2265
a(S'MPI_Comm_rank()'
p2266
S'22'
p2267
tp2268
a(S'MPI_Comm_size()'
p2269
S'23'
p2270
tp2271
a(S'MPI_Barrier()'
p2272
S'30'
p2273
tp2274
a(S'MPI_Barrier()'
p2275
S'33'
p2276
tp2277
a(S'MPI_Barrier()'
p2278
S'36'
p2279
tp2280
asS'raptor/raptor/ruge_stuben/tests/test_par_rap.cpp'
p2281
(lp2282
(S'MPI_Init()'
p2283
S'11'
p2284
tp2285
a(S'MPI_Finalize()'
p2286
S'14'
p2287
tp2288
a(S'MPI_Comm_rank()'
p2289
S'21'
p2290
tp2291
a(S'MPI_Comm_size()'
p2292
S'22'
p2293
tp2294
asS'raptor/examples/benchmark_reader.cpp'
p2295
(lp2296
(S'MPI_Init()'
p2297
S'13'
p2298
tp2299
a(S'MPI_Comm_rank()'
p2300
S'15'
p2301
tp2302
a(S'MPI_Comm_size()'
p2303
S'16'
p2304
tp2305
a(S'MPI_Barrier()'
p2306
S'159'
p2307
tp2308
a(S'MPI_Wtime()'
p2309
S'160'
p2310
tp2311
a(S'MPI_Wtime()'
p2312
S'168'
p2313
tp2314
a(S'MPI_Reduce()'
p2315
S'169'
p2316
tp2317
a(S'MPI_Barrier()'
p2318
S'171'
p2319
tp2320
a(S'MPI_Wtime()'
p2321
S'173'
p2322
tp2323
a(S'MPI_Wtime()'
p2324
S'175'
p2325
tp2326
a(S'MPI_Reduce()'
p2327
S'176'
p2328
tp2329
a(S'MPI_Barrier()'
p2330
S'186'
p2331
tp2332
a(S'MPI_Wtime()'
p2333
S'187'
p2334
tp2335
a(S'MPI_Wtime()'
p2336
S'196'
p2337
tp2338
a(S'MPI_Reduce()'
p2339
S'197'
p2340
tp2341
a(S'MPI_Barrier()'
p2342
S'199'
p2343
tp2344
a(S'MPI_Wtime()'
p2345
S'201'
p2346
tp2347
a(S'MPI_Wtime()'
p2348
S'203'
p2349
tp2350
a(S'MPI_Reduce()'
p2351
S'204'
p2352
tp2353
a(S'MPI_Finalize()'
p2354
S'214'
p2355
tp2356
asS'raptor/raptor/tests/hypre_compare.hpp'
p2357
(lp2358
(S'MPI_Comm_rank()'
p2359
S'12'
p2360
tp2361
a(S'MPI_Comm_size()'
p2362
S'13'
p2363
tp2364
a(S'MPI_Allgather()'
p2365
S'31'
p2366
tp2367
a(S'MPI_Allgather()'
p2368
S'38'
p2369
tp2370
a(S'MPI_Comm_rank()'
p2371
S'81'
p2372
tp2373
a(S'MPI_Comm_size()'
p2374
S'82'
p2375
tp2376
a(S'MPI_Comm_rank()'
p2377
S'192'
p2378
tp2379
a(S'MPI_Comm_size()'
p2380
S'193'
p2381
tp2382
asS'raptor/raptor/krylov/tests/test_par_prebicgstab.cpp'
p2383
(lp2384
(S'MPI_Init()'
p2385
g7
tp2386
a(S'MPI_Comm_rank()'
p2387
S'11'
p2388
tp2389
a(S'MPI_Comm_size()'
p2390
S'12'
p2391
tp2392
a(S'MPI_Reduce()'
p2393
S'41'
p2394
tp2395
a(S'MPI_Reduce()'
p2396
S'51'
p2397
tp2398
a(S'MPI_Barrier()'
p2399
S'95'
p2400
tp2401
a(S'MPI_Finalize()'
p2402
S'102'
p2403
tp2404
asS'raptor/raptor/util/tests/test_par_spmv_laplacian.cpp'
p2405
(lp2406
(S'MPI_Init()'
p2407
S'10'
p2408
tp2409
a(S'MPI_Finalize()'
p2410
S'13'
p2411
tp2412
a(S'MPI_Comm_rank()'
p2413
S'20'
p2414
tp2415
a(S'MPI_Comm_size()'
p2416
S'21'
p2417
tp2418
asS'raptor/raptor/util/tests/test_tap_spmv_random.cpp'
p2419
(lp2420
(S'MPI_Init()'
p2421
S'10'
p2422
tp2423
a(S'MPI_Finalize()'
p2424
S'13'
p2425
tp2426
a(S'MPI_Comm_rank()'
p2427
S'20'
p2428
tp2429
a(S'MPI_Comm_size()'
p2430
S'21'
p2431
tp2432
asS'raptor/raptor/core/tests/test_par_matrix.cpp'
p2433
(lp2434
(S'MPI_Init()'
p2435
S'11'
p2436
tp2437
a(S'MPI_Finalize()'
p2438
S'14'
p2439
tp2440
a(S'MPI_Comm_rank()'
p2441
S'22'
p2442
tp2443
a(S'MPI_Comm_size()'
p2444
S'23'
p2445
tp2446
a(S'MPI_Allreduce()'
p2447
S'36'
p2448
tp2449
asS'raptor/raptor/util/tests/test_tap_spmv_aniso.cpp'
p2450
(lp2451
(S'MPI_Init()'
p2452
S'10'
p2453
tp2454
a(S'MPI_Finalize()'
p2455
S'13'
p2456
tp2457
a(S'MPI_Comm_rank()'
p2458
S'20'
p2459
tp2460
a(S'MPI_Comm_size()'
p2461
S'21'
p2462
tp2463
asS'raptor/raptor/core/tests/test_par_block_conversion.cpp'
p2464
(lp2465
(S'MPI_Init()'
p2466
S'11'
p2467
tp2468
a(S'MPI_Finalize()'
p2469
S'14'
p2470
tp2471
a(S'MPI_Comm_rank()'
p2472
S'22'
p2473
tp2474
a(S'MPI_Comm_size()'
p2475
S'23'
p2476
tp2477
asS'raptor/raptor/ruge_stuben/tests/test_tap_ruge_stuben.cpp'
p2478
(lp2479
(S'MPI_Init()'
p2480
S'14'
p2481
tp2482
a(S'MPI_Finalize()'
p2483
S'17'
p2484
tp2485
a(S'MPI_Comm_rank()'
p2486
S'24'
p2487
tp2488
a(S'MPI_Comm_size()'
p2489
S'25'
p2490
tp2491
a(S'MPI_Allgather()'
p2492
S'63'
p2493
tp2494
a(S'MPI_Allgather()'
p2495
S'78'
p2496
tp2497
a(S'MPI_Allgather()'
p2498
S'112'
p2499
tp2500
asS'raptor/examples/benchmark_pcg.cpp'
p2501
(lp2502
(S'MPI_Init()'
p2503
S'15'
p2504
tp2505
a(S'MPI_Comm_rank()'
p2506
S'17'
p2507
tp2508
a(S'MPI_Comm_size()'
p2509
S'18'
p2510
tp2511
a(S'MPI_Barrier()'
p2512
S'162'
p2513
tp2514
a(S'MPI_Wtime()'
p2515
S'163'
p2516
tp2517
a(S'MPI_Wtime()'
p2518
S'167'
p2519
tp2520
a(S'MPI_Reduce()'
p2521
S'168'
p2522
tp2523
a(S'MPI_Barrier()'
p2524
S'170'
p2525
tp2526
a(S'MPI_Wtime()'
p2527
S'172'
p2528
tp2529
a(S'MPI_Wtime()'
p2530
S'178'
p2531
tp2532
a(S'MPI_Reduce()'
p2533
S'179'
p2534
tp2535
a(S'MPI_Reduce()'
p2536
S'181'
p2537
tp2538
a(S'MPI_Reduce()'
p2539
S'183'
p2540
tp2541
a(S'MPI_Wtime()'
p2542
S'191'
p2543
tp2544
a(S'MPI_Wtime()'
p2545
S'196'
p2546
tp2547
a(S'MPI_Reduce()'
p2548
S'197'
p2549
tp2550
a(S'MPI_Reduce()'
p2551
S'199'
p2552
tp2553
a(S'MPI_Finalize()'
p2554
S'208'
p2555
tp2556
asS'raptor/raptor/external/tests/test_trilinos_wrapper.cpp'
p2557
(lp2558
(S'MPI_Init()'
p2559
S'12'
p2560
tp2561
a(S'MPI_Finalize()'
p2562
S'15'
p2563
tp2564
a(S'MPI_Comm_rank()'
p2565
S'23'
p2566
tp2567
a(S'MPI_Comm_size()'
p2568
S'24'
p2569
tp2570
asS'raptor/raptor/krylov/tests/test_par_bicgstab_partial_inner_laplacian.cpp'
p2571
(lp2572
(S'MPI_Init()'
p2573
g7
tp2574
a(S'MPI_Comm_rank()'
p2575
S'11'
p2576
tp2577
a(S'MPI_Comm_size()'
p2578
S'12'
p2579
tp2580
a(S'MPI_Barrier()'
p2581
S'43'
p2582
tp2583
a(S'MPI_Barrier()'
p2584
S'52'
p2585
tp2586
a(S'MPI_Barrier()'
p2587
S'78'
p2588
tp2589
a(S'MPI_Barrier()'
p2590
S'85'
p2591
tp2592
a(S'MPI_Comm_free()'
p2593
S'87'
p2594
tp2595
a(S'MPI_Comm_free()'
p2596
S'88'
p2597
tp2598
a(S'MPI_Finalize()'
p2599
S'93'
p2600
tp2601
asS'raptor/examples/benchmark_spmv_overlap.cpp'
p2602
(lp2603
(S'MPI_Init()'
p2604
S'15'
p2605
tp2606
a(S'MPI_Comm_rank()'
p2607
S'17'
p2608
tp2609
a(S'MPI_Comm_size()'
p2610
S'18'
p2611
tp2612
a(S'MPI_Barrier()'
p2613
S'178'
p2614
tp2615
a(S'MPI_Wtime()'
p2616
S'179'
p2617
tp2618
a(S'MPI_Reduce()'
p2619
S'187'
p2620
tp2621
a(S'MPI_Barrier()'
p2622
S'199'
p2623
tp2624
a(S'MPI_Wtime()'
p2625
S'200'
p2626
tp2627
a(S'MPI_Reduce()'
p2628
S'209'
p2629
tp2630
a(S'MPI_Finalize()'
p2631
S'217'
p2632
tp2633
asS'raptor/examples/benchmark_spgemm_overlap.cpp'
p2634
(lp2635
(S'MPI_Init()'
p2636
S'15'
p2637
tp2638
a(S'MPI_Comm_rank()'
p2639
S'17'
p2640
tp2641
a(S'MPI_Comm_size()'
p2642
S'18'
p2643
tp2644
a(S'MPI_Barrier()'
p2645
S'194'
p2646
tp2647
a(S'MPI_Wtime()'
p2648
S'195'
p2649
tp2650
a(S'MPI_Reduce()'
p2651
S'208'
p2652
tp2653
a(S'MPI_Barrier()'
p2654
S'229'
p2655
tp2656
a(S'MPI_Wtime()'
p2657
S'230'
p2658
tp2659
a(S'MPI_Reduce()'
p2660
S'243'
p2661
tp2662
a(S'MPI_Finalize()'
p2663
S'253'
p2664
tp2665
asS'raptor/examples/benchmark_tap_spgemm.cpp'
p2666
(lp2667
(S'MPI_Comm_rank()'
p2668
S'31'
p2669
tp2670
a(S'MPI_Reduce()'
p2671
S'34'
p2672
tp2673
a(S'MPI_Reduce()'
p2674
S'36'
p2675
tp2676
a(S'MPI_Comm_rank()'
p2677
S'43'
p2678
tp2679
a(S'MPI_Reduce()'
p2680
S'46'
p2681
tp2682
a(S'MPI_Allreduce()'
p2683
S'48'
p2684
tp2685
a(S'MPI_Barrier()'
p2686
S'65'
p2687
tp2688
a(S'MPI_Barrier()'
p2689
S'102'
p2690
tp2691
a(S'MPI_Init()'
p2692
S'124'
p2693
tp2694
a(S'MPI_Comm_rank()'
p2695
S'126'
p2696
tp2697
a(S'MPI_Comm_size()'
p2698
S'127'
p2699
tp2700
a(S'MPI_Barrier()'
p2701
S'261'
p2702
tp2703
a(S'MPI_Reduce()'
p2704
S'275'
p2705
tp2706
a(S'MPI_Reduce()'
p2707
S'276'
p2708
tp2709
a(S'MPI_Reduce()'
p2710
S'308'
p2711
tp2712
a(S'MPI_Finalize()'
p2713
S'340'
p2714
tp2715
asS'raptor/raptor/krylov/partial_inner.cpp'
p2716
(lp2717
(S'MPI_Comm_split()'
p2718
S'60'
p2719
tp2720
a(S'MPI_Comm_split()'
p2721
S'64'
p2722
tp2723
asS'raptor/raptor/core/tests/test_tap_comm.cpp'
p2724
(lp2725
(S'MPI_Init()'
p2726
S'12'
p2727
tp2728
a(S'MPI_Finalize()'
p2729
S'15'
p2730
tp2731
a(S'MPI_Comm_rank()'
p2732
S'22'
p2733
tp2734
a(S'MPI_Comm_size()'
p2735
S'23'
p2736
tp2737
asS'raptor/raptor/aggregation/tests/test_tap_prolongation.cpp'
p2738
(lp2739
(S'MPI_Init()'
p2740
S'14'
p2741
tp2742
a(S'MPI_Finalize()'
p2743
S'17'
p2744
tp2745
a(S'MPI_Comm_rank()'
p2746
S'24'
p2747
tp2748
a(S'MPI_Comm_size()'
p2749
S'25'
p2750
tp2751
asS'raptor/examples/benchmark_solve.cpp'
p2752
(lp2753
(S'MPI_Init()'
p2754
S'26'
p2755
tp2756
a(S'MPI_Comm_rank()'
p2757
S'28'
p2758
tp2759
a(S'MPI_Comm_size()'
p2760
S'29'
p2761
tp2762
a(S'MPI_Barrier()'
p2763
S'110'
p2764
tp2765
a(S'MPI_Wtime()'
p2766
S'111'
p2767
tp2768
a(S'MPI_Wtime()'
p2769
S'114'
p2770
tp2771
a(S'MPI_Barrier()'
p2772
S'120'
p2773
tp2774
a(S'MPI_Wtime()'
p2775
S'121'
p2776
tp2777
a(S'MPI_Wtime()'
p2778
S'124'
p2779
tp2780
a(S'MPI_Reduce()'
p2781
S'136'
p2782
tp2783
a(S'MPI_Reduce()'
p2784
S'148'
p2785
tp2786
a(S'MPI_Reduce()'
p2787
S'150'
p2788
tp2789
a(S'MPI_Allreduce()'
p2790
S'273'
p2791
tp2792
a(S'MPI_Allreduce()'
p2793
S'275'
p2794
tp2795
a(S'MPI_Allreduce()'
p2796
S'277'
p2797
tp2798
a(S'MPI_Allreduce()'
p2799
S'279'
p2800
tp2801
a(S'MPI_Reduce()'
p2802
S'292'
p2803
tp2804
a(S'MPI_Barrier()'
p2805
S'296'
p2806
tp2807
a(S'MPI_Wtime()'
p2808
S'297'
p2809
tp2810
a(S'MPI_Reduce()'
p2811
S'303'
p2812
tp2813
a(S'MPI_Finalize()'
p2814
S'311'
p2815
tp2816
asS'raptor/raptor/util/tests/test_repartition.cpp'
p2817
(lp2818
(S'MPI_Init()'
p2819
S'11'
p2820
tp2821
a(S'MPI_Finalize()'
p2822
S'15'
p2823
tp2824
a(S'MPI_Comm_rank()'
p2825
S'23'
p2826
tp2827
a(S'MPI_Comm_size()'
p2828
S'24'
p2829
tp2830
a(S'MPI_Allgather()'
p2831
S'59'
p2832
tp2833
a(S'X_MPI_INT()'
p2834
S'60'
p2835
tp2836
a(S'MPI_Gatherv()'
p2837
S'65'
p2838
tp2839
a(S'X_MPI_DOUBLE()'
p2840
S'67'
p2841
tp2842
a(S'MPI_Allgather()'
p2843
S'70'
p2844
tp2845
a(S'X_MPI_INT()'
p2846
S'71'
p2847
tp2848
a(S'MPI_Gatherv()'
p2849
S'76'
p2850
tp2851
a(S'X_MPI_DOUBLE()'
p2852
S'78'
p2853
tp2854
a(S'MPI_Gatherv()'
p2855
S'80'
p2856
tp2857
a(S'X_MPI_INT()'
p2858
S'82'
p2859
tp2860
asS'raptor/raptor/external/tests/test_petsc_wrapper.cpp'
p2861
(lp2862
(S'MPI_Init()'
p2863
S'12'
p2864
tp2865
a(S'MPI_Finalize()'
p2866
S'17'
p2867
tp2868
a(S'MPI_Comm_rank()'
p2869
S'26'
p2870
tp2871
a(S'MPI_Comm_size()'
p2872
S'27'
p2873
tp2874
asS'raptor/raptor/aggregation/tests/test_par_candidates.cpp'
p2875
(lp2876
(S'MPI_Init()'
p2877
S'14'
p2878
tp2879
a(S'MPI_Finalize()'
p2880
S'17'
p2881
tp2882
a(S'MPI_Comm_rank()'
p2883
S'24'
p2884
tp2885
a(S'MPI_Comm_size()'
p2886
S'25'
p2887
tp2888
a(S'MPI_Allgather()'
p2889
S'64'
p2890
tp2891
asS'raptor/raptor/core/tests/test_par_bsr.cpp'
p2892
(lp2893
(S'MPI_Init()'
p2894
S'11'
p2895
tp2896
a(S'MPI_Finalize()'
p2897
S'14'
p2898
tp2899
a(S'MPI_Comm_rank()'
p2900
S'22'
p2901
tp2902
a(S'MPI_Comm_size()'
p2903
S'23'
p2904
tp2905
a(S'MPI_Allreduce()'
p2906
S'61'
p2907
tp2908
a(S'MPI_Allreduce()'
p2909
S'67'
p2910
tp2911
asS'raptor/examples/benchmark_amg.cpp'
p2912
(lp2913
(S'MPI_Init()'
p2914
S'15'
p2915
tp2916
a(S'MPI_Comm_rank()'
p2917
S'17'
p2918
tp2919
a(S'MPI_Comm_size()'
p2920
S'18'
p2921
tp2922
a(S'MPI_Barrier()'
p2923
S'155'
p2924
tp2925
a(S'MPI_Wtime()'
p2926
S'161'
p2927
tp2928
a(S'MPI_Wtime()'
p2929
S'163'
p2930
tp2931
a(S'MPI_Reduce()'
p2932
S'164'
p2933
tp2934
a(S'MPI_Barrier()'
p2935
S'169'
p2936
tp2937
a(S'MPI_Wtime()'
p2938
S'171'
p2939
tp2940
a(S'MPI_Wtime()'
p2941
S'173'
p2942
tp2943
a(S'MPI_Reduce()'
p2944
S'174'
p2945
tp2946
a(S'MPI_Wtime()'
p2947
S'187'
p2948
tp2949
a(S'MPI_Wtime()'
p2950
S'189'
p2951
tp2952
a(S'MPI_Reduce()'
p2953
S'190'
p2954
tp2955
a(S'MPI_Wtime()'
p2956
S'196'
p2957
tp2958
a(S'MPI_Wtime()'
p2959
S'198'
p2960
tp2961
a(S'MPI_Reduce()'
p2962
S'199'
p2963
tp2964
a(S'MPI_Finalize()'
p2965
S'207'
p2966
tp2967
asS'raptor//README.md'
p2968
(lp2969
(S'MPI_Init()'
p2970
S'107'
p2971
tp2972
a(S'MPI_Comm_rank()'
p2973
S'108'
p2974
tp2975
a(S'MPI_Comm_size()'
p2976
S'109'
p2977
tp2978
a(S'MPI_Barrier()'
p2979
S'151'
p2980
tp2981
a(S'MPI_Wtime()'
p2982
S'152'
p2983
tp2984
a(S'MPI_Reduce()'
p2985
S'167'
p2986
tp2987
a(S'MPI_Barrier()'
p2988
S'172'
p2989
tp2990
a(S'MPI_Wtime()'
p2991
S'173'
p2992
tp2993
a(S'MPI_Wtime()'
p2994
S'175'
p2995
tp2996
a(S'MPI_Reduce()'
p2997
S'177'
p2998
tp2999
a(S'MPI_Reduce()'
p3000
S'179'
p3001
tp3002
a(S'MPI_Finalize()'
p3003
S'185'
p3004
tp3005
asS'raptor/raptor/util/tests/test_par_spmv_aniso.cpp'
p3006
(lp3007
(S'MPI_Init()'
p3008
S'10'
p3009
tp3010
a(S'MPI_Finalize()'
p3011
S'13'
p3012
tp3013
a(S'MPI_Comm_rank()'
p3014
S'20'
p3015
tp3016
a(S'MPI_Comm_size()'
p3017
S'21'
p3018
tp3019
asS'raptor/raptor/core/tests/test_par_transpose.cpp'
p3020
(lp3021
(S'MPI_Init()'
p3022
S'12'
p3023
tp3024
a(S'MPI_Finalize()'
p3025
S'15'
p3026
tp3027
a(S'MPI_Comm_rank()'
p3028
S'23'
p3029
tp3030
a(S'MPI_Comm_size()'
p3031
S'24'
p3032
tp3033
asS'raptor/raptor/aggregation/tests/test_par_smoothed_aggregation.cpp'
p3034
(lp3035
(S'MPI_Init()'
p3036
S'14'
p3037
tp3038
a(S'MPI_Finalize()'
p3039
S'17'
p3040
tp3041
a(S'MPI_Comm_rank()'
p3042
S'24'
p3043
tp3044
a(S'MPI_Comm_size()'
p3045
S'25'
p3046
tp3047
a(S'MPI_Allgather()'
p3048
S'133'
p3049
tp3050
a(S'MPI_Allgatherv()'
p3051
S'148'
p3052
tp3053
a(S'MPI_Allgather()'
p3054
S'161'
p3055
tp3056
a(S'MPI_Allgather()'
p3057
S'267'
p3058
tp3059
a(S'MPI_Allgatherv()'
p3060
S'283'
p3061
tp3062
a(S'MPI_Allgather()'
p3063
S'296'
p3064
tp3065
asS'raptor/examples/matop_example.cpp'
p3066
(lp3067
(S'MPI_Init()'
p3068
S'17'
p3069
tp3070
a(S'MPI_Comm_rank()'
p3071
S'18'
p3072
tp3073
a(S'MPI_Comm_size()'
p3074
S'19'
p3075
tp3076
a(S'MPI_Finalize()'
p3077
S'107'
p3078
tp3079
asS'raptor/raptor/ruge_stuben/tests/test_tap_rap.cpp'
p3080
(lp3081
(S'MPI_Init()'
p3082
S'11'
p3083
tp3084
a(S'MPI_Finalize()'
p3085
S'14'
p3086
tp3087
a(S'MPI_Comm_rank()'
p3088
S'23'
p3089
tp3090
a(S'MPI_Comm_size()'
p3091
S'24'
p3092
tp3093
asS'raptor/raptor/core/tests/test_par_comm.cpp'
p3094
(lp3095
(S'MPI_Init()'
p3096
S'12'
p3097
tp3098
a(S'MPI_Finalize()'
p3099
S'15'
p3100
tp3101
a(S'MPI_Comm_rank()'
p3102
S'22'
p3103
tp3104
a(S'MPI_Comm_size()'
p3105
S'23'
p3106
tp3107
asS'raptor/examples/benchmark_nek5000.cpp'
p3108
(lp3109
(S'MPI_Init()'
p3110
S'18'
p3111
tp3112
a(S'MPI_Comm_rank()'
p3113
S'20'
p3114
tp3115
a(S'MPI_Comm_size()'
p3116
S'21'
p3117
tp3118
a(S'MPI_Barrier()'
p3119
S'76'
p3120
tp3121
a(S'MPI_Wtime()'
p3122
S'77'
p3123
tp3124
a(S'MPI_Wtime()'
p3125
S'81'
p3126
tp3127
a(S'MPI_Barrier()'
p3128
S'85'
p3129
tp3130
a(S'MPI_Wtime()'
p3131
S'86'
p3132
tp3133
a(S'MPI_Wtime()'
p3134
S'88'
p3135
tp3136
a(S'MPI_Barrier()'
p3137
S'96'
p3138
tp3139
a(S'MPI_Wtime()'
p3140
S'97'
p3141
tp3142
a(S'MPI_Wtime()'
p3143
S'100'
p3144
tp3145
a(S'MPI_Barrier()'
p3146
S'106'
p3147
tp3148
a(S'MPI_Wtime()'
p3149
S'107'
p3150
tp3151
a(S'MPI_Wtime()'
p3152
S'109'
p3153
tp3154
a(S'MPI_Barrier()'
p3155
S'115'
p3156
tp3157
a(S'MPI_Wtime()'
p3158
S'116'
p3159
tp3160
a(S'MPI_Wtime()'
p3161
S'118'
p3162
tp3163
a(S'MPI_Reduce()'
p3164
S'128'
p3165
tp3166
a(S'MPI_Reduce()'
p3167
S'137'
p3168
tp3169
a(S'MPI_Reduce()'
p3170
S'139'
p3171
tp3172
a(S'MPI_Reduce()'
p3173
S'142'
p3174
tp3175
a(S'MPI_Reduce()'
p3176
S'144'
p3177
tp3178
a(S'MPI_Reduce()'
p3179
S'146'
p3180
tp3181
a(S'MPI_Finalize()'
p3182
S'156'
p3183
tp3184
as.