ccollections
defaultdict
p0
(c__builtin__
list
p1
tp2
Rp3
S'OpenMPI/ParallelPoissonSolver/printGrids.c'
p4
(lp5
(S'MPI_Barrier()'
p6
S'48'
p7
tp8
a(S'MPI_Barrier()'
p9
S'72'
p10
tp11
a(S'MPI_Barrier()'
p12
S'84'
p13
tp14
a(S'MPI_Barrier()'
p15
S'86'
p16
tp17
a(S'MPI_Barrier()'
p18
S'88'
p19
tp20
a(S'MPI_Barrier()'
p21
S'90'
p22
tp23
a(S'MPI_Barrier()'
p24
S'95'
p25
tp26
a(S'MPI_Comm_rank()'
p27
S'108'
p28
tp29
a(S'MPI_Comm_size()'
p30
S'109'
p31
tp32
a(S'MPI_Barrier()'
p33
S'110'
p34
tp35
a(S'MPI_Barrier()'
p36
S'112'
p37
tp38
a(S'MPI_Barrier()'
p39
S'123'
p40
tp41
a(S'MPI_Barrier()'
p42
S'127'
p43
tp44
a(S'MPI_Barrier()'
p45
S'136'
p46
tp47
a(S'MPI_Barrier()'
p48
S'153'
p49
tp50
a(S'MPI_Barrier()'
p51
S'160'
p52
tp53
a(S'MPI_Barrier()'
p54
S'177'
p55
tp56
asS'OpenMPI/BasicMPI_Exercises/2decompose.c'
p57
(lp58
(S'MPI_Init()'
p59
S'43'
p60
tp61
a(S'MPI_Comm_rank()'
p62
S'44'
p63
tp64
a(S'MPI_Comm_size()'
p65
S'45'
p66
tp67
a(S'MPI_Finalize()'
p68
S'58'
p69
tp70
asS'OpenMPI/Cartesian/main.c'
p71
(lp72
(S'MPI_Bcast()'
p73
S'58'
p74
tp75
a(S'MPI_Barrier()'
p76
S'71'
p77
tp78
a(S'MPI_Barrier()'
p79
S'81'
p80
tp81
a(S'MPI_Barrier()'
p82
S'82'
p83
tp84
a(S'MPI_Finalize()'
p85
S'92'
p86
tp87
asS'OpenMPI/BasicMPI_Exercises/6dotcoll.c'
p88
(lp89
(S'MPI_Init()'
p90
S'30'
p91
tp92
a(S'MPI_Comm_rank()'
p93
S'31'
p94
tp95
a(S'MPI_Comm_size()'
p96
S'32'
p97
tp98
a(S'MPI_Barrier()'
p99
S'56'
p100
tp101
a(S'MPI_Scatter()'
p102
S'62'
p103
tp104
a(S'MPI_Scatter()'
p105
S'63'
p106
tp107
a(S'MPI_Reduce()'
p108
S'73'
p109
tp110
a(S'MPI_Finalize()'
p111
S'88'
p112
tp113
asS'OpenMPI/Cartesian/shift.c'
p114
(lp115
(S'MPI_Cart_coords()'
p116
S'42'
p117
tp118
a(S'MPI_Type_vector()'
p119
S'106'
p120
tp121
a(S'MPI_Type_vector()'
p122
S'112'
p123
tp124
a(S'MPI_Type_vector()'
p125
S'118'
p126
tp127
a(S'MPI_Type_commit()'
p128
S'120'
p129
tp130
a(S'MPI_Cart_shift()'
p131
S'304'
p132
tp133
a(S'MPI_Cart_shift()'
p134
S'305'
p135
tp136
a(S'MPI_Barrier()'
p137
S'317'
p138
tp139
a(S'MPI_Sendrecv()'
p140
S'321'
p141
tp142
a(S'MPI_Send()'
p143
S'328'
p144
tp145
a(S'MPI_Recv()'
p146
S'335'
p147
tp148
a(S'MPI_Cart_shift()'
p149
S'343'
p150
tp151
a(S'MPI_Cart_shift()'
p152
S'344'
p153
tp154
a(S'MPI_Barrier()'
p155
S'356'
p156
tp157
a(S'MPI_Sendrecv()'
p158
S'360'
p159
tp160
a(S'MPI_Send()'
p161
S'367'
p162
tp163
a(S'MPI_Recv()'
p164
S'374'
p165
tp166
a(S'MPI_Sendrecv()'
p167
S'391'
p168
tp169
a(S'MPI_Sendrecv()'
p170
S'406'
p171
tp172
a(S'MPI_Cart_shift()'
p173
S'420'
p174
tp175
a(S'MPI_Cart_shift()'
p176
S'421'
p177
tp178
a(S'MPI_Sendrecv()'
p179
S'437'
p180
tp181
a(S'MPI_Send()'
p182
S'444'
p183
tp184
a(S'MPI_Recv()'
p185
S'452'
p186
tp187
a(S'MPI_Cart_shift()'
p188
S'462'
p189
tp190
a(S'MPI_Cart_shift()'
p191
S'463'
p192
tp193
a(S'MPI_Sendrecv()'
p194
S'479'
p195
tp196
a(S'MPI_Send()'
p197
S'486'
p198
tp199
a(S'MPI_Recv()'
p200
S'494'
p201
tp202
asS'OpenMPI/BasicMPI_Exercises/4euc_norm_fully_avail.c'
p203
(lp204
(S'MPI_Init()'
p205
S'58'
p206
tp207
a(S'MPI_Comm_rank()'
p208
S'59'
p209
tp210
a(S'MPI_Comm_size()'
p211
S'60'
p212
tp213
a(S'MPI_Bcast()'
p214
S'68'
p215
tp216
a(S'MPI_Gather()'
p217
S'73'
p218
tp219
a(S'MPI_Send()'
p220
S'80'
p221
tp222
a(S'MPI_Send()'
p223
S'82'
p224
tp225
a(S'MPI_Recv()'
p226
S'86'
p227
tp228
a(S'MPI_Allreduce()'
p229
S'93'
p230
tp231
a(S'MPI_Finalize()'
p232
S'107'
p233
tp234
asS'OpenMPI/BasicMPI_Exercises/5space_efficient.c'
p235
(lp236
(S'MPI_Init()'
p237
S'38'
p238
tp239
a(S'MPI_Comm_rank()'
p240
S'39'
p241
tp242
a(S'MPI_Comm_size()'
p243
S'40'
p244
tp245
a(S'MPI_Bcast()'
p246
S'47'
p247
tp248
a(S'MPI_Reduce()'
p249
S'56'
p250
tp251
a(S'MPI_Finalize()'
p252
S'68'
p253
tp254
asS'OpenMPI/ParallelPoissonSolver/jacobi.c'
p255
(lp256
(S'MPI_Sendrecv()'
p257
S'42'
p258
tp259
a(S'MPI_Sendrecv()'
p260
S'45'
p261
tp262
a(S'MPI_Sendrecv()'
p263
S'54'
p264
tp265
a(S'MPI_Sendrecv()'
p266
S'57'
p267
tp268
asS'OpenMPI/BasicMPI_Exercises/3euc_norm.c'
p269
(lp270
(S'MPI_Init()'
p271
S'58'
p272
tp273
a(S'MPI_Comm_rank()'
p274
S'59'
p275
tp276
a(S'MPI_Comm_size()'
p277
S'60'
p278
tp279
a(S'MPI_Bcast()'
p280
S'68'
p281
tp282
a(S'MPI_Gather()'
p283
S'73'
p284
tp285
a(S'MPI_Send()'
p286
S'80'
p287
tp288
a(S'MPI_Send()'
p289
S'82'
p290
tp291
a(S'MPI_Recv()'
p292
S'86'
p293
tp294
a(S'MPI_Reduce()'
p295
S'93'
p296
tp297
a(S'MPI_Finalize()'
p298
S'110'
p299
tp300
asS'OpenMPI/Cartesian/mpisetup.c'
p301
(lp302
(S'MPI_Init()'
p303
S'17'
p304
tp305
a(S'MPI_Comm_rank()'
p306
S'18'
p307
tp308
a(S'MPI_Comm_size()'
p309
S'19'
p310
tp311
a(S'MPI_Cart_create()'
p312
S'30'
p313
tp314
asS'OpenMPI/BasicMPI_Exercises/1-2vec_ed_coll.c'
p315
(lp316
(S'MPI_Init()'
p317
S'55'
p318
tp319
a(S'MPI_Comm_rank()'
p320
S'56'
p321
tp322
a(S'MPI_Comm_size()'
p323
S'57'
p324
tp325
a(S'MPI_Bcast()'
p326
S'68'
p327
tp328
a(S'MPI_Scatter()'
p329
S'70'
p330
tp331
a(S'MPI_Barrier()'
p332
S'76'
p333
tp334
a(S'MPI_Gather()'
p335
S'77'
p336
tp337
a(S'MPI_Finalize()'
p338
S'87'
p339
tp340
asS'OpenMPI/BasicMPI_Exercises/1-1vec_ed.c'
p341
(lp342
(S'MPI_Init()'
p343
S'56'
p344
tp345
a(S'MPI_Comm_rank()'
p346
S'57'
p347
tp348
a(S'MPI_Comm_size()'
p349
S'58'
p350
tp351
a(S'MPI_Recv()'
p352
S'82'
p353
tp354
a(S'MPI_Recv()'
p355
S'84'
p356
tp357
a(S'MPI_Send()'
p358
S'88'
p359
tp360
a(S'MPI_Finalize()'
p361
S'93'
p362
tp363
a(S'MPI_Send()'
p364
S'137'
p365
tp366
a(S'MPI_Send()'
p367
S'138'
p368
tp369
a(S'MPI_Recv()'
p370
S'169'
p371
tp372
asS'OpenMPI/ParallelPoissonSolver/main.c'
p373
(lp374
(S'MPI_Init()'
p375
S'41'
p376
tp377
a(S'MPI_Comm_rank()'
p378
S'42'
p379
tp380
a(S'MPI_Comm_size()'
p381
S'43'
p382
tp383
a(S'MPI_Cart_create()'
p384
S'73'
p385
tp386
a(S'MPI_Cart_shift()'
p387
S'74'
p388
tp389
a(S'MPI_Cart_shift()'
p390
S'75'
p391
tp392
a(S'MPI_Type_vector()'
p393
S'89'
p394
tp395
a(S'MPI_Type_commit()'
p396
S'90'
p397
tp398
a(S'MPI_Allreduce()'
p399
S'113'
p400
tp401
a(S'MPI_Finalize()'
p402
S'144'
p403
tp404
as.