ccollections
defaultdict
p0
(c__builtin__
list
p1
tp2
Rp3
S'University/.git/logs/refs/heads/master'
p4
(lp5
(S'MPI_Init()'
p6
S'43'
p7
tp8
a(S'MPI_Comm_size()'
p9
S'44'
p10
tp11
a(S'MPI_Comm_rank()'
p12
S'45'
p13
tp14
a(S'MPI_Finalize()'
p15
S'94'
p16
tp17
a(S'MPI_Init()'
p18
S'48'
p19
tp20
a(S'MPI_Comm_size()'
p21
S'49'
p22
tp23
a(S'MPI_Comm_rank()'
p24
S'50'
p25
tp26
a(S'MPI_Barrier()'
p27
S'107'
p28
tp29
a(S'MPI_Finalize()'
p30
S'123'
p31
tp32
a(S'MPI_Init()'
p33
S'44'
p34
tp35
a(S'MPI_Comm_size()'
p36
S'45'
p37
tp38
a(S'MPI_Comm_rank()'
p39
S'46'
p40
tp41
a(S'MPI_Finalize()'
p42
S'97'
p43
tp44
a(S'MPI_Init()'
p45
S'43'
p46
tp47
a(S'MPI_Comm_size()'
p48
S'44'
p49
tp50
a(S'MPI_Comm_rank()'
p51
S'45'
p52
tp53
a(S'MPI_Finalize()'
p54
S'94'
p55
tp56
a(S'MPI_Comm_size()'
p57
S'42'
p58
tp59
a(S'MPI_Comm_rank()'
p60
S'46'
p61
tp62
a(S'MPI_Bcast()'
p63
S'80'
p64
tp65
a(S'MPI_Comm_size()'
p66
S'115'
p67
tp68
a(S'MPI_Comm_rank()'
p69
S'118'
p70
tp71
a(S'MPI_Send()'
p72
S'143'
p73
tp74
a(S'MPI_Bcast()'
p75
S'150'
p76
tp77
a(S'MPI_Recv()'
p78
S'166'
p79
tp80
a(S'MPI_Send()'
p81
S'171'
p82
tp83
a(S'MPI_Send()'
p84
S'176'
p85
tp86
a(S'MPI_Recv()'
p87
S'179'
p88
tp89
a(S'MPI_Barrier()'
p90
S'193'
p91
tp92
a(S'MPI_Send()'
p93
S'205'
p94
tp95
a(S'MPI_Recv()'
p96
S'210'
p97
tp98
a(S'MPI_Recv()'
p99
S'229'
p100
tp101
a(S'MPI_Comm_size()'
p102
S'275'
p103
tp104
a(S'MPI_Comm_rank()'
p105
S'278'
p106
tp107
a(S'MPI_Send()'
p108
S'305'
p109
tp110
a(S'MPI_Recv()'
p111
S'308'
p112
tp113
a(S'MPI_Bcast()'
p114
S'312'
p115
tp116
a(S'MPI_Send()'
p117
S'326'
p118
tp119
a(S'MPI_Send()'
p120
S'327'
p121
tp122
a(S'MPI_Recv()'
p123
S'329'
p124
tp125
a(S'MPI_Recv()'
p126
S'337'
p127
tp128
a(S'MPI_Recv()'
p129
S'340'
p130
tp131
a(S'MPI_Send()'
p132
S'343'
p133
tp134
a(S'MPI_Barrier()'
p135
S'349'
p136
tp137
a(S'MPI_Bcast()'
p138
S'350'
p139
tp140
a(S'MPI_Comm_rank()'
p141
S'356'
p142
tp143
a(S'MPI_Barrier()'
p144
S'357'
p145
tp146
a(S'MPI_Barrier()'
p147
S'361'
p148
tp149
a(S'MPI_Barrier()'
p150
S'363'
p151
tp152
a(S'MPI_Barrier()'
p153
S'365'
p154
tp155
a(S'MPI_Barrier()'
p156
S'367'
p157
tp158
a(S'MPI_Barrier()'
p159
S'372'
p160
tp161
a(S'MPI_Barrier()'
p162
S'374'
p163
tp164
a(S'MPI_Barrier()'
p165
S'376'
p166
tp167
a(S'MPI_Barrier()'
p168
S'379'
p169
tp170
a(S'MPI_multVector()'
p171
S'390'
p172
tp173
a(S'MPI_Bcast()'
p174
S'448'
p175
tp176
a(S'MPI_Barrier()'
p177
S'484'
p178
tp179
a(S'MPI_Barrier()'
p180
S'487'
p181
tp182
a(S'MPI_Comm_size()'
p183
S'530'
p184
tp185
a(S'MPI_Comm_rank()'
p186
S'535'
p187
tp188
a(S'MPI_Bcast()'
p189
S'549'
p190
tp191
a(S'MPI_Bcast()'
p192
S'550'
p193
tp194
a(S'MPI_Gather()'
p195
S'568'
p196
tp197
a(S'MPI_Bcast()'
p198
S'569'
p199
tp200
a(S'MPI_Bcast()'
p201
S'579'
p202
tp203
a(S'MPI_Bcast()'
p204
S'580'
p205
tp206
a(S'MPI_Gatherv()'
p207
S'588'
p208
tp209
a(S'MPI_Bcast()'
p210
S'591'
p211
tp212
a(S'MPI_Gatherv()'
p213
S'599'
p214
tp215
a(S'MPI_Barrier()'
p216
S'600'
p217
tp218
a(S'MPI_Bcast()'
p219
S'605'
p220
tp221
a(S'MPI_Bcast()'
p222
S'609'
p223
tp224
a(S'MPI_Init()'
p225
S'433'
p226
tp227
a(S'MPI_Comm_size()'
p228
S'434'
p229
tp230
a(S'MPI_Comm_rank()'
p231
S'435'
p232
tp233
a(S'MPI_Finalize()'
p234
S'485'
p235
tp236
a(S'MPI_Init()'
p237
S'424'
p238
tp239
a(S'MPI_Comm_size()'
p240
S'425'
p241
tp242
a(S'MPI_Comm_rank()'
p243
S'426'
p244
tp245
a(S'MPI_Reduce()'
p246
S'478'
p247
tp248
a(S'MPI_Finalize()'
p249
S'488'
p250
tp251
a(S'MPI_Init()'
p252
S'330'
p253
tp254
a(S'MPI_Comm_size()'
p255
S'331'
p256
tp257
a(S'MPI_Comm_rank()'
p258
S'332'
p259
tp260
a(S'MPI_Finalize()'
p261
S'425'
p262
tp263
a(S'MPI_Init()'
p264
S'19'
p265
tp266
a(S'MPI_Comm_size()'
p267
S'20'
p268
tp269
a(S'MPI_Comm_rank()'
p270
S'21'
p271
tp272
a(S'MPI_Finalize()'
p273
S'28'
p274
tp275
a(S'MPI_Init()'
p276
S'37'
p277
tp278
a(S'MPI_Comm_size()'
p279
S'38'
p280
tp281
a(S'MPI_Comm_rank()'
p282
S'39'
p283
tp284
a(S'MPI_Send()'
p285
S'92'
p286
tp287
a(S'MPI_Recv()'
p288
S'107'
p289
tp290
a(S'MPI_Finalize()'
p291
S'132'
p292
tp293
a(S'MPI_Init()'
p294
S'276'
p295
tp296
a(S'MPI_Comm_size()'
p297
S'277'
p298
tp299
a(S'MPI_Comm_rank()'
p300
S'278'
p301
tp302
a(S'MPI_Finalize()'
p303
S'382'
p304
tp305
a(S'MPI_Init()'
p306
S'110'
p307
tp308
a(S'MPI_Comm_size()'
p309
S'111'
p310
tp311
a(S'MPI_Comm_rank()'
p312
S'112'
p313
tp314
a(S'MPI_Finalize()'
p315
S'147'
p316
tp317
a(S'MPI_Init()'
p318
S'232'
p319
tp320
a(S'MPI_Comm_size()'
p321
S'233'
p322
tp323
a(S'MPI_Comm_rank()'
p324
S'234'
p325
tp326
a(S'MPI_Finalize()'
p327
S'272'
p328
tp329
a(S'MPI_Init()'
p330
S'251'
p331
tp332
a(S'MPI_Comm_size()'
p333
S'252'
p334
tp335
a(S'MPI_Comm_rank()'
p336
S'253'
p337
tp338
a(S'MPI_Finalize()'
p339
S'324'
p340
tp341
a(S'MPI_Init()'
p342
S'37'
p343
tp344
a(S'MPI_Comm_size()'
p345
S'38'
p346
tp347
a(S'MPI_Comm_rank()'
p348
S'39'
p349
tp350
a(S'MPI_Send()'
p351
S'92'
p352
tp353
a(S'MPI_Recv()'
p354
S'107'
p355
tp356
a(S'MPI_Finalize()'
p357
S'132'
p358
tp359
a(S'MPI_Init()'
p360
S'424'
p361
tp362
a(S'MPI_Comm_size()'
p363
S'425'
p364
tp365
a(S'MPI_Comm_rank()'
p366
S'426'
p367
tp368
a(S'MPI_Reduce()'
p369
S'478'
p370
tp371
a(S'MPI_Finalize()'
p372
S'488'
p373
tp374
a(S'MPI_Init()'
p375
S'15'
p376
tp377
a(S'MPI_Comm_size()'
p378
S'19'
p379
tp380
a(S'MPI_Comm_rank()'
p381
S'22'
p382
tp383
a(S'MPI_Finalize()'
p384
S'56'
p385
tp386
a(S'MPI_Init()'
p387
S'5'
p388
tp389
a(S'MPI_Comm_size()'
p390
S'9'
p391
tp392
a(S'MPI_Comm_rank()'
p393
S'12'
p394
tp395
a(S'MPI_Get_processor_name()'
p396
S'16'
p397
tp398
a(S'MPI_Finalize()'
p399
S'22'
p400
tp401
a(S'MPI_Init()'
p402
S'15'
p403
tp404
a(S'MPI_Comm_size()'
p405
S'19'
p406
tp407
a(S'MPI_Comm_rank()'
p408
S'22'
p409
tp410
a(S'MPI_Finalize()'
p411
S'56'
p412
tp413
a(S'MPI_Init()'
p414
g388
tp415
a(S'MPI_Comm_size()'
p416
g391
tp417
a(S'MPI_Comm_rank()'
p418
S'12'
p419
tp420
a(S'MPI_Get_processor_name()'
p421
S'16'
p422
tp423
a(S'MPI_Finalize()'
p424
S'22'
p425
tp426
a(S'MPI_Init()'
p427
S'73'
p428
tp429
a(S'MPI_Comm_size()'
p430
S'74'
p431
tp432
a(S'MPI_Comm_rank()'
p433
S'75'
p434
tp435
a(S'MPI_Finalize()'
p436
S'130'
p437
tp438
a(S'MPI_Init()'
p439
S'74'
p440
tp441
a(S'MPI_Comm_size()'
p442
S'75'
p443
tp444
a(S'MPI_Comm_rank()'
p445
S'76'
p446
tp447
a(S'MPI_Send()'
p448
S'136'
p449
tp450
a(S'MPI_Send()'
p451
S'138'
p452
tp453
a(S'MPI_Bcast()'
p454
S'153'
p455
tp456
a(S'MPI_Recv()'
p457
S'160'
p458
tp459
a(S'MPI_Recv()'
p460
S'162'
p461
tp462
a(S'MPI_Gather()'
p463
S'175'
p464
tp465
a(S'MPI_Recv()'
p466
S'186'
p467
tp468
a(S'MPI_Finalize()'
p469
S'209'
p470
tp471
a(S'MPI_Init()'
p472
S'74'
p473
tp474
a(S'MPI_Comm_size()'
p475
S'75'
p476
tp477
a(S'MPI_Comm_rank()'
p478
S'76'
p479
tp480
a(S'MPI_Send()'
p481
S'136'
p482
tp483
a(S'MPI_Send()'
p484
S'138'
p485
tp486
a(S'MPI_Bcast()'
p487
S'155'
p488
tp489
a(S'MPI_Recv()'
p490
S'162'
p491
tp492
a(S'MPI_Recv()'
p493
S'164'
p494
tp495
a(S'MPI_Send()'
p496
S'178'
p497
tp498
a(S'MPI_Recv()'
p499
S'191'
p500
tp501
a(S'MPI_Finalize()'
p502
S'214'
p503
tp504
a(S'MPI_Init()'
p505
S'10'
p506
tp507
a(S'MPI_Comm_size()'
p508
S'11'
p509
tp510
a(S'MPI_Comm_rank()'
p511
S'12'
p512
tp513
a(S'MPI_Bcast()'
p514
S'55'
p515
tp516
a(S'MPI_Scatter()'
p517
S'61'
p518
tp519
a(S'MPI_Scatter()'
p520
S'62'
p521
tp522
a(S'MPI_Gather()'
p523
S'82'
p524
tp525
a(S'MPI_Finalize()'
p526
S'94'
p527
tp528
a(S'MPI_Init()'
p529
S'74'
p530
tp531
a(S'MPI_Comm_size()'
p532
S'75'
p533
tp534
a(S'MPI_Comm_rank()'
p535
S'76'
p536
tp537
a(S'MPI_Send()'
p538
S'136'
p539
tp540
a(S'MPI_Send()'
p541
S'137'
p542
tp543
a(S'MPI_Bcast()'
p544
S'152'
p545
tp546
a(S'MPI_Recv()'
p547
S'157'
p548
tp549
a(S'MPI_Recv()'
p550
S'158'
p551
tp552
a(S'MPI_Send()'
p553
S'169'
p554
tp555
a(S'MPI_Recv()'
p556
S'179'
p557
tp558
a(S'MPI_Finalize()'
p559
S'202'
p560
tp561
a(S'MPI_Init()'
p562
S'70'
p563
tp564
a(S'MPI_Comm_size()'
p565
S'71'
p566
tp567
a(S'MPI_Comm_rank()'
p568
S'72'
p569
tp570
a(S'MPI_Send()'
p571
S'119'
p572
tp573
a(S'MPI_Send()'
p574
S'120'
p575
tp576
a(S'MPI_Bcast()'
p577
S'129'
p578
tp579
a(S'MPI_Recv()'
p580
S'136'
p581
tp582
a(S'MPI_Recv()'
p583
S'137'
p584
tp585
a(S'MPI_Send()'
p586
S'170'
p587
tp588
a(S'MPI_Finalize()'
p589
S'199'
p590
tp591
a(S'MPI_Init()'
p592
S'77'
p593
tp594
a(S'MPI_Comm_size()'
p595
S'78'
p596
tp597
a(S'MPI_Comm_rank()'
p598
S'79'
p599
tp600
a(S'MPI_Finalize()'
p601
S'109'
p602
tp603
a(S'MPI_Init()'
p604
S'47'
p605
tp606
a(S'MPI_Comm_size()'
p607
S'48'
p608
tp609
a(S'MPI_Comm_rank()'
p610
S'49'
p611
tp612
a(S'MPI_Send()'
p613
S'84'
p614
tp615
a(S'MPI_Recv()'
p616
S'95'
p617
tp618
a(S'MPI_Finalize()'
p619
S'105'
p620
tp621
a(S'MPI_Init()'
p622
S'13'
p623
tp624
a(S'MPI_Comm_size()'
p625
S'19'
p626
tp627
a(S'MPI_Comm_rank()'
p628
S'22'
p629
tp630
a(S'MPI_Send()'
p631
S'29'
p632
tp633
a(S'MPI_Recv()'
p634
S'31'
p635
tp636
a(S'MPI_Finalize()'
p637
S'39'
p638
tp639
a(S'MPI_Init()'
p640
g391
tp641
a(S'MPI_Comm_size()'
p642
S'10'
p643
tp644
a(S'MPI_Comm_rank()'
p645
S'11'
p646
tp647
a(S'MPI_Bcast()'
p648
S'48'
p649
tp650
a(S'MPI_Scatter()'
p651
S'53'
p652
tp653
a(S'MPI_Bcast()'
p654
S'63'
p655
tp656
a(S'MPI_Bcast()'
p657
S'64'
p658
tp659
a(S'MPI_Bcast()'
p660
S'65'
p661
tp662
a(S'MPI_Finalize()'
p663
S'76'
p664
tp665
a(S'MPI_Init()'
p666
S'8'
p667
tp668
a(S'MPI_Comm_size()'
p669
g391
tp670
a(S'MPI_Comm_rank()'
p671
S'10'
p672
tp673
a(S'MPI_Scatter()'
p674
S'27'
p675
tp676
a(S'MPI_Gather()'
p677
S'33'
p678
tp679
a(S'MPI_Finalize()'
p680
S'43'
p681
tp682
a(S'MPI_Init()'
p683
g667
tp684
a(S'MPI_Comm_size()'
p685
S'13'
p686
tp687
a(S'MPI_Comm_rank()'
p688
S'14'
p689
tp690
a(S'MPI_Allreduce()'
p691
S'20'
p692
tp693
a(S'MPI_Finalize()'
p694
S'30'
p695
tp696
a(S'MPI_Init()'
p697
S'10'
p698
tp699
a(S'MPI_Comm_size()'
p700
S'11'
p701
tp702
a(S'MPI_Comm_rank()'
p703
S'12'
p704
tp705
a(S'MPI_Bcast()'
p706
S'55'
p707
tp708
a(S'MPI_Scatter()'
p709
S'61'
p710
tp711
a(S'MPI_Scatter()'
p712
S'62'
p713
tp714
a(S'MPI_Gather()'
p715
S'82'
p716
tp717
a(S'MPI_Finalize()'
p718
S'94'
p719
tp720
a(S'MPI_Init()'
p721
S'74'
p722
tp723
a(S'MPI_Comm_size()'
p724
S'75'
p725
tp726
a(S'MPI_Comm_rank()'
p727
S'76'
p728
tp729
a(S'MPI_Send()'
p730
S'136'
p731
tp732
a(S'MPI_Send()'
p733
S'137'
p734
tp735
a(S'MPI_Bcast()'
p736
S'152'
p737
tp738
a(S'MPI_Recv()'
p739
S'157'
p740
tp741
a(S'MPI_Recv()'
p742
S'158'
p743
tp744
a(S'MPI_Send()'
p745
S'169'
p746
tp747
a(S'MPI_Recv()'
p748
S'179'
p749
tp750
a(S'MPI_Finalize()'
p751
S'202'
p752
tp753
a(S'MPI_Init()'
p754
S'70'
p755
tp756
a(S'MPI_Comm_size()'
p757
S'71'
p758
tp759
a(S'MPI_Comm_rank()'
p760
S'72'
p761
tp762
a(S'MPI_Send()'
p763
S'119'
p764
tp765
a(S'MPI_Send()'
p766
S'120'
p767
tp768
a(S'MPI_Bcast()'
p769
S'128'
p770
tp771
a(S'MPI_Recv()'
p772
S'135'
p773
tp774
a(S'MPI_Recv()'
p775
S'136'
p776
tp777
a(S'MPI_Send()'
p778
S'169'
p779
tp780
a(S'MPI_Finalize()'
p781
S'198'
p782
tp783
a(S'MPI_Init()'
p784
S'77'
p785
tp786
a(S'MPI_Comm_size()'
p787
S'78'
p788
tp789
a(S'MPI_Comm_rank()'
p790
S'79'
p791
tp792
a(S'MPI_Finalize()'
p793
S'109'
p794
tp795
a(S'MPI_Init()'
p796
S'73'
p797
tp798
a(S'MPI_Comm_size()'
p799
S'74'
p800
tp801
a(S'MPI_Comm_rank()'
p802
S'75'
p803
tp804
a(S'MPI_Finalize()'
p805
S'131'
p806
tp807
a(S'MPI_Init()'
p808
S'70'
p809
tp810
a(S'MPI_Comm_size()'
p811
S'71'
p812
tp813
a(S'MPI_Comm_rank()'
p814
S'72'
p815
tp816
a(S'MPI_Finalize()'
p817
S'80'
p818
tp819
a(S'MPI_Finalize()'
p820
S'99'
p821
tp822
a(S'MPI_Bcast()'
p823
S'109'
p824
tp825
a(S'MPI_Bcast()'
p826
S'129'
p827
tp828
a(S'MPI_Send()'
p829
S'153'
p830
tp831
a(S'MPI_Recv()'
p832
S'175'
p833
tp834
a(S'MPI_Finalize()'
p835
S'211'
p836
tp837
a(S'MPI_Init()'
p838
S'56'
p839
tp840
a(S'MPI_Comm_size()'
p841
S'57'
p842
tp843
a(S'MPI_Comm_rank()'
p844
S'58'
p845
tp846
a(S'MPI_Bcast()'
p847
S'84'
p848
tp849
a(S'MPI_Finalize()'
p850
S'170'
p851
tp852
a(S'MPI_Comm_size()'
p853
S'97'
p854
tp855
a(S'MPI_Comm_rank()'
p856
S'98'
p857
tp858
a(S'MPI_Wtime()'
p859
S'121'
p860
tp861
a(S'MPI_Scatter()'
p862
S'128'
p863
tp864
a(S'MPI_Bcast()'
p865
S'137'
p866
tp867
a(S'MPI_Bcast()'
p868
S'138'
p869
tp870
a(S'MPI_Barrier()'
p871
S'194'
p872
tp873
a(S'MPI_Gather()'
p874
S'195'
p875
tp876
a(S'MPI_Gather()'
p877
S'196'
p878
tp879
a(S'MPI_Finalize()'
p880
S'197'
p881
tp882
a(S'MPI_Wtime()'
p883
S'205'
p884
tp885
a(S'MPI_Init()'
p886
S'101'
p887
tp888
a(S'MPI_Comm_size()'
p889
S'102'
p890
tp891
a(S'MPI_Comm_rank()'
p892
S'103'
p893
tp894
a(S'MPI_Finalize()'
p895
S'111'
p896
tp897
a(S'MPI_Finalize()'
p898
S'130'
p899
tp900
a(S'MPI_Bcast()'
p901
S'166'
p902
tp903
a(S'MPI_Send()'
p904
S'184'
p905
tp906
a(S'MPI_Recv()'
p907
S'202'
p908
tp909
a(S'MPI_Finalize()'
p910
S'222'
p911
tp912
a(S'MPI_Init()'
p913
S'101'
p914
tp915
a(S'MPI_Comm_size()'
p916
S'102'
p917
tp918
a(S'MPI_Comm_rank()'
p919
S'103'
p920
tp921
a(S'MPI_Finalize()'
p922
S'111'
p923
tp924
a(S'MPI_Finalize()'
p925
S'129'
p926
tp927
a(S'MPI_Bcast()'
p928
S'165'
p929
tp930
a(S'MPI_Send()'
p931
S'183'
p932
tp933
a(S'MPI_Recv()'
p934
S'201'
p935
tp936
a(S'MPI_Finalize()'
p937
S'221'
p938
tp939
a(S'MPI_Init()'
p940
S'101'
p941
tp942
a(S'MPI_Comm_size()'
p943
S'102'
p944
tp945
a(S'MPI_Comm_rank()'
p946
S'103'
p947
tp948
a(S'MPI_Finalize()'
p949
S'111'
p950
tp951
a(S'MPI_Finalize()'
p952
S'132'
p953
tp954
a(S'MPI_Bcast()'
p955
S'199'
p956
tp957
a(S'MPI_Send()'
p958
S'217'
p959
tp960
a(S'MPI_Recv()'
p961
S'235'
p962
tp963
a(S'MPI_Finalize()'
p964
S'279'
p965
tp966
a(S'MPI_Init()'
p967
S'56'
p968
tp969
a(S'MPI_Comm_size()'
p970
S'57'
p971
tp972
a(S'MPI_Comm_rank()'
p973
S'58'
p974
tp975
a(S'MPI_Bcast()'
p976
S'123'
p977
tp978
a(S'MPI_Bcast()'
p979
S'124'
p980
tp981
a(S'MPI_Send()'
p982
S'159'
p983
tp984
a(S'MPI_Recv()'
p985
S'170'
p986
tp987
a(S'MPI_Finalize()'
p988
S'200'
p989
tp990
a(S'MPI_Init()'
p991
S'101'
p992
tp993
a(S'MPI_Comm_size()'
p994
S'102'
p995
tp996
a(S'MPI_Comm_rank()'
p997
S'103'
p998
tp999
a(S'MPI_Finalize()'
p1000
S'111'
p1001
tp1002
a(S'MPI_Finalize()'
p1003
S'129'
p1004
tp1005
a(S'MPI_Bcast()'
p1006
S'165'
p1007
tp1008
a(S'MPI_Send()'
p1009
S'183'
p1010
tp1011
a(S'MPI_Recv()'
p1012
S'201'
p1013
tp1014
a(S'MPI_Finalize()'
p1015
S'221'
p1016
tp1017
a(S'MPI_Init()'
p1018
S'70'
p1019
tp1020
a(S'MPI_Comm_size()'
p1021
S'71'
p1022
tp1023
a(S'MPI_Comm_rank()'
p1024
S'72'
p1025
tp1026
a(S'MPI_Finalize()'
p1027
S'80'
p1028
tp1029
a(S'MPI_Finalize()'
p1030
S'99'
p1031
tp1032
a(S'MPI_Bcast()'
p1033
S'109'
p1034
tp1035
a(S'MPI_Bcast()'
p1036
S'129'
p1037
tp1038
a(S'MPI_Send()'
p1039
S'153'
p1040
tp1041
a(S'MPI_Recv()'
p1042
S'175'
p1043
tp1044
a(S'MPI_Finalize()'
p1045
S'211'
p1046
tp1047
a(S'MPI_Init()'
p1048
S'101'
p1049
tp1050
a(S'MPI_Comm_size()'
p1051
S'102'
p1052
tp1053
a(S'MPI_Comm_rank()'
p1054
S'103'
p1055
tp1056
a(S'MPI_Finalize()'
p1057
S'111'
p1058
tp1059
a(S'MPI_Finalize()'
p1060
S'132'
p1061
tp1062
a(S'MPI_Bcast()'
p1063
S'199'
p1064
tp1065
a(S'MPI_Send()'
p1066
S'217'
p1067
tp1068
a(S'MPI_Recv()'
p1069
S'235'
p1070
tp1071
a(S'MPI_Finalize()'
p1072
S'279'
p1073
tp1074
a(S'MPI_Init()'
p1075
S'56'
p1076
tp1077
a(S'MPI_Comm_size()'
p1078
S'57'
p1079
tp1080
a(S'MPI_Comm_rank()'
p1081
S'58'
p1082
tp1083
a(S'MPI_Bcast()'
p1084
S'124'
p1085
tp1086
a(S'MPI_Bcast()'
p1087
S'125'
p1088
tp1089
a(S'MPI_Send()'
p1090
S'160'
p1091
tp1092
a(S'MPI_Recv()'
p1093
S'171'
p1094
tp1095
a(S'MPI_Finalize()'
p1096
S'201'
p1097
tp1098
a(S'MPI_Init()'
p1099
S'101'
p1100
tp1101
a(S'MPI_Comm_size()'
p1102
S'102'
p1103
tp1104
a(S'MPI_Comm_rank()'
p1105
S'103'
p1106
tp1107
a(S'MPI_Finalize()'
p1108
S'111'
p1109
tp1110
a(S'MPI_Finalize()'
p1111
S'129'
p1112
tp1113
a(S'MPI_Bcast()'
p1114
S'165'
p1115
tp1116
a(S'MPI_Send()'
p1117
S'183'
p1118
tp1119
a(S'MPI_Recv()'
p1120
S'201'
p1121
tp1122
a(S'MPI_Finalize()'
p1123
S'221'
p1124
tp1125
a(S'MPI_Init()'
p1126
S'70'
p1127
tp1128
a(S'MPI_Comm_size()'
p1129
S'71'
p1130
tp1131
a(S'MPI_Comm_rank()'
p1132
S'72'
p1133
tp1134
a(S'MPI_Finalize()'
p1135
S'80'
p1136
tp1137
a(S'MPI_Finalize()'
p1138
S'99'
p1139
tp1140
a(S'MPI_Bcast()'
p1141
S'109'
p1142
tp1143
a(S'MPI_Bcast()'
p1144
S'129'
p1145
tp1146
a(S'MPI_Send()'
p1147
S'153'
p1148
tp1149
a(S'MPI_Recv()'
p1150
S'175'
p1151
tp1152
a(S'MPI_Finalize()'
p1153
S'211'
p1154
tp1155
a(S'MPI_Init()'
p1156
S'101'
p1157
tp1158
a(S'MPI_Comm_size()'
p1159
S'102'
p1160
tp1161
a(S'MPI_Comm_rank()'
p1162
S'103'
p1163
tp1164
a(S'MPI_Finalize()'
p1165
S'111'
p1166
tp1167
a(S'MPI_Finalize()'
p1168
S'132'
p1169
tp1170
a(S'MPI_Bcast()'
p1171
S'199'
p1172
tp1173
a(S'MPI_Send()'
p1174
S'217'
p1175
tp1176
a(S'MPI_Recv()'
p1177
S'235'
p1178
tp1179
a(S'MPI_Finalize()'
p1180
S'279'
p1181
tp1182
a(S'MPI_Init()'
p1183
S'56'
p1184
tp1185
a(S'MPI_Comm_size()'
p1186
S'57'
p1187
tp1188
a(S'MPI_Comm_rank()'
p1189
S'58'
p1190
tp1191
a(S'MPI_Bcast()'
p1192
S'124'
p1193
tp1194
a(S'MPI_Bcast()'
p1195
S'125'
p1196
tp1197
a(S'MPI_Send()'
p1198
S'160'
p1199
tp1200
a(S'MPI_Recv()'
p1201
S'171'
p1202
tp1203
a(S'MPI_Finalize()'
p1204
S'201'
p1205
tp1206
a(S'MPI_Init()'
p1207
S'56'
p1208
tp1209
a(S'MPI_Comm_size()'
p1210
S'57'
p1211
tp1212
a(S'MPI_Comm_rank()'
p1213
S'58'
p1214
tp1215
a(S'MPI_Finalize()'
p1216
S'150'
p1217
tp1218
a(S'MPI_Init()'
p1219
S'12'
p1220
tp1221
a(S'MPI_Comm_size()'
p1222
S'13'
p1223
tp1224
a(S'MPI_Comm_rank()'
p1225
S'14'
p1226
tp1227
a(S'MPI_Finalize()'
p1228
S'22'
p1229
tp1230
a(S'MPI_Init()'
p1231
S'17'
p1232
tp1233
a(S'MPI_File_open()'
p1234
S'20'
p1235
tp1236
a(S'MPI_Comm_size()'
p1237
S'21'
p1238
tp1239
a(S'MPI_Comm_rank()'
p1240
S'22'
p1241
tp1242
a(S'MPI_File_write_ordered()'
p1243
S'27'
p1244
tp1245
a(S'MPI_Get_count()'
p1246
S'28'
p1247
tp1248
a(S'MPI_File_seek()'
p1249
S'35'
p1250
tp1251
a(S'MPI_File_read()'
p1252
S'39'
p1253
tp1254
a(S'MPI_Get_count()'
p1255
S'40'
p1256
tp1257
a(S'MPI_File_write()'
p1258
S'48'
p1259
tp1260
a(S'MPI_File_seek_shared()'
p1261
S'55'
p1262
tp1263
a(S'MPI_File_read_shared()'
p1264
S'58'
p1265
tp1266
a(S'MPI_Get_count()'
p1267
S'59'
p1268
tp1269
a(S'MPI_File_write_shared()'
p1270
S'67'
p1271
tp1272
a(S'MPI_Barrier()'
p1273
S'73'
p1274
tp1275
a(S'MPI_File_seek_shared()'
p1276
S'75'
p1277
tp1278
a(S'MPI_File_read_ordered()'
p1279
S'77'
p1280
tp1281
a(S'MPI_File_close()'
p1282
S'84'
p1283
tp1284
a(S'MPI_Finalize()'
p1285
S'86'
p1286
tp1287
a(S'MPI_Init()'
p1288
S'12'
p1289
tp1290
a(S'MPI_Comm_size()'
p1291
S'13'
p1292
tp1293
a(S'MPI_Comm_rank()'
p1294
S'14'
p1295
tp1296
a(S'MPI_Finalize()'
p1297
S'37'
p1298
tp1299
a(S'MPI_Init()'
p1300
S'16'
p1301
tp1302
a(S'MPI_Comm_size()'
p1303
S'17'
p1304
tp1305
a(S'MPI_Comm_rank()'
p1306
S'18'
p1307
tp1308
a(S'MPI_Finalize()'
p1309
S'62'
p1310
tp1311
a(S'MPI_Init()'
p1312
S'99'
p1313
tp1314
a(S'MPI_Comm_size()'
p1315
S'100'
p1316
tp1317
a(S'MPI_Comm_rank()'
p1318
S'101'
p1319
tp1320
a(S'MPI_Finalize()'
p1321
S'117'
p1322
tp1323
a(S'MPI_Init()'
p1324
S'35'
p1325
tp1326
a(S'MPI_Comm_size()'
p1327
S'37'
p1328
tp1329
a(S'MPI_Comm_rank()'
p1330
S'38'
p1331
tp1332
a(S'MPI_Comm_split_type()'
p1333
S'40'
p1334
tp1335
a(S'MPI_Comm_size()'
p1336
S'41'
p1337
tp1338
a(S'MPI_Comm_rank()'
p1339
S'42'
p1340
tp1341
a(S'MPI_Win_allocate_shared()'
p1342
S'52'
p1343
tp1344
a(S'MPI_Win_shared_query()'
p1345
S'57'
p1346
tp1347
a(S'MPI_Win_fence()'
p1348
S'63'
p1349
tp1350
a(S'MPI_Win_fence()'
p1351
S'71'
p1352
tp1353
a(S'MPI_Finalize()'
p1354
S'86'
p1355
tp1356
a(S'MPI_Init()'
p1357
S'35'
p1358
tp1359
a(S'MPI_Comm_size()'
p1360
S'37'
p1361
tp1362
a(S'MPI_Comm_rank()'
p1363
S'38'
p1364
tp1365
a(S'MPI_Comm_split_type()'
p1366
S'40'
p1367
tp1368
a(S'MPI_Comm_size()'
p1369
S'41'
p1370
tp1371
a(S'MPI_Comm_rank()'
p1372
S'42'
p1373
tp1374
a(S'MPI_Win_shared_query()'
p1375
S'57'
p1376
tp1377
a(S'MPI_Win_fence()'
p1378
S'63'
p1379
tp1380
a(S'MPI_Win_fence()'
p1381
S'71'
p1382
tp1383
a(S'MPI_Finalize()'
p1384
S'86'
p1385
tp1386
a(S'MPI_File_get_size()'
p1387
S'21'
p1388
tp1389
a(S'MPI_File_read_at_all()'
p1390
S'38'
p1391
tp1392
a(S'MPI_File_write_at_all()'
p1393
S'73'
p1394
tp1395
a(S'MPI_Init()'
p1396
S'85'
p1397
tp1398
a(S'MPI_Comm_rank()'
p1399
S'86'
p1400
tp1401
a(S'MPI_Comm_size()'
p1402
S'87'
p1403
tp1404
a(S'MPI_Finalize()'
p1405
S'91'
p1406
tp1407
a(S'MPI_File_open()'
p1408
S'95'
p1409
tp1410
a(S'MPI_Finalize()'
p1411
S'98'
p1412
tp1413
a(S'MPI_File_open()'
p1414
S'102'
p1415
tp1416
a(S'MPI_Finalize()'
p1417
S'105'
p1418
tp1419
a(S'MPI_File_close()'
p1420
S'111'
p1421
tp1422
a(S'MPI_File_close()'
p1423
S'112'
p1424
tp1425
a(S'MPI_Finalize()'
p1426
S'114'
p1427
tp1428
a(S'MPI_Init()'
p1429
S'32'
p1430
tp1431
a(S'MPI_Comm_size()'
p1432
S'34'
p1433
tp1434
a(S'MPI_Comm_rank()'
p1435
S'35'
p1436
tp1437
a(S'MPI_Comm_split_type()'
p1438
S'37'
p1439
tp1440
a(S'MPI_Comm_size()'
p1441
S'38'
p1442
tp1443
a(S'MPI_Comm_rank()'
p1444
S'39'
p1445
tp1446
a(S'MPI_Win_allocate_shared()'
p1447
S'51'
p1448
tp1449
a(S'MPI_Win_get_attr()'
p1450
S'54'
p1451
tp1452
a(S'MPI_Finalize()'
p1453
S'69'
p1454
tp1455
a(S'MPI_Win_shared_query()'
p1456
S'79'
p1457
tp1458
a(S'MPI_Win_fence()'
p1459
S'85'
p1460
tp1461
a(S'MPI_Win_fence()'
p1462
S'93'
p1463
tp1464
a(S'MPI_Finalize()'
p1465
S'101'
p1466
tp1467
a(S'MPI_Init()'
p1468
S'69'
p1469
tp1470
a(S'MPI_Comm_size()'
p1471
S'70'
p1472
tp1473
a(S'MPI_Comm_rank()'
p1474
S'71'
p1475
tp1476
a(S'MPI_Finalize()'
p1477
S'82'
p1478
tp1479
a(S'MPI_Init()'
p1480
S'99'
p1481
tp1482
a(S'MPI_Comm_size()'
p1483
S'100'
p1484
tp1485
a(S'MPI_Comm_rank()'
p1486
S'101'
p1487
tp1488
a(S'MPI_Finalize()'
p1489
S'131'
p1490
tp1491
a(S'MPI_Init()'
p1492
S'186'
p1493
tp1494
a(S'MPI_Comm_size()'
p1495
S'187'
p1496
tp1497
a(S'MPI_Comm_rank()'
p1498
S'188'
p1499
tp1500
a(S'MPI_Finalize()'
p1501
S'203'
p1502
tp1503
a(S'MPI_Finalize()'
p1504
S'210'
p1505
tp1506
a(S'MPI_Finalize()'
p1507
S'269'
p1508
tp1509
a(S'MPI_Init()'
p1510
S'211'
p1511
tp1512
a(S'MPI_Comm_size()'
p1513
S'212'
p1514
tp1515
a(S'MPI_Comm_rank()'
p1516
S'213'
p1517
tp1518
a(S'MPI_Comm_split_type()'
p1519
S'238'
p1520
tp1521
a(S'MPI_Comm_size()'
p1522
S'239'
p1523
tp1524
a(S'MPI_Comm_rank()'
p1525
S'240'
p1526
tp1527
a(S'MPI_Win_shared_query()'
p1528
S'258'
p1529
tp1530
a(S'MPI_Win_fence()'
p1531
S'261'
p1532
tp1533
a(S'MPI_Barrier()'
p1534
S'346'
p1535
tp1536
a(S'MPI_Finalize()'
p1537
S'356'
p1538
tp1539
a(S'MPI_Init()'
p1540
S'115'
p1541
tp1542
a(S'MPI_Comm_size()'
p1543
S'116'
p1544
tp1545
a(S'MPI_Comm_rank()'
p1546
S'117'
p1547
tp1548
a(S'MPI_Init()'
p1549
S'147'
p1550
tp1551
a(S'MPI_Comm_size()'
p1552
S'148'
p1553
tp1554
a(S'MPI_Comm_rank()'
p1555
S'149'
p1556
tp1557
a(S'MPI_Finalize()'
p1558
S'231'
p1559
tp1560
a(S'MPI_Init()'
p1561
S'185'
p1562
tp1563
a(S'MPI_Comm_size()'
p1564
S'186'
p1565
tp1566
a(S'MPI_Comm_rank()'
p1567
S'187'
p1568
tp1569
a(S'MPI_Finalize()'
p1570
S'202'
p1571
tp1572
a(S'MPI_Finalize()'
p1573
S'209'
p1574
tp1575
a(S'MPI_Finalize()'
p1576
S'260'
p1577
tp1578
a(S'MPI_Init()'
p1579
S'211'
p1580
tp1581
a(S'MPI_Comm_size()'
p1582
S'212'
p1583
tp1584
a(S'MPI_Comm_rank()'
p1585
S'213'
p1586
tp1587
a(S'MPI_Comm_split_type()'
p1588
S'238'
p1589
tp1590
a(S'MPI_Comm_size()'
p1591
S'239'
p1592
tp1593
a(S'MPI_Comm_rank()'
p1594
S'240'
p1595
tp1596
a(S'MPI_Win_shared_query()'
p1597
S'258'
p1598
tp1599
a(S'MPI_Win_fence()'
p1600
S'261'
p1601
tp1602
a(S'MPI_Barrier()'
p1603
S'346'
p1604
tp1605
a(S'MPI_Finalize()'
p1606
S'356'
p1607
tp1608
a(S'MPI_Init()'
p1609
S'48'
p1610
tp1611
a(S'MPI_Comm_size()'
p1612
S'49'
p1613
tp1614
a(S'MPI_Comm_rank()'
p1615
S'50'
p1616
tp1617
a(S'MPI_Bcast()'
p1618
S'100'
p1619
tp1620
a(S'MPI_Bcast()'
p1621
S'101'
p1622
tp1623
a(S'MPI_Send()'
p1624
S'129'
p1625
tp1626
a(S'MPI_Recv()'
p1627
S'140'
p1628
tp1629
a(S'MPI_Finalize()'
p1630
S'160'
p1631
tp1632
a(S'MPI_Init()'
p1633
S'123'
p1634
tp1635
a(S'MPI_Comm_size()'
p1636
S'124'
p1637
tp1638
a(S'MPI_Comm_rank()'
p1639
S'125'
p1640
tp1641
a(S'MPI_Finalize()'
p1642
S'207'
p1643
tp1644
a(S'MPI_Bcast()'
p1645
S'211'
p1646
tp1647
a(S'MPI_Send()'
p1648
S'232'
p1649
tp1650
a(S'MPI_Recv()'
p1651
S'247'
p1652
tp1653
a(S'MPI_Bcast()'
p1654
S'261'
p1655
tp1656
a(S'MPI_Bcast()'
p1657
S'275'
p1658
tp1659
a(S'MPI_Finalize()'
p1660
S'296'
p1661
tp1662
a(S'MPI_Init()'
p1663
S'146'
p1664
tp1665
a(S'MPI_Comm_size()'
p1666
S'147'
p1667
tp1668
a(S'MPI_Comm_rank()'
p1669
S'148'
p1670
tp1671
a(S'MPI_Send()'
p1672
S'162'
p1673
tp1674
a(S'MPI_Recv()'
p1675
S'172'
p1676
tp1677
a(S'MPI_Finalize()'
p1678
S'187'
p1679
tp1680
a(S'MPI_Init()'
p1681
S'123'
p1682
tp1683
a(S'MPI_Comm_size()'
p1684
S'124'
p1685
tp1686
a(S'MPI_Comm_rank()'
p1687
S'125'
p1688
tp1689
a(S'MPI_Finalize()'
p1690
S'203'
p1691
tp1692
a(S'MPI_Bcast()'
p1693
S'207'
p1694
tp1695
a(S'MPI_Send()'
p1696
S'228'
p1697
tp1698
a(S'MPI_Recv()'
p1699
S'243'
p1700
tp1701
a(S'MPI_Bcast()'
p1702
S'257'
p1703
tp1704
a(S'MPI_Bcast()'
p1705
S'271'
p1706
tp1707
a(S'MPI_Finalize()'
p1708
S'295'
p1709
tp1710
a(S'MPI_Init()'
p1711
S'123'
p1712
tp1713
a(S'MPI_Comm_size()'
p1714
S'124'
p1715
tp1716
a(S'MPI_Comm_rank()'
p1717
S'125'
p1718
tp1719
a(S'MPI_Finalize()'
p1720
S'207'
p1721
tp1722
a(S'MPI_Bcast()'
p1723
S'211'
p1724
tp1725
a(S'MPI_Send()'
p1726
S'232'
p1727
tp1728
a(S'MPI_Recv()'
p1729
S'247'
p1730
tp1731
a(S'MPI_Bcast()'
p1732
S'261'
p1733
tp1734
a(S'MPI_Bcast()'
p1735
S'275'
p1736
tp1737
a(S'MPI_Finalize()'
p1738
S'296'
p1739
tp1740
a(S'MPI_Init()'
p1741
S'76'
p1742
tp1743
a(S'MPI_Comm_size()'
p1744
S'81'
p1745
tp1746
a(S'MPI_Comm_rank()'
p1747
S'84'
p1748
tp1749
a(S'MPI_File_open()'
p1750
S'106'
p1751
tp1752
a(S'MPI_Finalize()'
p1753
S'109'
p1754
tp1755
a(S'MPI_Barrier()'
p1756
S'112'
p1757
tp1758
a(S'MPI_File_get_size()'
p1759
S'115'
p1760
tp1761
a(S'MPI_Barrier()'
p1762
S'124'
p1763
tp1764
a(S'MPI_File_seek()'
p1765
S'125'
p1766
tp1767
a(S'MPI_File_read()'
p1768
S'129'
p1769
tp1770
a(S'MPI_Barrier()'
p1771
S'131'
p1772
tp1773
a(S'MPI_Barrier()'
p1774
S'144'
p1775
tp1776
a(S'MPI_Barrier()'
p1777
S'194'
p1778
tp1779
a(S'MPI_Barrier()'
p1780
S'208'
p1781
tp1782
a(S'MPI_Recv()'
p1783
S'211'
p1784
tp1785
a(S'MPI_Recv()'
p1786
S'216'
p1787
tp1788
a(S'MPI_Send()'
p1789
S'226'
p1790
tp1791
a(S'MPI_Send()'
p1792
S'227'
p1793
tp1794
a(S'MPI_Barrier()'
p1795
S'229'
p1796
tp1797
a(S'MPI_Barrier()'
p1798
S'251'
p1799
tp1800
a(S'MPI_Barrier()'
p1801
S'261'
p1802
tp1803
a(S'MPI_Barrier()'
p1804
S'265'
p1805
tp1806
a(S'MPI_Barrier()'
p1807
S'268'
p1808
tp1809
a(S'MPI_Send()'
p1810
S'289'
p1811
tp1812
a(S'MPI_Send()'
p1813
S'290'
p1814
tp1815
a(S'MPI_Send()'
p1816
S'294'
p1817
tp1818
a(S'MPI_Send()'
p1819
S'295'
p1820
tp1821
a(S'MPI_Send()'
p1822
S'298'
p1823
tp1824
a(S'MPI_Send()'
p1825
S'301'
p1826
tp1827
a(S'MPI_Send()'
p1828
S'302'
p1829
tp1830
a(S'MPI_Recv()'
p1831
S'310'
p1832
tp1833
a(S'MPI_Recv()'
p1834
S'313'
p1835
tp1836
a(S'MPI_Recv()'
p1837
S'320'
p1838
tp1839
a(S'MPI_Recv()'
p1840
S'322'
p1841
tp1842
a(S'MPI_Recv()'
p1843
S'325'
p1844
tp1845
a(S'MPI_Recv()'
p1846
S'330'
p1847
tp1848
a(S'MPI_Recv()'
p1849
S'333'
p1850
tp1851
a(S'MPI_Barrier()'
p1852
S'457'
p1853
tp1854
a(S'MPI_Finalize()'
p1855
S'465'
p1856
tp1857
a(S'MPI_Type_create_struct()'
p1858
S'17'
p1859
tp1860
a(S'MPI_Type_commit()'
p1861
S'18'
p1862
tp1863
a(S'MPI_Comm_rank()'
p1864
S'78'
p1865
tp1866
a(S'MPI_Bcast()'
p1867
S'282'
p1868
tp1869
a(S'MPI_Bcast()'
p1870
S'283'
p1871
tp1872
a(S'MPI_Barrier()'
p1873
S'285'
p1874
tp1875
a(S'MPI_Bcast()'
p1876
S'311'
p1877
tp1878
a(S'MPI_Bcast()'
p1879
S'312'
p1880
tp1881
a(S'MPI_Barrier()'
p1882
S'314'
p1883
tp1884
a(S'MPI_Send()'
p1885
S'326'
p1886
tp1887
a(S'MPI_Send()'
p1888
S'327'
p1889
tp1890
a(S'MPI_Send()'
p1891
S'328'
p1892
tp1893
a(S'MPI_Recv()'
p1894
S'341'
p1895
tp1896
a(S'MPI_Recv()'
p1897
S'342'
p1898
tp1899
a(S'MPI_Recv()'
p1900
S'343'
p1901
tp1902
a(S'MPI_Comm_size()'
p1903
S'42'
p1904
tp1905
a(S'MPI_Comm_rank()'
p1906
S'46'
p1907
tp1908
a(S'MPI_Bcast()'
p1909
S'80'
p1910
tp1911
a(S'MPI_Init()'
p1912
S'17'
p1913
tp1914
a(S'MPI_Comm_size()'
p1915
S'21'
p1916
tp1917
a(S'MPI_Comm_rank()'
p1918
S'24'
p1919
tp1920
a(S'MPI_Send()'
p1921
S'39'
p1922
tp1923
a(S'MPI_Recv()'
p1924
S'41'
p1925
tp1926
a(S'MPI_Finalize()'
p1927
S'47'
p1928
tp1929
a(S'MPI_Init()'
p1930
S'13'
p1931
tp1932
a(S'MPI_Comm_size()'
p1933
S'14'
p1934
tp1935
a(S'MPI_Comm_rank()'
p1936
S'15'
p1937
tp1938
a(S'MPI_Finalize()'
p1939
S'41'
p1940
tp1941
a(S'MPI_Init()'
p1942
S'59'
p1943
tp1944
a(S'MPI_Comm_size()'
p1945
S'63'
p1946
tp1947
a(S'MPI_Comm_rank()'
p1948
S'66'
p1949
tp1950
a(S'MPI_File_open()'
p1951
S'76'
p1952
tp1953
a(S'MPI_Finalize()'
p1954
S'79'
p1955
tp1956
a(S'MPI_Barrier()'
p1957
S'82'
p1958
tp1959
a(S'MPI_File_get_size()'
p1960
S'85'
p1961
tp1962
a(S'MPI_Barrier()'
p1963
S'94'
p1964
tp1965
a(S'MPI_File_seek()'
p1966
S'95'
p1967
tp1968
a(S'MPI_File_read()'
p1969
S'98'
p1970
tp1971
a(S'MPI_Barrier()'
p1972
S'100'
p1973
tp1974
a(S'MPI_Barrier()'
p1975
S'103'
p1976
tp1977
a(S'MPI_Barrier()'
p1978
S'236'
p1979
tp1980
a(S'MPI_Barrier()'
p1981
S'250'
p1982
tp1983
a(S'MPI_Recv()'
p1984
S'253'
p1985
tp1986
a(S'MPI_Recv()'
p1987
S'258'
p1988
tp1989
a(S'MPI_Send()'
p1990
S'268'
p1991
tp1992
a(S'MPI_Send()'
p1993
S'269'
p1994
tp1995
a(S'MPI_Barrier()'
p1996
S'271'
p1997
tp1998
a(S'MPI_Barrier()'
p1999
S'296'
p2000
tp2001
a(S'MPI_Barrier()'
p2002
S'300'
p2003
tp2004
a(S'MPI_Barrier()'
p2005
S'303'
p2006
tp2007
a(S'MPI_Barrier()'
p2008
S'307'
p2009
tp2010
a(S'MPI_Finalize()'
p2011
S'315'
p2012
tp2013
as.