ccollections
defaultdict
p0
(c__builtin__
list
p1
tp2
Rp3
S'pfc/dev/appscale-tests/mpi-test/mpi.c'
p4
(lp5
(S'MPI_Init()'
p6
S'8'
p7
tp8
a(S'MPI_Comm_size()'
p9
S'9'
p10
tp11
a(S'MPI_Comm_rank()'
p12
S'10'
p13
tp14
a(S'MPI_Get_processor_name()'
p15
S'11'
p16
tp17
a(S'MPI_Finalize()'
p18
S'15'
p19
tp20
asS'pfc/dev/appscale-tests/mpi-test/mpi2.c'
p21
(lp22
(S'MPI_Init()'
p23
S'20'
p24
tp25
a(S'MPI_Comm_size()'
p26
S'21'
p27
tp28
a(S'MPI_Comm_rank()'
p29
S'22'
p30
tp31
a(S'MPI_Send()'
p32
S'32'
p33
tp34
a(S'MPI_Recv()'
p35
S'36'
p36
tp37
a(S'MPI_Recv()'
p38
S'43'
p39
tp40
a(S'MPI_Send()'
p41
S'48'
p42
tp43
a(S'MPI_Finalize()'
p44
S'51'
p45
tp46
asS'pfc/doc/Neptune/neptune-0.1.4/samples/mpi/ring/Ring.c'
p47
(lp48
(S'MPI_Init()'
p49
S'21'
p50
tp51
a(S'MPI_Comm_size()'
p52
S'23'
p53
tp54
a(S'MPI_Comm_rank()'
p55
S'24'
p56
tp57
a(S'MPI_Barrier()'
p58
S'26'
p59
tp60
a(S'MPI_Wtime()'
p61
S'30'
p62
tp63
a(S'MPI_Barrier()'
p64
S'35'
p65
tp66
a(S'MPI_Send()'
p67
S'41'
p68
tp69
a(S'MPI_Recv()'
p70
S'44'
p71
tp72
a(S'MPI_Recv()'
p73
S'46'
p74
tp75
a(S'MPI_Send()'
p76
S'50'
p77
tp78
a(S'MPI_Send()'
p79
S'53'
p80
tp81
a(S'MPI_Barrier()'
p82
S'57'
p83
tp84
a(S'MPI_Barrier()'
p85
S'60'
p86
tp87
a(S'MPI_Wtime()'
p88
S'62'
p89
tp90
a(S'MPI_Finalize()'
p91
S'72'
p92
tp93
asS'pfc/doc/Neptune/neptune-0.1.4/test/integration/tc_mpi.rb'
p94
(lp95
(S'MPI_Init()'
p96
S'71'
p97
tp98
a(S'MPI_Comm_size()'
p99
S'72'
p100
tp101
a(S'MPI_Comm_rank()'
p102
S'73'
p103
tp104
a(S'MPI_Send()'
p105
S'83'
p106
tp107
a(S'MPI_Recv()'
p108
S'87'
p109
tp110
a(S'MPI_Recv()'
p111
S'94'
p112
tp113
a(S'MPI_Send()'
p114
S'99'
p115
tp116
a(S'MPI_Finalize()'
p117
S'102'
p118
tp119
asS'pfc/doc/Neptune/neptune-0.1.4/samples/mpi/hw2.c'
p120
(lp121
(S'MPI_Bcast()'
p122
S'26'
p123
tp124
a(S'MPI_Bcast()'
p125
S'33'
p126
tp127
a(S'MPI_Barrier()'
p128
S'39'
p129
tp130
a(S'MPI_Barrier()'
p131
S'47'
p132
tp133
a(S'MPI_Bcast()'
p134
S'104'
p135
tp136
a(S'MPI_Barrier()'
p137
S'105'
p138
tp139
a(S'MPI_Barrier()'
p140
S'118'
p141
tp142
a(S'MPI_Gather()'
p143
S'119'
p144
tp145
a(S'MPI_Barrier()'
p146
S'120'
p147
tp148
a(S'MPI_Barrier()'
p149
S'127'
p150
tp151
a(S'MPI_Barrier()'
p152
S'143'
p153
tp154
a(S'MPI_Barrier()'
p155
S'145'
p156
tp157
a(S'MPI_Barrier()'
p158
S'148'
p159
tp160
a(S'MPI_Init()'
p161
S'158'
p162
tp163
a(S'MPI_Comm_size()'
p164
S'160'
p165
tp166
a(S'MPI_Comm_rank()'
p167
S'161'
p168
tp169
a(S'MPI_Barrier()'
p170
S'163'
p171
tp172
a(S'MPI_Finalize()'
p173
S'166'
p174
tp175
a(S'MPI_Barrier()'
p176
S'169'
p177
tp178
a(S'MPI_Wtime()'
p179
S'172'
p180
tp181
a(S'MPI_Wtime()'
p182
S'176'
p183
tp184
a(S'MPI_Finalize()'
p185
S'201'
p186
tp187
as.