ccollections
defaultdict
p0
(c__builtin__
list
p1
tp2
Rp3
S'Parallel-Computing/Lab2/Lab2.cpp'
p4
(lp5
(S'MPI_Init()'
p6
S'99'
p7
tp8
a(S'MPI_Comm_rank()'
p9
S'100'
p10
tp11
a(S'MPI_Comm_size()'
p12
S'101'
p13
tp14
a(S'MPI_Bcast()'
p15
S'129'
p16
tp17
a(S'MPI_Scatter()'
p18
S'131'
p19
tp20
a(S'MPI_Bcast()'
p21
S'137'
p22
tp23
a(S'MPI_Scatter()'
p24
S'139'
p25
tp26
a(S'MPI_Recv()'
p27
S'150'
p28
tp29
a(S'MPI_Recv()'
p30
S'152'
p31
tp32
a(S'MPI_Send()'
p33
S'163'
p34
tp35
a(S'MPI_Send()'
p36
S'164'
p37
tp38
a(S'MPI_Finalize()'
p39
S'186'
p40
tp41
a(S'MPI_Init()'
p42
S'193'
p43
tp44
a(S'MPI_Comm_size()'
p45
S'194'
p46
tp47
a(S'MPI_Comm_rank()'
p48
S'195'
p49
tp50
a(S'MPI_Wtime()'
p51
S'207'
p52
tp53
a(S'MPI_Gather()'
p54
S'223'
p55
tp56
a(S'MPI_Finalize()'
p57
S'230'
p58
tp59
asS'Parallel-Computing/Lab1/lab.cpp'
p60
(lp61
(S'MPI_Init()'
p62
S'42'
p63
tp64
a(S'MPI_Finalize()'
p65
S'46'
p66
tp67
a(S'MPI_Comm_size()'
p68
S'55'
p69
tp70
a(S'MPI_Comm_rank()'
p71
S'56'
p72
tp73
a(S'MPI_Barrier()'
p74
S'80'
p75
tp76
a(S'MPI_Gather()'
p77
S'92'
p78
tp79
a(S'MPI_Barrier()'
p80
S'99'
p81
tp82
a(S'MPI_Gather()'
p83
S'116'
p84
tp85
a(S'MPI_Gather()'
p86
S'117'
p87
tp88
a(S'MPI_Barrier()'
p89
S'122'
p90
tp91
a(S'MPI_Wtime()'
p92
S'141'
p93
tp94
a(S'MPI_Scatter()'
p95
S'146'
p96
tp97
a(S'MPI_Barrier()'
p98
S'148'
p99
tp100
a(S'MPI_Isend()'
p101
S'152'
p102
tp103
a(S'MPI_Isend()'
p104
S'153'
p105
tp106
a(S'MPI_Irecv()'
p107
S'158'
p108
tp109
a(S'MPI_Irecv()'
p110
S'159'
p111
tp112
a(S'MPI_Barrier()'
p113
S'164'
p114
tp115
a(S'MPI_Scatter()'
p116
S'170'
p117
tp118
a(S'MPI_Barrier()'
p119
S'172'
p120
tp121
a(S'MPI_Isend()'
p122
S'176'
p123
tp124
a(S'MPI_Isend()'
p125
S'177'
p126
tp127
a(S'MPI_Irecv()'
p128
S'182'
p129
tp130
a(S'MPI_Irecv()'
p131
S'183'
p132
tp133
a(S'MPI_Barrier()'
p134
S'188'
p135
tp136
a(S'MPI_Barrier()'
p137
S'212'
p138
tp139
a(S'MPI_Gather()'
p140
S'214'
p141
tp142
a(S'MPI_Barrier()'
p143
S'220'
p144
tp145
a(S'MPI_Isend()'
p146
S'226'
p147
tp148
a(S'MPI_Isend()'
p149
S'227'
p150
tp151
a(S'MPI_Irecv()'
p152
S'232'
p153
tp154
a(S'MPI_Irecv()'
p155
S'233'
p156
tp157
a(S'MPI_Barrier()'
p158
S'237'
p159
tp160
a(S'MPI_Wtime()'
p161
S'269'
p162
tp163
a(S'MPI_Finalize()'
p164
S'285'
p165
tp166
asS'Parallel-Computing/2_sem/Obligatory/fft/tex/main.pdf'
p167
(lp168
(S'MPI_Init()'
p169
S'19'
p170
tp171
a(S'MPI_Comm_size()'
p172
S'20'
p173
tp174
a(S'MPI_Comm_rank()'
p175
S'21'
p176
tp177
a(S'MPI_Recv()'
p178
S'34'
p179
tp180
a(S'MPI_Send()'
p181
S'46'
p182
tp183
a(S'MPI_Finalize()'
p184
S'49'
p185
tp186
a(S'MPI_Init()'
p187
S'28'
p188
tp189
a(S'MPI_Comm_size()'
p190
S'29'
p191
tp192
a(S'MPI_Comm_rank()'
p193
S'30'
p194
tp195
a(S'MPI_Recv()'
p196
S'43'
p197
tp198
a(S'MPI_Send()'
p199
S'56'
p200
tp201
a(S'MPI_Finalize()'
p202
S'60'
p203
tp204
as.