ccollections
defaultdict
p0
(c__builtin__
list
p1
tp2
Rp3
S'librdpma/sys/octopus/src/test/mpibw.cpp'
p4
(lp5
(S'MPI_Recv()'
p6
S'44'
p7
tp8
a(S'MPI_Barrier()'
p9
S'65'
p10
tp11
a(S'MPI_Wtime()'
p12
S'67'
p13
tp14
a(S'MPI_Wtime()'
p15
S'81'
p16
tp17
a(S'MPI_Barrier()'
p18
S'83'
p19
tp20
a(S'MPI_Send()'
p21
S'88'
p22
tp23
a(S'MPI_Barrier()'
p24
S'131'
p25
tp26
a(S'MPI_Wtime()'
p27
S'133'
p28
tp29
a(S'MPI_Wtime()'
p30
S'142'
p31
tp32
a(S'MPI_Barrier()'
p33
S'144'
p34
tp35
a(S'MPI_Send()'
p36
S'149'
p37
tp38
a(S'MPI_Barrier()'
p39
S'156'
p40
tp41
a(S'MPI_Init()'
p42
S'172'
p43
tp44
a(S'MPI_Comm_rank()'
p45
S'173'
p46
tp47
a(S'MPI_Comm_size()'
p48
S'174'
p49
tp50
a(S'MPI_Barrier()'
p51
S'178'
p52
tp53
a(S'MPI_Barrier()'
p54
S'183'
p55
tp56
a(S'MPI_Barrier()'
p57
S'244'
p58
tp59
a(S'MPI_Finalize()'
p60
S'249'
p61
tp62
asS'librdpma/sys/octopus/src/test/mpitest.cpp'
p63
(lp64
(S'MPI_Recv()'
p65
S'132'
p66
tp67
a(S'MPI_Send()'
p68
S'147'
p69
tp70
a(S'MPI_Init()'
p71
S'163'
p72
tp73
a(S'MPI_Comm_rank()'
p74
S'164'
p75
tp76
a(S'MPI_Comm_size()'
p77
S'165'
p78
tp79
a(S'MPI_Wtime()'
p80
S'179'
p81
tp82
a(S'MPI_Wtime()'
p83
S'181'
p84
tp85
a(S'MPI_Wtime()'
p86
S'194'
p87
tp88
a(S'MPI_Wtime()'
p89
S'196'
p90
tp91
a(S'MPI_Wtime()'
p92
S'209'
p93
tp94
a(S'MPI_Wtime()'
p95
S'211'
p96
tp97
a(S'MPI_Wtime()'
p98
S'225'
p99
tp100
a(S'MPI_Wtime()'
p101
S'227'
p102
tp103
a(S'MPI_Wtime()'
p104
S'241'
p105
tp106
a(S'MPI_Wtime()'
p107
S'243'
p108
tp109
a(S'MPI_Wtime()'
p110
S'257'
p111
tp112
a(S'MPI_Wtime()'
p113
S'259'
p114
tp115
a(S'MPI_Finalize()'
p116
S'273'
p117
tp118
asS'librdpma/sys/octopus/src/test/locktest.cpp'
p119
(lp120
(S'MPI_Recv()'
p121
S'55'
p122
tp123
a(S'MPI_Wtime()'
p124
S'90'
p125
tp126
a(S'MPI_Wtime()'
p127
S'109'
p128
tp129
a(S'MPI_Send()'
p130
S'117'
p131
tp132
a(S'MPI_Init()'
p133
S'171'
p134
tp135
a(S'MPI_Comm_rank()'
p136
S'172'
p137
tp138
a(S'MPI_Comm_size()'
p139
S'173'
p140
tp141
a(S'MPI_Finalize()'
p142
S'242'
p143
tp144
as.