ccollections
defaultdict
p0
(c__builtin__
list
p1
tp2
Rp3
S'simgrid/examples/smpi/NAS/SP/y_solve.f'
p4
(lp5
(S'mpi_irecv()'
p6
S'58'
p7
tp8
a(S'mpi_waitall()'
p9
S'74'
p10
tp11
a(S'mpi_isend()'
p12
S'326'
p13
tp14
a(S'mpi_irecv()'
p15
S'363'
p16
tp17
a(S'mpi_waitall()'
p18
S'380'
p19
tp20
a(S'mpi_isend()'
p21
S'516'
p22
tp23
asS'simgrid/examples/smpi/bcast.c'
p24
(lp25
(S'MPI_Init()'
p26
S'17'
p27
tp28
a(S'MPI_Comm_size()'
p29
S'18'
p30
tp31
a(S'MPI_Comm_rank()'
p32
S'19'
p33
tp34
a(S'MPI_Wtime()'
p35
S'24'
p36
tp37
a(S'MPI_Bcast()'
p38
S'29'
p39
tp40
a(S'MPI_Barrier()'
p41
S'34'
p42
tp43
a(S'MPI_Wtime()'
p44
S'37'
p45
tp46
a(S'MPI_Finalize()'
p47
S'38'
p48
tp49
asS'simgrid/examples/smpi/NAS/BT/x_solve_vec.f'
p50
(lp51
(S'mpi_wait()'
p52
S'70'
p53
tp54
a(S'mpi_wait()'
p55
S'71'
p56
tp57
a(S'mpi_wait()'
p58
S'98'
p59
tp60
a(S'mpi_wait()'
p61
S'99'
p62
tp63
a(S'mpi_isend()'
p64
S'194'
p65
tp66
a(S'mpi_isend()'
p67
S'236'
p68
tp69
a(S'mpi_irecv()'
p70
S'291'
p71
tp72
a(S'mpi_irecv()'
p73
S'319'
p74
tp75
asS'simgrid/include/smpi/smpi.h'
p76
(lp77
(S'X_MPI_THREAD_SINGLE()'
p78
S'20'
p79
tp80
a(S'X_MPI_THREAD_FUNNELED()'
p81
S'21'
p82
tp83
a(S'X_MPI_THREAD_SERIALIZED()'
p84
S'22'
p85
tp86
a(S'X_MPI_THREAD_MULTIPLE()'
p87
S'23'
p88
tp89
a(S'X_MPI_MAX_PROCESSOR_NAME()'
p90
S'25'
p91
tp92
a(S'X_MPI_MAX_ERROR_STRING()'
p93
S'26'
p94
tp95
a(S'X_MPI_MAX_DATAREP_STRIN()'
p96
S'27'
p97
tp98
a(S'X_MPI_MAX_INFO_KEY()'
p99
S'28'
p100
tp101
a(S'X_MPI_MAX_INFO_VAL()'
p102
S'29'
p103
tp104
a(S'X_MPI_MAX_OBJECT_NAME()'
p105
S'30'
p106
tp107
a(S'X_MPI_MAX_PORT_NAME()'
p108
S'31'
p109
tp110
a(S'X_MPI_ANY_SOURCE()'
p111
S'33'
p112
tp113
a(S'X_MPI_PROC_NULL()'
p114
S'34'
p115
tp116
a(S'X_MPI_ANY_TAG()'
p117
S'35'
p118
tp119
a(S'X_MPI_UNDEFINED()'
p120
S'36'
p121
tp122
a(S'X_MPI_SUCCESS()'
p123
S'38'
p124
tp125
a(S'X_MPI_ERR_COMM()'
p126
S'39'
p127
tp128
a(S'X_MPI_ERR_ARG()'
p129
S'40'
p130
tp131
a(S'X_MPI_ERR_TYPE()'
p132
S'41'
p133
tp134
a(S'X_MPI_ERR_REQUEST()'
p135
S'42'
p136
tp137
a(S'X_MPI_ERR_INTERN()'
p138
S'43'
p139
tp140
a(S'X_MPI_ERR_COUNT()'
p141
S'44'
p142
tp143
a(S'X_MPI_ERR_RANK()'
p144
S'45'
p145
tp146
a(S'X_MPI_ERR_TAG()'
p147
S'46'
p148
tp149
a(S'X_MPI_ERR_TRUNCATE()'
p150
S'47'
p151
tp152
a(S'X_MPI_ERR_GROUP()'
p153
S'48'
p154
tp155
a(S'X_MPI_ERR_OP()'
p156
S'49'
p157
tp158
a(S'X_MPI_ERR_OTHER()'
p159
S'50'
p160
tp161
a(S'X_MPI_IDENT()'
p162
S'51'
p163
tp164
a(S'X_MPI_SIMILAR()'
p165
S'52'
p166
tp167
a(S'X_MPI_UNEQUAL()'
p168
S'53'
p169
tp170
a(S'X_MPI_CONGRUENT()'
p171
S'54'
p172
tp173
a(S'X_MPI_WTIME_IS_GLOBAL()'
p174
S'55'
p175
tp176
a(S'X_MPI_STATUS_IGNORE()'
p177
S'69'
p178
tp179
a(S'X_MPI_DATATYPE_NULL()'
p180
S'71'
p181
tp182
a(S'X_MPI_LONG_LONG_INT()'
p183
S'77'
p184
tp185
a(S'X_MPI_BYTE()'
p186
S'94'
p187
tp188
a(S'X_MPI_C_COMPLEX()'
p189
S'99'
p190
tp191
a(S'X_MPI_OP_NULL()'
p192
S'118'
p193
tp194
a(S'X_MPI_GROUP_NULL()'
p195
S'135'
p196
tp197
a(S'X_MPI_COMM_NULL()'
p198
S'142'
p199
tp200
a(S'X_MPI_COMM_SELF()'
p201
S'144'
p202
tp203
a(S'X_MPI_REQUEST_NULL()'
p204
S'149'
p205
tp206
a(S'MPI_CALL()'
p207
S'151'
p208
tp209
a(S'MPI_CALL()'
p210
S'152'
p211
tp212
a(S'MPI_CALL()'
p213
S'153'
p214
tp215
a(S'MPI_CALL()'
p216
S'156'
p217
tp218
a(S'MPI_CALL()'
p219
S'157'
p220
tp221
a(S'MPI_CALL()'
p222
S'158'
p223
tp224
a(S'MPI_CALL()'
p225
S'159'
p226
tp227
a(S'MPI_CALL()'
p228
S'161'
p229
tp230
a(S'MPI_CALL()'
p231
S'163'
p232
tp233
a(S'MPI_CALL()'
p234
S'164'
p235
tp236
a(S'MPI_CALL()'
p237
S'165'
p238
tp239
a(S'MPI_CALL()'
p240
S'168'
p241
tp242
a(S'MPI_CALL()'
p243
S'169'
p244
tp245
a(S'MPI_CALL()'
p246
S'170'
p247
tp248
a(S'MPI_CALL()'
p249
S'172'
p250
tp251
a(S'MPI_CALL()'
p252
S'175'
p253
tp254
a(S'MPI_CALL()'
p255
S'177'
p256
tp257
a(S'MPI_CALL()'
p258
S'178'
p259
tp260
a(S'MPI_CALL()'
p261
S'179'
p262
tp263
a(S'MPI_CALL()'
p264
S'180'
p265
tp266
a(S'MPI_CALL()'
p267
S'184'
p268
tp269
a(S'MPI_CALL()'
p270
S'187'
p271
tp272
a(S'MPI_CALL()'
p273
S'190'
p274
tp275
a(S'MPI_CALL()'
p276
S'193'
p277
tp278
a(S'MPI_CALL()'
p279
S'196'
p280
tp281
a(S'MPI_CALL()'
p282
S'199'
p283
tp284
a(S'MPI_CALL()'
p285
S'202'
p286
tp287
a(S'MPI_CALL()'
p288
S'205'
p289
tp290
a(S'MPI_CALL()'
p291
S'209'
p292
tp293
a(S'MPI_CALL()'
p294
S'210'
p295
tp296
a(S'MPI_CALL()'
p297
S'211'
p298
tp299
a(S'MPI_CALL()'
p300
S'212'
p301
tp302
a(S'MPI_CALL()'
p303
S'216'
p304
tp305
a(S'MPI_CALL()'
p306
S'217'
p307
tp308
a(S'MPI_CALL()'
p309
S'219'
p310
tp311
a(S'MPI_CALL()'
p312
S'220'
p313
tp314
a(S'MPI_CALL()'
p315
S'222'
p316
tp317
a(S'MPI_CALL()'
p318
S'223'
p319
tp320
a(S'MPI_CALL()'
p321
S'225'
p322
tp323
a(S'MPI_CALL()'
p324
S'229'
p325
tp326
a(S'MPI_CALL()'
p327
S'233'
p328
tp329
a(S'MPI_CALL()'
p330
S'234'
p331
tp332
a(S'MPI_CALL()'
p333
S'235'
p334
tp335
a(S'MPI_CALL()'
p336
S'236'
p337
tp338
a(S'MPI_CALL()'
p339
S'240'
p340
tp341
a(S'MPI_CALL()'
p342
S'244'
p343
tp344
a(S'MPI_CALL()'
p345
S'248'
p346
tp347
a(S'MPI_CALL()'
p348
S'251'
p349
tp350
a(S'MPI_CALL()'
p351
S'257'
p352
tp353
a(S'MPI_CALL()'
p354
S'263'
p355
tp356
a(S'MPI_CALL()'
p357
S'265'
p358
tp359
a(S'MPI_CALL()'
p360
S'268'
p361
tp362
a(S'MPI_CALL()'
p363
S'269'
p364
tp365
a(S'MPI_CALL()'
p366
S'272'
p367
tp368
a(S'MPI_CALL()'
p369
S'275'
p370
tp371
a(S'MPI_CALL()'
p372
S'280'
p373
tp374
a(S'MPI_CALL()'
p375
S'283'
p376
tp377
a(S'MPI_CALL()'
p378
S'284'
p379
tp380
a(S'MPI_CALL()'
p381
S'289'
p382
tp383
a(S'MPI_CALL()'
p384
S'295'
p385
tp386
a(S'MPI_CALL()'
p387
S'300'
p388
tp389
a(S'MPI_CALL()'
p390
S'305'
p391
tp392
a(S'MPI_CALL()'
p393
S'310'
p394
tp395
a(S'MPI_CALL()'
p396
S'315'
p397
tp398
a(S'MPI_CALL()'
p399
S'319'
p400
tp401
a(S'MPI_CALL()'
p402
S'323'
p403
tp404
a(S'MPI_CALL()'
p405
S'326'
p406
tp407
a(S'MPI_CALL()'
p408
S'330'
p409
tp410
a(S'MPI_CALL()'
p411
S'335'
p412
tp413
a(S'MPI_CALL()'
p414
S'349'
p415
tp416
a(S'MPI_CALL()'
p417
S'350'
p418
tp419
a(S'MPI_CALL()'
p420
S'351'
p421
tp422
a(S'MPI_CALL()'
p423
S'352'
p424
tp425
a(S'MPI_CALL()'
p426
S'353'
p427
tp428
a(S'MPI_CALL()'
p429
S'354'
p430
tp431
a(S'MPI_CALL()'
p432
S'355'
p433
tp434
a(S'MPI_CALL()'
p435
S'356'
p436
tp437
a(S'MPI_CALL()'
p438
S'357'
p439
tp440
a(S'MPI_CALL()'
p441
S'358'
p442
tp443
a(S'MPI_CALL()'
p444
S'359'
p445
tp446
a(S'MPI_CALL()'
p447
S'360'
p448
tp449
a(S'MPI_CALL()'
p450
S'361'
p451
tp452
a(S'MPI_CALL()'
p453
S'362'
p454
tp455
a(S'MPI_CALL()'
p456
S'363'
p457
tp458
a(S'MPI_CALL()'
p459
S'364'
p460
tp461
a(S'MPI_CALL()'
p462
S'365'
p463
tp464
a(S'MPI_CALL()'
p465
S'366'
p466
tp467
a(S'MPI_CALL()'
p468
S'367'
p469
tp470
a(S'MPI_CALL()'
p471
S'368'
p472
tp473
a(S'MPI_CALL()'
p474
S'369'
p475
tp476
a(S'MPI_CALL()'
p477
S'370'
p478
tp479
a(S'MPI_CALL()'
p480
S'371'
p481
tp482
a(S'MPI_CALL()'
p483
S'372'
p484
tp485
a(S'MPI_CALL()'
p486
S'373'
p487
tp488
a(S'MPI_CALL()'
p489
S'374'
p490
tp491
a(S'MPI_CALL()'
p492
S'375'
p493
tp494
a(S'MPI_CALL()'
p495
S'376'
p496
tp497
a(S'MPI_CALL()'
p498
S'377'
p499
tp500
a(S'MPI_CALL()'
p501
S'378'
p502
tp503
a(S'MPI_CALL()'
p504
S'379'
p505
tp506
a(S'MPI_CALL()'
p507
S'380'
p508
tp509
a(S'MPI_CALL()'
p510
S'381'
p511
tp512
a(S'MPI_CALL()'
p513
S'382'
p514
tp515
a(S'MPI_CALL()'
p516
S'383'
p517
tp518
a(S'MPI_CALL()'
p519
S'384'
p520
tp521
a(S'MPI_CALL()'
p522
S'385'
p523
tp524
a(S'MPI_CALL()'
p525
S'386'
p526
tp527
a(S'MPI_CALL()'
p528
S'387'
p529
tp530
a(S'MPI_CALL()'
p531
S'388'
p532
tp533
a(S'MPI_CALL()'
p534
S'389'
p535
tp536
a(S'MPI_CALL()'
p537
S'390'
p538
tp539
a(S'MPI_CALL()'
p540
S'391'
p541
tp542
a(S'MPI_CALL()'
p543
S'392'
p544
tp545
a(S'MPI_CALL()'
p546
S'393'
p547
tp548
a(S'MPI_CALL()'
p549
S'394'
p550
tp551
a(S'MPI_CALL()'
p552
S'395'
p553
tp554
a(S'MPI_CALL()'
p555
S'396'
p556
tp557
a(S'MPI_CALL()'
p558
S'397'
p559
tp560
a(S'MPI_CALL()'
p561
S'398'
p562
tp563
a(S'MPI_CALL()'
p564
S'399'
p565
tp566
a(S'MPI_CALL()'
p567
S'400'
p568
tp569
a(S'MPI_CALL()'
p570
S'401'
p571
tp572
a(S'MPI_CALL()'
p573
S'402'
p574
tp575
a(S'MPI_CALL()'
p576
S'403'
p577
tp578
a(S'MPI_CALL()'
p579
S'404'
p580
tp581
a(S'MPI_CALL()'
p582
S'405'
p583
tp584
a(S'MPI_CALL()'
p585
S'406'
p586
tp587
a(S'MPI_CALL()'
p588
S'407'
p589
tp590
a(S'MPI_CALL()'
p591
S'408'
p592
tp593
a(S'MPI_CALL()'
p594
S'409'
p595
tp596
asS'simgrid/examples/smpi/NAS/EP-trace/ep-trace.c'
p597
(lp598
(S'MPI_Wtime()'
p599
S'36'
p600
tp601
a(S'MPI_Init()'
p602
S'147'
p603
tp604
a(S'MPI_Comm_size()'
p605
S'148'
p606
tp607
a(S'MPI_Comm_rank()'
p608
S'149'
p609
tp610
a(S'MPI_Abort()'
p611
S'184'
p612
tp613
a(S'MPI_Barrier()'
p614
S'210'
p615
tp616
a(S'MPI_Allreduce()'
p617
S'345'
p618
tp619
a(S'MPI_Allreduce()'
p620
S'347'
p621
tp622
a(S'MPI_Allreduce()'
p623
S'349'
p624
tp625
a(S'MPI_Allreduce()'
p626
S'360'
p627
tp628
a(S'MPI_Finalize()'
p629
S'444'
p630
tp631
asS'simgrid/src/smpi/smpi_pmpi.c'
p632
(lp633
(S'MPI_Sendrecv()'
p634
S'998'
p635
tp636
asS'simgrid/examples/smpi/NAS/SP/copy_faces.f'
p637
(lp638
(S'mpi_irecv()'
p639
S'169'
p640
tp641
a(S'mpi_irecv()'
p642
S'172'
p643
tp644
a(S'mpi_irecv()'
p645
S'175'
p646
tp647
a(S'mpi_irecv()'
p648
S'178'
p649
tp650
a(S'mpi_irecv()'
p651
S'181'
p652
tp653
a(S'mpi_irecv()'
p654
S'184'
p655
tp656
a(S'mpi_isend()'
p657
S'188'
p658
tp659
a(S'mpi_isend()'
p660
S'191'
p661
tp662
a(S'mpi_isend()'
p663
S'194'
p664
tp665
a(S'mpi_isend()'
p666
S'197'
p667
tp668
a(S'mpi_isend()'
p669
S'200'
p670
tp671
a(S'mpi_isend()'
p672
S'203'
p673
tp674
a(S'mpi_waitall()'
p675
S'208'
p676
tp677
asS'simgrid/examples/smpi/NAS/BT/y_solve.f'
p678
(lp679
(S'mpi_wait()'
p680
S'69'
p681
tp682
a(S'mpi_wait()'
p683
S'70'
p684
tp685
a(S'mpi_wait()'
p686
S'97'
p687
tp688
a(S'mpi_wait()'
p689
S'98'
p690
tp691
a(S'mpi_isend()'
p692
S'193'
p693
tp694
a(S'mpi_isend()'
p695
S'235'
p696
tp697
a(S'mpi_irecv()'
p698
S'291'
p699
tp700
a(S'mpi_irecv()'
p701
S'318'
p702
tp703
asS'simgrid/examples/smpi/NAS/LU/error.f'
p704
(lp705
(S'MPI_ALLREDUCE()'
p706
S'53'
p707
tp708
asS'simgrid/examples/smpi/NAS/BT/make_set.f'
p709
(lp710
(S'MPI_Abort()'
p711
S'112'
p712
tp713
asS'simgrid/examples/smpi/smpi_traced.c'
p714
(lp715
(S'MPI_Init()'
p716
S'17'
p717
tp718
a(S'MPI_Comm_size()'
p719
S'18'
p720
tp721
a(S'MPI_Comm_rank()'
p722
S'19'
p723
tp724
a(S'MPI_Isend()'
p725
S'59'
p726
tp727
a(S'MPI_Wait()'
p728
S'60'
p729
tp730
a(S'MPI_Barrier()'
p731
S'62'
p732
tp733
a(S'MPI_Send()'
p734
S'66'
p735
tp736
a(S'MPI_Barrier()'
p737
S'68'
p738
tp739
a(S'MPI_Isend()'
p740
S'73'
p741
tp742
a(S'MPI_Wait()'
p743
S'76'
p744
tp745
a(S'MPI_Barrier()'
p746
S'79'
p747
tp748
a(S'MPI_Isend()'
p749
S'84'
p750
tp751
a(S'MPI_Waitany()'
p752
S'88'
p753
tp754
a(S'MPI_Barrier()'
p755
S'91'
p756
tp757
a(S'MPI_Send()'
p758
S'96'
p759
tp760
a(S'MPI_Barrier()'
p761
S'99'
p762
tp763
a(S'MPI_Send()'
p764
S'104'
p765
tp766
a(S'MPI_Barrier()'
p767
S'107'
p768
tp769
a(S'MPI_Isend()'
p770
S'112'
p771
tp772
a(S'MPI_Waitall()'
p773
S'114'
p774
tp775
a(S'MPI_Barrier()'
p776
S'116'
p777
tp778
a(S'MPI_Send()'
p779
S'121'
p780
tp781
a(S'MPI_Barrier()'
p782
S'124'
p783
tp784
a(S'MPI_Send()'
p785
S'130'
p786
tp787
a(S'MPI_Send()'
p788
S'132'
p789
tp790
a(S'MPI_Barrier()'
p791
S'135'
p792
tp793
a(S'MPI_Irecv()'
p794
S'138'
p795
tp796
a(S'MPI_Irecv()'
p797
S'141'
p798
tp799
a(S'MPI_Waitall()'
p800
S'145'
p801
tp802
a(S'MPI_Barrier()'
p803
S'147'
p804
tp805
a(S'MPI_Isend()'
p806
S'152'
p807
tp808
a(S'MPI_Test()'
p809
S'156'
p810
tp811
a(S'MPI_Wait()'
p812
S'159'
p813
tp814
a(S'MPI_Recv()'
p815
S'174'
p816
tp817
a(S'MPI_Barrier()'
p818
S'176'
p819
tp820
a(S'MPI_Irecv()'
p821
S'180'
p822
tp823
a(S'MPI_Wait()'
p824
S'181'
p825
tp826
a(S'MPI_Barrier()'
p827
S'183'
p828
tp829
a(S'MPI_Recv()'
p830
S'188'
p831
tp832
a(S'MPI_Barrier()'
p833
S'191'
p834
tp835
a(S'MPI_Recv()'
p836
S'196'
p837
tp838
a(S'MPI_Barrier()'
p839
S'199'
p840
tp841
a(S'MPI_Irecv()'
p842
S'204'
p843
tp844
a(S'MPI_Wait()'
p845
S'207'
p846
tp847
a(S'MPI_Barrier()'
p848
S'210'
p849
tp850
a(S'MPI_Irecv()'
p851
S'215'
p852
tp853
a(S'MPI_Waitany()'
p854
S'219'
p855
tp856
a(S'MPI_Barrier()'
p857
S'222'
p858
tp859
a(S'MPI_Recv()'
p860
S'227'
p861
tp862
a(S'MPI_Barrier()'
p863
S'230'
p864
tp865
a(S'MPI_Irecv()'
p866
S'235'
p867
tp868
a(S'MPI_Waitall()'
p869
S'237'
p870
tp871
a(S'MPI_Barrier()'
p872
S'239'
p873
tp874
a(S'MPI_Irecv()'
p875
S'244'
p876
tp877
a(S'MPI_Waitall()'
p878
S'246'
p879
tp880
a(S'MPI_Barrier()'
p881
S'248'
p882
tp883
a(S'MPI_Isend()'
p884
S'250'
p885
tp886
a(S'MPI_Waitall()'
p887
S'252'
p888
tp889
a(S'MPI_Barrier()'
p890
S'257'
p891
tp892
a(S'MPI_Irecv()'
p893
S'262'
p894
tp895
a(S'MPI_Test()'
p896
S'266'
p897
tp898
a(S'MPI_Wait()'
p899
S'269'
p900
tp901
a(S'MPI_Barrier()'
p902
S'284'
p903
tp904
a(S'MPI_Barrier()'
p905
S'287'
p906
tp907
a(S'MPI_Barrier()'
p908
S'290'
p909
tp910
a(S'MPI_Barrier()'
p911
S'293'
p912
tp913
a(S'MPI_Barrier()'
p914
S'296'
p915
tp916
a(S'MPI_Barrier()'
p917
S'299'
p918
tp919
a(S'MPI_Barrier()'
p920
S'302'
p921
tp922
a(S'MPI_Barrier()'
p923
S'305'
p924
tp925
a(S'MPI_Irecv()'
p926
S'309'
p927
tp928
a(S'MPI_Waitany()'
p929
S'313'
p930
tp931
a(S'MPI_Barrier()'
p932
S'315'
p933
tp934
a(S'MPI_Send()'
p935
S'318'
p936
tp937
a(S'MPI_Barrier()'
p938
S'321'
p939
tp940
a(S'MPI_Barrier()'
p941
S'325'
p942
tp943
a(S'MPI_Finalize()'
p944
S'326'
p945
tp946
asS'simgrid/examples/smpi/reduce.c'
p947
(lp948
(S'MPI_Reduce()'
p949
S'41'
p950
tp951
a(S'MPI_Init()'
p952
S'71'
p953
tp954
a(S'MPI_Comm_size()'
p955
S'72'
p956
tp957
a(S'MPI_Comm_rank()'
p958
S'73'
p959
tp960
a(S'MPI_Wtime()'
p961
S'78'
p962
tp963
a(S'MPI_Reduce()'
p964
S'83'
p965
tp966
a(S'MPI_Reduce()'
p967
S'84'
p968
tp969
a(S'MPI_Reduce()'
p970
S'87'
p971
tp972
a(S'MPI_Reduce()'
p973
S'88'
p974
tp975
a(S'MPI_Barrier()'
p976
S'111'
p977
tp978
a(S'MPI_Finalize()'
p979
S'122'
p980
tp981
asS'simgrid/examples/smpi/NAS/EP-sampling/ep.c'
p982
(lp983
(S'MPI_Wtime()'
p984
S'34'
p985
tp986
a(S'MPI_Init()'
p987
S'143'
p988
tp989
a(S'MPI_Comm_size()'
p990
S'144'
p991
tp992
a(S'MPI_Comm_rank()'
p993
S'145'
p994
tp995
a(S'MPI_Abort()'
p996
S'180'
p997
tp998
a(S'MPI_Barrier()'
p999
S'206'
p1000
tp1001
a(S'MPI_Allreduce()'
p1002
S'336'
p1003
tp1004
a(S'MPI_Allreduce()'
p1005
S'338'
p1006
tp1007
a(S'MPI_Allreduce()'
p1008
S'340'
p1009
tp1010
a(S'MPI_Allreduce()'
p1011
S'351'
p1012
tp1013
a(S'MPI_Finalize()'
p1014
S'435'
p1015
tp1016
asS'simgrid/examples/smpi/NAS/BT/full_mpiio.f'
p1017
(lp1018
(S'mpi_bcast()'
p1019
S'23'
p1020
tp1021
a(S'mpi_bcast()'
p1022
S'26'
p1023
tp1024
a(S'MPI_Info_create()'
p1025
S'34'
p1026
tp1027
a(S'MPI_Info_set()'
p1028
S'35'
p1029
tp1030
a(S'MPI_Info_set()'
p1031
S'36'
p1032
tp1033
a(S'MPI_Info_set()'
p1034
S'37'
p1035
tp1036
a(S'MPI_Type_contiguous()'
p1037
S'40'
p1038
tp1039
a(S'MPI_Type_commit()'
p1040
S'42'
p1041
tp1042
a(S'MPI_Type_extent()'
p1043
S'43'
p1044
tp1045
a(S'MPI_Type_create_subarray()'
p1046
S'79'
p1047
tp1048
a(S'MPI_Type_struct()'
p1049
S'94'
p1050
tp1051
a(S'MPI_Type_commit()'
p1052
S'96'
p1053
tp1054
a(S'MPI_Type_create_subarray()'
p1055
S'120'
p1056
tp1057
a(S'MPI_Type_struct()'
p1058
S'127'
p1059
tp1060
a(S'MPI_Type_commit()'
p1061
S'129'
p1062
tp1063
a(S'MPI_File_delete()'
p1064
S'133'
p1065
tp1066
a(S'MPI_Barrier()'
p1067
S'137'
p1068
tp1069
a(S'MPI_File_open()'
p1070
S'139'
p1071
tp1072
a(S'MPI_File_set_view()'
p1073
S'149'
p1074
tp1075
a(S'MPI_File_write_at_all()'
p1076
S'180'
p1077
tp1078
a(S'MPI_Type_size()'
p1079
S'187'
p1080
tp1081
a(S'MPI_File_read_at_all()'
p1082
S'223'
p1083
tp1084
a(S'MPI_File_close()'
p1085
S'227'
p1086
tp1087
a(S'MPI_Type_size()'
p1088
S'231'
p1089
tp1090
a(S'MPI_File_close()'
p1091
S'257'
p1092
tp1093
a(S'MPI_File_open()'
p1094
S'279'
p1095
tp1096
a(S'MPI_File_set_view()'
p1097
S'287'
p1098
tp1099
a(S'MPI_File_close()'
p1100
S'298'
p1101
tp1102
asS'simgrid/examples/smpi/NAS/SP/error.f'
p1103
(lp1104
(S'mpi_allreduce()'
p1105
S'50'
p1106
tp1107
a(S'mpi_allreduce()'
p1108
S'92'
p1109
tp1110
asS'simgrid/examples/smpi/NAS/DT/dt.c'
p1111
(lp1112
(S'MPI_Send()'
p1113
S'546'
p1114
tp1115
a(S'MPI_Send()'
p1116
S'547'
p1117
tp1118
a(S'MPI_Recv()'
p1119
S'568'
p1120
tp1121
a(S'MPI_Recv()'
p1122
S'570'
p1123
tp1124
a(S'MPI_Recv()'
p1125
S'616'
p1126
tp1127
a(S'MPI_Recv()'
p1128
S'618'
p1129
tp1130
a(S'MPI_Send()'
p1131
S'647'
p1132
tp1133
a(S'MPI_Recv()'
p1134
S'660'
p1135
tp1136
a(S'MPI_Init()'
p1137
S'675'
p1138
tp1139
a(S'MPI_Comm_rank()'
p1140
S'676'
p1141
tp1142
a(S'MPI_Comm_size()'
p1143
S'677'
p1144
tp1145
a(S'MPI_Finalize()'
p1146
S'693'
p1147
tp1148
a(S'MPI_Finalize()'
p1149
S'716'
p1150
tp1151
a(S'MPI_Finalize()'
p1152
S'757'
p1153
tp1154
asS'simgrid/examples/smpi/mc_bugged2.c'
p1155
(lp1156
(S'MPI_Init()'
p1157
S'20'
p1158
tp1159
a(S'MPI_Comm_size()'
p1160
S'26'
p1161
tp1162
a(S'MPI_Comm_rank()'
p1163
S'27'
p1164
tp1165
a(S'MPI_Finalize()'
p1166
S'30'
p1167
tp1168
a(S'MPI_Recv()'
p1169
S'35'
p1170
tp1171
a(S'MPI_Recv()'
p1172
S'37'
p1173
tp1174
a(S'MPI_Send()'
p1175
S'40'
p1176
tp1177
a(S'MPI_Finalize()'
p1178
S'44'
p1179
tp1180
asS'simgrid/examples/smpi/mvmul.c'
p1181
(lp1182
(S'MPI_Init()'
p1183
S'29'
p1184
tp1185
a(S'MPI_Comm_rank()'
p1186
S'31'
p1187
tp1188
a(S'MPI_Comm_size()'
p1189
S'32'
p1190
tp1191
a(S'MPI_Abort()'
p1192
S'39'
p1193
tp1194
a(S'MPI_Abort()'
p1195
S'71'
p1196
tp1197
a(S'MPI_Send()'
p1198
S'76'
p1199
tp1200
a(S'MPI_Recv()'
p1201
S'80'
p1202
tp1203
a(S'MPI_Send()'
p1204
S'94'
p1205
tp1206
a(S'MPI_Send()'
p1207
S'96'
p1208
tp1209
a(S'MPI_Abort()'
p1210
S'104'
p1211
tp1212
a(S'MPI_Recv()'
p1213
S'117'
p1214
tp1215
a(S'MPI_Recv()'
p1216
S'118'
p1217
tp1218
a(S'MPI_Send()'
p1219
S'130'
p1220
tp1221
a(S'MPI_Recv()'
p1222
S'135'
p1223
tp1224
a(S'MPI_Abort()'
p1225
S'144'
p1226
tp1227
a(S'MPI_Abort()'
p1228
S'151'
p1229
tp1230
a(S'MPI_Abort()'
p1231
S'161'
p1232
tp1233
a(S'MPI_Abort()'
p1234
S'175'
p1235
tp1236
a(S'MPI_Finalize()'
p1237
S'236'
p1238
tp1239
asS'simgrid/examples/smpi/NAS/LU/subdomain.f'
p1240
(lp1241
(S'MPI_ABORT()'
p1242
S'67'
p1243
tp1244
a(S'MPI_ABORT()'
p1245
S'81'
p1246
tp1247
asS'simgrid/examples/smpi/ttest01.c'
p1248
(lp1249
(S'MPI_Init()'
p1250
S'19'
p1251
tp1252
a(S'MPI_Comm_size()'
p1253
S'20'
p1254
tp1255
a(S'MPI_Comm_rank()'
p1256
S'21'
p1257
tp1258
a(S'MPI_Send()'
p1259
S'28'
p1260
tp1261
a(S'MPI_Recv()'
p1262
S'30'
p1263
tp1264
a(S'MPI_Recv()'
p1265
S'37'
p1266
tp1267
a(S'MPI_Send()'
p1268
S'39'
p1269
tp1270
a(S'MPI_Barrier()'
p1271
S'45'
p1272
tp1273
a(S'MPI_Finalize()'
p1274
S'46'
p1275
tp1276
asS'simgrid/examples/smpi/NAS/EP/ep.f'
p1277
(lp1278
(S'mpi_init()'
p1279
S'83'
p1280
tp1281
a(S'mpi_comm_rank()'
p1282
S'84'
p1283
tp1284
a(S'mpi_comm_size()'
p1285
S'85'
p1286
tp1287
a(S'mpi_abort()'
p1288
S'133'
p1289
tp1290
a(S'mpi_barrier()'
p1291
S'152'
p1292
tp1293
a(S'mpi_allreduce()'
p1294
S'237'
p1295
tp1296
a(S'mpi_allreduce()'
p1297
S'240'
p1298
tp1299
a(S'mpi_allreduce()'
p1300
S'243'
p1301
tp1302
a(S'mpi_allreduce()'
p1303
S'257'
p1304
tp1305
a(S'mpi_finalize()'
p1306
S'314'
p1307
tp1308
asS'simgrid/examples/smpi/NAS/EP/ep.c'
p1309
(lp1310
(S'MPI_Wtime()'
p1311
S'34'
p1312
tp1313
a(S'MPI_Init()'
p1314
S'143'
p1315
tp1316
a(S'MPI_Comm_size()'
p1317
S'144'
p1318
tp1319
a(S'MPI_Comm_rank()'
p1320
S'145'
p1321
tp1322
a(S'MPI_Abort()'
p1323
S'180'
p1324
tp1325
a(S'MPI_Barrier()'
p1326
S'206'
p1327
tp1328
a(S'MPI_Allreduce()'
p1329
S'336'
p1330
tp1331
a(S'MPI_Allreduce()'
p1332
S'338'
p1333
tp1334
a(S'MPI_Allreduce()'
p1335
S'340'
p1336
tp1337
a(S'MPI_Allreduce()'
p1338
S'351'
p1339
tp1340
a(S'MPI_Finalize()'
p1341
S'435'
p1342
tp1343
asS'simgrid/examples/smpi/alltoall_basic.c'
p1344
(lp1345
(S'MPI_Init()'
p1346
S'26'
p1347
tp1348
a(S'MPI_Comm_rank()'
p1349
S'27'
p1350
tp1351
a(S'MPI_Comm_size()'
p1352
S'28'
p1353
tp1354
a(S'MPI_Abort()'
p1355
S'34'
p1356
tp1357
a(S'MPI_Abort()'
p1358
S'41'
p1359
tp1360
a(S'MPI_Alltoall()'
p1361
S'47'
p1362
tp1363
a(S'MPI_Finalize()'
p1364
S'63'
p1365
tp1366
asS'simgrid/examples/smpi/NAS/BT/bt.f'
p1367
(lp1368
(S'mpi_bcast()'
p1369
S'134'
p1370
tp1371
a(S'mpi_bcast()'
p1372
S'137'
p1373
tp1374
a(S'mpi_bcast()'
p1375
S'140'
p1376
tp1377
a(S'mpi_bcast()'
p1378
S'143'
p1379
tp1380
a(S'mpi_bcast()'
p1381
S'146'
p1382
tp1383
a(S'mpi_barrier()'
p1384
S'185'
p1385
tp1386
a(S'mpi_reduce()'
p1387
S'225'
p1388
tp1389
a(S'mpi_reduce()'
p1390
S'232'
p1391
tp1392
a(S'mpi_barrier()'
p1393
S'271'
p1394
tp1395
a(S'mpi_finalize()'
p1396
S'272'
p1397
tp1398
asS'simgrid/examples/smpi/NAS/BT/simple_mpiio.f'
p1399
(lp1400
(S'MPI_File_delete()'
p1401
S'18'
p1402
tp1403
a(S'MPI_Barrier()'
p1404
S'21'
p1405
tp1406
a(S'MPI_File_open()'
p1407
S'23'
p1408
tp1409
a(S'MPI_File_set_view()'
p1410
S'30'
p1411
tp1412
a(S'MPI_File_write_at()'
p1413
S'72'
p1414
tp1415
a(S'MPI_File_read_at()'
p1416
S'125'
p1417
tp1418
a(S'MPI_File_close()'
p1419
S'132'
p1420
tp1421
a(S'MPI_File_close()'
p1422
S'163'
p1423
tp1424
a(S'MPI_File_open()'
p1425
S'184'
p1426
tp1427
a(S'MPI_File_set_view()'
p1428
S'192'
p1429
tp1430
a(S'MPI_File_close()'
p1431
S'204'
p1432
tp1433
asS'simgrid/examples/smpi/alltoallv.c'
p1434
(lp1435
(S'MPI_Init()'
p1436
S'75'
p1437
tp1438
a(S'MPI_Comm_size()'
p1439
S'81'
p1440
tp1441
a(S'MPI_Comm_rank()'
p1442
S'82'
p1443
tp1444
a(S'MPI_Abort()'
p1445
S'88'
p1446
tp1447
a(S'MPI_Abort()'
p1448
S'105'
p1449
tp1450
a(S'MPI_Alltoallv()'
p1451
S'136'
p1452
tp1453
a(S'MPI_Barrier()'
p1454
S'168'
p1455
tp1456
a(S'MPI_Finalize()'
p1457
S'169'
p1458
tp1459
asS'simgrid/examples/smpi/NAS/IS/is.c'
p1460
(lp1461
(S'MPI_Irecv()'
p1462
S'516'
p1463
tp1464
a(S'X_MPI_COMM_WORLD()'
p1465
S'521'
p1466
tp1467
a(S'MPI_Send()'
p1468
S'524'
p1469
tp1470
a(S'MPI_Wait()'
p1471
S'531'
p1472
tp1473
a(S'MPI_Allreduce()'
p1474
S'632'
p1475
tp1476
a(S'X_MPI_SUM()'
p1477
S'636'
p1478
tp1479
a(S'MPI_Alltoall()'
p1480
S'698'
p1481
tp1482
a(S'X_MPI_INT()'
p1483
S'700'
p1484
tp1485
a(S'X_MPI_INT()'
p1486
S'703'
p1487
tp1488
a(S'MPI_Alltoallv()'
p1489
S'713'
p1490
tp1491
a(S'MPI_Init()'
p1492
S'926'
p1493
tp1494
a(S'MPI_Comm_rank()'
p1495
S'927'
p1496
tp1497
a(S'MPI_Comm_size()'
p1498
S'928'
p1499
tp1500
a(S'MPI_Finalize()'
p1501
S'978'
p1502
tp1503
a(S'MPI_Finalize()'
p1504
S'990'
p1505
tp1506
a(S'MPI_Reduce()'
p1507
S'1047'
p1508
tp1509
a(S'X_MPI_DOUBLE()'
p1510
S'1050'
p1511
tp1512
a(S'X_MPI_MAX()'
p1513
S'1051'
p1514
tp1515
a(S'MPI_Reduce()'
p1516
S'1067'
p1517
tp1518
a(S'X_MPI_DOUBLE()'
p1519
S'1070'
p1520
tp1521
a(S'X_MPI_MIN()'
p1522
S'1071'
p1523
tp1524
a(S'MPI_Reduce()'
p1525
S'1074'
p1526
tp1527
a(S'X_MPI_DOUBLE()'
p1528
S'1077'
p1529
tp1530
a(S'X_MPI_SUM()'
p1531
S'1078'
p1532
tp1533
a(S'MPI_Reduce()'
p1534
S'1081'
p1535
tp1536
a(S'X_MPI_DOUBLE()'
p1537
S'1084'
p1538
tp1539
a(S'X_MPI_MAX()'
p1540
S'1085'
p1541
tp1542
a(S'MPI_Reduce()'
p1543
S'1104'
p1544
tp1545
a(S'X_MPI_INT()'
p1546
S'1107'
p1547
tp1548
a(S'X_MPI_SUM()'
p1549
S'1108'
p1550
tp1551
a(S'MPI_Finalize()'
p1552
S'1142'
p1553
tp1554
asS'simgrid//ChangeLog'
p1555
(lp1556
(S'X_MPI_FLOAT_INT()'
p1557
S'392'
p1558
tp1559
a(S'X_MPI_Bcast()'
p1560
S'718'
p1561
tp1562
asS'simgrid/examples/smpi/NAS/SP/setup_mpi.f'
p1563
(lp1564
(S'mpi_init()'
p1565
S'19'
p1566
tp1567
a(S'mpi_comm_size()'
p1568
S'21'
p1569
tp1570
a(S'mpi_comm_rank()'
p1571
S'22'
p1572
tp1573
a(S'mpi_comm_split()'
p1574
S'51'
p1575
tp1576
a(S'mpi_comm_size()'
p1577
S'54'
p1578
tp1579
a(S'mpi_comm_dup()'
p1580
S'55'
p1581
tp1582
a(S'mpi_comm_dup()'
p1583
S'56'
p1584
tp1585
asS'simgrid/examples/smpi/bcbench.c'
p1586
(lp1587
(S'MPI_Init()'
p1588
S'33'
p1589
tp1590
a(S'MPI_Comm_rank()'
p1591
S'35'
p1592
tp1593
a(S'MPI_Comm_size()'
p1594
S'36'
p1595
tp1596
a(S'MPI_Abort()'
p1597
S'53'
p1598
tp1599
a(S'MPI_Bcast()'
p1600
S'59'
p1601
tp1602
a(S'MPI_Recv()'
p1603
S'62'
p1604
tp1605
a(S'MPI_Send()'
p1606
S'66'
p1607
tp1608
a(S'MPI_Abort()'
p1609
S'73'
p1610
tp1611
a(S'MPI_Finalize()'
p1612
S'97'
p1613
tp1614
asS'simgrid/examples/smpi/NAS/BT/y_solve_vec.f'
p1615
(lp1616
(S'mpi_wait()'
p1617
S'69'
p1618
tp1619
a(S'mpi_wait()'
p1620
S'70'
p1621
tp1622
a(S'mpi_wait()'
p1623
S'97'
p1624
tp1625
a(S'mpi_wait()'
p1626
S'98'
p1627
tp1628
a(S'mpi_isend()'
p1629
S'193'
p1630
tp1631
a(S'mpi_isend()'
p1632
S'235'
p1633
tp1634
a(S'mpi_irecv()'
p1635
S'291'
p1636
tp1637
a(S'mpi_irecv()'
p1638
S'318'
p1639
tp1640
asS'simgrid/examples/smpi/allreduce.c'
p1641
(lp1642
(S'MPI_Allreduce()'
p1643
S'40'
p1644
tp1645
a(S'MPI_Barrier()'
p1646
S'41'
p1647
tp1648
a(S'MPI_Init()'
p1649
S'65'
p1650
tp1651
a(S'MPI_Comm_size()'
p1652
S'66'
p1653
tp1654
a(S'MPI_Comm_rank()'
p1655
S'67'
p1656
tp1657
a(S'MPI_Finalize()'
p1658
S'77'
p1659
tp1660
asS'simgrid/examples/smpi/NAS/BT/x_solve.f'
p1661
(lp1662
(S'mpi_wait()'
p1663
S'70'
p1664
tp1665
a(S'mpi_wait()'
p1666
S'71'
p1667
tp1668
a(S'mpi_wait()'
p1669
S'98'
p1670
tp1671
a(S'mpi_wait()'
p1672
S'99'
p1673
tp1674
a(S'mpi_isend()'
p1675
S'194'
p1676
tp1677
a(S'mpi_isend()'
p1678
S'236'
p1679
tp1680
a(S'mpi_irecv()'
p1681
S'291'
p1682
tp1683
a(S'mpi_irecv()'
p1684
S'319'
p1685
tp1686
asS'simgrid/examples/smpi/NAS/IS-trace/is-trace.c'
p1687
(lp1688
(S'MPI_Irecv()'
p1689
S'518'
p1690
tp1691
a(S'X_MPI_COMM_WORLD()'
p1692
S'523'
p1693
tp1694
a(S'MPI_Send()'
p1695
S'526'
p1696
tp1697
a(S'MPI_Wait()'
p1698
S'533'
p1699
tp1700
a(S'MPI_Allreduce()'
p1701
S'634'
p1702
tp1703
a(S'X_MPI_SUM()'
p1704
S'638'
p1705
tp1706
a(S'MPI_Alltoall()'
p1707
S'700'
p1708
tp1709
a(S'X_MPI_INT()'
p1710
S'702'
p1711
tp1712
a(S'X_MPI_INT()'
p1713
S'705'
p1714
tp1715
a(S'MPI_Alltoallv()'
p1716
S'715'
p1717
tp1718
a(S'MPI_Init()'
p1719
S'928'
p1720
tp1721
a(S'MPI_Comm_rank()'
p1722
S'929'
p1723
tp1724
a(S'MPI_Comm_size()'
p1725
S'930'
p1726
tp1727
a(S'MPI_Finalize()'
p1728
S'980'
p1729
tp1730
a(S'MPI_Finalize()'
p1731
S'992'
p1732
tp1733
a(S'MPI_Reduce()'
p1734
S'1053'
p1735
tp1736
a(S'X_MPI_DOUBLE()'
p1737
S'1056'
p1738
tp1739
a(S'X_MPI_MAX()'
p1740
S'1057'
p1741
tp1742
a(S'MPI_Reduce()'
p1743
S'1073'
p1744
tp1745
a(S'X_MPI_DOUBLE()'
p1746
S'1076'
p1747
tp1748
a(S'X_MPI_MIN()'
p1749
S'1077'
p1750
tp1751
a(S'MPI_Reduce()'
p1752
S'1080'
p1753
tp1754
a(S'X_MPI_DOUBLE()'
p1755
S'1083'
p1756
tp1757
a(S'X_MPI_SUM()'
p1758
S'1084'
p1759
tp1760
a(S'MPI_Reduce()'
p1761
S'1087'
p1762
tp1763
a(S'X_MPI_DOUBLE()'
p1764
S'1090'
p1765
tp1766
a(S'X_MPI_MAX()'
p1767
S'1091'
p1768
tp1769
a(S'MPI_Reduce()'
p1770
S'1110'
p1771
tp1772
a(S'X_MPI_INT()'
p1773
S'1113'
p1774
tp1775
a(S'X_MPI_SUM()'
p1776
S'1114'
p1777
tp1778
a(S'MPI_Finalize()'
p1779
S'1148'
p1780
tp1781
asS'simgrid/examples/smpi/NAS/BT/z_solve_vec.f'
p1782
(lp1783
(S'mpi_wait()'
p1784
S'67'
p1785
tp1786
a(S'mpi_wait()'
p1787
S'68'
p1788
tp1789
a(S'mpi_wait()'
p1790
S'95'
p1791
tp1792
a(S'mpi_wait()'
p1793
S'96'
p1794
tp1795
a(S'mpi_isend()'
p1796
S'190'
p1797
tp1798
a(S'mpi_isend()'
p1799
S'233'
p1800
tp1801
a(S'mpi_irecv()'
p1802
S'290'
p1803
tp1804
a(S'mpi_irecv()'
p1805
S'318'
p1806
tp1807
asS'simgrid/examples/smpi/NAS/LU/exchange_6.f'
p1808
(lp1809
(S'MPI_IRECV()'
p1810
S'45'
p1811
tp1812
a(S'MPI_WAIT()'
p1813
S'54'
p1814
tp1815
a(S'MPI_SEND()'
p1816
S'70'
p1817
tp1818
asS'simgrid/examples/smpi/barrier.c'
p1819
(lp1820
(S'MPI_Init()'
p1821
S'18'
p1822
tp1823
a(S'MPI_Comm_size()'
p1824
S'19'
p1825
tp1826
a(S'MPI_Comm_rank()'
p1827
S'20'
p1828
tp1829
a(S'MPI_Wtime()'
p1830
S'22'
p1831
tp1832
a(S'MPI_Barrier()'
p1833
S'24'
p1834
tp1835
a(S'MPI_Barrier()'
p1836
S'26'
p1837
tp1838
a(S'MPI_Finalize()'
p1839
S'32'
p1840
tp1841
asS'simgrid/examples/smpi/NAS/common/c_timers.c'
p1842
(lp1843
(S'MPI_Wtime()'
p1844
S'31'
p1845
tp1846
asS'simgrid/examples/smpi/NAS/MG/mg.f'
p1847
(lp1848
(S'mpi_init()'
p1849
S'85'
p1850
tp1851
a(S'mpi_comm_rank()'
p1852
S'86'
p1853
tp1854
a(S'mpi_comm_size()'
p1855
S'87'
p1856
tp1857
a(S'mpi_abort()'
p1858
S'94'
p1859
tp1860
a(S'mpi_barrier()'
p1861
S'108'
p1862
tp1863
a(S'mpi_bcast()'
p1864
S'142'
p1865
tp1866
a(S'mpi_bcast()'
p1867
S'143'
p1868
tp1869
a(S'mpi_bcast()'
p1870
S'144'
p1871
tp1872
a(S'mpi_bcast()'
p1873
S'145'
p1874
tp1875
a(S'mpi_bcast()'
p1876
S'146'
p1877
tp1878
a(S'mpi_bcast()'
p1879
S'147'
p1880
tp1881
a(S'mpi_barrier()'
p1882
S'253'
p1883
tp1884
a(S'mpi_reduce()'
p1885
S'278'
p1886
tp1887
a(S'mpi_finalize()'
p1888
S'349'
p1889
tp1890
a(S'mpi_barrier()'
p1891
S'491'
p1892
tp1893
a(S'mpi_barrier()'
p1894
S'512'
p1895
tp1896
a(S'mpi_allreduce()'
p1897
S'1026'
p1898
tp1899
a(S'mpi_allreduce()'
p1900
S'1029'
p1901
tp1902
a(S'mpi_irecv()'
p1903
S'1185'
p1904
tp1905
a(S'mpi_send()'
p1906
S'1226'
p1907
tp1908
a(S'mpi_send()'
p1909
S'1240'
p1910
tp1911
a(S'mpi_send()'
p1912
S'1258'
p1913
tp1914
a(S'mpi_send()'
p1915
S'1272'
p1916
tp1917
a(S'mpi_send()'
p1918
S'1290'
p1919
tp1920
a(S'mpi_send()'
p1921
S'1304'
p1922
tp1923
a(S'mpi_wait()'
p1924
S'1340'
p1925
tp1926
a(S'mpi_send()'
p1927
S'1447'
p1928
tp1929
a(S'mpi_send()'
p1930
S'1463'
p1931
tp1932
a(S'mpi_send()'
p1933
S'1481'
p1934
tp1935
a(S'mpi_send()'
p1936
S'1497'
p1937
tp1938
a(S'mpi_send()'
p1939
S'1515'
p1940
tp1941
a(S'mpi_send()'
p1942
S'1531'
p1943
tp1944
a(S'mpi_wait()'
p1945
S'1567'
p1946
tp1947
a(S'mpi_barrier()'
p1948
S'2114'
p1949
tp1950
a(S'mpi_allreduce()'
p1951
S'2124'
p1952
tp1953
a(S'mpi_allreduce()'
p1954
S'2140'
p1955
tp1956
a(S'mpi_allreduce()'
p1957
S'2148'
p1958
tp1959
a(S'mpi_allreduce()'
p1960
S'2164'
p1961
tp1962
a(S'mpi_barrier()'
p1963
S'2193'
p1964
tp1965
a(S'mpi_barrier()'
p1966
S'2249'
p1967
tp1968
a(S'mpi_barrier()'
p1969
S'2288'
p1970
tp1971
a(S'mpi_barrier()'
p1972
S'2321'
p1973
tp1974
asS'simgrid/examples/smpi/NAS/BT/z_solve.f'
p1975
(lp1976
(S'mpi_wait()'
p1977
S'67'
p1978
tp1979
a(S'mpi_wait()'
p1980
S'68'
p1981
tp1982
a(S'mpi_wait()'
p1983
S'95'
p1984
tp1985
a(S'mpi_wait()'
p1986
S'96'
p1987
tp1988
a(S'mpi_isend()'
p1989
S'190'
p1990
tp1991
a(S'mpi_isend()'
p1992
S'233'
p1993
tp1994
a(S'mpi_irecv()'
p1995
S'290'
p1996
tp1997
a(S'mpi_irecv()'
p1998
S'318'
p1999
tp2000
asS'simgrid/examples/smpi/alltoall2.c'
p2001
(lp2002
(S'MPI_Init()'
p2003
S'58'
p2004
tp2005
a(S'MPI_Comm_rank()'
p2006
S'59'
p2007
tp2008
a(S'MPI_Comm_size()'
p2009
S'60'
p2010
tp2011
a(S'MPI_Alltoall()'
p2012
S'68'
p2013
tp2014
a(S'MPI_Barrier()'
p2015
S'80'
p2016
tp2017
a(S'MPI_Finalize()'
p2018
S'83'
p2019
tp2020
asS'simgrid/examples/smpi/NAS/BT/error.f'
p2021
(lp2022
(S'mpi_allreduce()'
p2023
S'49'
p2024
tp2025
a(S'mpi_allreduce()'
p2026
S'94'
p2027
tp2028
asS'simgrid/examples/smpi/get_processor_name.c'
p2029
(lp2030
(S'MPI_Init()'
p2031
S'17'
p2032
tp2033
a(S'MPI_Comm_size()'
p2034
S'18'
p2035
tp2036
a(S'MPI_Comm_rank()'
p2037
S'19'
p2038
tp2039
a(S'MPI_Get_processor_name()'
p2040
S'21'
p2041
tp2042
a(S'MPI_Finalize()'
p2043
S'23'
p2044
tp2045
asS'simgrid/examples/smpi/NAS/LU/bcast_inputs.f'
p2046
(lp2047
(S'MPI_BCAST()'
p2048
S'28'
p2049
tp2050
a(S'MPI_BCAST()'
p2051
S'29'
p2052
tp2053
a(S'MPI_BCAST()'
p2054
S'30'
p2055
tp2056
a(S'MPI_BCAST()'
p2057
S'31'
p2058
tp2059
a(S'MPI_BCAST()'
p2060
S'32'
p2061
tp2062
a(S'MPI_BCAST()'
p2063
S'33'
p2064
tp2065
a(S'MPI_BCAST()'
p2066
S'34'
p2067
tp2068
a(S'MPI_BCAST()'
p2069
S'35'
p2070
tp2071
a(S'MPI_BCAST()'
p2072
S'36'
p2073
tp2074
asS'simgrid/examples/smpi/pingpong.c'
p2075
(lp2076
(S'MPI_Init()'
p2077
S'22'
p2078
tp2079
a(S'MPI_Comm_size()'
p2080
S'27'
p2081
tp2082
a(S'MPI_Comm_rank()'
p2083
S'28'
p2084
tp2085
a(S'MPI_Finalize()'
p2086
S'31'
p2087
tp2088
a(S'MPI_Send()'
p2089
S'48'
p2090
tp2091
a(S'MPI_Recv()'
p2092
S'50'
p2093
tp2094
a(S'MPI_Recv()'
p2095
S'57'
p2096
tp2097
a(S'MPI_Send()'
p2098
S'64'
p2099
tp2100
a(S'MPI_Finalize()'
p2101
S'67'
p2102
tp2103
asS'simgrid/examples/smpi/NAS/DT-folding/dt.c'
p2104
(lp2105
(S'MPI_Send()'
p2106
S'546'
p2107
tp2108
a(S'MPI_Send()'
p2109
S'547'
p2110
tp2111
a(S'MPI_Recv()'
p2112
S'568'
p2113
tp2114
a(S'MPI_Recv()'
p2115
S'570'
p2116
tp2117
a(S'MPI_Recv()'
p2118
S'616'
p2119
tp2120
a(S'MPI_Recv()'
p2121
S'618'
p2122
tp2123
a(S'MPI_Send()'
p2124
S'647'
p2125
tp2126
a(S'MPI_Recv()'
p2127
S'660'
p2128
tp2129
a(S'MPI_Init()'
p2130
S'675'
p2131
tp2132
a(S'MPI_Comm_rank()'
p2133
S'676'
p2134
tp2135
a(S'MPI_Comm_size()'
p2136
S'677'
p2137
tp2138
a(S'MPI_Finalize()'
p2139
S'693'
p2140
tp2141
a(S'MPI_Finalize()'
p2142
S'716'
p2143
tp2144
a(S'MPI_Finalize()'
p2145
S'757'
p2146
tp2147
asS'simgrid/examples/smpi/compute.c'
p2148
(lp2149
(S'MPI_Init()'
p2150
S'14'
p2151
tp2152
a(S'MPI_Comm_rank()'
p2153
S'24'
p2154
tp2155
a(S'MPI_Finalize()'
p2156
S'25'
p2157
tp2158
asS'simgrid/src/smpi/sample/reduce.c'
p2159
(lp2160
(S'MPI_Init()'
p2161
S'20'
p2162
tp2163
a(S'MPI_Comm_size()'
p2164
S'21'
p2165
tp2166
a(S'MPI_Comm_rank()'
p2167
S'22'
p2168
tp2169
a(S'MPI_Wtime()'
p2170
S'24'
p2171
tp2172
a(S'MPI_Reduce()'
p2173
S'27'
p2174
tp2175
a(S'MPI_Finalize()'
p2176
S'32'
p2177
tp2178
asS'simgrid/examples/smpi/NAS/SP/sp.f'
p2179
(lp2180
(S'mpi_bcast()'
p2181
S'101'
p2182
tp2183
a(S'mpi_bcast()'
p2184
S'104'
p2185
tp2186
a(S'mpi_bcast()'
p2187
S'107'
p2188
tp2189
a(S'mpi_barrier()'
p2190
S'145'
p2191
tp2192
a(S'mpi_reduce()'
p2193
S'169'
p2194
tp2195
a(S'mpi_barrier()'
p2196
S'191'
p2197
tp2198
a(S'mpi_finalize()'
p2199
S'192'
p2200
tp2201
asS'simgrid/examples/smpi/NAS/MPI_dummy/mpi.h'
p2202
(lp2203
(S'X_MPI_DOUBLE()'
p2204
S'1'
p2205
tp2206
a(S'X_MPI_INT()'
p2207
S'2'
p2208
tp2209
a(S'X_MPI_BYTE()'
p2210
S'3'
p2211
tp2212
a(S'X_MPI_FLOAT()'
p2213
S'4'
p2214
tp2215
a(S'X_MPI_LONG()'
p2216
S'5'
p2217
tp2218
a(S'X_MPI_COMM_WORLD()'
p2219
S'7'
p2220
tp2221
a(S'X_MPI_MAX()'
p2222
S'9'
p2223
tp2224
a(S'X_MPI_SUM()'
p2225
S'10'
p2226
tp2227
a(S'X_MPI_MIN()'
p2228
S'11'
p2229
tp2230
a(S'X_MPI_SUCCESS()'
p2231
S'13'
p2232
tp2233
a(S'X_MPI_ANY_SOURCE()'
p2234
S'14'
p2235
tp2236
a(S'X_MPI_ERR_OTHER()'
p2237
S'15'
p2238
tp2239
a(S'X_MPI_STATUS_SIZE()'
p2240
S'16'
p2241
tp2242
asS'simgrid/examples/smpi/NAS/DT-trace/dt.c'
p2243
(lp2244
(S'MPI_Send()'
p2245
S'549'
p2246
tp2247
a(S'MPI_Send()'
p2248
S'550'
p2249
tp2250
a(S'MPI_Recv()'
p2251
S'572'
p2252
tp2253
a(S'MPI_Recv()'
p2254
S'574'
p2255
tp2256
a(S'MPI_Recv()'
p2257
S'622'
p2258
tp2259
a(S'MPI_Recv()'
p2260
S'624'
p2261
tp2262
a(S'MPI_Send()'
p2263
S'656'
p2264
tp2265
a(S'MPI_Recv()'
p2266
S'673'
p2267
tp2268
a(S'MPI_Init()'
p2269
S'690'
p2270
tp2271
a(S'MPI_Comm_rank()'
p2272
S'691'
p2273
tp2274
a(S'MPI_Comm_size()'
p2275
S'692'
p2276
tp2277
a(S'MPI_Finalize()'
p2278
S'709'
p2279
tp2280
a(S'MPI_Finalize()'
p2281
S'732'
p2282
tp2283
a(S'MPI_Finalize()'
p2284
S'775'
p2285
tp2286
asS'simgrid/examples/smpi/NAS/LU/exchange_5.f'
p2287
(lp2288
(S'MPI_IRECV()'
p2289
S'45'
p2290
tp2291
a(S'MPI_WAIT()'
p2292
S'54'
p2293
tp2294
a(S'MPI_SEND()'
p2295
S'70'
p2296
tp2297
asS'simgrid/examples/smpi/NAS/LU/exchange_3.f'
p2298
(lp2299
(S'MPI_IRECV()'
p2300
S'42'
p2301
tp2302
a(S'MPI_SEND()'
p2303
S'73'
p2304
tp2305
a(S'MPI_WAIT()'
p2306
S'86'
p2307
tp2308
a(S'MPI_IRECV()'
p2309
S'108'
p2310
tp2311
a(S'MPI_SEND()'
p2312
S'139'
p2313
tp2314
a(S'MPI_WAIT()'
p2315
S'152'
p2316
tp2317
a(S'MPI_IRECV()'
p2318
S'178'
p2319
tp2320
a(S'MPI_SEND()'
p2321
S'209'
p2322
tp2323
a(S'MPI_WAIT()'
p2324
S'222'
p2325
tp2326
a(S'MPI_IRECV()'
p2327
S'244'
p2328
tp2329
a(S'MPI_SEND()'
p2330
S'275'
p2331
tp2332
a(S'MPI_WAIT()'
p2333
S'288'
p2334
tp2335
asS'simgrid/examples/smpi/sendrecv.c'
p2336
(lp2337
(S'MPI_Sendrecv()'
p2338
S'35'
p2339
tp2340
a(S'MPI_Init()'
p2341
S'53'
p2342
tp2343
a(S'MPI_Comm_size()'
p2344
S'54'
p2345
tp2346
a(S'MPI_Comm_rank()'
p2347
S'55'
p2348
tp2349
a(S'MPI_Finalize()'
p2350
S'68'
p2351
tp2352
asS'simgrid/examples/smpi/NAS/LU/init_comm.f'
p2353
(lp2354
(S'MPI_INIT()'
p2355
S'31'
p2356
tp2357
a(S'MPI_COMM_RANK()'
p2358
S'36'
p2359
tp2360
a(S'MPI_COMM_SIZE()'
p2361
S'43'
p2362
tp2363
asS'simgrid/examples/smpi/NAS/MPI_dummy/mpi_dummy.f'
p2364
(lp2365
(S'mpi_error()'
p2366
g2217
tp2367
a(S'mpi_error()'
p2368
S'13'
p2369
tp2370
a(S'mpi_error()'
p2371
S'19'
p2372
tp2373
a(S'mpi_error()'
p2374
S'27'
p2375
tp2376
a(S'mpi_reduce_dp()'
p2377
S'117'
p2378
tp2379
a(S'mpi_reduce_dc()'
p2380
S'120'
p2381
tp2382
a(S'mpi_reduce_complex()'
p2383
S'123'
p2384
tp2385
a(S'mpi_reduce_real()'
p2386
S'126'
p2387
tp2388
a(S'mpi_reduce_int()'
p2389
S'129'
p2390
tp2391
a(S'mpi_reduce()'
p2392
S'205'
p2393
tp2394
a(S'mpi_alltoall_dp()'
p2395
S'217'
p2396
tp2397
a(S'mpi_alltoall_dc()'
p2398
S'220'
p2399
tp2400
a(S'mpi_alltoall_complex()'
p2401
S'223'
p2402
tp2403
a(S'mpi_alltoall_real()'
p2404
S'226'
p2405
tp2406
a(S'mpi_alltoall_int()'
p2407
S'229'
p2408
tp2409
a(S'mpi_error()'
p2410
S'300'
p2411
tp2412
a(S'mpi_error()'
p2413
S'306'
p2414
tp2415
asS'simgrid/examples/smpi/NAS/FT/ft.f'
p2416
(lp2417
(S'MPI_Init()'
p2418
S'119'
p2419
tp2420
a(S'MPI_Barrier()'
p2421
S'144'
p2422
tp2423
a(S'MPI_Finalize()'
p2424
S'193'
p2425
tp2426
a(S'MPI_Comm_size()'
p2427
S'355'
p2428
tp2429
a(S'MPI_Comm_rank()'
p2430
S'356'
p2431
tp2432
a(S'MPI_Abort()'
p2433
S'391'
p2434
tp2435
a(S'MPI_Abort()'
p2436
S'404'
p2437
tp2438
a(S'MPI_Abort()'
p2439
S'415'
p2440
tp2441
a(S'MPI_Abort()'
p2442
S'424'
p2443
tp2444
a(S'MPI_Abort()'
p2445
S'450'
p2446
tp2447
a(S'MPI_BCAST()'
p2448
S'483'
p2449
tp2450
a(S'MPI_BCAST()'
p2451
S'484'
p2452
tp2453
a(S'MPI_Comm_split()'
p2454
S'546'
p2455
tp2456
a(S'MPI_Comm_split()'
p2457
S'547'
p2458
tp2459
a(S'mpi_alltoall()'
p2460
S'1327'
p2461
tp2462
a(S'mpi_alltoall()'
p2463
S'1487'
p2464
tp2465
a(S'mpi_alltoall()'
p2466
S'1627'
p2467
tp2468
a(S'MPI_Reduce()'
p2469
S'1713'
p2470
tp2471
a(S'mpi_barrier()'
p2472
S'1741'
p2473
tp2474
a(S'MPI_COMM_SIZE()'
p2475
S'1962'
p2476
tp2477
asS'simgrid/examples/smpi/scatter.c'
p2478
(lp2479
(S'MPI_Scatter()'
p2480
S'48'
p2481
tp2482
a(S'MPI_Barrier()'
p2483
S'61'
p2484
tp2485
a(S'MPI_Scatter()'
p2486
S'88'
p2487
tp2488
a(S'X_MPI_DOUBLE()'
p2489
S'89'
p2490
tp2491
a(S'MPI_Init()'
p2492
S'110'
p2493
tp2494
a(S'MPI_Comm_size()'
p2495
S'111'
p2496
tp2497
a(S'MPI_Comm_rank()'
p2498
S'112'
p2499
tp2500
a(S'MPI_Barrier()'
p2501
S'123'
p2502
tp2503
a(S'MPI_Finalize()'
p2504
S'133'
p2505
tp2506
asS'simgrid/examples/smpi/NAS/SP/z_solve.f'
p2507
(lp2508
(S'mpi_irecv()'
p2509
S'58'
p2510
tp2511
a(S'mpi_waitall()'
p2512
S'73'
p2513
tp2514
a(S'mpi_isend()'
p2515
S'323'
p2516
tp2517
a(S'mpi_irecv()'
p2518
S'360'
p2519
tp2520
a(S'mpi_waitall()'
p2521
S'377'
p2522
tp2523
a(S'mpi_isend()'
p2524
S'510'
p2525
tp2526
asS'simgrid/examples/smpi/NAS/LU/l2norm.f'
p2527
(lp2528
(S'MPI_ALLREDUCE()'
p2529
S'55'
p2530
tp2531
asS'simgrid/examples/smpi/NAS/SP/make_set.f'
p2532
(lp2533
(S'MPI_Abort()'
p2534
S'112'
p2535
tp2536
asS'simgrid/examples/smpi/NAS/SP/x_solve.f'
p2537
(lp2538
(S'mpi_irecv()'
p2539
S'63'
p2540
tp2541
a(S'mpi_waitall()'
p2542
S'81'
p2543
tp2544
a(S'mpi_isend()'
p2545
S'335'
p2546
tp2547
a(S'mpi_irecv()'
p2548
S'371'
p2549
tp2550
a(S'mpi_waitall()'
p2551
S'388'
p2552
tp2553
a(S'mpi_isend()'
p2554
S'523'
p2555
tp2556
asS'simgrid/examples/smpi/NAS/LU/exchange_1.f'
p2557
(lp2558
(S'MPI_RECV()'
p2559
S'30'
p2560
tp2561
a(S'MPI_RECV()'
p2562
S'48'
p2563
tp2564
a(S'MPI_RECV()'
p2565
S'68'
p2566
tp2567
a(S'MPI_RECV()'
p2568
S'86'
p2569
tp2570
a(S'MPI_SEND()'
p2571
S'113'
p2572
tp2573
a(S'MPI_SEND()'
p2574
S'130'
p2575
tp2576
a(S'MPI_SEND()'
p2577
S'149'
p2578
tp2579
a(S'MPI_SEND()'
p2580
S'166'
p2581
tp2582
asS'simgrid/examples/smpi/NAS/BT/setup_mpi.f'
p2583
(lp2584
(S'mpi_init()'
p2585
S'19'
p2586
tp2587
a(S'mpi_comm_size()'
p2588
S'21'
p2589
tp2590
a(S'mpi_comm_rank()'
p2591
S'22'
p2592
tp2593
a(S'mpi_comm_split()'
p2594
S'50'
p2595
tp2596
a(S'mpi_comm_size()'
p2597
S'53'
p2598
tp2599
a(S'mpi_comm_dup()'
p2600
S'54'
p2601
tp2602
a(S'mpi_comm_dup()'
p2603
S'55'
p2604
tp2605
asS'simgrid/examples/smpi/NAS/CG/cg.f'
p2606
(lp2607
(S'mpi_irecv()'
p2608
S'394'
p2609
tp2610
a(S'mpi_send()'
p2611
S'402'
p2612
tp2613
a(S'mpi_wait()'
p2614
S'409'
p2615
tp2616
a(S'mpi_barrier()'
p2617
S'444'
p2618
tp2619
a(S'mpi_irecv()'
p2620
S'492'
p2621
tp2622
a(S'mpi_send()'
p2623
S'500'
p2624
tp2625
a(S'mpi_wait()'
p2626
S'507'
p2627
tp2628
a(S'mpi_reduce()'
p2629
S'542'
p2630
tp2631
a(S'mpi_finalize()'
p2632
S'605'
p2633
tp2634
a(S'mpi_init()'
p2635
S'628'
p2636
tp2637
a(S'mpi_comm_rank()'
p2638
S'629'
p2639
tp2640
a(S'mpi_comm_size()'
p2641
S'630'
p2642
tp2643
a(S'mpi_finalize()'
p2644
S'691'
p2645
tp2646
a(S'mpi_finalize()'
p2647
S'704'
p2648
tp2649
a(S'mpi_finalize()'
p2650
S'720'
p2651
tp2652
a(S'mpi_finalize()'
p2653
S'735'
p2654
tp2655
a(S'mpi_irecv()'
p2656
S'1082'
p2657
tp2658
a(S'mpi_send()'
p2659
S'1090'
p2660
tp2661
a(S'mpi_wait()'
p2662
S'1097'
p2663
tp2664
a(S'mpi_irecv()'
p2665
S'1130'
p2666
tp2667
a(S'mpi_send()'
p2668
S'1138'
p2669
tp2670
a(S'mpi_wait()'
p2671
S'1145'
p2672
tp2673
a(S'mpi_irecv()'
p2674
S'1156'
p2675
tp2676
a(S'mpi_send()'
p2677
S'1165'
p2678
tp2679
a(S'mpi_wait()'
p2680
S'1172'
p2681
tp2682
a(S'mpi_irecv()'
p2683
S'1200'
p2684
tp2685
a(S'mpi_send()'
p2686
S'1208'
p2687
tp2688
a(S'mpi_wait()'
p2689
S'1216'
p2690
tp2691
a(S'mpi_irecv()'
p2692
S'1255'
p2693
tp2694
a(S'mpi_send()'
p2695
S'1263'
p2696
tp2697
a(S'mpi_wait()'
p2698
S'1270'
p2699
tp2700
a(S'mpi_irecv()'
p2701
S'1313'
p2702
tp2703
a(S'mpi_send()'
p2704
S'1321'
p2705
tp2706
a(S'mpi_wait()'
p2707
S'1328'
p2708
tp2709
a(S'mpi_irecv()'
p2710
S'1340'
p2711
tp2712
a(S'mpi_send()'
p2713
S'1349'
p2714
tp2715
a(S'mpi_wait()'
p2716
S'1356'
p2717
tp2718
a(S'mpi_irecv()'
p2719
S'1377'
p2720
tp2721
a(S'mpi_send()'
p2722
S'1385'
p2723
tp2724
a(S'mpi_wait()'
p2725
S'1392'
p2726
tp2727
asS'simgrid/examples/smpi/NAS/LU/read_input.f'
p2728
(lp2729
(S'MPI_COMM_SIZE()'
p2730
S'78'
p2731
tp2732
a(S'MPI_ABORT()'
p2733
S'92'
p2734
tp2735
a(S'MPI_ABORT()'
p2736
S'104'
p2737
tp2738
asS'simgrid/examples/smpi/mc_bugged1.c'
p2739
(lp2740
(S'MPI_Init()'
p2741
S'20'
p2742
tp2743
a(S'MPI_Comm_size()'
p2744
S'26'
p2745
tp2746
a(S'MPI_Comm_rank()'
p2747
S'27'
p2748
tp2749
a(S'MPI_Finalize()'
p2750
S'30'
p2751
tp2752
a(S'MPI_Recv()'
p2753
S'38'
p2754
tp2755
a(S'MPI_Send()'
p2756
S'48'
p2757
tp2758
a(S'MPI_Finalize()'
p2759
S'52'
p2760
tp2761
asS'simgrid/examples/smpi/NAS/LU/pintgr.f'
p2762
(lp2763
(S'MPI_ALLREDUCE()'
p2764
S'113'
p2765
tp2766
a(S'MPI_ALLREDUCE()'
p2767
S'192'
p2768
tp2769
a(S'MPI_ALLREDUCE()'
p2770
S'272'
p2771
tp2772
asS'simgrid/examples/smpi/NAS/BT/copy_faces.f'
p2773
(lp2774
(S'mpi_irecv()'
p2775
S'173'
p2776
tp2777
a(S'mpi_irecv()'
p2778
S'176'
p2779
tp2780
a(S'mpi_irecv()'
p2781
S'179'
p2782
tp2783
a(S'mpi_irecv()'
p2784
S'182'
p2785
tp2786
a(S'mpi_irecv()'
p2787
S'185'
p2788
tp2789
a(S'mpi_irecv()'
p2790
S'188'
p2791
tp2792
a(S'mpi_isend()'
p2793
S'192'
p2794
tp2795
a(S'mpi_isend()'
p2796
S'195'
p2797
tp2798
a(S'mpi_isend()'
p2799
S'198'
p2800
tp2801
a(S'mpi_isend()'
p2802
S'201'
p2803
tp2804
a(S'mpi_isend()'
p2805
S'204'
p2806
tp2807
a(S'mpi_isend()'
p2808
S'207'
p2809
tp2810
a(S'mpi_waitall()'
p2811
S'212'
p2812
tp2813
asS'simgrid/examples/smpi/split.c'
p2814
(lp2815
(S'MPI_Init()'
p2816
S'16'
p2817
tp2818
a(S'MPI_Comm_rank()'
p2819
S'17'
p2820
tp2821
a(S'MPI_Comm_split()'
p2822
S'18'
p2823
tp2824
a(S'MPI_Comm_rank()'
p2825
S'19'
p2826
tp2827
a(S'MPI_Finalize()'
p2828
S'21'
p2829
tp2830
asS'simgrid/examples/smpi/NAS/LU/exchange_4.f'
p2831
(lp2832
(S'MPI_IRECV()'
p2833
S'50'
p2834
tp2835
a(S'MPI_WAIT()'
p2836
S'59'
p2837
tp2838
a(S'MPI_SEND()'
p2839
S'77'
p2840
tp2841
a(S'MPI_IRECV()'
p2842
S'95'
p2843
tp2844
a(S'MPI_WAIT()'
p2845
S'104'
p2846
tp2847
a(S'MPI_SEND()'
p2848
S'122'
p2849
tp2850
asS'simgrid/examples/smpi/compute2.c'
p2851
(lp2852
(S'MPI_Init()'
p2853
S'14'
p2854
tp2855
a(S'MPI_Finalize()'
p2856
S'26'
p2857
tp2858
asS'simgrid/examples/smpi/NAS/LU/lu.f'
p2859
(lp2860
(S'mpi_finalize()'
p2861
S'161'
p2862
tp2863
asS'simgrid/examples/smpi/NAS/LU/ssor.f'
p2864
(lp2865
(S'MPI_BARRIER()'
p2866
S'70'
p2867
tp2868
a(S'MPI_ALLREDUCE()'
p2869
S'205'
p2870
tp2871
asS'simgrid/examples/smpi/NAS/BT/fortran_io.f'
p2872
(lp2873
(S'mpi_bcast()'
p2874
S'17'
p2875
tp2876
asS'simgrid/examples/smpi/compute3.c'
p2877
(lp2878
(S'MPI_Init()'
p2879
S'14'
p2880
tp2881
a(S'MPI_Finalize()'
p2882
S'36'
p2883
tp2884
as.