ccollections
defaultdict
p0
(c__builtin__
list
p1
tp2
Rp3
S'intel-qs/util/BigMPI/src/type_contiguous_x.c'
p4
(lp5
(S'MPI_Type_vector()'
p6
S'90'
p7
tp8
a(S'MPI_Type_vector()'
p9
S'102'
p10
tp11
a(S'MPI_Type_contiguous()'
p12
S'105'
p13
tp14
a(S'MPI_Type_get_extent()'
p15
S'108'
p16
tp17
a(S'MPI_Type_create_struct()'
p18
S'114'
p19
tp20
a(S'MPI_Type_free()'
p21
S'116'
p22
tp23
a(S'MPI_Type_free()'
p24
S'117'
p25
tp26
a(S'MPI_Type_get_envelope()'
p27
S'153'
p28
tp29
a(S'MPI_Type_get_contents()'
p30
S'163'
p31
tp32
a(S'MPI_Type_get_contents()'
p33
S'182'
p34
tp35
a(S'MPI_Type_get_envelope()'
p36
S'190'
p37
tp38
a(S'MPI_Type_get_contents()'
p39
S'198'
p40
tp41
a(S'MPI_Type_get_envelope()'
p42
S'207'
p43
tp44
a(S'MPI_Type_get_contents()'
p45
S'215'
p46
tp47
asS'intel-qs/util/BigMPI/test/test_bcast_x.c'
p48
(lp49
(S'MPI_Init()'
p50
S'19'
p51
tp52
a(S'MPI_Comm_rank()'
p53
S'22'
p54
tp55
a(S'MPI_Comm_size()'
p56
S'23'
p57
tp58
a(S'MPI_Finalize()'
p59
S'27'
p60
tp61
a(S'MPI_Alloc_mem()'
p62
S'37'
p63
tp64
a(S'MPI_Free_mem()'
p65
S'55'
p66
tp67
a(S'MPI_Finalize()'
p68
S'57'
p69
tp70
asS'intel-qs/src/mpi_exception.cpp'
p71
(lp72
(S'MPI_Error_string()'
p73
S'45'
p74
tp75
asS'intel-qs/unit_test/mpi_speedup_test.cpp'
p76
(lp77
(S'MPI_Init()'
p78
S'22'
p79
tp80
a(S'MPI_Comm_size()'
p81
S'23'
p82
tp83
a(S'MPI_Comm_rank()'
p84
S'24'
p85
tp86
a(S'MPI_Finalize()'
p87
S'94'
p88
tp89
asS'intel-qs/util/BigMPI/test/test_reduce_x.c'
p90
(lp91
(S'MPI_Init()'
p92
S'19'
p93
tp94
a(S'MPI_Comm_rank()'
p95
S'22'
p96
tp97
a(S'MPI_Comm_size()'
p98
S'23'
p99
tp100
a(S'MPI_Finalize()'
p101
S'27'
p102
tp103
a(S'MPI_Alloc_mem()'
p104
S'39'
p105
tp106
a(S'MPI_Alloc_mem()'
p107
S'40'
p108
tp109
a(S'MPI_Free_mem()'
p110
S'82'
p111
tp112
a(S'MPI_Free_mem()'
p113
S'83'
p114
tp115
a(S'MPI_Finalize()'
p116
S'89'
p117
tp118
asS'intel-qs/util/BigMPI/test/test_contig_x.c'
p119
(lp120
(S'MPI_Init()'
p121
S'40'
p122
tp123
a(S'MPI_Comm_rank()'
p124
S'43'
p125
tp126
a(S'MPI_Comm_size()'
p127
S'44'
p128
tp129
a(S'MPI_Finalize()'
p130
S'76'
p131
tp132
a(S'MPI_Finalize()'
p133
S'81'
p134
tp135
asS'intel-qs/util/BigMPI/test/mpi/bcast.c'
p136
(lp137
(S'MPI_Type_vector()'
p138
S'21'
p139
tp140
a(S'MPI_Type_contiguous()'
p141
S'24'
p142
tp143
a(S'MPI_Type_get_extent()'
p144
S'27'
p145
tp146
a(S'MPI_Type_create_struct()'
p147
S'33'
p148
tp149
a(S'MPI_Type_free()'
p150
S'35'
p151
tp152
a(S'MPI_Type_free()'
p153
S'36'
p154
tp155
a(S'MPI_Init_thread()'
p156
S'44'
p157
tp158
a(S'MPI_Comm_size()'
p159
S'47'
p160
tp161
a(S'MPI_Comm_rank()'
p162
S'48'
p163
tp164
a(S'MPI_Alloc_mem()'
p165
S'56'
p166
tp167
a(S'MPI_Type_commit()'
p168
S'66'
p169
tp170
a(S'MPI_Bcast()'
p171
S'70'
p172
tp173
a(S'MPI_Bcast()'
p174
S'73'
p175
tp176
a(S'MPI_Type_free()'
p177
S'89'
p178
tp179
a(S'MPI_Free_mem()'
p180
S'91'
p181
tp182
a(S'MPI_Finalize()'
p183
S'93'
p184
tp185
asS'intel-qs/util/BigMPI/src/reductions_x.c'
p186
(lp187
(S'MPI_Type_size()'
p188
S'30'
p189
tp190
a(S'MPI_Reduce_local()'
p191
S'32'
p192
tp193
a(S'MPI_Reduce_local()'
p194
S'36'
p195
tp196
a(S'MPI_Op_commutative()'
p197
S'62'
p198
tp199
a(S'MPI_Type_size()'
p200
S'94'
p201
tp202
a(S'MPI_Comm_rank()'
p203
S'97'
p204
tp205
a(S'MPI_Reduce()'
p206
S'99'
p207
tp208
a(S'MPI_Reduce()'
p209
S'103'
p210
tp211
a(S'MPI_Reduce()'
p212
S'108'
p213
tp214
a(S'MPI_Reduce()'
p215
S'112'
p216
tp217
a(S'MPI_Type_commit()'
p218
S'121'
p219
tp220
a(S'MPI_Type_get_extent()'
p221
S'130'
p222
tp223
a(S'MPI_Alloc_mem()'
p224
S'133'
p225
tp226
a(S'MPI_Reduce()'
p227
S'138'
p228
tp229
a(S'MPI_Free_mem()'
p230
S'142'
p231
tp232
a(S'MPI_Type_free()'
p233
S'145'
p234
tp235
a(S'MPI_Op_free()'
p236
S'146'
p237
tp238
a(S'MPI_Type_size()'
p239
S'164'
p240
tp241
a(S'MPI_Allreduce()'
p242
S'167'
p243
tp244
a(S'MPI_Allreduce()'
p245
S'170'
p246
tp247
a(S'MPI_Allreduce()'
p248
S'174'
p249
tp250
a(S'MPI_Allreduce()'
p251
S'178'
p252
tp253
a(S'MPI_Type_commit()'
p254
S'187'
p255
tp256
a(S'MPI_Type_get_extent()'
p257
S'195'
p258
tp259
a(S'MPI_Alloc_mem()'
p260
S'198'
p261
tp262
a(S'MPI_Allreduce()'
p263
S'202'
p264
tp265
a(S'MPI_Free_mem()'
p266
S'205'
p267
tp268
a(S'MPI_Type_free()'
p269
S'208'
p270
tp271
a(S'MPI_Op_free()'
p272
S'209'
p273
tp274
a(S'MPI_Comm_size()'
p275
S'235'
p276
tp277
a(S'MPI_Type_get_extent()'
p278
S'239'
p279
tp280
a(S'MPI_Alloc_mem()'
p281
S'243'
p282
tp283
a(S'MPI_Free_mem()'
p284
S'250'
p285
tp286
a(S'MPI_Type_commit()'
p287
S'266'
p288
tp289
a(S'MPI_Ireduce()'
p290
S'274'
p291
tp292
a(S'MPI_Type_free()'
p293
S'276'
p294
tp295
a(S'MPI_Op_free()'
p296
S'277'
p297
tp298
a(S'MPI_Type_commit()'
p299
S'293'
p300
tp301
a(S'MPI_Iallreduce()'
p302
S'301'
p303
tp304
a(S'MPI_Type_free()'
p305
S'303'
p306
tp307
a(S'MPI_Op_free()'
p308
S'304'
p309
tp310
asS'intel-qs/util/BigMPI/test/devel/type_create_struct.c'
p311
(lp312
(S'MPI_Init()'
p313
S'6'
p314
tp315
a(S'MPI_Finalize()'
p316
S'8'
p317
tp318
asS'intel-qs/util/BigMPI/test/test_rma_x.c'
p319
(lp320
(S'MPI_Init()'
p321
S'20'
p322
tp323
a(S'MPI_Comm_rank()'
p324
S'23'
p325
tp326
a(S'MPI_Comm_size()'
p327
S'24'
p328
tp329
a(S'MPI_Win_allocate()'
p330
S'35'
p331
tp332
a(S'MPI_Win_lock_all()'
p333
S'36'
p334
tp335
a(S'MPI_Alloc_mem()'
p336
S'38'
p337
tp338
a(S'MPI_Win_create()'
p339
S'39'
p340
tp341
a(S'MPI_Win_sync()'
p342
S'47'
p343
tp344
a(S'MPI_Barrier()'
p345
S'50'
p346
tp347
a(S'MPI_Alloc_mem()'
p348
S'53'
p349
tp350
a(S'MPI_Win_lock()'
p351
S'59'
p352
tp353
a(S'MPI_Win_flush()'
p354
S'64'
p355
tp356
a(S'MPI_Win_unlock()'
p357
S'66'
p358
tp359
a(S'MPI_Barrier()'
p360
S'69'
p361
tp362
a(S'MPI_Win_sync()'
p363
S'73'
p364
tp365
a(S'MPI_Win_unlock_all()'
p366
S'89'
p367
tp368
a(S'MPI_Win_free()'
p369
S'91'
p370
tp371
a(S'MPI_Free_mem()'
p372
S'93'
p373
tp374
a(S'MPI_Finalize()'
p375
S'96'
p376
tp377
asS'intel-qs/util/BigMPI/src/utils.c'
p378
(lp379
(S'MPI_Comm_rank()'
p380
S'33'
p381
tp382
a(S'MPI_Abort()'
p383
S'37'
p384
tp385
a(S'MPI_Type_get_extent()'
p386
S'83'
p387
tp388
a(S'MPI_Type_commit()'
p389
S'96'
p390
tp391
a(S'MPI_Type_get_extent()'
p392
S'104'
p393
tp394
a(S'MPI_Comm_rank()'
p395
S'135'
p396
tp397
a(S'MPI_Comm_size()'
p398
S'136'
p399
tp400
a(S'MPI_Dist_graph_create_adjacent()'
p401
S'155'
p402
tp403
a(S'X_MPI_INFO_NULL()'
p404
S'158'
p405
tp406
asS'intel-qs/examples/noise_via_chi_matrix.cpp'
p407
(lp408
(S'MPI_Comm_size()'
p409
S'32'
p410
tp411
asS'intel-qs/unit_test/include/noisy_simulation_test.hpp'
p412
(lp413
(S'MPI_Comm_size()'
p414
S'20'
p415
tp416
a(S'MPI_Comm_rank()'
p417
S'21'
p418
tp419
asS'intel-qs/util/BigMPI/test/test_rsend_recv_x.c'
p420
(lp421
(S'MPI_Init()'
p422
S'17'
p423
tp424
a(S'MPI_Comm_rank()'
p425
S'20'
p426
tp427
a(S'MPI_Comm_size()'
p428
S'21'
p429
tp430
a(S'MPI_Finalize()'
p431
S'27'
p432
tp433
a(S'MPI_Alloc_mem()'
p434
S'37'
p435
tp436
a(S'MPI_Free_mem()'
p437
S'58'
p438
tp439
a(S'MPI_Finalize()'
p440
S'64'
p441
tp442
asS'intel-qs/util/BigMPI/src/sendrecv_x.c'
p443
(lp444
(S'MPI_Send()'
p445
g317
tp446
a(S'MPI_Type_commit()'
p447
S'12'
p448
tp449
a(S'MPI_Send()'
p450
S'13'
p451
tp452
a(S'MPI_Type_free()'
p453
S'14'
p454
tp455
a(S'MPI_Recv()'
p456
S'24'
p457
tp458
a(S'MPI_Type_commit()'
p459
S'28'
p460
tp461
a(S'MPI_Recv()'
p462
S'29'
p463
tp464
a(S'MPI_Type_free()'
p465
S'30'
p466
tp467
a(S'MPI_Isend()'
p468
S'40'
p469
tp470
a(S'MPI_Type_commit()'
p471
S'44'
p472
tp473
a(S'MPI_Isend()'
p474
S'45'
p475
tp476
a(S'MPI_Type_free()'
p477
S'46'
p478
tp479
a(S'MPI_Irecv()'
p480
S'56'
p481
tp482
a(S'MPI_Type_commit()'
p483
S'60'
p484
tp485
a(S'MPI_Irecv()'
p486
S'61'
p487
tp488
a(S'MPI_Type_free()'
p489
S'62'
p490
tp491
a(S'MPI_Sendrecv()'
p492
S'74'
p493
tp494
a(S'MPI_Type_commit()'
p495
S'80'
p496
tp497
a(S'MPI_Sendrecv()'
p498
S'81'
p499
tp500
a(S'MPI_Type_free()'
p501
S'84'
p502
tp503
a(S'MPI_Type_commit()'
p504
S'88'
p505
tp506
a(S'MPI_Sendrecv()'
p507
S'89'
p508
tp509
a(S'MPI_Type_free()'
p510
S'92'
p511
tp512
a(S'MPI_Type_commit()'
p513
S'97'
p514
tp515
a(S'MPI_Type_commit()'
p516
S'98'
p517
tp518
a(S'MPI_Sendrecv()'
p519
S'99'
p520
tp521
a(S'MPI_Type_free()'
p522
S'102'
p523
tp524
a(S'MPI_Type_free()'
p525
S'103'
p526
tp527
a(S'MPI_Sendrecv_replace()'
p528
S'114'
p529
tp530
a(S'MPI_Type_commit()'
p531
S'118'
p532
tp533
a(S'MPI_Sendrecv_replace()'
p534
S'119'
p535
tp536
a(S'MPI_Type_free()'
p537
S'120'
p538
tp539
a(S'MPI_Ssend()'
p540
S'131'
p541
tp542
a(S'MPI_Type_commit()'
p543
S'135'
p544
tp545
a(S'MPI_Ssend()'
p546
S'136'
p547
tp548
a(S'MPI_Type_free()'
p549
S'137'
p550
tp551
a(S'MPI_Rsend()'
p552
S'147'
p553
tp554
a(S'MPI_Type_commit()'
p555
S'151'
p556
tp557
a(S'MPI_Rsend()'
p558
S'152'
p559
tp560
a(S'MPI_Type_free()'
p561
S'153'
p562
tp563
a(S'MPI_Issend()'
p564
S'163'
p565
tp566
a(S'MPI_Type_commit()'
p567
S'167'
p568
tp569
a(S'MPI_Issend()'
p570
S'168'
p571
tp572
a(S'MPI_Type_free()'
p573
S'169'
p574
tp575
a(S'MPI_Irsend()'
p576
S'179'
p577
tp578
a(S'MPI_Type_commit()'
p579
S'183'
p580
tp581
a(S'MPI_Irsend()'
p582
S'184'
p583
tp584
a(S'MPI_Type_free()'
p585
S'185'
p586
tp587
a(S'MPI_Mrecv()'
p588
S'197'
p589
tp590
a(S'MPI_Type_commit()'
p591
S'201'
p592
tp593
a(S'MPI_Mrecv()'
p594
S'202'
p595
tp596
a(S'MPI_Type_free()'
p597
S'203'
p598
tp599
a(S'MPI_Imrecv()'
p600
S'213'
p601
tp602
a(S'MPI_Type_commit()'
p603
S'217'
p604
tp605
a(S'MPI_Imrecv()'
p606
S'218'
p607
tp608
a(S'MPI_Type_free()'
p609
S'219'
p610
tp611
asS'intel-qs/util/BigMPI/test/perf/reductions.c'
p612
(lp613
(S'MPI_Reduce_local()'
p614
S'23'
p615
tp616
a(S'MPI_Op_commutative()'
p617
S'45'
p618
tp619
a(S'MPI_Abort()'
p620
S'63'
p621
tp622
a(S'MPI_Allreduce()'
p623
S'73'
p624
tp625
a(S'MPI_Op_free()'
p626
S'74'
p627
tp628
a(S'MPI_Init()'
p629
S'80'
p630
tp631
a(S'MPI_Comm_rank()'
p632
S'83'
p633
tp634
a(S'MPI_Comm_size()'
p635
S'84'
p636
tp637
a(S'MPI_Alloc_mem()'
p638
S'94'
p639
tp640
a(S'MPI_Alloc_mem()'
p641
S'95'
p642
tp643
a(S'MPI_Alloc_mem()'
p644
S'96'
p645
tp646
a(S'MPI_Alloc_mem()'
p647
S'97'
p648
tp649
a(S'MPI_Barrier()'
p650
S'114'
p651
tp652
a(S'MPI_Allreduce()'
p653
S'115'
p654
tp655
a(S'MPI_Barrier()'
p656
S'116'
p657
tp658
a(S'MPI_Barrier()'
p659
S'118'
p660
tp661
a(S'MPI_Barrier()'
p662
S'142'
p663
tp664
a(S'MPI_Wtime()'
p665
S'144'
p666
tp667
a(S'MPI_Allreduce()'
p668
S'145'
p669
tp670
a(S'MPI_Wtime()'
p671
S'146'
p672
tp673
a(S'MPI_Barrier()'
p674
S'148'
p675
tp676
a(S'MPI_Wtime()'
p677
S'150'
p678
tp679
a(S'MPI_Wtime()'
p680
S'152'
p681
tp682
a(S'MPI_Barrier()'
p683
S'155'
p684
tp685
a(S'MPI_Free_mem()'
p686
S'157'
p687
tp688
a(S'MPI_Free_mem()'
p689
S'158'
p690
tp691
a(S'MPI_Free_mem()'
p692
S'159'
p693
tp694
a(S'MPI_Free_mem()'
p695
S'160'
p696
tp697
a(S'MPI_Finalize()'
p698
S'168'
p699
tp700
asS'intel-qs/src/qureg_utils.cpp'
p701
(lp702
(S'MPI_Recv()'
p703
S'466'
p704
tp705
a(S'MPI_Recv()'
p706
S'473'
p707
tp708
a(S'MPI_Send()'
p709
S'489'
p710
tp711
a(S'MPI_Send()'
p712
S'490'
p713
tp714
a(S'MPI_Reduce()'
p715
S'497'
p716
tp717
a(S'MPI_Recv()'
p718
S'563'
p719
tp720
a(S'MPI_Recv()'
p721
S'570'
p722
tp723
a(S'MPI_Send()'
p724
S'587'
p725
tp726
a(S'MPI_Send()'
p727
S'588'
p728
tp729
a(S'MPI_File_open()'
p730
S'614'
p731
tp732
a(S'X_MPI_INFO_NULL()'
p733
S'615'
p734
tp735
a(S'MPI_File_write_at()'
p736
S'622'
p737
tp738
a(S'MPI_File_close()'
p739
S'625'
p740
tp741
asS'intel-qs/util/BigMPI/src/neighborhood_collectives_x.c'
p742
(lp743
(S'MPI_Neighbor_allgather()'
p744
S'12'
p745
tp746
a(S'MPI_Type_commit()'
p747
S'16'
p748
tp749
a(S'MPI_Neighbor_allgather()'
p750
S'17'
p751
tp752
a(S'MPI_Type_free()'
p753
S'18'
p754
tp755
a(S'MPI_Type_commit()'
p756
S'22'
p757
tp758
a(S'MPI_Neighbor_allgather()'
p759
S'23'
p760
tp761
a(S'MPI_Type_free()'
p762
S'24'
p763
tp764
a(S'MPI_Type_commit()'
p765
S'29'
p766
tp767
a(S'MPI_Type_commit()'
p768
S'30'
p769
tp770
a(S'MPI_Neighbor_allgather()'
p771
S'31'
p772
tp773
a(S'MPI_Type_free()'
p774
S'32'
p775
tp776
a(S'MPI_Type_free()'
p777
S'33'
p778
tp779
a(S'MPI_Neighbor_alltoall()'
p780
S'45'
p781
tp782
a(S'MPI_Type_commit()'
p783
S'49'
p784
tp785
a(S'MPI_Neighbor_alltoall()'
p786
S'50'
p787
tp788
a(S'MPI_Type_free()'
p789
S'51'
p790
tp791
a(S'MPI_Type_commit()'
p792
S'55'
p793
tp794
a(S'MPI_Neighbor_alltoall()'
p795
S'56'
p796
tp797
a(S'MPI_Type_free()'
p798
S'57'
p799
tp800
a(S'MPI_Type_commit()'
p801
S'62'
p802
tp803
a(S'MPI_Type_commit()'
p804
S'63'
p805
tp806
a(S'MPI_Neighbor_alltoall()'
p807
S'64'
p808
tp809
a(S'MPI_Type_free()'
p810
S'65'
p811
tp812
a(S'MPI_Type_free()'
p813
S'66'
p814
tp815
a(S'MPI_Comm_test_inter()'
p816
S'79'
p817
tp818
a(S'MPI_Comm_size()'
p819
S'87'
p820
tp821
a(S'MPI_Comm_rank()'
p822
S'88'
p823
tp824
a(S'MPI_Neighbor_alltoallw()'
p825
S'110'
p826
tp827
a(S'MPI_Type_free()'
p828
S'114'
p829
tp830
a(S'MPI_Type_free()'
p831
S'115'
p832
tp833
a(S'MPI_Comm_test_inter()'
p834
S'137'
p835
tp836
a(S'MPI_Comm_size()'
p837
S'145'
p838
tp839
a(S'MPI_Comm_rank()'
p840
S'146'
p841
tp842
a(S'MPI_Neighbor_alltoallw()'
p843
S'168'
p844
tp845
a(S'MPI_Type_free()'
p846
S'172'
p847
tp848
a(S'MPI_Type_free()'
p849
S'173'
p850
tp851
a(S'MPI_Comm_test_inter()'
p852
S'195'
p853
tp854
a(S'MPI_Comm_size()'
p855
S'203'
p856
tp857
a(S'MPI_Comm_rank()'
p858
S'204'
p859
tp860
a(S'MPI_Neighbor_alltoallw()'
p861
S'226'
p862
tp863
a(S'MPI_Type_free()'
p864
S'230'
p865
tp866
a(S'MPI_Type_free()'
p867
S'231'
p868
tp869
a(S'MPI_Ineighbor_allgather()'
p870
S'251'
p871
tp872
a(S'MPI_Type_commit()'
p873
S'255'
p874
tp875
a(S'MPI_Ineighbor_allgather()'
p876
S'256'
p877
tp878
a(S'MPI_Type_free()'
p879
S'257'
p880
tp881
a(S'MPI_Type_commit()'
p882
S'261'
p883
tp884
a(S'MPI_Ineighbor_allgather()'
p885
S'262'
p886
tp887
a(S'MPI_Type_free()'
p888
S'263'
p889
tp890
a(S'MPI_Type_commit()'
p891
S'268'
p892
tp893
a(S'MPI_Type_commit()'
p894
S'269'
p895
tp896
a(S'MPI_Ineighbor_allgather()'
p897
S'270'
p898
tp899
a(S'MPI_Type_free()'
p900
S'271'
p901
tp902
a(S'MPI_Type_free()'
p903
S'272'
p904
tp905
a(S'MPI_Ineighbor_alltoall()'
p906
S'284'
p907
tp908
a(S'MPI_Type_commit()'
p909
S'288'
p910
tp911
a(S'MPI_Ineighbor_alltoall()'
p912
S'289'
p913
tp914
a(S'MPI_Type_free()'
p915
S'290'
p916
tp917
a(S'MPI_Type_commit()'
p918
S'294'
p919
tp920
a(S'MPI_Ineighbor_alltoall()'
p921
S'295'
p922
tp923
a(S'MPI_Type_free()'
p924
S'296'
p925
tp926
a(S'MPI_Type_commit()'
p927
S'301'
p928
tp929
a(S'MPI_Type_commit()'
p930
S'302'
p931
tp932
a(S'MPI_Ineighbor_alltoall()'
p933
S'303'
p934
tp935
a(S'MPI_Type_free()'
p936
S'304'
p937
tp938
a(S'MPI_Type_free()'
p939
S'305'
p940
tp941
asS'intel-qs/include/timer.hpp'
p942
(lp943
(S'MPI_File_open()'
p944
S'266'
p945
tp946
a(S'X_MPI_INFO_NULL()'
p947
S'268'
p948
tp949
a(S'MPI_File_write_at()'
p950
S'274'
p951
tp952
a(S'MPI_File_write_at()'
p953
S'278'
p954
tp955
a(S'MPI_File_close()'
p956
S'279'
p957
tp958
a(S'MPI_Gather()'
p959
S'296'
p960
tp961
a(S'X_MPI_CHAR()'
p962
S'297'
p963
tp964
a(S'MPI_Barrier()'
p965
S'320'
p966
tp967
asS'intel-qs/util/BigMPI/test/test_alltoall_x.c'
p968
(lp969
(S'MPI_Init()'
p970
S'20'
p971
tp972
a(S'MPI_Comm_rank()'
p973
S'23'
p974
tp975
a(S'MPI_Comm_size()'
p976
S'24'
p977
tp978
a(S'MPI_Finalize()'
p979
S'28'
p980
tp981
a(S'MPI_Alloc_mem()'
p982
S'39'
p983
tp984
a(S'MPI_Alloc_mem()'
p985
S'41'
p986
tp987
a(S'MPI_Free_mem()'
p988
S'58'
p989
tp990
a(S'MPI_Free_mem()'
p991
S'59'
p992
tp993
a(S'MPI_Finalize()'
p994
S'65'
p995
tp996
asS'intel-qs/util/BigMPI/test/test_allreduce_x.c'
p997
(lp998
(S'MPI_Init()'
p999
S'19'
p1000
tp1001
a(S'MPI_Comm_rank()'
p1002
S'22'
p1003
tp1004
a(S'MPI_Comm_size()'
p1005
S'23'
p1006
tp1007
a(S'MPI_Finalize()'
p1008
S'27'
p1009
tp1010
a(S'MPI_Alloc_mem()'
p1011
S'39'
p1012
tp1013
a(S'MPI_Alloc_mem()'
p1014
S'40'
p1015
tp1016
a(S'MPI_Free_mem()'
p1017
S'64'
p1018
tp1019
a(S'MPI_Free_mem()'
p1020
S'65'
p1021
tp1022
a(S'MPI_Finalize()'
p1023
S'73'
p1024
tp1025
asS'intel-qs/util/BigMPI/test/test_sendrecv_x.c'
p1026
(lp1027
(S'MPI_Init()'
p1028
S'17'
p1029
tp1030
a(S'MPI_Comm_rank()'
p1031
S'20'
p1032
tp1033
a(S'MPI_Comm_size()'
p1034
S'21'
p1035
tp1036
a(S'MPI_Finalize()'
p1037
S'27'
p1038
tp1039
a(S'MPI_Alloc_mem()'
p1040
S'38'
p1041
tp1042
a(S'MPI_Alloc_mem()'
p1043
S'39'
p1044
tp1045
a(S'X_MPI_COMM_WORLD()'
p1046
S'52'
p1047
tp1048
a(S'X_MPI_COMM_WORLD()'
p1049
S'65'
p1050
tp1051
a(S'MPI_Free_mem()'
p1052
S'77'
p1053
tp1054
a(S'MPI_Free_mem()'
p1055
S'78'
p1056
tp1057
a(S'MPI_Finalize()'
p1058
S'84'
p1059
tp1060
asS'intel-qs/util/BigMPI/test/mpi/reduce_scatter.c'
p1061
(lp1062
(S'MPI_Init()'
p1063
g317
tp1064
a(S'MPI_Comm_rank()'
p1065
S'11'
p1066
tp1067
a(S'MPI_Comm_size()'
p1068
S'12'
p1069
tp1070
a(S'MPI_Finalize()'
p1071
S'16'
p1072
tp1073
a(S'MPI_Barrier()'
p1074
S'23'
p1075
tp1076
a(S'MPI_Reduce_scatter()'
p1077
S'29'
p1078
tp1079
a(S'MPI_Barrier()'
p1080
S'36'
p1081
tp1082
a(S'MPI_Barrier()'
p1083
S'42'
p1084
tp1085
a(S'MPI_Reduce_scatter()'
p1086
S'47'
p1087
tp1088
a(S'MPI_Barrier()'
p1089
S'54'
p1090
tp1091
a(S'MPI_Barrier()'
p1092
S'60'
p1093
tp1094
a(S'MPI_Reduce_scatter_block()'
p1095
S'66'
p1096
tp1097
a(S'MPI_Barrier()'
p1098
S'73'
p1099
tp1100
a(S'MPI_Barrier()'
p1101
S'79'
p1102
tp1103
a(S'MPI_Reduce_scatter_block()'
p1104
S'84'
p1105
tp1106
a(S'MPI_Barrier()'
p1107
S'91'
p1108
tp1109
a(S'MPI_Barrier()'
p1110
S'97'
p1111
tp1112
a(S'MPI_Reduce()'
p1113
S'104'
p1114
tp1115
a(S'MPI_Scatter()'
p1116
S'105'
p1117
tp1118
a(S'MPI_Barrier()'
p1119
S'112'
p1120
tp1121
a(S'MPI_Barrier()'
p1122
S'118'
p1123
tp1124
a(S'MPI_Reduce()'
p1125
S'123'
p1126
tp1127
a(S'MPI_Scatter()'
p1128
S'125'
p1129
tp1130
a(S'MPI_Finalize()'
p1131
S'130'
p1132
tp1133
asS'intel-qs/util/BigMPI/src/fileio_x.c'
p1134
(lp1135
(S'MPI_File_read_at()'
p1136
S'10'
p1137
tp1138
a(S'MPI_Type_commit()'
p1139
S'14'
p1140
tp1141
a(S'MPI_File_read_at()'
p1142
S'15'
p1143
tp1144
a(S'MPI_Type_free()'
p1145
S'16'
p1146
tp1147
a(S'MPI_File_read_at_all()'
p1148
S'26'
p1149
tp1150
a(S'MPI_Type_commit()'
p1151
S'30'
p1152
tp1153
a(S'MPI_File_read_at_all()'
p1154
S'31'
p1155
tp1156
a(S'MPI_Type_free()'
p1157
S'32'
p1158
tp1159
a(S'MPI_File_read_at_all_begin()'
p1160
S'42'
p1161
tp1162
a(S'MPI_Type_commit()'
p1163
S'46'
p1164
tp1165
a(S'MPI_File_read_at_all_begin()'
p1166
S'47'
p1167
tp1168
a(S'MPI_Type_free()'
p1169
S'48'
p1170
tp1171
a(S'MPI_File_read()'
p1172
S'58'
p1173
tp1174
a(S'MPI_Type_commit()'
p1175
S'62'
p1176
tp1177
a(S'MPI_File_read()'
p1178
S'63'
p1179
tp1180
a(S'MPI_Type_free()'
p1181
S'64'
p1182
tp1183
a(S'MPI_File_read_all()'
p1184
S'74'
p1185
tp1186
a(S'MPI_Type_commit()'
p1187
S'78'
p1188
tp1189
a(S'MPI_File_read_all()'
p1190
S'79'
p1191
tp1192
a(S'MPI_Type_free()'
p1193
S'80'
p1194
tp1195
a(S'MPI_File_read_shared()'
p1196
S'90'
p1197
tp1198
a(S'MPI_Type_commit()'
p1199
S'94'
p1200
tp1201
a(S'MPI_File_read_shared()'
p1202
S'95'
p1203
tp1204
a(S'MPI_Type_free()'
p1205
S'96'
p1206
tp1207
a(S'MPI_File_read_ordered()'
p1208
S'106'
p1209
tp1210
a(S'MPI_Type_commit()'
p1211
S'110'
p1212
tp1213
a(S'MPI_File_read_ordered()'
p1214
S'111'
p1215
tp1216
a(S'MPI_Type_free()'
p1217
S'112'
p1218
tp1219
a(S'MPI_File_read_all_begin()'
p1220
S'123'
p1221
tp1222
a(S'MPI_Type_commit()'
p1223
S'127'
p1224
tp1225
a(S'MPI_File_read_all_begin()'
p1226
S'128'
p1227
tp1228
a(S'MPI_Type_free()'
p1229
S'129'
p1230
tp1231
a(S'MPI_File_read_ordered_begin()'
p1232
S'139'
p1233
tp1234
a(S'MPI_Type_commit()'
p1235
S'143'
p1236
tp1237
a(S'MPI_File_read_ordered_begin()'
p1238
S'144'
p1239
tp1240
a(S'MPI_Type_free()'
p1241
S'145'
p1242
tp1243
a(S'MPI_File_iread_at()'
p1244
S'155'
p1245
tp1246
a(S'MPI_Type_commit()'
p1247
S'159'
p1248
tp1249
a(S'MPI_File_iread_at()'
p1250
S'160'
p1251
tp1252
a(S'MPI_Type_free()'
p1253
S'161'
p1254
tp1255
a(S'MPI_File_iread()'
p1256
S'171'
p1257
tp1258
a(S'MPI_Type_commit()'
p1259
S'175'
p1260
tp1261
a(S'MPI_File_iread()'
p1262
S'176'
p1263
tp1264
a(S'MPI_Type_free()'
p1265
S'177'
p1266
tp1267
a(S'MPI_File_iread_shared()'
p1268
S'187'
p1269
tp1270
a(S'MPI_Type_commit()'
p1271
S'191'
p1272
tp1273
a(S'MPI_File_iread_shared()'
p1274
S'192'
p1275
tp1276
a(S'MPI_Type_free()'
p1277
S'193'
p1278
tp1279
a(S'MPI_File_iread_at_all()'
p1280
S'203'
p1281
tp1282
a(S'MPI_Type_commit()'
p1283
S'207'
p1284
tp1285
a(S'MPI_File_iread_at_all()'
p1286
S'208'
p1287
tp1288
a(S'MPI_Type_free()'
p1289
S'209'
p1290
tp1291
a(S'MPI_File_iread_all()'
p1292
S'219'
p1293
tp1294
a(S'MPI_Type_commit()'
p1295
S'223'
p1296
tp1297
a(S'MPI_File_iread_all()'
p1298
S'224'
p1299
tp1300
a(S'MPI_Type_free()'
p1301
S'225'
p1302
tp1303
a(S'MPI_File_write_at()'
p1304
S'236'
p1305
tp1306
a(S'MPI_Type_commit()'
p1307
S'240'
p1308
tp1309
a(S'MPI_File_write_at()'
p1310
S'241'
p1311
tp1312
a(S'MPI_Type_free()'
p1313
S'242'
p1314
tp1315
a(S'MPI_File_write_at_all()'
p1316
S'252'
p1317
tp1318
a(S'MPI_Type_commit()'
p1319
S'256'
p1320
tp1321
a(S'MPI_File_write_at_all()'
p1322
S'257'
p1323
tp1324
a(S'MPI_Type_free()'
p1325
S'258'
p1326
tp1327
a(S'MPI_File_write_at_all_begin()'
p1328
S'268'
p1329
tp1330
a(S'MPI_Type_commit()'
p1331
S'272'
p1332
tp1333
a(S'MPI_File_write_at_all_begin()'
p1334
S'273'
p1335
tp1336
a(S'MPI_Type_free()'
p1337
S'274'
p1338
tp1339
a(S'MPI_File_write()'
p1340
S'284'
p1341
tp1342
a(S'MPI_Type_commit()'
p1343
S'288'
p1344
tp1345
a(S'MPI_File_write()'
p1346
S'289'
p1347
tp1348
a(S'MPI_Type_free()'
p1349
S'290'
p1350
tp1351
a(S'MPI_File_write_all()'
p1352
S'300'
p1353
tp1354
a(S'MPI_Type_commit()'
p1355
S'304'
p1356
tp1357
a(S'MPI_File_write_all()'
p1358
S'305'
p1359
tp1360
a(S'MPI_Type_free()'
p1361
S'306'
p1362
tp1363
a(S'MPI_File_write_shared()'
p1364
S'316'
p1365
tp1366
a(S'MPI_Type_commit()'
p1367
S'320'
p1368
tp1369
a(S'MPI_File_write_shared()'
p1370
S'321'
p1371
tp1372
a(S'MPI_Type_free()'
p1373
S'322'
p1374
tp1375
a(S'MPI_File_write_ordered()'
p1376
S'332'
p1377
tp1378
a(S'MPI_Type_commit()'
p1379
S'336'
p1380
tp1381
a(S'MPI_File_write_ordered()'
p1382
S'337'
p1383
tp1384
a(S'MPI_Type_free()'
p1385
S'338'
p1386
tp1387
a(S'MPI_File_write_all_begin()'
p1388
S'348'
p1389
tp1390
a(S'MPI_Type_commit()'
p1391
S'352'
p1392
tp1393
a(S'MPI_File_write_all_begin()'
p1394
S'353'
p1395
tp1396
a(S'MPI_Type_free()'
p1397
S'354'
p1398
tp1399
a(S'MPI_File_write_ordered_begin()'
p1400
S'364'
p1401
tp1402
a(S'MPI_Type_commit()'
p1403
S'368'
p1404
tp1405
a(S'MPI_File_write_ordered_begin()'
p1406
S'369'
p1407
tp1408
a(S'MPI_Type_free()'
p1409
S'370'
p1410
tp1411
a(S'MPI_File_iwrite_at()'
p1412
S'380'
p1413
tp1414
a(S'MPI_Type_commit()'
p1415
S'384'
p1416
tp1417
a(S'MPI_File_iwrite_at()'
p1418
S'385'
p1419
tp1420
a(S'MPI_Type_free()'
p1421
S'386'
p1422
tp1423
a(S'MPI_File_iwrite()'
p1424
S'396'
p1425
tp1426
a(S'MPI_Type_commit()'
p1427
S'400'
p1428
tp1429
a(S'MPI_File_iwrite()'
p1430
S'401'
p1431
tp1432
a(S'MPI_Type_free()'
p1433
S'402'
p1434
tp1435
a(S'MPI_File_iwrite_shared()'
p1436
S'412'
p1437
tp1438
a(S'MPI_Type_commit()'
p1439
S'416'
p1440
tp1441
a(S'MPI_File_iwrite_shared()'
p1442
S'417'
p1443
tp1444
a(S'MPI_Type_free()'
p1445
S'418'
p1446
tp1447
a(S'MPI_File_iwrite_at_all()'
p1448
S'428'
p1449
tp1450
a(S'MPI_Type_commit()'
p1451
S'432'
p1452
tp1453
a(S'MPI_File_iwrite_at_all()'
p1454
S'433'
p1455
tp1456
a(S'MPI_Type_free()'
p1457
S'434'
p1458
tp1459
a(S'MPI_File_iwrite_all()'
p1460
S'444'
p1461
tp1462
a(S'MPI_Type_commit()'
p1463
S'448'
p1464
tp1465
a(S'MPI_File_iwrite_all()'
p1466
S'449'
p1467
tp1468
a(S'MPI_Type_free()'
p1469
S'450'
p1470
tp1471
asS'intel-qs/src/qureg_measure.cpp'
p1472
(lp1473
(S'MPI_Allreduce()'
p1474
S'69'
p1475
tp1476
a(S'MPI_Allreduce()'
p1477
S'70'
p1478
tp1479
a(S'MPI_Allreduce()'
p1480
S'173'
p1481
tp1482
a(S'MPI_Allreduce()'
p1483
S'247'
p1484
tp1485
a(S'MPI_Allreduce()'
p1486
S'248'
p1487
tp1488
asS'intel-qs/unit_test/suite_of_tests.cpp'
p1489
(lp1490
(S'MPI_Comm_rank()'
p1491
S'81'
p1492
tp1493
asS'intel-qs/util/BigMPI/test/perf/typecontig.c'
p1494
(lp1495
(S'MPI_Type_vector()'
p1496
S'17'
p1497
tp1498
a(S'MPI_Type_contiguous()'
p1499
S'20'
p1500
tp1501
a(S'MPI_Type_get_extent()'
p1502
S'23'
p1503
tp1504
a(S'MPI_Type_create_struct()'
p1505
S'29'
p1506
tp1507
a(S'MPI_Type_free()'
p1508
S'31'
p1509
tp1510
a(S'MPI_Type_free()'
p1511
S'32'
p1512
tp1513
a(S'MPI_Init()'
p1514
S'40'
p1515
tp1516
a(S'MPI_Comm_rank()'
p1517
S'41'
p1518
tp1519
a(S'MPI_Comm_size()'
p1520
S'42'
p1521
tp1522
a(S'MPI_Type_commit()'
p1523
S'53'
p1524
tp1525
a(S'MPI_Type_free()'
p1526
S'54'
p1527
tp1528
a(S'MPI_Finalize()'
p1529
S'66'
p1530
tp1531
asS'intel-qs/util/BigMPI/m4/aclocal_romio.m4'
p1532
(lp1533
(S'MPI_Init()'
p1534
S'174'
p1535
tp1536
a(S'MPI_Finalize()'
p1537
S'175'
p1538
tp1539
a(S'MPI_Init()'
p1540
S'229'
p1541
tp1542
a(S'MPI_Send()'
p1543
S'230'
p1544
tp1545
a(S'MPI_Finalize()'
p1546
S'231'
p1547
tp1548
a(S'MPI_Init()'
p1549
S'327'
p1550
tp1551
a(S'MPI_Info_create()'
p1552
S'328'
p1553
tp1554
a(S'MPI_Finalize()'
p1555
S'329'
p1556
tp1557
a(S'MPI_Init()'
p1558
S'363'
p1559
tp1560
a(S'MPI_Type_create_darray()'
p1561
S'364'
p1562
tp1563
a(S'MPI_Type_create_subarray()'
p1564
S'365'
p1565
tp1566
a(S'MPI_Finalize()'
p1567
S'366'
p1568
tp1569
a(S'MPI_Init()'
p1570
S'481'
p1571
tp1572
a(S'MPI_Finalize()'
p1573
S'483'
p1574
tp1575
a(S'MPI_Init()'
p1576
S'508'
p1577
tp1578
a(S'MPI_Finalize()'
p1579
S'510'
p1580
tp1581
a(S'MPI_Init()'
p1582
S'822'
p1583
tp1584
a(S'MPI_Finalize()'
p1585
S'824'
p1586
tp1587
a(S'MPI_Init()'
p1588
S'868'
p1589
tp1590
a(S'MPI_Grequest_start()'
p1591
S'869'
p1592
tp1593
a(S'MPI_Finalize()'
p1594
S'870'
p1595
tp1596
asS'intel-qs/util/BigMPI/test/test_isend_irecv_x.c'
p1597
(lp1598
(S'MPI_Init()'
p1599
S'17'
p1600
tp1601
a(S'MPI_Comm_rank()'
p1602
S'20'
p1603
tp1604
a(S'MPI_Comm_size()'
p1605
S'21'
p1606
tp1607
a(S'MPI_Finalize()'
p1608
S'27'
p1609
tp1610
a(S'MPI_Alloc_mem()'
p1611
S'37'
p1612
tp1613
a(S'MPI_Wait()'
p1614
S'55'
p1615
tp1616
a(S'MPI_Free_mem()'
p1617
S'66'
p1618
tp1619
a(S'MPI_Finalize()'
p1620
S'72'
p1621
tp1622
asS'intel-qs/src/qaoa_features.cpp'
p1623
(lp1624
(S'MPI_Allreduce()'
p1625
S'140'
p1626
tp1627
asS'intel-qs/unit_test/include/multiple_states_test.hpp'
p1628
(lp1629
(S'MPI_Comm_size()'
p1630
S'22'
p1631
tp1632
a(S'MPI_Comm_rank()'
p1633
S'23'
p1634
tp1635
a(S'MPI_Barrier()'
p1636
S'153'
p1637
tp1638
a(S'MPI_Recv()'
p1639
S'156'
p1640
tp1641
a(S'MPI_Send()'
p1642
S'163'
p1643
tp1644
asS'intel-qs/util/BigMPI/test/test_issend_irecv_x.c'
p1645
(lp1646
(S'MPI_Init()'
p1647
S'17'
p1648
tp1649
a(S'MPI_Comm_rank()'
p1650
S'20'
p1651
tp1652
a(S'MPI_Comm_size()'
p1653
S'21'
p1654
tp1655
a(S'MPI_Finalize()'
p1656
S'27'
p1657
tp1658
a(S'MPI_Alloc_mem()'
p1659
S'37'
p1660
tp1661
a(S'MPI_Wait()'
p1662
S'55'
p1663
tp1664
a(S'MPI_Free_mem()'
p1665
S'66'
p1666
tp1667
a(S'MPI_Finalize()'
p1668
S'72'
p1669
tp1670
asS'intel-qs/util/BigMPI/src/vcollectives_x.c'
p1671
(lp1672
(S'MPI_Comm_test_inter()'
p1673
S'75'
p1674
tp1675
a(S'MPI_Comm_size()'
p1676
S'83'
p1677
tp1678
a(S'MPI_Comm_rank()'
p1679
S'84'
p1680
tp1681
a(S'MPI_Waitall()'
p1682
S'105'
p1683
tp1684
a(S'MPI_Type_get_extent()'
p1685
S'113'
p1686
tp1687
a(S'MPI_Type_get_extent()'
p1688
S'114'
p1689
tp1690
a(S'MPI_Waitall()'
p1691
S'127'
p1692
tp1693
a(S'MPI_Type_get_extent()'
p1694
S'135'
p1695
tp1696
a(S'MPI_Waitall()'
p1697
S'148'
p1698
tp1699
a(S'MPI_Type_get_extent()'
p1700
S'158'
p1701
tp1702
a(S'MPI_Waitall()'
p1703
S'167'
p1704
tp1705
a(S'MPI_Type_get_extent()'
p1706
S'177'
p1707
tp1708
a(S'MPI_Waitall()'
p1709
S'186'
p1710
tp1711
a(S'MPI_Alltoallw()'
p1712
S'296'
p1713
tp1714
a(S'MPI_Type_free()'
p1715
S'300'
p1716
tp1717
a(S'MPI_Type_free()'
p1718
S'301'
p1719
tp1720
a(S'MPI_Neighbor_alltoallw()'
p1721
S'415'
p1722
tp1723
a(S'MPI_Comm_free()'
p1724
S'417'
p1725
tp1726
a(S'MPI_Type_free()'
p1727
S'420'
p1728
tp1729
a(S'MPI_Type_free()'
p1730
S'421'
p1731
tp1732
a(S'MPI_Abort()'
p1733
S'440'
p1734
tp1735
a(S'MPI_Type_get_extent()'
p1736
S'449'
p1737
tp1738
a(S'MPI_Win_create()'
p1739
S'453'
p1740
tp1741
a(S'MPI_Win_fence()'
p1742
S'454'
p1743
tp1744
a(S'MPI_Put()'
p1745
S'456'
p1746
tp1747
a(S'MPI_Win_fence()'
p1748
S'459'
p1749
tp1750
a(S'MPI_Win_free()'
p1751
S'460'
p1752
tp1753
asS'intel-qs/tutorials/get_started_with_noisy_IQS.cpp'
p1754
(lp1755
(S'MPI_Comm_size()'
p1756
S'61'
p1757
tp1758
a(S'MPI_Comm_rank()'
p1759
S'89'
p1760
tp1761
a(S'MPI_Barrier()'
p1762
S'155'
p1763
tp1764
asS'intel-qs/util/BigMPI/src/rma_x.c'
p1765
(lp1766
(S'MPI_Put()'
p1767
S'9'
p1768
tp1769
a(S'MPI_Type_commit()'
p1770
S'15'
p1771
tp1772
a(S'MPI_Type_commit()'
p1773
S'16'
p1774
tp1775
a(S'MPI_Put()'
p1776
S'17'
p1777
tp1778
a(S'MPI_Type_free()'
p1779
S'19'
p1780
tp1781
a(S'MPI_Type_free()'
p1782
S'20'
p1783
tp1784
a(S'MPI_Get()'
p1785
S'31'
p1786
tp1787
a(S'MPI_Type_commit()'
p1788
S'37'
p1789
tp1790
a(S'MPI_Type_commit()'
p1791
S'38'
p1792
tp1793
a(S'MPI_Get()'
p1794
S'39'
p1795
tp1796
a(S'MPI_Type_free()'
p1797
S'41'
p1798
tp1799
a(S'MPI_Type_free()'
p1800
S'42'
p1801
tp1802
a(S'MPI_Accumulate()'
p1803
S'54'
p1804
tp1805
a(S'MPI_Type_commit()'
p1806
S'61'
p1807
tp1808
a(S'MPI_Type_commit()'
p1809
S'62'
p1810
tp1811
a(S'MPI_Accumulate()'
p1812
S'63'
p1813
tp1814
a(S'MPI_Type_free()'
p1815
S'65'
p1816
tp1817
a(S'MPI_Type_free()'
p1818
S'66'
p1819
tp1820
a(S'MPI_Get_accumulate()'
p1821
S'81'
p1822
tp1823
a(S'MPI_Type_commit()'
p1824
S'90'
p1825
tp1826
a(S'MPI_Type_commit()'
p1827
S'91'
p1828
tp1829
a(S'MPI_Type_commit()'
p1830
S'92'
p1831
tp1832
a(S'MPI_Get_accumulate()'
p1833
S'93'
p1834
tp1835
a(S'MPI_Type_free()'
p1836
S'97'
p1837
tp1838
a(S'MPI_Type_free()'
p1839
S'98'
p1840
tp1841
a(S'MPI_Type_free()'
p1842
S'99'
p1843
tp1844
a(S'MPI_Rput()'
p1845
S'111'
p1846
tp1847
a(S'MPI_Type_commit()'
p1848
S'117'
p1849
tp1850
a(S'MPI_Type_commit()'
p1851
S'118'
p1852
tp1853
a(S'MPI_Rput()'
p1854
S'119'
p1855
tp1856
a(S'MPI_Type_free()'
p1857
S'121'
p1858
tp1859
a(S'MPI_Type_free()'
p1860
S'122'
p1861
tp1862
a(S'MPI_Rget()'
p1863
S'134'
p1864
tp1865
a(S'MPI_Type_commit()'
p1866
S'140'
p1867
tp1868
a(S'MPI_Type_commit()'
p1869
S'141'
p1870
tp1871
a(S'MPI_Rget()'
p1872
S'142'
p1873
tp1874
a(S'MPI_Type_free()'
p1875
S'144'
p1876
tp1877
a(S'MPI_Type_free()'
p1878
S'145'
p1879
tp1880
a(S'MPI_Raccumulate()'
p1881
S'157'
p1882
tp1883
a(S'MPI_Type_commit()'
p1884
S'164'
p1885
tp1886
a(S'MPI_Type_commit()'
p1887
S'165'
p1888
tp1889
a(S'MPI_Raccumulate()'
p1890
S'166'
p1891
tp1892
a(S'MPI_Type_free()'
p1893
S'168'
p1894
tp1895
a(S'MPI_Type_free()'
p1896
S'169'
p1897
tp1898
a(S'MPI_Rget_accumulate()'
p1899
S'182'
p1900
tp1901
a(S'MPI_Type_commit()'
p1902
S'191'
p1903
tp1904
a(S'MPI_Type_commit()'
p1905
S'192'
p1906
tp1907
a(S'MPI_Type_commit()'
p1908
S'193'
p1909
tp1910
a(S'MPI_Rget_accumulate()'
p1911
S'194'
p1912
tp1913
a(S'MPI_Type_free()'
p1914
S'198'
p1915
tp1916
a(S'MPI_Type_free()'
p1917
S'199'
p1918
tp1919
a(S'MPI_Type_free()'
p1920
S'200'
p1921
tp1922
asS'intel-qs/unit_test/mpi_env_test.cpp'
p1923
(lp1924
(S'MPI_Comm_size()'
p1925
S'55'
p1926
tp1927
a(S'MPI_Comm_rank()'
p1928
S'56'
p1929
tp1930
a(S'X_MPI_Send()'
p1931
S'131'
p1932
tp1933
a(S'MPI_Barrier()'
p1934
S'136'
p1935
tp1936
asS'intel-qs/util/BigMPI/test/test_rma2_x.c'
p1937
(lp1938
(S'MPI_Init()'
p1939
S'20'
p1940
tp1941
a(S'MPI_Comm_rank()'
p1942
S'23'
p1943
tp1944
a(S'MPI_Comm_size()'
p1945
S'24'
p1946
tp1947
a(S'MPI_Win_allocate()'
p1948
S'34'
p1949
tp1950
a(S'MPI_Win_lock_all()'
p1951
S'35'
p1952
tp1953
a(S'MPI_Win_sync()'
p1954
S'39'
p1955
tp1956
a(S'MPI_Barrier()'
p1957
S'41'
p1958
tp1959
a(S'MPI_Alloc_mem()'
p1960
S'45'
p1961
tp1962
a(S'MPI_Win_unlock_all()'
p1963
S'66'
p1964
tp1965
a(S'MPI_Win_free()'
p1966
S'67'
p1967
tp1968
a(S'MPI_Finalize()'
p1969
S'69'
p1970
tp1971
asS'intel-qs/util/BigMPI/src/collectives_x.c'
p1972
(lp1973
(S'MPI_Bcast()'
p1974
g317
tp1975
a(S'MPI_Type_commit()'
p1976
S'12'
p1977
tp1978
a(S'MPI_Bcast()'
p1979
S'13'
p1980
tp1981
a(S'MPI_Type_free()'
p1982
S'14'
p1983
tp1984
a(S'MPI_Gather()'
p1985
S'25'
p1986
tp1987
a(S'MPI_Type_commit()'
p1988
S'30'
p1989
tp1990
a(S'MPI_Type_commit()'
p1991
S'31'
p1992
tp1993
a(S'MPI_Gather()'
p1994
S'32'
p1995
tp1996
a(S'MPI_Type_free()'
p1997
S'33'
p1998
tp1999
a(S'MPI_Type_free()'
p2000
S'34'
p2001
tp2002
a(S'MPI_Scatter()'
p2003
S'45'
p2004
tp2005
a(S'MPI_Type_commit()'
p2006
S'50'
p2007
tp2008
a(S'MPI_Type_commit()'
p2009
S'51'
p2010
tp2011
a(S'MPI_Scatter()'
p2012
S'52'
p2013
tp2014
a(S'MPI_Type_free()'
p2015
S'53'
p2016
tp2017
a(S'MPI_Type_free()'
p2018
S'54'
p2019
tp2020
a(S'MPI_Allgather()'
p2021
S'65'
p2022
tp2023
a(S'MPI_Type_commit()'
p2024
S'70'
p2025
tp2026
a(S'MPI_Type_commit()'
p2027
S'71'
p2028
tp2029
a(S'MPI_Allgather()'
p2030
S'72'
p2031
tp2032
a(S'MPI_Type_free()'
p2033
S'73'
p2034
tp2035
a(S'MPI_Type_free()'
p2036
S'74'
p2037
tp2038
a(S'MPI_Alltoall()'
p2039
S'85'
p2040
tp2041
a(S'MPI_Type_commit()'
p2042
S'90'
p2043
tp2044
a(S'MPI_Type_commit()'
p2045
S'91'
p2046
tp2047
a(S'MPI_Alltoall()'
p2048
S'92'
p2049
tp2050
a(S'MPI_Type_free()'
p2051
S'93'
p2052
tp2053
a(S'MPI_Type_free()'
p2054
S'94'
p2055
tp2056
a(S'MPI_Ibcast()'
p2057
S'106'
p2058
tp2059
a(S'MPI_Type_commit()'
p2060
S'110'
p2061
tp2062
a(S'MPI_Ibcast()'
p2063
S'111'
p2064
tp2065
a(S'MPI_Type_free()'
p2066
S'112'
p2067
tp2068
a(S'MPI_Igather()'
p2069
S'123'
p2070
tp2071
a(S'MPI_Type_commit()'
p2072
S'128'
p2073
tp2074
a(S'MPI_Type_commit()'
p2075
S'129'
p2076
tp2077
a(S'MPI_Igather()'
p2078
S'130'
p2079
tp2080
a(S'MPI_Type_free()'
p2081
S'131'
p2082
tp2083
a(S'MPI_Type_free()'
p2084
S'132'
p2085
tp2086
a(S'MPI_Iscatter()'
p2087
S'143'
p2088
tp2089
a(S'MPI_Type_commit()'
p2090
S'148'
p2091
tp2092
a(S'MPI_Type_commit()'
p2093
S'149'
p2094
tp2095
a(S'MPI_Iscatter()'
p2096
S'150'
p2097
tp2098
a(S'MPI_Type_free()'
p2099
S'151'
p2100
tp2101
a(S'MPI_Type_free()'
p2102
S'152'
p2103
tp2104
a(S'MPI_Iallgather()'
p2105
S'163'
p2106
tp2107
a(S'MPI_Type_commit()'
p2108
S'168'
p2109
tp2110
a(S'MPI_Type_commit()'
p2111
S'169'
p2112
tp2113
a(S'MPI_Iallgather()'
p2114
S'170'
p2115
tp2116
a(S'MPI_Type_free()'
p2117
S'171'
p2118
tp2119
a(S'MPI_Type_free()'
p2120
S'172'
p2121
tp2122
a(S'MPI_Ialltoall()'
p2123
S'183'
p2124
tp2125
a(S'MPI_Type_commit()'
p2126
S'188'
p2127
tp2128
a(S'MPI_Type_commit()'
p2129
S'189'
p2130
tp2131
a(S'MPI_Ialltoall()'
p2132
S'190'
p2133
tp2134
a(S'MPI_Type_free()'
p2135
S'191'
p2136
tp2137
a(S'MPI_Type_free()'
p2138
S'192'
p2139
tp2140
asS'intel-qs/util/BigMPI/test/test_allgather_x.c'
p2141
(lp2142
(S'MPI_Init()'
p2143
S'20'
p2144
tp2145
a(S'MPI_Comm_rank()'
p2146
S'23'
p2147
tp2148
a(S'MPI_Comm_size()'
p2149
S'24'
p2150
tp2151
a(S'MPI_Finalize()'
p2152
S'28'
p2153
tp2154
a(S'MPI_Alloc_mem()'
p2155
S'39'
p2156
tp2157
a(S'MPI_Alloc_mem()'
p2158
S'41'
p2159
tp2160
a(S'MPI_Free_mem()'
p2161
S'59'
p2162
tp2163
a(S'MPI_Free_mem()'
p2164
S'60'
p2165
tp2166
a(S'MPI_Finalize()'
p2167
S'66'
p2168
tp2169
asS'intel-qs/util/BigMPI/test/devel/in_place_user_def_reduce.c'
p2170
(lp2171
(S'MPI_Comm_rank()'
p2172
S'7'
p2173
tp2174
a(S'MPI_Init()'
p2175
S'14'
p2176
tp2177
a(S'MPI_Comm_rank()'
p2178
S'17'
p2179
tp2180
a(S'MPI_Comm_size()'
p2181
S'18'
p2182
tp2183
a(S'MPI_Op_create()'
p2184
S'22'
p2185
tp2186
a(S'MPI_Barrier()'
p2187
S'29'
p2188
tp2189
a(S'MPI_Barrier()'
p2190
S'31'
p2191
tp2192
a(S'MPI_Allreduce()'
p2193
S'34'
p2194
tp2195
a(S'MPI_Barrier()'
p2196
S'35'
p2197
tp2198
a(S'MPI_Barrier()'
p2199
S'37'
p2200
tp2201
a(S'MPI_Allreduce()'
p2202
S'40'
p2203
tp2204
a(S'MPI_Barrier()'
p2205
S'41'
p2206
tp2207
a(S'MPI_Barrier()'
p2208
S'43'
p2209
tp2210
a(S'MPI_Op_free()'
p2211
S'45'
p2212
tp2213
a(S'MPI_Finalize()'
p2214
S'46'
p2215
tp2216
asS'intel-qs/util/BigMPI/test/test_assert_x.c'
p2217
(lp2218
(S'MPI_Init()'
p2219
S'14'
p2220
tp2221
a(S'MPI_Finalize()'
p2222
S'16'
p2223
tp2224
asS'intel-qs/src/mpi_env.cpp'
p2225
(lp2226
(S'MPI_Wait()'
p2227
S'222'
p2228
tp2229
a(S'MPI_Test()'
p2230
S'226'
p2231
tp2232
a(S'MPI_Barrier()'
p2233
S'231'
p2234
tp2235
a(S'MPI_Finalize()'
p2236
S'232'
p2237
tp2238
a(S'MPI_Comm_rank()'
p2239
S'258'
p2240
tp2241
a(S'MPI_Comm_size()'
p2242
S'259'
p2243
tp2244
a(S'MPI_Comm_split_type()'
p2245
S'265'
p2246
tp2247
a(S'X_MPI_INFO_NULL()'
p2248
S'266'
p2249
tp2250
a(S'MPI_Comm_rank()'
p2251
S'267'
p2252
tp2253
a(S'MPI_Comm_size()'
p2254
S'268'
p2255
tp2256
a(S'MPI_Comm_free()'
p2257
S'277'
p2258
tp2259
a(S'MPI_Barrier()'
p2260
S'291'
p2261
tp2262
a(S'MPI_Comm_split()'
p2263
S'296'
p2264
tp2265
a(S'MPI_Comm_group()'
p2266
S'310'
p2267
tp2268
a(S'MPI_Group_incl()'
p2269
S'323'
p2270
tp2271
a(S'MPI_Comm_create_group()'
p2272
S'326'
p2273
tp2274
a(S'MPI_Group_incl()'
p2275
S'338'
p2276
tp2277
a(S'MPI_Comm_create_group()'
p2278
S'340'
p2279
tp2280
a(S'MPI_Group_incl()'
p2281
S'352'
p2282
tp2283
a(S'MPI_Comm_create_group()'
p2284
S'355'
p2285
tp2286
a(S'MPI_Barrier()'
p2287
S'358'
p2288
tp2289
a(S'MPI_Comm_split_type()'
p2290
S'445'
p2291
tp2292
a(S'X_MPI_INFO_NULL()'
p2293
S'446'
p2294
tp2295
a(S'MPI_Comm_size()'
p2296
S'447'
p2297
tp2298
a(S'MPI_Comm_free()'
p2299
S'448'
p2300
tp2301
a(S'MPI_Comm_split()'
p2302
S'458'
p2303
tp2304
a(S'MPI_Allreduce_x()'
p2305
S'477'
p2306
tp2307
a(S'MPI_Barrier()'
p2308
S'502'
p2309
tp2310
a(S'MPI_Barrier()'
p2311
S'508'
p2312
tp2313
a(S'X_MPI_Recv()'
p2314
S'542'
p2315
tp2316
a(S'X_MPI_CHAR()'
p2317
S'550'
p2318
tp2319
a(S'MPI_Comm_rank()'
p2320
S'567'
p2321
tp2322
a(S'MPI_Comm_size()'
p2323
S'568'
p2324
tp2325
a(S'MPI_Barrier()'
p2326
S'573'
p2327
tp2328
a(S'X_MPI_Recv()'
p2329
S'591'
p2330
tp2331
a(S'X_MPI_Recv()'
p2332
S'593'
p2333
tp2334
a(S'X_MPI_CHAR()'
p2335
S'601'
p2336
tp2337
a(S'MPI_Barrier()'
p2338
S'604'
p2339
tp2340
a(S'MPI_Barrier()'
p2341
S'608'
p2342
tp2343
a(S'MPI_Barrier()'
p2344
S'610'
p2345
tp2346
asS'intel-qs/util/BigMPI/test/test_ssend_recv_x.c'
p2347
(lp2348
(S'MPI_Init()'
p2349
S'17'
p2350
tp2351
a(S'MPI_Comm_rank()'
p2352
S'20'
p2353
tp2354
a(S'MPI_Comm_size()'
p2355
S'21'
p2356
tp2357
a(S'MPI_Finalize()'
p2358
S'27'
p2359
tp2360
a(S'MPI_Alloc_mem()'
p2361
S'37'
p2362
tp2363
a(S'MPI_Free_mem()'
p2364
S'58'
p2365
tp2366
a(S'MPI_Finalize()'
p2367
S'64'
p2368
tp2369
asS'intel-qs/util/BigMPI/README.md'
p2370
(lp2371
(S'MPI_Bcast()'
p2372
S'44'
p2373
tp2374
asS'intel-qs/util/BigMPI/test/test_irsend_irecv_x.c'
p2375
(lp2376
(S'MPI_Init()'
p2377
S'17'
p2378
tp2379
a(S'MPI_Comm_rank()'
p2380
S'20'
p2381
tp2382
a(S'MPI_Comm_size()'
p2383
S'21'
p2384
tp2385
a(S'MPI_Finalize()'
p2386
S'27'
p2387
tp2388
a(S'MPI_Alloc_mem()'
p2389
S'37'
p2390
tp2391
a(S'MPI_Wait()'
p2392
S'55'
p2393
tp2394
a(S'MPI_Free_mem()'
p2395
S'66'
p2396
tp2397
a(S'MPI_Finalize()'
p2398
S'72'
p2399
tp2400
asS'intel-qs/util/BigMPI/test/test_send_recv_x.c'
p2401
(lp2402
(S'MPI_Init()'
p2403
S'17'
p2404
tp2405
a(S'MPI_Comm_rank()'
p2406
S'20'
p2407
tp2408
a(S'MPI_Comm_size()'
p2409
S'21'
p2410
tp2411
a(S'MPI_Finalize()'
p2412
S'27'
p2413
tp2414
a(S'MPI_Alloc_mem()'
p2415
S'37'
p2416
tp2417
a(S'MPI_Free_mem()'
p2418
S'58'
p2419
tp2420
a(S'MPI_Finalize()'
p2421
S'64'
p2422
tp2423
asS'intel-qs/util/BigMPI/test/mpi/scatterv.c'
p2424
(lp2425
(S'MPI_Init()'
p2426
S'15'
p2427
tp2428
a(S'MPI_Comm_rank()'
p2429
S'18'
p2430
tp2431
a(S'MPI_Comm_size()'
p2432
S'19'
p2433
tp2434
a(S'MPI_Finalize()'
p2435
S'23'
p2436
tp2437
a(S'MPI_Scatterv()'
p2438
S'42'
p2439
tp2440
a(S'MPI_Finalize()'
p2441
S'52'
p2442
tp2443
asS'intel-qs/util/BigMPI/test/test_scatter_x.c'
p2444
(lp2445
(S'MPI_Init()'
p2446
S'20'
p2447
tp2448
a(S'MPI_Comm_rank()'
p2449
S'23'
p2450
tp2451
a(S'MPI_Comm_size()'
p2452
S'24'
p2453
tp2454
a(S'MPI_Finalize()'
p2455
S'28'
p2456
tp2457
a(S'MPI_Alloc_mem()'
p2458
S'39'
p2459
tp2460
a(S'MPI_Alloc_mem()'
p2461
S'41'
p2462
tp2463
a(S'MPI_Free_mem()'
p2464
S'60'
p2465
tp2466
a(S'MPI_Free_mem()'
p2467
S'61'
p2468
tp2469
a(S'MPI_Finalize()'
p2470
S'67'
p2471
tp2472
asS'intel-qs/pybind11/intelqs_py.cpp'
p2473
(lp2474
(S'MPI_Comm_size()'
p2475
S'403'
p2476
tp2477
asS'intel-qs/util/BigMPI/test/test_factorize.c'
p2478
(lp2479
(S'MPI_Init()'
p2480
S'63'
p2481
tp2482
a(S'MPI_Comm_rank()'
p2483
S'64'
p2484
tp2485
a(S'MPI_Comm_size()'
p2486
S'65'
p2487
tp2488
a(S'MPI_Finalize()'
p2489
S'97'
p2490
tp2491
asS'intel-qs/util/BigMPI/src/type_hindexed_x.c'
p2492
(lp2493
(S'MPI_Type_create_struct()'
p2494
S'57'
p2495
tp2496
a(S'MPI_Type_free()'
p2497
S'60'
p2498
tp2499
asS'intel-qs/util/BigMPI/test/test_gather_x.c'
p2500
(lp2501
(S'MPI_Init()'
p2502
S'19'
p2503
tp2504
a(S'MPI_Comm_rank()'
p2505
S'22'
p2506
tp2507
a(S'MPI_Comm_size()'
p2508
S'23'
p2509
tp2510
a(S'MPI_Finalize()'
p2511
S'27'
p2512
tp2513
a(S'MPI_Alloc_mem()'
p2514
S'38'
p2515
tp2516
a(S'MPI_Alloc_mem()'
p2517
S'39'
p2518
tp2519
a(S'MPI_Free_mem()'
p2520
S'65'
p2521
tp2522
a(S'MPI_Free_mem()'
p2523
S'66'
p2524
tp2525
a(S'MPI_Finalize()'
p2526
S'72'
p2527
tp2528
asS'intel-qs/util/BigMPI/test/perf/typepiggy.c'
p2529
(lp2530
(S'MPI_Type_size()'
p2531
S'12'
p2532
tp2533
a(S'MPI_Type_create_struct()'
p2534
S'17'
p2535
tp2536
a(S'MPI_Init()'
p2537
S'25'
p2538
tp2539
a(S'MPI_Comm_rank()'
p2540
S'26'
p2541
tp2542
a(S'MPI_Comm_size()'
p2543
S'27'
p2544
tp2545
a(S'MPI_Type_commit()'
p2546
S'35'
p2547
tp2548
a(S'MPI_Type_free()'
p2549
S'36'
p2550
tp2551
a(S'MPI_Finalize()'
p2552
S'48'
p2553
tp2554
as.