ccollections
defaultdict
p0
(c__builtin__
list
p1
tp2
Rp3
S'cosmotools/algorithms/sfprobe/ParallelStructureFormationProbe.h'
p4
(lp5
(S'MPI_Comm_size()'
p6
S'46'
p7
tp8
a(S'MPI_Comm_rank()'
p9
S'58'
p10
tp11
asS'cosmotools/algorithms/tess/lib/draw.cpp'
p12
(lp13
(S'MPI_Init()'
p14
S'188'
p15
tp16
a(S'MPI_Finalize()'
p17
S'191'
p18
tp19
asS'cosmotools/framework/InSituAnalysisManager.cxx'
p20
(lp21
(S'MPI_Cart_rank()'
p22
S'208'
p23
tp24
a(S'MPI_Topo_test()'
p25
S'219'
p26
tp27
a(S'MPI_Abort()'
p28
S'243'
p29
tp30
a(S'MPI_Cart_get()'
p31
S'250'
p32
tp33
a(S'MPI_Comm_rank()'
p34
S'260'
p35
tp36
a(S'MPI_Comm_size()'
p37
S'261'
p38
tp39
a(S'MPI_Comm_size()'
p40
S'316'
p41
tp42
a(S'MPI_Comm_rank()'
p43
S'317'
p44
tp45
a(S'MPI_Allreduce()'
p46
S'559'
p47
tp48
a(S'MPI_Gather()'
p49
S'570'
p50
tp51
asS'cosmotools/algorithms/tess/lib/tess.c'
p52
(lp53
(S'MPI_Barrier()'
p54
S'309'
p55
tp56
a(S'MPI_Barrier()'
p57
S'318'
p58
tp59
a(S'MPI_Barrier()'
p60
S'326'
p61
tp62
a(S'MPI_Barrier()'
p63
S'337'
p64
tp65
a(S'MPI_Barrier()'
p66
S'364'
p67
tp68
a(S'MPI_Barrier()'
p69
S'379'
p70
tp71
a(S'MPI_Wtime()'
p72
S'508'
p73
tp74
a(S'MPI_Wtime()'
p75
S'519'
p76
tp77
a(S'MPI_Wtime()'
p78
S'527'
p79
tp80
a(S'MPI_Comm_rank()'
p81
S'704'
p82
tp83
a(S'MPI_Comm_size()'
p84
S'896'
p85
tp86
a(S'MPI_Op_create()'
p87
S'948'
p88
tp89
a(S'MPI_Op_create()'
p90
S'949'
p91
tp92
a(S'MPI_Reduce()'
p93
S'952'
p94
tp95
a(S'MPI_Bcast()'
p96
S'954'
p97
tp98
a(S'MPI_Reduce()'
p99
S'1029'
p100
tp101
a(S'MPI_Op_free()'
p102
S'1056'
p103
tp104
a(S'MPI_Op_free()'
p105
S'1057'
p106
tp107
asS'cosmotools/common/CosmoToolsDefinitions.h.in'
p108
(lp109
(S'X_MPI_POSVEL_T()'
p110
S'36'
p111
tp112
a(S'X_MPI_POSVEL_T()'
p113
S'39'
p114
tp115
a(S'X_MPI_POTENTIAL_T()'
p116
S'47'
p117
tp118
a(S'X_MPI_POTENTIAL_T()'
p119
S'50'
p120
tp121
a(S'X_MPI_GRID_T()'
p122
S'55'
p123
tp124
a(S'X_MPI_GRID_T()'
p125
S'58'
p126
tp127
a(S'X_MPI_ID_T()'
p128
S'66'
p129
tp130
a(S'X_MPI_ID_T()'
p131
S'69'
p132
tp133
a(S'X_MPI_STATUS_T()'
p134
S'76'
p135
tp136
a(S'X_MPI_MASK_T()'
p137
S'79'
p138
tp139
a(S'X_MPI_REAL_T()'
p140
S'87'
p141
tp142
a(S'X_MPI_REAL_T()'
p143
S'90'
p144
tp145
a(S'X_MPI_INTEGER_T()'
p146
S'96'
p147
tp148
a(S'X_MPI_INTEGER_T()'
p149
S'99'
p150
tp151
asS'cosmotools/algorithms/tess/driver/driver_pm.cxx'
p152
(lp153
(S'MPI_Init()'
p154
S'51'
p155
tp156
a(S'MPI_Comm_size()'
p157
S'106'
p158
tp159
a(S'MPI_Barrier()'
p160
S'138'
p161
tp162
a(S'MPI_Barrier()'
p163
S'160'
p164
tp165
a(S'MPI_Barrier()'
p166
S'170'
p167
tp168
a(S'MPI_Barrier()'
p169
S'176'
p170
tp171
a(S'MPI_Barrier()'
p172
S'203'
p173
tp174
a(S'MPI_Barrier()'
p175
S'214'
p176
tp177
a(S'MPI_Barrier()'
p178
S'223'
p179
tp180
a(S'MPI_Barrier()'
p181
S'226'
p182
tp183
a(S'MPI_Barrier()'
p184
S'229'
p185
tp186
a(S'MPI_Barrier()'
p187
S'232'
p188
tp189
a(S'MPI_Barrier()'
p190
S'254'
p191
tp192
a(S'MPI_Barrier()'
p193
S'266'
p194
tp195
a(S'MPI_Barrier()'
p196
S'273'
p197
tp198
a(S'MPI_Barrier()'
p199
S'278'
p200
tp201
a(S'MPI_Barrier()'
p202
S'283'
p203
tp204
a(S'MPI_Allreduce()'
p205
S'288'
p206
tp207
a(S'X_MPI_DOUBLE()'
p208
S'289'
p209
tp210
a(S'MPI_Barrier()'
p211
S'290'
p212
tp213
a(S'MPI_Barrier()'
p214
S'297'
p215
tp216
a(S'MPI_Barrier()'
p217
S'302'
p218
tp219
a(S'MPI_Barrier()'
p220
S'309'
p221
tp222
a(S'MPI_Allreduce()'
p223
S'315'
p224
tp225
a(S'X_MPI_LONG_LONG()'
p226
S'316'
p227
tp228
a(S'MPI_Barrier()'
p229
S'322'
p230
tp231
a(S'MPI_Barrier()'
p232
S'346'
p233
tp234
a(S'MPI_Barrier()'
p235
S'352'
p236
tp237
a(S'MPI_Barrier()'
p238
S'358'
p239
tp240
a(S'MPI_Barrier()'
p241
S'367'
p242
tp243
a(S'MPI_Barrier()'
p244
S'376'
p245
tp246
a(S'MPI_Barrier()'
p247
S'389'
p248
tp249
a(S'MPI_Barrier()'
p250
S'480'
p251
tp252
a(S'MPI_Barrier()'
p253
S'482'
p254
tp255
a(S'MPI_Barrier()'
p256
S'484'
p257
tp258
a(S'MPI_Barrier()'
p259
S'487'
p260
tp261
a(S'MPI_Barrier()'
p262
S'495'
p263
tp264
a(S'MPI_Barrier()'
p265
S'500'
p266
tp267
a(S'MPI_Finalize()'
p268
S'509'
p269
tp270
a(S'X_MPI_COMM_WORLD()'
p271
S'623'
p272
tp273
asS'cosmotools/algorithms/halofinder/GridExchange.cxx'
p274
(lp275
(S'MPI_Isend()'
p276
S'586'
p277
tp278
a(S'MPI_Isend()'
p279
S'589'
p280
tp281
a(S'MPI_Recv()'
p282
S'596'
p283
tp284
a(S'MPI_Recv()'
p285
S'599'
p286
tp287
a(S'MPI_Barrier()'
p288
S'603'
p289
tp290
asS'cosmotools/framework/LANLHaloFinderInSituAlgorithm.cxx'
p291
(lp292
(S'MPI_Reduce()'
p293
S'174'
p294
tp295
a(S'MPI_Reduce()'
p296
S'183'
p297
tp298
asS'cosmotools/algorithms/halofinder/testing/InitTestP.cxx'
p299
(lp300
(S'MPI_Init()'
p301
S'72'
p302
tp303
a(S'MPI_Finalize()'
p304
S'194'
p305
tp306
asS'cosmotools/framework/InSituAnalysisConfig.cxx'
p307
(lp308
(S'MPI_Abort()'
p309
S'54'
p310
tp311
a(S'MPI_Comm_rank()'
p312
S'299'
p313
tp314
a(S'MPI_Bcast()'
p315
S'309'
p316
tp317
a(S'MPI_Bcast()'
p318
S'310'
p319
tp320
a(S'X_MPI_CHAR()'
p321
S'311'
p322
tp323
a(S'MPI_Bcast()'
p324
S'314'
p325
tp326
a(S'MPI_Bcast()'
p327
S'317'
p328
tp329
asS'cosmotools/algorithms/halofinder/testing/GridTestP.cxx'
p330
(lp331
(S'MPI_Init()'
p332
S'48'
p333
tp334
a(S'MPI_Barrier()'
p335
S'58'
p336
tp337
a(S'MPI_Finalize()'
p338
S'157'
p339
tp340
asS'cosmotools/algorithms/halofinder/CosmoHaloFinderP.cxx'
p341
(lp342
(S'MPI_Barrier()'
p343
S'350'
p344
tp345
a(S'MPI_Barrier()'
p346
S'357'
p347
tp348
a(S'MPI_Allreduce()'
p349
S'607'
p350
tp351
a(S'MPI_Barrier()'
p352
S'624'
p353
tp354
a(S'MPI_Barrier()'
p355
S'630'
p356
tp357
a(S'MPI_Barrier()'
p358
S'636'
p359
tp360
a(S'MPI_Allreduce()'
p361
S'645'
p362
tp363
a(S'MPI_Allreduce()'
p364
S'653'
p365
tp366
a(S'MPI_Allreduce()'
p367
S'701'
p368
tp369
a(S'MPI_Recv()'
p370
S'741'
p371
tp372
a(S'MPI_Recv()'
p373
S'744'
p374
tp375
a(S'MPI_Isend()'
p376
S'795'
p377
tp378
a(S'MPI_Isend()'
p379
S'798'
p380
tp381
a(S'MPI_Isend()'
p382
S'957'
p383
tp384
a(S'MPI_Isend()'
p385
S'960'
p386
tp387
a(S'MPI_Recv()'
p388
S'1005'
p389
tp390
a(S'MPI_Recv()'
p391
S'1008'
p392
tp393
asS'cosmotools/algorithms/halofinder/testing/TestExchange.cxx'
p394
(lp395
(S'MPI_Allreduce()'
p396
S'376'
p397
tp398
a(S'MPI_Allreduce()'
p399
S'379'
p400
tp401
a(S'MPI_Allreduce()'
p402
S'453'
p403
tp404
a(S'MPI_Barrier()'
p405
S'546'
p406
tp407
asS'cosmotools/framework/InSituAlgorithm.h'
p408
(lp409
(S'MPI_Comm_rank()'
p410
S'143'
p411
tp412
a(S'MPI_Barrier()'
p413
S'153'
p414
tp415
asS'cosmotools/algorithms/mergertree/ParallelHaloMergerTree.cxx'
p416
(lp417
(S'MPI_Comm_size()'
p418
S'55'
p419
tp420
a(S'MPI_Allreduce()'
p421
S'60'
p422
tp423
a(S'MPI_Allreduce()'
p424
S'356'
p425
tp426
a(S'MPI_Allreduce()'
p427
S'382'
p428
tp429
a(S'MPI_Allreduce()'
p430
S'443'
p431
tp432
a(S'MPI_Allreduce()'
p433
S'464'
p434
tp435
a(S'MPI_Allreduce()'
p436
S'474'
p437
tp438
a(S'MPI_Allreduce()'
p439
S'483'
p440
tp441
a(S'MPI_Allreduce()'
p442
S'493'
p443
tp444
a(S'MPI_Allreduce()'
p445
S'502'
p446
tp447
a(S'MPI_Allreduce()'
p448
S'511'
p449
tp450
asS'cosmotools/algorithms/mergertree/ParallelHaloMergerTree.h'
p451
(lp452
(S'MPI_Comm_rank()'
p453
S'49'
p454
tp455
asS'cosmotools/algorithms/mergertree/DistributedHaloEvolutionTree.cxx'
p456
(lp457
(S'MPI_Allreduce()'
p458
S'263'
p459
tp460
asS'cosmotools/algorithms/halofinder/Timings.cxx'
p461
(lp462
(S'MPI_Comm_size()'
p463
S'131'
p464
tp465
a(S'MPI_Comm_rank()'
p466
S'132'
p467
tp468
a(S'MPI_Reduce()'
p469
S'146'
p470
tp471
a(S'MPI_Reduce()'
p472
S'148'
p473
tp474
a(S'MPI_Reduce()'
p475
S'168'
p476
tp477
a(S'MPI_Reduce()'
p478
S'170'
p479
tp480
a(S'MPI_Reduce()'
p481
S'172'
p482
tp483
a(S'MPI_Reduce()'
p484
S'174'
p485
tp486
a(S'MPI_Reduce()'
p487
S'176'
p488
tp489
a(S'MPI_Reduce()'
p490
S'178'
p491
tp492
asS'cosmotools/algorithms/halofinder/HaloFinder.cxx'
p493
(lp494
(S'MPI_Barrier()'
p495
S'977'
p496
tp497
a(S'MPI_Init()'
p498
S'1218'
p499
tp500
a(S'MPI_Barrier()'
p501
S'1226'
p502
tp503
a(S'MPI_Barrier()'
p504
S'1230'
p505
tp506
a(S'MPI_Barrier()'
p507
S'1246'
p508
tp509
a(S'MPI_Barrier()'
p510
S'1252'
p511
tp512
a(S'MPI_Finalize()'
p513
S'1257'
p514
tp515
asS'cosmotools/algorithms/halofinder/ParticleDistribute.cxx'
p516
(lp517
(S'MPI_Type_struct()'
p518
S'246'
p519
tp520
a(S'MPI_Type_commit()'
p521
S'247'
p522
tp523
a(S'MPI_Alltoall()'
p524
S'371'
p525
tp526
a(S'MPI_Alltoallv()'
p527
S'399'
p528
tp529
a(S'MPI_Irecv()'
p530
S'410'
p531
tp532
a(S'MPI_Barrier()'
p533
S'414'
p534
tp535
a(S'MPI_Isend()'
p536
S'421'
p537
tp538
a(S'MPI_Waitall()'
p539
S'426'
p540
tp541
a(S'MPI_Allreduce()'
p542
S'482'
p543
tp544
a(S'MPI_Type_free()'
p545
S'496'
p546
tp547
a(S'MPI_Allreduce()'
p548
S'686'
p549
tp550
a(S'MPI_Allreduce()'
p551
S'951'
p552
tp553
a(S'MPI_Allreduce()'
p554
S'960'
p555
tp556
a(S'MPI_Allreduce()'
p557
S'969'
p558
tp559
a(S'MPI_Barrier()'
p560
S'1025'
p561
tp562
a(S'MPI_Barrier()'
p563
S'1034'
p564
tp565
a(S'MPI_Cart_rank()'
p566
S'1343'
p567
tp568
a(S'MPI_Cart_rank()'
p569
S'1499'
p570
tp571
asS'cosmotools/programs/halotracker.cxx'
p572
(lp573
(S'MPI_Init()'
p574
S'179'
p575
tp576
a(S'MPI_Comm_rank()'
p577
S'180'
p578
tp579
a(S'MPI_Comm_size()'
p580
S'181'
p581
tp582
a(S'MPI_Allreduce()'
p583
S'242'
p584
tp585
a(S'MPI_Allreduce()'
p586
S'255'
p587
tp588
a(S'MPI_Barrier()'
p589
S'316'
p590
tp591
a(S'MPI_Finalize()'
p592
S'323'
p593
tp594
a(S'MPI_Reduce()'
p595
S'386'
p596
tp597
a(S'MPI_Barrier()'
p598
S'404'
p599
tp600
a(S'MPI_Reduce()'
p601
S'416'
p602
tp603
a(S'MPI_Reduce()'
p604
S'417'
p605
tp606
a(S'MPI_Reduce()'
p607
S'418'
p608
tp609
a(S'MPI_Barrier()'
p610
S'430'
p611
tp612
a(S'MPI_Abort()'
p613
S'478'
p614
tp615
a(S'MPI_Barrier()'
p616
S'493'
p617
tp618
a(S'MPI_Abort()'
p619
S'519'
p620
tp621
a(S'MPI_Bcast()'
p622
S'528'
p623
tp624
a(S'MPI_Bcast()'
p625
S'529'
p626
tp627
a(S'X_MPI_CHAR()'
p628
S'531'
p629
tp630
a(S'MPI_Bcast()'
p631
S'537'
p632
tp633
a(S'MPI_Bcast()'
p634
S'540'
p635
tp636
a(S'MPI_Barrier()'
p637
S'608'
p638
tp639
a(S'MPI_Abort()'
p640
S'853'
p641
tp642
a(S'MPI_Bcast()'
p643
S'861'
p644
tp645
a(S'MPI_Bcast()'
p646
S'864'
p647
tp648
a(S'MPI_Bcast()'
p649
S'868'
p650
tp651
a(S'MPI_Bcast()'
p652
S'874'
p653
tp654
a(S'MPI_Barrier()'
p655
S'879'
p656
tp657
a(S'MPI_Cart_rank()'
p658
S'888'
p659
tp660
a(S'MPI_Cart_get()'
p661
S'967'
p662
tp663
a(S'MPI_Dims_create()'
p664
S'1033'
p665
tp666
a(S'MPI_Cart_create()'
p667
S'1037'
p668
tp669
a(S'MPI_Comm_rank()'
p670
S'1040'
p671
tp672
asS'cosmotools/algorithms/tess/driver/main.cpp'
p673
(lp674
(S'MPI_Init()'
p675
S'19'
p676
tp677
a(S'MPI_Comm_rank()'
p678
S'26'
p679
tp680
a(S'MPI_Finalize()'
p681
S'27'
p682
tp683
asS'cosmotools/examples/generic-io-reader/ParticleReader.cxx'
p684
(lp685
(S'MPI_Init()'
p686
S'59'
p687
tp688
a(S'MPI_Comm_rank()'
p689
S'60'
p690
tp691
a(S'MPI_Comm_size()'
p692
S'61'
p693
tp694
a(S'MPI_Abort()'
p695
S'143'
p696
tp697
a(S'MPI_Finalize()'
p698
S'154'
p699
tp700
asS'cosmotools/framework/testing/TestConfigurationParser.cxx'
p701
(lp702
(S'MPI_Init()'
p703
S'23'
p704
tp705
a(S'MPI_Comm_rank()'
p706
S'24'
p707
tp708
a(S'MPI_Comm_size()'
p709
S'25'
p710
tp711
a(S'MPI_Barrier()'
p712
S'41'
p713
tp714
a(S'MPI_Finalize()'
p715
S'43'
p716
tp717
asS'cosmotools/algorithms/halofinder/dims.cxx'
p718
(lp719
(S'MPI_Dims_create()'
p720
S'36'
p721
tp722
asS'cosmotools/common/MPIUtilities.cxx'
p723
(lp724
(S'MPI_Scan()'
p725
S'24'
p726
tp727
a(S'MPI_Comm_rank()'
p728
S'40'
p729
tp730
a(S'MPI_Barrier()'
p731
S'49'
p732
tp733
a(S'MPI_Comm_rank()'
p734
S'62'
p735
tp736
a(S'MPI_Comm_size()'
p737
S'63'
p738
tp739
a(S'MPI_Isend()'
p740
S'81'
p741
tp742
a(S'MPI_Recv()'
p743
S'89'
p744
tp745
a(S'MPI_Recv()'
p746
S'102'
p747
tp748
a(S'MPI_Isend()'
p749
S'113'
p750
tp751
asS'cosmotools/algorithms/tess/lib/io.c'
p752
(lp753
(S'MPI_Allreduce()'
p754
S'139'
p755
tp756
a(S'MPI_Exscan()'
p757
S'142'
p758
tp759
a(S'MPI_Comm_rank()'
p760
S'397'
p761
tp762
a(S'MPI_Comm_size()'
p763
S'398'
p764
tp765
a(S'MPI_Comm_rank()'
p766
S'615'
p767
tp768
asS'cosmotools/algorithms/halofinder/testing/HaloTestP.cxx'
p769
(lp770
(S'MPI_Init()'
p771
S'1244'
p772
tp773
a(S'MPI_Barrier()'
p774
S'1254'
p775
tp776
a(S'MPI_Barrier()'
p777
S'1258'
p778
tp779
a(S'MPI_Barrier()'
p780
S'1274'
p781
tp782
a(S'MPI_Barrier()'
p783
S'1280'
p784
tp785
a(S'MPI_Finalize()'
p786
S'1285'
p787
tp788
asS'cosmotools/algorithms/halofinder/ParticleExchange.cxx'
p789
(lp790
(S'MPI_Allreduce()'
p791
S'504'
p792
tp793
a(S'MPI_Allreduce()'
p794
S'507'
p795
tp796
a(S'MPI_Allreduce()'
p797
S'587'
p798
tp799
a(S'MPI_Barrier()'
p800
S'608'
p801
tp802
a(S'MPI_Barrier()'
p803
S'716'
p804
tp805
asS'cosmotools/algorithms/halofinder/InitialExchange.cxx'
p806
(lp807
(S'MPI_Allreduce()'
p808
S'547'
p809
tp810
a(S'MPI_Allreduce()'
p811
S'653'
p812
tp813
a(S'MPI_Barrier()'
p814
S'671'
p815
tp816
a(S'MPI_Barrier()'
p817
S'739'
p818
tp819
asS'cosmotools/algorithms/tess/lib/dense.cpp'
p820
(lp821
(S'MPI_Init()'
p822
S'122'
p823
tp824
a(S'MPI_Comm_rank()'
p825
S'123'
p826
tp827
a(S'MPI_Comm_size()'
p828
S'124'
p829
tp830
a(S'MPI_Finalize()'
p831
S'268'
p832
tp833
a(S'MPI_File_open()'
p834
S'1100'
p835
tp836
a(S'X_MPI_INFO_NULL()'
p837
S'1102'
p838
tp839
a(S'MPI_File_set_size()'
p840
S'1104'
p841
tp842
a(S'MPI_Type_create_subarray()'
p843
S'1125'
p844
tp845
a(S'X_MPI_FLOAT()'
p846
S'1126'
p847
tp848
a(S'MPI_Type_commit()'
p849
S'1127'
p850
tp851
a(S'MPI_File_set_view()'
p852
S'1128'
p853
tp854
a(S'MPI_File_write_all()'
p855
S'1134'
p856
tp857
a(S'X_MPI_FLOAT()'
p858
S'1135'
p859
tp860
a(S'MPI_Get_count()'
p861
S'1139'
p862
tp863
a(S'MPI_Type_free()'
p864
S'1142'
p865
tp866
a(S'MPI_File_set_view()'
p867
S'1148'
p868
tp869
a(S'MPI_File_write_all()'
p870
S'1150'
p871
tp872
a(S'MPI_File_close()'
p873
S'1156'
p874
tp875
a(S'MPI_Error_string()'
p876
S'1168'
p877
tp878
a(S'MPI_Abort()'
p879
S'1170'
p880
tp881
asS'cosmotools/framework/InSituAnalysisManager.h'
p882
(lp883
(S'MPI_Barrier()'
p884
S'109'
p885
tp886
asS'cosmotools/common/CosmoToolsDefinitions.h'
p887
(lp888
(S'X_MPI_POSVEL_T()'
p889
S'17'
p890
tp891
a(S'X_MPI_POSVEL_T()'
p892
S'20'
p893
tp894
a(S'X_MPI_POTENTIAL_T()'
p895
S'28'
p896
tp897
a(S'X_MPI_POTENTIAL_T()'
p898
S'31'
p899
tp900
a(S'X_MPI_GRID_T()'
p901
S'36'
p902
tp903
a(S'X_MPI_GRID_T()'
p904
S'39'
p905
tp906
a(S'X_MPI_ID_T()'
p907
S'47'
p908
tp909
a(S'X_MPI_ID_T()'
p910
S'50'
p911
tp912
a(S'X_MPI_STATUS_T()'
p913
S'57'
p914
tp915
a(S'X_MPI_MASK_T()'
p916
S'60'
p917
tp918
a(S'X_MPI_REAL_T()'
p919
S'68'
p920
tp921
a(S'X_MPI_REAL_T()'
p922
S'71'
p923
tp924
a(S'X_MPI_INTEGER_T()'
p925
S'77'
p926
tp927
a(S'X_MPI_INTEGER_T()'
p928
S'80'
p929
tp930
asS'cosmotools/algorithms/halofinder/Message.cxx'
p931
(lp932
(S'MPI_Isend()'
p933
S'217'
p934
tp935
a(S'MPI_Recv()'
p936
S'241'
p937
tp938
asS'cosmotools/algorithms/halofinder/Partition.cxx'
p939
(lp940
(S'MPI_Comm_rank()'
p941
S'94'
p942
tp943
a(S'MPI_Comm_size()'
p944
S'95'
p945
tp946
a(S'MPI_Cart_create()'
p947
S'119'
p948
tp949
a(S'MPI_Comm_rank()'
p950
S'123'
p951
tp952
a(S'MPI_Cart_coords()'
p953
S'126'
p954
tp955
a(S'MPI_Cart_rank()'
p956
S'199'
p957
tp958
as.