ccollections
defaultdict
p0
(c__builtin__
list
p1
tp2
Rp3
S'IFOS/genmod/1D_linear_gradient_ac.c'
p4
(lp5
(S'MPI_Barrier()'
p6
S'84'
p7
tp8
a(S'MPI_Barrier()'
p9
S'89'
p10
tp11
asS'IFOS/genmod/model.c'
p12
(lp13
(S'MPI_Barrier()'
p14
S'107'
p15
tp16
asS'IFOS/genmod/FLnodes_elastic.c'
p17
(lp18
(S'MPI_Barrier()'
p19
S'147'
p20
tp21
a(S'MPI_Barrier()'
p22
S'152'
p23
tp24
a(S'MPI_Barrier()'
p25
S'157'
p26
tp27
asS'IFOS/src/taper_grad.c'
p28
(lp29
(S'MPI_Barrier()'
p30
S'167'
p31
tp32
a(S'MPI_Barrier()'
p33
S'251'
p34
tp35
a(S'MPI_Barrier()'
p36
S'278'
p37
tp38
a(S'MPI_Barrier()'
p39
S'416'
p40
tp41
a(S'MPI_Barrier()'
p42
S'419'
p43
tp44
a(S'MPI_Barrier()'
p45
S'512'
p46
tp47
asS'IFOS/src/LBFGS.c'
p48
(lp49
(S'MPI_Barrier()'
p50
S'158'
p51
tp52
a(S'MPI_Barrier()'
p53
S'161'
p54
tp55
a(S'MPI_Allreduce()'
p56
S'250'
p57
tp58
a(S'MPI_Allreduce()'
p59
S'251'
p60
tp61
a(S'MPI_Allreduce()'
p62
S'283'
p63
tp64
a(S'MPI_Allreduce()'
p65
S'315'
p66
tp67
asS'IFOS/genmod/1D_linear_gradient_visc.c'
p68
(lp69
(S'MPI_Barrier()'
p70
S'99'
p71
tp72
a(S'MPI_Barrier()'
p73
S'104'
p74
tp75
a(S'MPI_Barrier()'
p76
S'109'
p77
tp78
asS'IFOS/genmod/toy_example_elastic_manuell.c'
p79
(lp80
(S'MPI_Barrier()'
p81
S'234'
p82
tp83
a(S'MPI_Barrier()'
p84
S'236'
p85
tp86
a(S'MPI_Barrier()'
p87
S'242'
p88
tp89
a(S'MPI_Barrier()'
p90
S'244'
p91
tp92
a(S'MPI_Barrier()'
p93
S'250'
p94
tp95
a(S'MPI_Barrier()'
p96
S'252'
p97
tp98
asS'IFOS/genmod/1D_linear_gradient_viscac.c'
p99
(lp100
(S'MPI_Barrier()'
p101
S'92'
p102
tp103
a(S'MPI_Barrier()'
p104
S'97'
p105
tp106
asS'IFOS/genmod/waveform_start_mu.c'
p107
(lp108
(S'MPI_Barrier()'
p109
S'95'
p110
tp111
a(S'MPI_Barrier()'
p112
S'104'
p113
tp114
a(S'MPI_Barrier()'
p115
S'112'
p116
tp117
asS'IFOS/genmod/hh_visc.c'
p118
(lp119
(S'MPI_Barrier()'
p120
S'99'
p121
tp122
asS'IFOS/src/notes/IFOS2D-summary.c'
p123
(lp124
(S'MPI_Init()'
p125
S'142'
p126
tp127
a(S'MPI_Comm_size()'
p128
S'143'
p129
tp130
a(S'MPI_Comm_rank()'
p131
S'144'
p132
tp133
a(S'MPI_Buffer_attach()'
p134
S'283'
p135
tp136
a(S'MPI_Barrier()'
p137
S'642'
p138
tp139
a(S'MPI_Barrier()'
p140
S'682'
p141
tp142
asS'IFOS/genmod/waveform_crase_simple_start.c'
p143
(lp144
(S'MPI_Barrier()'
p145
S'122'
p146
tp147
a(S'MPI_Barrier()'
p148
S'131'
p149
tp150
a(S'MPI_Barrier()'
p151
S'139'
p152
tp153
asS'IFOS/genmod/waveform_crase_simple.c'
p154
(lp155
(S'MPI_Barrier()'
p156
S'151'
p157
tp158
a(S'MPI_Barrier()'
p159
S'160'
p160
tp161
a(S'MPI_Barrier()'
p162
S'168'
p163
tp164
asS'IFOS/src/matcopy.c'
p165
(lp166
(S'MPI_Bsend()'
p167
S'81'
p168
tp169
a(S'MPI_Barrier()'
p170
S'82'
p171
tp172
a(S'MPI_Recv()'
p173
S'83'
p174
tp175
a(S'MPI_Bsend()'
p176
S'84'
p177
tp178
a(S'MPI_Barrier()'
p179
S'85'
p180
tp181
a(S'MPI_Recv()'
p182
S'86'
p183
tp184
a(S'MPI_Bsend()'
p185
S'134'
p186
tp187
a(S'MPI_Barrier()'
p188
S'135'
p189
tp190
a(S'MPI_Recv()'
p191
S'136'
p192
tp193
a(S'MPI_Bsend()'
p194
S'137'
p195
tp196
a(S'MPI_Barrier()'
p197
S'138'
p198
tp199
a(S'MPI_Recv()'
p200
S'139'
p201
tp202
asS'IFOS/src/PCG.c'
p203
(lp204
(S'MPI_Barrier()'
p205
S'88'
p206
tp207
a(S'MPI_Barrier()'
p208
S'94'
p209
tp210
a(S'MPI_Barrier()'
p211
S'132'
p212
tp213
a(S'MPI_Barrier()'
p214
S'137'
p215
tp216
a(S'MPI_Allreduce()'
p217
S'192'
p218
tp219
a(S'MPI_Allreduce()'
p220
S'196'
p221
tp222
a(S'MPI_Barrier()'
p223
S'261'
p224
tp225
a(S'MPI_Barrier()'
p226
S'282'
p227
tp228
a(S'MPI_Barrier()'
p229
S'324'
p230
tp231
a(S'MPI_Barrier()'
p232
S'363'
p233
tp234
a(S'MPI_Barrier()'
p235
S'368'
p236
tp237
a(S'MPI_Allreduce()'
p238
S'422'
p239
tp240
a(S'MPI_Allreduce()'
p241
S'426'
p242
tp243
a(S'MPI_Barrier()'
p244
S'491'
p245
tp246
a(S'MPI_Barrier()'
p247
S'511'
p248
tp249
a(S'MPI_Barrier()'
p250
S'551'
p251
tp252
a(S'MPI_Barrier()'
p253
S'590'
p254
tp255
a(S'MPI_Barrier()'
p256
S'595'
p257
tp258
a(S'MPI_Allreduce()'
p259
S'650'
p260
tp261
a(S'MPI_Allreduce()'
p262
S'654'
p263
tp264
a(S'MPI_Barrier()'
p265
S'718'
p266
tp267
a(S'MPI_Barrier()'
p268
S'738'
p269
tp270
asS'IFOS/genmod/waveform_start_simple.c'
p271
(lp272
(S'MPI_Barrier()'
p273
S'99'
p274
tp275
a(S'MPI_Barrier()'
p276
S'108'
p277
tp278
a(S'MPI_Barrier()'
p279
S'116'
p280
tp281
asS'IFOS/src/exchange_v.c'
p282
(lp283
(S'MPI_Sendrecv_replace()'
p284
S'100'
p285
tp286
a(S'MPI_Sendrecv_replace()'
p287
S'101'
p288
tp289
a(S'MPI_Sendrecv_replace()'
p290
S'187'
p291
tp292
a(S'MPI_Sendrecv_replace()'
p293
S'188'
p294
tp295
asS'IFOS/src/receiver.c'
p296
(lp297
(S'MPI_Barrier()'
p298
S'206'
p299
tp300
a(S'MPI_Bcast()'
p301
S'207'
p302
tp303
a(S'MPI_Bcast()'
p304
S'209'
p305
tp306
asS'IFOS/src/exchange_par.c'
p307
(lp308
(S'MPI_Barrier()'
p309
S'383'
p310
tp311
a(S'MPI_Bcast()'
p312
S'385'
p313
tp314
a(S'MPI_Bcast()'
p315
S'386'
p316
tp317
a(S'MPI_Bcast()'
p318
S'389'
p319
tp320
a(S'MPI_Bcast()'
p321
S'390'
p322
tp323
a(S'MPI_Bcast()'
p324
S'391'
p325
tp326
a(S'MPI_Bcast()'
p327
S'392'
p328
tp329
a(S'MPI_Bcast()'
p330
S'393'
p331
tp332
a(S'MPI_Bcast()'
p333
S'394'
p334
tp335
a(S'MPI_Bcast()'
p336
S'395'
p337
tp338
a(S'MPI_Bcast()'
p339
S'396'
p340
tp341
a(S'MPI_Bcast()'
p342
S'397'
p343
tp344
a(S'MPI_Bcast()'
p345
S'398'
p346
tp347
a(S'MPI_Bcast()'
p348
S'399'
p349
tp350
a(S'MPI_Bcast()'
p351
S'400'
p352
tp353
a(S'MPI_Bcast()'
p354
S'401'
p355
tp356
a(S'MPI_Bcast()'
p357
S'404'
p358
tp359
a(S'MPI_Bcast()'
p360
S'406'
p361
tp362
a(S'MPI_Bcast()'
p363
S'408'
p364
tp365
a(S'MPI_Bcast()'
p366
S'409'
p367
tp368
a(S'MPI_Bcast()'
p369
S'411'
p370
tp371
a(S'MPI_Bcast()'
p372
S'413'
p373
tp374
a(S'MPI_Barrier()'
p375
S'415'
p376
tp377
a(S'MPI_Bcast()'
p378
S'673'
p379
tp380
asS'IFOS/genmod/1D_linear_gradient_el.c'
p381
(lp382
(S'MPI_Barrier()'
p383
S'88'
p384
tp385
a(S'MPI_Barrier()'
p386
S'93'
p387
tp388
a(S'MPI_Barrier()'
p389
S'98'
p390
tp391
asS'IFOS/src/matrix_operations.c'
p392
(lp393
(S'MPI_Barrier()'
p394
S'41'
p395
tp396
a(S'MPI_Barrier()'
p397
S'47'
p398
tp399
a(S'MPI_Allreduce()'
p400
S'68'
p401
tp402
a(S'MPI_Allreduce()'
p403
S'93'
p404
tp405
a(S'MPI_Bcast()'
p406
S'98'
p407
tp408
a(S'MPI_Allreduce()'
p409
S'119'
p410
tp411
a(S'MPI_Allreduce()'
p412
S'162'
p413
tp414
asS'IFOS/genmod/FLnodes_visc.c'
p415
(lp416
(S'MPI_Barrier()'
p417
S'160'
p418
tp419
a(S'MPI_Barrier()'
p420
S'169'
p421
tp422
a(S'MPI_Barrier()'
p423
S'179'
p424
tp425
a(S'MPI_Barrier()'
p426
S'189'
p427
tp428
a(S'MPI_Barrier()'
p429
S'199'
p430
tp431
asS'IFOS/genmod/toy_example_ac_true.c'
p432
(lp433
(S'MPI_Barrier()'
p434
S'150'
p435
tp436
a(S'MPI_Barrier()'
p437
S'152'
p438
tp439
a(S'MPI_Barrier()'
p440
S'158'
p441
tp442
a(S'MPI_Barrier()'
p443
S'160'
p444
tp445
asS'IFOS/genmod/toy_example_true_trench.c'
p446
(lp447
(S'MPI_Barrier()'
p448
S'260'
p449
tp450
a(S'MPI_Barrier()'
p451
S'262'
p452
tp453
a(S'MPI_Barrier()'
p454
S'268'
p455
tp456
a(S'MPI_Barrier()'
p457
S'270'
p458
tp459
a(S'MPI_Barrier()'
p460
S'276'
p461
tp462
a(S'MPI_Barrier()'
p463
S'278'
p464
tp465
a(S'MPI_Barrier()'
p466
S'284'
p467
tp468
a(S'MPI_Barrier()'
p469
S'286'
p470
tp471
a(S'MPI_Barrier()'
p472
S'292'
p473
tp474
a(S'MPI_Barrier()'
p475
S'294'
p476
tp477
asS'IFOS/src/spat_filt.c'
p478
(lp479
(S'MPI_Barrier()'
p480
S'70'
p481
tp482
a(S'MPI_Barrier()'
p483
S'123'
p484
tp485
asS'IFOS/src/calc_mat_change_test.c'
p486
(lp487
(S'MPI_Allreduce()'
p488
S'154'
p489
tp490
a(S'MPI_Allreduce()'
p491
S'155'
p492
tp493
a(S'MPI_Allreduce()'
p494
S'167'
p495
tp496
a(S'MPI_Allreduce()'
p497
S'175'
p498
tp499
a(S'MPI_Allreduce()'
p500
S'176'
p501
tp502
a(S'MPI_Allreduce()'
p503
S'188'
p504
tp505
a(S'MPI_Allreduce()'
p506
S'196'
p507
tp508
a(S'MPI_Allreduce()'
p509
S'197'
p510
tp511
a(S'MPI_Allreduce()'
p512
S'209'
p513
tp514
a(S'MPI_Barrier()'
p515
S'343'
p516
tp517
a(S'MPI_Barrier()'
p518
S'346'
p519
tp520
a(S'MPI_Barrier()'
p521
S'353'
p522
tp523
a(S'MPI_Barrier()'
p524
S'356'
p525
tp526
a(S'MPI_Barrier()'
p527
S'363'
p528
tp529
a(S'MPI_Barrier()'
p530
S'366'
p531
tp532
a(S'MPI_Barrier()'
p533
S'382'
p534
tp535
a(S'MPI_Barrier()'
p536
S'386'
p537
tp538
a(S'MPI_Barrier()'
p539
S'397'
p540
tp541
a(S'MPI_Barrier()'
p542
S'401'
p543
tp544
a(S'MPI_Barrier()'
p545
S'411'
p546
tp547
a(S'MPI_Barrier()'
p548
S'415'
p549
tp550
a(S'MPI_Barrier()'
p551
S'426'
p552
tp553
a(S'MPI_Barrier()'
p554
S'429'
p555
tp556
a(S'MPI_Barrier()'
p557
S'436'
p558
tp559
a(S'MPI_Barrier()'
p560
S'439'
p561
tp562
a(S'MPI_Barrier()'
p563
S'446'
p564
tp565
a(S'MPI_Barrier()'
p566
S'449'
p567
tp568
a(S'MPI_Barrier()'
p569
S'460'
p570
tp571
a(S'MPI_Barrier()'
p572
S'464'
p573
tp574
a(S'MPI_Barrier()'
p575
S'475'
p576
tp577
a(S'MPI_Barrier()'
p578
S'479'
p579
tp580
a(S'MPI_Barrier()'
p581
S'489'
p582
tp583
a(S'MPI_Barrier()'
p584
S'493'
p585
tp586
asS'IFOS/src/comm_ini.c'
p587
(lp588
(S'MPI_Bsend_init()'
p589
S'48'
p590
tp591
a(S'MPI_Bsend_init()'
p592
S'49'
p593
tp594
a(S'MPI_Bsend_init()'
p595
S'50'
p596
tp597
a(S'MPI_Bsend_init()'
p598
S'51'
p599
tp600
a(S'MPI_Recv_init()'
p601
S'57'
p602
tp603
a(S'MPI_Recv_init()'
p604
S'58'
p605
tp606
a(S'MPI_Recv_init()'
p607
S'59'
p608
tp609
a(S'MPI_Recv_init()'
p610
S'60'
p611
tp612
asS'IFOS/src/exchange_p.c'
p613
(lp614
(S'MPI_Sendrecv_replace()'
p615
S'68'
p616
tp617
a(S'MPI_Sendrecv_replace()'
p618
S'69'
p619
tp620
a(S'MPI_Sendrecv_replace()'
p621
S'114'
p622
tp623
a(S'MPI_Sendrecv_replace()'
p624
S'115'
p625
tp626
asS'IFOS/src/PCG_SH.c'
p627
(lp628
(S'MPI_Barrier()'
p629
S'86'
p630
tp631
a(S'MPI_Barrier()'
p632
S'125'
p633
tp634
a(S'MPI_Barrier()'
p635
S'130'
p636
tp637
a(S'MPI_Allreduce()'
p638
S'185'
p639
tp640
a(S'MPI_Allreduce()'
p641
S'189'
p642
tp643
a(S'MPI_Barrier()'
p644
S'255'
p645
tp646
a(S'MPI_Barrier()'
p647
S'275'
p648
tp649
a(S'MPI_Barrier()'
p650
S'315'
p651
tp652
a(S'MPI_Barrier()'
p653
S'354'
p654
tp655
a(S'MPI_Barrier()'
p656
S'359'
p657
tp658
a(S'MPI_Allreduce()'
p659
S'414'
p660
tp661
a(S'MPI_Allreduce()'
p662
S'418'
p663
tp664
a(S'MPI_Barrier()'
p665
S'482'
p666
tp667
a(S'MPI_Barrier()'
p668
S'502'
p669
tp670
asS'IFOS/src/checkfd.c'
p671
(lp672
(S'MPI_Barrier()'
p673
S'166'
p674
tp675
a(S'MPI_Allreduce()'
p676
S'183'
p677
tp678
a(S'MPI_Allreduce()'
p679
S'184'
p680
tp681
a(S'MPI_Allreduce()'
p682
S'195'
p683
tp684
a(S'MPI_Allreduce()'
p685
S'196'
p686
tp687
a(S'MPI_Barrier()'
p688
S'414'
p689
tp690
asS'IFOS/src/matcopy_viscac.c'
p691
(lp692
(S'MPI_Bsend()'
p693
S'77'
p694
tp695
a(S'MPI_Barrier()'
p696
S'78'
p697
tp698
a(S'MPI_Recv()'
p699
S'79'
p700
tp701
a(S'MPI_Bsend()'
p702
S'80'
p703
tp704
a(S'MPI_Barrier()'
p705
S'81'
p706
tp707
a(S'MPI_Recv()'
p708
S'82'
p709
tp710
a(S'MPI_Bsend()'
p711
S'122'
p712
tp713
a(S'MPI_Barrier()'
p714
S'123'
p715
tp716
a(S'MPI_Recv()'
p717
S'124'
p718
tp719
a(S'MPI_Bsend()'
p720
S'125'
p721
tp722
a(S'MPI_Barrier()'
p723
S'126'
p724
tp725
a(S'MPI_Recv()'
p726
S'127'
p727
tp728
asS'IFOS/genmod/model_grad_loh_visc.c'
p729
(lp730
(S'MPI_Barrier()'
p731
S'106'
p732
tp733
a(S'MPI_Barrier()'
p734
S'111'
p735
tp736
a(S'MPI_Barrier()'
p737
S'116'
p738
tp739
asS'IFOS/genmod/waveform_start_mu_test.c'
p740
(lp741
(S'MPI_Barrier()'
p742
S'97'
p743
tp744
a(S'MPI_Barrier()'
p745
S'106'
p746
tp747
a(S'MPI_Barrier()'
p748
S'114'
p749
tp750
asS'IFOS/src/matcopy_acoustic.c'
p751
(lp752
(S'MPI_Bsend()'
p753
S'72'
p754
tp755
a(S'MPI_Barrier()'
p756
S'73'
p757
tp758
a(S'MPI_Recv()'
p759
S'74'
p760
tp761
a(S'MPI_Bsend()'
p762
S'75'
p763
tp764
a(S'MPI_Barrier()'
p765
S'76'
p766
tp767
a(S'MPI_Recv()'
p768
S'77'
p769
tp770
a(S'MPI_Bsend()'
p771
S'112'
p772
tp773
a(S'MPI_Barrier()'
p774
S'113'
p775
tp776
a(S'MPI_Recv()'
p777
S'114'
p778
tp779
a(S'MPI_Bsend()'
p780
S'115'
p781
tp782
a(S'MPI_Barrier()'
p783
S'116'
p784
tp785
a(S'MPI_Recv()'
p786
S'117'
p787
tp788
asS'IFOS/src/interpol.c'
p789
(lp790
(S'MPI_Bsend()'
p791
S'42'
p792
tp793
a(S'MPI_Barrier()'
p794
S'43'
p795
tp796
a(S'MPI_Recv()'
p797
S'44'
p798
tp799
a(S'MPI_Bsend()'
p800
S'64'
p801
tp802
a(S'MPI_Barrier()'
p803
S'65'
p804
tp805
a(S'MPI_Recv()'
p806
S'66'
p807
tp808
asS'IFOS/src/exchange_s.c'
p809
(lp810
(S'MPI_Sendrecv_replace()'
p811
S'103'
p812
tp813
a(S'MPI_Sendrecv_replace()'
p814
S'104'
p815
tp816
a(S'MPI_Sendrecv_replace()'
p817
S'192'
p818
tp819
a(S'MPI_Sendrecv_replace()'
p820
S'193'
p821
tp822
asS'IFOS/genmod/waveform_crase_simple_start_smooth.c'
p823
(lp824
(S'MPI_Barrier()'
p825
S'116'
p826
tp827
a(S'MPI_Barrier()'
p828
S'125'
p829
tp830
a(S'MPI_Barrier()'
p831
S'133'
p832
tp833
asS'IFOS/genmod/sphere/waveform_sphere.c'
p834
(lp835
(S'MPI_Barrier()'
p836
S'106'
p837
tp838
a(S'MPI_Barrier()'
p839
S'115'
p840
tp841
a(S'MPI_Barrier()'
p842
S'123'
p843
tp844
asS'IFOS/src/checkfd_ssg_visc.c'
p845
(lp846
(S'MPI_Barrier()'
p847
S'122'
p848
tp849
a(S'MPI_Allreduce()'
p850
S'131'
p851
tp852
a(S'MPI_Allreduce()'
p853
S'132'
p854
tp855
a(S'MPI_Allreduce()'
p856
S'143'
p857
tp858
a(S'MPI_Allreduce()'
p859
S'144'
p860
tp861
a(S'MPI_Barrier()'
p862
S'212'
p863
tp864
asS'IFOS/genmod/1D_start.c'
p865
(lp866
(S'MPI_Barrier()'
p867
S'148'
p868
tp869
a(S'MPI_Barrier()'
p870
S'157'
p871
tp872
a(S'MPI_Barrier()'
p873
S'165'
p874
tp875
asS'IFOS/src/max_grad.c'
p876
(lp877
(S'MPI_Allreduce()'
p878
S'121'
p879
tp880
a(S'MPI_Allreduce()'
p881
S'122'
p882
tp883
a(S'MPI_Allreduce()'
p884
S'127'
p885
tp886
a(S'MPI_Allreduce()'
p887
S'136'
p888
tp889
a(S'MPI_Allreduce()'
p890
S'137'
p891
tp892
a(S'MPI_Allreduce()'
p893
S'142'
p894
tp895
a(S'MPI_Allreduce()'
p896
S'150'
p897
tp898
a(S'MPI_Allreduce()'
p899
S'151'
p900
tp901
a(S'MPI_Allreduce()'
p902
S'155'
p903
tp904
asS'IFOS/src/eprecond1.c'
p905
(lp906
(S'MPI_Allreduce()'
p907
S'60'
p908
tp909
asS'IFOS/genmod/waveform_crase.c'
p910
(lp911
(S'MPI_Barrier()'
p912
S'151'
p913
tp914
a(S'MPI_Barrier()'
p915
S'160'
p916
tp917
a(S'MPI_Barrier()'
p918
S'168'
p919
tp920
asS'IFOS/genmod/Komatitsch/Koma.c'
p921
(lp922
(S'MPI_Barrier()'
p923
S'79'
p924
tp925
a(S'MPI_Barrier()'
p926
S'88'
p927
tp928
a(S'MPI_Barrier()'
p929
S'96'
p930
tp931
asS'IFOS/src/util.c'
p932
(lp933
(S'MPI_Abort()'
p934
S'34'
p935
tp936
asS'IFOS/genmod/toy_example_elastic_true.c'
p937
(lp938
(S'MPI_Barrier()'
p939
S'154'
p940
tp941
a(S'MPI_Barrier()'
p942
S'156'
p943
tp944
a(S'MPI_Barrier()'
p945
S'162'
p946
tp947
a(S'MPI_Barrier()'
p948
S'164'
p949
tp950
a(S'MPI_Barrier()'
p951
S'170'
p952
tp953
a(S'MPI_Barrier()'
p954
S'172'
p955
tp956
asS'IFOS/src/taper_grad_shot.c'
p957
(lp958
(S'MPI_Barrier()'
p959
S'77'
p960
tp961
asS'IFOS/genmod/toy_example_true.c'
p962
(lp963
(S'MPI_Barrier()'
p964
S'168'
p965
tp966
a(S'MPI_Barrier()'
p967
S'170'
p968
tp969
a(S'MPI_Barrier()'
p970
S'176'
p971
tp972
a(S'MPI_Barrier()'
p973
S'178'
p974
tp975
a(S'MPI_Barrier()'
p976
S'184'
p977
tp978
a(S'MPI_Barrier()'
p979
S'186'
p980
tp981
a(S'MPI_Barrier()'
p982
S'192'
p983
tp984
a(S'MPI_Barrier()'
p985
S'194'
p986
tp987
a(S'MPI_Barrier()'
p988
S'200'
p989
tp990
a(S'MPI_Barrier()'
p991
S'202'
p992
tp993
asS'IFOS/genmod/toy_example_ac_start.c'
p994
(lp995
(S'MPI_Barrier()'
p996
S'265'
p997
tp998
a(S'MPI_Barrier()'
p999
S'267'
p1000
tp1001
a(S'MPI_Barrier()'
p1002
S'273'
p1003
tp1004
a(S'MPI_Barrier()'
p1005
S'275'
p1006
tp1007
a(S'MPI_Barrier()'
p1008
S'282'
p1009
tp1010
a(S'MPI_Barrier()'
p1011
S'284'
p1012
tp1013
a(S'MPI_Barrier()'
p1014
S'290'
p1015
tp1016
a(S'MPI_Barrier()'
p1017
S'292'
p1018
tp1019
asS'IFOS/src/matcopy_elastic.c'
p1020
(lp1021
(S'MPI_Bsend()'
p1022
S'76'
p1023
tp1024
a(S'MPI_Barrier()'
p1025
S'77'
p1026
tp1027
a(S'MPI_Recv()'
p1028
S'78'
p1029
tp1030
a(S'MPI_Bsend()'
p1031
S'79'
p1032
tp1033
a(S'MPI_Barrier()'
p1034
S'80'
p1035
tp1036
a(S'MPI_Recv()'
p1037
S'81'
p1038
tp1039
a(S'MPI_Bsend()'
p1040
S'121'
p1041
tp1042
a(S'MPI_Barrier()'
p1043
S'122'
p1044
tp1045
a(S'MPI_Recv()'
p1046
S'123'
p1047
tp1048
a(S'MPI_Bsend()'
p1049
S'124'
p1050
tp1051
a(S'MPI_Barrier()'
p1052
S'125'
p1053
tp1054
a(S'MPI_Recv()'
p1055
S'126'
p1056
tp1057
asS'IFOS/src/IFOS2D.c'
p1058
(lp1059
(S'MPI_Init()'
p1060
S'205'
p1061
tp1062
a(S'MPI_Comm_size()'
p1063
S'206'
p1064
tp1065
a(S'MPI_Comm_rank()'
p1066
S'207'
p1067
tp1068
a(S'MPI_Buffer_attach()'
p1069
S'362'
p1070
tp1071
a(S'MPI_Barrier()'
p1072
S'775'
p1073
tp1074
a(S'MPI_Barrier()'
p1075
S'819'
p1076
tp1077
a(S'MPI_Barrier()'
p1078
S'920'
p1079
tp1080
a(S'MPI_Comm_split()'
p1081
S'928'
p1082
tp1083
a(S'MPI_Comm_rank()'
p1084
S'929'
p1085
tp1086
a(S'MPI_Comm_split()'
p1087
S'1097'
p1088
tp1089
a(S'MPI_Comm_rank()'
p1090
S'1098'
p1091
tp1092
a(S'MPI_Barrier()'
p1093
S'1132'
p1094
tp1095
a(S'MPI_Barrier()'
p1096
S'1503'
p1097
tp1098
a(S'MPI_Barrier()'
p1099
S'1537'
p1100
tp1101
a(S'MPI_Barrier()'
p1102
S'1568'
p1103
tp1104
a(S'MPI_Allreduce()'
p1105
S'2797'
p1106
tp1107
a(S'MPI_Allreduce()'
p1108
S'2799'
p1109
tp1110
a(S'MPI_Allreduce()'
p1111
S'2801'
p1112
tp1113
a(S'MPI_Allreduce()'
p1114
S'2803'
p1115
tp1116
a(S'MPI_Allreduce()'
p1117
S'2810'
p1118
tp1119
a(S'MPI_Allreduce()'
p1120
S'2812'
p1121
tp1122
a(S'MPI_Allreduce()'
p1123
S'2814'
p1124
tp1125
a(S'MPI_Allreduce()'
p1126
S'2816'
p1127
tp1128
a(S'MPI_Allreduce()'
p1129
S'2823'
p1130
tp1131
a(S'MPI_Allreduce()'
p1132
S'2825'
p1133
tp1134
a(S'MPI_Barrier()'
p1135
S'3253'
p1136
tp1137
a(S'MPI_Allreduce()'
p1138
S'3636'
p1139
tp1140
a(S'MPI_Allreduce()'
p1141
S'3640'
p1142
tp1143
a(S'MPI_Allreduce()'
p1144
S'3969'
p1145
tp1146
a(S'MPI_Barrier()'
p1147
S'4378'
p1148
tp1149
a(S'MPI_Buffer_detach()'
p1150
S'4408'
p1151
tp1152
a(S'MPI_Finalize()'
p1153
S'4412'
p1154
tp1155
asS'IFOS/genmod/hh_el.c'
p1156
(lp1157
(S'MPI_Barrier()'
p1158
S'81'
p1159
tp1160
a(S'MPI_Barrier()'
p1161
S'86'
p1162
tp1163
a(S'MPI_Barrier()'
p1164
S'91'
p1165
tp1166
asS'IFOS/genmod/waveform_start.c'
p1167
(lp1168
(S'MPI_Barrier()'
p1169
S'95'
p1170
tp1171
a(S'MPI_Barrier()'
p1172
S'104'
p1173
tp1174
a(S'MPI_Barrier()'
p1175
S'112'
p1176
tp1177
asS'IFOS/src/sources.c'
p1178
(lp1179
(S'MPI_Barrier()'
p1180
S'159'
p1181
tp1182
a(S'MPI_Bcast()'
p1183
S'160'
p1184
tp1185
a(S'MPI_Bcast()'
p1186
S'161'
p1187
tp1188
a(S'MPI_Bcast()'
p1189
S'162'
p1190
tp1191
a(S'MPI_Bcast()'
p1192
S'164'
p1193
tp1194
asS'IFOS/src/PML_pro.c'
p1195
(lp1196
(S'MPI_Barrier()'
p1197
S'417'
p1198
tp1199
asS'IFOS/genmod/toy_example_elastic_start.c'
p1200
(lp1201
(S'MPI_Barrier()'
p1202
S'241'
p1203
tp1204
a(S'MPI_Barrier()'
p1205
S'243'
p1206
tp1207
a(S'MPI_Barrier()'
p1208
S'249'
p1209
tp1210
a(S'MPI_Barrier()'
p1211
S'251'
p1212
tp1213
a(S'MPI_Barrier()'
p1214
S'257'
p1215
tp1216
a(S'MPI_Barrier()'
p1217
S'259'
p1218
tp1219
asS'IFOS/src/catseis.c'
p1220
(lp1221
(S'MPI_Allreduce()'
p1222
S'51'
p1223
tp1224
asS'IFOS/src/norm.c'
p1225
(lp1226
(S'MPI_Allreduce()'
p1227
S'58'
p1228
tp1229
a(S'MPI_Allreduce()'
p1230
S'63'
p1231
tp1232
asS'IFOS/src/checkfd_ssg_elastic.c'
p1233
(lp1234
(S'MPI_Barrier()'
p1235
S'89'
p1236
tp1237
a(S'MPI_Allreduce()'
p1238
S'98'
p1239
tp1240
a(S'MPI_Allreduce()'
p1241
S'99'
p1242
tp1243
a(S'MPI_Allreduce()'
p1244
S'110'
p1245
tp1246
a(S'MPI_Allreduce()'
p1247
S'111'
p1248
tp1249
a(S'MPI_Barrier()'
p1250
S'159'
p1251
tp1252
asS'IFOS/src/smooth.c'
p1253
(lp1254
(S'MPI_Barrier()'
p1255
S'149'
p1256
tp1257
asS'IFOS/genmod/toy_example_start.c'
p1258
(lp1259
(S'MPI_Barrier()'
p1260
S'252'
p1261
tp1262
a(S'MPI_Barrier()'
p1263
S'254'
p1264
tp1265
a(S'MPI_Barrier()'
p1266
S'260'
p1267
tp1268
a(S'MPI_Barrier()'
p1269
S'262'
p1270
tp1271
a(S'MPI_Barrier()'
p1272
S'268'
p1273
tp1274
a(S'MPI_Barrier()'
p1275
S'270'
p1276
tp1277
a(S'MPI_Barrier()'
p1278
S'276'
p1279
tp1280
a(S'MPI_Barrier()'
p1281
S'278'
p1282
tp1283
a(S'MPI_Barrier()'
p1284
S'284'
p1285
tp1286
a(S'MPI_Barrier()'
p1287
S'286'
p1288
tp1289
as.