ccollections
defaultdict
p0
(c__builtin__
list
p1
tp2
Rp3
S'Personal/ics632/tutorial_sim_grid/topic4/matmul.c'
p4
(lp5
(S'MPI_Comm_rank()'
p6
S'25'
p7
tp8
a(S'MPI_Abort()'
p9
S'34'
p10
tp11
a(S'MPI_Comm_rank()'
p12
S'41'
p13
tp14
a(S'MPI_Init()'
p15
S'89'
p16
tp17
a(S'MPI_Comm_rank()'
p18
S'101'
p19
tp20
a(S'MPI_Comm_size()'
p21
S'102'
p22
tp23
a(S'MPI_Cart_create()'
p24
S'148'
p25
tp26
a(S'MPI_Comm_rank()'
p27
S'149'
p28
tp29
a(S'MPI_Cart_coords()'
p30
S'150'
p31
tp32
a(S'MPI_Comm_split()'
p33
S'161'
p34
tp35
a(S'MPI_Comm_rank()'
p36
S'163'
p37
tp38
a(S'MPI_Comm_size()'
p39
S'164'
p40
tp41
a(S'MPI_Comm_split()'
p42
S'167'
p43
tp44
a(S'MPI_Comm_rank()'
p45
S'169'
p46
tp47
a(S'MPI_Comm_size()'
p48
S'170'
p49
tp50
a(S'MPI_Barrier()'
p51
S'205'
p52
tp53
a(S'MPI_Barrier()'
p54
S'206'
p55
tp56
a(S'MPI_Barrier()'
p57
S'207'
p58
tp59
a(S'MPI_Barrier()'
p60
S'208'
p61
tp62
a(S'MPI_Wtime()'
p63
S'210'
p64
tp65
a(S'MPI_Bcast()'
p66
S'215'
p67
tp68
a(S'MPI_Bcast()'
p69
S'217'
p70
tp71
a(S'MPI_Bcast()'
p72
S'220'
p73
tp74
a(S'MPI_Bcast()'
p75
S'222'
p76
tp77
a(S'MPI_Barrier()'
p78
S'225'
p79
tp80
a(S'MPI_Barrier()'
p81
S'226'
p82
tp83
a(S'MPI_Barrier()'
p84
S'227'
p85
tp86
a(S'MPI_Barrier()'
p87
S'228'
p88
tp89
a(S'MPI_Barrier()'
p90
S'235'
p91
tp92
a(S'MPI_Barrier()'
p93
S'236'
p94
tp95
a(S'MPI_Barrier()'
p96
S'237'
p97
tp98
a(S'MPI_Barrier()'
p99
S'238'
p100
tp101
a(S'MPI_Wtime()'
p102
S'240'
p103
tp104
a(S'MPI_Barrier()'
p105
S'256'
p106
tp107
a(S'MPI_Barrier()'
p108
S'257'
p109
tp110
a(S'MPI_Barrier()'
p111
S'258'
p112
tp113
a(S'MPI_Barrier()'
p114
S'259'
p115
tp116
a(S'MPI_Reduce()'
p117
S'285'
p118
tp119
a(S'MPI_Barrier()'
p120
S'314'
p121
tp122
a(S'MPI_Barrier()'
p123
S'315'
p124
tp125
a(S'MPI_Barrier()'
p126
S'316'
p127
tp128
a(S'MPI_Barrier()'
p129
S'317'
p130
tp131
a(S'MPI_Comm_free()'
p132
S'319'
p133
tp134
a(S'MPI_Comm_free()'
p135
S'320'
p136
tp137
a(S'MPI_Finalize()'
p138
S'333'
p139
tp140
asS'Personal/ics632/tutorial_sim_grid/topic2/bcast_skeleton.c'
p141
(lp142
(S'MPI_Comm_rank()'
p143
S'26'
p144
tp145
a(S'MPI_Abort()'
p146
S'35'
p147
tp148
a(S'MPI_Comm_rank()'
p149
S'42'
p150
tp151
a(S'MPI_Init()'
p152
S'75'
p153
tp154
a(S'MPI_Comm_rank()'
p155
S'108'
p156
tp157
a(S'MPI_Comm_size()'
p158
S'109'
p159
tp160
a(S'MPI_Barrier()'
p161
S'131'
p162
tp163
a(S'MPI_Wtime()'
p164
S'133'
p165
tp166
a(S'MPI_Bcast()'
p167
S'154'
p168
tp169
a(S'MPI_Send()'
p170
S'158'
p171
tp172
a(S'MPI_Recv()'
p173
S'161'
p174
tp175
a(S'MPI_Send()'
p176
S'165'
p177
tp178
a(S'MPI_Recv()'
p179
S'167'
p180
tp181
a(S'MPI_Send()'
p182
S'169'
p183
tp184
a(S'MPI_Send()'
p185
S'176'
p186
tp187
a(S'MPI_Recv()'
p188
S'181'
p189
tp190
a(S'MPI_Send()'
p191
S'183'
p192
tp193
a(S'MPI_Isend()'
p194
S'192'
p195
tp196
a(S'MPI_Recv()'
p197
S'197'
p198
tp199
a(S'MPI_Isend()'
p200
S'199'
p201
tp202
a(S'MPI_Wait()'
p203
S'202'
p204
tp205
a(S'MPI_Recv()'
p206
S'209'
p207
tp208
a(S'MPI_Isend()'
p209
S'212'
p210
tp211
a(S'MPI_Isend()'
p212
S'215'
p213
tp214
a(S'MPI_Waitall()'
p215
S'218'
p216
tp217
a(S'MPI_Recv()'
p218
S'232'
p219
tp220
a(S'MPI_Send()'
p221
S'247'
p222
tp223
a(S'MPI_Barrier()'
p224
S'251'
p225
tp226
a(S'MPI_Wtime()'
p227
S'256'
p228
tp229
a(S'MPI_Finalize()'
p230
S'261'
p231
tp232
asS'Personal/ics632/tutorial_sim_grid/topic4/matmul_real.c'
p233
(lp234
(S'MPI_Comm_rank()'
p235
S'23'
p236
tp237
a(S'MPI_Abort()'
p238
S'32'
p239
tp240
a(S'MPI_Comm_rank()'
p241
S'39'
p242
tp243
a(S'MPI_Init()'
p244
S'87'
p245
tp246
a(S'MPI_Comm_rank()'
p247
S'99'
p248
tp249
a(S'MPI_Comm_size()'
p250
S'100'
p251
tp252
a(S'MPI_Cart_create()'
p253
S'146'
p254
tp255
a(S'MPI_Comm_rank()'
p256
S'147'
p257
tp258
a(S'MPI_Cart_coords()'
p259
S'148'
p260
tp261
a(S'MPI_Comm_split()'
p262
S'159'
p263
tp264
a(S'MPI_Comm_rank()'
p265
S'161'
p266
tp267
a(S'MPI_Comm_size()'
p268
S'162'
p269
tp270
a(S'MPI_Comm_split()'
p271
S'165'
p272
tp273
a(S'MPI_Comm_rank()'
p274
S'167'
p275
tp276
a(S'MPI_Comm_size()'
p277
S'168'
p278
tp279
a(S'MPI_Barrier()'
p280
S'203'
p281
tp282
a(S'MPI_Barrier()'
p283
S'204'
p284
tp285
a(S'MPI_Barrier()'
p286
S'205'
p287
tp288
a(S'MPI_Barrier()'
p289
S'206'
p290
tp291
a(S'MPI_Wtime()'
p292
S'208'
p293
tp294
a(S'MPI_Bcast()'
p295
S'213'
p296
tp297
a(S'MPI_Bcast()'
p298
S'215'
p299
tp300
a(S'MPI_Bcast()'
p301
S'218'
p302
tp303
a(S'MPI_Bcast()'
p304
S'220'
p305
tp306
a(S'MPI_Barrier()'
p307
S'223'
p308
tp309
a(S'MPI_Barrier()'
p310
S'224'
p311
tp312
a(S'MPI_Barrier()'
p313
S'225'
p314
tp315
a(S'MPI_Barrier()'
p316
S'226'
p317
tp318
a(S'MPI_Barrier()'
p319
S'233'
p320
tp321
a(S'MPI_Barrier()'
p322
S'234'
p323
tp324
a(S'MPI_Barrier()'
p325
S'235'
p326
tp327
a(S'MPI_Barrier()'
p328
S'236'
p329
tp330
a(S'MPI_Wtime()'
p331
S'238'
p332
tp333
a(S'MPI_Barrier()'
p334
S'254'
p335
tp336
a(S'MPI_Barrier()'
p337
S'255'
p338
tp339
a(S'MPI_Barrier()'
p340
S'256'
p341
tp342
a(S'MPI_Barrier()'
p343
S'257'
p344
tp345
a(S'MPI_Reduce()'
p346
S'285'
p347
tp348
a(S'MPI_Barrier()'
p349
S'314'
p350
tp351
a(S'MPI_Barrier()'
p352
S'315'
p353
tp354
a(S'MPI_Barrier()'
p355
S'316'
p356
tp357
a(S'MPI_Barrier()'
p358
S'317'
p359
tp360
a(S'MPI_Comm_free()'
p361
S'320'
p362
tp363
a(S'MPI_Comm_free()'
p364
S'321'
p365
tp366
a(S'MPI_Finalize()'
p367
S'333'
p368
tp369
asS'Personal/ics632/tutorial_sim_grid/topic1/sequential_julia.c'
p370
(lp371
(S'MPI_Init()'
p372
S'133'
p373
tp374
a(S'MPI_Comm_rank()'
p375
S'142'
p376
tp377
a(S'MPI_Comm_size()'
p378
S'143'
p379
tp380
a(S'MPI_Finalize()'
p381
S'147'
p382
tp383
asS'Personal/ics632/tutorial_sim_grid/topic4/calibrate_flops.py'
p384
(lp385
(S'MPI_Init()'
p386
S'39'
p387
tp388
a(S'MPI_Comm_rank()'
p389
S'42'
p390
tp391
a(S'MPI_Wtime()'
p392
S'65'
p393
tp394
a(S'MPI_Wtime()'
p395
S'73'
p396
tp397
a(S'MPI_Barrier()'
p398
S'76'
p399
tp400
a(S'MPI_Finalize()'
p401
S'84'
p402
tp403
asS'Personal/ics632/tutorial_sim_grid/topic1/2D_parallel_julia.c'
p404
(lp405
(S'MPI_Init()'
p406
S'130'
p407
tp408
a(S'MPI_Comm_rank()'
p409
S'141'
p410
tp411
a(S'MPI_Comm_size()'
p412
S'142'
p413
tp414
a(S'MPI_Recv()'
p415
S'206'
p416
tp417
a(S'MPI_Send()'
p418
S'228'
p419
tp420
a(S'MPI_Finalize()'
p421
S'235'
p422
tp423
asS'Personal/ics632/tutorial_sim_grid/topic1/1D_parallel_julia.c'
p424
(lp425
(S'MPI_Init()'
p426
S'132'
p427
tp428
a(S'MPI_Comm_rank()'
p429
S'139'
p430
tp431
a(S'MPI_Comm_size()'
p432
S'140'
p433
tp434
a(S'MPI_Recv()'
p435
S'174'
p436
tp437
a(S'MPI_Send()'
p438
S'194'
p439
tp440
a(S'MPI_Finalize()'
p441
S'197'
p442
tp443
asS'Personal/ics632/tutorial_sim_grid/topic3/matmul.c'
p444
(lp445
(S'MPI_Comm_rank()'
p446
S'24'
p447
tp448
a(S'MPI_Abort()'
p449
S'33'
p450
tp451
a(S'MPI_Comm_rank()'
p452
S'40'
p453
tp454
a(S'MPI_Init()'
p455
S'88'
p456
tp457
a(S'MPI_Comm_rank()'
p458
S'100'
p459
tp460
a(S'MPI_Comm_size()'
p461
S'101'
p462
tp463
a(S'MPI_Cart_create()'
p464
S'147'
p465
tp466
a(S'MPI_Comm_rank()'
p467
S'148'
p468
tp469
a(S'MPI_Cart_coords()'
p470
S'149'
p471
tp472
a(S'MPI_Comm_split()'
p473
S'160'
p474
tp475
a(S'MPI_Comm_rank()'
p476
S'162'
p477
tp478
a(S'MPI_Comm_size()'
p479
S'163'
p480
tp481
a(S'MPI_Comm_split()'
p482
S'166'
p483
tp484
a(S'MPI_Comm_rank()'
p485
S'168'
p486
tp487
a(S'MPI_Comm_size()'
p488
S'169'
p489
tp490
a(S'MPI_Barrier()'
p491
S'204'
p492
tp493
a(S'MPI_Barrier()'
p494
S'205'
p495
tp496
a(S'MPI_Barrier()'
p497
S'206'
p498
tp499
a(S'MPI_Barrier()'
p500
S'207'
p501
tp502
a(S'MPI_Wtime()'
p503
S'209'
p504
tp505
a(S'MPI_Bcast()'
p506
S'214'
p507
tp508
a(S'MPI_Bcast()'
p509
S'216'
p510
tp511
a(S'MPI_Bcast()'
p512
S'219'
p513
tp514
a(S'MPI_Bcast()'
p515
S'221'
p516
tp517
a(S'MPI_Barrier()'
p518
S'224'
p519
tp520
a(S'MPI_Barrier()'
p521
S'225'
p522
tp523
a(S'MPI_Barrier()'
p524
S'226'
p525
tp526
a(S'MPI_Barrier()'
p527
S'227'
p528
tp529
a(S'MPI_Barrier()'
p530
S'234'
p531
tp532
a(S'MPI_Barrier()'
p533
S'235'
p534
tp535
a(S'MPI_Barrier()'
p536
S'236'
p537
tp538
a(S'MPI_Barrier()'
p539
S'237'
p540
tp541
a(S'MPI_Wtime()'
p542
S'239'
p543
tp544
a(S'MPI_Barrier()'
p545
S'255'
p546
tp547
a(S'MPI_Barrier()'
p548
S'256'
p549
tp550
a(S'MPI_Barrier()'
p551
S'257'
p552
tp553
a(S'MPI_Barrier()'
p554
S'258'
p555
tp556
a(S'MPI_Reduce()'
p557
S'286'
p558
tp559
a(S'MPI_Barrier()'
p560
S'315'
p561
tp562
a(S'MPI_Barrier()'
p563
S'316'
p564
tp565
a(S'MPI_Barrier()'
p566
S'317'
p567
tp568
a(S'MPI_Barrier()'
p569
S'318'
p570
tp571
a(S'MPI_Comm_free()'
p572
S'321'
p573
tp574
a(S'MPI_Comm_free()'
p575
S'322'
p576
tp577
a(S'MPI_Finalize()'
p578
S'334'
p579
tp580
asS'Personal/ics632/tutorial_sim_grid/topic3/matmul_init.c'
p581
(lp582
(S'MPI_Comm_rank()'
p583
S'26'
p584
tp585
a(S'MPI_Abort()'
p586
S'35'
p587
tp588
a(S'MPI_Comm_rank()'
p589
S'42'
p590
tp591
a(S'MPI_Init()'
p592
S'73'
p593
tp594
a(S'MPI_Comm_rank()'
p595
S'85'
p596
tp597
a(S'MPI_Comm_size()'
p598
S'86'
p599
tp600
a(S'MPI_Cart_create()'
p601
S'121'
p602
tp603
a(S'MPI_Comm_rank()'
p604
S'122'
p605
tp606
a(S'MPI_Cart_coords()'
p607
S'123'
p608
tp609
a(S'MPI_Cart_shift()'
p610
S'125'
p611
tp612
a(S'MPI_Cart_shift()'
p613
S'126'
p614
tp615
a(S'MPI_Barrier()'
p616
S'166'
p617
tp618
a(S'MPI_Wtime()'
p619
S'168'
p620
tp621
a(S'MPI_Recv()'
p622
S'176'
p623
tp624
a(S'MPI_Send()'
p625
S'191'
p626
tp627
a(S'MPI_Barrier()'
p628
S'195'
p629
tp630
a(S'MPI_Wtime()'
p631
S'200'
p632
tp633
a(S'MPI_Barrier()'
p634
S'205'
p635
tp636
a(S'MPI_Finalize()'
p637
S'211'
p638
tp639
as.