ccollections
defaultdict
p0
(c__builtin__
list
p1
tp2
Rp3
S'ex-MPI//sendRecvErrC.c'
p4
(lp5
(S'MPI_Init()'
p6
S'30'
p7
tp8
a(S'MPI_Comm_rank()'
p9
S'32'
p10
tp11
a(S'MPI_Comm_size()'
p12
S'33'
p13
tp14
a(S'MPI_Abort()'
p15
S'52'
p16
tp17
a(S'MPI_Iprobe()'
p18
S'55'
p19
tp20
a(S'X_MPI_ANY_TAG()'
p21
S'56'
p22
tp23
a(S'X_MPI_COMM_WORLD()'
p24
S'57'
p25
tp26
a(S'MPI_Recv()'
p27
S'71'
p28
tp29
a(S'X_MPI_ANY_SOURCE()'
p30
S'72'
p31
tp32
a(S'X_MPI_ANY_TAG()'
p33
S'73'
p34
tp35
a(S'X_MPI_COMM_WORLD()'
p36
S'74'
p37
tp38
a(S'MPI_Send()'
p39
S'86'
p40
tp41
a(S'MPI_Finalize()'
p42
S'92'
p43
tp44
asS'ex-MPI//initStuffC.c'
p45
(lp46
(S'MPI_Init()'
p47
S'29'
p48
tp49
a(S'MPI_Comm_set_errhandler()'
p50
S'33'
p51
tp52
a(S'MPI_Comm_rank()'
p53
S'35'
p54
tp55
a(S'MPI_Comm_size()'
p56
S'36'
p57
tp58
a(S'MPI_Error_string()'
p59
S'43'
p60
tp61
a(S'MPI_Abort()'
p62
S'46'
p63
tp64
a(S'MPI_Finalize()'
p65
S'51'
p66
tp67
asS'ex-MPI//helloC.c'
p68
(lp69
(S'MPI_Init()'
p70
S'26'
p71
tp72
a(S'MPI_Comm_rank()'
p73
S'28'
p74
tp75
a(S'MPI_Comm_size()'
p76
S'29'
p77
tp78
a(S'MPI_Finalize()'
p79
S'32'
p80
tp81
asS'ex-MPI//sendRecvC.c'
p82
(lp83
(S'MPI_Init()'
p84
S'33'
p85
tp86
a(S'MPI_Comm_rank()'
p87
S'35'
p88
tp89
a(S'MPI_Comm_size()'
p90
S'36'
p91
tp92
a(S'MPI_Recv()'
p93
S'47'
p94
tp95
a(S'X_MPI_ANY_SOURCE()'
p96
S'48'
p97
tp98
a(S'X_MPI_ANY_TAG()'
p99
S'49'
p100
tp101
a(S'X_MPI_COMM_WORLD()'
p102
S'50'
p103
tp104
a(S'MPI_Send()'
p105
S'61'
p106
tp107
a(S'MPI_Finalize()'
p108
S'67'
p109
tp110
asS'ex-MPI//helloF90.f90'
p111
(lp112
(S'MPI_INIT()'
p113
S'19'
p114
tp115
a(S'MPI_COMM_RANK()'
p116
S'20'
p117
tp118
a(S'MPI_COMM_SIZE()'
p119
S'21'
p120
tp121
a(S'MPI_FINALIZE()'
p122
S'25'
p123
tp124
asS'ex-MPI//barrierC.c'
p125
(lp126
(S'MPI_Init()'
p127
S'23'
p128
tp129
a(S'MPI_Comm_rank()'
p130
S'25'
p131
tp132
a(S'MPI_Comm_size()'
p133
S'26'
p134
tp135
a(S'MPI_Barrier()'
p136
S'36'
p137
tp138
a(S'MPI_Finalize()'
p139
S'39'
p140
tp141
asS'ex-MPI//groupsC.c'
p142
(lp143
(S'MPI_Init()'
p144
S'26'
p145
tp146
a(S'MPI_Comm_rank()'
p147
S'27'
p148
tp149
a(S'MPI_Comm_size()'
p150
S'28'
p151
tp152
a(S'MPI_Comm_group()'
p153
S'51'
p154
tp155
a(S'MPI_Group_incl()'
p156
S'55'
p157
tp158
a(S'MPI_Group_incl()'
p159
S'57'
p160
tp161
a(S'MPI_Comm_create()'
p162
S'60'
p163
tp164
a(S'MPI_Comm_rank()'
p165
S'63'
p166
tp167
a(S'MPI_Comm_size()'
p168
S'64'
p169
tp170
a(S'MPI_Bcast()'
p171
S'68'
p172
tp173
a(S'MPI_Group_free()'
p174
S'78'
p175
tp176
a(S'MPI_Comm_free()'
p177
S'79'
p178
tp179
a(S'MPI_Finalize()'
p180
S'82'
p181
tp182
asS'ex-MPI//helloF77.f'
p183
(lp184
(S'MPI_INIT()'
p185
S'20'
p186
tp187
a(S'MPI_COMM_RANK()'
p188
S'21'
p189
tp190
a(S'MPI_COMM_SIZE()'
p191
S'22'
p192
tp193
a(S'MPI_FINALIZE()'
p194
S'26'
p195
tp196
asS'ex-MPI//reduceC.c'
p197
(lp198
(S'MPI_Init()'
p199
S'30'
p200
tp201
a(S'MPI_Comm_rank()'
p202
S'32'
p203
tp204
a(S'MPI_Comm_size()'
p205
S'33'
p206
tp207
a(S'MPI_Bcast()'
p208
S'50'
p209
tp210
a(S'MPI_Gather()'
p211
S'76'
p212
tp213
a(S'MPI_Reduce()'
p214
S'90'
p215
tp216
a(S'X_MPI_SUM()'
p217
S'92'
p218
tp219
a(S'MPI_Finalize()'
p220
S'100'
p221
tp222
as.