ccollections
defaultdict
p0
(c__builtin__
list
p1
tp2
Rp3
S'BigMPI/test/perf/typepiggy.c'
p4
(lp5
(S'MPI_Type_size()'
p6
S'12'
p7
tp8
a(S'MPI_Type_create_struct()'
p9
S'17'
p10
tp11
a(S'MPI_Init()'
p12
S'25'
p13
tp14
a(S'MPI_Comm_rank()'
p15
S'26'
p16
tp17
a(S'MPI_Comm_size()'
p18
S'27'
p19
tp20
a(S'MPI_Type_commit()'
p21
S'35'
p22
tp23
a(S'MPI_Type_free()'
p24
S'36'
p25
tp26
a(S'MPI_Finalize()'
p27
S'48'
p28
tp29
asS'BigMPI/test/test_ssend_recv_x.c'
p30
(lp31
(S'MPI_Init()'
p32
S'17'
p33
tp34
a(S'MPI_Comm_rank()'
p35
S'20'
p36
tp37
a(S'MPI_Comm_size()'
p38
S'21'
p39
tp40
a(S'MPI_Finalize()'
p41
S'27'
p42
tp43
a(S'MPI_Alloc_mem()'
p44
S'37'
p45
tp46
a(S'MPI_Free_mem()'
p47
S'58'
p48
tp49
a(S'MPI_Finalize()'
p50
S'64'
p51
tp52
asS'BigMPI/test/test_reduce_x.c'
p53
(lp54
(S'MPI_Init()'
p55
S'19'
p56
tp57
a(S'MPI_Comm_rank()'
p58
S'22'
p59
tp60
a(S'MPI_Comm_size()'
p61
S'23'
p62
tp63
a(S'MPI_Finalize()'
p64
S'27'
p65
tp66
a(S'MPI_Alloc_mem()'
p67
S'39'
p68
tp69
a(S'MPI_Alloc_mem()'
p70
S'40'
p71
tp72
a(S'MPI_Free_mem()'
p73
S'82'
p74
tp75
a(S'MPI_Free_mem()'
p76
S'83'
p77
tp78
a(S'MPI_Finalize()'
p79
S'89'
p80
tp81
asS'BigMPI/src/type_hindexed_x.c'
p82
(lp83
(S'MPI_Type_create_struct()'
p84
S'57'
p85
tp86
a(S'MPI_Type_free()'
p87
S'60'
p88
tp89
asS'BigMPI/test/test_send_recv_x.c'
p90
(lp91
(S'MPI_Init()'
p92
S'17'
p93
tp94
a(S'MPI_Comm_rank()'
p95
S'20'
p96
tp97
a(S'MPI_Comm_size()'
p98
S'21'
p99
tp100
a(S'MPI_Finalize()'
p101
S'27'
p102
tp103
a(S'MPI_Alloc_mem()'
p104
S'37'
p105
tp106
a(S'MPI_Free_mem()'
p107
S'58'
p108
tp109
a(S'MPI_Finalize()'
p110
S'64'
p111
tp112
asS'BigMPI/test/test_rma_x.c'
p113
(lp114
(S'MPI_Init()'
p115
S'20'
p116
tp117
a(S'MPI_Comm_rank()'
p118
S'23'
p119
tp120
a(S'MPI_Comm_size()'
p121
S'24'
p122
tp123
a(S'MPI_Win_allocate()'
p124
S'35'
p125
tp126
a(S'MPI_Win_lock_all()'
p127
S'36'
p128
tp129
a(S'MPI_Alloc_mem()'
p130
S'38'
p131
tp132
a(S'MPI_Win_create()'
p133
S'39'
p134
tp135
a(S'MPI_Win_sync()'
p136
S'47'
p137
tp138
a(S'MPI_Barrier()'
p139
S'50'
p140
tp141
a(S'MPI_Alloc_mem()'
p142
S'53'
p143
tp144
a(S'MPI_Win_lock()'
p145
S'59'
p146
tp147
a(S'MPI_Win_flush()'
p148
S'64'
p149
tp150
a(S'MPI_Win_unlock()'
p151
S'66'
p152
tp153
a(S'MPI_Barrier()'
p154
S'69'
p155
tp156
a(S'MPI_Win_sync()'
p157
S'73'
p158
tp159
a(S'MPI_Win_unlock_all()'
p160
S'89'
p161
tp162
a(S'MPI_Win_free()'
p163
S'91'
p164
tp165
a(S'MPI_Free_mem()'
p166
S'93'
p167
tp168
a(S'MPI_Finalize()'
p169
S'96'
p170
tp171
asS'BigMPI/test/test_assert_x.c'
p172
(lp173
(S'MPI_Init()'
p174
S'14'
p175
tp176
a(S'MPI_Finalize()'
p177
S'16'
p178
tp179
asS'BigMPI/test/perf/typecontig.c'
p180
(lp181
(S'MPI_Type_vector()'
p182
S'17'
p183
tp184
a(S'MPI_Type_contiguous()'
p185
S'20'
p186
tp187
a(S'MPI_Type_get_extent()'
p188
S'23'
p189
tp190
a(S'MPI_Type_create_struct()'
p191
S'29'
p192
tp193
a(S'MPI_Type_free()'
p194
S'31'
p195
tp196
a(S'MPI_Type_free()'
p197
S'32'
p198
tp199
a(S'MPI_Init()'
p200
S'40'
p201
tp202
a(S'MPI_Comm_rank()'
p203
S'41'
p204
tp205
a(S'MPI_Comm_size()'
p206
S'42'
p207
tp208
a(S'MPI_Type_commit()'
p209
S'53'
p210
tp211
a(S'MPI_Type_free()'
p212
S'54'
p213
tp214
a(S'MPI_Finalize()'
p215
S'66'
p216
tp217
asS'BigMPI/test/mpi/scatterv.c'
p218
(lp219
(S'MPI_Init()'
p220
S'15'
p221
tp222
a(S'MPI_Comm_rank()'
p223
S'18'
p224
tp225
a(S'MPI_Comm_size()'
p226
S'19'
p227
tp228
a(S'MPI_Finalize()'
p229
S'23'
p230
tp231
a(S'MPI_Scatterv()'
p232
S'42'
p233
tp234
a(S'MPI_Finalize()'
p235
S'52'
p236
tp237
asS'BigMPI/src/rma_x.c'
p238
(lp239
(S'MPI_Put()'
p240
S'9'
p241
tp242
a(S'MPI_Type_commit()'
p243
S'15'
p244
tp245
a(S'MPI_Type_commit()'
p246
S'16'
p247
tp248
a(S'MPI_Put()'
p249
S'17'
p250
tp251
a(S'MPI_Type_free()'
p252
S'19'
p253
tp254
a(S'MPI_Type_free()'
p255
S'20'
p256
tp257
a(S'MPI_Get()'
p258
S'31'
p259
tp260
a(S'MPI_Type_commit()'
p261
S'37'
p262
tp263
a(S'MPI_Type_commit()'
p264
S'38'
p265
tp266
a(S'MPI_Get()'
p267
S'39'
p268
tp269
a(S'MPI_Type_free()'
p270
S'41'
p271
tp272
a(S'MPI_Type_free()'
p273
S'42'
p274
tp275
a(S'MPI_Accumulate()'
p276
S'54'
p277
tp278
a(S'MPI_Type_commit()'
p279
S'61'
p280
tp281
a(S'MPI_Type_commit()'
p282
S'62'
p283
tp284
a(S'MPI_Accumulate()'
p285
S'63'
p286
tp287
a(S'MPI_Type_free()'
p288
S'65'
p289
tp290
a(S'MPI_Type_free()'
p291
S'66'
p292
tp293
a(S'MPI_Get_accumulate()'
p294
S'81'
p295
tp296
a(S'MPI_Type_commit()'
p297
S'90'
p298
tp299
a(S'MPI_Type_commit()'
p300
S'91'
p301
tp302
a(S'MPI_Type_commit()'
p303
S'92'
p304
tp305
a(S'MPI_Get_accumulate()'
p306
S'93'
p307
tp308
a(S'MPI_Type_free()'
p309
S'97'
p310
tp311
a(S'MPI_Type_free()'
p312
S'98'
p313
tp314
a(S'MPI_Type_free()'
p315
S'99'
p316
tp317
a(S'MPI_Rput()'
p318
S'111'
p319
tp320
a(S'MPI_Type_commit()'
p321
S'117'
p322
tp323
a(S'MPI_Type_commit()'
p324
S'118'
p325
tp326
a(S'MPI_Rput()'
p327
S'119'
p328
tp329
a(S'MPI_Type_free()'
p330
S'121'
p331
tp332
a(S'MPI_Type_free()'
p333
S'122'
p334
tp335
a(S'MPI_Rget()'
p336
S'134'
p337
tp338
a(S'MPI_Type_commit()'
p339
S'140'
p340
tp341
a(S'MPI_Type_commit()'
p342
S'141'
p343
tp344
a(S'MPI_Rget()'
p345
S'142'
p346
tp347
a(S'MPI_Type_free()'
p348
S'144'
p349
tp350
a(S'MPI_Type_free()'
p351
S'145'
p352
tp353
a(S'MPI_Raccumulate()'
p354
S'157'
p355
tp356
a(S'MPI_Type_commit()'
p357
S'164'
p358
tp359
a(S'MPI_Type_commit()'
p360
S'165'
p361
tp362
a(S'MPI_Raccumulate()'
p363
S'166'
p364
tp365
a(S'MPI_Type_free()'
p366
S'168'
p367
tp368
a(S'MPI_Type_free()'
p369
S'169'
p370
tp371
a(S'MPI_Rget_accumulate()'
p372
S'182'
p373
tp374
a(S'MPI_Type_commit()'
p375
S'191'
p376
tp377
a(S'MPI_Type_commit()'
p378
S'192'
p379
tp380
a(S'MPI_Type_commit()'
p381
S'193'
p382
tp383
a(S'MPI_Rget_accumulate()'
p384
S'194'
p385
tp386
a(S'MPI_Type_free()'
p387
S'198'
p388
tp389
a(S'MPI_Type_free()'
p390
S'199'
p391
tp392
a(S'MPI_Type_free()'
p393
S'200'
p394
tp395
asS'BigMPI/test/test_irsend_irecv_x.c'
p396
(lp397
(S'MPI_Init()'
p398
S'17'
p399
tp400
a(S'MPI_Comm_rank()'
p401
S'20'
p402
tp403
a(S'MPI_Comm_size()'
p404
S'21'
p405
tp406
a(S'MPI_Finalize()'
p407
S'27'
p408
tp409
a(S'MPI_Alloc_mem()'
p410
S'37'
p411
tp412
a(S'MPI_Wait()'
p413
S'55'
p414
tp415
a(S'MPI_Free_mem()'
p416
S'66'
p417
tp418
a(S'MPI_Finalize()'
p419
S'72'
p420
tp421
asS'BigMPI/test/test_contig_x.c'
p422
(lp423
(S'MPI_Init()'
p424
S'40'
p425
tp426
a(S'MPI_Comm_rank()'
p427
S'43'
p428
tp429
a(S'MPI_Comm_size()'
p430
S'44'
p431
tp432
a(S'MPI_Finalize()'
p433
S'76'
p434
tp435
a(S'MPI_Finalize()'
p436
S'81'
p437
tp438
asS'BigMPI/test/test_alltoall_x.c'
p439
(lp440
(S'MPI_Init()'
p441
S'20'
p442
tp443
a(S'MPI_Comm_rank()'
p444
S'23'
p445
tp446
a(S'MPI_Comm_size()'
p447
S'24'
p448
tp449
a(S'MPI_Finalize()'
p450
S'28'
p451
tp452
a(S'MPI_Alloc_mem()'
p453
S'39'
p454
tp455
a(S'MPI_Alloc_mem()'
p456
S'41'
p457
tp458
a(S'MPI_Free_mem()'
p459
S'58'
p460
tp461
a(S'MPI_Free_mem()'
p462
S'59'
p463
tp464
a(S'MPI_Finalize()'
p465
S'65'
p466
tp467
asS'BigMPI/test/mpi/bcast.c'
p468
(lp469
(S'MPI_Type_vector()'
p470
S'21'
p471
tp472
a(S'MPI_Type_contiguous()'
p473
S'24'
p474
tp475
a(S'MPI_Type_get_extent()'
p476
S'27'
p477
tp478
a(S'MPI_Type_create_struct()'
p479
S'33'
p480
tp481
a(S'MPI_Type_free()'
p482
S'35'
p483
tp484
a(S'MPI_Type_free()'
p485
S'36'
p486
tp487
a(S'MPI_Init_thread()'
p488
S'44'
p489
tp490
a(S'MPI_Comm_size()'
p491
S'47'
p492
tp493
a(S'MPI_Comm_rank()'
p494
S'48'
p495
tp496
a(S'MPI_Alloc_mem()'
p497
S'56'
p498
tp499
a(S'MPI_Type_commit()'
p500
S'66'
p501
tp502
a(S'MPI_Bcast()'
p503
S'70'
p504
tp505
a(S'MPI_Bcast()'
p506
S'73'
p507
tp508
a(S'MPI_Type_free()'
p509
S'89'
p510
tp511
a(S'MPI_Free_mem()'
p512
S'91'
p513
tp514
a(S'MPI_Finalize()'
p515
S'93'
p516
tp517
asS'BigMPI/src/neighborhood_collectives_x.c'
p518
(lp519
(S'MPI_Neighbor_allgather()'
p520
S'12'
p521
tp522
a(S'MPI_Type_commit()'
p523
S'16'
p524
tp525
a(S'MPI_Neighbor_allgather()'
p526
S'17'
p527
tp528
a(S'MPI_Type_free()'
p529
S'18'
p530
tp531
a(S'MPI_Type_commit()'
p532
S'22'
p533
tp534
a(S'MPI_Neighbor_allgather()'
p535
S'23'
p536
tp537
a(S'MPI_Type_free()'
p538
S'24'
p539
tp540
a(S'MPI_Type_commit()'
p541
S'29'
p542
tp543
a(S'MPI_Type_commit()'
p544
S'30'
p545
tp546
a(S'MPI_Neighbor_allgather()'
p547
S'31'
p548
tp549
a(S'MPI_Type_free()'
p550
S'32'
p551
tp552
a(S'MPI_Type_free()'
p553
S'33'
p554
tp555
a(S'MPI_Neighbor_alltoall()'
p556
S'45'
p557
tp558
a(S'MPI_Type_commit()'
p559
S'49'
p560
tp561
a(S'MPI_Neighbor_alltoall()'
p562
S'50'
p563
tp564
a(S'MPI_Type_free()'
p565
S'51'
p566
tp567
a(S'MPI_Type_commit()'
p568
S'55'
p569
tp570
a(S'MPI_Neighbor_alltoall()'
p571
S'56'
p572
tp573
a(S'MPI_Type_free()'
p574
S'57'
p575
tp576
a(S'MPI_Type_commit()'
p577
S'62'
p578
tp579
a(S'MPI_Type_commit()'
p580
S'63'
p581
tp582
a(S'MPI_Neighbor_alltoall()'
p583
S'64'
p584
tp585
a(S'MPI_Type_free()'
p586
S'65'
p587
tp588
a(S'MPI_Type_free()'
p589
S'66'
p590
tp591
a(S'MPI_Comm_test_inter()'
p592
S'79'
p593
tp594
a(S'MPI_Comm_size()'
p595
S'87'
p596
tp597
a(S'MPI_Comm_rank()'
p598
S'88'
p599
tp600
a(S'MPI_Neighbor_alltoallw()'
p601
S'110'
p602
tp603
a(S'MPI_Type_free()'
p604
S'114'
p605
tp606
a(S'MPI_Type_free()'
p607
S'115'
p608
tp609
a(S'MPI_Comm_test_inter()'
p610
S'137'
p611
tp612
a(S'MPI_Comm_size()'
p613
S'145'
p614
tp615
a(S'MPI_Comm_rank()'
p616
S'146'
p617
tp618
a(S'MPI_Neighbor_alltoallw()'
p619
S'168'
p620
tp621
a(S'MPI_Type_free()'
p622
S'172'
p623
tp624
a(S'MPI_Type_free()'
p625
S'173'
p626
tp627
a(S'MPI_Comm_test_inter()'
p628
S'195'
p629
tp630
a(S'MPI_Comm_size()'
p631
S'203'
p632
tp633
a(S'MPI_Comm_rank()'
p634
S'204'
p635
tp636
a(S'MPI_Neighbor_alltoallw()'
p637
S'226'
p638
tp639
a(S'MPI_Type_free()'
p640
S'230'
p641
tp642
a(S'MPI_Type_free()'
p643
S'231'
p644
tp645
a(S'MPI_Ineighbor_allgather()'
p646
S'251'
p647
tp648
a(S'MPI_Type_commit()'
p649
S'255'
p650
tp651
a(S'MPI_Ineighbor_allgather()'
p652
S'256'
p653
tp654
a(S'MPI_Type_free()'
p655
S'257'
p656
tp657
a(S'MPI_Type_commit()'
p658
S'261'
p659
tp660
a(S'MPI_Ineighbor_allgather()'
p661
S'262'
p662
tp663
a(S'MPI_Type_free()'
p664
S'263'
p665
tp666
a(S'MPI_Type_commit()'
p667
S'268'
p668
tp669
a(S'MPI_Type_commit()'
p670
S'269'
p671
tp672
a(S'MPI_Ineighbor_allgather()'
p673
S'270'
p674
tp675
a(S'MPI_Type_free()'
p676
S'271'
p677
tp678
a(S'MPI_Type_free()'
p679
S'272'
p680
tp681
a(S'MPI_Ineighbor_alltoall()'
p682
S'284'
p683
tp684
a(S'MPI_Type_commit()'
p685
S'288'
p686
tp687
a(S'MPI_Ineighbor_alltoall()'
p688
S'289'
p689
tp690
a(S'MPI_Type_free()'
p691
S'290'
p692
tp693
a(S'MPI_Type_commit()'
p694
S'294'
p695
tp696
a(S'MPI_Ineighbor_alltoall()'
p697
S'295'
p698
tp699
a(S'MPI_Type_free()'
p700
S'296'
p701
tp702
a(S'MPI_Type_commit()'
p703
S'301'
p704
tp705
a(S'MPI_Type_commit()'
p706
S'302'
p707
tp708
a(S'MPI_Ineighbor_alltoall()'
p709
S'303'
p710
tp711
a(S'MPI_Type_free()'
p712
S'304'
p713
tp714
a(S'MPI_Type_free()'
p715
S'305'
p716
tp717
asS'BigMPI/test/test_isend_irecv_x.c'
p718
(lp719
(S'MPI_Init()'
p720
S'17'
p721
tp722
a(S'MPI_Comm_rank()'
p723
S'20'
p724
tp725
a(S'MPI_Comm_size()'
p726
S'21'
p727
tp728
a(S'MPI_Finalize()'
p729
S'27'
p730
tp731
a(S'MPI_Alloc_mem()'
p732
S'37'
p733
tp734
a(S'MPI_Wait()'
p735
S'55'
p736
tp737
a(S'MPI_Free_mem()'
p738
S'66'
p739
tp740
a(S'MPI_Finalize()'
p741
S'72'
p742
tp743
asS'BigMPI/test/test_rsend_recv_x.c'
p744
(lp745
(S'MPI_Init()'
p746
S'17'
p747
tp748
a(S'MPI_Comm_rank()'
p749
S'20'
p750
tp751
a(S'MPI_Comm_size()'
p752
S'21'
p753
tp754
a(S'MPI_Finalize()'
p755
S'27'
p756
tp757
a(S'MPI_Alloc_mem()'
p758
S'37'
p759
tp760
a(S'MPI_Free_mem()'
p761
S'58'
p762
tp763
a(S'MPI_Finalize()'
p764
S'64'
p765
tp766
asS'BigMPI/m4/aclocal_romio.m4'
p767
(lp768
(S'MPI_Init()'
p769
S'174'
p770
tp771
a(S'MPI_Finalize()'
p772
S'175'
p773
tp774
a(S'MPI_Init()'
p775
S'229'
p776
tp777
a(S'MPI_Send()'
p778
S'230'
p779
tp780
a(S'MPI_Finalize()'
p781
S'231'
p782
tp783
a(S'MPI_Init()'
p784
S'327'
p785
tp786
a(S'MPI_Info_create()'
p787
S'328'
p788
tp789
a(S'MPI_Finalize()'
p790
S'329'
p791
tp792
a(S'MPI_Init()'
p793
S'363'
p794
tp795
a(S'MPI_Type_create_darray()'
p796
S'364'
p797
tp798
a(S'MPI_Type_create_subarray()'
p799
S'365'
p800
tp801
a(S'MPI_Finalize()'
p802
S'366'
p803
tp804
a(S'MPI_Init()'
p805
S'481'
p806
tp807
a(S'MPI_Finalize()'
p808
S'483'
p809
tp810
a(S'MPI_Init()'
p811
S'508'
p812
tp813
a(S'MPI_Finalize()'
p814
S'510'
p815
tp816
a(S'MPI_Init()'
p817
S'822'
p818
tp819
a(S'MPI_Finalize()'
p820
S'824'
p821
tp822
a(S'MPI_Init()'
p823
S'868'
p824
tp825
a(S'MPI_Grequest_start()'
p826
S'869'
p827
tp828
a(S'MPI_Finalize()'
p829
S'870'
p830
tp831
asS'BigMPI/test/devel/in_place_user_def_reduce.c'
p832
(lp833
(S'MPI_Comm_rank()'
p834
S'7'
p835
tp836
a(S'MPI_Init()'
p837
S'14'
p838
tp839
a(S'MPI_Comm_rank()'
p840
S'17'
p841
tp842
a(S'MPI_Comm_size()'
p843
S'18'
p844
tp845
a(S'MPI_Op_create()'
p846
S'22'
p847
tp848
a(S'MPI_Barrier()'
p849
S'29'
p850
tp851
a(S'MPI_Barrier()'
p852
S'31'
p853
tp854
a(S'MPI_Allreduce()'
p855
S'34'
p856
tp857
a(S'MPI_Barrier()'
p858
S'35'
p859
tp860
a(S'MPI_Barrier()'
p861
S'37'
p862
tp863
a(S'MPI_Allreduce()'
p864
S'40'
p865
tp866
a(S'MPI_Barrier()'
p867
S'41'
p868
tp869
a(S'MPI_Barrier()'
p870
S'43'
p871
tp872
a(S'MPI_Op_free()'
p873
S'45'
p874
tp875
a(S'MPI_Finalize()'
p876
S'46'
p877
tp878
asS'BigMPI/src/fileio_x.c'
p879
(lp880
(S'MPI_File_read_at()'
p881
S'10'
p882
tp883
a(S'MPI_Type_commit()'
p884
S'14'
p885
tp886
a(S'MPI_File_read_at()'
p887
S'15'
p888
tp889
a(S'MPI_Type_free()'
p890
S'16'
p891
tp892
a(S'MPI_File_read_at_all()'
p893
S'26'
p894
tp895
a(S'MPI_Type_commit()'
p896
S'30'
p897
tp898
a(S'MPI_File_read_at_all()'
p899
S'31'
p900
tp901
a(S'MPI_Type_free()'
p902
S'32'
p903
tp904
a(S'MPI_File_read_at_all_begin()'
p905
S'42'
p906
tp907
a(S'MPI_Type_commit()'
p908
S'46'
p909
tp910
a(S'MPI_File_read_at_all_begin()'
p911
S'47'
p912
tp913
a(S'MPI_Type_free()'
p914
S'48'
p915
tp916
a(S'MPI_File_read()'
p917
S'58'
p918
tp919
a(S'MPI_Type_commit()'
p920
S'62'
p921
tp922
a(S'MPI_File_read()'
p923
S'63'
p924
tp925
a(S'MPI_Type_free()'
p926
S'64'
p927
tp928
a(S'MPI_File_read_all()'
p929
S'74'
p930
tp931
a(S'MPI_Type_commit()'
p932
S'78'
p933
tp934
a(S'MPI_File_read_all()'
p935
S'79'
p936
tp937
a(S'MPI_Type_free()'
p938
S'80'
p939
tp940
a(S'MPI_File_read_shared()'
p941
S'90'
p942
tp943
a(S'MPI_Type_commit()'
p944
S'94'
p945
tp946
a(S'MPI_File_read_shared()'
p947
S'95'
p948
tp949
a(S'MPI_Type_free()'
p950
S'96'
p951
tp952
a(S'MPI_File_read_ordered()'
p953
S'106'
p954
tp955
a(S'MPI_Type_commit()'
p956
S'110'
p957
tp958
a(S'MPI_File_read_ordered()'
p959
S'111'
p960
tp961
a(S'MPI_Type_free()'
p962
S'112'
p963
tp964
a(S'MPI_File_read_all_begin()'
p965
S'123'
p966
tp967
a(S'MPI_Type_commit()'
p968
S'127'
p969
tp970
a(S'MPI_File_read_all_begin()'
p971
S'128'
p972
tp973
a(S'MPI_Type_free()'
p974
S'129'
p975
tp976
a(S'MPI_File_read_ordered_begin()'
p977
S'139'
p978
tp979
a(S'MPI_Type_commit()'
p980
S'143'
p981
tp982
a(S'MPI_File_read_ordered_begin()'
p983
S'144'
p984
tp985
a(S'MPI_Type_free()'
p986
S'145'
p987
tp988
a(S'MPI_File_iread_at()'
p989
S'155'
p990
tp991
a(S'MPI_Type_commit()'
p992
S'159'
p993
tp994
a(S'MPI_File_iread_at()'
p995
S'160'
p996
tp997
a(S'MPI_Type_free()'
p998
S'161'
p999
tp1000
a(S'MPI_File_iread()'
p1001
S'171'
p1002
tp1003
a(S'MPI_Type_commit()'
p1004
S'175'
p1005
tp1006
a(S'MPI_File_iread()'
p1007
S'176'
p1008
tp1009
a(S'MPI_Type_free()'
p1010
S'177'
p1011
tp1012
a(S'MPI_File_iread_shared()'
p1013
S'187'
p1014
tp1015
a(S'MPI_Type_commit()'
p1016
S'191'
p1017
tp1018
a(S'MPI_File_iread_shared()'
p1019
S'192'
p1020
tp1021
a(S'MPI_Type_free()'
p1022
S'193'
p1023
tp1024
a(S'MPI_File_iread_at_all()'
p1025
S'203'
p1026
tp1027
a(S'MPI_Type_commit()'
p1028
S'207'
p1029
tp1030
a(S'MPI_File_iread_at_all()'
p1031
S'208'
p1032
tp1033
a(S'MPI_Type_free()'
p1034
S'209'
p1035
tp1036
a(S'MPI_File_iread_all()'
p1037
S'219'
p1038
tp1039
a(S'MPI_Type_commit()'
p1040
S'223'
p1041
tp1042
a(S'MPI_File_iread_all()'
p1043
S'224'
p1044
tp1045
a(S'MPI_Type_free()'
p1046
S'225'
p1047
tp1048
a(S'MPI_File_write_at()'
p1049
S'236'
p1050
tp1051
a(S'MPI_Type_commit()'
p1052
S'240'
p1053
tp1054
a(S'MPI_File_write_at()'
p1055
S'241'
p1056
tp1057
a(S'MPI_Type_free()'
p1058
S'242'
p1059
tp1060
a(S'MPI_File_write_at_all()'
p1061
S'252'
p1062
tp1063
a(S'MPI_Type_commit()'
p1064
S'256'
p1065
tp1066
a(S'MPI_File_write_at_all()'
p1067
S'257'
p1068
tp1069
a(S'MPI_Type_free()'
p1070
S'258'
p1071
tp1072
a(S'MPI_File_write_at_all_begin()'
p1073
S'268'
p1074
tp1075
a(S'MPI_Type_commit()'
p1076
S'272'
p1077
tp1078
a(S'MPI_File_write_at_all_begin()'
p1079
S'273'
p1080
tp1081
a(S'MPI_Type_free()'
p1082
S'274'
p1083
tp1084
a(S'MPI_File_write()'
p1085
S'284'
p1086
tp1087
a(S'MPI_Type_commit()'
p1088
S'288'
p1089
tp1090
a(S'MPI_File_write()'
p1091
S'289'
p1092
tp1093
a(S'MPI_Type_free()'
p1094
S'290'
p1095
tp1096
a(S'MPI_File_write_all()'
p1097
S'300'
p1098
tp1099
a(S'MPI_Type_commit()'
p1100
S'304'
p1101
tp1102
a(S'MPI_File_write_all()'
p1103
S'305'
p1104
tp1105
a(S'MPI_Type_free()'
p1106
S'306'
p1107
tp1108
a(S'MPI_File_write_shared()'
p1109
S'316'
p1110
tp1111
a(S'MPI_Type_commit()'
p1112
S'320'
p1113
tp1114
a(S'MPI_File_write_shared()'
p1115
S'321'
p1116
tp1117
a(S'MPI_Type_free()'
p1118
S'322'
p1119
tp1120
a(S'MPI_File_write_ordered()'
p1121
S'332'
p1122
tp1123
a(S'MPI_Type_commit()'
p1124
S'336'
p1125
tp1126
a(S'MPI_File_write_ordered()'
p1127
S'337'
p1128
tp1129
a(S'MPI_Type_free()'
p1130
S'338'
p1131
tp1132
a(S'MPI_File_write_all_begin()'
p1133
S'348'
p1134
tp1135
a(S'MPI_Type_commit()'
p1136
S'352'
p1137
tp1138
a(S'MPI_File_write_all_begin()'
p1139
S'353'
p1140
tp1141
a(S'MPI_Type_free()'
p1142
S'354'
p1143
tp1144
a(S'MPI_File_write_ordered_begin()'
p1145
S'364'
p1146
tp1147
a(S'MPI_Type_commit()'
p1148
S'368'
p1149
tp1150
a(S'MPI_File_write_ordered_begin()'
p1151
S'369'
p1152
tp1153
a(S'MPI_Type_free()'
p1154
S'370'
p1155
tp1156
a(S'MPI_File_iwrite_at()'
p1157
S'380'
p1158
tp1159
a(S'MPI_Type_commit()'
p1160
S'384'
p1161
tp1162
a(S'MPI_File_iwrite_at()'
p1163
S'385'
p1164
tp1165
a(S'MPI_Type_free()'
p1166
S'386'
p1167
tp1168
a(S'MPI_File_iwrite()'
p1169
S'396'
p1170
tp1171
a(S'MPI_Type_commit()'
p1172
S'400'
p1173
tp1174
a(S'MPI_File_iwrite()'
p1175
S'401'
p1176
tp1177
a(S'MPI_Type_free()'
p1178
S'402'
p1179
tp1180
a(S'MPI_File_iwrite_shared()'
p1181
S'412'
p1182
tp1183
a(S'MPI_Type_commit()'
p1184
S'416'
p1185
tp1186
a(S'MPI_File_iwrite_shared()'
p1187
S'417'
p1188
tp1189
a(S'MPI_Type_free()'
p1190
S'418'
p1191
tp1192
a(S'MPI_File_iwrite_at_all()'
p1193
S'428'
p1194
tp1195
a(S'MPI_Type_commit()'
p1196
S'432'
p1197
tp1198
a(S'MPI_File_iwrite_at_all()'
p1199
S'433'
p1200
tp1201
a(S'MPI_Type_free()'
p1202
S'434'
p1203
tp1204
a(S'MPI_File_iwrite_all()'
p1205
S'444'
p1206
tp1207
a(S'MPI_Type_commit()'
p1208
S'448'
p1209
tp1210
a(S'MPI_File_iwrite_all()'
p1211
S'449'
p1212
tp1213
a(S'MPI_Type_free()'
p1214
S'450'
p1215
tp1216
asS'BigMPI/test/test_allgather_x.c'
p1217
(lp1218
(S'MPI_Init()'
p1219
S'20'
p1220
tp1221
a(S'MPI_Comm_rank()'
p1222
S'23'
p1223
tp1224
a(S'MPI_Comm_size()'
p1225
S'24'
p1226
tp1227
a(S'MPI_Finalize()'
p1228
S'28'
p1229
tp1230
a(S'MPI_Alloc_mem()'
p1231
S'39'
p1232
tp1233
a(S'MPI_Alloc_mem()'
p1234
S'41'
p1235
tp1236
a(S'MPI_Free_mem()'
p1237
S'59'
p1238
tp1239
a(S'MPI_Free_mem()'
p1240
S'60'
p1241
tp1242
a(S'MPI_Finalize()'
p1243
S'66'
p1244
tp1245
asS'BigMPI/src/type_contiguous_x.c'
p1246
(lp1247
(S'MPI_Type_vector()'
p1248
S'90'
p1249
tp1250
a(S'MPI_Type_vector()'
p1251
S'102'
p1252
tp1253
a(S'MPI_Type_contiguous()'
p1254
S'105'
p1255
tp1256
a(S'MPI_Type_get_extent()'
p1257
S'108'
p1258
tp1259
a(S'MPI_Type_create_struct()'
p1260
S'114'
p1261
tp1262
a(S'MPI_Type_free()'
p1263
S'116'
p1264
tp1265
a(S'MPI_Type_free()'
p1266
S'117'
p1267
tp1268
a(S'MPI_Type_get_envelope()'
p1269
S'153'
p1270
tp1271
a(S'MPI_Type_get_contents()'
p1272
S'163'
p1273
tp1274
a(S'MPI_Type_get_contents()'
p1275
S'182'
p1276
tp1277
a(S'MPI_Type_get_envelope()'
p1278
S'190'
p1279
tp1280
a(S'MPI_Type_get_contents()'
p1281
S'198'
p1282
tp1283
a(S'MPI_Type_get_envelope()'
p1284
S'207'
p1285
tp1286
a(S'MPI_Type_get_contents()'
p1287
S'215'
p1288
tp1289
asS'BigMPI/src/sendrecv_x.c'
p1290
(lp1291
(S'MPI_Send()'
p1292
S'8'
p1293
tp1294
a(S'MPI_Type_commit()'
p1295
S'12'
p1296
tp1297
a(S'MPI_Send()'
p1298
S'13'
p1299
tp1300
a(S'MPI_Type_free()'
p1301
S'14'
p1302
tp1303
a(S'MPI_Recv()'
p1304
S'24'
p1305
tp1306
a(S'MPI_Type_commit()'
p1307
S'28'
p1308
tp1309
a(S'MPI_Recv()'
p1310
S'29'
p1311
tp1312
a(S'MPI_Type_free()'
p1313
S'30'
p1314
tp1315
a(S'MPI_Isend()'
p1316
S'40'
p1317
tp1318
a(S'MPI_Type_commit()'
p1319
S'44'
p1320
tp1321
a(S'MPI_Isend()'
p1322
S'45'
p1323
tp1324
a(S'MPI_Type_free()'
p1325
S'46'
p1326
tp1327
a(S'MPI_Irecv()'
p1328
S'56'
p1329
tp1330
a(S'MPI_Type_commit()'
p1331
S'60'
p1332
tp1333
a(S'MPI_Irecv()'
p1334
S'61'
p1335
tp1336
a(S'MPI_Type_free()'
p1337
S'62'
p1338
tp1339
a(S'MPI_Sendrecv()'
p1340
S'74'
p1341
tp1342
a(S'MPI_Type_commit()'
p1343
S'80'
p1344
tp1345
a(S'MPI_Sendrecv()'
p1346
S'81'
p1347
tp1348
a(S'MPI_Type_free()'
p1349
S'84'
p1350
tp1351
a(S'MPI_Type_commit()'
p1352
S'88'
p1353
tp1354
a(S'MPI_Sendrecv()'
p1355
S'89'
p1356
tp1357
a(S'MPI_Type_free()'
p1358
S'92'
p1359
tp1360
a(S'MPI_Type_commit()'
p1361
S'97'
p1362
tp1363
a(S'MPI_Type_commit()'
p1364
S'98'
p1365
tp1366
a(S'MPI_Sendrecv()'
p1367
S'99'
p1368
tp1369
a(S'MPI_Type_free()'
p1370
S'102'
p1371
tp1372
a(S'MPI_Type_free()'
p1373
S'103'
p1374
tp1375
a(S'MPI_Sendrecv_replace()'
p1376
S'114'
p1377
tp1378
a(S'MPI_Type_commit()'
p1379
S'118'
p1380
tp1381
a(S'MPI_Sendrecv_replace()'
p1382
S'119'
p1383
tp1384
a(S'MPI_Type_free()'
p1385
S'120'
p1386
tp1387
a(S'MPI_Ssend()'
p1388
S'131'
p1389
tp1390
a(S'MPI_Type_commit()'
p1391
S'135'
p1392
tp1393
a(S'MPI_Ssend()'
p1394
S'136'
p1395
tp1396
a(S'MPI_Type_free()'
p1397
S'137'
p1398
tp1399
a(S'MPI_Rsend()'
p1400
S'147'
p1401
tp1402
a(S'MPI_Type_commit()'
p1403
S'151'
p1404
tp1405
a(S'MPI_Rsend()'
p1406
S'152'
p1407
tp1408
a(S'MPI_Type_free()'
p1409
S'153'
p1410
tp1411
a(S'MPI_Issend()'
p1412
S'163'
p1413
tp1414
a(S'MPI_Type_commit()'
p1415
S'167'
p1416
tp1417
a(S'MPI_Issend()'
p1418
S'168'
p1419
tp1420
a(S'MPI_Type_free()'
p1421
S'169'
p1422
tp1423
a(S'MPI_Irsend()'
p1424
S'179'
p1425
tp1426
a(S'MPI_Type_commit()'
p1427
S'183'
p1428
tp1429
a(S'MPI_Irsend()'
p1430
S'184'
p1431
tp1432
a(S'MPI_Type_free()'
p1433
S'185'
p1434
tp1435
a(S'MPI_Mrecv()'
p1436
S'197'
p1437
tp1438
a(S'MPI_Type_commit()'
p1439
S'201'
p1440
tp1441
a(S'MPI_Mrecv()'
p1442
S'202'
p1443
tp1444
a(S'MPI_Type_free()'
p1445
S'203'
p1446
tp1447
a(S'MPI_Imrecv()'
p1448
S'213'
p1449
tp1450
a(S'MPI_Type_commit()'
p1451
S'217'
p1452
tp1453
a(S'MPI_Imrecv()'
p1454
S'218'
p1455
tp1456
a(S'MPI_Type_free()'
p1457
S'219'
p1458
tp1459
asS'BigMPI/test/test_allreduce_x.c'
p1460
(lp1461
(S'MPI_Init()'
p1462
S'19'
p1463
tp1464
a(S'MPI_Comm_rank()'
p1465
S'22'
p1466
tp1467
a(S'MPI_Comm_size()'
p1468
S'23'
p1469
tp1470
a(S'MPI_Finalize()'
p1471
S'27'
p1472
tp1473
a(S'MPI_Alloc_mem()'
p1474
S'39'
p1475
tp1476
a(S'MPI_Alloc_mem()'
p1477
S'40'
p1478
tp1479
a(S'MPI_Free_mem()'
p1480
S'64'
p1481
tp1482
a(S'MPI_Free_mem()'
p1483
S'65'
p1484
tp1485
a(S'MPI_Finalize()'
p1486
S'73'
p1487
tp1488
asS'BigMPI/test/test_sendrecv_x.c'
p1489
(lp1490
(S'MPI_Init()'
p1491
S'17'
p1492
tp1493
a(S'MPI_Comm_rank()'
p1494
S'20'
p1495
tp1496
a(S'MPI_Comm_size()'
p1497
S'21'
p1498
tp1499
a(S'MPI_Finalize()'
p1500
S'27'
p1501
tp1502
a(S'MPI_Alloc_mem()'
p1503
S'38'
p1504
tp1505
a(S'MPI_Alloc_mem()'
p1506
S'39'
p1507
tp1508
a(S'X_MPI_COMM_WORLD()'
p1509
S'52'
p1510
tp1511
a(S'X_MPI_COMM_WORLD()'
p1512
S'65'
p1513
tp1514
a(S'MPI_Free_mem()'
p1515
S'77'
p1516
tp1517
a(S'MPI_Free_mem()'
p1518
S'78'
p1519
tp1520
a(S'MPI_Finalize()'
p1521
S'84'
p1522
tp1523
asS'BigMPI/test/test_factorize.c'
p1524
(lp1525
(S'MPI_Init()'
p1526
S'63'
p1527
tp1528
a(S'MPI_Comm_rank()'
p1529
S'64'
p1530
tp1531
a(S'MPI_Comm_size()'
p1532
S'65'
p1533
tp1534
a(S'MPI_Finalize()'
p1535
S'97'
p1536
tp1537
asS'BigMPI//README.md'
p1538
(lp1539
(S'MPI_Bcast()'
p1540
S'44'
p1541
tp1542
asS'BigMPI/test/test_issend_irecv_x.c'
p1543
(lp1544
(S'MPI_Init()'
p1545
S'17'
p1546
tp1547
a(S'MPI_Comm_rank()'
p1548
S'20'
p1549
tp1550
a(S'MPI_Comm_size()'
p1551
S'21'
p1552
tp1553
a(S'MPI_Finalize()'
p1554
S'27'
p1555
tp1556
a(S'MPI_Alloc_mem()'
p1557
S'37'
p1558
tp1559
a(S'MPI_Wait()'
p1560
S'55'
p1561
tp1562
a(S'MPI_Free_mem()'
p1563
S'66'
p1564
tp1565
a(S'MPI_Finalize()'
p1566
S'72'
p1567
tp1568
asS'BigMPI/src/utils.c'
p1569
(lp1570
(S'MPI_Comm_rank()'
p1571
S'33'
p1572
tp1573
a(S'MPI_Abort()'
p1574
S'37'
p1575
tp1576
a(S'MPI_Type_get_extent()'
p1577
S'83'
p1578
tp1579
a(S'MPI_Type_commit()'
p1580
S'96'
p1581
tp1582
a(S'MPI_Type_get_extent()'
p1583
S'104'
p1584
tp1585
a(S'MPI_Comm_rank()'
p1586
S'135'
p1587
tp1588
a(S'MPI_Comm_size()'
p1589
S'136'
p1590
tp1591
a(S'MPI_Dist_graph_create_adjacent()'
p1592
S'155'
p1593
tp1594
a(S'X_MPI_INFO_NULL()'
p1595
S'158'
p1596
tp1597
asS'BigMPI/src/collectives_x.c'
p1598
(lp1599
(S'MPI_Bcast()'
p1600
g1293
tp1601
a(S'MPI_Type_commit()'
p1602
S'12'
p1603
tp1604
a(S'MPI_Bcast()'
p1605
S'13'
p1606
tp1607
a(S'MPI_Type_free()'
p1608
S'14'
p1609
tp1610
a(S'MPI_Gather()'
p1611
S'25'
p1612
tp1613
a(S'MPI_Type_commit()'
p1614
S'30'
p1615
tp1616
a(S'MPI_Type_commit()'
p1617
S'31'
p1618
tp1619
a(S'MPI_Gather()'
p1620
S'32'
p1621
tp1622
a(S'MPI_Type_free()'
p1623
S'33'
p1624
tp1625
a(S'MPI_Type_free()'
p1626
S'34'
p1627
tp1628
a(S'MPI_Scatter()'
p1629
S'45'
p1630
tp1631
a(S'MPI_Type_commit()'
p1632
S'50'
p1633
tp1634
a(S'MPI_Type_commit()'
p1635
S'51'
p1636
tp1637
a(S'MPI_Scatter()'
p1638
S'52'
p1639
tp1640
a(S'MPI_Type_free()'
p1641
S'53'
p1642
tp1643
a(S'MPI_Type_free()'
p1644
S'54'
p1645
tp1646
a(S'MPI_Allgather()'
p1647
S'65'
p1648
tp1649
a(S'MPI_Type_commit()'
p1650
S'70'
p1651
tp1652
a(S'MPI_Type_commit()'
p1653
S'71'
p1654
tp1655
a(S'MPI_Allgather()'
p1656
S'72'
p1657
tp1658
a(S'MPI_Type_free()'
p1659
S'73'
p1660
tp1661
a(S'MPI_Type_free()'
p1662
S'74'
p1663
tp1664
a(S'MPI_Alltoall()'
p1665
S'85'
p1666
tp1667
a(S'MPI_Type_commit()'
p1668
S'90'
p1669
tp1670
a(S'MPI_Type_commit()'
p1671
S'91'
p1672
tp1673
a(S'MPI_Alltoall()'
p1674
S'92'
p1675
tp1676
a(S'MPI_Type_free()'
p1677
S'93'
p1678
tp1679
a(S'MPI_Type_free()'
p1680
S'94'
p1681
tp1682
a(S'MPI_Ibcast()'
p1683
S'106'
p1684
tp1685
a(S'MPI_Type_commit()'
p1686
S'110'
p1687
tp1688
a(S'MPI_Ibcast()'
p1689
S'111'
p1690
tp1691
a(S'MPI_Type_free()'
p1692
S'112'
p1693
tp1694
a(S'MPI_Igather()'
p1695
S'123'
p1696
tp1697
a(S'MPI_Type_commit()'
p1698
S'128'
p1699
tp1700
a(S'MPI_Type_commit()'
p1701
S'129'
p1702
tp1703
a(S'MPI_Igather()'
p1704
S'130'
p1705
tp1706
a(S'MPI_Type_free()'
p1707
S'131'
p1708
tp1709
a(S'MPI_Type_free()'
p1710
S'132'
p1711
tp1712
a(S'MPI_Iscatter()'
p1713
S'143'
p1714
tp1715
a(S'MPI_Type_commit()'
p1716
S'148'
p1717
tp1718
a(S'MPI_Type_commit()'
p1719
S'149'
p1720
tp1721
a(S'MPI_Iscatter()'
p1722
S'150'
p1723
tp1724
a(S'MPI_Type_free()'
p1725
S'151'
p1726
tp1727
a(S'MPI_Type_free()'
p1728
S'152'
p1729
tp1730
a(S'MPI_Iallgather()'
p1731
S'163'
p1732
tp1733
a(S'MPI_Type_commit()'
p1734
S'168'
p1735
tp1736
a(S'MPI_Type_commit()'
p1737
S'169'
p1738
tp1739
a(S'MPI_Iallgather()'
p1740
S'170'
p1741
tp1742
a(S'MPI_Type_free()'
p1743
S'171'
p1744
tp1745
a(S'MPI_Type_free()'
p1746
S'172'
p1747
tp1748
a(S'MPI_Ialltoall()'
p1749
S'183'
p1750
tp1751
a(S'MPI_Type_commit()'
p1752
S'188'
p1753
tp1754
a(S'MPI_Type_commit()'
p1755
S'189'
p1756
tp1757
a(S'MPI_Ialltoall()'
p1758
S'190'
p1759
tp1760
a(S'MPI_Type_free()'
p1761
S'191'
p1762
tp1763
a(S'MPI_Type_free()'
p1764
S'192'
p1765
tp1766
asS'BigMPI/test/test_gather_x.c'
p1767
(lp1768
(S'MPI_Init()'
p1769
S'19'
p1770
tp1771
a(S'MPI_Comm_rank()'
p1772
S'22'
p1773
tp1774
a(S'MPI_Comm_size()'
p1775
S'23'
p1776
tp1777
a(S'MPI_Finalize()'
p1778
S'27'
p1779
tp1780
a(S'MPI_Alloc_mem()'
p1781
S'38'
p1782
tp1783
a(S'MPI_Alloc_mem()'
p1784
S'39'
p1785
tp1786
a(S'MPI_Free_mem()'
p1787
S'65'
p1788
tp1789
a(S'MPI_Free_mem()'
p1790
S'66'
p1791
tp1792
a(S'MPI_Finalize()'
p1793
S'72'
p1794
tp1795
asS'BigMPI/test/mpi/reduce_scatter.c'
p1796
(lp1797
(S'MPI_Init()'
p1798
g1293
tp1799
a(S'MPI_Comm_rank()'
p1800
S'11'
p1801
tp1802
a(S'MPI_Comm_size()'
p1803
S'12'
p1804
tp1805
a(S'MPI_Finalize()'
p1806
S'16'
p1807
tp1808
a(S'MPI_Barrier()'
p1809
S'23'
p1810
tp1811
a(S'MPI_Reduce_scatter()'
p1812
S'29'
p1813
tp1814
a(S'MPI_Barrier()'
p1815
S'36'
p1816
tp1817
a(S'MPI_Barrier()'
p1818
S'42'
p1819
tp1820
a(S'MPI_Reduce_scatter()'
p1821
S'47'
p1822
tp1823
a(S'MPI_Barrier()'
p1824
S'54'
p1825
tp1826
a(S'MPI_Barrier()'
p1827
S'60'
p1828
tp1829
a(S'MPI_Reduce_scatter_block()'
p1830
S'66'
p1831
tp1832
a(S'MPI_Barrier()'
p1833
S'73'
p1834
tp1835
a(S'MPI_Barrier()'
p1836
S'79'
p1837
tp1838
a(S'MPI_Reduce_scatter_block()'
p1839
S'84'
p1840
tp1841
a(S'MPI_Barrier()'
p1842
S'91'
p1843
tp1844
a(S'MPI_Barrier()'
p1845
S'97'
p1846
tp1847
a(S'MPI_Reduce()'
p1848
S'104'
p1849
tp1850
a(S'MPI_Scatter()'
p1851
S'105'
p1852
tp1853
a(S'MPI_Barrier()'
p1854
S'112'
p1855
tp1856
a(S'MPI_Barrier()'
p1857
S'118'
p1858
tp1859
a(S'MPI_Reduce()'
p1860
S'123'
p1861
tp1862
a(S'MPI_Scatter()'
p1863
S'125'
p1864
tp1865
a(S'MPI_Finalize()'
p1866
S'130'
p1867
tp1868
asS'BigMPI/test/perf/reductions.c'
p1869
(lp1870
(S'MPI_Reduce_local()'
p1871
S'23'
p1872
tp1873
a(S'MPI_Op_commutative()'
p1874
S'45'
p1875
tp1876
a(S'MPI_Abort()'
p1877
S'63'
p1878
tp1879
a(S'MPI_Allreduce()'
p1880
S'73'
p1881
tp1882
a(S'MPI_Op_free()'
p1883
S'74'
p1884
tp1885
a(S'MPI_Init()'
p1886
S'80'
p1887
tp1888
a(S'MPI_Comm_rank()'
p1889
S'83'
p1890
tp1891
a(S'MPI_Comm_size()'
p1892
S'84'
p1893
tp1894
a(S'MPI_Alloc_mem()'
p1895
S'94'
p1896
tp1897
a(S'MPI_Alloc_mem()'
p1898
S'95'
p1899
tp1900
a(S'MPI_Alloc_mem()'
p1901
S'96'
p1902
tp1903
a(S'MPI_Alloc_mem()'
p1904
S'97'
p1905
tp1906
a(S'MPI_Barrier()'
p1907
S'114'
p1908
tp1909
a(S'MPI_Allreduce()'
p1910
S'115'
p1911
tp1912
a(S'MPI_Barrier()'
p1913
S'116'
p1914
tp1915
a(S'MPI_Barrier()'
p1916
S'118'
p1917
tp1918
a(S'MPI_Barrier()'
p1919
S'142'
p1920
tp1921
a(S'MPI_Wtime()'
p1922
S'144'
p1923
tp1924
a(S'MPI_Allreduce()'
p1925
S'145'
p1926
tp1927
a(S'MPI_Wtime()'
p1928
S'146'
p1929
tp1930
a(S'MPI_Barrier()'
p1931
S'148'
p1932
tp1933
a(S'MPI_Wtime()'
p1934
S'150'
p1935
tp1936
a(S'MPI_Wtime()'
p1937
S'152'
p1938
tp1939
a(S'MPI_Barrier()'
p1940
S'155'
p1941
tp1942
a(S'MPI_Free_mem()'
p1943
S'157'
p1944
tp1945
a(S'MPI_Free_mem()'
p1946
S'158'
p1947
tp1948
a(S'MPI_Free_mem()'
p1949
S'159'
p1950
tp1951
a(S'MPI_Free_mem()'
p1952
S'160'
p1953
tp1954
a(S'MPI_Finalize()'
p1955
S'168'
p1956
tp1957
asS'BigMPI/test/test_scatter_x.c'
p1958
(lp1959
(S'MPI_Init()'
p1960
S'20'
p1961
tp1962
a(S'MPI_Comm_rank()'
p1963
S'23'
p1964
tp1965
a(S'MPI_Comm_size()'
p1966
S'24'
p1967
tp1968
a(S'MPI_Finalize()'
p1969
S'28'
p1970
tp1971
a(S'MPI_Alloc_mem()'
p1972
S'39'
p1973
tp1974
a(S'MPI_Alloc_mem()'
p1975
S'41'
p1976
tp1977
a(S'MPI_Free_mem()'
p1978
S'60'
p1979
tp1980
a(S'MPI_Free_mem()'
p1981
S'61'
p1982
tp1983
a(S'MPI_Finalize()'
p1984
S'67'
p1985
tp1986
asS'BigMPI/src/reductions_x.c'
p1987
(lp1988
(S'MPI_Type_size()'
p1989
S'30'
p1990
tp1991
a(S'MPI_Reduce_local()'
p1992
S'32'
p1993
tp1994
a(S'MPI_Reduce_local()'
p1995
S'36'
p1996
tp1997
a(S'MPI_Op_commutative()'
p1998
S'62'
p1999
tp2000
a(S'MPI_Type_size()'
p2001
S'94'
p2002
tp2003
a(S'MPI_Comm_rank()'
p2004
S'97'
p2005
tp2006
a(S'MPI_Reduce()'
p2007
S'99'
p2008
tp2009
a(S'MPI_Reduce()'
p2010
S'103'
p2011
tp2012
a(S'MPI_Reduce()'
p2013
S'108'
p2014
tp2015
a(S'MPI_Reduce()'
p2016
S'112'
p2017
tp2018
a(S'MPI_Type_commit()'
p2019
S'121'
p2020
tp2021
a(S'MPI_Type_get_extent()'
p2022
S'130'
p2023
tp2024
a(S'MPI_Alloc_mem()'
p2025
S'133'
p2026
tp2027
a(S'MPI_Reduce()'
p2028
S'138'
p2029
tp2030
a(S'MPI_Free_mem()'
p2031
S'142'
p2032
tp2033
a(S'MPI_Type_free()'
p2034
S'145'
p2035
tp2036
a(S'MPI_Op_free()'
p2037
S'146'
p2038
tp2039
a(S'MPI_Type_size()'
p2040
S'164'
p2041
tp2042
a(S'MPI_Allreduce()'
p2043
S'167'
p2044
tp2045
a(S'MPI_Allreduce()'
p2046
S'170'
p2047
tp2048
a(S'MPI_Allreduce()'
p2049
S'174'
p2050
tp2051
a(S'MPI_Allreduce()'
p2052
S'178'
p2053
tp2054
a(S'MPI_Type_commit()'
p2055
S'187'
p2056
tp2057
a(S'MPI_Type_get_extent()'
p2058
S'195'
p2059
tp2060
a(S'MPI_Alloc_mem()'
p2061
S'198'
p2062
tp2063
a(S'MPI_Allreduce()'
p2064
S'202'
p2065
tp2066
a(S'MPI_Free_mem()'
p2067
S'205'
p2068
tp2069
a(S'MPI_Type_free()'
p2070
S'208'
p2071
tp2072
a(S'MPI_Op_free()'
p2073
S'209'
p2074
tp2075
a(S'MPI_Comm_size()'
p2076
S'235'
p2077
tp2078
a(S'MPI_Type_get_extent()'
p2079
S'239'
p2080
tp2081
a(S'MPI_Alloc_mem()'
p2082
S'243'
p2083
tp2084
a(S'MPI_Free_mem()'
p2085
S'250'
p2086
tp2087
a(S'MPI_Type_commit()'
p2088
S'266'
p2089
tp2090
a(S'MPI_Ireduce()'
p2091
S'274'
p2092
tp2093
a(S'MPI_Type_free()'
p2094
S'276'
p2095
tp2096
a(S'MPI_Op_free()'
p2097
S'277'
p2098
tp2099
a(S'MPI_Type_commit()'
p2100
S'293'
p2101
tp2102
a(S'MPI_Iallreduce()'
p2103
S'301'
p2104
tp2105
a(S'MPI_Type_free()'
p2106
S'303'
p2107
tp2108
a(S'MPI_Op_free()'
p2109
S'304'
p2110
tp2111
asS'BigMPI/test/test_bcast_x.c'
p2112
(lp2113
(S'MPI_Init()'
p2114
S'19'
p2115
tp2116
a(S'MPI_Comm_rank()'
p2117
S'22'
p2118
tp2119
a(S'MPI_Comm_size()'
p2120
S'23'
p2121
tp2122
a(S'MPI_Finalize()'
p2123
S'27'
p2124
tp2125
a(S'MPI_Alloc_mem()'
p2126
S'37'
p2127
tp2128
a(S'MPI_Free_mem()'
p2129
S'55'
p2130
tp2131
a(S'MPI_Finalize()'
p2132
S'57'
p2133
tp2134
asS'BigMPI/test/test_rma2_x.c'
p2135
(lp2136
(S'MPI_Init()'
p2137
S'20'
p2138
tp2139
a(S'MPI_Comm_rank()'
p2140
S'23'
p2141
tp2142
a(S'MPI_Comm_size()'
p2143
S'24'
p2144
tp2145
a(S'MPI_Win_allocate()'
p2146
S'34'
p2147
tp2148
a(S'MPI_Win_lock_all()'
p2149
S'35'
p2150
tp2151
a(S'MPI_Win_sync()'
p2152
S'39'
p2153
tp2154
a(S'MPI_Barrier()'
p2155
S'41'
p2156
tp2157
a(S'MPI_Alloc_mem()'
p2158
S'45'
p2159
tp2160
a(S'MPI_Win_unlock_all()'
p2161
S'66'
p2162
tp2163
a(S'MPI_Win_free()'
p2164
S'67'
p2165
tp2166
a(S'MPI_Finalize()'
p2167
S'69'
p2168
tp2169
asS'BigMPI/test/devel/type_create_struct.c'
p2170
(lp2171
(S'MPI_Init()'
p2172
S'6'
p2173
tp2174
a(S'MPI_Finalize()'
p2175
g1293
tp2176
asS'BigMPI/src/vcollectives_x.c'
p2177
(lp2178
(S'MPI_Comm_test_inter()'
p2179
S'75'
p2180
tp2181
a(S'MPI_Comm_size()'
p2182
S'83'
p2183
tp2184
a(S'MPI_Comm_rank()'
p2185
S'84'
p2186
tp2187
a(S'MPI_Waitall()'
p2188
S'105'
p2189
tp2190
a(S'MPI_Type_get_extent()'
p2191
S'113'
p2192
tp2193
a(S'MPI_Type_get_extent()'
p2194
S'114'
p2195
tp2196
a(S'MPI_Waitall()'
p2197
S'127'
p2198
tp2199
a(S'MPI_Type_get_extent()'
p2200
S'135'
p2201
tp2202
a(S'MPI_Waitall()'
p2203
S'148'
p2204
tp2205
a(S'MPI_Type_get_extent()'
p2206
S'158'
p2207
tp2208
a(S'MPI_Waitall()'
p2209
S'167'
p2210
tp2211
a(S'MPI_Type_get_extent()'
p2212
S'177'
p2213
tp2214
a(S'MPI_Waitall()'
p2215
S'186'
p2216
tp2217
a(S'MPI_Alltoallw()'
p2218
S'296'
p2219
tp2220
a(S'MPI_Type_free()'
p2221
S'300'
p2222
tp2223
a(S'MPI_Type_free()'
p2224
S'301'
p2225
tp2226
a(S'MPI_Neighbor_alltoallw()'
p2227
S'415'
p2228
tp2229
a(S'MPI_Comm_free()'
p2230
S'417'
p2231
tp2232
a(S'MPI_Type_free()'
p2233
S'420'
p2234
tp2235
a(S'MPI_Type_free()'
p2236
S'421'
p2237
tp2238
a(S'MPI_Abort()'
p2239
S'440'
p2240
tp2241
a(S'MPI_Type_get_extent()'
p2242
S'449'
p2243
tp2244
a(S'MPI_Win_create()'
p2245
S'453'
p2246
tp2247
a(S'MPI_Win_fence()'
p2248
S'454'
p2249
tp2250
a(S'MPI_Put()'
p2251
S'456'
p2252
tp2253
a(S'MPI_Win_fence()'
p2254
S'459'
p2255
tp2256
a(S'MPI_Win_free()'
p2257
S'460'
p2258
tp2259
as.