ccollections
defaultdict
p0
(c__builtin__
list
p1
tp2
Rp3
S'MIS//mpi.cpp'
p4
(lp5
(S'MPI_Init()'
p6
S'97'
p7
tp8
a(S'MPI_Comm_size()'
p9
S'102'
p10
tp11
a(S'MPI_Comm_rank()'
p12
S'106'
p13
tp14
a(S'MPI_Barrier()'
p15
S'142'
p16
tp17
a(S'MPI_Issend()'
p18
S'177'
p19
tp20
a(S'MPI_Recv()'
p21
S'178'
p22
tp23
a(S'MPI_Wait()'
p24
S'179'
p25
tp26
a(S'MPI_Barrier()'
p27
S'195'
p28
tp29
a(S'MPI_Issend()'
p30
S'202'
p31
tp32
a(S'MPI_Recv()'
p33
S'203'
p34
tp35
a(S'MPI_Wait()'
p36
S'204'
p37
tp38
a(S'MPI_Barrier()'
p39
S'211'
p40
tp41
a(S'MPI_Barrier()'
p42
S'219'
p43
tp44
a(S'MPI_Barrier()'
p45
S'223'
p46
tp47
a(S'MPI_Barrier()'
p48
S'231'
p49
tp50
a(S'MPI_Barrier()'
p51
S'266'
p52
tp53
a(S'MPI_Barrier()'
p54
S'268'
p55
tp56
a(S'MPI_Issend()'
p57
S'281'
p58
tp59
a(S'MPI_Recv()'
p60
S'282'
p61
tp62
a(S'MPI_Wait()'
p63
S'283'
p64
tp65
a(S'MPI_Barrier()'
p66
S'288'
p67
tp68
a(S'MPI_Issend()'
p69
S'294'
p70
tp71
a(S'MPI_Recv()'
p72
S'295'
p73
tp74
a(S'MPI_Wait()'
p75
S'296'
p76
tp77
a(S'MPI_Barrier()'
p78
S'309'
p79
tp80
a(S'MPI_Barrier()'
p81
S'330'
p82
tp83
a(S'MPI_Barrier()'
p84
S'337'
p85
tp86
a(S'MPI_Barrier()'
p87
S'366'
p88
tp89
a(S'MPI_Barrier()'
p90
S'397'
p91
tp92
a(S'MPI_Barrier()'
p93
S'402'
p94
tp95
a(S'MPI_Issend()'
p96
S'412'
p97
tp98
a(S'MPI_Recv()'
p99
S'413'
p100
tp101
a(S'MPI_Wait()'
p102
S'414'
p103
tp104
a(S'MPI_Barrier()'
p105
S'419'
p106
tp107
a(S'MPI_Issend()'
p108
S'425'
p109
tp110
a(S'MPI_Recv()'
p111
S'426'
p112
tp113
a(S'MPI_Wait()'
p114
S'427'
p115
tp116
a(S'MPI_Barrier()'
p117
S'434'
p118
tp119
a(S'MPI_Barrier()'
p120
S'453'
p121
tp122
a(S'MPI_Barrier()'
p123
S'463'
p124
tp125
a(S'MPI_Barrier()'
p126
S'645'
p127
tp128
a(S'MPI_Barrier()'
p129
S'650'
p130
tp131
a(S'MPI_Finalize()'
p132
S'657'
p133
tp134
asS'MIS//ConsoleApplication1.cpp'
p135
(lp136
(S'MPI_Init()'
p137
S'100'
p138
tp139
a(S'MPI_Comm_size()'
p140
S'101'
p141
tp142
a(S'MPI_Comm_rank()'
p143
S'102'
p144
tp145
a(S'MPI_Send()'
p146
S'130'
p147
tp148
a(S'MPI_Recv()'
p149
S'131'
p150
tp151
a(S'MPI_Send()'
p152
S'134'
p153
tp154
a(S'MPI_Recv()'
p155
S'135'
p156
tp157
a(S'MPI_Send()'
p158
S'158'
p159
tp160
a(S'MPI_Recv()'
p161
S'159'
p162
tp163
a(S'MPI_Send()'
p164
S'162'
p165
tp166
a(S'MPI_Recv()'
p167
S'163'
p168
tp169
a(S'MPI_Send()'
p170
S'185'
p171
tp172
a(S'MPI_Recv()'
p173
S'186'
p174
tp175
a(S'MPI_Send()'
p176
S'189'
p177
tp178
a(S'MPI_Recv()'
p179
S'190'
p180
tp181
a(S'MPI_Recv()'
p182
S'216'
p183
tp184
a(S'MPI_Send()'
p185
S'217'
p186
tp187
a(S'MPI_Recv()'
p188
S'219'
p189
tp190
a(S'MPI_Send()'
p191
S'220'
p192
tp193
a(S'MPI_Recv()'
p194
S'224'
p195
tp196
a(S'MPI_Send()'
p197
S'225'
p198
tp199
a(S'MPI_Recv()'
p200
S'227'
p201
tp202
a(S'MPI_Send()'
p203
S'228'
p204
tp205
a(S'MPI_Recv()'
p206
S'233'
p207
tp208
a(S'MPI_Send()'
p209
S'234'
p210
tp211
a(S'MPI_Recv()'
p212
S'236'
p213
tp214
a(S'MPI_Send()'
p215
S'237'
p216
tp217
a(S'MPI_Abort()'
p218
S'244'
p219
tp220
a(S'MPI_Finalize()'
p221
S'245'
p222
tp223
as.