ccollections
defaultdict
p0
(c__builtin__
list
p1
tp2
Rp3
S'stuff/task3new/main_copy.cpp'
p4
(lp5
(S'MPI_Init()'
p6
S'20'
p7
tp8
a(S'MPI_Comm_size()'
p9
S'21'
p10
tp11
a(S'MPI_Comm_rank()'
p12
S'22'
p13
tp14
a(S'MPI_Finalize()'
p15
S'29'
p16
tp17
a(S'MPI_Finalize()'
p18
S'40'
p19
tp20
a(S'MPI_Finalize()'
p21
S'47'
p22
tp23
a(S'MPI_Finalize()'
p24
S'54'
p25
tp26
a(S'MPI_Finalize()'
p27
S'61'
p28
tp29
a(S'MPI_Finalize()'
p30
S'72'
p31
tp32
a(S'MPI_Finalize()'
p33
S'82'
p34
tp35
a(S'MPI_Finalize()'
p36
S'106'
p37
tp38
a(S'MPI_Finalize()'
p39
S'114'
p40
tp41
a(S'MPI_Finalize()'
p42
S'126'
p43
tp44
a(S'MPI_Finalize()'
p45
S'132'
p46
tp47
a(S'MPI_Finalize()'
p48
S'138'
p49
tp50
a(S'MPI_Finalize()'
p51
S'162'
p52
tp53
a(S'MPI_Finalize()'
p54
S'170'
p55
tp56
a(S'MPI_Finalize()'
p57
S'179'
p58
tp59
a(S'MPI_Finalize()'
p60
S'184'
p61
tp62
a(S'MPI_Finalize()'
p63
S'208'
p64
tp65
a(S'MPI_Bcast()'
p66
S'224'
p67
tp68
a(S'MPI_Barrier()'
p69
S'230'
p70
tp71
a(S'MPI_Finalize()'
p72
S'243'
p73
tp74
a(S'MPI_Finalize()'
p75
S'259'
p76
tp77
a(S'MPI_Finalize()'
p78
S'269'
p79
tp80
a(S'MPI_Finalize()'
p81
S'276'
p82
tp83
a(S'MPI_Finalize()'
p84
S'296'
p85
tp86
asS'stuff/task3new/solve_copy.cpp'
p87
(lp88
(S'MPI_Bcast()'
p89
S'89'
p90
tp91
a(S'MPI_Bcast()'
p92
S'90'
p93
tp94
a(S'MPI_Bcast()'
p95
S'91'
p96
tp97
a(S'MPI_Bcast()'
p98
S'92'
p99
tp100
a(S'MPI_Barrier()'
p101
S'140'
p102
tp103
a(S'MPI_Bcast()'
p104
S'164'
p105
tp106
a(S'MPI_Bcast()'
p107
S'181'
p108
tp109
a(S'MPI_Bcast()'
p110
S'197'
p111
tp112
asS'stuff/task3/solve_copy.cpp'
p113
(lp114
(S'MPI_Bcast()'
p115
S'86'
p116
tp117
a(S'MPI_Bcast()'
p118
S'87'
p119
tp120
a(S'MPI_Bcast()'
p121
S'88'
p122
tp123
a(S'MPI_Bcast()'
p124
S'89'
p125
tp126
a(S'MPI_Barrier()'
p127
S'137'
p128
tp129
a(S'MPI_Bcast()'
p130
S'161'
p131
tp132
a(S'MPI_Bcast()'
p133
S'178'
p134
tp135
a(S'MPI_Bcast()'
p136
S'194'
p137
tp138
asS'stuff/task3/main_copy.cpp'
p139
(lp140
(S'MPI_Init()'
p141
S'20'
p142
tp143
a(S'MPI_Comm_size()'
p144
S'21'
p145
tp146
a(S'MPI_Comm_rank()'
p147
S'22'
p148
tp149
a(S'MPI_Finalize()'
p150
S'29'
p151
tp152
a(S'MPI_Finalize()'
p153
S'40'
p154
tp155
a(S'MPI_Finalize()'
p156
S'47'
p157
tp158
a(S'MPI_Finalize()'
p159
S'54'
p160
tp161
a(S'MPI_Finalize()'
p162
S'61'
p163
tp164
a(S'MPI_Finalize()'
p165
S'72'
p166
tp167
a(S'MPI_Finalize()'
p168
S'82'
p169
tp170
a(S'MPI_Finalize()'
p171
S'106'
p172
tp173
a(S'MPI_Finalize()'
p174
S'114'
p175
tp176
a(S'MPI_Finalize()'
p177
S'126'
p178
tp179
a(S'MPI_Finalize()'
p180
S'132'
p181
tp182
a(S'MPI_Finalize()'
p183
S'138'
p184
tp185
a(S'MPI_Finalize()'
p186
S'160'
p187
tp188
a(S'MPI_Finalize()'
p189
S'168'
p190
tp191
a(S'MPI_Finalize()'
p192
S'177'
p193
tp194
a(S'MPI_Finalize()'
p195
S'182'
p196
tp197
a(S'MPI_Finalize()'
p198
S'201'
p199
tp200
a(S'MPI_Bcast()'
p201
S'212'
p202
tp203
a(S'MPI_Barrier()'
p204
S'218'
p205
tp206
a(S'MPI_Finalize()'
p207
S'229'
p208
tp209
a(S'MPI_Finalize()'
p210
S'247'
p211
tp212
as.