ccollections
defaultdict
p0
(c__builtin__
list
p1
tp2
Rp3
S'PMedian//select_c.c'
p4
(lp5
(S'MPI_Barrier()'
p6
S'87'
p7
tp8
a(S'MPI_Barrier()'
p9
S'93'
p10
tp11
a(S'MPI_Barrier()'
p12
S'98'
p13
tp14
a(S'MPI_Wtime()'
p15
S'99'
p16
tp17
a(S'MPI_Barrier()'
p18
S'102'
p19
tp20
a(S'MPI_Wtime()'
p21
S'103'
p22
tp23
a(S'MPI_Barrier()'
p24
S'109'
p25
tp26
a(S'MPI_Wtime()'
p27
S'110'
p28
tp29
a(S'MPI_Barrier()'
p30
S'112'
p31
tp32
a(S'MPI_Barrier()'
p33
S'115'
p34
tp35
a(S'MPI_Wtime()'
p36
S'116'
p37
tp38
a(S'MPI_Barrier()'
p39
S'121'
p40
tp41
a(S'MPI_Bcast()'
p42
S'123'
p43
tp44
a(S'MPI_Barrier()'
p45
S'128'
p46
tp47
a(S'MPI_Wtime()'
p48
S'129'
p49
tp50
a(S'MPI_Barrier()'
p51
S'132'
p52
tp53
a(S'MPI_Wtime()'
p54
S'133'
p55
tp56
a(S'MPI_Barrier()'
p57
S'139'
p58
tp59
a(S'MPI_Wtime()'
p60
S'140'
p61
tp62
a(S'MPI_Barrier()'
p63
S'142'
p64
tp65
a(S'MPI_Barrier()'
p66
S'145'
p67
tp68
a(S'MPI_Wtime()'
p69
S'146'
p70
tp71
a(S'MPI_Barrier()'
p72
S'151'
p73
tp74
a(S'MPI_Barrier()'
p75
S'155'
p76
tp77
a(S'MPI_Wtime()'
p78
S'156'
p79
tp80
a(S'MPI_Barrier()'
p81
S'159'
p82
tp83
a(S'MPI_Wtime()'
p84
S'160'
p85
tp86
a(S'MPI_Gather()'
p87
S'167'
p88
tp89
a(S'MPI_Bcast()'
p90
S'173'
p91
tp92
a(S'MPI_Allreduce()'
p93
S'175'
p94
tp95
a(S'MPI_Barrier()'
p96
S'180'
p97
tp98
a(S'MPI_Wtime()'
p99
S'181'
p100
tp101
a(S'MPI_Barrier()'
p102
S'183'
p103
tp104
a(S'MPI_Barrier()'
p105
S'186'
p106
tp107
a(S'MPI_Wtime()'
p108
S'187'
p109
tp110
a(S'MPI_Barrier()'
p111
S'192'
p112
tp113
a(S'MPI_Barrier()'
p114
S'209'
p115
tp116
a(S'MPI_Wtime()'
p117
S'210'
p118
tp119
a(S'MPI_Barrier()'
p120
S'212'
p121
tp122
a(S'MPI_Barrier()'
p123
S'215'
p124
tp125
a(S'MPI_Wtime()'
p126
S'216'
p127
tp128
a(S'MPI_Barrier()'
p129
S'221'
p130
tp131
a(S'MPI_Allgather()'
p132
S'223'
p133
tp134
a(S'MPI_Barrier()'
p135
S'259'
p136
tp137
a(S'MPI_Barrier()'
p138
S'265'
p139
tp140
a(S'MPI_Barrier()'
p141
S'270'
p142
tp143
a(S'MPI_Wtime()'
p144
S'271'
p145
tp146
a(S'MPI_Barrier()'
p147
S'274'
p148
tp149
a(S'MPI_Wtime()'
p150
S'275'
p151
tp152
a(S'MPI_Barrier()'
p153
S'281'
p154
tp155
a(S'MPI_Wtime()'
p156
S'282'
p157
tp158
a(S'MPI_Barrier()'
p159
S'284'
p160
tp161
a(S'MPI_Barrier()'
p162
S'287'
p163
tp164
a(S'MPI_Wtime()'
p165
S'288'
p166
tp167
a(S'MPI_Barrier()'
p168
S'293'
p169
tp170
a(S'MPI_Bcast()'
p171
S'295'
p172
tp173
a(S'MPI_Barrier()'
p174
S'300'
p175
tp176
a(S'MPI_Wtime()'
p177
S'301'
p178
tp179
a(S'MPI_Barrier()'
p180
S'304'
p181
tp182
a(S'MPI_Wtime()'
p183
S'305'
p184
tp185
a(S'MPI_Barrier()'
p186
S'311'
p187
tp188
a(S'MPI_Wtime()'
p189
S'312'
p190
tp191
a(S'MPI_Barrier()'
p192
S'314'
p193
tp194
a(S'MPI_Barrier()'
p195
S'317'
p196
tp197
a(S'MPI_Wtime()'
p198
S'318'
p199
tp200
a(S'MPI_Barrier()'
p201
S'323'
p202
tp203
a(S'MPI_Barrier()'
p204
S'327'
p205
tp206
a(S'MPI_Wtime()'
p207
S'328'
p208
tp209
a(S'MPI_Barrier()'
p210
S'331'
p211
tp212
a(S'MPI_Wtime()'
p213
S'332'
p214
tp215
a(S'MPI_Gather()'
p216
S'339'
p217
tp218
a(S'MPI_Bcast()'
p219
S'345'
p220
tp221
a(S'MPI_Allreduce()'
p222
S'347'
p223
tp224
a(S'MPI_Barrier()'
p225
S'352'
p226
tp227
a(S'MPI_Wtime()'
p228
S'353'
p229
tp230
a(S'MPI_Barrier()'
p231
S'355'
p232
tp233
a(S'MPI_Barrier()'
p234
S'358'
p235
tp236
a(S'MPI_Wtime()'
p237
S'359'
p238
tp239
a(S'MPI_Barrier()'
p240
S'364'
p241
tp242
a(S'MPI_Barrier()'
p243
S'381'
p244
tp245
a(S'MPI_Wtime()'
p246
S'382'
p247
tp248
a(S'MPI_Barrier()'
p249
S'384'
p250
tp251
a(S'MPI_Barrier()'
p252
S'387'
p253
tp254
a(S'MPI_Wtime()'
p255
S'388'
p256
tp257
a(S'MPI_Barrier()'
p258
S'393'
p259
tp260
a(S'MPI_Allgather()'
p261
S'395'
p262
tp263
a(S'MPI_Allreduce()'
p264
S'429'
p265
tp266
a(S'MPI_Barrier()'
p267
S'440'
p268
tp269
a(S'MPI_Recv()'
p270
S'450'
p271
tp272
a(S'X_MPI_COMM_WORLD()'
p273
S'451'
p274
tp275
a(S'MPI_Send()'
p276
S'462'
p277
tp278
a(S'MPI_Bcast()'
p279
S'465'
p280
tp281
a(S'MPI_Allreduce()'
p282
S'495'
p283
tp284
a(S'MPI_Barrier()'
p285
S'506'
p286
tp287
a(S'MPI_Recv()'
p288
S'516'
p289
tp290
a(S'X_MPI_COMM_WORLD()'
p291
S'517'
p292
tp293
a(S'MPI_Send()'
p294
S'530'
p295
tp296
a(S'MPI_Bcast()'
p297
S'533'
p298
tp299
a(S'MPI_Allreduce()'
p300
S'562'
p301
tp302
a(S'MPI_Barrier()'
p303
S'571'
p304
tp305
a(S'MPI_Recv()'
p306
S'581'
p307
tp308
a(S'X_MPI_COMM_WORLD()'
p309
S'582'
p310
tp311
a(S'MPI_Send()'
p312
S'593'
p313
tp314
a(S'MPI_Bcast()'
p315
S'596'
p316
tp317
a(S'MPI_Allreduce()'
p318
S'627'
p319
tp320
a(S'MPI_Barrier()'
p321
S'636'
p322
tp323
a(S'MPI_Recv()'
p324
S'646'
p325
tp326
a(S'X_MPI_COMM_WORLD()'
p327
S'647'
p328
tp329
a(S'MPI_Send()'
p330
S'660'
p331
tp332
a(S'MPI_Bcast()'
p333
S'663'
p334
tp335
a(S'MPI_Barrier()'
p336
S'693'
p337
tp338
a(S'MPI_Barrier()'
p339
S'699'
p340
tp341
a(S'MPI_Barrier()'
p342
S'704'
p343
tp344
a(S'MPI_Wtime()'
p345
S'705'
p346
tp347
a(S'MPI_Barrier()'
p348
S'708'
p349
tp350
a(S'MPI_Wtime()'
p351
S'709'
p352
tp353
a(S'MPI_Barrier()'
p354
S'715'
p355
tp356
a(S'MPI_Wtime()'
p357
S'716'
p358
tp359
a(S'MPI_Barrier()'
p360
S'718'
p361
tp362
a(S'MPI_Barrier()'
p363
S'721'
p364
tp365
a(S'MPI_Wtime()'
p366
S'722'
p367
tp368
a(S'MPI_Barrier()'
p369
S'727'
p370
tp371
a(S'MPI_Bcast()'
p372
S'729'
p373
tp374
a(S'MPI_Barrier()'
p375
S'734'
p376
tp377
a(S'MPI_Wtime()'
p378
S'735'
p379
tp380
a(S'MPI_Barrier()'
p381
S'738'
p382
tp383
a(S'MPI_Wtime()'
p384
S'739'
p385
tp386
a(S'MPI_Barrier()'
p387
S'745'
p388
tp389
a(S'MPI_Wtime()'
p390
S'746'
p391
tp392
a(S'MPI_Barrier()'
p393
S'748'
p394
tp395
a(S'MPI_Barrier()'
p396
S'751'
p397
tp398
a(S'MPI_Wtime()'
p399
S'752'
p400
tp401
a(S'MPI_Barrier()'
p402
S'757'
p403
tp404
a(S'MPI_Barrier()'
p405
S'762'
p406
tp407
a(S'MPI_Wtime()'
p408
S'763'
p409
tp410
a(S'MPI_Barrier()'
p411
S'766'
p412
tp413
a(S'MPI_Wtime()'
p414
S'767'
p415
tp416
a(S'MPI_Barrier()'
p417
S'774'
p418
tp419
a(S'MPI_Wtime()'
p420
S'775'
p421
tp422
a(S'MPI_Barrier()'
p423
S'777'
p424
tp425
a(S'MPI_Barrier()'
p426
S'780'
p427
tp428
a(S'MPI_Wtime()'
p429
S'781'
p430
tp431
a(S'MPI_Barrier()'
p432
S'786'
p433
tp434
a(S'MPI_Barrier()'
p435
S'791'
p436
tp437
a(S'MPI_Wtime()'
p438
S'792'
p439
tp440
a(S'MPI_Barrier()'
p441
S'795'
p442
tp443
a(S'MPI_Wtime()'
p444
S'796'
p445
tp446
a(S'MPI_Barrier()'
p447
S'803'
p448
tp449
a(S'MPI_Wtime()'
p450
S'804'
p451
tp452
a(S'MPI_Barrier()'
p453
S'806'
p454
tp455
a(S'MPI_Barrier()'
p456
S'809'
p457
tp458
a(S'MPI_Wtime()'
p459
S'810'
p460
tp461
a(S'MPI_Barrier()'
p462
S'815'
p463
tp464
a(S'MPI_Barrier()'
p465
S'821'
p466
tp467
a(S'MPI_Wtime()'
p468
S'822'
p469
tp470
a(S'MPI_Barrier()'
p471
S'825'
p472
tp473
a(S'MPI_Wtime()'
p474
S'826'
p475
tp476
a(S'MPI_Gather()'
p477
S'833'
p478
tp479
a(S'MPI_Bcast()'
p480
S'839'
p481
tp482
a(S'MPI_Allreduce()'
p483
S'841'
p484
tp485
a(S'MPI_Barrier()'
p486
S'846'
p487
tp488
a(S'MPI_Wtime()'
p489
S'847'
p490
tp491
a(S'MPI_Barrier()'
p492
S'849'
p493
tp494
a(S'MPI_Barrier()'
p495
S'852'
p496
tp497
a(S'MPI_Wtime()'
p498
S'853'
p499
tp500
a(S'MPI_Barrier()'
p501
S'858'
p502
tp503
a(S'MPI_Barrier()'
p504
S'875'
p505
tp506
a(S'MPI_Wtime()'
p507
S'876'
p508
tp509
a(S'MPI_Barrier()'
p510
S'878'
p511
tp512
a(S'MPI_Barrier()'
p513
S'881'
p514
tp515
a(S'MPI_Wtime()'
p516
S'882'
p517
tp518
a(S'MPI_Barrier()'
p519
S'887'
p520
tp521
a(S'MPI_Allgather()'
p522
S'890'
p523
tp524
a(S'MPI_Barrier()'
p525
S'924'
p526
tp527
a(S'MPI_Barrier()'
p528
S'930'
p529
tp530
a(S'MPI_Barrier()'
p531
S'935'
p532
tp533
a(S'MPI_Wtime()'
p534
S'936'
p535
tp536
a(S'MPI_Barrier()'
p537
S'939'
p538
tp539
a(S'MPI_Wtime()'
p540
S'940'
p541
tp542
a(S'MPI_Barrier()'
p543
S'946'
p544
tp545
a(S'MPI_Wtime()'
p546
S'947'
p547
tp548
a(S'MPI_Barrier()'
p549
S'949'
p550
tp551
a(S'MPI_Barrier()'
p552
S'952'
p553
tp554
a(S'MPI_Wtime()'
p555
S'953'
p556
tp557
a(S'MPI_Barrier()'
p558
S'958'
p559
tp560
a(S'MPI_Bcast()'
p561
S'960'
p562
tp563
a(S'MPI_Barrier()'
p564
S'965'
p565
tp566
a(S'MPI_Wtime()'
p567
S'966'
p568
tp569
a(S'MPI_Barrier()'
p570
S'969'
p571
tp572
a(S'MPI_Wtime()'
p573
S'970'
p574
tp575
a(S'MPI_Barrier()'
p576
S'976'
p577
tp578
a(S'MPI_Wtime()'
p579
S'977'
p580
tp581
a(S'MPI_Barrier()'
p582
S'979'
p583
tp584
a(S'MPI_Barrier()'
p585
S'982'
p586
tp587
a(S'MPI_Wtime()'
p588
S'983'
p589
tp590
a(S'MPI_Barrier()'
p591
S'988'
p592
tp593
a(S'MPI_Barrier()'
p594
S'993'
p595
tp596
a(S'MPI_Wtime()'
p597
S'994'
p598
tp599
a(S'MPI_Barrier()'
p600
S'997'
p601
tp602
a(S'MPI_Wtime()'
p603
S'998'
p604
tp605
a(S'MPI_Barrier()'
p606
S'1005'
p607
tp608
a(S'MPI_Wtime()'
p609
S'1006'
p610
tp611
a(S'MPI_Barrier()'
p612
S'1008'
p613
tp614
a(S'MPI_Barrier()'
p615
S'1011'
p616
tp617
a(S'MPI_Wtime()'
p618
S'1012'
p619
tp620
a(S'MPI_Barrier()'
p621
S'1017'
p622
tp623
a(S'MPI_Barrier()'
p624
S'1022'
p625
tp626
a(S'MPI_Wtime()'
p627
S'1023'
p628
tp629
a(S'MPI_Barrier()'
p630
S'1026'
p631
tp632
a(S'MPI_Wtime()'
p633
S'1027'
p634
tp635
a(S'MPI_Barrier()'
p636
S'1034'
p637
tp638
a(S'MPI_Wtime()'
p639
S'1035'
p640
tp641
a(S'MPI_Barrier()'
p642
S'1037'
p643
tp644
a(S'MPI_Barrier()'
p645
S'1040'
p646
tp647
a(S'MPI_Wtime()'
p648
S'1041'
p649
tp650
a(S'MPI_Barrier()'
p651
S'1046'
p652
tp653
a(S'MPI_Barrier()'
p654
S'1052'
p655
tp656
a(S'MPI_Wtime()'
p657
S'1053'
p658
tp659
a(S'MPI_Barrier()'
p660
S'1056'
p661
tp662
a(S'MPI_Wtime()'
p663
S'1057'
p664
tp665
a(S'MPI_Gather()'
p666
S'1064'
p667
tp668
a(S'MPI_Bcast()'
p669
S'1070'
p670
tp671
a(S'MPI_Allreduce()'
p672
S'1072'
p673
tp674
a(S'MPI_Barrier()'
p675
S'1077'
p676
tp677
a(S'MPI_Wtime()'
p678
S'1078'
p679
tp680
a(S'MPI_Barrier()'
p681
S'1080'
p682
tp683
a(S'MPI_Barrier()'
p684
S'1083'
p685
tp686
a(S'MPI_Wtime()'
p687
S'1084'
p688
tp689
a(S'MPI_Barrier()'
p690
S'1089'
p691
tp692
a(S'MPI_Barrier()'
p693
S'1106'
p694
tp695
a(S'MPI_Wtime()'
p696
S'1107'
p697
tp698
a(S'MPI_Barrier()'
p699
S'1109'
p700
tp701
a(S'MPI_Barrier()'
p702
S'1112'
p703
tp704
a(S'MPI_Wtime()'
p705
S'1113'
p706
tp707
a(S'MPI_Barrier()'
p708
S'1118'
p709
tp710
a(S'MPI_Allgather()'
p711
S'1120'
p712
tp713
a(S'MPI_Barrier()'
p714
S'1163'
p715
tp716
a(S'MPI_Barrier()'
p717
S'1167'
p718
tp719
a(S'MPI_Barrier()'
p720
S'1204'
p721
tp722
a(S'MPI_Barrier()'
p723
S'1208'
p724
tp725
asS'PMedian//select_r2.c'
p726
(lp727
(S'MPI_Gather()'
p728
S'104'
p729
tp730
a(S'MPI_printf()'
p731
S'108'
p732
tp733
a(S'MPI_Barrier()'
p734
S'109'
p735
tp736
a(S'MPI_printf()'
p737
S'110'
p738
tp739
a(S'MPI_printf()'
p740
S'126'
p741
tp742
a(S'MPI_Barrier()'
p743
S'127'
p744
tp745
a(S'MPI_Gatherv()'
p746
S'130'
p747
tp748
a(S'MPI_Gather()'
p749
S'157'
p750
tp751
a(S'MPI_Gatherv()'
p752
S'169'
p753
tp754
a(S'MPI_Bcast()'
p755
S'223'
p756
tp757
a(S'MPI_Bcast()'
p758
S'271'
p759
tp760
a(S'MPI_Allreduce()'
p761
S'282'
p762
tp763
a(S'MPI_Bcast()'
p764
S'325'
p765
tp766
a(S'MPI_Allreduce()'
p767
S'327'
p768
tp769
a(S'MPI_Bcast()'
p770
S'375'
p771
tp772
a(S'MPI_Bcast()'
p773
S'443'
p774
tp775
a(S'MPI_Bcast()'
p776
S'485'
p777
tp778
a(S'MPI_Allreduce()'
p779
S'496'
p780
tp781
a(S'MPI_Bcast()'
p782
S'535'
p783
tp784
a(S'MPI_Allreduce()'
p785
S'537'
p786
tp787
a(S'MPI_Bcast()'
p788
S'561'
p789
tp790
asS'PMedian//select_r5.c'
p791
(lp792
(S'MPI_Gather()'
p793
S'111'
p794
tp795
a(S'MPI_Gatherv()'
p796
S'128'
p797
tp798
a(S'MPI_Bcast()'
p799
S'275'
p800
tp801
a(S'MPI_Allreduce()'
p802
S'286'
p803
tp804
a(S'MPI_Bcast()'
p805
S'330'
p806
tp807
a(S'MPI_Allreduce()'
p808
S'332'
p809
tp810
a(S'MPI_Bcast()'
p811
S'384'
p812
tp813
asS'PMedian//select_par.c'
p814
(lp815
(S'MPI_Type_extent()'
p816
S'286'
p817
tp818
a(S'MPI_Type_extent()'
p819
S'287'
p820
tp821
a(S'MPI_Irecv()'
p822
S'294'
p823
tp824
a(S'MPI_Send()'
p825
S'297'
p826
tp827
a(S'MPI_Waitall()'
p828
S'302'
p829
tp830
a(S'MPI_Alltoall()'
p831
S'331'
p832
tp833
a(S'MPI_Alltoallv()'
p834
S'349'
p835
tp836
a(S'MPI_Alltoall()'
p837
S'384'
p838
tp839
a(S'MPI_Alltoallv()'
p840
S'402'
p841
tp842
a(S'MPI_Gather()'
p843
S'431'
p844
tp845
a(S'MPI_Gatherv()'
p846
S'452'
p847
tp848
a(S'MPI_Gather()'
p849
S'482'
p850
tp851
a(S'MPI_Gatherv()'
p852
S'503'
p853
tp854
a(S'MPI_Gather()'
p855
S'533'
p856
tp857
a(S'MPI_Gatherv()'
p858
S'554'
p859
tp860
a(S'MPI_Gather()'
p861
S'584'
p862
tp863
a(S'MPI_Gatherv()'
p864
S'605'
p865
tp866
a(S'MPI_Gather()'
p867
S'634'
p868
tp869
a(S'MPI_Gatherv()'
p870
S'649'
p871
tp872
a(S'MPI_Gather()'
p873
S'674'
p874
tp875
a(S'MPI_Gatherv()'
p876
S'689'
p877
tp878
a(S'MPI_Reduce()'
p879
S'759'
p880
tp881
a(S'MPI_Gather()'
p882
S'765'
p883
tp884
a(S'MPI_Reduce()'
p885
S'801'
p886
tp887
a(S'MPI_Allgather()'
p888
S'808'
p889
tp890
a(S'MPI_Gather()'
p891
S'818'
p892
tp893
a(S'MPI_Gatherv()'
p894
S'841'
p895
tp896
a(S'MPI_Reduce()'
p897
S'882'
p898
tp899
a(S'MPI_Gather()'
p900
S'888'
p901
tp902
a(S'MPI_Reduce()'
p903
S'927'
p904
tp905
a(S'MPI_Allgather()'
p906
S'934'
p907
tp908
a(S'MPI_fprintf()'
p909
S'944'
p910
tp911
a(S'MPI_Gather()'
p912
S'947'
p913
tp914
a(S'MPI_fprintf()'
p915
S'962'
p916
tp917
a(S'MPI_Gatherv()'
p918
S'979'
p919
tp920
a(S'MPI_Reduce()'
p921
S'1025'
p922
tp923
a(S'MPI_Gather()'
p924
S'1031'
p925
tp926
a(S'MPI_Reduce()'
p927
S'1067'
p928
tp929
a(S'MPI_Allgather()'
p930
S'1074'
p931
tp932
a(S'MPI_Gather()'
p933
S'1084'
p934
tp935
a(S'MPI_Gatherv()'
p936
S'1107'
p937
tp938
a(S'MPI_Reduce()'
p939
S'1148'
p940
tp941
a(S'MPI_Gather()'
p942
S'1154'
p943
tp944
a(S'MPI_Reduce()'
p945
S'1193'
p946
tp947
a(S'MPI_Allgather()'
p948
S'1200'
p949
tp950
a(S'MPI_Gather()'
p951
S'1210'
p952
tp953
a(S'MPI_Gatherv()'
p954
S'1235'
p955
tp956
asS'PMedian//sort-psrs.c'
p957
(lp958
(S'MPI_fprintf()'
p959
S'16'
p960
tp961
a(S'MPI_Barrier()'
p962
S'112'
p963
tp964
a(S'MPI_fprintf()'
p965
S'114'
p966
tp967
a(S'MPI_Barrier()'
p968
S'116'
p969
tp970
a(S'MPI_Gather()'
p971
S'124'
p972
tp973
a(S'MPI_Barrier()'
p974
S'130'
p975
tp976
a(S'MPI_Barrier()'
p977
S'135'
p978
tp979
a(S'MPI_Barrier()'
p980
S'140'
p981
tp982
a(S'MPI_Barrier()'
p983
S'145'
p984
tp985
a(S'MPI_Bcast()'
p986
S'157'
p987
tp988
a(S'MPI_Barrier()'
p989
S'160'
p990
tp991
a(S'MPI_fprintf()'
p992
S'164'
p993
tp994
a(S'MPI_Barrier()'
p995
S'165'
p996
tp997
a(S'MPI_Barrier()'
p998
S'177'
p999
tp1000
a(S'MPI_fprintf()'
p1001
S'179'
p1002
tp1003
a(S'MPI_Barrier()'
p1004
S'180'
p1005
tp1006
a(S'MPI_Barrier()'
p1007
S'208'
p1008
tp1009
a(S'MPI_fprintf()'
p1010
S'210'
p1011
tp1012
a(S'MPI_Barrier()'
p1013
S'211'
p1014
tp1015
a(S'MPI_Alltoall()'
p1016
S'214'
p1017
tp1018
a(S'MPI_Barrier()'
p1019
S'220'
p1020
tp1021
a(S'MPI_fprintf()'
p1022
S'222'
p1023
tp1024
a(S'MPI_Barrier()'
p1025
S'223'
p1026
tp1027
a(S'MPI_Alltoallv()'
p1028
S'249'
p1029
tp1030
a(S'MPI_Barrier()'
p1031
S'268'
p1032
tp1033
asS'PMedian//select_b_nas.c'
p1034
(lp1035
(S'MPI_Barrier()'
p1036
S'90'
p1037
tp1038
a(S'MPI_Barrier()'
p1039
S'92'
p1040
tp1041
a(S'MPI_Barrier()'
p1042
S'98'
p1043
tp1044
a(S'MPI_Barrier()'
p1045
S'103'
p1046
tp1047
a(S'MPI_Wtime()'
p1048
S'104'
p1049
tp1050
a(S'MPI_Barrier()'
p1051
S'110'
p1052
tp1053
a(S'MPI_Wtime()'
p1054
S'111'
p1055
tp1056
a(S'MPI_Barrier()'
p1057
S'116'
p1058
tp1059
a(S'MPI_Bcast()'
p1060
S'118'
p1061
tp1062
a(S'MPI_Barrier()'
p1063
S'123'
p1064
tp1065
a(S'MPI_Wtime()'
p1066
S'124'
p1067
tp1068
a(S'MPI_Barrier()'
p1069
S'128'
p1070
tp1071
a(S'MPI_Wtime()'
p1072
S'129'
p1073
tp1074
a(S'MPI_Barrier()'
p1075
S'134'
p1076
tp1077
a(S'MPI_Barrier()'
p1078
S'138'
p1079
tp1080
a(S'MPI_Wtime()'
p1081
S'139'
p1082
tp1083
a(S'MPI_Gather()'
p1084
S'145'
p1085
tp1086
a(S'MPI_Bcast()'
p1087
S'151'
p1088
tp1089
a(S'MPI_Allreduce()'
p1090
S'154'
p1091
tp1092
a(S'MPI_Barrier()'
p1093
S'173'
p1094
tp1095
a(S'MPI_Wtime()'
p1096
S'174'
p1097
tp1098
a(S'MPI_Barrier()'
p1099
S'179'
p1100
tp1101
a(S'MPI_Allgather()'
p1102
S'181'
p1103
tp1104
a(S'MPI_Barrier()'
p1105
S'203'
p1106
tp1107
a(S'MPI_Barrier()'
p1108
S'208'
p1109
tp1110
asS'PMedian//select_fr.c'
p1111
(lp1112
(S'MPI_Gather()'
p1113
S'85'
p1114
tp1115
a(S'MPI_Gatherv()'
p1116
S'107'
p1117
tp1118
a(S'MPI_Barrier()'
p1119
S'234'
p1120
tp1121
a(S'MPI_Barrier()'
p1122
S'238'
p1123
tp1124
a(S'MPI_Barrier()'
p1125
S'243'
p1126
tp1127
a(S'MPI_fprintf()'
p1128
S'251'
p1129
tp1130
a(S'MPI_Barrier()'
p1131
S'253'
p1132
tp1133
a(S'MPI_Barrier()'
p1134
S'263'
p1135
tp1136
a(S'MPI_fprintf()'
p1137
S'265'
p1138
tp1139
a(S'MPI_Barrier()'
p1140
S'267'
p1141
tp1142
a(S'MPI_Barrier()'
p1143
S'279'
p1144
tp1145
a(S'MPI_Barrier()'
p1146
S'283'
p1147
tp1148
a(S'MPI_Barrier()'
p1149
S'301'
p1150
tp1151
a(S'MPI_Barrier()'
p1152
S'305'
p1153
tp1154
a(S'MPI_Allreduce()'
p1155
S'310'
p1156
tp1157
a(S'MPI_Scan()'
p1158
S'318'
p1159
tp1160
a(S'MPI_Barrier()'
p1161
S'331'
p1162
tp1163
a(S'MPI_fprintf()'
p1164
S'332'
p1165
tp1166
a(S'MPI_fprintf()'
p1167
S'333'
p1168
tp1169
a(S'MPI_Barrier()'
p1170
S'335'
p1171
tp1172
a(S'MPI_Barrier()'
p1173
S'363'
p1174
tp1175
a(S'MPI_Barrier()'
p1176
S'367'
p1177
tp1178
a(S'MPI_Allreduce()'
p1179
S'375'
p1180
tp1181
a(S'MPI_Bcast()'
p1182
S'377'
p1183
tp1184
a(S'MPI_Barrier()'
p1185
S'381'
p1186
tp1187
a(S'MPI_fprintf()'
p1188
S'383'
p1189
tp1190
a(S'MPI_Barrier()'
p1191
S'385'
p1192
tp1193
a(S'MPI_Barrier()'
p1194
S'393'
p1195
tp1196
a(S'MPI_fprintf()'
p1197
S'395'
p1198
tp1199
a(S'MPI_Barrier()'
p1200
S'418'
p1201
tp1202
a(S'MPI_Allreduce()'
p1203
S'423'
p1204
tp1205
a(S'MPI_Barrier()'
p1206
S'428'
p1207
tp1208
a(S'MPI_Barrier()'
p1209
S'434'
p1210
tp1211
a(S'MPI_Barrier()'
p1212
S'437'
p1213
tp1214
a(S'MPI_Barrier()'
p1215
S'441'
p1216
tp1217
a(S'MPI_Barrier()'
p1218
S'444'
p1219
tp1220
a(S'MPI_Barrier()'
p1221
S'448'
p1222
tp1223
a(S'MPI_Barrier()'
p1224
S'462'
p1225
tp1226
a(S'MPI_Barrier()'
p1227
S'465'
p1228
tp1229
a(S'MPI_Barrier()'
p1230
S'477'
p1231
tp1232
a(S'MPI_Barrier()'
p1233
S'480'
p1234
tp1235
a(S'MPI_Barrier()'
p1236
S'492'
p1237
tp1238
a(S'MPI_Barrier()'
p1239
S'495'
p1240
tp1241
a(S'MPI_Barrier()'
p1242
S'500'
p1243
tp1244
a(S'MPI_Barrier()'
p1245
S'503'
p1246
tp1247
a(S'MPI_Barrier()'
p1248
S'514'
p1249
tp1250
a(S'MPI_Barrier()'
p1251
S'518'
p1252
tp1253
a(S'MPI_Bcast()'
p1254
S'522'
p1255
tp1256
a(S'MPI_Barrier()'
p1257
S'525'
p1258
tp1259
a(S'MPI_Barrier()'
p1260
S'529'
p1261
tp1262
asS'PMedian//select_r.c'
p1263
(lp1264
(S'MPI_Barrier()'
p1265
S'95'
p1266
tp1267
a(S'MPI_Barrier()'
p1268
S'101'
p1269
tp1270
a(S'MPI_Barrier()'
p1271
S'118'
p1272
tp1273
a(S'MPI_Wtime()'
p1274
S'119'
p1275
tp1276
a(S'MPI_Barrier()'
p1277
S'122'
p1278
tp1279
a(S'MPI_Wtime()'
p1280
S'123'
p1281
tp1282
a(S'MPI_Barrier()'
p1283
S'129'
p1284
tp1285
a(S'MPI_Wtime()'
p1286
S'130'
p1287
tp1288
a(S'MPI_Barrier()'
p1289
S'132'
p1290
tp1291
a(S'MPI_Barrier()'
p1292
S'135'
p1293
tp1294
a(S'MPI_Wtime()'
p1295
S'136'
p1296
tp1297
a(S'MPI_Barrier()'
p1298
S'141'
p1299
tp1300
a(S'MPI_Bcast()'
p1301
S'143'
p1302
tp1303
a(S'MPI_Barrier()'
p1304
S'148'
p1305
tp1306
a(S'MPI_Wtime()'
p1307
S'149'
p1308
tp1309
a(S'MPI_Barrier()'
p1310
S'152'
p1311
tp1312
a(S'MPI_Wtime()'
p1313
S'153'
p1314
tp1315
a(S'MPI_Barrier()'
p1316
S'159'
p1317
tp1318
a(S'MPI_Wtime()'
p1319
S'160'
p1320
tp1321
a(S'MPI_Barrier()'
p1322
S'162'
p1323
tp1324
a(S'MPI_Barrier()'
p1325
S'165'
p1326
tp1327
a(S'MPI_Wtime()'
p1328
S'166'
p1329
tp1330
a(S'MPI_Barrier()'
p1331
S'171'
p1332
tp1333
a(S'MPI_Barrier()'
p1334
S'175'
p1335
tp1336
a(S'MPI_Wtime()'
p1337
S'176'
p1338
tp1339
a(S'MPI_Barrier()'
p1340
S'179'
p1341
tp1342
a(S'MPI_Wtime()'
p1343
S'180'
p1344
tp1345
a(S'MPI_Barrier()'
p1346
S'186'
p1347
tp1348
a(S'MPI_Wtime()'
p1349
S'187'
p1350
tp1351
a(S'MPI_Barrier()'
p1352
S'189'
p1353
tp1354
a(S'MPI_Barrier()'
p1355
S'192'
p1356
tp1357
a(S'MPI_Wtime()'
p1358
S'193'
p1359
tp1360
a(S'MPI_Barrier()'
p1361
S'198'
p1362
tp1363
a(S'MPI_Barrier()'
p1364
S'202'
p1365
tp1366
a(S'MPI_Wtime()'
p1367
S'203'
p1368
tp1369
a(S'MPI_Barrier()'
p1370
S'206'
p1371
tp1372
a(S'MPI_Wtime()'
p1373
S'207'
p1374
tp1375
a(S'MPI_Bcast()'
p1376
S'212'
p1377
tp1378
a(S'MPI_Allreduce()'
p1379
S'214'
p1380
tp1381
a(S'MPI_Barrier()'
p1382
S'219'
p1383
tp1384
a(S'MPI_Wtime()'
p1385
S'220'
p1386
tp1387
a(S'MPI_Barrier()'
p1388
S'222'
p1389
tp1390
a(S'MPI_Barrier()'
p1391
S'225'
p1392
tp1393
a(S'MPI_Wtime()'
p1394
S'226'
p1395
tp1396
a(S'MPI_Barrier()'
p1397
S'231'
p1398
tp1399
a(S'MPI_Allgather()'
p1400
S'238'
p1401
tp1402
a(S'MPI_Allgather()'
p1403
S'251'
p1404
tp1405
a(S'MPI_Barrier()'
p1406
S'261'
p1407
tp1408
a(S'MPI_Wtime()'
p1409
S'262'
p1410
tp1411
a(S'MPI_Barrier()'
p1412
S'264'
p1413
tp1414
a(S'MPI_Barrier()'
p1415
S'267'
p1416
tp1417
a(S'MPI_Wtime()'
p1418
S'268'
p1419
tp1420
a(S'MPI_Barrier()'
p1421
S'273'
p1422
tp1423
a(S'MPI_Barrier()'
p1424
S'321'
p1425
tp1426
a(S'MPI_Barrier()'
p1427
S'327'
p1428
tp1429
a(S'MPI_Barrier()'
p1430
S'344'
p1431
tp1432
a(S'MPI_Wtime()'
p1433
S'345'
p1434
tp1435
a(S'MPI_Barrier()'
p1436
S'348'
p1437
tp1438
a(S'MPI_Wtime()'
p1439
S'349'
p1440
tp1441
a(S'MPI_Barrier()'
p1442
S'355'
p1443
tp1444
a(S'MPI_Wtime()'
p1445
S'356'
p1446
tp1447
a(S'MPI_Barrier()'
p1448
S'358'
p1449
tp1450
a(S'MPI_Barrier()'
p1451
S'361'
p1452
tp1453
a(S'MPI_Wtime()'
p1454
S'362'
p1455
tp1456
a(S'MPI_Barrier()'
p1457
S'367'
p1458
tp1459
a(S'MPI_Bcast()'
p1460
S'369'
p1461
tp1462
a(S'MPI_Barrier()'
p1463
S'374'
p1464
tp1465
a(S'MPI_Wtime()'
p1466
S'375'
p1467
tp1468
a(S'MPI_Barrier()'
p1469
S'378'
p1470
tp1471
a(S'MPI_Wtime()'
p1472
S'379'
p1473
tp1474
a(S'MPI_Barrier()'
p1475
S'385'
p1476
tp1477
a(S'MPI_Wtime()'
p1478
S'386'
p1479
tp1480
a(S'MPI_Barrier()'
p1481
S'388'
p1482
tp1483
a(S'MPI_Barrier()'
p1484
S'391'
p1485
tp1486
a(S'MPI_Wtime()'
p1487
S'392'
p1488
tp1489
a(S'MPI_Barrier()'
p1490
S'397'
p1491
tp1492
a(S'MPI_Barrier()'
p1493
S'401'
p1494
tp1495
a(S'MPI_Wtime()'
p1496
S'402'
p1497
tp1498
a(S'MPI_Barrier()'
p1499
S'405'
p1500
tp1501
a(S'MPI_Wtime()'
p1502
S'406'
p1503
tp1504
a(S'MPI_Barrier()'
p1505
S'412'
p1506
tp1507
a(S'MPI_Wtime()'
p1508
S'413'
p1509
tp1510
a(S'MPI_Barrier()'
p1511
S'415'
p1512
tp1513
a(S'MPI_Barrier()'
p1514
S'418'
p1515
tp1516
a(S'MPI_Wtime()'
p1517
S'419'
p1518
tp1519
a(S'MPI_Barrier()'
p1520
S'424'
p1521
tp1522
a(S'MPI_Barrier()'
p1523
S'428'
p1524
tp1525
a(S'MPI_Wtime()'
p1526
S'429'
p1527
tp1528
a(S'MPI_Barrier()'
p1529
S'432'
p1530
tp1531
a(S'MPI_Wtime()'
p1532
S'433'
p1533
tp1534
a(S'MPI_Bcast()'
p1535
S'438'
p1536
tp1537
a(S'MPI_Allreduce()'
p1538
S'440'
p1539
tp1540
a(S'MPI_Barrier()'
p1541
S'445'
p1542
tp1543
a(S'MPI_Wtime()'
p1544
S'446'
p1545
tp1546
a(S'MPI_Barrier()'
p1547
S'448'
p1548
tp1549
a(S'MPI_Barrier()'
p1550
S'451'
p1551
tp1552
a(S'MPI_Wtime()'
p1553
S'452'
p1554
tp1555
a(S'MPI_Barrier()'
p1556
S'457'
p1557
tp1558
a(S'MPI_Allgather()'
p1559
S'464'
p1560
tp1561
a(S'MPI_Allgather()'
p1562
S'477'
p1563
tp1564
a(S'MPI_Barrier()'
p1565
S'487'
p1566
tp1567
a(S'MPI_Wtime()'
p1568
S'488'
p1569
tp1570
a(S'MPI_Barrier()'
p1571
S'490'
p1572
tp1573
a(S'MPI_Barrier()'
p1574
S'493'
p1575
tp1576
a(S'MPI_Wtime()'
p1577
S'494'
p1578
tp1579
a(S'MPI_Barrier()'
p1580
S'499'
p1581
tp1582
a(S'MPI_Barrier()'
p1583
S'549'
p1584
tp1585
a(S'MPI_Barrier()'
p1586
S'553'
p1587
tp1588
a(S'MPI_Barrier()'
p1589
S'586'
p1590
tp1591
a(S'MPI_Barrier()'
p1592
S'590'
p1593
tp1594
asS'PMedian//main.c'
p1595
(lp1596
(S'MPI_Init()'
p1597
S'11'
p1598
tp1599
a(S'MPI_Comm_size()'
p1600
S'12'
p1601
tp1602
a(S'MPI_Comm_rank()'
p1603
S'13'
p1604
tp1605
a(S'MPI_Barrier()'
p1606
S'28'
p1607
tp1608
a(S'MPI_Barrier()'
p1609
S'34'
p1610
tp1611
a(S'MPI_Finalize()'
p1612
S'35'
p1613
tp1614
asS'PMedian//select_a.c'
p1615
(lp1616
(S'MPI_Barrier()'
p1617
S'97'
p1618
tp1619
a(S'MPI_Barrier()'
p1620
S'103'
p1621
tp1622
a(S'MPI_Barrier()'
p1623
S'176'
p1624
tp1625
a(S'MPI_Barrier()'
p1626
S'178'
p1627
tp1628
a(S'MPI_Barrier()'
p1629
S'192'
p1630
tp1631
a(S'MPI_Barrier()'
p1632
S'194'
p1633
tp1634
a(S'MPI_Alltoallv()'
p1635
S'198'
p1636
tp1637
a(S'MPI_Allgather()'
p1638
S'200'
p1639
tp1640
a(S'MPI_Barrier()'
p1641
S'203'
p1642
tp1643
a(S'MPI_Barrier()'
p1644
S'210'
p1645
tp1646
a(S'MPI_Recv()'
p1647
S'232'
p1648
tp1649
a(S'X_MPI_COMM_WORLD()'
p1650
S'233'
p1651
tp1652
a(S'MPI_Send()'
p1653
S'244'
p1654
tp1655
a(S'MPI_Recv()'
p1656
S'267'
p1657
tp1658
a(S'X_MPI_COMM_WORLD()'
p1659
S'268'
p1660
tp1661
a(S'MPI_Send()'
p1662
S'279'
p1663
tp1664
a(S'MPI_Recv()'
p1665
S'303'
p1666
tp1667
a(S'X_MPI_COMM_WORLD()'
p1668
S'304'
p1669
tp1670
a(S'MPI_Send()'
p1671
S'315'
p1672
tp1673
a(S'MPI_Recv()'
p1674
S'339'
p1675
tp1676
a(S'X_MPI_COMM_WORLD()'
p1677
S'340'
p1678
tp1679
a(S'MPI_Send()'
p1680
S'351'
p1681
tp1682
a(S'MPI_Barrier()'
p1683
S'378'
p1684
tp1685
a(S'MPI_Barrier()'
p1686
S'384'
p1687
tp1688
a(S'MPI_Barrier()'
p1689
S'389'
p1690
tp1691
a(S'MPI_Wtime()'
p1692
S'390'
p1693
tp1694
a(S'MPI_Barrier()'
p1695
S'396'
p1696
tp1697
a(S'MPI_Wtime()'
p1698
S'397'
p1699
tp1700
a(S'MPI_Barrier()'
p1701
S'402'
p1702
tp1703
a(S'MPI_Bcast()'
p1704
S'404'
p1705
tp1706
a(S'MPI_Barrier()'
p1707
S'409'
p1708
tp1709
a(S'MPI_Wtime()'
p1710
S'410'
p1711
tp1712
a(S'MPI_Barrier()'
p1713
S'414'
p1714
tp1715
a(S'MPI_Wtime()'
p1716
S'415'
p1717
tp1718
a(S'MPI_Barrier()'
p1719
S'420'
p1720
tp1721
a(S'MPI_Barrier()'
p1722
S'424'
p1723
tp1724
a(S'MPI_Wtime()'
p1725
S'425'
p1726
tp1727
a(S'MPI_Gather()'
p1728
S'430'
p1729
tp1730
a(S'MPI_Bcast()'
p1731
S'436'
p1732
tp1733
a(S'MPI_Barrier()'
p1734
S'439'
p1735
tp1736
a(S'MPI_Barrier()'
p1737
S'441'
p1738
tp1739
a(S'MPI_Barrier()'
p1740
S'446'
p1741
tp1742
a(S'MPI_Allreduce()'
p1743
S'450'
p1744
tp1745
a(S'MPI_Barrier()'
p1746
S'469'
p1747
tp1748
a(S'MPI_Wtime()'
p1749
S'470'
p1750
tp1751
a(S'MPI_Barrier()'
p1752
S'475'
p1753
tp1754
a(S'MPI_Allgather()'
p1755
S'477'
p1756
tp1757
a(S'MPI_Barrier()'
p1758
S'537'
p1759
tp1760
a(S'MPI_Recv()'
p1761
S'555'
p1762
tp1763
a(S'X_MPI_COMM_WORLD()'
p1764
S'556'
p1765
tp1766
a(S'MPI_Send()'
p1767
S'565'
p1768
tp1769
a(S'MPI_Barrier()'
p1770
S'568'
p1771
tp1772
asS'PMedian//select_r4.c'
p1773
(lp1774
(S'MPI_Gather()'
p1775
S'108'
p1776
tp1777
a(S'MPI_Gatherv()'
p1778
S'125'
p1779
tp1780
a(S'MPI_Bcast()'
p1781
S'268'
p1782
tp1783
a(S'MPI_Allreduce()'
p1784
S'279'
p1785
tp1786
a(S'MPI_Bcast()'
p1787
S'323'
p1788
tp1789
a(S'MPI_Allreduce()'
p1790
S'325'
p1791
tp1792
a(S'MPI_Bcast()'
p1793
S'375'
p1794
tp1795
asS'PMedian//select_ft.c'
p1796
(lp1797
(S'MPI_Barrier()'
p1798
S'125'
p1799
tp1800
a(S'MPI_Barrier()'
p1801
S'129'
p1802
tp1803
a(S'MPI_Barrier()'
p1804
S'134'
p1805
tp1806
a(S'MPI_fprintf()'
p1807
S'142'
p1808
tp1809
a(S'MPI_Barrier()'
p1810
S'144'
p1811
tp1812
a(S'MPI_Barrier()'
p1813
S'154'
p1814
tp1815
a(S'MPI_fprintf()'
p1816
S'156'
p1817
tp1818
a(S'MPI_Barrier()'
p1819
S'158'
p1820
tp1821
a(S'MPI_Barrier()'
p1822
S'170'
p1823
tp1824
a(S'MPI_Barrier()'
p1825
S'174'
p1826
tp1827
a(S'MPI_Barrier()'
p1828
S'192'
p1829
tp1830
a(S'MPI_Barrier()'
p1831
S'196'
p1832
tp1833
a(S'MPI_Allreduce()'
p1834
S'201'
p1835
tp1836
a(S'MPI_Scan()'
p1837
S'209'
p1838
tp1839
a(S'MPI_Barrier()'
p1840
S'222'
p1841
tp1842
a(S'MPI_fprintf()'
p1843
S'223'
p1844
tp1845
a(S'MPI_fprintf()'
p1846
S'224'
p1847
tp1848
a(S'MPI_Barrier()'
p1849
S'226'
p1850
tp1851
a(S'MPI_Barrier()'
p1852
S'254'
p1853
tp1854
a(S'MPI_Barrier()'
p1855
S'258'
p1856
tp1857
a(S'MPI_Allreduce()'
p1858
S'266'
p1859
tp1860
a(S'MPI_Bcast()'
p1861
S'268'
p1862
tp1863
a(S'MPI_Barrier()'
p1864
S'272'
p1865
tp1866
a(S'MPI_fprintf()'
p1867
S'274'
p1868
tp1869
a(S'MPI_Barrier()'
p1870
S'276'
p1871
tp1872
a(S'MPI_Barrier()'
p1873
S'284'
p1874
tp1875
a(S'MPI_fprintf()'
p1876
S'286'
p1877
tp1878
a(S'MPI_Barrier()'
p1879
S'309'
p1880
tp1881
a(S'MPI_Allreduce()'
p1882
S'314'
p1883
tp1884
a(S'MPI_Barrier()'
p1885
S'319'
p1886
tp1887
a(S'MPI_Barrier()'
p1888
S'325'
p1889
tp1890
a(S'MPI_Barrier()'
p1891
S'328'
p1892
tp1893
a(S'MPI_Barrier()'
p1894
S'332'
p1895
tp1896
a(S'MPI_Barrier()'
p1897
S'335'
p1898
tp1899
a(S'MPI_Barrier()'
p1900
S'339'
p1901
tp1902
a(S'MPI_Barrier()'
p1903
S'353'
p1904
tp1905
a(S'MPI_Barrier()'
p1906
S'356'
p1907
tp1908
a(S'MPI_Barrier()'
p1909
S'368'
p1910
tp1911
a(S'MPI_Barrier()'
p1912
S'371'
p1913
tp1914
a(S'MPI_Barrier()'
p1915
S'383'
p1916
tp1917
a(S'MPI_Barrier()'
p1918
S'386'
p1919
tp1920
a(S'MPI_Barrier()'
p1921
S'391'
p1922
tp1923
a(S'MPI_Barrier()'
p1924
S'394'
p1925
tp1926
a(S'MPI_Barrier()'
p1927
S'405'
p1928
tp1929
a(S'MPI_Barrier()'
p1930
S'409'
p1931
tp1932
a(S'MPI_Bcast()'
p1933
S'413'
p1934
tp1935
a(S'MPI_Barrier()'
p1936
S'416'
p1937
tp1938
a(S'MPI_Barrier()'
p1939
S'420'
p1940
tp1941
asS'PMedian//test_select.c'
p1942
(lp1943
(S'MPI_Barrier()'
p1944
S'112'
p1945
tp1946
a(S'MPI_Barrier()'
p1947
S'123'
p1948
tp1949
a(S'MPI_Wtime()'
p1950
S'124'
p1951
tp1952
a(S'MPI_Barrier()'
p1953
S'137'
p1954
tp1955
a(S'MPI_Wtime()'
p1956
S'138'
p1957
tp1958
a(S'MPI_Barrier()'
p1959
S'167'
p1960
tp1961
a(S'MPI_Barrier()'
p1962
S'187'
p1963
tp1964
a(S'MPI_Wtime()'
p1965
S'188'
p1966
tp1967
a(S'MPI_Barrier()'
p1968
S'199'
p1969
tp1970
a(S'MPI_Wtime()'
p1971
S'200'
p1972
tp1973
a(S'MPI_Barrier()'
p1974
S'228'
p1975
tp1976
a(S'MPI_Barrier()'
p1977
S'250'
p1978
tp1979
a(S'MPI_Barrier()'
p1980
S'253'
p1981
tp1982
a(S'MPI_Wtime()'
p1983
S'254'
p1984
tp1985
a(S'MPI_Barrier()'
p1986
S'258'
p1987
tp1988
a(S'MPI_Wtime()'
p1989
S'259'
p1990
tp1991
a(S'MPI_Barrier()'
p1992
S'264'
p1993
tp1994
a(S'MPI_Barrier()'
p1995
S'271'
p1996
tp1997
a(S'MPI_Barrier()'
p1998
S'523'
p1999
tp2000
a(S'MPI_Barrier()'
p2001
S'526'
p2002
tp2003
a(S'MPI_Barrier()'
p2004
S'559'
p2005
tp2006
a(S'MPI_Barrier()'
p2007
S'572'
p2008
tp2009
a(S'MPI_Barrier()'
p2010
S'575'
p2011
tp2012
a(S'MPI_Wtime()'
p2013
S'576'
p2014
tp2015
a(S'MPI_Barrier()'
p2016
S'580'
p2017
tp2018
a(S'MPI_Wtime()'
p2019
S'581'
p2020
tp2021
a(S'MPI_Barrier()'
p2022
S'591'
p2023
tp2024
a(S'MPI_Barrier()'
p2025
S'594'
p2026
tp2027
a(S'MPI_Wtime()'
p2028
S'595'
p2029
tp2030
a(S'MPI_Barrier()'
p2031
S'599'
p2032
tp2033
a(S'MPI_Wtime()'
p2034
S'600'
p2035
tp2036
a(S'MPI_Barrier()'
p2037
S'610'
p2038
tp2039
a(S'MPI_Barrier()'
p2040
S'613'
p2041
tp2042
a(S'MPI_Wtime()'
p2043
S'614'
p2044
tp2045
a(S'MPI_Barrier()'
p2046
S'618'
p2047
tp2048
a(S'MPI_Wtime()'
p2049
S'619'
p2050
tp2051
a(S'MPI_Barrier()'
p2052
S'629'
p2053
tp2054
a(S'MPI_Barrier()'
p2055
S'632'
p2056
tp2057
a(S'MPI_Wtime()'
p2058
S'633'
p2059
tp2060
a(S'MPI_Barrier()'
p2061
S'637'
p2062
tp2063
a(S'MPI_Wtime()'
p2064
S'638'
p2065
tp2066
a(S'MPI_Barrier()'
p2067
S'648'
p2068
tp2069
a(S'MPI_Barrier()'
p2070
S'651'
p2071
tp2072
a(S'MPI_Wtime()'
p2073
S'652'
p2074
tp2075
a(S'MPI_Barrier()'
p2076
S'656'
p2077
tp2078
a(S'MPI_Wtime()'
p2079
S'657'
p2080
tp2081
a(S'MPI_Barrier()'
p2082
S'667'
p2083
tp2084
a(S'MPI_Barrier()'
p2085
S'670'
p2086
tp2087
a(S'MPI_Wtime()'
p2088
S'671'
p2089
tp2090
a(S'MPI_Barrier()'
p2091
S'675'
p2092
tp2093
a(S'MPI_Wtime()'
p2094
S'676'
p2095
tp2096
a(S'MPI_Barrier()'
p2097
S'686'
p2098
tp2099
a(S'MPI_Barrier()'
p2100
S'689'
p2101
tp2102
a(S'MPI_Wtime()'
p2103
S'690'
p2104
tp2105
a(S'MPI_Barrier()'
p2106
S'694'
p2107
tp2108
a(S'MPI_Wtime()'
p2109
S'695'
p2110
tp2111
a(S'MPI_Barrier()'
p2112
S'705'
p2113
tp2114
a(S'MPI_Barrier()'
p2115
S'708'
p2116
tp2117
a(S'MPI_Wtime()'
p2118
S'709'
p2119
tp2120
a(S'MPI_Barrier()'
p2121
S'713'
p2122
tp2123
a(S'MPI_Wtime()'
p2124
S'714'
p2125
tp2126
a(S'MPI_Barrier()'
p2127
S'724'
p2128
tp2129
a(S'MPI_Barrier()'
p2130
S'727'
p2131
tp2132
a(S'MPI_Wtime()'
p2133
S'728'
p2134
tp2135
a(S'MPI_Barrier()'
p2136
S'732'
p2137
tp2138
a(S'MPI_Wtime()'
p2139
S'733'
p2140
tp2141
a(S'MPI_Barrier()'
p2142
S'743'
p2143
tp2144
a(S'MPI_Barrier()'
p2145
S'746'
p2146
tp2147
a(S'MPI_Wtime()'
p2148
S'747'
p2149
tp2150
a(S'MPI_Barrier()'
p2151
S'751'
p2152
tp2153
a(S'MPI_Wtime()'
p2154
S'752'
p2155
tp2156
a(S'MPI_Barrier()'
p2157
S'763'
p2158
tp2159
a(S'MPI_Barrier()'
p2160
S'769'
p2161
tp2162
asS'PMedian//main.h'
p2163
(lp2164
(S'MPI_Barrier()'
p2165
S'110'
p2166
tp2167
a(S'MPI_Barrier()'
p2168
S'115'
p2169
tp2170
a(S'MPI_Barrier()'
p2171
S'124'
p2172
tp2173
asS'PMedian//select_r3.c'
p2174
(lp2175
(S'MPI_Gather()'
p2176
S'107'
p2177
tp2178
a(S'MPI_Gatherv()'
p2179
S'124'
p2180
tp2181
a(S'MPI_Bcast()'
p2182
S'267'
p2183
tp2184
a(S'MPI_Allreduce()'
p2185
S'278'
p2186
tp2187
a(S'MPI_Bcast()'
p2188
S'322'
p2189
tp2190
a(S'MPI_Allreduce()'
p2191
S'324'
p2192
tp2193
a(S'MPI_Bcast()'
p2194
S'374'
p2195
tp2196
asS'PMedian//mpi-printf.c'
p2197
(lp2198
(S'MPI_Comm_rank()'
p2199
S'20'
p2200
tp2201
a(S'MPI_Comm_size()'
p2202
S'21'
p2203
tp2204
a(S'MPI_Recv()'
p2205
S'26'
p2206
tp2207
a(S'MPI_Send()'
p2208
S'32'
p2209
tp2210
a(S'MPI_fprintf()'
p2211
S'47'
p2212
tp2213
a(S'MPI_Comm_rank()'
p2214
S'67'
p2215
tp2216
a(S'MPI_Comm_size()'
p2217
S'68'
p2218
tp2219
a(S'MPI_Recv()'
p2220
S'73'
p2221
tp2222
a(S'MPI_Send()'
p2223
S'79'
p2224
tp2225
asS'PMedian//select_b.c'
p2226
(lp2227
(S'MPI_Barrier()'
p2228
S'101'
p2229
tp2230
a(S'MPI_Barrier()'
p2231
S'107'
p2232
tp2233
a(S'MPI_Barrier()'
p2234
S'211'
p2235
tp2236
a(S'MPI_Barrier()'
p2237
S'213'
p2238
tp2239
a(S'MPI_Barrier()'
p2240
S'227'
p2241
tp2242
a(S'MPI_Barrier()'
p2243
S'229'
p2244
tp2245
a(S'MPI_Alltoallv()'
p2246
S'233'
p2247
tp2248
a(S'MPI_Barrier()'
p2249
S'257'
p2250
tp2251
a(S'MPI_Barrier()'
p2252
S'263'
p2253
tp2254
a(S'MPI_Alltoallv()'
p2255
S'366'
p2256
tp2257
a(S'MPI_Barrier()'
p2258
S'395'
p2259
tp2260
a(S'MPI_Barrier()'
p2261
S'401'
p2262
tp2263
a(S'MPI_Barrier()'
p2264
S'406'
p2265
tp2266
a(S'MPI_Wtime()'
p2267
S'407'
p2268
tp2269
a(S'MPI_Barrier()'
p2270
S'413'
p2271
tp2272
a(S'MPI_Wtime()'
p2273
S'414'
p2274
tp2275
a(S'MPI_Barrier()'
p2276
S'419'
p2277
tp2278
a(S'MPI_Bcast()'
p2279
S'421'
p2280
tp2281
a(S'MPI_Barrier()'
p2282
S'426'
p2283
tp2284
a(S'MPI_Wtime()'
p2285
S'427'
p2286
tp2287
a(S'MPI_Barrier()'
p2288
S'431'
p2289
tp2290
a(S'MPI_Wtime()'
p2291
S'432'
p2292
tp2293
a(S'MPI_Barrier()'
p2294
S'437'
p2295
tp2296
a(S'MPI_Barrier()'
p2297
S'441'
p2298
tp2299
a(S'MPI_Wtime()'
p2300
S'442'
p2301
tp2302
a(S'MPI_Gather()'
p2303
S'448'
p2304
tp2305
a(S'MPI_Bcast()'
p2306
S'454'
p2307
tp2308
a(S'MPI_Allreduce()'
p2309
S'457'
p2310
tp2311
a(S'MPI_Barrier()'
p2312
S'476'
p2313
tp2314
a(S'MPI_Wtime()'
p2315
S'477'
p2316
tp2317
a(S'MPI_Barrier()'
p2318
S'482'
p2319
tp2320
a(S'MPI_Allgather()'
p2321
S'484'
p2322
tp2323
a(S'MPI_Barrier()'
p2324
S'506'
p2325
tp2326
a(S'MPI_Barrier()'
p2327
S'511'
p2328
tp2329
asS'PMedian//inputs_select.c'
p2330
(lp2331
(S'MPI_Barrier()'
p2332
S'55'
p2333
tp2334
a(S'MPI_Send()'
p2335
S'78'
p2336
tp2337
a(S'MPI_Send()'
p2338
S'79'
p2339
tp2340
a(S'MPI_Recv()'
p2341
S'85'
p2342
tp2343
a(S'MPI_Recv()'
p2344
S'86'
p2345
tp2346
a(S'MPI_Allgather()'
p2347
S'89'
p2348
tp2349
a(S'MPI_Bcast()'
p2350
S'93'
p2351
tp2352
a(S'MPI_Barrier()'
p2353
S'126'
p2354
tp2355
a(S'MPI_Barrier()'
p2356
S'137'
p2357
tp2358
a(S'MPI_Barrier()'
p2359
S'148'
p2360
tp2361
a(S'MPI_Barrier()'
p2362
S'160'
p2363
tp2364
a(S'MPI_Barrier()'
p2365
S'207'
p2366
tp2367
a(S'MPI_Barrier()'
p2368
S'255'
p2369
tp2370
a(S'MPI_Barrier()'
p2371
S'271'
p2372
tp2373
a(S'MPI_Barrier()'
p2374
S'283'
p2375
tp2376
a(S'MPI_Barrier()'
p2377
S'301'
p2378
tp2379
a(S'MPI_Barrier()'
p2380
S'303'
p2381
tp2382
a(S'MPI_Barrier()'
p2383
S'314'
p2384
tp2385
a(S'MPI_Barrier()'
p2386
S'316'
p2387
tp2388
a(S'MPI_Barrier()'
p2389
S'407'
p2390
tp2391
a(S'MPI_Barrier()'
p2392
S'413'
p2393
tp2394
a(S'MPI_Barrier()'
p2395
S'416'
p2396
tp2397
a(S'MPI_Barrier()'
p2398
S'424'
p2399
tp2400
a(S'MPI_Barrier()'
p2401
S'426'
p2402
tp2403
a(S'MPI_Barrier()'
p2404
S'447'
p2405
tp2406
a(S'MPI_Barrier()'
p2407
S'453'
p2408
tp2409
a(S'MPI_Barrier()'
p2410
S'456'
p2411
tp2412
a(S'MPI_Barrier()'
p2413
S'464'
p2414
tp2415
a(S'MPI_Barrier()'
p2416
S'466'
p2417
tp2418
a(S'MPI_Barrier()'
p2419
S'497'
p2420
tp2421
a(S'MPI_Barrier()'
p2422
S'503'
p2423
tp2424
a(S'MPI_Barrier()'
p2425
S'506'
p2426
tp2427
a(S'MPI_Barrier()'
p2428
S'514'
p2429
tp2430
a(S'MPI_Barrier()'
p2431
S'516'
p2432
tp2433
a(S'MPI_Barrier()'
p2434
S'543'
p2435
tp2436
a(S'MPI_Barrier()'
p2437
S'549'
p2438
tp2439
a(S'MPI_Barrier()'
p2440
S'552'
p2441
tp2442
a(S'MPI_Barrier()'
p2443
S'560'
p2444
tp2445
a(S'MPI_Barrier()'
p2446
S'562'
p2447
tp2448
a(S'MPI_Barrier()'
p2449
S'593'
p2450
tp2451
a(S'MPI_Barrier()'
p2452
S'601'
p2453
tp2454
a(S'MPI_Barrier()'
p2455
S'603'
p2456
tp2457
a(S'MPI_Barrier()'
p2458
S'606'
p2459
tp2460
a(S'MPI_Barrier()'
p2461
S'612'
p2462
tp2463
a(S'MPI_Barrier()'
p2464
S'622'
p2465
tp2466
a(S'MPI_Barrier()'
p2467
S'630'
p2468
tp2469
a(S'MPI_Barrier()'
p2470
S'632'
p2471
tp2472
as.