ccollections
defaultdict
p0
(c__builtin__
list
p1
tp2
Rp3
S'pa3-provided//cmdLine.cpp'
p4
(lp5
(S'MPI_Comm_size()'
p6
S'39'
p7
tp8
a(S'MPI_Comm_rank()'
p9
S'40'
p10
tp11
asS'pa3-provided//Report.cpp'
p12
(lp13
(S'MPI_Abort()'
p14
S'28'
p15
tp16
a(S'MPI_Barrier()'
p17
S'38'
p18
tp19
a(S'MPI_Finalize()'
p20
S'39'
p21
tp22
a(S'MPI_Comm_rank()'
p23
S'49'
p24
tp25
a(S'MPI_Barrier()'
p26
S'63'
p27
tp28
a(S'MPI_Comm_rank()'
p29
S'72'
p30
tp31
a(S'MPI_Barrier()'
p32
S'88'
p33
tp34
a(S'MPI_Comm_rank()'
p35
S'109'
p36
tp37
a(S'MPI_Barrier()'
p38
S'152'
p39
tp40
a(S'MPI_Comm_rank()'
p41
S'160'
p42
tp43
a(S'MPI_Barrier()'
p44
S'187'
p45
tp46
asS'pa3-provided//apf.cpp'
p47
(lp48
(S'MPI_Init()'
p49
S'53'
p50
tp51
a(S'MPI_Comm_size()'
p52
S'68'
p53
tp54
a(S'MPI_Comm_rank()'
p55
S'69'
p56
tp57
a(S'MPI_Finalize()'
p58
S'142'
p59
tp60
as.