ccollections
defaultdict
p0
(c__builtin__
list
p1
tp2
Rp3
S'ProjetEvaluationProduitStructure21/lib/pnlLib/man/some_bindings.tex'
p4
(lp5
(S'X_MPI_PROD()'
p6
S'77'
p7
tp8
asS'ProjetEvaluationProduitStructure21/lib/pnlLib/src/mpi/rng_state.c'
p9
(lp10
(S'X_MPI_INT()'
p11
S'573'
p12
tp13
a(S'X_MPI_LONG_LONG_INT()'
p14
S'585'
p15
tp16
asS'ProjetEvaluationProduitStructure21/lib/pnlLib/src/mpi/mpi_ops.c'
p17
(lp18
(S'MPI_Pack_size()'
p19
S'118'
p20
tp21
a(S'MPI_Pack_size()'
p22
S'159'
p23
tp24
a(S'MPI_Pack_size()'
p25
S'204'
p26
tp27
a(S'MPI_Pack_size()'
p28
S'235'
p29
tp30
a(S'MPI_Pack_size()'
p31
S'268'
p32
tp33
a(S'MPI_Pack_size()'
p34
S'303'
p35
tp36
a(S'MPI_Pack_size()'
p37
S'344'
p38
tp39
a(S'MPI_Pack()'
p40
S'489'
p41
tp42
a(S'MPI_Pack()'
p43
S'527'
p44
tp45
a(S'MPI_Pack()'
p46
S'567'
p47
tp48
a(S'MPI_Unpack()'
p49
S'826'
p50
tp51
a(S'MPI_Send()'
p52
S'1397'
p53
tp54
a(S'MPI_Ssend()'
p55
S'1421'
p56
tp57
a(S'MPI_Probe()'
p58
S'1443'
p59
tp60
a(S'MPI_Get_count()'
p61
S'1445'
p62
tp63
a(S'MPI_Recv()'
p64
S'1448'
p65
tp66
a(S'MPI_Comm_rank()'
p67
S'1473'
p68
tp69
a(S'MPI_Bcast()'
p70
S'1483'
p71
tp72
a(S'MPI_Bcast()'
p73
S'1485'
p74
tp75
a(S'MPI_Isend()'
p76
S'1514'
p77
tp78
a(S'MPI_Iprobe()'
p79
S'1541'
p80
tp81
a(S'MPI_Get_count()'
p82
S'1548'
p83
tp84
a(S'MPI_Irecv()'
p85
S'1551'
p86
tp87
a(S'MPI_Comm_rank()'
p88
S'1587'
p89
tp90
a(S'MPI_Reduce()'
p91
S'1678'
p92
tp93
a(S'MPI_Reduce()'
p94
S'1680'
p95
tp96
asS'ProjetEvaluationProduitStructure21/lib/pnlLib/examples/saveload_test.c'
p97
(lp98
(S'MPI_Finalize()'
p99
S'165'
p100
tp101
as.