ccollections
defaultdict
p0
(c__builtin__
list
p1
tp2
Rp3
S'gba4ios/emu-ex-plus-alpha/imagine/bundle/darwin-iOS/include/boost/mpi/exception.hpp'
p4
(lp5
(S'MPI_Error_class()'
p6
S'73'
p7
tp8
asS'gba4ios/emu-ex-plus-alpha/imagine/bundle/darwin-iOS/include/boost/graph/distributed/page_rank.hpp'
p9
(lp10
(S'MPI_Comm_rank()'
p11
S'40'
p12
tp13
a(S'MPI_Accumulate()'
p14
S'53'
p15
tp16
a(S'MPI_Win_fence()'
p17
S'60'
p18
tp19
a(S'MPI_Comm_rank()'
p20
S'90'
p21
tp22
a(S'MPI_Win_create()'
p23
S'117'
p24
tp25
a(S'X_MPI_INFO_NULL()'
p26
S'120'
p27
tp28
a(S'MPI_Win_set_name()'
p29
S'121'
p30
tp31
a(S'MPI_Win_create()'
p32
S'122'
p33
tp34
a(S'X_MPI_INFO_NULL()'
p35
S'125'
p36
tp37
a(S'MPI_Win_set_name()'
p38
S'126'
p39
tp40
a(S'MPI_Win_fence()'
p41
S'131'
p42
tp43
a(S'MPI_Win_fence()'
p44
S'132'
p45
tp46
a(S'MPI_Win_free()'
p47
S'146'
p48
tp49
a(S'MPI_Win_free()'
p50
S'147'
p51
tp52
asS'gba4ios/emu-ex-plus-alpha/imagine/bundle/darwin-iOS/include/boost/graph/distributed/detail/mpi_process_group.ipp'
p53
(lp54
(S'MPI_Recv()'
p55
S'492'
p56
tp57
a(S'MPI_Get_count()'
p58
S'510'
p59
tp60
a(S'MPI_Recv()'
p61
S'516'
p62
tp63
a(S'MPI_Irecv()'
p64
S'665'
p65
tp66
a(S'X_MPI_PACKED()'
p67
S'666'
p68
tp69
a(S'MPI_Allgather()'
p70
S'837'
p71
tp72
a(S'MPI_Allgatherv()'
p73
S'856'
p74
tp75
a(S'X_MPI_BYTE()'
p76
S'859'
p77
tp78
a(S'MPI_Comm_group()'
p79
S'880'
p80
tp81
a(S'MPI_Group_incl()'
p82
S'884'
p83
tp84
a(S'MPI_Comm_create()'
p85
S'888'
p86
tp87
a(S'MPI_Group_free()'
p88
S'891'
p89
tp90
a(S'MPI_Group_free()'
p91
S'893'
p92
tp93
a(S'MPI_Comm_free()'
p94
S'898'
p95
tp96
a(S'MPI_Irecv()'
p97
S'929'
p98
tp99
a(S'MPI_Test()'
p100
S'934'
p101
tp102
a(S'MPI_Get_count()'
p103
S'967'
p104
tp105
a(S'MPI_Recv()'
p106
S'972'
p107
tp108
asS'gba4ios/emu-ex-plus-alpha/imagine/bundle/darwin-iOS/include/boost/mpi/operations.hpp'
p109
(lp110
(S'MPI_Op_free()'
p111
S'293'
p112
tp113
asS'gba4ios/emu-ex-plus-alpha/imagine/bundle/darwin-iOS/include/boost/mpi/communicator.hpp'
p114
(lp115
(S'MPI_Comm()'
p116
S'1425'
p117
tp118
a(S'MPI_Comm()'
p119
S'1448'
p120
tp121
a(S'MPI_Comm()'
p122
S'1484'
p123
tp124
a(S'MPI_Comm()'
p125
S'1507'
p126
tp127
asS'gba4ios/emu-ex-plus-alpha/imagine/bundle/darwin-iOS/include/boost/mpi/allocator.hpp'
p128
(lp129
(S'X_MPI_INFO_NULL()'
p130
S'141'
p131
tp132
asS'gba4ios/emu-ex-plus-alpha/imagine/bundle/darwin-iOS/include/boost/mpi/datatype.hpp'
p133
(lp134
(S'X_MPI_LONG_DOUBLE_INT()'
p135
S'250'
p136
tp137
a(S'MPI_Type_contiguous()'
p138
S'310'
p139
tp140
a(S'MPI_Type_commit()'
p141
S'311'
p142
tp143
asS'gba4ios/emu-ex-plus-alpha/imagine/bundle/darwin-iOS/include/boost/mpi/timer.hpp'
p144
(lp145
(S'MPI_Wtime()'
p146
S'71'
p147
tp148
asS'gba4ios/emu-ex-plus-alpha/imagine/bundle/darwin-iOS/include/boost/graph/distributed/mpi_process_group.hpp'
p149
(lp150
(S'MPI_Bsend()'
p151
S'708'
p152
tp153
a(S'MPI_Isend()'
p154
S'714'
p155
tp156
a(S'MPI_Test()'
p157
S'720'
p158
tp159
a(S'MPI_Bsend()'
p160
S'744'
p161
tp162
a(S'MPI_Isend()'
p163
S'750'
p164
tp165
a(S'MPI_Test()'
p166
S'756'
p167
tp168
as.