ccollections
defaultdict
p0
(c__builtin__
list
p1
tp2
Rp3
S'workspace/boost/include/boost/graph/distributed/detail/mpi_process_group.ipp'
p4
(lp5
(S'MPI_Recv()'
p6
S'492'
p7
tp8
a(S'MPI_Get_count()'
p9
S'510'
p10
tp11
a(S'MPI_Recv()'
p12
S'516'
p13
tp14
a(S'MPI_Irecv()'
p15
S'665'
p16
tp17
a(S'X_MPI_PACKED()'
p18
S'666'
p19
tp20
a(S'MPI_Allgather()'
p21
S'837'
p22
tp23
a(S'MPI_Allgatherv()'
p24
S'856'
p25
tp26
a(S'X_MPI_BYTE()'
p27
S'859'
p28
tp29
a(S'MPI_Comm_group()'
p30
S'880'
p31
tp32
a(S'MPI_Group_incl()'
p33
S'884'
p34
tp35
a(S'MPI_Comm_create()'
p36
S'888'
p37
tp38
a(S'MPI_Group_free()'
p39
S'891'
p40
tp41
a(S'MPI_Group_free()'
p42
S'893'
p43
tp44
a(S'MPI_Comm_free()'
p45
S'898'
p46
tp47
a(S'MPI_Irecv()'
p48
S'929'
p49
tp50
a(S'MPI_Test()'
p51
S'934'
p52
tp53
a(S'MPI_Get_count()'
p54
S'967'
p55
tp56
a(S'MPI_Recv()'
p57
S'972'
p58
tp59
asS'workspace/boost/include/boost/mpi/operations.hpp'
p60
(lp61
(S'MPI_Op_free()'
p62
S'293'
p63
tp64
asS'workspace/boost/include/boost/mpi/communicator.hpp'
p65
(lp66
(S'MPI_Comm()'
p67
S'1428'
p68
tp69
a(S'MPI_Comm()'
p70
S'1451'
p71
tp72
a(S'MPI_Comm()'
p73
S'1487'
p74
tp75
a(S'MPI_Comm()'
p76
S'1510'
p77
tp78
asS'workspace/boost/include/boost/mpi/exception.hpp'
p79
(lp80
(S'MPI_Error_class()'
p81
S'73'
p82
tp83
asS'workspace/boost/include/boost/mpi/timer.hpp'
p84
(lp85
(S'MPI_Wtime()'
p86
S'71'
p87
tp88
asS'workspace/boost/include/boost/graph/distributed/page_rank.hpp'
p89
(lp90
(S'MPI_Comm_rank()'
p91
S'40'
p92
tp93
a(S'MPI_Accumulate()'
p94
S'53'
p95
tp96
a(S'MPI_Win_fence()'
p97
S'60'
p98
tp99
a(S'MPI_Comm_rank()'
p100
S'90'
p101
tp102
a(S'MPI_Win_create()'
p103
S'115'
p104
tp105
a(S'X_MPI_INFO_NULL()'
p106
S'118'
p107
tp108
a(S'MPI_Win_set_name()'
p109
S'119'
p110
tp111
a(S'MPI_Win_create()'
p112
S'120'
p113
tp114
a(S'X_MPI_INFO_NULL()'
p115
S'123'
p116
tp117
a(S'MPI_Win_set_name()'
p118
S'124'
p119
tp120
a(S'MPI_Win_fence()'
p121
S'129'
p122
tp123
a(S'MPI_Win_fence()'
p124
S'130'
p125
tp126
a(S'MPI_Win_free()'
p127
S'144'
p128
tp129
a(S'MPI_Win_free()'
p130
S'145'
p131
tp132
asS'workspace/boost/include/boost/graph/distributed/mpi_process_group.hpp'
p133
(lp134
(S'MPI_Bsend()'
p135
S'708'
p136
tp137
a(S'MPI_Isend()'
p138
S'714'
p139
tp140
a(S'MPI_Test()'
p141
S'720'
p142
tp143
a(S'MPI_Bsend()'
p144
S'744'
p145
tp146
a(S'MPI_Isend()'
p147
S'750'
p148
tp149
a(S'MPI_Test()'
p150
S'756'
p151
tp152
asS'workspace/boost/include/boost/mpi/allocator.hpp'
p153
(lp154
(S'X_MPI_INFO_NULL()'
p155
S'141'
p156
tp157
asS'workspace/boost/include/boost/mpi/datatype.hpp'
p158
(lp159
(S'X_MPI_LONG_DOUBLE_INT()'
p160
S'250'
p161
tp162
a(S'MPI_Type_contiguous()'
p163
S'310'
p164
tp165
a(S'MPI_Type_commit()'
p166
S'311'
p167
tp168
as.