ccollections
defaultdict
p0
(c__builtin__
list
p1
tp2
Rp3
S'QT/Documentation/curl/boost_1_56_0/boost/graph/distributed/mpi_process_group.hpp'
p4
(lp5
(S'MPI_Bsend()'
p6
S'708'
p7
tp8
a(S'MPI_Isend()'
p9
S'714'
p10
tp11
a(S'MPI_Test()'
p12
S'720'
p13
tp14
a(S'MPI_Bsend()'
p15
S'744'
p16
tp17
a(S'MPI_Isend()'
p18
S'750'
p19
tp20
a(S'MPI_Test()'
p21
S'756'
p22
tp23
asS'QT/Documentation/curl/boost_1_56_0/boost/mpi/allocator.hpp'
p24
(lp25
(S'X_MPI_INFO_NULL()'
p26
S'141'
p27
tp28
asS'QT/Documentation/curl/boost_1_56_0/boost/mpi/operations.hpp'
p29
(lp30
(S'MPI_Op_free()'
p31
S'293'
p32
tp33
asS'QT/Documentation/curl/boost_1_56_0/boost/graph/distributed/page_rank.hpp'
p34
(lp35
(S'MPI_Comm_rank()'
p36
S'40'
p37
tp38
a(S'MPI_Accumulate()'
p39
S'53'
p40
tp41
a(S'MPI_Win_fence()'
p42
S'60'
p43
tp44
a(S'MPI_Comm_rank()'
p45
S'90'
p46
tp47
a(S'MPI_Win_create()'
p48
S'115'
p49
tp50
a(S'X_MPI_INFO_NULL()'
p51
S'118'
p52
tp53
a(S'MPI_Win_set_name()'
p54
S'119'
p55
tp56
a(S'MPI_Win_create()'
p57
S'120'
p58
tp59
a(S'X_MPI_INFO_NULL()'
p60
S'123'
p61
tp62
a(S'MPI_Win_set_name()'
p63
S'124'
p64
tp65
a(S'MPI_Win_fence()'
p66
S'129'
p67
tp68
a(S'MPI_Win_fence()'
p69
S'130'
p70
tp71
a(S'MPI_Win_free()'
p72
S'144'
p73
tp74
a(S'MPI_Win_free()'
p75
S'145'
p76
tp77
asS'QT/Documentation/curl/boost_1_56_0/boost/mpi/exception.hpp'
p78
(lp79
(S'MPI_Error_class()'
p80
S'73'
p81
tp82
asS'QT/Documentation/curl/boost_1_56_0/boost/mpi/timer.hpp'
p83
(lp84
(S'MPI_Wtime()'
p85
S'71'
p86
tp87
asS'QT/Documentation/curl/boost_1_56_0/boost/mpi/datatype.hpp'
p88
(lp89
(S'X_MPI_LONG_DOUBLE_INT()'
p90
S'250'
p91
tp92
a(S'MPI_Type_contiguous()'
p93
S'310'
p94
tp95
a(S'MPI_Type_commit()'
p96
S'311'
p97
tp98
asS'QT/Documentation/curl/boost_1_56_0/boost/mpi/communicator.hpp'
p99
(lp100
(S'MPI_Comm()'
p101
S'1428'
p102
tp103
a(S'MPI_Comm()'
p104
S'1451'
p105
tp106
a(S'MPI_Comm()'
p107
S'1487'
p108
tp109
a(S'MPI_Comm()'
p110
S'1510'
p111
tp112
asS'QT/Documentation/curl/boost_1_56_0/boost/graph/distributed/detail/mpi_process_group.ipp'
p113
(lp114
(S'MPI_Recv()'
p115
S'492'
p116
tp117
a(S'MPI_Get_count()'
p118
S'510'
p119
tp120
a(S'MPI_Recv()'
p121
S'516'
p122
tp123
a(S'MPI_Irecv()'
p124
S'665'
p125
tp126
a(S'X_MPI_PACKED()'
p127
S'666'
p128
tp129
a(S'MPI_Allgather()'
p130
S'837'
p131
tp132
a(S'MPI_Allgatherv()'
p133
S'856'
p134
tp135
a(S'X_MPI_BYTE()'
p136
S'859'
p137
tp138
a(S'MPI_Comm_group()'
p139
S'880'
p140
tp141
a(S'MPI_Group_incl()'
p142
S'884'
p143
tp144
a(S'MPI_Comm_create()'
p145
S'888'
p146
tp147
a(S'MPI_Group_free()'
p148
S'891'
p149
tp150
a(S'MPI_Group_free()'
p151
S'893'
p152
tp153
a(S'MPI_Comm_free()'
p154
S'898'
p155
tp156
a(S'MPI_Irecv()'
p157
S'929'
p158
tp159
a(S'MPI_Test()'
p160
S'934'
p161
tp162
a(S'MPI_Get_count()'
p163
S'967'
p164
tp165
a(S'MPI_Recv()'
p166
S'972'
p167
tp168
as.