ccollections
defaultdict
p0
(c__builtin__
list
p1
tp2
Rp3
S'Play-Core/extern/include/boost/mpi/datatype.hpp'
p4
(lp5
(S'X_MPI_LONG_DOUBLE_INT()'
p6
S'250'
p7
tp8
a(S'MPI_Type_contiguous()'
p9
S'310'
p10
tp11
a(S'MPI_Type_commit()'
p12
S'311'
p13
tp14
asS'Play-Core/extern/include/boost/mpi/exception.hpp'
p15
(lp16
(S'MPI_Error_class()'
p17
S'73'
p18
tp19
asS'Play-Core/extern/include/boost/graph/distributed/mpi_process_group.hpp'
p20
(lp21
(S'MPI_Bsend()'
p22
S'708'
p23
tp24
a(S'MPI_Isend()'
p25
S'714'
p26
tp27
a(S'MPI_Test()'
p28
S'720'
p29
tp30
a(S'MPI_Bsend()'
p31
S'744'
p32
tp33
a(S'MPI_Isend()'
p34
S'750'
p35
tp36
a(S'MPI_Test()'
p37
S'756'
p38
tp39
asS'Play-Core/extern/include/boost/graph/distributed/detail/mpi_process_group.ipp'
p40
(lp41
(S'MPI_Recv()'
p42
S'492'
p43
tp44
a(S'MPI_Get_count()'
p45
S'510'
p46
tp47
a(S'MPI_Recv()'
p48
S'516'
p49
tp50
a(S'MPI_Irecv()'
p51
S'665'
p52
tp53
a(S'X_MPI_PACKED()'
p54
S'666'
p55
tp56
a(S'MPI_Allgather()'
p57
S'837'
p58
tp59
a(S'MPI_Allgatherv()'
p60
S'856'
p61
tp62
a(S'X_MPI_BYTE()'
p63
S'859'
p64
tp65
a(S'MPI_Comm_group()'
p66
S'880'
p67
tp68
a(S'MPI_Group_incl()'
p69
S'884'
p70
tp71
a(S'MPI_Comm_create()'
p72
S'888'
p73
tp74
a(S'MPI_Group_free()'
p75
S'891'
p76
tp77
a(S'MPI_Group_free()'
p78
S'893'
p79
tp80
a(S'MPI_Comm_free()'
p81
S'898'
p82
tp83
a(S'MPI_Irecv()'
p84
S'929'
p85
tp86
a(S'MPI_Test()'
p87
S'934'
p88
tp89
a(S'MPI_Get_count()'
p90
S'967'
p91
tp92
a(S'MPI_Recv()'
p93
S'972'
p94
tp95
asS'Play-Core/extern/include/boost/graph/distributed/page_rank.hpp'
p96
(lp97
(S'MPI_Comm_rank()'
p98
S'40'
p99
tp100
a(S'MPI_Accumulate()'
p101
S'53'
p102
tp103
a(S'MPI_Win_fence()'
p104
S'60'
p105
tp106
a(S'MPI_Comm_rank()'
p107
S'90'
p108
tp109
a(S'MPI_Win_create()'
p110
S'115'
p111
tp112
a(S'X_MPI_INFO_NULL()'
p113
S'118'
p114
tp115
a(S'MPI_Win_set_name()'
p116
S'119'
p117
tp118
a(S'MPI_Win_create()'
p119
S'120'
p120
tp121
a(S'X_MPI_INFO_NULL()'
p122
S'123'
p123
tp124
a(S'MPI_Win_set_name()'
p125
S'124'
p126
tp127
a(S'MPI_Win_fence()'
p128
S'129'
p129
tp130
a(S'MPI_Win_fence()'
p131
S'130'
p132
tp133
a(S'MPI_Win_free()'
p134
S'144'
p135
tp136
a(S'MPI_Win_free()'
p137
S'145'
p138
tp139
asS'Play-Core/extern/include/boost/mpi/communicator.hpp'
p140
(lp141
(S'MPI_Comm()'
p142
S'1428'
p143
tp144
a(S'MPI_Comm()'
p145
S'1451'
p146
tp147
a(S'MPI_Comm()'
p148
S'1487'
p149
tp150
a(S'MPI_Comm()'
p151
S'1510'
p152
tp153
asS'Play-Core/extern/include/boost/mpi/operations.hpp'
p154
(lp155
(S'MPI_Op_free()'
p156
S'293'
p157
tp158
asS'Play-Core/extern/include/boost/mpi/allocator.hpp'
p159
(lp160
(S'X_MPI_INFO_NULL()'
p161
S'141'
p162
tp163
asS'Play-Core/extern/include/boost/mpi/timer.hpp'
p164
(lp165
(S'MPI_Wtime()'
p166
S'71'
p167
tp168
as.