ccollections
defaultdict
p0
(c__builtin__
list
p1
tp2
Rp3
S'Dreamserver/DreamServer/bin/include/boost/graph/distributed/mpi_process_group.hpp'
p4
(lp5
(S'MPI_Bsend()'
p6
S'708'
p7
tp8
a(S'MPI_Isend()'
p9
S'714'
p10
tp11
a(S'MPI_Test()'
p12
S'720'
p13
tp14
a(S'MPI_Bsend()'
p15
S'744'
p16
tp17
a(S'MPI_Isend()'
p18
S'750'
p19
tp20
a(S'MPI_Test()'
p21
S'756'
p22
tp23
asS'Dreamserver/DreamServer/bin/include/boost/graph/distributed/page_rank.hpp'
p24
(lp25
(S'MPI_Comm_rank()'
p26
S'40'
p27
tp28
a(S'MPI_Accumulate()'
p29
S'53'
p30
tp31
a(S'MPI_Win_fence()'
p32
S'60'
p33
tp34
a(S'MPI_Comm_rank()'
p35
S'90'
p36
tp37
a(S'MPI_Win_create()'
p38
S'115'
p39
tp40
a(S'X_MPI_INFO_NULL()'
p41
S'118'
p42
tp43
a(S'MPI_Win_set_name()'
p44
S'119'
p45
tp46
a(S'MPI_Win_create()'
p47
S'120'
p48
tp49
a(S'X_MPI_INFO_NULL()'
p50
S'123'
p51
tp52
a(S'MPI_Win_set_name()'
p53
S'124'
p54
tp55
a(S'MPI_Win_fence()'
p56
S'129'
p57
tp58
a(S'MPI_Win_fence()'
p59
S'130'
p60
tp61
a(S'MPI_Win_free()'
p62
S'144'
p63
tp64
a(S'MPI_Win_free()'
p65
S'145'
p66
tp67
asS'Dreamserver/DreamServer/bin/include/boost/mpi/timer.hpp'
p68
(lp69
(S'MPI_Wtime()'
p70
S'71'
p71
tp72
asS'Dreamserver/DreamServer/bin/include/boost/mpi/exception.hpp'
p73
(lp74
(S'MPI_Error_class()'
p75
S'73'
p76
tp77
asS'Dreamserver/DreamServer/bin/include/boost/mpi/communicator.hpp'
p78
(lp79
(S'MPI_Comm()'
p80
S'1292'
p81
tp82
a(S'MPI_Comm()'
p83
S'1492'
p84
tp85
a(S'MPI_Comm()'
p86
S'1515'
p87
tp88
a(S'MPI_Comm()'
p89
S'1551'
p90
tp91
a(S'MPI_Comm()'
p92
S'1574'
p93
tp94
asS'Dreamserver/DreamServer/bin/include/boost/mpi/allocator.hpp'
p95
(lp96
(S'X_MPI_INFO_NULL()'
p97
S'141'
p98
tp99
asS'Dreamserver/DreamServer/bin/include/boost/mpi/datatype.hpp'
p100
(lp101
(S'X_MPI_LONG_DOUBLE_INT()'
p102
S'250'
p103
tp104
a(S'MPI_Type_contiguous()'
p105
S'310'
p106
tp107
a(S'MPI_Type_commit()'
p108
S'311'
p109
tp110
asS'Dreamserver/DreamServer/bin/include/boost/graph/distributed/detail/mpi_process_group.ipp'
p111
(lp112
(S'MPI_Recv()'
p113
S'493'
p114
tp115
a(S'MPI_Get_count()'
p116
S'511'
p117
tp118
a(S'MPI_Recv()'
p119
S'517'
p120
tp121
a(S'MPI_Irecv()'
p122
S'666'
p123
tp124
a(S'X_MPI_PACKED()'
p125
S'667'
p126
tp127
a(S'MPI_Allgather()'
p128
S'838'
p129
tp130
a(S'MPI_Allgatherv()'
p131
S'857'
p132
tp133
a(S'X_MPI_BYTE()'
p134
S'860'
p135
tp136
a(S'MPI_Comm_group()'
p137
S'881'
p138
tp139
a(S'MPI_Group_incl()'
p140
S'885'
p141
tp142
a(S'MPI_Comm_create()'
p143
S'889'
p144
tp145
a(S'MPI_Group_free()'
p146
S'892'
p147
tp148
a(S'MPI_Group_free()'
p149
S'894'
p150
tp151
a(S'MPI_Comm_free()'
p152
S'899'
p153
tp154
a(S'MPI_Irecv()'
p155
S'930'
p156
tp157
a(S'MPI_Test()'
p158
S'935'
p159
tp160
a(S'MPI_Get_count()'
p161
S'968'
p162
tp163
a(S'MPI_Recv()'
p164
S'973'
p165
tp166
asS'Dreamserver/DreamServer/bin/include/boost/mpi/operations.hpp'
p167
(lp168
(S'MPI_Op_free()'
p169
S'293'
p170
tp171
as.