ccollections
defaultdict
p0
(c__builtin__
list
p1
tp2
Rp3
S'Reconstruction/Libraries/boost-ios-device/include/boost/mpi/communicator.hpp'
p4
(lp5
(S'MPI_Comm()'
p6
S'1292'
p7
tp8
a(S'MPI_Comm()'
p9
S'1492'
p10
tp11
a(S'MPI_Comm()'
p12
S'1515'
p13
tp14
a(S'MPI_Comm()'
p15
S'1551'
p16
tp17
a(S'MPI_Comm()'
p18
S'1574'
p19
tp20
asS'Reconstruction/Libraries/boost-ios-device/include/boost/mpi/timer.hpp'
p21
(lp22
(S'MPI_Wtime()'
p23
S'71'
p24
tp25
asS'Reconstruction/Libraries/boost-ios-device/include/boost/mpi/datatype.hpp'
p26
(lp27
(S'X_MPI_LONG_DOUBLE_INT()'
p28
S'250'
p29
tp30
a(S'MPI_Type_contiguous()'
p31
S'310'
p32
tp33
a(S'MPI_Type_commit()'
p34
S'311'
p35
tp36
asS'Reconstruction/Libraries/boost-ios-device/include/boost/mpi/allocator.hpp'
p37
(lp38
(S'X_MPI_INFO_NULL()'
p39
S'141'
p40
tp41
asS'Reconstruction/Libraries/boost-ios-device/include/boost/graph/distributed/page_rank.hpp'
p42
(lp43
(S'MPI_Comm_rank()'
p44
S'40'
p45
tp46
a(S'MPI_Accumulate()'
p47
S'53'
p48
tp49
a(S'MPI_Win_fence()'
p50
S'60'
p51
tp52
a(S'MPI_Comm_rank()'
p53
S'90'
p54
tp55
a(S'MPI_Win_create()'
p56
S'115'
p57
tp58
a(S'X_MPI_INFO_NULL()'
p59
S'118'
p60
tp61
a(S'MPI_Win_set_name()'
p62
S'119'
p63
tp64
a(S'MPI_Win_create()'
p65
S'120'
p66
tp67
a(S'X_MPI_INFO_NULL()'
p68
S'123'
p69
tp70
a(S'MPI_Win_set_name()'
p71
S'124'
p72
tp73
a(S'MPI_Win_fence()'
p74
S'129'
p75
tp76
a(S'MPI_Win_fence()'
p77
S'130'
p78
tp79
a(S'MPI_Win_free()'
p80
S'144'
p81
tp82
a(S'MPI_Win_free()'
p83
S'145'
p84
tp85
asS'Reconstruction/Libraries/flann-ios-device/include/flann/io/hdf5.h'
p86
(lp87
(S'MPI_Comm_size()'
p88
S'177'
p89
tp90
a(S'MPI_Comm_rank()'
p91
S'178'
p92
tp93
asS'Reconstruction/Libraries/boost-ios-device/include/boost/mpi/exception.hpp'
p94
(lp95
(S'MPI_Error_class()'
p96
S'73'
p97
tp98
asS'Reconstruction/Libraries/boost-ios-device/include/boost/graph/distributed/detail/mpi_process_group.ipp'
p99
(lp100
(S'MPI_Recv()'
p101
S'492'
p102
tp103
a(S'MPI_Get_count()'
p104
S'510'
p105
tp106
a(S'MPI_Recv()'
p107
S'516'
p108
tp109
a(S'MPI_Irecv()'
p110
S'665'
p111
tp112
a(S'X_MPI_PACKED()'
p113
S'666'
p114
tp115
a(S'MPI_Allgather()'
p116
S'837'
p117
tp118
a(S'MPI_Allgatherv()'
p119
S'856'
p120
tp121
a(S'X_MPI_BYTE()'
p122
S'859'
p123
tp124
a(S'MPI_Comm_group()'
p125
S'880'
p126
tp127
a(S'MPI_Group_incl()'
p128
S'884'
p129
tp130
a(S'MPI_Comm_create()'
p131
S'888'
p132
tp133
a(S'MPI_Group_free()'
p134
S'891'
p135
tp136
a(S'MPI_Group_free()'
p137
S'893'
p138
tp139
a(S'MPI_Comm_free()'
p140
S'898'
p141
tp142
a(S'MPI_Irecv()'
p143
S'929'
p144
tp145
a(S'MPI_Test()'
p146
S'934'
p147
tp148
a(S'MPI_Get_count()'
p149
S'967'
p150
tp151
a(S'MPI_Recv()'
p152
S'972'
p153
tp154
asS'Reconstruction/Libraries/boost-ios-device/include/boost/mpi/operations.hpp'
p155
(lp156
(S'MPI_Op_free()'
p157
S'293'
p158
tp159
asS'Reconstruction/Libraries/boost-ios-device/include/boost/graph/distributed/mpi_process_group.hpp'
p160
(lp161
(S'MPI_Bsend()'
p162
S'708'
p163
tp164
a(S'MPI_Isend()'
p165
S'714'
p166
tp167
a(S'MPI_Test()'
p168
S'720'
p169
tp170
a(S'MPI_Bsend()'
p171
S'744'
p172
tp173
a(S'MPI_Isend()'
p174
S'750'
p175
tp176
a(S'MPI_Test()'
p177
S'756'
p178
tp179
as.