ccollections
defaultdict
p0
(c__builtin__
list
p1
tp2
Rp3
S'Coursework/C/ParallelComputing/Others/MPI1/IC1028/toall.c'
p4
(lp5
(S'MPI_Init()'
p6
S'11'
p7
tp8
a(S'MPI_Comm_rank()'
p9
S'17'
p10
tp11
a(S'MPI_Comm_size()'
p12
S'18'
p13
tp14
a(S'MPI_Send()'
p15
S'27'
p16
tp17
a(S'MPI_Recv()'
p18
S'32'
p19
tp20
a(S'X_MPI_COMM_WORLD()'
p21
S'33'
p22
tp23
a(S'MPI_Finalize()'
p24
S'39'
p25
tp26
asS'Coursework/C/ParallelComputing/Others/MPI1/onea.c'
p27
(lp28
(S'MPI_Init()'
p29
S'13'
p30
tp31
a(S'MPI_Comm_rank()'
p32
S'14'
p33
tp34
a(S'MPI_Comm_size()'
p35
S'15'
p36
tp37
a(S'MPI_Abort()'
p38
S'21'
p39
tp40
a(S'MPI_Send()'
p41
S'31'
p42
tp43
a(S'MPI_Recv()'
p44
S'40'
p45
tp46
a(S'MPI_Finalize()'
p47
S'45'
p48
tp49
asS'Coursework/C/ParallelComputing/Others/MPI1/IC1028/bcast2.c'
p50
(lp51
(S'MPI_Init()'
p52
S'11'
p53
tp54
a(S'MPI_Comm_rank()'
p55
S'17'
p56
tp57
a(S'MPI_Comm_size()'
p58
S'18'
p59
tp60
a(S'MPI_Bcast()'
p61
S'26'
p62
tp63
a(S'MPI_Finalize()'
p64
S'30'
p65
tp66
asS'Coursework/C/ParallelComputing/Others/MPI1/oneb.c'
p67
(lp68
(S'MPI_Init()'
p69
S'14'
p70
tp71
a(S'MPI_Comm_rank()'
p72
S'15'
p73
tp74
a(S'MPI_Comm_size()'
p75
S'16'
p76
tp77
a(S'MPI_Abort()'
p78
S'22'
p79
tp80
a(S'MPI_Send()'
p81
S'36'
p82
tp83
a(S'MPI_Recv()'
p84
S'46'
p85
tp86
a(S'MPI_Finalize()'
p87
S'51'
p88
tp89
asS'Coursework/C/ParallelComputing/Others/MPI1/onec.c'
p90
(lp91
(S'MPI_Init()'
p92
S'14'
p93
tp94
a(S'MPI_Comm_rank()'
p95
S'15'
p96
tp97
a(S'MPI_Comm_size()'
p98
S'16'
p99
tp100
a(S'MPI_Abort()'
p101
S'22'
p102
tp103
a(S'MPI_Send()'
p104
S'35'
p105
tp106
a(S'MPI_Recv()'
p107
S'41'
p108
tp109
a(S'MPI_Finalize()'
p110
S'52'
p111
tp112
asS'Coursework/C/ParallelComputing/Others/MPI1/IC1028/scatter3.c'
p113
(lp114
(S'MPI_Init()'
p115
S'12'
p116
tp117
a(S'MPI_Comm_rank()'
p118
S'20'
p119
tp120
a(S'MPI_Comm_size()'
p121
S'21'
p122
tp123
a(S'MPI_Scatter()'
p124
S'35'
p125
tp126
a(S'MPI_Send()'
p127
S'48'
p128
tp129
a(S'MPI_Recv()'
p130
S'53'
p131
tp132
a(S'MPI_Finalize()'
p133
S'59'
p134
tp135
asS'Coursework/C/ParallelComputing/Others/MPI1/IC1028/master.c'
p136
(lp137
(S'MPI_Init()'
p138
S'12'
p139
tp140
a(S'MPI_Comm_rank()'
p141
S'17'
p142
tp143
a(S'MPI_Comm_size()'
p144
S'18'
p145
tp146
a(S'MPI_Send()'
p147
S'21'
p148
tp149
a(S'MPI_Recv()'
p150
S'22'
p151
tp152
a(S'MPI_Send()'
p153
S'32'
p154
tp155
a(S'MPI_Recv()'
p156
S'36'
p157
tp158
a(S'MPI_Recv()'
p159
S'45'
p160
tp161
a(S'MPI_Send()'
p162
S'47'
p163
tp164
a(S'MPI_Finalize()'
p165
S'52'
p166
tp167
asS'Coursework/C/ParallelComputing/Others/MPI1/IC1028/scatter2.c'
p168
(lp169
(S'MPI_Init()'
p170
S'14'
p171
tp172
a(S'MPI_Comm_rank()'
p173
S'22'
p174
tp175
a(S'MPI_Comm_size()'
p176
S'23'
p177
tp178
a(S'MPI_Scatter()'
p179
S'37'
p180
tp181
a(S'MPI_Scatter()'
p182
S'43'
p183
tp184
a(S'MPI_Finalize()'
p185
S'56'
p186
tp187
asS'Coursework/C/ParallelComputing/Others/MPI1/IC1028/pumpkin.c'
p188
(lp189
(S'MPI_Init()'
p190
S'8'
p191
tp192
a(S'MPI_Comm_rank()'
p193
S'18'
p194
tp195
a(S'MPI_Comm_size()'
p196
S'19'
p197
tp198
a(S'MPI_Scatter()'
p199
S'31'
p200
tp201
a(S'MPI_Scatter()'
p202
S'35'
p203
tp204
a(S'MPI_Gather()'
p205
S'45'
p206
tp207
a(S'MPI_Scatter()'
p208
S'85'
p209
tp210
a(S'MPI_Finalize()'
p211
S'90'
p212
tp213
asS'Coursework/C/ParallelComputing/Others/RPS/RPStry.c'
p214
(lp215
(S'MPI_Init()'
p216
S'45'
p217
tp218
a(S'MPI_Comm_rank()'
p219
S'46'
p220
tp221
a(S'MPI_Comm_size()'
p222
S'47'
p223
tp224
a(S'MPI_Finalize()'
p225
S'56'
p226
tp227
a(S'MPI_Bcast()'
p228
S'78'
p229
tp230
a(S'MPI_Send()'
p231
S'95'
p232
tp233
a(S'MPI_Recv()'
p234
S'100'
p235
tp236
a(S'MPI_Send()'
p237
S'110'
p238
tp239
a(S'MPI_Recv()'
p240
S'113'
p241
tp242
a(S'MPI_Bcast()'
p243
S'120'
p244
tp245
a(S'MPI_Barrier()'
p246
S'122'
p247
tp248
a(S'MPI_Send()'
p249
S'135'
p250
tp251
a(S'MPI_Recv()'
p252
S'140'
p253
tp254
a(S'MPI_Send()'
p255
S'167'
p256
tp257
a(S'MPI_Recv()'
p258
S'168'
p259
tp260
a(S'MPI_Recv()'
p261
S'183'
p262
tp263
a(S'MPI_Send()'
p264
S'189'
p265
tp266
a(S'MPI_Send()'
p267
S'210'
p268
tp269
a(S'MPI_Recv()'
p270
S'211'
p271
tp272
a(S'MPI_Send()'
p273
S'239'
p274
tp275
a(S'MPI_Recv()'
p276
S'240'
p277
tp278
a(S'MPI_Recv()'
p279
S'255'
p280
tp281
a(S'MPI_Send()'
p282
S'261'
p283
tp284
a(S'MPI_Recv()'
p285
S'278'
p286
tp287
a(S'MPI_Send()'
p288
S'284'
p289
tp290
a(S'MPI_Send()'
p291
S'313'
p292
tp293
a(S'MPI_Recv()'
p294
S'314'
p295
tp296
a(S'MPI_Recv()'
p297
S'325'
p298
tp299
a(S'MPI_Send()'
p300
S'332'
p301
tp302
a(S'MPI_Recv()'
p303
S'347'
p304
tp305
a(S'MPI_Send()'
p306
S'354'
p307
tp308
a(S'MPI_Send()'
p309
S'371'
p310
tp311
a(S'MPI_Recv()'
p312
S'372'
p313
tp314
a(S'MPI_Gather()'
p315
S'394'
p316
tp317
a(S'MPI_Gather()'
p318
S'412'
p319
tp320
a(S'MPI_Finalize()'
p321
S'416'
p322
tp323
asS'Coursework/C/ParallelComputing/Others/MPI1/IC1028/allgather.c'
p324
(lp325
(S'MPI_Init()'
p326
S'11'
p327
tp328
a(S'MPI_Comm_rank()'
p329
S'21'
p330
tp331
a(S'MPI_Comm_size()'
p332
S'22'
p333
tp334
a(S'MPI_Scatter()'
p335
S'36'
p336
tp337
a(S'MPI_Allgather()'
p338
S'48'
p339
tp340
a(S'MPI_Finalize()'
p341
S'57'
p342
tp343
asS'Coursework/C/ParallelComputing/Others/MPI1/IC1028/scatter.c'
p344
(lp345
(S'MPI_Init()'
p346
S'13'
p347
tp348
a(S'MPI_Comm_rank()'
p349
S'21'
p350
tp351
a(S'MPI_Comm_size()'
p352
S'22'
p353
tp354
a(S'MPI_Scatter()'
p355
S'36'
p356
tp357
a(S'MPI_Scatter()'
p358
S'42'
p359
tp360
a(S'MPI_Finalize()'
p361
S'55'
p362
tp363
asS'Coursework/C/ParallelComputing/Others/MPI1/ic1028.tar'
p364
(lp365
(S'MPI_Init()'
p366
S'11'
p367
tp368
a(S'MPI_Comm_rank()'
p369
S'17'
p370
tp371
a(S'MPI_Comm_size()'
p372
S'18'
p373
tp374
a(S'MPI_Bcast()'
p375
S'25'
p376
tp377
a(S'MPI_Bcast()'
p378
S'30'
p379
tp380
a(S'MPI_Finalize()'
p381
S'36'
p382
tp383
a(S'MPI_Init()'
p384
S'56'
p385
tp386
a(S'MPI_Comm_rank()'
p387
S'66'
p388
tp389
a(S'MPI_Comm_size()'
p390
S'67'
p391
tp392
a(S'MPI_Scatter()'
p393
S'82'
p394
tp395
a(S'MPI_Scatter()'
p396
S'86'
p397
tp398
a(S'MPI_Gather()'
p399
S'99'
p400
tp401
a(S'MPI_Gather()'
p402
S'103'
p403
tp404
a(S'MPI_Finalize()'
p405
S'118'
p406
tp407
a(S'MPI_Init()'
p408
S'136'
p409
tp410
a(S'MPI_Comm_rank()'
p411
S'146'
p412
tp413
a(S'MPI_Comm_size()'
p414
S'147'
p415
tp416
a(S'MPI_Scatter()'
p417
S'161'
p418
tp419
a(S'MPI_Allgather()'
p420
S'173'
p421
tp422
a(S'MPI_Finalize()'
p423
S'182'
p424
tp425
a(S'MPI_Init()'
p426
S'202'
p427
tp428
a(S'MPI_Comm_rank()'
p429
S'210'
p430
tp431
a(S'MPI_Comm_size()'
p432
S'211'
p433
tp434
a(S'MPI_Scatter()'
p435
S'225'
p436
tp437
a(S'MPI_Scatter()'
p438
S'231'
p439
tp440
a(S'MPI_Finalize()'
p441
S'244'
p442
tp443
a(S'MPI_Init()'
p444
S'262'
p445
tp446
a(S'MPI_Comm_rank()'
p447
S'268'
p448
tp449
a(S'MPI_Comm_size()'
p450
S'269'
p451
tp452
a(S'MPI_Bcast()'
p453
S'277'
p454
tp455
a(S'MPI_Finalize()'
p456
S'281'
p457
tp458
a(S'MPI_Init()'
p459
S'300'
p460
tp461
a(S'MPI_Comm_rank()'
p462
S'308'
p463
tp464
a(S'MPI_Comm_size()'
p465
S'309'
p466
tp467
a(S'MPI_Scatter()'
p468
S'323'
p469
tp470
a(S'MPI_Finalize()'
p471
S'335'
p472
tp473
a(S'MPI_Init()'
p474
S'356'
p475
tp476
a(S'MPI_Comm_rank()'
p477
S'364'
p478
tp479
a(S'MPI_Comm_size()'
p480
S'365'
p481
tp482
a(S'MPI_Scatter()'
p483
S'379'
p484
tp485
a(S'MPI_Scatter()'
p486
S'385'
p487
tp488
a(S'MPI_Finalize()'
p489
S'398'
p490
tp491
a(S'MPI_Init()'
p492
S'416'
p493
tp494
a(S'MPI_Comm_rank()'
p495
S'426'
p496
tp497
a(S'MPI_Comm_size()'
p498
S'427'
p499
tp500
a(S'MPI_Scatter()'
p501
S'441'
p502
tp503
a(S'MPI_Gather()'
p504
S'453'
p505
tp506
a(S'MPI_Finalize()'
p507
S'468'
p508
tp509
a(S'MPI_Init()'
p510
S'487'
p511
tp512
a(S'MPI_Comm_rank()'
p513
S'492'
p514
tp515
a(S'MPI_Comm_size()'
p516
S'493'
p517
tp518
a(S'MPI_Send()'
p519
S'496'
p520
tp521
a(S'MPI_Recv()'
p522
S'497'
p523
tp524
a(S'MPI_Send()'
p525
S'507'
p526
tp527
a(S'MPI_Recv()'
p528
S'511'
p529
tp530
a(S'MPI_Recv()'
p531
S'520'
p532
tp533
a(S'MPI_Send()'
p534
S'522'
p535
tp536
a(S'MPI_Finalize()'
p537
S'527'
p538
tp539
a(S'MPI_Init()'
p540
S'545'
p541
tp542
a(S'MPI_Comm_rank()'
p543
S'551'
p544
tp545
a(S'MPI_Comm_size()'
p546
S'552'
p547
tp548
a(S'MPI_Send()'
p549
S'561'
p550
tp551
a(S'MPI_Recv()'
p552
S'566'
p553
tp554
a(S'X_MPI_COMM_WORLD()'
p555
S'567'
p556
tp557
a(S'MPI_Finalize()'
p558
S'573'
p559
tp560
asS'Coursework/C/ParallelComputing/Others/MPI1/listcast.c'
p561
(lp562
(S'MPI_Init()'
p563
S'17'
p564
tp565
a(S'MPI_Comm_rank()'
p566
S'18'
p567
tp568
a(S'MPI_Comm_size()'
p569
S'19'
p570
tp571
a(S'MPI_Bcast()'
p572
S'25'
p573
tp574
a(S'MPI_Bcast()'
p575
S'26'
p576
tp577
a(S'MPI_Gather()'
p578
S'41'
p579
tp580
a(S'MPI_Bcast()'
p581
S'45'
p582
tp583
a(S'MPI_Gather()'
p584
S'60'
p585
tp586
a(S'MPI_Gather()'
p587
S'61'
p588
tp589
a(S'MPI_Gather()'
p590
S'62'
p591
tp592
a(S'MPI_Bcast()'
p593
S'73'
p594
tp595
a(S'MPI_Bcast()'
p596
S'74'
p597
tp598
a(S'MPI_Gather()'
p599
S'90'
p600
tp601
a(S'MPI_Bcast()'
p602
S'94'
p603
tp604
a(S'MPI_Gather()'
p605
S'109'
p606
tp607
a(S'MPI_Gather()'
p608
S'110'
p609
tp610
a(S'MPI_Gather()'
p611
S'111'
p612
tp613
a(S'MPI_Finalize()'
p614
S'114'
p615
tp616
asS'Coursework/C/ParallelComputing/Others/MPI1/ringring.c'
p617
(lp618
(S'MPI_Init()'
p619
S'21'
p620
tp621
a(S'MPI_Comm_rank()'
p622
S'22'
p623
tp624
a(S'MPI_Comm_size()'
p625
S'23'
p626
tp627
a(S'MPI_Send()'
p628
S'36'
p629
tp630
a(S'MPI_Recv()'
p631
S'37'
p632
tp633
a(S'MPI_Recv()'
p634
S'45'
p635
tp636
a(S'MPI_Send()'
p637
S'49'
p638
tp639
a(S'MPI_Send()'
p640
S'54'
p641
tp642
a(S'MPI_Finalize()'
p643
S'60'
p644
tp645
asS'Coursework/C/ParallelComputing/Others/MPI1/IC1028/bcast.c'
p646
(lp647
(S'MPI_Init()'
p648
S'11'
p649
tp650
a(S'MPI_Comm_rank()'
p651
S'17'
p652
tp653
a(S'MPI_Comm_size()'
p654
S'18'
p655
tp656
a(S'MPI_Bcast()'
p657
S'25'
p658
tp659
a(S'MPI_Bcast()'
p660
S'30'
p661
tp662
a(S'MPI_Finalize()'
p663
S'36'
p664
tp665
asS'Coursework/C/ParallelComputing/Others/MPI1/tagstat.c'
p666
(lp667
(S'MPI_Init()'
p668
S'16'
p669
tp670
a(S'MPI_Comm_rank()'
p671
S'22'
p672
tp673
a(S'MPI_Comm_size()'
p674
S'23'
p675
tp676
a(S'MPI_Recv()'
p677
S'37'
p678
tp679
a(S'X_MPI_COMM_WORLD()'
p680
S'38'
p681
tp682
a(S'MPI_Send()'
p683
S'54'
p684
tp685
a(S'MPI_Send()'
p686
S'58'
p687
tp688
a(S'MPI_Finalize()'
p689
S'63'
p690
tp691
asS'Coursework/C/ParallelComputing/Others/MPI1/IC1028/gather.c'
p692
(lp693
(S'MPI_Init()'
p694
S'11'
p695
tp696
a(S'MPI_Comm_rank()'
p697
S'21'
p698
tp699
a(S'MPI_Comm_size()'
p700
S'22'
p701
tp702
a(S'MPI_Scatter()'
p703
S'36'
p704
tp705
a(S'MPI_Gather()'
p706
S'48'
p707
tp708
a(S'MPI_Finalize()'
p709
S'63'
p710
tp711
asS'Coursework/C/ParallelComputing/Others/MPI1/onesendrec.c'
p712
(lp713
(S'MPI_Init()'
p714
S'11'
p715
tp716
a(S'MPI_Comm_rank()'
p717
S'12'
p718
tp719
a(S'MPI_Comm_size()'
p720
S'13'
p721
tp722
a(S'MPI_Abort()'
p723
S'19'
p724
tp725
a(S'MPI_Send()'
p726
S'27'
p727
tp728
a(S'MPI_Recv()'
p729
S'31'
p730
tp731
a(S'MPI_Finalize()'
p732
S'35'
p733
tp734
asS'Coursework/C/ParallelComputing/Others/MPI1/ringringworldsize.c'
p735
(lp736
(S'MPI_Init()'
p737
S'23'
p738
tp739
a(S'MPI_Comm_rank()'
p740
S'24'
p741
tp742
a(S'MPI_Comm_size()'
p743
S'25'
p744
tp745
a(S'MPI_Send()'
p746
S'38'
p747
tp748
a(S'MPI_Recv()'
p749
S'39'
p750
tp751
a(S'MPI_Recv()'
p752
S'47'
p753
tp754
a(S'MPI_Send()'
p755
S'51'
p756
tp757
a(S'MPI_Send()'
p758
S'56'
p759
tp760
a(S'MPI_Finalize()'
p761
S'62'
p762
tp763
asS'Coursework/C/ParallelComputing/Others/PProgRPS.c'
p764
(lp765
(S'MPI_Init()'
p766
S'45'
p767
tp768
a(S'MPI_Comm_rank()'
p769
S'46'
p770
tp771
a(S'MPI_Comm_size()'
p772
S'47'
p773
tp774
a(S'MPI_Finalize()'
p775
S'56'
p776
tp777
a(S'MPI_Bcast()'
p778
S'78'
p779
tp780
a(S'MPI_Send()'
p781
S'95'
p782
tp783
a(S'MPI_Recv()'
p784
S'100'
p785
tp786
a(S'MPI_Send()'
p787
S'110'
p788
tp789
a(S'MPI_Recv()'
p790
S'113'
p791
tp792
a(S'MPI_Bcast()'
p793
S'120'
p794
tp795
a(S'MPI_Barrier()'
p796
S'122'
p797
tp798
a(S'MPI_Send()'
p799
S'135'
p800
tp801
a(S'MPI_Recv()'
p802
S'140'
p803
tp804
a(S'MPI_Send()'
p805
S'167'
p806
tp807
a(S'MPI_Recv()'
p808
S'168'
p809
tp810
a(S'MPI_Recv()'
p811
S'183'
p812
tp813
a(S'MPI_Send()'
p814
S'189'
p815
tp816
a(S'MPI_Send()'
p817
S'210'
p818
tp819
a(S'MPI_Recv()'
p820
S'211'
p821
tp822
a(S'MPI_Send()'
p823
S'239'
p824
tp825
a(S'MPI_Recv()'
p826
S'240'
p827
tp828
a(S'MPI_Recv()'
p829
S'255'
p830
tp831
a(S'MPI_Send()'
p832
S'261'
p833
tp834
a(S'MPI_Recv()'
p835
S'278'
p836
tp837
a(S'MPI_Send()'
p838
S'284'
p839
tp840
a(S'MPI_Send()'
p841
S'313'
p842
tp843
a(S'MPI_Recv()'
p844
S'314'
p845
tp846
a(S'MPI_Recv()'
p847
S'325'
p848
tp849
a(S'MPI_Send()'
p850
S'332'
p851
tp852
a(S'MPI_Recv()'
p853
S'347'
p854
tp855
a(S'MPI_Send()'
p856
S'354'
p857
tp858
a(S'MPI_Send()'
p859
S'371'
p860
tp861
a(S'MPI_Recv()'
p862
S'372'
p863
tp864
a(S'MPI_Gather()'
p865
S'394'
p866
tp867
a(S'MPI_Gather()'
p868
S'412'
p869
tp870
a(S'MPI_Finalize()'
p871
S'416'
p872
tp873
asS'Coursework/C/ParallelComputing/Others/NoFunmpihash.c'
p874
(lp875
(S'MPI_Init()'
p876
S'29'
p877
tp878
a(S'MPI_Comm_rank()'
p879
S'30'
p880
tp881
a(S'MPI_Comm_size()'
p882
S'31'
p883
tp884
a(S'MPI_Finalize()'
p885
S'60'
p886
tp887
a(S'MPI_Finalize()'
p888
S'68'
p889
tp890
asS'Coursework/C/ParallelComputing/Others/RPS/RPSold.c'
p891
(lp892
(S'MPI_Init()'
p893
S'26'
p894
tp895
a(S'MPI_Comm_rank()'
p896
S'27'
p897
tp898
a(S'MPI_Comm_size()'
p899
S'28'
p900
tp901
a(S'MPI_Abort()'
p902
S'34'
p903
tp904
a(S'MPI_Bcast()'
p905
S'55'
p906
tp907
a(S'MPI_Send()'
p908
S'69'
p909
tp910
a(S'MPI_Recv()'
p911
S'74'
p912
tp913
a(S'MPI_Send()'
p914
S'83'
p915
tp916
a(S'MPI_Recv()'
p917
S'85'
p918
tp919
a(S'MPI_Send()'
p920
S'98'
p921
tp922
a(S'MPI_Recv()'
p923
S'99'
p924
tp925
a(S'MPI_Recv()'
p926
S'103'
p927
tp928
a(S'MPI_Send()'
p929
S'104'
p930
tp931
a(S'MPI_Send()'
p932
S'109'
p933
tp934
a(S'MPI_Recv()'
p935
S'110'
p936
tp937
a(S'MPI_Send()'
p938
S'119'
p939
tp940
a(S'MPI_Recv()'
p941
S'120'
p942
tp943
a(S'MPI_Recv()'
p944
S'124'
p945
tp946
a(S'MPI_Send()'
p947
S'125'
p948
tp949
a(S'MPI_Recv()'
p950
S'130'
p951
tp952
a(S'MPI_Send()'
p953
S'131'
p954
tp955
a(S'MPI_Finalize()'
p956
S'140'
p957
tp958
asS'Coursework/C/ParallelComputing/Others/MPI1/ring19.c'
p959
(lp960
(S'MPI_Init()'
p961
S'17'
p962
tp963
a(S'MPI_Comm_rank()'
p964
S'22'
p965
tp966
a(S'MPI_Comm_size()'
p967
S'23'
p968
tp969
a(S'MPI_Send()'
p970
S'26'
p971
tp972
a(S'MPI_Recv()'
p973
S'27'
p974
tp975
a(S'MPI_Send()'
p976
S'36'
p977
tp978
a(S'MPI_Recv()'
p979
S'38'
p980
tp981
a(S'MPI_Recv()'
p982
S'44'
p983
tp984
a(S'MPI_Send()'
p985
S'45'
p986
tp987
a(S'MPI_Recv()'
p988
S'51'
p989
tp990
a(S'MPI_Send()'
p991
S'52'
p992
tp993
a(S'MPI_Recv()'
p994
S'58'
p995
tp996
a(S'MPI_Send()'
p997
S'59'
p998
tp999
a(S'MPI_Finalize()'
p1000
S'64'
p1001
tp1002
asS'Coursework/C/ParallelComputing/Others/Funmpihash.c'
p1003
(lp1004
(S'MPI_Init()'
p1005
S'30'
p1006
tp1007
a(S'MPI_Comm_rank()'
p1008
S'31'
p1009
tp1010
a(S'MPI_Comm_size()'
p1011
S'32'
p1012
tp1013
a(S'MPI_Finalize()'
p1014
S'54'
p1015
tp1016
asS'Coursework/C/ParallelComputing/FinalProject/RPS.c'
p1017
(lp1018
(S'MPI_Init()'
p1019
S'45'
p1020
tp1021
a(S'MPI_Comm_rank()'
p1022
S'46'
p1023
tp1024
a(S'MPI_Comm_size()'
p1025
S'47'
p1026
tp1027
a(S'MPI_Finalize()'
p1028
S'56'
p1029
tp1030
a(S'MPI_Bcast()'
p1031
S'78'
p1032
tp1033
a(S'MPI_Send()'
p1034
S'95'
p1035
tp1036
a(S'MPI_Recv()'
p1037
S'100'
p1038
tp1039
a(S'MPI_Send()'
p1040
S'110'
p1041
tp1042
a(S'MPI_Recv()'
p1043
S'113'
p1044
tp1045
a(S'MPI_Bcast()'
p1046
S'120'
p1047
tp1048
a(S'MPI_Barrier()'
p1049
S'122'
p1050
tp1051
a(S'MPI_Send()'
p1052
S'135'
p1053
tp1054
a(S'MPI_Recv()'
p1055
S'140'
p1056
tp1057
a(S'MPI_Send()'
p1058
S'167'
p1059
tp1060
a(S'MPI_Recv()'
p1061
S'168'
p1062
tp1063
a(S'MPI_Recv()'
p1064
S'183'
p1065
tp1066
a(S'MPI_Send()'
p1067
S'189'
p1068
tp1069
a(S'MPI_Send()'
p1070
S'210'
p1071
tp1072
a(S'MPI_Recv()'
p1073
S'211'
p1074
tp1075
a(S'MPI_Send()'
p1076
S'239'
p1077
tp1078
a(S'MPI_Recv()'
p1079
S'240'
p1080
tp1081
a(S'MPI_Recv()'
p1082
S'255'
p1083
tp1084
a(S'MPI_Send()'
p1085
S'261'
p1086
tp1087
a(S'MPI_Recv()'
p1088
S'278'
p1089
tp1090
a(S'MPI_Send()'
p1091
S'284'
p1092
tp1093
a(S'MPI_Send()'
p1094
S'309'
p1095
tp1096
a(S'MPI_Recv()'
p1097
S'310'
p1098
tp1099
a(S'MPI_Recv()'
p1100
S'317'
p1101
tp1102
a(S'MPI_Send()'
p1103
S'324'
p1104
tp1105
a(S'MPI_Recv()'
p1106
S'335'
p1107
tp1108
a(S'MPI_Send()'
p1109
S'342'
p1110
tp1111
a(S'MPI_Send()'
p1112
S'355'
p1113
tp1114
a(S'MPI_Recv()'
p1115
S'356'
p1116
tp1117
a(S'MPI_Gather()'
p1118
S'378'
p1119
tp1120
a(S'MPI_Gather()'
p1121
S'396'
p1122
tp1123
a(S'MPI_Finalize()'
p1124
S'400'
p1125
tp1126
asS'Coursework/C/ParallelComputing/Others/fuelmpi.c'
p1127
(lp1128
(S'MPI_Init()'
p1129
S'92'
p1130
tp1131
a(S'MPI_Comm_rank()'
p1132
S'93'
p1133
tp1134
a(S'MPI_Comm_size()'
p1135
S'94'
p1136
tp1137
a(S'MPI_Finalize()'
p1138
S'99'
p1139
tp1140
a(S'MPI_Bcast()'
p1141
S'103'
p1142
tp1143
a(S'MPI_Gather()'
p1144
S'116'
p1145
tp1146
a(S'MPI_Finalize()'
p1147
S'132'
p1148
tp1149
asS'Coursework/C/ParallelComputing/Others/mpihash.c'
p1150
(lp1151
(S'MPI_Init()'
p1152
S'29'
p1153
tp1154
a(S'MPI_Comm_rank()'
p1155
S'30'
p1156
tp1157
a(S'MPI_Comm_size()'
p1158
S'31'
p1159
tp1160
a(S'MPI_Finalize()'
p1161
S'60'
p1162
tp1163
a(S'MPI_Finalize()'
p1164
S'68'
p1165
tp1166
asS'Coursework/C/ParallelComputing/Others/MPI1/IC1028/startpractice.c'
p1167
(lp1168
(S'MPI_Init()'
p1169
S'12'
p1170
tp1171
a(S'MPI_Comm_rank()'
p1172
S'18'
p1173
tp1174
a(S'MPI_Comm_size()'
p1175
S'19'
p1176
tp1177
a(S'MPI_Send()'
p1178
S'31'
p1179
tp1180
a(S'MPI_Recv()'
p1181
S'35'
p1182
tp1183
a(S'MPI_Recv()'
p1184
S'42'
p1185
tp1186
a(S'X_MPI_COMM_WORLD()'
p1187
S'43'
p1188
tp1189
a(S'MPI_Send()'
p1190
S'48'
p1191
tp1192
a(S'MPI_Finalize()'
p1193
S'53'
p1194
tp1195
asS'Coursework/C/ParallelComputing/Others/MPI1/tagstat.c.save'
p1196
(lp1197
(S'MPI_Init()'
p1198
S'16'
p1199
tp1200
a(S'MPI_Comm_rank()'
p1201
S'22'
p1202
tp1203
a(S'MPI_Comm_size()'
p1204
S'23'
p1205
tp1206
a(S'MPI_Recv()'
p1207
S'37'
p1208
tp1209
a(S'X_MPI_COMM_WORLD()'
p1210
S'38'
p1211
tp1212
a(S'MPI_Send()'
p1213
S'54'
p1214
tp1215
a(S'MPI_Send()'
p1216
S'58'
p1217
tp1218
a(S'MPI_Finalize()'
p1219
S'63'
p1220
tp1221
asS'Coursework/C/ParallelComputing/Others/tryRPS.c'
p1222
(lp1223
(S'MPI_Init()'
p1224
S'45'
p1225
tp1226
a(S'MPI_Comm_rank()'
p1227
S'46'
p1228
tp1229
a(S'MPI_Comm_size()'
p1230
S'47'
p1231
tp1232
a(S'MPI_Finalize()'
p1233
S'56'
p1234
tp1235
a(S'MPI_Bcast()'
p1236
S'78'
p1237
tp1238
a(S'MPI_Send()'
p1239
S'95'
p1240
tp1241
a(S'MPI_Recv()'
p1242
S'100'
p1243
tp1244
a(S'MPI_Send()'
p1245
S'110'
p1246
tp1247
a(S'MPI_Recv()'
p1248
S'113'
p1249
tp1250
a(S'MPI_Bcast()'
p1251
S'120'
p1252
tp1253
a(S'MPI_Barrier()'
p1254
S'122'
p1255
tp1256
a(S'MPI_Send()'
p1257
S'135'
p1258
tp1259
a(S'MPI_Recv()'
p1260
S'140'
p1261
tp1262
a(S'MPI_Send()'
p1263
S'167'
p1264
tp1265
a(S'MPI_Recv()'
p1266
S'168'
p1267
tp1268
a(S'MPI_Recv()'
p1269
S'183'
p1270
tp1271
a(S'MPI_Send()'
p1272
S'189'
p1273
tp1274
a(S'MPI_Send()'
p1275
S'210'
p1276
tp1277
a(S'MPI_Recv()'
p1278
S'211'
p1279
tp1280
a(S'MPI_Send()'
p1281
S'239'
p1282
tp1283
a(S'MPI_Recv()'
p1284
S'240'
p1285
tp1286
a(S'MPI_Recv()'
p1287
S'255'
p1288
tp1289
a(S'MPI_Send()'
p1290
S'261'
p1291
tp1292
a(S'MPI_Recv()'
p1293
S'278'
p1294
tp1295
a(S'MPI_Send()'
p1296
S'284'
p1297
tp1298
a(S'MPI_Send()'
p1299
S'309'
p1300
tp1301
a(S'MPI_Recv()'
p1302
S'310'
p1303
tp1304
a(S'MPI_Recv()'
p1305
S'317'
p1306
tp1307
a(S'MPI_Send()'
p1308
S'324'
p1309
tp1310
a(S'MPI_Recv()'
p1311
S'333'
p1312
tp1313
a(S'MPI_Send()'
p1314
S'340'
p1315
tp1316
a(S'MPI_Send()'
p1317
S'353'
p1318
tp1319
a(S'MPI_Recv()'
p1320
S'354'
p1321
tp1322
a(S'MPI_Recv()'
p1323
S'366'
p1324
tp1325
a(S'MPI_Send()'
p1326
S'373'
p1327
tp1328
a(S'MPI_Send()'
p1329
S'386'
p1330
tp1331
a(S'MPI_Recv()'
p1332
S'387'
p1333
tp1334
a(S'MPI_Send()'
p1335
S'398'
p1336
tp1337
a(S'MPI_Recv()'
p1338
S'399'
p1339
tp1340
a(S'MPI_Recv()'
p1341
S'406'
p1342
tp1343
a(S'MPI_Send()'
p1344
S'413'
p1345
tp1346
a(S'MPI_Gather()'
p1347
S'435'
p1348
tp1349
a(S'MPI_Gather()'
p1350
S'453'
p1351
tp1352
a(S'MPI_Finalize()'
p1353
S'457'
p1354
tp1355
asS'Coursework/C/ParallelComputing/Others/MPI1/IC1028/gather2.c'
p1356
(lp1357
(S'MPI_Init()'
p1358
S'13'
p1359
tp1360
a(S'MPI_Comm_rank()'
p1361
S'23'
p1362
tp1363
a(S'MPI_Comm_size()'
p1364
S'24'
p1365
tp1366
a(S'MPI_Scatter()'
p1367
S'39'
p1368
tp1369
a(S'MPI_Scatter()'
p1370
S'43'
p1371
tp1372
a(S'MPI_Gather()'
p1373
S'56'
p1374
tp1375
a(S'MPI_Gather()'
p1376
S'60'
p1377
tp1378
a(S'MPI_Finalize()'
p1379
S'75'
p1380
tp1381
as.