ccollections
defaultdict
p0
(c__builtin__
list
p1
tp2
Rp3
S'chapel_aroon_benchmarks_cleaned/third-party/gasnet/GASNet-1.24.0/tests/mpi/testosumpi_bw.c'
p4
(lp5
(S'MPI_Init()'
p6
S'42'
p7
tp8
a(S'MPI_Comm_size()'
p9
S'43'
p10
tp11
a(S'MPI_Comm_rank()'
p12
S'44'
p13
tp14
a(S'MPI_Wtime()'
p15
S'80'
p16
tp17
a(S'MPI_Isend()'
p18
S'82'
p19
tp20
a(S'X_MPI_COMM_WORLD()'
p21
S'83'
p22
tp23
a(S'MPI_Waitall()'
p24
S'85'
p25
tp26
a(S'MPI_Recv()'
p27
S'86'
p28
tp29
a(S'MPI_Wtime()'
p30
S'91'
p31
tp32
a(S'MPI_Irecv()'
p33
S'99'
p34
tp35
a(S'X_MPI_COMM_WORLD()'
p36
S'100'
p37
tp38
a(S'MPI_Waitall()'
p39
S'102'
p40
tp41
a(S'MPI_Send()'
p42
S'103'
p43
tp44
a(S'MPI_Finalize()'
p45
S'125'
p46
tp47
asS'chapel_aroon_benchmarks_cleaned/third-party/qthread/qthread-1.10/test/benchmarks/mantevo/hpccg/main.cpp'
p48
(lp49
(S'MPI_Init()'
p50
S'109'
p51
tp52
a(S'MPI_Comm_size()'
p53
S'111'
p54
tp55
a(S'MPI_Comm_rank()'
p56
S'112'
p57
tp58
a(S'MPI_Barrier()'
p59
S'130'
p60
tp61
a(S'MPI_Allreduce()'
p62
S'177'
p63
tp64
a(S'MPI_Allreduce()'
p65
S'178'
p66
tp67
a(S'MPI_Allreduce()'
p68
S'179'
p69
tp70
a(S'MPI_Finalize()'
p71
S'236'
p72
tp73
asS'chapel_aroon_benchmarks_cleaned/third-party/qthread/qthread-1.10/test/benchmarks/mantevo/hpccg/generate_matrix.cpp'
p74
(lp75
(S'MPI_Comm_size()'
p76
S'58'
p77
tp78
a(S'MPI_Comm_rank()'
p79
S'59'
p80
tp81
asS'chapel_aroon_benchmarks_cleaned/third-party/qthread/qthread-1.10/test/benchmarks/mantevo/hpccg/make_local_matrix.cpp'
p82
(lp83
(S'MPI_Comm_size()'
p84
S'62'
p85
tp86
a(S'MPI_Comm_rank()'
p87
S'63'
p88
tp89
a(S'MPI_Allreduce()'
p90
S'172'
p91
tp92
a(S'X_MPI_SUM()'
p93
S'173'
p94
tp95
a(S'MPI_Allreduce()'
p96
S'291'
p97
tp98
a(S'MPI_Irecv()'
p99
S'374'
p100
tp101
a(S'X_MPI_COMM_WORLD()'
p102
S'375'
p103
tp104
a(S'MPI_Send()'
p105
S'381'
p106
tp107
a(S'MPI_Irecv()'
p108
S'473'
p109
tp110
a(S'MPI_Send()'
p111
S'506'
p112
tp113
a(S'MPI_Irecv()'
p114
S'533'
p115
tp116
a(S'X_MPI_MY_TAG()'
p117
S'534'
p118
tp119
a(S'MPI_Send()'
p120
S'555'
p121
tp122
a(S'X_MPI_MY_TAG()'
p123
S'556'
p124
tp125
asS'chapel_aroon_benchmarks_cleaned/third-party/gasnet/GASNet-1.24.0/tests/mpi/testosumpi2_put_lat.c'
p126
(lp127
(S'MPI_Init()'
p128
S'33'
p129
tp130
a(S'MPI_Comm_size()'
p131
S'34'
p132
tp133
a(S'MPI_Comm_rank()'
p134
S'35'
p135
tp136
a(S'MPI_Abort()'
p137
S'39'
p138
tp139
a(S'MPI_Comm_group()'
p140
S'59'
p141
tp142
a(S'MPI_Win_create()'
p143
S'65'
p144
tp145
a(S'MPI_Group_incl()'
p146
S'67'
p147
tp148
a(S'MPI_Barrier()'
p149
S'68'
p150
tp151
a(S'MPI_Win_start()'
p152
S'72'
p153
tp154
a(S'MPI_Put()'
p155
S'76'
p156
tp157
a(S'MPI_Win_complete()'
p158
S'77'
p159
tp160
a(S'MPI_Win_post()'
p161
S'78'
p162
tp163
a(S'MPI_Win_wait()'
p164
S'79'
p165
tp166
a(S'MPI_Win_create()'
p167
S'84'
p168
tp169
a(S'MPI_Group_incl()'
p170
S'86'
p171
tp172
a(S'MPI_Barrier()'
p173
S'88'
p174
tp175
a(S'MPI_Win_post()'
p176
S'92'
p177
tp178
a(S'MPI_Win_wait()'
p179
S'93'
p180
tp181
a(S'MPI_Win_start()'
p182
S'94'
p183
tp184
a(S'MPI_Put()'
p185
S'95'
p186
tp187
a(S'MPI_Win_complete()'
p188
S'96'
p189
tp190
a(S'MPI_Barrier()'
p191
S'104'
p192
tp193
a(S'MPI_Group_free()'
p194
S'105'
p195
tp196
a(S'MPI_Win_free()'
p197
S'107'
p198
tp199
a(S'MPI_Group_free()'
p200
S'110'
p201
tp202
a(S'MPI_Finalize()'
p203
S'111'
p204
tp205
asS'chapel_aroon_benchmarks_cleaned/third-party/gasnet/GASNet-1.24.0/configure'
p206
(lp207
(S'MPI_Init()'
p208
S'132156'
p209
tp210
a(S'MPI_Finalize()'
p211
S'132157'
p212
tp213
a(S'MPI_Init()'
p214
S'132313'
p215
tp216
a(S'MPI_Finalize()'
p217
S'132314'
p218
tp219
asS'chapel_aroon_benchmarks_cleaned/test/studies/hpcc/RA/diten/c_mpi/mpi_issend/ra.c'
p220
(lp221
(S'MPI_Test()'
p222
S'42'
p223
tp224
a(S'MPI_Irecv()'
p225
S'53'
p226
tp227
a(S'MPI_Issend()'
p228
S'66'
p229
tp230
a(S'MPI_Test()'
p231
S'69'
p232
tp233
a(S'MPI_Init()'
p234
S'94'
p235
tp236
a(S'MPI_Comm_rank()'
p237
S'95'
p238
tp239
a(S'MPI_Comm_size()'
p240
S'96'
p241
tp242
a(S'MPI_Abort()'
p243
S'110'
p244
tp245
a(S'MPI_Barrier()'
p246
S'118'
p247
tp248
a(S'MPI_Irecv()'
p249
S'128'
p250
tp251
a(S'MPI_Barrier()'
p252
S'153'
p253
tp254
a(S'MPI_Reduce()'
p255
S'166'
p256
tp257
a(S'MPI_Finalize()'
p258
S'179'
p259
tp260
asS'chapel_aroon_benchmarks_cleaned/third-party/gasnet/GASNet-1.24.0/tests/testmpi.c'
p261
(lp262
(S'MPI_SAFE()'
p263
S'73'
p264
tp265
a(S'MPI_SAFE()'
p266
S'76'
p267
tp268
a(S'MPI_SAFE()'
p269
S'83'
p270
tp271
a(S'MPI_SAFE()'
p272
S'101'
p273
tp274
a(S'MPI_SAFE()'
p275
S'107'
p276
tp277
a(S'MPI_SAFE()'
p278
S'108'
p279
tp280
a(S'MPI_SAFE()'
p281
S'114'
p282
tp283
a(S'MPI_SAFE()'
p284
S'134'
p285
tp286
a(S'MPI_SAFE()'
p287
S'152'
p288
tp289
a(S'MPI_SAFE()'
p290
S'159'
p291
tp292
a(S'MPI_LOCK()'
p293
S'189'
p294
tp295
a(S'MPI_SAFE()'
p296
S'198'
p297
tp298
a(S'MPI_UNLOCK()'
p299
S'201'
p300
tp301
a(S'MPI_LOCK()'
p302
S'215'
p303
tp304
a(S'MPI_SAFE()'
p305
S'219'
p306
tp307
a(S'MPI_SAFE()'
p308
S'226'
p309
tp310
a(S'MPI_SAFE()'
p311
S'232'
p312
tp313
a(S'MPI_UNLOCK()'
p314
S'241'
p315
tp316
a(S'MPI_LOCK()'
p317
S'267'
p318
tp319
a(S'MPI_SAFE()'
p320
S'269'
p321
tp322
a(S'MPI_UNLOCK()'
p323
S'271'
p324
tp325
a(S'MPI_LOCK()'
p326
S'308'
p327
tp328
a(S'MPI_SAFE()'
p329
S'311'
p330
tp331
a(S'MPI_SAFE()'
p332
S'315'
p333
tp334
a(S'MPI_UNLOCK()'
p335
S'318'
p336
tp337
asS'chapel_aroon_benchmarks_cleaned/third-party/gasnet/GASNet-1.24.0/tests/mpi/testosumpi_lat.c'
p338
(lp339
(S'MPI_Init()'
p340
S'38'
p341
tp342
a(S'MPI_Comm_size()'
p343
S'39'
p344
tp345
a(S'MPI_Comm_rank()'
p346
S'40'
p347
tp348
a(S'MPI_Barrier()'
p349
S'75'
p350
tp351
a(S'MPI_Wtime()'
p352
S'80'
p353
tp354
a(S'MPI_Send()'
p355
S'81'
p356
tp357
a(S'MPI_Recv()'
p358
S'83'
p359
tp360
a(S'MPI_Recv()'
p361
S'85'
p362
tp363
a(S'MPI_Wtime()'
p364
S'87'
p365
tp366
a(S'MPI_Recv()'
p367
S'91'
p368
tp369
a(S'MPI_Send()'
p370
S'93'
p371
tp372
a(S'MPI_Send()'
p373
S'95'
p374
tp375
a(S'MPI_Finalize()'
p376
S'112'
p377
tp378
asS'chapel_aroon_benchmarks_cleaned/third-party/qthread/qthread-1.10/src/net/portals4/runtime-mpi.c'
p379
(lp380
(S'MPI_Initialized()'
p381
S'29'
p382
tp383
a(S'MPI_Finalized()'
p384
S'55'
p385
tp386
a(S'MPI_Finalize()'
p387
S'57'
p388
tp389
a(S'MPI_Barrier()'
p390
S'93'
p391
tp392
asS'chapel_aroon_benchmarks_cleaned/third-party/gasnet/GASNet-1.24.0/tests/mpi/testosumpi_bcast_lat.c'
p393
(lp394
(S'MPI_Init()'
p395
S'36'
p396
tp397
a(S'MPI_Comm_rank()'
p398
S'37'
p399
tp400
a(S'MPI_Comm_size()'
p401
S'38'
p402
tp403
a(S'MPI_Barrier()'
p404
S'45'
p405
tp406
a(S'MPI_Barrier()'
p407
S'53'
p408
tp409
a(S'MPI_Bcast()'
p410
S'62'
p411
tp412
a(S'MPI_Recv()'
p413
S'65'
p414
tp415
a(S'MPI_Send()'
p416
S'72'
p417
tp418
a(S'MPI_Barrier()'
p419
S'88'
p420
tp421
a(S'MPI_Finalize()'
p422
S'91'
p423
tp424
a(S'MPI_Send()'
p425
S'105'
p426
tp427
a(S'MPI_Recv()'
p428
S'106'
p429
tp430
a(S'MPI_Recv()'
p431
S'113'
p432
tp433
a(S'MPI_Send()'
p434
S'115'
p435
tp436
asS'chapel_aroon_benchmarks_cleaned/third-party/gasnet/GASNet-1.24.0/tests/mpi/testosumpi2_get_lat.c'
p437
(lp438
(S'MPI_Init()'
p439
S'33'
p440
tp441
a(S'MPI_Comm_size()'
p442
S'34'
p443
tp444
a(S'MPI_Comm_rank()'
p445
S'35'
p446
tp447
a(S'MPI_Abort()'
p448
S'39'
p449
tp450
a(S'MPI_Comm_group()'
p451
S'59'
p452
tp453
a(S'MPI_Win_create()'
p454
S'65'
p455
tp456
a(S'MPI_Group_incl()'
p457
S'67'
p458
tp459
a(S'MPI_Barrier()'
p460
S'68'
p461
tp462
a(S'MPI_Win_start()'
p463
S'72'
p464
tp465
a(S'MPI_Get()'
p466
S'76'
p467
tp468
a(S'MPI_Win_complete()'
p469
S'77'
p470
tp471
a(S'MPI_Win_post()'
p472
S'78'
p473
tp474
a(S'MPI_Win_wait()'
p475
S'79'
p476
tp477
a(S'MPI_Win_create()'
p478
S'84'
p479
tp480
a(S'MPI_Group_incl()'
p481
S'86'
p482
tp483
a(S'MPI_Barrier()'
p484
S'88'
p485
tp486
a(S'MPI_Win_post()'
p487
S'92'
p488
tp489
a(S'MPI_Win_wait()'
p490
S'93'
p491
tp492
a(S'MPI_Win_start()'
p493
S'94'
p494
tp495
a(S'MPI_Get()'
p496
S'95'
p497
tp498
a(S'MPI_Win_complete()'
p499
S'96'
p500
tp501
a(S'MPI_Barrier()'
p502
S'104'
p503
tp504
a(S'MPI_Group_free()'
p505
S'105'
p506
tp507
a(S'MPI_Win_free()'
p508
S'107'
p509
tp510
a(S'MPI_Group_free()'
p511
S'110'
p512
tp513
a(S'MPI_Finalize()'
p514
S'111'
p515
tp516
asS'chapel_aroon_benchmarks_cleaned/third-party/gasnet/GASNet-1.24.0/other/ammpi/ammpi_ep.c'
p517
(lp518
(S'MPI_SAFE()'
p519
S'183'
p520
tp521
a(S'MPI_SAFE()'
p522
S'188'
p523
tp524
a(S'MPI_SAFE()'
p525
S'189'
p526
tp527
a(S'MPI_SAFE()'
p528
S'190'
p529
tp530
a(S'MPI_SAFE()'
p531
S'193'
p532
tp533
a(S'MPI_SAFE()'
p534
S'196'
p535
tp536
a(S'MPI_SAFE()'
p537
S'197'
p538
tp539
a(S'MPI_SAFE()'
p540
S'266'
p541
tp542
a(S'MPI_SAFE()'
p543
S'267'
p544
tp545
a(S'MPI_SAFE()'
p546
S'332'
p547
tp548
a(S'X_MPI_ANY_SOURCE()'
p549
S'333'
p550
tp551
a(S'MPI_SAFE()'
p552
S'481'
p553
tp554
a(S'MPI_SAFE()'
p555
S'530'
p556
tp557
a(S'MPI_SAFE()'
p558
S'670'
p559
tp560
a(S'MPI_SAFE()'
p561
S'700'
p562
tp563
a(S'MPI_SAFE()'
p564
S'908'
p565
tp566
a(S'MPI_SAFE()'
p567
S'926'
p568
tp569
asS'chapel_aroon_benchmarks_cleaned/third-party/gasnet/GASNet-1.24.0/configure.in'
p570
(lp571
(S'MPI_Init()'
p572
S'2457'
p573
tp574
a(S'MPI_Finalize()'
p575
S'2458'
p576
tp577
a(S'MPI_Init()'
p578
S'2468'
p579
tp580
a(S'MPI_Finalize()'
p581
S'2469'
p582
tp583
asS'chapel_aroon_benchmarks_cleaned/third-party/qthread/qthread-1.10/test/benchmarks/mantevo/hpccg/compute_residual.cpp'
p584
(lp585
(S'MPI_Allreduce()'
p586
S'106'
p587
tp588
a(S'MPI_Allreduce()'
p589
S'136'
p590
tp591
asS'chapel_aroon_benchmarks_cleaned/third-party/gasnet/GASNet-1.24.0/tests/mpi/testosumpi2_get_bw.c'
p592
(lp593
(S'MPI_Init()'
p594
S'39'
p595
tp596
a(S'MPI_Comm_size()'
p597
S'40'
p598
tp599
a(S'MPI_Comm_rank()'
p600
S'41'
p601
tp602
a(S'MPI_Comm_group()'
p603
S'42'
p604
tp605
a(S'MPI_Win_create()'
p606
S'65'
p607
tp608
a(S'MPI_Group_incl()'
p609
S'68'
p610
tp611
a(S'MPI_Win_start()'
p612
S'71'
p613
tp614
a(S'MPI_Get()'
p615
S'72'
p616
tp617
a(S'MPI_Win_complete()'
p618
S'73'
p619
tp620
a(S'MPI_Win_create()'
p621
S'76'
p622
tp623
a(S'MPI_Group_incl()'
p624
S'78'
p625
tp626
a(S'MPI_Win_post()'
p627
S'81'
p628
tp629
a(S'MPI_Win_wait()'
p630
S'82'
p631
tp632
a(S'MPI_Barrier()'
p633
S'86'
p634
tp635
a(S'MPI_Win_start()'
p636
S'93'
p637
tp638
a(S'MPI_Get()'
p639
S'96'
p640
tp641
a(S'MPI_Win_complete()'
p642
S'98'
p643
tp644
a(S'MPI_Barrier()'
p645
S'101'
p646
tp647
a(S'MPI_Win_post()'
p648
S'107'
p649
tp650
a(S'MPI_Win_wait()'
p651
S'108'
p652
tp653
a(S'MPI_Barrier()'
p654
S'110'
p655
tp656
a(S'MPI_Win_free()'
p657
S'124'
p658
tp659
a(S'MPI_Barrier()'
p660
S'126'
p661
tp662
a(S'MPI_Finalize()'
p663
S'127'
p664
tp665
asS'chapel_aroon_benchmarks_cleaned/third-party/qthread/qthread-1.10/test/benchmarks/mantevo/hpccg/read_HPC_row.cpp'
p666
(lp667
(S'MPI_Comm_size()'
p668
S'81'
p669
tp670
a(S'MPI_Comm_rank()'
p671
S'82'
p672
tp673
asS'chapel_aroon_benchmarks_cleaned/third-party/gasnet/GASNet-1.24.0/other/ammpi/ammpi_reqrep.c'
p674
(lp675
(S'MPI_Issend()'
p676
S'103'
p677
tp678
a(S'MPI_Isend()'
p679
S'105'
p680
tp681
a(S'MPI_Bsend()'
p682
S'110'
p683
tp684
a(S'MPI_SAFE()'
p685
S'531'
p686
tp687
a(S'MPI_SAFE()'
p688
S'554'
p689
tp690
a(S'MPI_SAFE()'
p691
S'565'
p692
tp693
a(S'MPI_SAFE()'
p694
S'584'
p695
tp696
a(S'MPI_SAFE()'
p697
S'586'
p698
tp699
a(S'MPI_SAFE()'
p700
S'607'
p701
tp702
a(S'MPI_SAFE()'
p703
S'610'
p704
tp705
a(S'MPI_SAFE()'
p706
S'614'
p707
tp708
a(S'MPI_SAFE()'
p709
S'617'
p710
tp711
a(S'MPI_SAFE()'
p712
S'642'
p713
tp714
asS'chapel_aroon_benchmarks_cleaned/third-party/qthread/qthread-1.10/test/benchmarks/mantevo/hpccg/ddot.cpp'
p715
(lp716
(S'MPI_Allreduce()'
p717
S'120'
p718
tp719
a(S'MPI_Allreduce()'
p720
S'155'
p721
tp722
asS'chapel_aroon_benchmarks_cleaned/third-party/gasnet/GASNet-1.24.0/tests/mpi/testmpicollperf.c'
p723
(lp724
(S'MPI_Barrier()'
p725
S'15'
p726
tp727
a(S'MPI_Bcast()'
p728
S'40'
p729
tp730
a(S'MPI_Barrier()'
p731
S'43'
p732
tp733
a(S'MPI_Barrier()'
p734
S'47'
p735
tp736
a(S'MPI_Wtime()'
p737
S'49'
p738
tp739
a(S'MPI_Bcast()'
p740
S'51'
p741
tp742
a(S'MPI_Wtime()'
p743
S'53'
p744
tp745
a(S'MPI_Barrier()'
p746
S'54'
p747
tp748
a(S'MPI_Wtime()'
p749
S'60'
p750
tp751
a(S'MPI_Barrier()'
p752
S'61'
p753
tp754
a(S'MPI_Wtime()'
p755
S'65'
p756
tp757
a(S'MPI_Gather()'
p758
S'69'
p759
tp760
a(S'MPI_Gather()'
p761
S'70'
p762
tp763
a(S'MPI_Gather()'
p764
S'72'
p765
tp766
a(S'MPI_Gather()'
p767
S'73'
p768
tp769
a(S'MPI_Barrier()'
p770
S'111'
p771
tp772
a(S'MPI_Scatter()'
p773
S'113'
p774
tp775
a(S'MPI_Barrier()'
p776
S'117'
p777
tp778
a(S'MPI_Wtime()'
p779
S'119'
p780
tp781
a(S'MPI_Scatter()'
p782
S'121'
p783
tp784
a(S'MPI_Wtime()'
p785
S'124'
p786
tp787
a(S'MPI_Barrier()'
p788
S'125'
p789
tp790
a(S'MPI_Wtime()'
p791
S'130'
p792
tp793
a(S'MPI_Barrier()'
p794
S'131'
p795
tp796
a(S'MPI_Wtime()'
p797
S'135'
p798
tp799
a(S'MPI_Gather()'
p800
S'139'
p801
tp802
a(S'MPI_Gather()'
p803
S'140'
p804
tp805
a(S'MPI_Gather()'
p806
S'142'
p807
tp808
a(S'MPI_Gather()'
p809
S'143'
p810
tp811
a(S'MPI_Gather()'
p812
S'184'
p813
tp814
a(S'MPI_Barrier()'
p815
S'188'
p816
tp817
a(S'MPI_Wtime()'
p818
S'190'
p819
tp820
a(S'MPI_Gather()'
p821
S'192'
p822
tp823
a(S'MPI_Wtime()'
p824
S'195'
p825
tp826
a(S'MPI_Barrier()'
p827
S'197'
p828
tp829
a(S'MPI_Wtime()'
p830
S'202'
p831
tp832
a(S'MPI_Barrier()'
p833
S'203'
p834
tp835
a(S'MPI_Wtime()'
p836
S'207'
p837
tp838
a(S'MPI_Gather()'
p839
S'211'
p840
tp841
a(S'MPI_Gather()'
p842
S'212'
p843
tp844
a(S'MPI_Gather()'
p845
S'214'
p846
tp847
a(S'MPI_Gather()'
p848
S'215'
p849
tp850
a(S'MPI_Allgather()'
p851
S'255'
p852
tp853
a(S'MPI_Barrier()'
p854
S'258'
p855
tp856
a(S'MPI_Wtime()'
p857
S'260'
p858
tp859
a(S'MPI_Allgather()'
p860
S'262'
p861
tp862
a(S'MPI_Wtime()'
p863
S'265'
p864
tp865
a(S'MPI_Barrier()'
p866
S'266'
p867
tp868
a(S'MPI_Wtime()'
p869
S'270'
p870
tp871
a(S'MPI_Gather()'
p872
S'274'
p873
tp874
a(S'MPI_Gather()'
p875
S'275'
p876
tp877
a(S'MPI_Gather()'
p878
S'277'
p879
tp880
a(S'MPI_Gather()'
p881
S'278'
p882
tp883
a(S'MPI_Barrier()'
p884
S'316'
p885
tp886
a(S'MPI_Wtime()'
p887
S'318'
p888
tp889
a(S'MPI_Reduce()'
p890
S'320'
p891
tp892
a(S'MPI_Wtime()'
p893
S'323'
p894
tp895
a(S'MPI_Barrier()'
p896
S'324'
p897
tp898
a(S'MPI_Wtime()'
p899
S'327'
p900
tp901
a(S'MPI_Gather()'
p902
S'332'
p903
tp904
a(S'MPI_Gather()'
p905
S'333'
p906
tp907
a(S'MPI_Gather()'
p908
S'335'
p909
tp910
a(S'MPI_Gather()'
p911
S'336'
p912
tp913
a(S'MPI_Reduce()'
p914
S'374'
p915
tp916
a(S'MPI_Barrier()'
p917
S'377'
p918
tp919
a(S'MPI_Wtime()'
p920
S'379'
p921
tp922
a(S'MPI_Reduce()'
p923
S'381'
p924
tp925
a(S'MPI_Wtime()'
p926
S'384'
p927
tp928
a(S'MPI_Barrier()'
p929
S'386'
p930
tp931
a(S'MPI_Wtime()'
p932
S'392'
p933
tp934
a(S'MPI_Barrier()'
p935
S'393'
p936
tp937
a(S'MPI_Wtime()'
p938
S'397'
p939
tp940
a(S'MPI_Gather()'
p941
S'402'
p942
tp943
a(S'MPI_Gather()'
p944
S'403'
p945
tp946
a(S'MPI_Gather()'
p947
S'405'
p948
tp949
a(S'MPI_Gather()'
p950
S'406'
p951
tp952
a(S'MPI_Barrier()'
p953
S'448'
p954
tp955
a(S'MPI_Alltoall()'
p956
S'451'
p957
tp958
a(S'MPI_Barrier()'
p959
S'453'
p960
tp961
a(S'MPI_Barrier()'
p962
S'456'
p963
tp964
a(S'MPI_Wtime()'
p965
S'458'
p966
tp967
a(S'MPI_Alltoall()'
p968
S'460'
p969
tp970
a(S'MPI_Wtime()'
p971
S'464'
p972
tp973
a(S'MPI_Barrier()'
p974
S'466'
p975
tp976
a(S'MPI_Wtime()'
p977
S'468'
p978
tp979
a(S'MPI_Gather()'
p980
S'472'
p981
tp982
a(S'MPI_Gather()'
p983
S'473'
p984
tp985
a(S'MPI_Gather()'
p986
S'475'
p987
tp988
a(S'MPI_Gather()'
p989
S'476'
p990
tp991
a(S'MPI_Barrier()'
p992
S'508'
p993
tp994
a(S'MPI_Wtime()'
p995
S'510'
p996
tp997
a(S'MPI_Allreduce()'
p998
S'512'
p999
tp1000
a(S'MPI_Wtime()'
p1001
S'515'
p1002
tp1003
a(S'MPI_Gather()'
p1004
S'519'
p1005
tp1006
a(S'MPI_Gather()'
p1007
S'520'
p1008
tp1009
a(S'MPI_Gather()'
p1010
S'522'
p1011
tp1012
a(S'MPI_Gather()'
p1013
S'523'
p1014
tp1015
a(S'MPI_Init()'
p1016
S'541'
p1017
tp1018
a(S'MPI_Comm_rank()'
p1019
S'543'
p1020
tp1021
a(S'MPI_Comm_size()'
p1022
S'544'
p1023
tp1024
a(S'MPI_Barrier()'
p1025
S'553'
p1026
tp1027
a(S'MPI_Wtime()'
p1028
S'554'
p1029
tp1030
a(S'MPI_Barrier()'
p1031
S'556'
p1032
tp1033
a(S'MPI_Wtime()'
p1034
S'558'
p1035
tp1036
a(S'MPI_Barrier()'
p1037
S'577'
p1038
tp1039
a(S'MPI_Finalize()'
p1040
S'578'
p1041
tp1042
asS'chapel_aroon_benchmarks_cleaned/test/studies/hpcc/RA/diten/c_mpi/mpi_send/helloworld.c'
p1043
(lp1044
(S'MPI_Init()'
p1045
S'7'
p1046
tp1047
a(S'MPI_Comm_rank()'
p1048
S'8'
p1049
tp1050
a(S'MPI_Comm_size()'
p1051
S'9'
p1052
tp1053
a(S'MPI_Finalize()'
p1054
S'11'
p1055
tp1056
asS'chapel_aroon_benchmarks_cleaned/third-party/gasnet/GASNet-1.24.0/tests/mpi/testosumpi2_acc_lat.c'
p1057
(lp1058
(S'MPI_Init()'
p1059
S'35'
p1060
tp1061
a(S'MPI_Comm_size()'
p1062
S'36'
p1063
tp1064
a(S'MPI_Comm_rank()'
p1065
S'37'
p1066
tp1067
a(S'MPI_Comm_group()'
p1068
S'38'
p1069
tp1070
a(S'MPI_Win_create()'
p1071
S'67'
p1072
tp1073
a(S'MPI_Group_incl()'
p1074
S'69'
p1075
tp1076
a(S'MPI_Barrier()'
p1077
S'70'
p1078
tp1079
a(S'MPI_Win_start()'
p1080
S'74'
p1081
tp1082
a(S'MPI_Accumulate()'
p1083
S'76'
p1084
tp1085
a(S'MPI_Win_complete()'
p1086
S'77'
p1087
tp1088
a(S'MPI_Win_post()'
p1089
S'78'
p1090
tp1091
a(S'MPI_Win_wait()'
p1092
S'79'
p1093
tp1094
a(S'MPI_Win_free()'
p1095
S'82'
p1096
tp1097
a(S'MPI_Win_create()'
p1098
S'87'
p1099
tp1100
a(S'MPI_Group_incl()'
p1101
S'89'
p1102
tp1103
a(S'MPI_Barrier()'
p1104
S'90'
p1105
tp1106
a(S'MPI_Win_post()'
p1107
S'94'
p1108
tp1109
a(S'MPI_Win_wait()'
p1110
S'95'
p1111
tp1112
a(S'MPI_Win_start()'
p1113
S'96'
p1114
tp1115
a(S'MPI_Accumulate()'
p1116
S'97'
p1117
tp1118
a(S'MPI_Win_complete()'
p1119
S'98'
p1120
tp1121
a(S'MPI_Win_free()'
p1122
S'101'
p1123
tp1124
a(S'MPI_Finalize()'
p1125
S'113'
p1126
tp1127
asS'chapel_aroon_benchmarks_cleaned/doc/studies/hpcc/appendix.tex'
p1128
(lp1129
(S'MPI_Irecv()'
p1130
S'72'
p1131
tp1132
a(S'X_MPI_ANY_SOURCE()'
p1133
S'73'
p1134
tp1135
a(S'MPI_Test()'
p1136
S'79'
p1137
tp1138
a(S'MPI_Get_count()'
p1139
S'82'
p1140
tp1141
a(S'MPI_Irecv()'
p1142
S'95'
p1143
tp1144
a(S'X_MPI_ANY_SOURCE()'
p1145
S'96'
p1146
tp1147
a(S'MPI_Test()'
p1148
S'116'
p1149
tp1150
a(S'MPI_Isend()'
p1151
S'120'
p1152
tp1153
a(S'X_MPI_COMM_WORLD()'
p1154
S'121'
p1155
tp1156
a(S'MPI_Test()'
p1157
S'134'
p1158
tp1159
a(S'MPI_Get_count()'
p1160
S'137'
p1161
tp1162
a(S'MPI_Irecv()'
p1163
S'149'
p1164
tp1165
a(S'X_MPI_ANY_SOURCE()'
p1166
S'150'
p1167
tp1168
a(S'MPI_Test()'
p1169
S'155'
p1170
tp1171
a(S'MPI_Isend()'
p1172
S'159'
p1173
tp1174
a(S'X_MPI_COMM_WORLD()'
p1175
S'160'
p1176
tp1177
a(S'MPI_Isend()'
p1178
S'170'
p1179
tp1180
a(S'X_MPI_COMM_WORLD()'
p1181
S'171'
p1182
tp1183
a(S'MPI_Wait()'
p1184
S'176'
p1185
tp1186
a(S'MPI_Get_count()'
p1187
S'178'
p1188
tp1189
a(S'MPI_Irecv()'
p1190
S'191'
p1191
tp1192
a(S'X_MPI_ANY_SOURCE()'
p1193
S'192'
p1194
tp1195
a(S'MPI_Waitall()'
p1196
S'195'
p1197
tp1198
a(S'MPI_Cancel()'
p1199
S'199'
p1200
tp1201
a(S'MPI_Wait()'
p1202
S'200'
p1203
tp1204
asS'chapel_aroon_benchmarks_cleaned/third-party/gasnet/GASNet-1.24.0/other/ammpi/ammpi_spmd.c'
p1205
(lp1206
(S'MPI_SAFE()'
p1207
S'136'
p1208
tp1209
a(S'MPI_SAFE()'
p1210
S'145'
p1211
tp1212
a(S'MPI_SAFE()'
p1213
S'181'
p1214
tp1215
a(S'MPI_SAFE()'
p1216
S'183'
p1217
tp1218
a(S'MPI_SAFE()'
p1219
S'207'
p1220
tp1221
a(S'MPI_SAFE()'
p1222
S'208'
p1223
tp1224
a(S'MPI_SAFE()'
p1225
S'236'
p1226
tp1227
a(S'MPI_SAFE()'
p1228
S'237'
p1229
tp1230
a(S'MPI_SAFE()'
p1231
S'238'
p1232
tp1233
a(S'MPI_SAFE()'
p1234
S'245'
p1235
tp1236
a(S'MPI_SAFE()'
p1237
S'271'
p1238
tp1239
a(S'MPI_SAFE()'
p1240
S'275'
p1241
tp1242
a(S'MPI_SAFE()'
p1243
S'320'
p1244
tp1245
a(S'MPI_SAFE()'
p1246
S'405'
p1247
tp1248
a(S'MPI_SAFE()'
p1249
S'408'
p1250
tp1251
a(S'MPI_SAFE()'
p1252
S'411'
p1253
tp1254
a(S'MPI_SAFE()'
p1255
S'532'
p1256
tp1257
a(S'MPI_SAFE()'
p1258
S'541'
p1259
tp1260
asS'chapel_aroon_benchmarks_cleaned/third-party/qthread/qthread-1.10/test/benchmarks/mantevo/hpccg/exchange_externals.cpp'
p1261
(lp1262
(S'MPI_Comm_size()'
p1263
S'55'
p1264
tp1265
a(S'MPI_Comm_rank()'
p1266
S'56'
p1267
tp1268
a(S'MPI_Irecv()'
p1269
S'77'
p1270
tp1271
a(S'X_MPI_COMM_WORLD()'
p1272
S'78'
p1273
tp1274
a(S'MPI_Send()'
p1275
S'96'
p1276
tp1277
asS'chapel_aroon_benchmarks_cleaned/third-party/gasnet/GASNet-1.24.0/shmem-conduit/gasnet_core.c'
p1278
(lp1279
(S'MPI_Finalize()'
p1280
S'632'
p1281
tp1282
asS'chapel_aroon_benchmarks_cleaned/test/users/npadmana/SimpleMPI/SimpleMPI.chpl'
p1283
(lp1284
(S'MPI_Comm_rank()'
p1285
S'40'
p1286
tp1287
a(S'MPI_Comm_size()'
p1288
S'45'
p1289
tp1290
a(S'MPI_Initialized()'
p1291
S'57'
p1292
tp1293
asS'chapel_aroon_benchmarks_cleaned/third-party/gasnet/GASNet-1.24.0/tests/mpi/testosumpi2_put_bw.c'
p1294
(lp1295
(S'MPI_Init()'
p1296
S'39'
p1297
tp1298
a(S'MPI_Comm_size()'
p1299
S'40'
p1300
tp1301
a(S'MPI_Comm_rank()'
p1302
S'41'
p1303
tp1304
a(S'MPI_Comm_group()'
p1305
S'42'
p1306
tp1307
a(S'MPI_Win_create()'
p1308
S'65'
p1309
tp1310
a(S'MPI_Group_incl()'
p1311
S'68'
p1312
tp1313
a(S'MPI_Win_start()'
p1314
S'71'
p1315
tp1316
a(S'MPI_Put()'
p1317
S'72'
p1318
tp1319
a(S'MPI_Win_complete()'
p1320
S'73'
p1321
tp1322
a(S'MPI_Win_create()'
p1323
S'76'
p1324
tp1325
a(S'MPI_Group_incl()'
p1326
S'78'
p1327
tp1328
a(S'MPI_Win_post()'
p1329
S'81'
p1330
tp1331
a(S'MPI_Win_wait()'
p1332
S'82'
p1333
tp1334
a(S'MPI_Barrier()'
p1335
S'86'
p1336
tp1337
a(S'MPI_Win_start()'
p1338
S'93'
p1339
tp1340
a(S'MPI_Put()'
p1341
S'96'
p1342
tp1343
a(S'MPI_Win_complete()'
p1344
S'98'
p1345
tp1346
a(S'MPI_Barrier()'
p1347
S'101'
p1348
tp1349
a(S'MPI_Win_post()'
p1350
S'107'
p1351
tp1352
a(S'MPI_Win_wait()'
p1353
S'108'
p1354
tp1355
a(S'MPI_Barrier()'
p1356
S'110'
p1357
tp1358
a(S'MPI_Win_free()'
p1359
S'124'
p1360
tp1361
a(S'MPI_Barrier()'
p1362
S'126'
p1363
tp1364
a(S'MPI_Finalize()'
p1365
S'127'
p1366
tp1367
asS'chapel_aroon_benchmarks_cleaned/third-party/qthread/qthread-1.10/test/benchmarks/mantevo/hpccg/HPCCG.cpp'
p1368
(lp1369
(S'MPI_Comm_size()'
p1370
S'83'
p1371
tp1372
a(S'MPI_Comm_rank()'
p1373
S'84'
p1374
tp1375
asS'chapel_aroon_benchmarks_cleaned/third-party/gasnet/GASNet-1.24.0/README'
p1376
(lp1377
(S'MPI_Barrier()'
p1378
S'704'
p1379
tp1380
asS'chapel_aroon_benchmarks_cleaned/test/studies/hpcc/RA/diten/c_mpi/mpi_issend/helloworld.c'
p1381
(lp1382
(S'MPI_Init()'
p1383
g1046
tp1384
a(S'MPI_Comm_rank()'
p1385
g1049
tp1386
a(S'MPI_Comm_size()'
p1387
g1052
tp1388
a(S'MPI_Finalize()'
p1389
S'11'
p1390
tp1391
asS'chapel_aroon_benchmarks_cleaned/test/studies/hpcc/RA/diten/c_mpi/mpi_send/ra.c'
p1392
(lp1393
(S'MPI_Test()'
p1394
S'52'
p1395
tp1396
a(S'MPI_Irecv()'
p1397
S'61'
p1398
tp1399
a(S'MPI_Send()'
p1400
S'77'
p1401
tp1402
a(S'MPI_Init()'
p1403
S'86'
p1404
tp1405
a(S'MPI_Comm_rank()'
p1406
S'87'
p1407
tp1408
a(S'MPI_Comm_size()'
p1409
S'88'
p1410
tp1411
a(S'MPI_Abort()'
p1412
S'104'
p1413
tp1414
a(S'MPI_Barrier()'
p1415
S'113'
p1416
tp1417
a(S'MPI_Irecv()'
p1418
S'124'
p1419
tp1420
a(S'MPI_Barrier()'
p1421
S'153'
p1422
tp1423
a(S'MPI_Reduce()'
p1424
S'166'
p1425
tp1426
a(S'MPI_Finalize()'
p1427
S'179'
p1428
tp1429
asS'chapel_aroon_benchmarks_cleaned/third-party/gasnet/GASNet-1.24.0/tests/mpi/testosumpi_bw2.c'
p1430
(lp1431
(S'MPI_Init()'
p1432
S'43'
p1433
tp1434
a(S'MPI_Comm_size()'
p1435
S'44'
p1436
tp1437
a(S'MPI_Comm_rank()'
p1438
S'45'
p1439
tp1440
a(S'MPI_Wtime()'
p1441
S'80'
p1442
tp1443
a(S'MPI_Irecv()'
p1444
S'82'
p1445
tp1446
a(S'X_MPI_COMM_WORLD()'
p1447
S'83'
p1448
tp1449
a(S'MPI_Isend()'
p1450
S'85'
p1451
tp1452
a(S'X_MPI_COMM_WORLD()'
p1453
S'86'
p1454
tp1455
a(S'MPI_Waitall()'
p1456
S'87'
p1457
tp1458
a(S'MPI_Waitall()'
p1459
S'88'
p1460
tp1461
a(S'MPI_Wtime()'
p1462
S'92'
p1463
tp1464
a(S'MPI_Irecv()'
p1465
S'100'
p1466
tp1467
a(S'X_MPI_COMM_WORLD()'
p1468
S'101'
p1469
tp1470
a(S'MPI_Isend()'
p1471
S'103'
p1472
tp1473
a(S'X_MPI_COMM_WORLD()'
p1474
S'104'
p1475
tp1476
a(S'MPI_Waitall()'
p1477
S'105'
p1478
tp1479
a(S'MPI_Waitall()'
p1480
S'106'
p1481
tp1482
a(S'MPI_Finalize()'
p1483
S'128'
p1484
tp1485
asS'chapel_aroon_benchmarks_cleaned/third-party/gasnet/GASNet-1.24.0/other/mpi-spawner/gasnet_bootstrap_mpi.c'
p1486
(lp1487
(S'MPI_Initialized()'
p1488
S'35'
p1489
tp1490
a(S'MPI_Init()'
p1491
S'38'
p1492
tp1493
a(S'MPI_Comm_group()'
p1494
S'43'
p1495
tp1496
a(S'MPI_Comm_create()'
p1497
S'45'
p1498
tp1499
a(S'MPI_Group_free()'
p1500
S'47'
p1501
tp1502
a(S'MPI_Comm_size()'
p1503
S'51'
p1504
tp1505
a(S'MPI_Comm_rank()'
p1506
S'56'
p1507
tp1508
a(S'MPI_Comm_free()'
p1509
S'70'
p1510
tp1511
a(S'MPI_Barrier()'
p1512
S'94'
p1513
tp1514
a(S'MPI_Allgather()'
p1515
S'110'
p1516
tp1517
a(S'MPI_Alltoall()'
p1518
S'131'
p1519
tp1520
a(S'MPI_Bcast()'
p1521
S'145'
p1522
tp1523
asS'chapel_aroon_benchmarks_cleaned/third-party/gasnet/GASNet-1.24.0/tests/mpi/testmpinbr.c'
p1524
(lp1525
(S'MPI_SAFE()'
p1526
S'181'
p1527
tp1528
a(S'MPI_SAFE()'
p1529
S'238'
p1530
tp1531
a(S'MPI_Gather()'
p1532
S'239'
p1533
tp1534
a(S'MPI_SAFE()'
p1535
S'346'
p1536
tp1537
a(S'MPI_SAFE()'
p1538
S'347'
p1539
tp1540
a(S'MPI_SAFE()'
p1541
S'348'
p1542
tp1543
a(S'MPI_SAFE()'
p1544
S'362'
p1545
tp1546
a(S'MPI_SAFE()'
p1547
S'372'
p1548
tp1549
a(S'MPI_SAFE()'
p1550
S'685'
p1551
tp1552
a(S'MPI_SAFE()'
p1553
S'753'
p1554
tp1555
a(S'MPI_Waitall()'
p1556
S'754'
p1557
tp1558
a(S'MPI_SAFE()'
p1559
S'812'
p1560
tp1561
a(S'MPI_Irecv()'
p1562
S'813'
p1563
tp1564
a(S'X_MPI_COMM_WORLD()'
p1565
S'814'
p1566
tp1567
a(S'MPI_Isend()'
p1568
S'866'
p1569
tp1570
asS'chapel_aroon_benchmarks_cleaned/third-party/gasnet/GASNet-1.24.0/tests/mpi/testosumpi2_put_bw2.c'
p1571
(lp1572
(S'MPI_Init()'
p1573
S'40'
p1574
tp1575
a(S'MPI_Comm_size()'
p1576
S'41'
p1577
tp1578
a(S'MPI_Comm_rank()'
p1579
S'42'
p1580
tp1581
a(S'MPI_Comm_group()'
p1582
S'43'
p1583
tp1584
a(S'MPI_Win_create()'
p1585
S'66'
p1586
tp1587
a(S'MPI_Group_incl()'
p1588
S'69'
p1589
tp1590
a(S'MPI_Win_post()'
p1591
S'72'
p1592
tp1593
a(S'MPI_Win_start()'
p1594
S'73'
p1595
tp1596
a(S'MPI_Put()'
p1597
S'74'
p1598
tp1599
a(S'MPI_Win_complete()'
p1600
S'75'
p1601
tp1602
a(S'MPI_Win_wait()'
p1603
S'76'
p1604
tp1605
a(S'MPI_Win_create()'
p1606
S'79'
p1607
tp1608
a(S'MPI_Group_incl()'
p1609
S'81'
p1610
tp1611
a(S'MPI_Win_post()'
p1612
S'84'
p1613
tp1614
a(S'MPI_Win_start()'
p1615
S'85'
p1616
tp1617
a(S'MPI_Put()'
p1618
S'86'
p1619
tp1620
a(S'MPI_Win_complete()'
p1621
S'87'
p1622
tp1623
a(S'MPI_Win_wait()'
p1624
S'88'
p1625
tp1626
a(S'MPI_Barrier()'
p1627
S'92'
p1628
tp1629
a(S'MPI_Win_post()'
p1630
S'99'
p1631
tp1632
a(S'MPI_Win_start()'
p1633
S'100'
p1634
tp1635
a(S'MPI_Put()'
p1636
S'103'
p1637
tp1638
a(S'MPI_Win_complete()'
p1639
S'105'
p1640
tp1641
a(S'MPI_Win_wait()'
p1642
S'106'
p1643
tp1644
a(S'MPI_Barrier()'
p1645
S'109'
p1646
tp1647
a(S'MPI_Win_post()'
p1648
S'115'
p1649
tp1650
a(S'MPI_Win_start()'
p1651
S'116'
p1652
tp1653
a(S'MPI_Put()'
p1654
S'119'
p1655
tp1656
a(S'MPI_Win_complete()'
p1657
S'121'
p1658
tp1659
a(S'MPI_Win_wait()'
p1660
S'122'
p1661
tp1662
a(S'MPI_Barrier()'
p1663
S'124'
p1664
tp1665
a(S'MPI_Win_free()'
p1666
S'138'
p1667
tp1668
a(S'MPI_Barrier()'
p1669
S'140'
p1670
tp1671
a(S'MPI_Finalize()'
p1672
S'141'
p1673
tp1674
asS'chapel_aroon_benchmarks_cleaned/third-party/gasnet/GASNet-1.24.0/tests/mpi/testmpiperf.c'
p1675
(lp1676
(S'MPI_SAFE()'
p1677
S'67'
p1678
tp1679
a(S'MPI_SAFE()'
p1680
S'68'
p1681
tp1682
a(S'MPI_SAFE()'
p1683
S'69'
p1684
tp1685
a(S'MPI_SAFE()'
p1686
S'90'
p1687
tp1688
a(S'MPI_SAFE()'
p1689
S'101'
p1690
tp1691
a(S'MPI_SAFE()'
p1692
S'108'
p1693
tp1694
a(S'MPI_Barrier()'
p1695
S'159'
p1696
tp1697
a(S'MPI_SAFE()'
p1698
S'204'
p1699
tp1700
a(S'MPI_SAFE()'
p1701
S'219'
p1702
tp1703
a(S'MPI_SAFE()'
p1704
S'221'
p1705
tp1706
a(S'MPI_SAFE()'
p1707
S'225'
p1708
tp1709
a(S'MPI_SAFE()'
p1710
S'230'
p1711
tp1712
a(S'MPI_SAFE()'
p1713
S'240'
p1714
tp1715
a(S'MPI_SAFE()'
p1716
S'249'
p1717
tp1718
a(S'MPI_SAFE()'
p1719
S'251'
p1720
tp1721
a(S'MPI_SAFE()'
p1722
S'255'
p1723
tp1724
a(S'MPI_SAFE()'
p1725
S'259'
p1726
tp1727
a(S'MPI_SAFE()'
p1728
S'265'
p1729
tp1730
a(S'MPI_SAFE()'
p1731
S'281'
p1732
tp1733
a(S'MPI_SAFE()'
p1734
S'334'
p1735
tp1736
a(S'MPI_SAFE()'
p1737
S'350'
p1738
tp1739
a(S'MPI_SAFE()'
p1740
S'362'
p1741
tp1742
a(S'MPI_SAFE()'
p1743
S'371'
p1744
tp1745
a(S'MPI_SAFE()'
p1746
S'383'
p1747
tp1748
a(S'MPI_SAFE()'
p1749
S'390'
p1750
tp1751
a(S'MPI_SAFE()'
p1752
S'400'
p1753
tp1754
a(S'MPI_SAFE()'
p1755
S'463'
p1756
tp1757
a(S'MPI_SAFE()'
p1758
S'478'
p1759
tp1760
a(S'MPI_SAFE()'
p1761
S'487'
p1762
tp1763
a(S'MPI_SAFE()'
p1764
S'493'
p1765
tp1766
a(S'MPI_Alltoall()'
p1767
S'540'
p1768
tp1769
as.