ccollections
defaultdict
p0
(c__builtin__
list
p1
tp2
Rp3
S'3rdparty/boost_1_66_0/boost/graph/distributed/mpi_process_group.hpp'
p4
(lp5
(S'MPI_Bsend()'
p6
S'709'
p7
tp8
a(S'MPI_Isend()'
p9
S'715'
p10
tp11
a(S'MPI_Test()'
p12
S'721'
p13
tp14
a(S'MPI_Bsend()'
p15
S'745'
p16
tp17
a(S'MPI_Isend()'
p18
S'751'
p19
tp20
a(S'MPI_Test()'
p21
S'757'
p22
tp23
asS'3rdparty/boost_1_66_0/boost/graph/distributed/detail/mpi_process_group.ipp'
p24
(lp25
(S'MPI_Recv()'
p26
S'493'
p27
tp28
a(S'MPI_Get_count()'
p29
S'511'
p30
tp31
a(S'MPI_Recv()'
p32
S'517'
p33
tp34
a(S'MPI_Irecv()'
p35
S'666'
p36
tp37
a(S'X_MPI_PACKED()'
p38
S'667'
p39
tp40
a(S'MPI_Allgather()'
p41
S'838'
p42
tp43
a(S'MPI_Allgatherv()'
p44
S'857'
p45
tp46
a(S'X_MPI_BYTE()'
p47
S'860'
p48
tp49
a(S'MPI_Comm_group()'
p50
S'881'
p51
tp52
a(S'MPI_Group_incl()'
p53
S'885'
p54
tp55
a(S'MPI_Comm_create()'
p56
S'889'
p57
tp58
a(S'MPI_Group_free()'
p59
S'892'
p60
tp61
a(S'MPI_Group_free()'
p62
S'894'
p63
tp64
a(S'MPI_Comm_free()'
p65
S'899'
p66
tp67
a(S'MPI_Irecv()'
p68
S'930'
p69
tp70
a(S'MPI_Test()'
p71
S'935'
p72
tp73
a(S'MPI_Get_count()'
p74
S'968'
p75
tp76
a(S'MPI_Recv()'
p77
S'973'
p78
tp79
asS'3rdparty/boost_1_66_0/boost/mpi/datatype.hpp'
p80
(lp81
(S'X_MPI_LONG_DOUBLE_INT()'
p82
S'254'
p83
tp84
a(S'MPI_Type_contiguous()'
p85
S'323'
p86
tp87
a(S'MPI_Type_commit()'
p88
S'324'
p89
tp90
asS'3rdparty/boost_1_66_0/boost/mpi/timer.hpp'
p91
(lp92
(S'MPI_Wtime()'
p93
S'71'
p94
tp95
asS'3rdparty/boost_1_66_0/boost/mpi/communicator.hpp'
p96
(lp97
(S'MPI_Comm()'
p98
S'1366'
p99
tp100
a(S'MPI_Comm()'
p101
S'1566'
p102
tp103
a(S'MPI_Comm()'
p104
S'1589'
p105
tp106
a(S'MPI_Comm()'
p107
S'1625'
p108
tp109
a(S'MPI_Comm()'
p110
S'1648'
p111
tp112
asS'3rdparty/boost_1_66_0/boost/mpi/exception.hpp'
p113
(lp114
(S'MPI_Error_class()'
p115
S'73'
p116
tp117
asS'3rdparty/boost_1_66_0/boost/graph/distributed/page_rank.hpp'
p118
(lp119
(S'MPI_Comm_rank()'
p120
S'40'
p121
tp122
a(S'MPI_Accumulate()'
p123
S'53'
p124
tp125
a(S'MPI_Win_fence()'
p126
S'60'
p127
tp128
a(S'MPI_Comm_rank()'
p129
S'90'
p130
tp131
a(S'MPI_Win_create()'
p132
S'115'
p133
tp134
a(S'X_MPI_INFO_NULL()'
p135
S'118'
p136
tp137
a(S'MPI_Win_set_name()'
p138
S'119'
p139
tp140
a(S'MPI_Win_create()'
p141
S'120'
p142
tp143
a(S'X_MPI_INFO_NULL()'
p144
S'123'
p145
tp146
a(S'MPI_Win_set_name()'
p147
S'124'
p148
tp149
a(S'MPI_Win_fence()'
p150
S'129'
p151
tp152
a(S'MPI_Win_fence()'
p153
S'130'
p154
tp155
a(S'MPI_Win_free()'
p156
S'144'
p157
tp158
a(S'MPI_Win_free()'
p159
S'145'
p160
tp161
asS'3rdparty/boost_1_66_0/boost/mpi/operations.hpp'
p162
(lp163
(S'MPI_Op_free()'
p164
S'293'
p165
tp166
asS'3rdparty/boost_1_66_0/boost/mpi/allocator.hpp'
p167
(lp168
(S'X_MPI_INFO_NULL()'
p169
S'141'
p170
tp171
as.