ccollections
defaultdict
p0
(c__builtin__
list
p1
tp2
Rp3
S'HK-VFPC/Libs/include/boost/mpi/operations.hpp'
p4
(lp5
(S'MPI_Op_free()'
p6
S'310'
p7
tp8
asS'HK-VFPC/Libs/include/boost/mpi/allocator.hpp'
p9
(lp10
(S'X_MPI_INFO_NULL()'
p11
S'141'
p12
tp13
asS'HK-VFPC/Libs/include/boost/mpi/datatype.hpp'
p14
(lp15
(S'X_MPI_LONG_DOUBLE_INT()'
p16
S'254'
p17
tp18
a(S'MPI_Type_contiguous()'
p19
S'323'
p20
tp21
a(S'MPI_Type_commit()'
p22
S'324'
p23
tp24
asS'HK-VFPC/Libs/include/boost/mpi/detail/request_handlers.hpp'
p25
(lp26
(S'MPI_Comm()'
p27
S'324'
p28
tp29
a(S'MPI_Comm()'
p30
S'349'
p31
tp32
a(S'MPI_Comm()'
p33
S'392'
p34
tp35
a(S'MPI_Comm()'
p36
S'417'
p37
tp38
a(S'MPI_Comm()'
p39
S'461'
p40
tp41
a(S'MPI_Comm()'
p42
S'483'
p43
tp44
asS'HK-VFPC/Libs/include/boost/graph/distributed/detail/mpi_process_group.ipp'
p45
(lp46
(S'MPI_Recv()'
p47
S'493'
p48
tp49
a(S'MPI_Get_count()'
p50
S'511'
p51
tp52
a(S'MPI_Recv()'
p53
S'517'
p54
tp55
a(S'MPI_Irecv()'
p56
S'666'
p57
tp58
a(S'X_MPI_PACKED()'
p59
S'667'
p60
tp61
a(S'MPI_Allgather()'
p62
S'838'
p63
tp64
a(S'MPI_Allgatherv()'
p65
S'866'
p66
tp67
a(S'X_MPI_BYTE()'
p68
S'869'
p69
tp70
a(S'MPI_Comm_group()'
p71
S'890'
p72
tp73
a(S'MPI_Group_incl()'
p74
S'895'
p75
tp76
a(S'MPI_Comm_create()'
p77
S'899'
p78
tp79
a(S'MPI_Group_free()'
p80
S'902'
p81
tp82
a(S'MPI_Group_free()'
p83
S'904'
p84
tp85
a(S'MPI_Comm_free()'
p86
S'909'
p87
tp88
a(S'MPI_Irecv()'
p89
S'940'
p90
tp91
a(S'MPI_Test()'
p92
S'945'
p93
tp94
a(S'MPI_Get_count()'
p95
S'978'
p96
tp97
a(S'MPI_Recv()'
p98
S'983'
p99
tp100
asS'HK-VFPC/Libs/include/boost/mpi/timer.hpp'
p101
(lp102
(S'MPI_Wtime()'
p103
S'71'
p104
tp105
asS'HK-VFPC/Libs/include/boost/graph/distributed/page_rank.hpp'
p106
(lp107
(S'MPI_Comm_rank()'
p108
S'40'
p109
tp110
a(S'MPI_Accumulate()'
p111
S'53'
p112
tp113
a(S'MPI_Win_fence()'
p114
S'60'
p115
tp116
a(S'MPI_Comm_rank()'
p117
S'90'
p118
tp119
a(S'MPI_Win_create()'
p120
S'115'
p121
tp122
a(S'X_MPI_INFO_NULL()'
p123
S'118'
p124
tp125
a(S'MPI_Win_set_name()'
p126
S'119'
p127
tp128
a(S'MPI_Win_create()'
p129
S'120'
p130
tp131
a(S'X_MPI_INFO_NULL()'
p132
S'123'
p133
tp134
a(S'MPI_Win_set_name()'
p135
S'124'
p136
tp137
a(S'MPI_Win_fence()'
p138
S'129'
p139
tp140
a(S'MPI_Win_fence()'
p141
S'130'
p142
tp143
a(S'MPI_Win_free()'
p144
S'144'
p145
tp146
a(S'MPI_Win_free()'
p147
S'145'
p148
tp149
asS'HK-VFPC/Libs/include/boost/mpi/communicator.hpp'
p150
(lp151
(S'MPI_Comm()'
p152
S'1515'
p153
tp154
asS'HK-VFPC/Libs/include/boost/mpi/exception.hpp'
p155
(lp156
(S'MPI_Error_class()'
p157
S'74'
p158
tp159
asS'HK-VFPC/Libs/include/boost/mpi/collectives/broadcast.hpp'
p160
(lp161
(S'X_MPI_BYTE()'
p162
S'120'
p163
tp164
a(S'X_MPI_BYTE()'
p165
S'130'
p166
tp167
asS'HK-VFPC/Libs/include/boost/graph/distributed/mpi_process_group.hpp'
p168
(lp169
(S'MPI_Bsend()'
p170
S'709'
p171
tp172
a(S'MPI_Isend()'
p173
S'715'
p174
tp175
a(S'MPI_Test()'
p176
S'721'
p177
tp178
a(S'MPI_Bsend()'
p179
S'745'
p180
tp181
a(S'MPI_Isend()'
p182
S'751'
p183
tp184
a(S'MPI_Test()'
p185
S'757'
p186
tp187
asS'HK-VFPC/Libs/include/boost/mpi/collectives/all_gather.hpp'
p188
(lp189
(S'MPI_Comm()'
p190
S'62'
p191
tp192
a(S'MPI_Comm()'
p193
S'73'
p194
tp195
as.