ccollections
defaultdict
p0
(c__builtin__
list
p1
tp2
Rp3
S'tomsychapel/third-party/gasnet/gasnet-src/tests/mpi/testosumpi_lat.c'
p4
(lp5
(S'MPI_Init()'
p6
S'38'
p7
tp8
a(S'MPI_Comm_size()'
p9
S'39'
p10
tp11
a(S'MPI_Comm_rank()'
p12
S'40'
p13
tp14
a(S'MPI_Barrier()'
p15
S'75'
p16
tp17
a(S'MPI_Wtime()'
p18
S'80'
p19
tp20
a(S'MPI_Send()'
p21
S'81'
p22
tp23
a(S'MPI_Recv()'
p24
S'83'
p25
tp26
a(S'MPI_Recv()'
p27
S'85'
p28
tp29
a(S'MPI_Wtime()'
p30
S'87'
p31
tp32
a(S'MPI_Recv()'
p33
S'91'
p34
tp35
a(S'MPI_Send()'
p36
S'93'
p37
tp38
a(S'MPI_Send()'
p39
S'95'
p40
tp41
a(S'MPI_Finalize()'
p42
S'112'
p43
tp44
asS'tomsychapel/third-party/qthread/qthread-src/test/benchmarks/mantevo/hpccg/generate_matrix.cpp'
p45
(lp46
(S'MPI_Comm_size()'
p47
S'58'
p48
tp49
a(S'MPI_Comm_rank()'
p50
S'59'
p51
tp52
asS'tomsychapel/third-party/gasnet/gasnet-src/tests/mpi/testmpinbr.c'
p53
(lp54
(S'MPI_SAFE()'
p55
S'181'
p56
tp57
a(S'MPI_SAFE()'
p58
S'238'
p59
tp60
a(S'MPI_Gather()'
p61
S'239'
p62
tp63
a(S'MPI_SAFE()'
p64
S'346'
p65
tp66
a(S'MPI_SAFE()'
p67
S'347'
p68
tp69
a(S'MPI_SAFE()'
p70
S'348'
p71
tp72
a(S'MPI_SAFE()'
p73
S'362'
p74
tp75
a(S'MPI_SAFE()'
p76
S'372'
p77
tp78
a(S'MPI_SAFE()'
p79
S'685'
p80
tp81
a(S'MPI_SAFE()'
p82
S'753'
p83
tp84
a(S'MPI_Waitall()'
p85
S'754'
p86
tp87
a(S'MPI_SAFE()'
p88
S'812'
p89
tp90
a(S'MPI_Irecv()'
p91
S'813'
p92
tp93
a(S'X_MPI_COMM_WORLD()'
p94
S'814'
p95
tp96
a(S'MPI_Isend()'
p97
S'866'
p98
tp99
asS'tomsychapel/third-party/qthread/qthread-src/test/benchmarks/mantevo/hpccg/read_HPC_row.cpp'
p100
(lp101
(S'MPI_Comm_size()'
p102
S'81'
p103
tp104
a(S'MPI_Comm_rank()'
p105
S'82'
p106
tp107
asS'tomsychapel/third-party/qthread/qthread-src/test/benchmarks/mantevo/hpccg/ddot.cpp'
p108
(lp109
(S'MPI_Allreduce()'
p110
S'120'
p111
tp112
a(S'MPI_Allreduce()'
p113
S'155'
p114
tp115
asS'tomsychapel/test/users/npadmana/mpi/test_mpi.chpl'
p116
(lp117
(S'MPI_Barrier()'
p118
S'25'
p119
tp120
a(S'MPI_Abort()'
p121
S'35'
p122
tp123
a(S'MPI_Barrier()'
p124
S'55'
p125
tp126
a(S'MPI_Send()'
p127
S'69'
p128
tp129
a(S'MPI_Recv()'
p130
S'70'
p131
tp132
a(S'MPI_Recv()'
p133
S'72'
p134
tp135
a(S'MPI_Send()'
p136
S'73'
p137
tp138
a(S'MPI_Barrier()'
p139
S'81'
p140
tp141
a(S'MPI_Irecv()'
p142
S'101'
p143
tp144
a(S'MPI_Irecv()'
p145
S'102'
p146
tp147
a(S'MPI_Isend()'
p148
S'104'
p149
tp150
a(S'MPI_Isend()'
p151
S'105'
p152
tp153
a(S'MPI_Waitall()'
p154
S'107'
p155
tp156
a(S'MPI_Barrier()'
p157
S'110'
p158
tp159
a(S'MPI_Reduce()'
p160
S'129'
p161
tp162
a(S'MPI_Barrier()'
p163
S'135'
p164
tp165
a(S'MPI_Scatter()'
p166
S'150'
p167
tp168
a(S'MPI_Barrier()'
p169
S'152'
p170
tp171
a(S'MPI_Type_contiguous()'
p172
S'161'
p173
tp174
a(S'MPI_Type_commit()'
p175
S'162'
p176
tp177
a(S'MPI_Send()'
p178
S'169'
p179
tp180
a(S'MPI_Recv()'
p181
S'173'
p182
tp183
a(S'MPI_Barrier()'
p184
S'175'
p185
tp186
a(S'MPI_Barrier()'
p187
S'177'
p188
tp189
a(S'MPI_Type_free()'
p190
S'178'
p191
tp192
a(S'MPI_Type_vector()'
p193
S'186'
p194
tp195
a(S'MPI_Type_commit()'
p196
S'187'
p197
tp198
a(S'MPI_Send()'
p199
S'194'
p200
tp201
a(S'MPI_Recv()'
p202
S'198'
p203
tp204
a(S'MPI_Barrier()'
p205
S'200'
p206
tp207
a(S'MPI_Barrier()'
p208
S'202'
p209
tp210
a(S'MPI_Type_free()'
p211
S'203'
p212
tp213
a(S'MPI_Type_indexed()'
p214
S'215'
p215
tp216
a(S'MPI_Type_commit()'
p217
S'216'
p218
tp219
a(S'MPI_Send()'
p220
S'224'
p221
tp222
a(S'MPI_Recv()'
p223
S'228'
p224
tp225
a(S'MPI_Barrier()'
p226
S'230'
p227
tp228
a(S'MPI_Barrier()'
p229
S'232'
p230
tp231
a(S'MPI_Type_free()'
p232
S'233'
p233
tp234
a(S'MPI_Type_extent()'
p235
S'258'
p236
tp237
a(S'MPI_Type_struct()'
p238
S'260'
p239
tp240
a(S'MPI_Type_commit()'
p241
S'261'
p242
tp243
a(S'MPI_Bcast()'
p244
S'276'
p245
tp246
a(S'MPI_Type_free()'
p247
S'280'
p248
tp249
a(S'MPI_Barrier()'
p250
S'281'
p251
tp252
a(S'MPI_Allgather()'
p253
S'292'
p254
tp255
a(S'MPI_Barrier()'
p256
S'294'
p257
tp258
a(S'MPI_Comm_group()'
p259
S'308'
p260
tp261
a(S'MPI_Group_incl()'
p262
S'310'
p263
tp264
a(S'MPI_Group_incl()'
p265
S'312'
p266
tp267
a(S'MPI_Comm_create()'
p268
S'314'
p269
tp270
a(S'MPI_Allreduce()'
p271
S'315'
p272
tp273
a(S'MPI_Comm_rank()'
p274
S'317'
p275
tp276
a(S'MPI_Barrier()'
p277
S'320'
p278
tp279
asS'tomsychapel/third-party/gasnet/gasnet-src/README'
p280
(lp281
(S'MPI_Barrier()'
p282
S'841'
p283
tp284
asS'tomsychapel/third-party/gasnet/gasnet-src/tests/testmpi.c'
p285
(lp286
(S'MPI_SAFE()'
p287
S'77'
p288
tp289
a(S'MPI_SAFE()'
p290
S'80'
p291
tp292
a(S'MPI_SAFE()'
p293
S'87'
p294
tp295
a(S'MPI_SAFE()'
p296
S'105'
p297
tp298
a(S'MPI_SAFE()'
p299
S'111'
p300
tp301
a(S'MPI_SAFE()'
p302
S'112'
p303
tp304
a(S'MPI_SAFE()'
p305
S'118'
p306
tp307
a(S'MPI_SAFE()'
p308
S'138'
p309
tp310
a(S'MPI_SAFE()'
p311
S'156'
p312
tp313
a(S'MPI_SAFE()'
p314
S'163'
p315
tp316
a(S'MPI_LOCK()'
p317
S'193'
p318
tp319
a(S'MPI_SAFE()'
p320
S'202'
p321
tp322
a(S'MPI_UNLOCK()'
p323
S'205'
p324
tp325
a(S'MPI_LOCK()'
p326
S'219'
p327
tp328
a(S'MPI_SAFE()'
p329
S'223'
p330
tp331
a(S'MPI_SAFE()'
p332
S'230'
p333
tp334
a(S'MPI_SAFE()'
p335
S'236'
p336
tp337
a(S'MPI_UNLOCK()'
p338
S'245'
p339
tp340
a(S'MPI_LOCK()'
p341
S'271'
p342
tp343
a(S'MPI_SAFE()'
p344
S'273'
p345
tp346
a(S'MPI_UNLOCK()'
p347
S'275'
p348
tp349
a(S'MPI_LOCK()'
p350
S'312'
p351
tp352
a(S'MPI_SAFE()'
p353
S'315'
p354
tp355
a(S'MPI_SAFE()'
p356
S'319'
p357
tp358
a(S'MPI_UNLOCK()'
p359
S'322'
p360
tp361
asS'tomsychapel/third-party/gasnet/gasnet-src/tests/mpi/testosumpi2_put_bw.c'
p362
(lp363
(S'MPI_Init()'
p364
S'39'
p365
tp366
a(S'MPI_Comm_size()'
p367
S'40'
p368
tp369
a(S'MPI_Comm_rank()'
p370
S'41'
p371
tp372
a(S'MPI_Comm_group()'
p373
S'42'
p374
tp375
a(S'MPI_Win_create()'
p376
S'65'
p377
tp378
a(S'MPI_Group_incl()'
p379
S'68'
p380
tp381
a(S'MPI_Win_start()'
p382
S'71'
p383
tp384
a(S'MPI_Put()'
p385
S'72'
p386
tp387
a(S'MPI_Win_complete()'
p388
S'73'
p389
tp390
a(S'MPI_Win_create()'
p391
S'76'
p392
tp393
a(S'MPI_Group_incl()'
p394
S'78'
p395
tp396
a(S'MPI_Win_post()'
p397
S'81'
p398
tp399
a(S'MPI_Win_wait()'
p400
S'82'
p401
tp402
a(S'MPI_Barrier()'
p403
S'86'
p404
tp405
a(S'MPI_Win_start()'
p406
S'93'
p407
tp408
a(S'MPI_Put()'
p409
S'96'
p410
tp411
a(S'MPI_Win_complete()'
p412
S'98'
p413
tp414
a(S'MPI_Barrier()'
p415
S'101'
p416
tp417
a(S'MPI_Win_post()'
p418
S'107'
p419
tp420
a(S'MPI_Win_wait()'
p421
S'108'
p422
tp423
a(S'MPI_Barrier()'
p424
S'110'
p425
tp426
a(S'MPI_Win_free()'
p427
S'124'
p428
tp429
a(S'MPI_Barrier()'
p430
S'126'
p431
tp432
a(S'MPI_Finalize()'
p433
S'127'
p434
tp435
asS'tomsychapel/test/studies/hpcc/RA/diten/c_mpi/mpi_issend/helloworld.c'
p436
(lp437
(S'MPI_Init()'
p438
S'7'
p439
tp440
a(S'MPI_Comm_rank()'
p441
S'8'
p442
tp443
a(S'MPI_Comm_size()'
p444
S'9'
p445
tp446
a(S'MPI_Finalize()'
p447
S'11'
p448
tp449
asS'tomsychapel/third-party/qthread/qthread-src/test/benchmarks/mantevo/hpccg/make_local_matrix.cpp'
p450
(lp451
(S'MPI_Comm_size()'
p452
S'62'
p453
tp454
a(S'MPI_Comm_rank()'
p455
S'63'
p456
tp457
a(S'MPI_Allreduce()'
p458
S'172'
p459
tp460
a(S'X_MPI_SUM()'
p461
S'173'
p462
tp463
a(S'MPI_Allreduce()'
p464
S'291'
p465
tp466
a(S'MPI_Irecv()'
p467
S'374'
p468
tp469
a(S'X_MPI_COMM_WORLD()'
p470
S'375'
p471
tp472
a(S'MPI_Send()'
p473
S'381'
p474
tp475
a(S'MPI_Irecv()'
p476
S'473'
p477
tp478
a(S'MPI_Send()'
p479
S'506'
p480
tp481
a(S'MPI_Irecv()'
p482
S'533'
p483
tp484
a(S'X_MPI_MY_TAG()'
p485
S'534'
p486
tp487
a(S'MPI_Send()'
p488
S'555'
p489
tp490
a(S'X_MPI_MY_TAG()'
p491
S'556'
p492
tp493
asS'tomsychapel/third-party/qthread/qthread-src/test/benchmarks/mantevo/hpccg/compute_residual.cpp'
p494
(lp495
(S'MPI_Allreduce()'
p496
S'106'
p497
tp498
a(S'MPI_Allreduce()'
p499
S'136'
p500
tp501
asS'tomsychapel/third-party/gasnet/gasnet-src/tests/mpi/testosumpi_bw.c'
p502
(lp503
(S'MPI_Init()'
p504
S'42'
p505
tp506
a(S'MPI_Comm_size()'
p507
S'43'
p508
tp509
a(S'MPI_Comm_rank()'
p510
S'44'
p511
tp512
a(S'MPI_Wtime()'
p513
S'80'
p514
tp515
a(S'MPI_Isend()'
p516
S'82'
p517
tp518
a(S'X_MPI_COMM_WORLD()'
p519
S'83'
p520
tp521
a(S'MPI_Waitall()'
p522
S'85'
p523
tp524
a(S'MPI_Recv()'
p525
S'86'
p526
tp527
a(S'MPI_Wtime()'
p528
S'91'
p529
tp530
a(S'MPI_Irecv()'
p531
S'99'
p532
tp533
a(S'X_MPI_COMM_WORLD()'
p534
S'100'
p535
tp536
a(S'MPI_Waitall()'
p537
S'102'
p538
tp539
a(S'MPI_Send()'
p540
S'103'
p541
tp542
a(S'MPI_Finalize()'
p543
S'125'
p544
tp545
asS'tomsychapel/third-party/qthread/qthread-src/test/benchmarks/mantevo/hpccg/HPCCG.cpp'
p546
(lp547
(S'MPI_Comm_size()'
p548
S'83'
p549
tp550
a(S'MPI_Comm_rank()'
p551
S'84'
p552
tp553
asS'tomsychapel/third-party/gasnet/gasnet-src/other/mpi-spawner/gasnet_bootstrap_mpi.c'
p554
(lp555
(S'MPI_Initialized()'
p556
S'35'
p557
tp558
a(S'MPI_Init()'
p559
S'41'
p560
tp561
a(S'MPI_Comm_group()'
p562
S'46'
p563
tp564
a(S'MPI_Comm_create()'
p565
S'48'
p566
tp567
a(S'MPI_Group_free()'
p568
S'50'
p569
tp570
a(S'MPI_Comm_size()'
p571
S'54'
p572
tp573
a(S'MPI_Comm_rank()'
p574
S'59'
p575
tp576
a(S'MPI_Comm_free()'
p577
S'73'
p578
tp579
a(S'MPI_Barrier()'
p580
S'97'
p581
tp582
a(S'MPI_Allgather()'
p583
S'113'
p584
tp585
a(S'MPI_Alltoall()'
p586
S'134'
p587
tp588
a(S'MPI_Bcast()'
p589
S'148'
p590
tp591
a(S'MPI_Isend()'
p592
S'164'
p593
tp594
a(S'MPI_Waitall()'
p595
S'167'
p596
tp597
a(S'MPI_Recv()'
p598
S'171'
p599
tp600
asS'tomsychapel/test/studies/hpcc/RA/diten/c_mpi/mpi_send/helloworld.c'
p601
(lp602
(S'MPI_Init()'
p603
g439
tp604
a(S'MPI_Comm_rank()'
p605
g442
tp606
a(S'MPI_Comm_size()'
p607
g445
tp608
a(S'MPI_Finalize()'
p609
S'11'
p610
tp611
asS'tomsychapel/third-party/gasnet/gasnet-src/tests/mpi/testmpiperf.c'
p612
(lp613
(S'MPI_SAFE()'
p614
S'67'
p615
tp616
a(S'MPI_SAFE()'
p617
S'68'
p618
tp619
a(S'MPI_SAFE()'
p620
S'69'
p621
tp622
a(S'MPI_SAFE()'
p623
S'90'
p624
tp625
a(S'MPI_SAFE()'
p626
S'101'
p627
tp628
a(S'MPI_SAFE()'
p629
S'108'
p630
tp631
a(S'MPI_Barrier()'
p632
S'159'
p633
tp634
a(S'MPI_SAFE()'
p635
S'204'
p636
tp637
a(S'MPI_SAFE()'
p638
S'219'
p639
tp640
a(S'MPI_SAFE()'
p641
S'221'
p642
tp643
a(S'MPI_SAFE()'
p644
S'225'
p645
tp646
a(S'MPI_SAFE()'
p647
S'230'
p648
tp649
a(S'MPI_SAFE()'
p650
S'240'
p651
tp652
a(S'MPI_SAFE()'
p653
S'249'
p654
tp655
a(S'MPI_SAFE()'
p656
S'251'
p657
tp658
a(S'MPI_SAFE()'
p659
S'255'
p660
tp661
a(S'MPI_SAFE()'
p662
S'259'
p663
tp664
a(S'MPI_SAFE()'
p665
S'265'
p666
tp667
a(S'MPI_SAFE()'
p668
S'281'
p669
tp670
a(S'MPI_SAFE()'
p671
S'334'
p672
tp673
a(S'MPI_SAFE()'
p674
S'350'
p675
tp676
a(S'MPI_SAFE()'
p677
S'362'
p678
tp679
a(S'MPI_SAFE()'
p680
S'371'
p681
tp682
a(S'MPI_SAFE()'
p683
S'383'
p684
tp685
a(S'MPI_SAFE()'
p686
S'390'
p687
tp688
a(S'MPI_SAFE()'
p689
S'400'
p690
tp691
a(S'MPI_SAFE()'
p692
S'463'
p693
tp694
a(S'MPI_SAFE()'
p695
S'478'
p696
tp697
a(S'MPI_SAFE()'
p698
S'487'
p699
tp700
a(S'MPI_SAFE()'
p701
S'493'
p702
tp703
a(S'MPI_Alltoall()'
p704
S'540'
p705
tp706
asS'tomsychapel/test/users/npadmana/mpi/transpose.chpl'
p707
(lp708
(S'MPI_Alltoall()'
p709
S'48'
p710
tp711
asS'tomsychapel/third-party/qthread/qthread-src/test/benchmarks/mantevo/hpccg/main.cpp'
p712
(lp713
(S'MPI_Init()'
p714
S'109'
p715
tp716
a(S'MPI_Comm_size()'
p717
S'111'
p718
tp719
a(S'MPI_Comm_rank()'
p720
S'112'
p721
tp722
a(S'MPI_Barrier()'
p723
S'130'
p724
tp725
a(S'MPI_Allreduce()'
p726
S'177'
p727
tp728
a(S'MPI_Allreduce()'
p729
S'178'
p730
tp731
a(S'MPI_Allreduce()'
p732
S'179'
p733
tp734
a(S'MPI_Finalize()'
p735
S'236'
p736
tp737
asS'tomsychapel/test/users/npadmana/mpi/deprecated/simple_mixed_works.chpl'
p738
(lp739
(S'MPI_Allreduce()'
p740
S'65'
p741
tp742
asS'tomsychapel/test/users/npadmana/mpi/ring.chpl'
p743
(lp744
(S'MPI_Send()'
p745
S'38'
p746
tp747
a(S'MPI_Recv()'
p748
S'61'
p749
tp750
asS'tomsychapel/test/studies/hpcc/RA/diten/c_mpi/mpi_issend/ra.c'
p751
(lp752
(S'MPI_Test()'
p753
S'42'
p754
tp755
a(S'MPI_Irecv()'
p756
S'53'
p757
tp758
a(S'MPI_Issend()'
p759
S'66'
p760
tp761
a(S'MPI_Test()'
p762
S'69'
p763
tp764
a(S'MPI_Init()'
p765
S'94'
p766
tp767
a(S'MPI_Comm_rank()'
p768
S'95'
p769
tp770
a(S'MPI_Comm_size()'
p771
S'96'
p772
tp773
a(S'MPI_Abort()'
p774
S'110'
p775
tp776
a(S'MPI_Barrier()'
p777
S'118'
p778
tp779
a(S'MPI_Irecv()'
p780
S'128'
p781
tp782
a(S'MPI_Barrier()'
p783
S'153'
p784
tp785
a(S'MPI_Reduce()'
p786
S'166'
p787
tp788
a(S'MPI_Finalize()'
p789
S'179'
p790
tp791
asS'tomsychapel/third-party/gasnet/gasnet-src/tests/mpi/testosumpi2_get_bw.c'
p792
(lp793
(S'MPI_Init()'
p794
S'39'
p795
tp796
a(S'MPI_Comm_size()'
p797
S'40'
p798
tp799
a(S'MPI_Comm_rank()'
p800
S'41'
p801
tp802
a(S'MPI_Comm_group()'
p803
S'42'
p804
tp805
a(S'MPI_Win_create()'
p806
S'65'
p807
tp808
a(S'MPI_Group_incl()'
p809
S'68'
p810
tp811
a(S'MPI_Win_start()'
p812
S'71'
p813
tp814
a(S'MPI_Get()'
p815
S'72'
p816
tp817
a(S'MPI_Win_complete()'
p818
S'73'
p819
tp820
a(S'MPI_Win_create()'
p821
S'76'
p822
tp823
a(S'MPI_Group_incl()'
p824
S'78'
p825
tp826
a(S'MPI_Win_post()'
p827
S'81'
p828
tp829
a(S'MPI_Win_wait()'
p830
S'82'
p831
tp832
a(S'MPI_Barrier()'
p833
S'86'
p834
tp835
a(S'MPI_Win_start()'
p836
S'93'
p837
tp838
a(S'MPI_Get()'
p839
S'96'
p840
tp841
a(S'MPI_Win_complete()'
p842
S'98'
p843
tp844
a(S'MPI_Barrier()'
p845
S'101'
p846
tp847
a(S'MPI_Win_post()'
p848
S'107'
p849
tp850
a(S'MPI_Win_wait()'
p851
S'108'
p852
tp853
a(S'MPI_Barrier()'
p854
S'110'
p855
tp856
a(S'MPI_Win_free()'
p857
S'124'
p858
tp859
a(S'MPI_Barrier()'
p860
S'126'
p861
tp862
a(S'MPI_Finalize()'
p863
S'127'
p864
tp865
asS'tomsychapel/test/users/npadmana/SimpleMPI/SimpleMPI.chpl'
p866
(lp867
(S'MPI_Comm_rank()'
p868
S'40'
p869
tp870
a(S'MPI_Comm_size()'
p871
S'45'
p872
tp873
a(S'MPI_Initialized()'
p874
S'57'
p875
tp876
asS'tomsychapel/test/studies/hpcc/RA/diten/c_mpi/mpi_send/ra.c'
p877
(lp878
(S'MPI_Test()'
p879
S'52'
p880
tp881
a(S'MPI_Irecv()'
p882
S'61'
p883
tp884
a(S'MPI_Send()'
p885
S'77'
p886
tp887
a(S'MPI_Init()'
p888
S'86'
p889
tp890
a(S'MPI_Comm_rank()'
p891
S'87'
p892
tp893
a(S'MPI_Comm_size()'
p894
S'88'
p895
tp896
a(S'MPI_Abort()'
p897
S'104'
p898
tp899
a(S'MPI_Barrier()'
p900
S'113'
p901
tp902
a(S'MPI_Irecv()'
p903
S'124'
p904
tp905
a(S'MPI_Barrier()'
p906
S'153'
p907
tp908
a(S'MPI_Reduce()'
p909
S'166'
p910
tp911
a(S'MPI_Finalize()'
p912
S'179'
p913
tp914
asS'tomsychapel/third-party/gasnet/gasnet-src/tests/mpi/testosumpi2_get_lat.c'
p915
(lp916
(S'MPI_Init()'
p917
S'33'
p918
tp919
a(S'MPI_Comm_size()'
p920
S'34'
p921
tp922
a(S'MPI_Comm_rank()'
p923
S'35'
p924
tp925
a(S'MPI_Abort()'
p926
S'39'
p927
tp928
a(S'MPI_Comm_group()'
p929
S'59'
p930
tp931
a(S'MPI_Win_create()'
p932
S'65'
p933
tp934
a(S'MPI_Group_incl()'
p935
S'67'
p936
tp937
a(S'MPI_Barrier()'
p938
S'68'
p939
tp940
a(S'MPI_Win_start()'
p941
S'72'
p942
tp943
a(S'MPI_Get()'
p944
S'76'
p945
tp946
a(S'MPI_Win_complete()'
p947
S'77'
p948
tp949
a(S'MPI_Win_post()'
p950
S'78'
p951
tp952
a(S'MPI_Win_wait()'
p953
S'79'
p954
tp955
a(S'MPI_Win_create()'
p956
S'84'
p957
tp958
a(S'MPI_Group_incl()'
p959
S'86'
p960
tp961
a(S'MPI_Barrier()'
p962
S'88'
p963
tp964
a(S'MPI_Win_post()'
p965
S'92'
p966
tp967
a(S'MPI_Win_wait()'
p968
S'93'
p969
tp970
a(S'MPI_Win_start()'
p971
S'94'
p972
tp973
a(S'MPI_Get()'
p974
S'95'
p975
tp976
a(S'MPI_Win_complete()'
p977
S'96'
p978
tp979
a(S'MPI_Barrier()'
p980
S'104'
p981
tp982
a(S'MPI_Group_free()'
p983
S'105'
p984
tp985
a(S'MPI_Win_free()'
p986
S'107'
p987
tp988
a(S'MPI_Group_free()'
p989
S'110'
p990
tp991
a(S'MPI_Finalize()'
p992
S'111'
p993
tp994
asS'tomsychapel/third-party/gasnet/gasnet-src/tests/mpi/testosumpi_bcast_lat.c'
p995
(lp996
(S'MPI_Init()'
p997
S'36'
p998
tp999
a(S'MPI_Comm_rank()'
p1000
S'37'
p1001
tp1002
a(S'MPI_Comm_size()'
p1003
S'38'
p1004
tp1005
a(S'MPI_Barrier()'
p1006
S'45'
p1007
tp1008
a(S'MPI_Barrier()'
p1009
S'53'
p1010
tp1011
a(S'MPI_Bcast()'
p1012
S'62'
p1013
tp1014
a(S'MPI_Recv()'
p1015
S'65'
p1016
tp1017
a(S'MPI_Send()'
p1018
S'72'
p1019
tp1020
a(S'MPI_Barrier()'
p1021
S'88'
p1022
tp1023
a(S'MPI_Finalize()'
p1024
S'91'
p1025
tp1026
a(S'MPI_Send()'
p1027
S'105'
p1028
tp1029
a(S'MPI_Recv()'
p1030
S'106'
p1031
tp1032
a(S'MPI_Recv()'
p1033
S'113'
p1034
tp1035
a(S'MPI_Send()'
p1036
S'115'
p1037
tp1038
asS'tomsychapel/third-party/gasnet/gasnet-src/tests/mpi/testmpicollperf.c'
p1039
(lp1040
(S'MPI_Barrier()'
p1041
S'15'
p1042
tp1043
a(S'MPI_Bcast()'
p1044
S'40'
p1045
tp1046
a(S'MPI_Barrier()'
p1047
S'43'
p1048
tp1049
a(S'MPI_Barrier()'
p1050
S'47'
p1051
tp1052
a(S'MPI_Wtime()'
p1053
S'49'
p1054
tp1055
a(S'MPI_Bcast()'
p1056
S'51'
p1057
tp1058
a(S'MPI_Wtime()'
p1059
S'53'
p1060
tp1061
a(S'MPI_Barrier()'
p1062
S'54'
p1063
tp1064
a(S'MPI_Wtime()'
p1065
S'60'
p1066
tp1067
a(S'MPI_Barrier()'
p1068
S'61'
p1069
tp1070
a(S'MPI_Wtime()'
p1071
S'65'
p1072
tp1073
a(S'MPI_Gather()'
p1074
S'69'
p1075
tp1076
a(S'MPI_Gather()'
p1077
S'70'
p1078
tp1079
a(S'MPI_Gather()'
p1080
S'72'
p1081
tp1082
a(S'MPI_Gather()'
p1083
S'73'
p1084
tp1085
a(S'MPI_Barrier()'
p1086
S'111'
p1087
tp1088
a(S'MPI_Scatter()'
p1089
S'113'
p1090
tp1091
a(S'MPI_Barrier()'
p1092
S'117'
p1093
tp1094
a(S'MPI_Wtime()'
p1095
S'119'
p1096
tp1097
a(S'MPI_Scatter()'
p1098
S'121'
p1099
tp1100
a(S'MPI_Wtime()'
p1101
S'124'
p1102
tp1103
a(S'MPI_Barrier()'
p1104
S'125'
p1105
tp1106
a(S'MPI_Wtime()'
p1107
S'130'
p1108
tp1109
a(S'MPI_Barrier()'
p1110
S'131'
p1111
tp1112
a(S'MPI_Wtime()'
p1113
S'135'
p1114
tp1115
a(S'MPI_Gather()'
p1116
S'139'
p1117
tp1118
a(S'MPI_Gather()'
p1119
S'140'
p1120
tp1121
a(S'MPI_Gather()'
p1122
S'142'
p1123
tp1124
a(S'MPI_Gather()'
p1125
S'143'
p1126
tp1127
a(S'MPI_Gather()'
p1128
S'184'
p1129
tp1130
a(S'MPI_Barrier()'
p1131
S'188'
p1132
tp1133
a(S'MPI_Wtime()'
p1134
S'190'
p1135
tp1136
a(S'MPI_Gather()'
p1137
S'192'
p1138
tp1139
a(S'MPI_Wtime()'
p1140
S'195'
p1141
tp1142
a(S'MPI_Barrier()'
p1143
S'197'
p1144
tp1145
a(S'MPI_Wtime()'
p1146
S'202'
p1147
tp1148
a(S'MPI_Barrier()'
p1149
S'203'
p1150
tp1151
a(S'MPI_Wtime()'
p1152
S'207'
p1153
tp1154
a(S'MPI_Gather()'
p1155
S'211'
p1156
tp1157
a(S'MPI_Gather()'
p1158
S'212'
p1159
tp1160
a(S'MPI_Gather()'
p1161
S'214'
p1162
tp1163
a(S'MPI_Gather()'
p1164
S'215'
p1165
tp1166
a(S'MPI_Allgather()'
p1167
S'255'
p1168
tp1169
a(S'MPI_Barrier()'
p1170
S'258'
p1171
tp1172
a(S'MPI_Wtime()'
p1173
S'260'
p1174
tp1175
a(S'MPI_Allgather()'
p1176
S'262'
p1177
tp1178
a(S'MPI_Wtime()'
p1179
S'265'
p1180
tp1181
a(S'MPI_Barrier()'
p1182
S'266'
p1183
tp1184
a(S'MPI_Wtime()'
p1185
S'270'
p1186
tp1187
a(S'MPI_Gather()'
p1188
S'274'
p1189
tp1190
a(S'MPI_Gather()'
p1191
S'275'
p1192
tp1193
a(S'MPI_Gather()'
p1194
S'277'
p1195
tp1196
a(S'MPI_Gather()'
p1197
S'278'
p1198
tp1199
a(S'MPI_Barrier()'
p1200
S'316'
p1201
tp1202
a(S'MPI_Wtime()'
p1203
S'318'
p1204
tp1205
a(S'MPI_Reduce()'
p1206
S'320'
p1207
tp1208
a(S'MPI_Wtime()'
p1209
S'323'
p1210
tp1211
a(S'MPI_Barrier()'
p1212
S'324'
p1213
tp1214
a(S'MPI_Wtime()'
p1215
S'327'
p1216
tp1217
a(S'MPI_Gather()'
p1218
S'332'
p1219
tp1220
a(S'MPI_Gather()'
p1221
S'333'
p1222
tp1223
a(S'MPI_Gather()'
p1224
S'335'
p1225
tp1226
a(S'MPI_Gather()'
p1227
S'336'
p1228
tp1229
a(S'MPI_Reduce()'
p1230
S'374'
p1231
tp1232
a(S'MPI_Barrier()'
p1233
S'377'
p1234
tp1235
a(S'MPI_Wtime()'
p1236
S'379'
p1237
tp1238
a(S'MPI_Reduce()'
p1239
S'381'
p1240
tp1241
a(S'MPI_Wtime()'
p1242
S'384'
p1243
tp1244
a(S'MPI_Barrier()'
p1245
S'386'
p1246
tp1247
a(S'MPI_Wtime()'
p1248
S'392'
p1249
tp1250
a(S'MPI_Barrier()'
p1251
S'393'
p1252
tp1253
a(S'MPI_Wtime()'
p1254
S'397'
p1255
tp1256
a(S'MPI_Gather()'
p1257
S'402'
p1258
tp1259
a(S'MPI_Gather()'
p1260
S'403'
p1261
tp1262
a(S'MPI_Gather()'
p1263
S'405'
p1264
tp1265
a(S'MPI_Gather()'
p1266
S'406'
p1267
tp1268
a(S'MPI_Barrier()'
p1269
S'448'
p1270
tp1271
a(S'MPI_Alltoall()'
p1272
S'451'
p1273
tp1274
a(S'MPI_Barrier()'
p1275
S'453'
p1276
tp1277
a(S'MPI_Barrier()'
p1278
S'456'
p1279
tp1280
a(S'MPI_Wtime()'
p1281
S'458'
p1282
tp1283
a(S'MPI_Alltoall()'
p1284
S'460'
p1285
tp1286
a(S'MPI_Wtime()'
p1287
S'464'
p1288
tp1289
a(S'MPI_Barrier()'
p1290
S'466'
p1291
tp1292
a(S'MPI_Wtime()'
p1293
S'468'
p1294
tp1295
a(S'MPI_Gather()'
p1296
S'472'
p1297
tp1298
a(S'MPI_Gather()'
p1299
S'473'
p1300
tp1301
a(S'MPI_Gather()'
p1302
S'475'
p1303
tp1304
a(S'MPI_Gather()'
p1305
S'476'
p1306
tp1307
a(S'MPI_Barrier()'
p1308
S'508'
p1309
tp1310
a(S'MPI_Wtime()'
p1311
S'510'
p1312
tp1313
a(S'MPI_Allreduce()'
p1314
S'512'
p1315
tp1316
a(S'MPI_Wtime()'
p1317
S'515'
p1318
tp1319
a(S'MPI_Gather()'
p1320
S'519'
p1321
tp1322
a(S'MPI_Gather()'
p1323
S'520'
p1324
tp1325
a(S'MPI_Gather()'
p1326
S'522'
p1327
tp1328
a(S'MPI_Gather()'
p1329
S'523'
p1330
tp1331
a(S'MPI_Init()'
p1332
S'541'
p1333
tp1334
a(S'MPI_Comm_rank()'
p1335
S'543'
p1336
tp1337
a(S'MPI_Comm_size()'
p1338
S'544'
p1339
tp1340
a(S'MPI_Barrier()'
p1341
S'553'
p1342
tp1343
a(S'MPI_Wtime()'
p1344
S'554'
p1345
tp1346
a(S'MPI_Barrier()'
p1347
S'556'
p1348
tp1349
a(S'MPI_Wtime()'
p1350
S'558'
p1351
tp1352
a(S'MPI_Barrier()'
p1353
S'577'
p1354
tp1355
a(S'MPI_Finalize()'
p1356
S'578'
p1357
tp1358
asS'tomsychapel/third-party/gasnet/gasnet-src/configure.in'
p1359
(lp1360
(S'MPI_Init()'
p1361
S'2647'
p1362
tp1363
a(S'MPI_Finalize()'
p1364
S'2648'
p1365
tp1366
a(S'MPI_Init()'
p1367
S'2658'
p1368
tp1369
a(S'MPI_Finalize()'
p1370
S'2659'
p1371
tp1372
asS'tomsychapel/third-party/gasnet/gasnet-src/shmem-conduit/gasnet_core.c'
p1373
(lp1374
(S'MPI_Finalize()'
p1375
S'632'
p1376
tp1377
asS'tomsychapel/third-party/qthread/qthread-src/test/benchmarks/mantevo/hpccg/exchange_externals.cpp'
p1378
(lp1379
(S'MPI_Comm_size()'
p1380
S'55'
p1381
tp1382
a(S'MPI_Comm_rank()'
p1383
S'56'
p1384
tp1385
a(S'MPI_Irecv()'
p1386
S'77'
p1387
tp1388
a(S'X_MPI_COMM_WORLD()'
p1389
S'78'
p1390
tp1391
a(S'MPI_Send()'
p1392
S'96'
p1393
tp1394
asS'tomsychapel/third-party/gasnet/gasnet-src/other/ammpi/ammpi_reqrep.c'
p1395
(lp1396
(S'MPI_Issend()'
p1397
S'68'
p1398
tp1399
a(S'MPI_Isend()'
p1400
S'70'
p1401
tp1402
a(S'MPI_Bsend()'
p1403
S'75'
p1404
tp1405
a(S'MPI_SAFE()'
p1406
S'496'
p1407
tp1408
a(S'MPI_SAFE()'
p1409
S'519'
p1410
tp1411
a(S'MPI_SAFE()'
p1412
S'530'
p1413
tp1414
a(S'MPI_SAFE()'
p1415
S'549'
p1416
tp1417
a(S'MPI_SAFE()'
p1418
S'551'
p1419
tp1420
a(S'MPI_SAFE()'
p1421
S'572'
p1422
tp1423
a(S'MPI_SAFE()'
p1424
S'575'
p1425
tp1426
a(S'MPI_SAFE()'
p1427
S'579'
p1428
tp1429
a(S'MPI_SAFE()'
p1430
S'582'
p1431
tp1432
a(S'MPI_SAFE()'
p1433
S'607'
p1434
tp1435
asS'tomsychapel/third-party/gasnet/gasnet-src/tests/mpi/testosumpi2_put_lat.c'
p1436
(lp1437
(S'MPI_Init()'
p1438
S'33'
p1439
tp1440
a(S'MPI_Comm_size()'
p1441
S'34'
p1442
tp1443
a(S'MPI_Comm_rank()'
p1444
S'35'
p1445
tp1446
a(S'MPI_Abort()'
p1447
S'39'
p1448
tp1449
a(S'MPI_Comm_group()'
p1450
S'59'
p1451
tp1452
a(S'MPI_Win_create()'
p1453
S'65'
p1454
tp1455
a(S'MPI_Group_incl()'
p1456
S'67'
p1457
tp1458
a(S'MPI_Barrier()'
p1459
S'68'
p1460
tp1461
a(S'MPI_Win_start()'
p1462
S'72'
p1463
tp1464
a(S'MPI_Put()'
p1465
S'76'
p1466
tp1467
a(S'MPI_Win_complete()'
p1468
S'77'
p1469
tp1470
a(S'MPI_Win_post()'
p1471
S'78'
p1472
tp1473
a(S'MPI_Win_wait()'
p1474
S'79'
p1475
tp1476
a(S'MPI_Win_create()'
p1477
S'84'
p1478
tp1479
a(S'MPI_Group_incl()'
p1480
S'86'
p1481
tp1482
a(S'MPI_Barrier()'
p1483
S'88'
p1484
tp1485
a(S'MPI_Win_post()'
p1486
S'92'
p1487
tp1488
a(S'MPI_Win_wait()'
p1489
S'93'
p1490
tp1491
a(S'MPI_Win_start()'
p1492
S'94'
p1493
tp1494
a(S'MPI_Put()'
p1495
S'95'
p1496
tp1497
a(S'MPI_Win_complete()'
p1498
S'96'
p1499
tp1500
a(S'MPI_Barrier()'
p1501
S'104'
p1502
tp1503
a(S'MPI_Group_free()'
p1504
S'105'
p1505
tp1506
a(S'MPI_Win_free()'
p1507
S'107'
p1508
tp1509
a(S'MPI_Group_free()'
p1510
S'110'
p1511
tp1512
a(S'MPI_Finalize()'
p1513
S'111'
p1514
tp1515
asS'tomsychapel/third-party/gasnet/gasnet-src/configure'
p1516
(lp1517
(S'MPI_Init()'
p1518
S'139171'
p1519
tp1520
a(S'MPI_Finalize()'
p1521
S'139172'
p1522
tp1523
a(S'MPI_Init()'
p1524
S'139328'
p1525
tp1526
a(S'MPI_Finalize()'
p1527
S'139329'
p1528
tp1529
asS'tomsychapel/third-party/gasnet/gasnet-src/tests/mpi/testosumpi2_acc_lat.c'
p1530
(lp1531
(S'MPI_Init()'
p1532
S'35'
p1533
tp1534
a(S'MPI_Comm_size()'
p1535
S'36'
p1536
tp1537
a(S'MPI_Comm_rank()'
p1538
S'37'
p1539
tp1540
a(S'MPI_Comm_group()'
p1541
S'38'
p1542
tp1543
a(S'MPI_Win_create()'
p1544
S'67'
p1545
tp1546
a(S'MPI_Group_incl()'
p1547
S'69'
p1548
tp1549
a(S'MPI_Barrier()'
p1550
S'70'
p1551
tp1552
a(S'MPI_Win_start()'
p1553
S'74'
p1554
tp1555
a(S'MPI_Accumulate()'
p1556
S'76'
p1557
tp1558
a(S'MPI_Win_complete()'
p1559
S'77'
p1560
tp1561
a(S'MPI_Win_post()'
p1562
S'78'
p1563
tp1564
a(S'MPI_Win_wait()'
p1565
S'79'
p1566
tp1567
a(S'MPI_Win_free()'
p1568
S'82'
p1569
tp1570
a(S'MPI_Win_create()'
p1571
S'87'
p1572
tp1573
a(S'MPI_Group_incl()'
p1574
S'89'
p1575
tp1576
a(S'MPI_Barrier()'
p1577
S'90'
p1578
tp1579
a(S'MPI_Win_post()'
p1580
S'94'
p1581
tp1582
a(S'MPI_Win_wait()'
p1583
S'95'
p1584
tp1585
a(S'MPI_Win_start()'
p1586
S'96'
p1587
tp1588
a(S'MPI_Accumulate()'
p1589
S'97'
p1590
tp1591
a(S'MPI_Win_complete()'
p1592
S'98'
p1593
tp1594
a(S'MPI_Win_free()'
p1595
S'101'
p1596
tp1597
a(S'MPI_Finalize()'
p1598
S'113'
p1599
tp1600
asS'tomsychapel/third-party/gasnet/gasnet-src/other/ammpi/ammpi_spmd.c'
p1601
(lp1602
(S'MPI_SAFE()'
p1603
S'181'
p1604
tp1605
a(S'MPI_SAFE()'
p1606
S'183'
p1607
tp1608
a(S'MPI_SAFE()'
p1609
S'185'
p1610
tp1611
a(S'MPI_SAFE()'
p1612
S'204'
p1613
tp1614
a(S'MPI_SAFE()'
p1615
S'209'
p1616
tp1617
a(S'MPI_SAFE()'
p1618
S'233'
p1619
tp1620
a(S'MPI_SAFE()'
p1621
S'234'
p1622
tp1623
a(S'MPI_SAFE()'
p1624
S'262'
p1625
tp1626
a(S'MPI_SAFE()'
p1627
S'263'
p1628
tp1629
a(S'MPI_SAFE()'
p1630
S'264'
p1631
tp1632
a(S'MPI_SAFE()'
p1633
S'271'
p1634
tp1635
a(S'MPI_SAFE()'
p1636
S'297'
p1637
tp1638
a(S'MPI_SAFE()'
p1639
S'301'
p1640
tp1641
a(S'MPI_SAFE()'
p1642
S'346'
p1643
tp1644
a(S'MPI_SAFE()'
p1645
S'431'
p1646
tp1647
a(S'MPI_SAFE()'
p1648
S'434'
p1649
tp1650
a(S'MPI_SAFE()'
p1651
S'437'
p1652
tp1653
a(S'MPI_SAFE()'
p1654
S'558'
p1655
tp1656
a(S'MPI_SAFE()'
p1657
S'567'
p1658
tp1659
asS'tomsychapel/third-party/gasnet/gasnet-src/tests/mpi/testosumpi2_put_bw2.c'
p1660
(lp1661
(S'MPI_Init()'
p1662
S'40'
p1663
tp1664
a(S'MPI_Comm_size()'
p1665
S'41'
p1666
tp1667
a(S'MPI_Comm_rank()'
p1668
S'42'
p1669
tp1670
a(S'MPI_Comm_group()'
p1671
S'43'
p1672
tp1673
a(S'MPI_Win_create()'
p1674
S'66'
p1675
tp1676
a(S'MPI_Group_incl()'
p1677
S'69'
p1678
tp1679
a(S'MPI_Win_post()'
p1680
S'72'
p1681
tp1682
a(S'MPI_Win_start()'
p1683
S'73'
p1684
tp1685
a(S'MPI_Put()'
p1686
S'74'
p1687
tp1688
a(S'MPI_Win_complete()'
p1689
S'75'
p1690
tp1691
a(S'MPI_Win_wait()'
p1692
S'76'
p1693
tp1694
a(S'MPI_Win_create()'
p1695
S'79'
p1696
tp1697
a(S'MPI_Group_incl()'
p1698
S'81'
p1699
tp1700
a(S'MPI_Win_post()'
p1701
S'84'
p1702
tp1703
a(S'MPI_Win_start()'
p1704
S'85'
p1705
tp1706
a(S'MPI_Put()'
p1707
S'86'
p1708
tp1709
a(S'MPI_Win_complete()'
p1710
S'87'
p1711
tp1712
a(S'MPI_Win_wait()'
p1713
S'88'
p1714
tp1715
a(S'MPI_Barrier()'
p1716
S'92'
p1717
tp1718
a(S'MPI_Win_post()'
p1719
S'99'
p1720
tp1721
a(S'MPI_Win_start()'
p1722
S'100'
p1723
tp1724
a(S'MPI_Put()'
p1725
S'103'
p1726
tp1727
a(S'MPI_Win_complete()'
p1728
S'105'
p1729
tp1730
a(S'MPI_Win_wait()'
p1731
S'106'
p1732
tp1733
a(S'MPI_Barrier()'
p1734
S'109'
p1735
tp1736
a(S'MPI_Win_post()'
p1737
S'115'
p1738
tp1739
a(S'MPI_Win_start()'
p1740
S'116'
p1741
tp1742
a(S'MPI_Put()'
p1743
S'119'
p1744
tp1745
a(S'MPI_Win_complete()'
p1746
S'121'
p1747
tp1748
a(S'MPI_Win_wait()'
p1749
S'122'
p1750
tp1751
a(S'MPI_Barrier()'
p1752
S'124'
p1753
tp1754
a(S'MPI_Win_free()'
p1755
S'138'
p1756
tp1757
a(S'MPI_Barrier()'
p1758
S'140'
p1759
tp1760
a(S'MPI_Finalize()'
p1761
S'141'
p1762
tp1763
asS'tomsychapel/third-party/gasnet/gasnet-src/other/ammpi/ammpi_ep.c'
p1764
(lp1765
(S'MPI_SAFE()'
p1766
S'185'
p1767
tp1768
a(S'MPI_SAFE()'
p1769
S'190'
p1770
tp1771
a(S'MPI_SAFE()'
p1772
S'191'
p1773
tp1774
a(S'MPI_SAFE()'
p1775
S'192'
p1776
tp1777
a(S'MPI_SAFE()'
p1778
S'195'
p1779
tp1780
a(S'MPI_SAFE()'
p1781
S'200'
p1782
tp1783
a(S'MPI_SAFE()'
p1784
S'201'
p1785
tp1786
a(S'MPI_SAFE()'
p1787
S'203'
p1788
tp1789
a(S'MPI_SAFE()'
p1790
S'204'
p1791
tp1792
a(S'MPI_SAFE()'
p1793
S'272'
p1794
tp1795
a(S'MPI_SAFE()'
p1796
S'273'
p1797
tp1798
a(S'MPI_SAFE()'
p1799
S'332'
p1800
tp1801
a(S'X_MPI_ANY_SOURCE()'
p1802
S'333'
p1803
tp1804
a(S'MPI_SAFE()'
p1805
S'476'
p1806
tp1807
a(S'MPI_SAFE()'
p1808
S'525'
p1809
tp1810
a(S'MPI_SAFE()'
p1811
S'665'
p1812
tp1813
a(S'MPI_SAFE()'
p1814
S'695'
p1815
tp1816
a(S'MPI_SAFE()'
p1817
S'905'
p1818
tp1819
a(S'MPI_SAFE()'
p1820
S'923'
p1821
tp1822
asS'tomsychapel/test/users/npadmana/mpi/simple_mixed.chpl'
p1823
(lp1824
(S'MPI_Allreduce()'
p1825
S'26'
p1826
tp1827
asS'tomsychapel/third-party/gasnet/gasnet-src/tests/mpi/testosumpi_bw2.c'
p1828
(lp1829
(S'MPI_Init()'
p1830
S'43'
p1831
tp1832
a(S'MPI_Comm_size()'
p1833
S'44'
p1834
tp1835
a(S'MPI_Comm_rank()'
p1836
S'45'
p1837
tp1838
a(S'MPI_Wtime()'
p1839
S'80'
p1840
tp1841
a(S'MPI_Irecv()'
p1842
S'82'
p1843
tp1844
a(S'X_MPI_COMM_WORLD()'
p1845
S'83'
p1846
tp1847
a(S'MPI_Isend()'
p1848
S'85'
p1849
tp1850
a(S'X_MPI_COMM_WORLD()'
p1851
S'86'
p1852
tp1853
a(S'MPI_Waitall()'
p1854
S'87'
p1855
tp1856
a(S'MPI_Waitall()'
p1857
S'88'
p1858
tp1859
a(S'MPI_Wtime()'
p1860
S'92'
p1861
tp1862
a(S'MPI_Irecv()'
p1863
S'100'
p1864
tp1865
a(S'X_MPI_COMM_WORLD()'
p1866
S'101'
p1867
tp1868
a(S'MPI_Isend()'
p1869
S'103'
p1870
tp1871
a(S'X_MPI_COMM_WORLD()'
p1872
S'104'
p1873
tp1874
a(S'MPI_Waitall()'
p1875
S'105'
p1876
tp1877
a(S'MPI_Waitall()'
p1878
S'106'
p1879
tp1880
a(S'MPI_Finalize()'
p1881
S'128'
p1882
tp1883
asS'tomsychapel/test/users/npadmana/mpi-bugfix-single-rank-comm/test.chpl'
p1884
(lp1885
(S'MPI_Barrier()'
p1886
S'10'
p1887
tp1888
as.