ccollections
defaultdict
p0
(c__builtin__
list
p1
tp2
Rp3
S'Specfem3D_Cartesian_lz/utils/ADJOINT_TOMOGRAPHY_TOOLS/ADJOINT_TOMOGRAPHY_TOOLKIT/ITERATION_UPDATE/X05_SRC_UPDATE_MODELS/add_model_globe.f90'
p4
(lp5
(S'MPI_FINALIZE()'
p6
S'246'
p7
tp8
a(S'MPI_INIT()'
p9
S'262'
p10
tp11
a(S'MPI_COMM_SIZE()'
p12
S'263'
p13
tp14
a(S'MPI_COMM_RANK()'
p15
S'264'
p16
tp17
a(S'mpi_reduce()'
p18
S'430'
p19
tp20
a(S'mpi_reduce()'
p21
S'431'
p22
tp23
a(S'mpi_reduce()'
p24
S'433'
p25
tp26
a(S'mpi_reduce()'
p27
S'434'
p28
tp29
a(S'mpi_reduce()'
p30
S'436'
p31
tp32
a(S'mpi_reduce()'
p33
S'437'
p34
tp35
a(S'mpi_reduce()'
p36
S'439'
p37
tp38
a(S'mpi_reduce()'
p39
S'440'
p40
tp41
a(S'mpi_reduce()'
p42
S'442'
p43
tp44
a(S'mpi_reduce()'
p45
S'443'
p46
tp47
a(S'mpi_reduce()'
p48
S'445'
p49
tp50
a(S'mpi_reduce()'
p51
S'446'
p52
tp53
a(S'mpi_reduce()'
p54
S'514'
p55
tp56
a(S'mpi_reduce()'
p57
S'515'
p58
tp59
a(S'mpi_reduce()'
p60
S'517'
p61
tp62
a(S'mpi_reduce()'
p63
S'518'
p64
tp65
a(S'mpi_reduce()'
p66
S'520'
p67
tp68
a(S'mpi_reduce()'
p69
S'521'
p70
tp71
a(S'mpi_reduce()'
p72
S'523'
p73
tp74
a(S'mpi_reduce()'
p75
S'524'
p76
tp77
a(S'mpi_reduce()'
p78
S'706'
p79
tp80
a(S'mpi_reduce()'
p81
S'707'
p82
tp83
a(S'mpi_reduce()'
p84
S'708'
p85
tp86
a(S'mpi_reduce()'
p87
S'709'
p88
tp89
a(S'mpi_reduce()'
p90
S'710'
p91
tp92
a(S'mpi_reduce()'
p93
S'724'
p94
tp95
a(S'mpi_reduce()'
p96
S'725'
p97
tp98
a(S'mpi_reduce()'
p99
S'726'
p100
tp101
a(S'mpi_reduce()'
p102
S'727'
p103
tp104
a(S'mpi_reduce()'
p105
S'812'
p106
tp107
a(S'mpi_reduce()'
p108
S'813'
p109
tp110
a(S'mpi_reduce()'
p111
S'815'
p112
tp113
a(S'mpi_reduce()'
p114
S'816'
p115
tp116
a(S'mpi_reduce()'
p117
S'818'
p118
tp119
a(S'mpi_reduce()'
p120
S'819'
p121
tp122
a(S'mpi_reduce()'
p123
S'821'
p124
tp125
a(S'mpi_reduce()'
p126
S'822'
p127
tp128
a(S'mpi_reduce()'
p129
S'836'
p130
tp131
a(S'mpi_bcast()'
p132
S'870'
p133
tp134
a(S'mpi_reduce()'
p135
S'879'
p136
tp137
a(S'mpi_reduce()'
p138
S'880'
p139
tp140
a(S'mpi_reduce()'
p141
S'881'
p142
tp143
a(S'mpi_reduce()'
p144
S'882'
p145
tp146
a(S'mpi_reduce()'
p147
S'906'
p148
tp149
a(S'mpi_reduce()'
p150
S'907'
p151
tp152
a(S'mpi_reduce()'
p153
S'909'
p154
tp155
a(S'mpi_reduce()'
p156
S'910'
p157
tp158
a(S'mpi_reduce()'
p159
S'912'
p160
tp161
a(S'mpi_reduce()'
p162
S'913'
p163
tp164
a(S'mpi_reduce()'
p165
S'915'
p166
tp167
a(S'mpi_reduce()'
p168
S'916'
p169
tp170
a(S'mpi_reduce()'
p171
S'979'
p172
tp173
a(S'mpi_reduce()'
p174
S'980'
p175
tp176
a(S'mpi_reduce()'
p177
S'988'
p178
tp179
a(S'mpi_reduce()'
p180
S'989'
p181
tp182
a(S'mpi_reduce()'
p183
S'997'
p184
tp185
a(S'mpi_reduce()'
p186
S'998'
p187
tp188
a(S'mpi_reduce()'
p189
S'1006'
p190
tp191
a(S'mpi_reduce()'
p192
S'1007'
p193
tp194
a(S'mpi_reduce()'
p195
S'1015'
p196
tp197
a(S'mpi_reduce()'
p198
S'1016'
p199
tp200
a(S'mpi_reduce()'
p201
S'1024'
p202
tp203
a(S'mpi_reduce()'
p204
S'1025'
p205
tp206
a(S'mpi_reduce()'
p207
S'1071'
p208
tp209
a(S'mpi_reduce()'
p210
S'1072'
p211
tp212
a(S'mpi_reduce()'
p213
S'1081'
p214
tp215
a(S'mpi_reduce()'
p216
S'1082'
p217
tp218
a(S'mpi_reduce()'
p219
S'1091'
p220
tp221
a(S'mpi_reduce()'
p222
S'1092'
p223
tp224
a(S'mpi_reduce()'
p225
S'1101'
p226
tp227
a(S'mpi_reduce()'
p228
S'1102'
p229
tp230
a(S'mpi_reduce()'
p231
S'1111'
p232
tp233
a(S'mpi_reduce()'
p234
S'1112'
p235
tp236
a(S'mpi_reduce()'
p237
S'1121'
p238
tp239
a(S'mpi_reduce()'
p240
S'1122'
p241
tp242
asS'Specfem3D_Cartesian_lz/utils/ADJOINT_TOMOGRAPHY_TOOLS/ADJOINT_TOMOGRAPHY_TOOLKIT/ITERATION_UPDATE/X05_SRC_UPDATE_MODELS/exit_mpi.f90'
p243
(lp244
(S'MPI_FINALIZE()'
p245
S'53'
p246
tp247
a(S'MPI_ABORT()'
p248
S'54'
p249
tp250
asS'Specfem3D_Cartesian_lz/utils/ADJOINT_TOMOGRAPHY_TOOLS/iterate_adj/cluster/smooth/src/exit_mpi.f90'
p251
(lp252
(S'MPI_FINALIZE()'
p253
S'53'
p254
tp255
a(S'MPI_ABORT()'
p256
S'54'
p257
tp258
asS'Specfem3D_Cartesian_lz/utils/ADJOINT_TOMOGRAPHY_TOOLS/ADJOINT_TOMOGRAPHY_TOOLKIT/ITERATION_UPDATE/X02_SRC_PRECOND_KERNELS/exit_mpi.f90'
p259
(lp260
(S'MPI_FINALIZE()'
p261
S'53'
p262
tp263
a(S'MPI_ABORT()'
p264
S'54'
p265
tp266
asS'Specfem3D_Cartesian_lz/utils/ADJOINT_TOMOGRAPHY_TOOLS/ADJOINT_TOMOGRAPHY_TOOLKIT/FORWARD_ADJOINT/COPY_LOCAL/copy_local.f90'
p267
(lp268
(S'MPI_INIT()'
p269
S'22'
p270
tp271
a(S'MPI_COMM_SIZE()'
p272
S'25'
p273
tp274
a(S'MPI_COMM_RANK()'
p275
S'26'
p276
tp277
a(S'MPI_FINALIZE()'
p278
S'97'
p279
tp280
asS'Specfem3D_Cartesian_lz/src/cuda/save_and_compare_cpu_vs_gpu.c'
p281
(lp282
(S'MPI_Comm_rank()'
p283
S'49'
p284
tp285
a(S'MPI_Comm_rank()'
p286
S'97'
p287
tp288
asS'Specfem3D_Cartesian_lz/utils/Cluster/lsf/remap_database/remap_database.f90'
p289
(lp290
(S'MPI_INIT()'
p291
S'20'
p292
tp293
a(S'MPI_COMM_SIZE()'
p294
S'23'
p295
tp296
a(S'MPI_COMM_RANK()'
p297
S'24'
p298
tp299
a(S'MPI_FINALIZE()'
p300
S'64'
p301
tp302
asS'Specfem3D_Cartesian_lz/utils/ADJOINT_TOMOGRAPHY_TOOLS/ADJOINT_TOMOGRAPHY_TOOLKIT/MODEL_VISULIZATION/SRC_MODEL_SLICE_HORIZ/exit_mpi.f90'
p303
(lp304
(S'MPI_ABORT()'
p305
S'68'
p306
tp307
a(S'MPI_ABORT()'
p308
S'103'
p309
tp310
asS'Specfem3D_Cartesian_lz/utils/ADJOINT_TOMOGRAPHY_TOOLS/iterate_adj/cluster/subspace_update/src/exit_mpi.f90'
p311
(lp312
(S'MPI_FINALIZE()'
p313
S'53'
p314
tp315
a(S'MPI_ABORT()'
p316
S'54'
p317
tp318
asS'Specfem3D_Cartesian_lz/utils/ADJOINT_TOMOGRAPHY_TOOLS/iterate_adj/cluster/subspace_hessian/src/exit_mpi.f90'
p319
(lp320
(S'MPI_FINALIZE()'
p321
S'53'
p322
tp323
a(S'MPI_ABORT()'
p324
S'54'
p325
tp326
asS'Specfem3D_Cartesian_lz/utils/ADJOINT_TOMOGRAPHY_TOOLS/ADJOINT_TOMOGRAPHY_TOOLKIT/ITERATION_UPDATE/X03_SRC_SMOOTH_KERNELS/exit_mpi.f90'
p327
(lp328
(S'MPI_FINALIZE()'
p329
S'53'
p330
tp331
a(S'MPI_ABORT()'
p332
S'54'
p333
tp334
asS'Specfem3D_Cartesian_lz/utils/ADJOINT_TOMOGRAPHY_TOOLS/iterate_adj/cluster/smooth/src/smooth_sem_fun.f90'
p335
(lp336
(S'MPI_INIT()'
p337
S'58'
p338
tp339
a(S'MPI_COMM_SIZE()'
p340
S'59'
p341
tp342
a(S'MPI_COMM_RANK()'
p343
S'60'
p344
tp345
a(S'mpi_reduce()'
p346
S'222'
p347
tp348
a(S'mpi_reduce()'
p349
S'306'
p350
tp351
a(S'MPI_FINALIZE()'
p352
S'315'
p353
tp354
asS'Specfem3D_Cartesian_lz/utils/ADJOINT_TOMOGRAPHY_TOOLS/ADJOINT_TOMOGRAPHY_TOOLKIT/ITERATION_UPDATE/X04_SRC_DIRECTION_SD/compute_direction_sd.f90'
p355
(lp356
(S'MPI_INIT()'
p357
S'20'
p358
tp359
a(S'MPI_COMM_SIZE()'
p360
S'21'
p361
tp362
a(S'MPI_COMM_RANK()'
p363
S'22'
p364
tp365
a(S'MPI_FINALIZE()'
p366
S'59'
p367
tp368
asS'Specfem3D_Cartesian_lz/utils/ADJOINT_TOMOGRAPHY_TOOLS/iterate_adj/cluster/model_slice/locate_receivers.f90'
p369
(lp370
(S'MPI_BARRIER()'
p371
S'439'
p372
tp373
a(S'MPI_GATHER()'
p374
S'445'
p375
tp376
a(S'MPI_GATHER()'
p377
S'447'
p378
tp379
a(S'MPI_GATHER()'
p380
S'448'
p381
tp382
a(S'MPI_GATHER()'
p383
S'449'
p384
tp385
a(S'MPI_GATHER()'
p386
S'450'
p387
tp388
a(S'MPI_GATHER()'
p389
S'451'
p390
tp391
a(S'MPI_GATHER()'
p392
S'452'
p393
tp394
a(S'MPI_GATHER()'
p395
S'453'
p396
tp397
a(S'MPI_BCAST()'
p398
S'566'
p399
tp400
a(S'MPI_BCAST()'
p401
S'567'
p402
tp403
a(S'MPI_BCAST()'
p404
S'568'
p405
tp406
a(S'MPI_BCAST()'
p407
S'569'
p408
tp409
a(S'MPI_BCAST()'
p410
S'570'
p411
tp412
a(S'MPI_BARRIER()'
p413
S'573'
p414
tp415
asS'Specfem3D_Cartesian_lz/utils/ADJOINT_TOMOGRAPHY_TOOLS/iterate_adj/cluster/sum_kernel/src/exit_mpi.f90'
p416
(lp417
(S'MPI_FINALIZE()'
p418
S'63'
p419
tp420
a(S'MPI_ABORT()'
p421
S'64'
p422
tp423
a(S'MPI_FINALIZE()'
p424
S'88'
p425
tp426
a(S'MPI_ABORT()'
p427
S'89'
p428
tp429
asS'Specfem3D_Cartesian_lz/utils/small_SEM_solvers_in_Fortran_and_C_without_MPI_to_learn/mesher_for_serial/create_regions_mesh.F90'
p430
(lp431
(S'MPI_ALLREDUCE()'
p432
S'1522'
p433
tp434
a(S'MPI_ALLREDUCE()'
p435
S'1523'
p436
tp437
asS'Specfem3D_Cartesian_lz/utils/ADJOINT_TOMOGRAPHY_TOOLS/iterate_adj/cluster/cg_step/src/cg_test.f90'
p438
(lp439
(S'MPI_INIT()'
p440
S'41'
p441
tp442
a(S'MPI_COMM_SIZE()'
p443
S'42'
p444
tp445
a(S'MPI_COMM_RANK()'
p446
S'43'
p447
tp448
a(S'mpi_barrier()'
p449
S'149'
p450
tp451
a(S'mpi_reduce()'
p452
S'151'
p453
tp454
a(S'mpi_barrier()'
p455
S'165'
p456
tp457
a(S'mpi_reduce()'
p458
S'166'
p459
tp460
a(S'mpi_reduce()'
p461
S'167'
p462
tp463
a(S'MPI_FINALIZE()'
p464
S'227'
p465
tp466
asS'Specfem3D_Cartesian_lz/utils/ADJOINT_TOMOGRAPHY_TOOLS/iterate_adj/cluster/model_slice/exit_mpi.f90'
p467
(lp468
(S'MPI_FINALIZE()'
p469
S'56'
p470
tp471
a(S'MPI_ABORT()'
p472
S'57'
p473
tp474
a(S'MPI_FINALIZE()'
p475
S'86'
p476
tp477
a(S'MPI_ABORT()'
p478
S'87'
p479
tp480
asS'Specfem3D_Cartesian_lz/utils/ADJOINT_TOMOGRAPHY_TOOLS/iterate_adj/cluster/model_pert/src/model_pert.f90'
p481
(lp482
(S'MPI_INIT()'
p483
S'20'
p484
tp485
a(S'MPI_COMM_SIZE()'
p486
S'21'
p487
tp488
a(S'MPI_COMM_RANK()'
p489
S'22'
p490
tp491
a(S'MPI_FINALIZE()'
p492
S'68'
p493
tp494
asS'Specfem3D_Cartesian_lz/utils/ADJOINT_TOMOGRAPHY_TOOLS/ADJOINT_TOMOGRAPHY_TOOLKIT/ITERATION_UPDATE/X04_SRC_DIRECTION_SD/exit_mpi.f90'
p495
(lp496
(S'MPI_FINALIZE()'
p497
S'53'
p498
tp499
a(S'MPI_ABORT()'
p500
S'54'
p501
tp502
asS'Specfem3D_Cartesian_lz/utils/ADJOINT_TOMOGRAPHY_TOOLS/iterate_adj/cluster/model_pert/src/exit_mpi.f90'
p503
(lp504
(S'MPI_FINALIZE()'
p505
S'53'
p506
tp507
a(S'MPI_ABORT()'
p508
S'54'
p509
tp510
asS'Specfem3D_Cartesian_lz/utils/ADJOINT_TOMOGRAPHY_TOOLS/ADJOINT_TOMOGRAPHY_TOOLKIT/ITERATION_UPDATE/X04_SRC_DIRECTION_CG/exit_mpi.f90'
p511
(lp512
(S'MPI_FINALIZE()'
p513
S'53'
p514
tp515
a(S'MPI_ABORT()'
p516
S'54'
p517
tp518
asS'Specfem3D_Cartesian_lz/utils/ADJOINT_TOMOGRAPHY_TOOLS/ADJOINT_TOMOGRAPHY_TOOLKIT/MODEL_VISULIZATION/SRC_MODEL_SLICE_HORIZ/sem_model_slice.f90'
p519
(lp520
(S'MPI_INIT()'
p521
S'31'
p522
tp523
a(S'MPI_COMM_SIZE()'
p524
S'32'
p525
tp526
a(S'MPI_COMM_RANK()'
p527
S'33'
p528
tp529
a(S'MPI_BARRIER()'
p530
S'143'
p531
tp532
a(S'MPI_REDUCE()'
p533
S'150'
p534
tp535
a(S'MPI_BCAST()'
p536
S'152'
p537
tp538
a(S'MPI_REDUCE()'
p539
S'164'
p540
tp541
a(S'MPI_REDUCE()'
p542
S'165'
p543
tp544
a(S'MPI_FINALIZE()'
p545
S'182'
p546
tp547
asS'Specfem3D_Cartesian_lz/utils/ADJOINT_TOMOGRAPHY_TOOLS/iterate_adj/cluster/subspace_hessian/src/subspace_hessian.f90'
p548
(lp549
(S'MPI_INIT()'
p550
S'42'
p551
tp552
a(S'MPI_COMM_SIZE()'
p553
S'43'
p554
tp555
a(S'MPI_COMM_RANK()'
p556
S'44'
p557
tp558
a(S'mpi_reduce()'
p559
S'153'
p560
tp561
a(S'mpi_barrier()'
p562
S'254'
p563
tp564
a(S'mpi_reduce()'
p565
S'255'
p566
tp567
a(S'MPI_FINALIZE()'
p568
S'296'
p569
tp570
asS'Specfem3D_Cartesian_lz/utils/ADJOINT_TOMOGRAPHY_TOOLS/ADJOINT_TOMOGRAPHY_TOOLKIT/ITERATION_UPDATE/X02_SRC_PRECOND_KERNELS/precond_kernels.f90'
p571
(lp572
(S'MPI_INIT()'
p573
S'23'
p574
tp575
a(S'MPI_COMM_SIZE()'
p576
S'24'
p577
tp578
a(S'MPI_COMM_RANK()'
p579
S'25'
p580
tp581
a(S'mpi_allreduce()'
p582
S'65'
p583
tp584
a(S'MPI_ABORT()'
p585
S'67'
p586
tp587
a(S'MPI_FINALIZE()'
p588
S'101'
p589
tp590
asS'Specfem3D_Cartesian_lz/utils/ADJOINT_TOMOGRAPHY_TOOLS/iterate_adj/cluster/subspace_update/src/subspace_update.f90'
p591
(lp592
(S'MPI_INIT()'
p593
S'29'
p594
tp595
a(S'MPI_COMM_SIZE()'
p596
S'30'
p597
tp598
a(S'MPI_COMM_RANK()'
p599
S'31'
p600
tp601
a(S'MPI_FINALIZE()'
p602
S'246'
p603
tp604
asS'Specfem3D_Cartesian_lz/utils/ADJOINT_TOMOGRAPHY_TOOLS/iterate_adj/cluster/sum_kernel/src/sum_kernels_weight.f90'
p605
(lp606
(S'MPI_INIT()'
p607
S'24'
p608
tp609
a(S'MPI_COMM_SIZE()'
p610
S'25'
p611
tp612
a(S'MPI_COMM_RANK()'
p613
S'26'
p614
tp615
a(S'MPI_FINALIZE()'
p616
S'116'
p617
tp618
asS'Specfem3D_Cartesian_lz/utils/Cluster/lsf/remap_database/exit_mpi.f90'
p619
(lp620
(S'MPI_FINALIZE()'
p621
S'49'
p622
tp623
a(S'MPI_ABORT()'
p624
S'50'
p625
tp626
asS'Specfem3D_Cartesian_lz/utils/small_SEM_solvers_in_Fortran_and_C_without_MPI_to_learn/mesher_for_serial/meshfem3D.F90'
p627
(lp628
(S'MPI_INIT()'
p629
S'546'
p630
tp631
a(S'MPI_COMM_SIZE()'
p632
S'553'
p633
tp634
a(S'MPI_COMM_RANK()'
p635
S'554'
p636
tp637
a(S'MPI_BCAST()'
p638
S'652'
p639
tp640
a(S'MPI_BCAST()'
p641
S'654'
p642
tp643
a(S'MPI_BCAST()'
p644
S'656'
p645
tp646
a(S'MPI_BCAST()'
p647
S'658'
p648
tp649
a(S'MPI_BCAST()'
p650
S'660'
p651
tp652
a(S'MPI_BCAST()'
p653
S'661'
p654
tp655
a(S'MPI_BCAST()'
p656
S'663'
p657
tp658
a(S'MPI_BCAST()'
p659
S'664'
p660
tp661
a(S'MPI_BCAST()'
p662
S'665'
p663
tp664
a(S'MPI_BCAST()'
p665
S'667'
p666
tp667
a(S'MPI_BCAST()'
p668
S'668'
p669
tp670
a(S'MPI_BCAST()'
p671
S'669'
p672
tp673
a(S'MPI_BCAST()'
p674
S'670'
p675
tp676
a(S'MPI_BCAST()'
p677
S'671'
p678
tp679
a(S'MPI_BCAST()'
p680
S'673'
p681
tp682
a(S'MPI_BCAST()'
p683
S'675'
p684
tp685
a(S'MPI_BCAST()'
p686
S'676'
p687
tp688
a(S'MPI_BCAST()'
p689
S'677'
p690
tp691
a(S'MPI_BCAST()'
p692
S'678'
p693
tp694
a(S'MPI_BCAST()'
p695
S'679'
p696
tp697
a(S'MPI_BCAST()'
p698
S'680'
p699
tp700
a(S'MPI_BCAST()'
p701
S'681'
p702
tp703
a(S'MPI_BCAST()'
p704
S'682'
p705
tp706
a(S'MPI_BCAST()'
p707
S'683'
p708
tp709
a(S'MPI_BCAST()'
p710
S'684'
p711
tp712
a(S'MPI_BCAST()'
p713
S'685'
p714
tp715
a(S'MPI_BCAST()'
p716
S'686'
p717
tp718
a(S'MPI_BCAST()'
p719
S'688'
p720
tp721
a(S'MPI_BCAST()'
p722
S'689'
p723
tp724
a(S'MPI_BCAST()'
p725
S'690'
p726
tp727
a(S'MPI_BCAST()'
p728
S'1009'
p729
tp730
a(S'MPI_BCAST()'
p731
S'1010'
p732
tp733
a(S'MPI_BCAST()'
p734
S'1011'
p735
tp736
a(S'MPI_BCAST()'
p737
S'1012'
p738
tp739
a(S'MPI_BCAST()'
p740
S'1013'
p741
tp742
a(S'MPI_BCAST()'
p743
S'1014'
p744
tp745
a(S'MPI_BCAST()'
p746
S'1015'
p747
tp748
a(S'MPI_BCAST()'
p749
S'1026'
p750
tp751
a(S'MPI_BCAST()'
p752
S'1027'
p753
tp754
a(S'MPI_BCAST()'
p755
S'1028'
p756
tp757
a(S'MPI_BCAST()'
p758
S'1029'
p759
tp760
a(S'MPI_BCAST()'
p761
S'1030'
p762
tp763
a(S'MPI_BCAST()'
p764
S'1031'
p765
tp766
a(S'MPI_BCAST()'
p767
S'1032'
p768
tp769
a(S'MPI_BCAST()'
p770
S'1033'
p771
tp772
a(S'MPI_BCAST()'
p773
S'1034'
p774
tp775
a(S'MPI_BCAST()'
p776
S'1035'
p777
tp778
a(S'MPI_BCAST()'
p779
S'1037'
p780
tp781
a(S'MPI_BCAST()'
p782
S'1038'
p783
tp784
a(S'MPI_BCAST()'
p785
S'1039'
p786
tp787
a(S'MPI_BCAST()'
p788
S'1040'
p789
tp790
a(S'MPI_BCAST()'
p791
S'1041'
p792
tp793
a(S'MPI_BCAST()'
p794
S'1042'
p795
tp796
a(S'MPI_BCAST()'
p797
S'1043'
p798
tp799
a(S'MPI_BCAST()'
p800
S'1044'
p801
tp802
a(S'MPI_BCAST()'
p803
S'1045'
p804
tp805
a(S'MPI_BCAST()'
p806
S'1046'
p807
tp808
a(S'MPI_BCAST()'
p809
S'1047'
p810
tp811
a(S'MPI_BCAST()'
p812
S'1048'
p813
tp814
a(S'MPI_BCAST()'
p815
S'1049'
p816
tp817
a(S'MPI_BCAST()'
p818
S'1050'
p819
tp820
a(S'MPI_BCAST()'
p821
S'1051'
p822
tp823
a(S'MPI_BCAST()'
p824
S'1052'
p825
tp826
a(S'MPI_BCAST()'
p827
S'1053'
p828
tp829
a(S'MPI_BCAST()'
p830
S'1054'
p831
tp832
a(S'MPI_BCAST()'
p833
S'1055'
p834
tp835
a(S'MPI_BCAST()'
p836
S'1056'
p837
tp838
a(S'MPI_BCAST()'
p839
S'1057'
p840
tp841
a(S'MPI_BCAST()'
p842
S'1058'
p843
tp844
a(S'MPI_BCAST()'
p845
S'1059'
p846
tp847
a(S'MPI_BCAST()'
p848
S'1060'
p849
tp850
a(S'MPI_BCAST()'
p851
S'1061'
p852
tp853
a(S'MPI_BCAST()'
p854
S'1062'
p855
tp856
a(S'MPI_BCAST()'
p857
S'1063'
p858
tp859
a(S'MPI_BCAST()'
p860
S'1064'
p861
tp862
a(S'MPI_BCAST()'
p863
S'1065'
p864
tp865
a(S'MPI_BCAST()'
p866
S'1066'
p867
tp868
a(S'MPI_BCAST()'
p869
S'1067'
p870
tp871
a(S'MPI_BCAST()'
p872
S'1068'
p873
tp874
a(S'MPI_BCAST()'
p875
S'1069'
p876
tp877
a(S'MPI_BCAST()'
p878
S'1070'
p879
tp880
a(S'MPI_BCAST()'
p881
S'1071'
p882
tp883
a(S'MPI_BCAST()'
p884
S'1072'
p885
tp886
a(S'MPI_BCAST()'
p887
S'1073'
p888
tp889
a(S'MPI_BCAST()'
p890
S'1074'
p891
tp892
a(S'MPI_BCAST()'
p893
S'1075'
p894
tp895
a(S'MPI_BCAST()'
p896
S'1076'
p897
tp898
a(S'MPI_BCAST()'
p899
S'1077'
p900
tp901
a(S'MPI_BCAST()'
p902
S'1078'
p903
tp904
a(S'MPI_BCAST()'
p905
S'1079'
p906
tp907
a(S'MPI_BCAST()'
p908
S'1080'
p909
tp910
a(S'MPI_BCAST()'
p911
S'1081'
p912
tp913
a(S'MPI_BCAST()'
p914
S'1082'
p915
tp916
a(S'MPI_BCAST()'
p917
S'1083'
p918
tp919
a(S'MPI_BCAST()'
p920
S'1084'
p921
tp922
a(S'MPI_BCAST()'
p923
S'1085'
p924
tp925
a(S'MPI_BCAST()'
p926
S'1086'
p927
tp928
a(S'MPI_BCAST()'
p929
S'1087'
p930
tp931
a(S'MPI_BCAST()'
p932
S'1088'
p933
tp934
a(S'MPI_BCAST()'
p935
S'1089'
p936
tp937
a(S'MPI_BCAST()'
p938
S'1090'
p939
tp940
a(S'MPI_BCAST()'
p941
S'1098'
p942
tp943
a(S'MPI_BCAST()'
p944
S'1099'
p945
tp946
a(S'MPI_BCAST()'
p947
S'1100'
p948
tp949
a(S'MPI_BCAST()'
p950
S'1101'
p951
tp952
a(S'MPI_BCAST()'
p953
S'1102'
p954
tp955
a(S'MPI_BCAST()'
p956
S'1103'
p957
tp958
a(S'MPI_BCAST()'
p959
S'1104'
p960
tp961
a(S'MPI_BCAST()'
p962
S'1105'
p963
tp964
a(S'MPI_BCAST()'
p965
S'1106'
p966
tp967
a(S'MPI_BCAST()'
p968
S'1107'
p969
tp970
a(S'MPI_BCAST()'
p971
S'1114'
p972
tp973
a(S'MPI_BCAST()'
p974
S'1115'
p975
tp976
a(S'MPI_BCAST()'
p977
S'1116'
p978
tp979
a(S'MPI_BCAST()'
p980
S'1117'
p981
tp982
a(S'MPI_BCAST()'
p983
S'1118'
p984
tp985
a(S'MPI_BCAST()'
p986
S'1119'
p987
tp988
a(S'MPI_BCAST()'
p989
S'1120'
p990
tp991
a(S'MPI_BCAST()'
p992
S'1121'
p993
tp994
a(S'MPI_BCAST()'
p995
S'1122'
p996
tp997
a(S'MPI_BCAST()'
p998
S'1123'
p999
tp1000
a(S'MPI_BCAST()'
p1001
S'1124'
p1002
tp1003
a(S'MPI_BCAST()'
p1004
S'1125'
p1005
tp1006
a(S'MPI_BCAST()'
p1007
S'1126'
p1008
tp1009
a(S'MPI_BCAST()'
p1010
S'1127'
p1011
tp1012
a(S'MPI_BCAST()'
p1013
S'1128'
p1014
tp1015
a(S'MPI_BCAST()'
p1016
S'1129'
p1017
tp1018
a(S'MPI_BCAST()'
p1019
S'1130'
p1020
tp1021
a(S'MPI_BCAST()'
p1022
S'1131'
p1023
tp1024
a(S'MPI_BCAST()'
p1025
S'1132'
p1026
tp1027
a(S'MPI_BCAST()'
p1028
S'1133'
p1029
tp1030
a(S'MPI_BCAST()'
p1031
S'1134'
p1032
tp1033
a(S'MPI_BCAST()'
p1034
S'1135'
p1035
tp1036
a(S'MPI_BCAST()'
p1037
S'1136'
p1038
tp1039
a(S'MPI_BCAST()'
p1040
S'1137'
p1041
tp1042
a(S'MPI_BCAST()'
p1043
S'1138'
p1044
tp1045
a(S'MPI_BCAST()'
p1046
S'1139'
p1047
tp1048
a(S'MPI_BCAST()'
p1049
S'1140'
p1050
tp1051
a(S'MPI_BCAST()'
p1052
S'1141'
p1053
tp1054
a(S'MPI_BCAST()'
p1055
S'1142'
p1056
tp1057
a(S'MPI_BCAST()'
p1058
S'1143'
p1059
tp1060
a(S'MPI_BCAST()'
p1061
S'1144'
p1062
tp1063
a(S'MPI_BCAST()'
p1064
S'1145'
p1065
tp1066
a(S'MPI_BCAST()'
p1067
S'1146'
p1068
tp1069
a(S'MPI_BCAST()'
p1070
S'1147'
p1071
tp1072
a(S'MPI_BCAST()'
p1073
S'1148'
p1074
tp1075
a(S'MPI_BCAST()'
p1076
S'1149'
p1077
tp1078
a(S'MPI_BCAST()'
p1079
S'1150'
p1080
tp1081
a(S'MPI_BCAST()'
p1082
S'1151'
p1083
tp1084
a(S'MPI_BCAST()'
p1085
S'1152'
p1086
tp1087
a(S'MPI_BCAST()'
p1088
S'1153'
p1089
tp1090
a(S'MPI_BCAST()'
p1091
S'1154'
p1092
tp1093
a(S'MPI_BCAST()'
p1094
S'1155'
p1095
tp1096
a(S'MPI_BCAST()'
p1097
S'1156'
p1098
tp1099
a(S'MPI_BCAST()'
p1100
S'1157'
p1101
tp1102
a(S'MPI_BCAST()'
p1103
S'1158'
p1104
tp1105
a(S'MPI_BCAST()'
p1106
S'1159'
p1107
tp1108
a(S'MPI_BCAST()'
p1109
S'1160'
p1110
tp1111
a(S'MPI_BCAST()'
p1112
S'1161'
p1113
tp1114
a(S'MPI_BCAST()'
p1115
S'1162'
p1116
tp1117
a(S'MPI_BCAST()'
p1118
S'1163'
p1119
tp1120
a(S'MPI_BCAST()'
p1121
S'1164'
p1122
tp1123
a(S'MPI_BCAST()'
p1124
S'1165'
p1125
tp1126
a(S'MPI_BCAST()'
p1127
S'1166'
p1128
tp1129
a(S'MPI_BCAST()'
p1130
S'1167'
p1131
tp1132
a(S'MPI_BCAST()'
p1133
S'1176'
p1134
tp1135
a(S'MPI_BCAST()'
p1136
S'1177'
p1137
tp1138
a(S'MPI_BCAST()'
p1139
S'1178'
p1140
tp1141
a(S'MPI_BCAST()'
p1142
S'1179'
p1143
tp1144
a(S'MPI_BCAST()'
p1145
S'1180'
p1146
tp1147
a(S'MPI_BCAST()'
p1148
S'1181'
p1149
tp1150
a(S'MPI_BCAST()'
p1151
S'1182'
p1152
tp1153
a(S'MPI_BCAST()'
p1154
S'1183'
p1155
tp1156
a(S'MPI_BCAST()'
p1157
S'1184'
p1158
tp1159
a(S'MPI_BCAST()'
p1160
S'1186'
p1161
tp1162
a(S'MPI_BCAST()'
p1163
S'1187'
p1164
tp1165
a(S'MPI_BCAST()'
p1166
S'1188'
p1167
tp1168
a(S'MPI_BCAST()'
p1169
S'1189'
p1170
tp1171
a(S'MPI_BCAST()'
p1172
S'1191'
p1173
tp1174
a(S'MPI_BCAST()'
p1175
S'1192'
p1176
tp1177
a(S'MPI_BCAST()'
p1178
S'1193'
p1179
tp1180
a(S'MPI_BCAST()'
p1181
S'1194'
p1182
tp1183
a(S'MPI_BCAST()'
p1184
S'1195'
p1185
tp1186
a(S'MPI_BCAST()'
p1187
S'1208'
p1188
tp1189
a(S'MPI_BCAST()'
p1190
S'1209'
p1191
tp1192
a(S'MPI_BCAST()'
p1193
S'1210'
p1194
tp1195
a(S'MPI_BCAST()'
p1196
S'1219'
p1197
tp1198
a(S'MPI_BCAST()'
p1199
S'1220'
p1200
tp1201
a(S'MPI_BCAST()'
p1202
S'1221'
p1203
tp1204
a(S'MPI_BCAST()'
p1205
S'1222'
p1206
tp1207
a(S'MPI_BCAST()'
p1208
S'1223'
p1209
tp1210
a(S'MPI_BCAST()'
p1211
S'1224'
p1212
tp1213
a(S'MPI_BCAST()'
p1214
S'1239'
p1215
tp1216
a(S'MPI_BCAST()'
p1217
S'1240'
p1218
tp1219
a(S'MPI_BCAST()'
p1220
S'1241'
p1221
tp1222
a(S'MPI_BCAST()'
p1223
S'1242'
p1224
tp1225
a(S'MPI_BCAST()'
p1226
S'1243'
p1227
tp1228
a(S'MPI_BCAST()'
p1229
S'1244'
p1230
tp1231
a(S'MPI_BCAST()'
p1232
S'1254'
p1233
tp1234
a(S'MPI_BCAST()'
p1235
S'1255'
p1236
tp1237
a(S'MPI_BCAST()'
p1238
S'1268'
p1239
tp1240
a(S'MPI_BARRIER()'
p1241
S'1293'
p1242
tp1243
a(S'MPI_REDUCE()'
p1244
S'1382'
p1245
tp1246
a(S'X_MPI_COMM_WORLD()'
p1247
S'1383'
p1248
tp1249
a(S'MPI_BARRIER()'
p1250
S'1401'
p1251
tp1252
a(S'MPI_BARRIER()'
p1253
S'1540'
p1254
tp1255
a(S'MPI_FINALIZE()'
p1256
S'1543'
p1257
tp1258
asS'Specfem3D_Cartesian_lz/utils/ADJOINT_TOMOGRAPHY_TOOLS/ADJOINT_TOMOGRAPHY_TOOLKIT/ITERATION_UPDATE/X04_SRC_DIRECTION_CG/compute_direction_cg.f90'
p1259
(lp1260
(S'MPI_INIT()'
p1261
S'22'
p1262
tp1263
a(S'MPI_COMM_SIZE()'
p1264
S'23'
p1265
tp1266
a(S'MPI_COMM_RANK()'
p1267
S'24'
p1268
tp1269
a(S'mpi_barrier()'
p1270
S'64'
p1271
tp1272
a(S'mpi_allreduce()'
p1273
S'65'
p1274
tp1275
a(S'mpi_allreduce()'
p1276
S'66'
p1277
tp1278
a(S'MPI_FINALIZE()'
p1279
S'141'
p1280
tp1281
asS'Specfem3D_Cartesian_lz/src/cuda/noise_tomography_cuda.cu'
p1282
(lp1283
(S'MPI_Comm_rank()'
p1284
S'51'
p1285
tp1286
a(S'MPI_Comm_rank()'
p1287
S'66'
p1288
tp1289
a(S'MPI_Comm_rank()'
p1290
S'81'
p1291
tp1292
asS'Specfem3D_Cartesian_lz/src/decompose_mesh/scotch_5.1.12b/src/libscotch/dorder_io.c'
p1293
(lp1294
(S'X_MPI_ANY_SOURCE()'
p1295
S'179'
p1296
tp1297
asS'Specfem3D_Cartesian_lz/utils/ADJOINT_TOMOGRAPHY_TOOLS/ADJOINT_TOMOGRAPHY_TOOLKIT/ITERATION_UPDATE/X04_SRC_DIRECTION_LBFGS/compute_direction_lbfgs.f90'
p1298
(lp1299
(S'MPI_INIT()'
p1300
S'43'
p1301
tp1302
a(S'MPI_COMM_SIZE()'
p1303
S'44'
p1304
tp1305
a(S'MPI_COMM_RANK()'
p1306
S'45'
p1307
tp1308
a(S'mpi_allreduce()'
p1309
S'95'
p1310
tp1311
a(S'mpi_allreduce()'
p1312
S'99'
p1313
tp1314
a(S'mpi_allreduce()'
p1315
S'118'
p1316
tp1317
a(S'mpi_allreduce()'
p1318
S'119'
p1319
tp1320
a(S'mpi_allreduce()'
p1321
S'142'
p1322
tp1323
a(S'MPI_FINALIZE()'
p1324
S'154'
p1325
tp1326
asS'Specfem3D_Cartesian_lz/utils/ADJOINT_TOMOGRAPHY_TOOLS/ADJOINT_TOMOGRAPHY_TOOLKIT/ITERATION_UPDATE/X04_SRC_DIRECTION_LBFGS/exit_mpi.f90'
p1327
(lp1328
(S'MPI_FINALIZE()'
p1329
S'53'
p1330
tp1331
a(S'MPI_ABORT()'
p1332
S'54'
p1333
tp1334
asS'Specfem3D_Cartesian_lz/utils/ADJOINT_TOMOGRAPHY_TOOLS/iterate_adj/cluster/model_vp_vs/src/add_model.f90'
p1335
(lp1336
(S'MPI_INIT()'
p1337
S'32'
p1338
tp1339
a(S'MPI_COMM_SIZE()'
p1340
S'33'
p1341
tp1342
a(S'MPI_COMM_RANK()'
p1343
S'34'
p1344
tp1345
a(S'mpi_reduce()'
p1346
S'121'
p1347
tp1348
a(S'mpi_reduce()'
p1349
S'122'
p1350
tp1351
a(S'mpi_reduce()'
p1352
S'123'
p1353
tp1354
a(S'mpi_reduce()'
p1355
S'124'
p1356
tp1357
a(S'mpi_reduce()'
p1358
S'147'
p1359
tp1360
a(S'mpi_reduce()'
p1361
S'148'
p1362
tp1363
a(S'mpi_reduce()'
p1364
S'149'
p1365
tp1366
a(S'mpi_reduce()'
p1367
S'150'
p1368
tp1369
a(S'mpi_reduce()'
p1370
S'203'
p1371
tp1372
a(S'mpi_reduce()'
p1373
S'204'
p1374
tp1375
a(S'mpi_reduce()'
p1376
S'205'
p1377
tp1378
a(S'mpi_reduce()'
p1379
S'206'
p1380
tp1381
a(S'mpi_reduce()'
p1382
S'236'
p1383
tp1384
a(S'mpi_reduce()'
p1385
S'237'
p1386
tp1387
a(S'mpi_reduce()'
p1388
S'238'
p1389
tp1390
a(S'mpi_reduce()'
p1391
S'239'
p1392
tp1393
a(S'MPI_FINALIZE()'
p1394
S'303'
p1395
tp1396
asS'Specfem3D_Cartesian_lz/utils/small_SEM_solvers_in_Fortran_and_C_without_MPI_to_learn/mesher_for_serial/exit_mpi.F90'
p1397
(lp1398
(S'MPI_ABORT()'
p1399
S'71'
p1400
tp1401
a(S'MPI_ABORT()'
p1402
S'105'
p1403
tp1404
asS'Specfem3D_Cartesian_lz/src/cuda/check_fields_cuda.cu'
p1405
(lp1406
(S'MPI_Comm_rank()'
p1407
S'62'
p1408
tp1409
a(S'MPI_Comm_rank()'
p1410
S'99'
p1411
tp1412
a(S'MPI_Abort()'
p1413
S'113'
p1414
tp1415
a(S'MPI_Comm_rank()'
p1416
S'130'
p1417
tp1418
a(S'MPI_Abort()'
p1419
S'143'
p1420
tp1421
a(S'MPI_Comm_rank()'
p1422
S'163'
p1423
tp1424
a(S'MPI_Abort()'
p1425
S'176'
p1426
tp1427
a(S'MPI_Barrier()'
p1428
S'201'
p1429
tp1430
a(S'MPI_Comm_rank()'
p1431
S'761'
p1432
tp1433
a(S'MPI_Comm_rank()'
p1434
S'1009'
p1435
tp1436
a(S'MPI_Comm_rank()'
p1437
S'1182'
p1438
tp1439
asS'Specfem3D_Cartesian_lz/utils/ADJOINT_TOMOGRAPHY_TOOLS/iterate_adj/cluster/model_slice/sem_model_slice.f90'
p1440
(lp1441
(S'MPI_INIT()'
p1442
S'31'
p1443
tp1444
a(S'MPI_COMM_SIZE()'
p1445
S'32'
p1446
tp1447
a(S'MPI_COMM_RANK()'
p1448
S'33'
p1449
tp1450
a(S'MPI_BARRIER()'
p1451
S'112'
p1452
tp1453
a(S'MPI_REDUCE()'
p1454
S'128'
p1455
tp1456
a(S'MPI_BCAST()'
p1457
S'138'
p1458
tp1459
a(S'MPI_REDUCE()'
p1460
S'152'
p1461
tp1462
a(S'MPI_REDUCE()'
p1463
S'153'
p1464
tp1465
a(S'MPI_FINALIZE()'
p1466
S'174'
p1467
tp1468
asS'Specfem3D_Cartesian_lz/src/generate_databases/model_sep.f90'
p1469
(lp1470
(S'MPI_Type_create_subarray()'
p1471
S'217'
p1472
tp1473
a(S'X_MPI_ORDER_FORTRAN()'
p1474
S'218'
p1475
tp1476
a(S'MPI_Type_commit()'
p1477
S'219'
p1478
tp1479
a(S'MPI_File_open()'
p1480
S'221'
p1481
tp1482
a(S'X_MPI_MODE_RDONLY()'
p1483
S'222'
p1484
tp1485
a(S'MPI_File_set_view()'
p1486
S'226'
p1487
tp1488
a(S'X_MPI_INFO_NULL()'
p1489
S'227'
p1490
tp1491
a(S'MPI_File_read_all()'
p1492
S'229'
p1493
tp1494
a(S'MPI_File_close()'
p1495
S'230'
p1496
tp1497
asS'Specfem3D_Cartesian_lz/utils/ADJOINT_TOMOGRAPHY_TOOLS/iterate_adj/cluster/model_vp_vs/src/exit_mpi.f90'
p1498
(lp1499
(S'MPI_FINALIZE()'
p1500
S'53'
p1501
tp1502
a(S'MPI_ABORT()'
p1503
S'54'
p1504
tp1505
asS'Specfem3D_Cartesian_lz/utils/ADJOINT_TOMOGRAPHY_TOOLS/ADJOINT_TOMOGRAPHY_TOOLKIT/MODEL_VISULIZATION/SRC_MODEL_SLICE_VERT/sem_model_slice.f90'
p1506
(lp1507
(S'MPI_INIT()'
p1508
S'31'
p1509
tp1510
a(S'MPI_COMM_SIZE()'
p1511
S'32'
p1512
tp1513
a(S'MPI_COMM_RANK()'
p1514
S'33'
p1515
tp1516
a(S'MPI_BARRIER()'
p1517
S'143'
p1518
tp1519
a(S'MPI_REDUCE()'
p1520
S'150'
p1521
tp1522
a(S'MPI_BCAST()'
p1523
S'152'
p1524
tp1525
a(S'MPI_REDUCE()'
p1526
S'164'
p1527
tp1528
a(S'MPI_REDUCE()'
p1529
S'165'
p1530
tp1531
a(S'MPI_FINALIZE()'
p1532
S'190'
p1533
tp1534
asS'Specfem3D_Cartesian_lz/utils/ADJOINT_TOMOGRAPHY_TOOLS/iterate_adj/cluster/sum_kernel/src/sum_kernels.f90'
p1535
(lp1536
(S'MPI_INIT()'
p1537
S'20'
p1538
tp1539
a(S'MPI_COMM_SIZE()'
p1540
S'21'
p1541
tp1542
a(S'MPI_COMM_RANK()'
p1543
S'22'
p1544
tp1545
a(S'MPI_FINALIZE()'
p1546
S'103'
p1547
tp1548
asS'Specfem3D_Cartesian_lz/src/shared/parallel.f90'
p1549
(lp1550
(S'MPI_INIT()'
p1551
S'83'
p1552
tp1553
a(S'MPI_COMM_RANK()'
p1554
S'88'
p1555
tp1556
a(S'MPI_BARRIER()'
p1557
S'125'
p1558
tp1559
a(S'MPI_FINALIZE()'
p1560
S'128'
p1561
tp1562
a(S'MPI_COMM_RANK()'
p1563
S'152'
p1564
tp1565
a(S'MPI_ABORT()'
p1566
S'184'
p1567
tp1568
a(S'MPI_BARRIER()'
p1569
S'202'
p1570
tp1571
a(S'mpi_wait()'
p1572
S'256'
p1573
tp1574
a(S'MPI_BCAST()'
p1575
S'278'
p1576
tp1577
a(S'MPI_BCAST()'
p1578
S'296'
p1579
tp1580
a(S'MPI_BCAST()'
p1581
S'314'
p1582
tp1583
a(S'MPI_BCAST()'
p1584
S'336'
p1585
tp1586
a(S'MPI_BCAST()'
p1587
S'357'
p1588
tp1589
a(S'MPI_BCAST()'
p1590
S'376'
p1591
tp1592
a(S'MPI_BCAST()'
p1593
S'395'
p1594
tp1595
a(S'MPI_BCAST()'
p1596
S'413'
p1597
tp1598
a(S'MPI_BCAST()'
p1599
S'434'
p1600
tp1601
a(S'MPI_BCAST()'
p1602
S'450'
p1603
tp1604
a(S'MPI_BCAST()'
p1605
S'469'
p1606
tp1607
a(S'MPI_BCAST()'
p1608
S'494'
p1609
tp1610
a(S'MPI_BCAST()'
p1611
S'519'
p1612
tp1613
a(S'MPI_BCAST()'
p1614
S'547'
p1615
tp1616
a(S'MPI_BCAST()'
p1617
S'572'
p1618
tp1619
a(S'MPI_BCAST()'
p1620
S'597'
p1621
tp1622
a(S'MPI_REDUCE()'
p1623
S'616'
p1624
tp1625
a(S'MPI_REDUCE()'
p1626
S'633'
p1627
tp1628
a(S'MPI_ALLREDUCE()'
p1629
S'662'
p1630
tp1631
a(S'MPI_REDUCE()'
p1632
S'683'
p1633
tp1634
a(S'MPI_ALLREDUCE()'
p1635
S'703'
p1636
tp1637
a(S'MPI_REDUCE()'
p1638
S'723'
p1639
tp1640
a(S'MPI_ALLREDUCE()'
p1641
S'750'
p1642
tp1643
a(S'MPI_REDUCE()'
p1644
S'767'
p1645
tp1646
a(S'MPI_REDUCE()'
p1647
S'784'
p1648
tp1649
a(S'MPI_ALLREDUCE()'
p1650
S'801'
p1651
tp1652
a(S'MPI_ALLREDUCE()'
p1653
S'818'
p1654
tp1655
a(S'MPI_ALLREDUCE()'
p1656
S'835'
p1657
tp1658
a(S'MPI_REDUCE()'
p1659
S'854'
p1660
tp1661
a(S'MPI_ALLREDUCE()'
p1662
S'871'
p1663
tp1664
a(S'MPI_REDUCE()'
p1665
S'891'
p1666
tp1667
a(S'MPI_ALLREDUCE()'
p1668
S'911'
p1669
tp1670
a(S'MPI_REDUCE()'
p1671
S'928'
p1672
tp1673
a(S'MPI_REDUCE()'
p1674
S'947'
p1675
tp1676
a(S'MPI_ISEND()'
p1677
S'981'
p1678
tp1679
a(S'MPI_ISEND()'
p1680
S'1000'
p1681
tp1682
a(S'MPI_IRECV()'
p1683
S'1029'
p1684
tp1685
a(S'MPI_IRECV()'
p1686
S'1054'
p1687
tp1688
a(S'MPI_RECV()'
p1689
S'1076'
p1690
tp1691
a(S'MPI_RECV()'
p1692
S'1097'
p1693
tp1694
a(S'MPI_RECV()'
p1695
S'1120'
p1696
tp1697
a(S'MPI_SEND()'
p1698
S'1162'
p1699
tp1700
a(S'MPI_SEND()'
p1701
S'1180'
p1702
tp1703
a(S'MPI_RECV()'
p1704
S'1198'
p1705
tp1706
a(S'MPI_SEND()'
p1707
S'1220'
p1708
tp1709
a(S'MPI_SEND()'
p1710
S'1241'
p1711
tp1712
a(S'MPI_GATHER()'
p1713
S'1280'
p1714
tp1715
a(S'MPI_ALLGATHER()'
p1716
S'1302'
p1717
tp1718
a(S'MPI_GATHER()'
p1719
S'1324'
p1720
tp1721
a(S'MPI_GATHER()'
p1722
S'1349'
p1723
tp1724
a(S'MPI_GATHER()'
p1725
S'1371'
p1726
tp1727
a(S'MPI_ALLGATHER()'
p1728
S'1389'
p1729
tp1730
a(S'MPI_ALLGATHER()'
p1731
S'1414'
p1732
tp1733
a(S'MPI_GATHERV()'
p1734
S'1445'
p1735
tp1736
a(S'MPI_COMM_SIZE()'
p1737
S'1483'
p1738
tp1739
a(S'MPI_COMM_RANK()'
p1740
S'1503'
p1741
tp1742
a(S'MPI_COMM_DUP()'
p1743
S'1521'
p1744
tp1745
a(S'MPI_COMM_SIZE()'
p1746
S'1578'
p1747
tp1748
a(S'MPI_COMM_RANK()'
p1749
S'1579'
p1750
tp1751
a(S'MPI_COMM_SPLIT()'
p1752
S'1610'
p1753
tp1754
a(S'MPI_COMM_RANK()'
p1755
S'1621'
p1756
tp1757
a(S'MPI_COMM_SPLIT()'
p1758
S'1628'
p1759
tp1760
a(S'MPI_COMM_RANK()'
p1761
S'1632'
p1762
tp1763
a(S'MPI_COMM_FREE()'
p1764
S'1662'
p1765
tp1766
asS'Specfem3D_Cartesian_lz/utils/ADJOINT_TOMOGRAPHY_TOOLS/ADJOINT_TOMOGRAPHY_TOOLKIT/ITERATION_UPDATE/X01_SRC_SUM_KERNELS/exit_mpi.f90'
p1767
(lp1768
(S'MPI_FINALIZE()'
p1769
S'53'
p1770
tp1771
a(S'MPI_ABORT()'
p1772
S'54'
p1773
tp1774
asS'Specfem3D_Cartesian_lz/utils/ADJOINT_TOMOGRAPHY_TOOLS/iterate_adj/cluster/cg_step/src/exit_mpi.f90'
p1775
(lp1776
(S'MPI_FINALIZE()'
p1777
S'53'
p1778
tp1779
a(S'MPI_ABORT()'
p1780
S'54'
p1781
tp1782
asS'Specfem3D_Cartesian_lz/utils/ADJOINT_TOMOGRAPHY_TOOLS/ADJOINT_TOMOGRAPHY_TOOLKIT/ITERATION_UPDATE/X01_SRC_SUM_KERNELS/sum_kernels.f90'
p1783
(lp1784
(S'MPI_INIT()'
p1785
S'20'
p1786
tp1787
a(S'MPI_COMM_SIZE()'
p1788
S'21'
p1789
tp1790
a(S'MPI_COMM_RANK()'
p1791
S'22'
p1792
tp1793
a(S'MPI_FINALIZE()'
p1794
S'91'
p1795
tp1796
asS'Specfem3D_Cartesian_lz/utils/ADJOINT_TOMOGRAPHY_TOOLS/ADJOINT_TOMOGRAPHY_TOOLKIT/MODEL_VISULIZATION/SRC_MODEL_SLICE_VERT/exit_mpi.f90'
p1797
(lp1798
(S'MPI_ABORT()'
p1799
S'68'
p1800
tp1801
a(S'MPI_ABORT()'
p1802
S'103'
p1803
tp1804
asS'Specfem3D_Cartesian_lz/utils/ADJOINT_TOMOGRAPHY_TOOLS/ADJOINT_TOMOGRAPHY_TOOLKIT/ITERATION_UPDATE/X03_SRC_SMOOTH_KERNELS/smooth_sem_globe.f90'
p1805
(lp1806
(S'MPI_INIT()'
p1807
S'105'
p1808
tp1809
a(S'MPI_COMM_SIZE()'
p1810
S'106'
p1811
tp1812
a(S'MPI_COMM_RANK()'
p1813
S'107'
p1814
tp1815
a(S'mpi_barrier()'
p1816
S'110'
p1817
tp1818
a(S'mpi_barrier()'
p1819
S'149'
p1820
tp1821
a(S'mpi_reduce()'
p1822
S'373'
p1823
tp1824
a(S'mpi_reduce()'
p1825
S'508'
p1826
tp1827
a(S'MPI_FINALIZE()'
p1828
S'519'
p1829
tp1830
as.