ccollections
defaultdict
p0
(c__builtin__
list
p1
tp2
Rp3
S'chapel/third-party/gasnet/GASNet-1.18.2/tests/mpi/testmpiperf.c'
p4
(lp5
(S'MPI_SAFE()'
p6
S'67'
p7
tp8
a(S'MPI_SAFE()'
p9
S'68'
p10
tp11
a(S'MPI_SAFE()'
p12
S'69'
p13
tp14
a(S'MPI_SAFE()'
p15
S'90'
p16
tp17
a(S'MPI_SAFE()'
p18
S'101'
p19
tp20
a(S'MPI_SAFE()'
p21
S'108'
p22
tp23
a(S'MPI_Barrier()'
p24
S'159'
p25
tp26
a(S'MPI_SAFE()'
p27
S'204'
p28
tp29
a(S'MPI_SAFE()'
p30
S'219'
p31
tp32
a(S'MPI_SAFE()'
p33
S'221'
p34
tp35
a(S'MPI_SAFE()'
p36
S'225'
p37
tp38
a(S'MPI_SAFE()'
p39
S'230'
p40
tp41
a(S'MPI_SAFE()'
p42
S'240'
p43
tp44
a(S'MPI_SAFE()'
p45
S'249'
p46
tp47
a(S'MPI_SAFE()'
p48
S'251'
p49
tp50
a(S'MPI_SAFE()'
p51
S'255'
p52
tp53
a(S'MPI_SAFE()'
p54
S'259'
p55
tp56
a(S'MPI_SAFE()'
p57
S'265'
p58
tp59
a(S'MPI_SAFE()'
p60
S'281'
p61
tp62
a(S'MPI_SAFE()'
p63
S'334'
p64
tp65
a(S'MPI_SAFE()'
p66
S'350'
p67
tp68
a(S'MPI_SAFE()'
p69
S'362'
p70
tp71
a(S'MPI_SAFE()'
p72
S'371'
p73
tp74
a(S'MPI_SAFE()'
p75
S'383'
p76
tp77
a(S'MPI_SAFE()'
p78
S'390'
p79
tp80
a(S'MPI_SAFE()'
p81
S'400'
p82
tp83
a(S'MPI_SAFE()'
p84
S'463'
p85
tp86
a(S'MPI_SAFE()'
p87
S'478'
p88
tp89
a(S'MPI_SAFE()'
p90
S'487'
p91
tp92
a(S'MPI_SAFE()'
p93
S'493'
p94
tp95
a(S'MPI_Alltoall()'
p96
S'540'
p97
tp98
asS'chapel/third-party/qthread/qthread-1.8/test/benchmarks/mantevo/hpccg/HPCCG.cpp'
p99
(lp100
(S'MPI_Comm_size()'
p101
S'83'
p102
tp103
a(S'MPI_Comm_rank()'
p104
S'84'
p105
tp106
asS'chapel/third-party/gasnet/GASNet-1.18.2/configure.in'
p107
(lp108
(S'MPI_Init()'
p109
S'2786'
p110
tp111
a(S'MPI_Finalize()'
p112
S'2787'
p113
tp114
a(S'MPI_Init()'
p115
S'2797'
p116
tp117
a(S'MPI_Finalize()'
p118
S'2798'
p119
tp120
asS'chapel/third-party/gasnet/GASNet-1.18.2/tests/mpi/testmpinbr.c'
p121
(lp122
(S'MPI_SAFE()'
p123
S'183'
p124
tp125
a(S'MPI_SAFE()'
p126
S'240'
p127
tp128
a(S'MPI_Gather()'
p129
S'241'
p130
tp131
a(S'MPI_SAFE()'
p132
S'348'
p133
tp134
a(S'MPI_SAFE()'
p135
S'349'
p136
tp137
a(S'MPI_SAFE()'
p138
S'350'
p139
tp140
a(S'MPI_SAFE()'
p141
S'364'
p142
tp143
a(S'MPI_SAFE()'
p144
S'374'
p145
tp146
a(S'MPI_SAFE()'
p147
S'687'
p148
tp149
a(S'MPI_SAFE()'
p150
S'755'
p151
tp152
a(S'MPI_Waitall()'
p153
S'756'
p154
tp155
a(S'MPI_SAFE()'
p156
S'814'
p157
tp158
a(S'MPI_Irecv()'
p159
S'815'
p160
tp161
a(S'X_MPI_COMM_WORLD()'
p162
S'816'
p163
tp164
a(S'MPI_Isend()'
p165
S'868'
p166
tp167
asS'chapel/third-party/gasnet/GASNet-1.18.2/other/ammpi/ammpi_ep.c'
p168
(lp169
(S'MPI_SAFE()'
p170
S'185'
p171
tp172
a(S'MPI_SAFE()'
p173
S'190'
p174
tp175
a(S'MPI_SAFE()'
p176
S'191'
p177
tp178
a(S'MPI_SAFE()'
p179
S'192'
p180
tp181
a(S'MPI_SAFE()'
p182
S'195'
p183
tp184
a(S'MPI_SAFE()'
p185
S'198'
p186
tp187
a(S'MPI_SAFE()'
p188
S'199'
p189
tp190
a(S'MPI_SAFE()'
p191
S'268'
p192
tp193
a(S'MPI_SAFE()'
p194
S'269'
p195
tp196
a(S'MPI_SAFE()'
p197
S'334'
p198
tp199
a(S'X_MPI_ANY_SOURCE()'
p200
S'335'
p201
tp202
a(S'MPI_SAFE()'
p203
S'483'
p204
tp205
a(S'MPI_SAFE()'
p206
S'532'
p207
tp208
a(S'MPI_SAFE()'
p209
S'672'
p210
tp211
a(S'MPI_SAFE()'
p212
S'702'
p213
tp214
a(S'MPI_SAFE()'
p215
S'910'
p216
tp217
a(S'MPI_SAFE()'
p218
S'928'
p219
tp220
asS'chapel/third-party/gasnet/GASNet-1.18.2/tests/mpi/testosumpi2_acc_lat.c'
p221
(lp222
(S'MPI_Init()'
p223
S'35'
p224
tp225
a(S'MPI_Comm_size()'
p226
S'36'
p227
tp228
a(S'MPI_Comm_rank()'
p229
S'37'
p230
tp231
a(S'MPI_Comm_group()'
p232
S'38'
p233
tp234
a(S'MPI_Win_create()'
p235
S'67'
p236
tp237
a(S'MPI_Group_incl()'
p238
S'69'
p239
tp240
a(S'MPI_Barrier()'
p241
S'70'
p242
tp243
a(S'MPI_Win_start()'
p244
S'74'
p245
tp246
a(S'MPI_Accumulate()'
p247
S'76'
p248
tp249
a(S'MPI_Win_complete()'
p250
S'77'
p251
tp252
a(S'MPI_Win_post()'
p253
S'78'
p254
tp255
a(S'MPI_Win_wait()'
p256
S'79'
p257
tp258
a(S'MPI_Win_free()'
p259
S'82'
p260
tp261
a(S'MPI_Win_create()'
p262
S'87'
p263
tp264
a(S'MPI_Group_incl()'
p265
S'89'
p266
tp267
a(S'MPI_Barrier()'
p268
S'90'
p269
tp270
a(S'MPI_Win_post()'
p271
S'94'
p272
tp273
a(S'MPI_Win_wait()'
p274
S'95'
p275
tp276
a(S'MPI_Win_start()'
p277
S'96'
p278
tp279
a(S'MPI_Accumulate()'
p280
S'97'
p281
tp282
a(S'MPI_Win_complete()'
p283
S'98'
p284
tp285
a(S'MPI_Win_free()'
p286
S'101'
p287
tp288
a(S'MPI_Finalize()'
p289
S'113'
p290
tp291
asS'chapel/third-party/qthread/qthread-1.8/test/benchmarks/mantevo/hpccg/generate_matrix.cpp'
p292
(lp293
(S'MPI_Comm_size()'
p294
S'58'
p295
tp296
a(S'MPI_Comm_rank()'
p297
S'59'
p298
tp299
asS'chapel/third-party/gasnet/GASNet-1.18.2/tests/mpi/testosumpi2_put_bw.c'
p300
(lp301
(S'MPI_Init()'
p302
S'39'
p303
tp304
a(S'MPI_Comm_size()'
p305
S'40'
p306
tp307
a(S'MPI_Comm_rank()'
p308
S'41'
p309
tp310
a(S'MPI_Comm_group()'
p311
S'42'
p312
tp313
a(S'MPI_Win_create()'
p314
S'65'
p315
tp316
a(S'MPI_Group_incl()'
p317
S'68'
p318
tp319
a(S'MPI_Win_start()'
p320
S'71'
p321
tp322
a(S'MPI_Put()'
p323
S'72'
p324
tp325
a(S'MPI_Win_complete()'
p326
S'73'
p327
tp328
a(S'MPI_Win_create()'
p329
S'76'
p330
tp331
a(S'MPI_Group_incl()'
p332
S'78'
p333
tp334
a(S'MPI_Win_post()'
p335
S'81'
p336
tp337
a(S'MPI_Win_wait()'
p338
S'82'
p339
tp340
a(S'MPI_Barrier()'
p341
S'86'
p342
tp343
a(S'MPI_Win_start()'
p344
S'93'
p345
tp346
a(S'MPI_Put()'
p347
S'96'
p348
tp349
a(S'MPI_Win_complete()'
p350
S'98'
p351
tp352
a(S'MPI_Barrier()'
p353
S'101'
p354
tp355
a(S'MPI_Win_post()'
p356
S'107'
p357
tp358
a(S'MPI_Win_wait()'
p359
S'108'
p360
tp361
a(S'MPI_Barrier()'
p362
S'110'
p363
tp364
a(S'MPI_Win_free()'
p365
S'124'
p366
tp367
a(S'MPI_Barrier()'
p368
S'126'
p369
tp370
a(S'MPI_Finalize()'
p371
S'127'
p372
tp373
asS'chapel/third-party/gasnet/GASNet-1.18.2/tests/mpi/testosumpi2_get_bw.c'
p374
(lp375
(S'MPI_Init()'
p376
S'39'
p377
tp378
a(S'MPI_Comm_size()'
p379
S'40'
p380
tp381
a(S'MPI_Comm_rank()'
p382
S'41'
p383
tp384
a(S'MPI_Comm_group()'
p385
S'42'
p386
tp387
a(S'MPI_Win_create()'
p388
S'65'
p389
tp390
a(S'MPI_Group_incl()'
p391
S'68'
p392
tp393
a(S'MPI_Win_start()'
p394
S'71'
p395
tp396
a(S'MPI_Get()'
p397
S'72'
p398
tp399
a(S'MPI_Win_complete()'
p400
S'73'
p401
tp402
a(S'MPI_Win_create()'
p403
S'76'
p404
tp405
a(S'MPI_Group_incl()'
p406
S'78'
p407
tp408
a(S'MPI_Win_post()'
p409
S'81'
p410
tp411
a(S'MPI_Win_wait()'
p412
S'82'
p413
tp414
a(S'MPI_Barrier()'
p415
S'86'
p416
tp417
a(S'MPI_Win_start()'
p418
S'93'
p419
tp420
a(S'MPI_Get()'
p421
S'96'
p422
tp423
a(S'MPI_Win_complete()'
p424
S'98'
p425
tp426
a(S'MPI_Barrier()'
p427
S'101'
p428
tp429
a(S'MPI_Win_post()'
p430
S'107'
p431
tp432
a(S'MPI_Win_wait()'
p433
S'108'
p434
tp435
a(S'MPI_Barrier()'
p436
S'110'
p437
tp438
a(S'MPI_Win_free()'
p439
S'124'
p440
tp441
a(S'MPI_Barrier()'
p442
S'126'
p443
tp444
a(S'MPI_Finalize()'
p445
S'127'
p446
tp447
asS'chapel/third-party/qthread/qthread-1.8/test/benchmarks/mantevo/hpccg/main.cpp'
p448
(lp449
(S'MPI_Init()'
p450
S'108'
p451
tp452
a(S'MPI_Comm_size()'
p453
S'110'
p454
tp455
a(S'MPI_Comm_rank()'
p456
S'111'
p457
tp458
a(S'MPI_Barrier()'
p459
S'129'
p460
tp461
a(S'MPI_Allreduce()'
p462
S'176'
p463
tp464
a(S'MPI_Allreduce()'
p465
S'177'
p466
tp467
a(S'MPI_Allreduce()'
p468
S'178'
p469
tp470
a(S'MPI_Finalize()'
p471
S'235'
p472
tp473
asS'chapel/third-party/gasnet/GASNet-1.18.2/tests/mpi/testosumpi2_get_lat.c'
p474
(lp475
(S'MPI_Init()'
p476
S'33'
p477
tp478
a(S'MPI_Comm_size()'
p479
S'34'
p480
tp481
a(S'MPI_Comm_rank()'
p482
S'35'
p483
tp484
a(S'MPI_Abort()'
p485
S'39'
p486
tp487
a(S'MPI_Comm_group()'
p488
S'59'
p489
tp490
a(S'MPI_Win_create()'
p491
S'65'
p492
tp493
a(S'MPI_Group_incl()'
p494
S'67'
p495
tp496
a(S'MPI_Barrier()'
p497
S'68'
p498
tp499
a(S'MPI_Win_start()'
p500
S'72'
p501
tp502
a(S'MPI_Get()'
p503
S'76'
p504
tp505
a(S'MPI_Win_complete()'
p506
S'77'
p507
tp508
a(S'MPI_Win_post()'
p509
S'78'
p510
tp511
a(S'MPI_Win_wait()'
p512
S'79'
p513
tp514
a(S'MPI_Win_create()'
p515
S'84'
p516
tp517
a(S'MPI_Group_incl()'
p518
S'86'
p519
tp520
a(S'MPI_Barrier()'
p521
S'88'
p522
tp523
a(S'MPI_Win_post()'
p524
S'92'
p525
tp526
a(S'MPI_Win_wait()'
p527
S'93'
p528
tp529
a(S'MPI_Win_start()'
p530
S'94'
p531
tp532
a(S'MPI_Get()'
p533
S'95'
p534
tp535
a(S'MPI_Win_complete()'
p536
S'96'
p537
tp538
a(S'MPI_Barrier()'
p539
S'104'
p540
tp541
a(S'MPI_Group_free()'
p542
S'105'
p543
tp544
a(S'MPI_Win_free()'
p545
S'107'
p546
tp547
a(S'MPI_Group_free()'
p548
S'110'
p549
tp550
a(S'MPI_Finalize()'
p551
S'111'
p552
tp553
asS'chapel/third-party/gasnet/GASNet-1.18.2/configure'
p554
(lp555
(S'MPI_Init()'
p556
S'138330'
p557
tp558
a(S'MPI_Finalize()'
p559
S'138331'
p560
tp561
a(S'MPI_Init()'
p562
S'138487'
p563
tp564
a(S'MPI_Finalize()'
p565
S'138488'
p566
tp567
asS'chapel/third-party/gasnet/GASNet-1.18.2/tests/mpi/testosumpi_lat.c'
p568
(lp569
(S'MPI_Init()'
p570
S'38'
p571
tp572
a(S'MPI_Comm_size()'
p573
S'39'
p574
tp575
a(S'MPI_Comm_rank()'
p576
S'40'
p577
tp578
a(S'MPI_Barrier()'
p579
S'75'
p580
tp581
a(S'MPI_Wtime()'
p582
S'80'
p583
tp584
a(S'MPI_Send()'
p585
S'81'
p586
tp587
a(S'MPI_Recv()'
p588
S'83'
p589
tp590
a(S'MPI_Recv()'
p591
S'85'
p592
tp593
a(S'MPI_Wtime()'
p594
S'87'
p595
tp596
a(S'MPI_Recv()'
p597
S'91'
p598
tp599
a(S'MPI_Send()'
p600
S'93'
p601
tp602
a(S'MPI_Send()'
p603
S'95'
p604
tp605
a(S'MPI_Finalize()'
p606
S'112'
p607
tp608
asS'chapel/third-party/qthread/qthread-1.8/test/benchmarks/mantevo/hpccg/read_HPC_row.cpp'
p609
(lp610
(S'MPI_Comm_size()'
p611
S'79'
p612
tp613
a(S'MPI_Comm_rank()'
p614
S'80'
p615
tp616
asS'chapel/third-party/gasnet/GASNet-1.18.2/gemini-conduit/gasnet_gemini_utils.c'
p617
(lp618
(S'X_MPI_SUCCESS()'
p619
S'11'
p620
tp621
asS'chapel/third-party/gasnet/GASNet-1.18.2/tests/mpi/testosumpi_bw.c'
p622
(lp623
(S'MPI_Init()'
p624
S'42'
p625
tp626
a(S'MPI_Comm_size()'
p627
S'43'
p628
tp629
a(S'MPI_Comm_rank()'
p630
S'44'
p631
tp632
a(S'MPI_Wtime()'
p633
S'80'
p634
tp635
a(S'MPI_Isend()'
p636
S'82'
p637
tp638
a(S'X_MPI_COMM_WORLD()'
p639
S'83'
p640
tp641
a(S'MPI_Waitall()'
p642
S'85'
p643
tp644
a(S'MPI_Recv()'
p645
S'86'
p646
tp647
a(S'MPI_Wtime()'
p648
S'91'
p649
tp650
a(S'MPI_Irecv()'
p651
S'99'
p652
tp653
a(S'X_MPI_COMM_WORLD()'
p654
S'100'
p655
tp656
a(S'MPI_Waitall()'
p657
S'102'
p658
tp659
a(S'MPI_Send()'
p660
S'103'
p661
tp662
a(S'MPI_Finalize()'
p663
S'125'
p664
tp665
asS'chapel/third-party/gasnet/GASNet-1.18.2/other/ammpi/ammpi_spmd.c'
p666
(lp667
(S'MPI_SAFE()'
p668
S'138'
p669
tp670
a(S'MPI_SAFE()'
p671
S'147'
p672
tp673
a(S'MPI_SAFE()'
p674
S'183'
p675
tp676
a(S'MPI_SAFE()'
p677
S'185'
p678
tp679
a(S'MPI_SAFE()'
p680
S'209'
p681
tp682
a(S'MPI_SAFE()'
p683
S'210'
p684
tp685
a(S'MPI_SAFE()'
p686
S'238'
p687
tp688
a(S'MPI_SAFE()'
p689
S'239'
p690
tp691
a(S'MPI_SAFE()'
p692
S'240'
p693
tp694
a(S'MPI_SAFE()'
p695
S'247'
p696
tp697
a(S'MPI_SAFE()'
p698
S'273'
p699
tp700
a(S'MPI_SAFE()'
p701
S'277'
p702
tp703
a(S'MPI_SAFE()'
p704
S'322'
p705
tp706
a(S'MPI_SAFE()'
p707
S'407'
p708
tp709
a(S'MPI_SAFE()'
p710
S'410'
p711
tp712
a(S'MPI_SAFE()'
p713
S'413'
p714
tp715
a(S'MPI_SAFE()'
p716
S'534'
p717
tp718
a(S'MPI_SAFE()'
p719
S'543'
p720
tp721
asS'chapel/third-party/qthread/qthread-1.8/test/benchmarks/mantevo/hpccg/make_local_matrix.cpp'
p722
(lp723
(S'MPI_Comm_size()'
p724
S'62'
p725
tp726
a(S'MPI_Comm_rank()'
p727
S'63'
p728
tp729
a(S'MPI_Allreduce()'
p730
S'172'
p731
tp732
a(S'X_MPI_SUM()'
p733
S'173'
p734
tp735
a(S'MPI_Allreduce()'
p736
S'291'
p737
tp738
a(S'MPI_Irecv()'
p739
S'374'
p740
tp741
a(S'X_MPI_COMM_WORLD()'
p742
S'375'
p743
tp744
a(S'MPI_Send()'
p745
S'381'
p746
tp747
a(S'MPI_Irecv()'
p748
S'473'
p749
tp750
a(S'MPI_Send()'
p751
S'506'
p752
tp753
a(S'MPI_Irecv()'
p754
S'533'
p755
tp756
a(S'X_MPI_MY_TAG()'
p757
S'534'
p758
tp759
a(S'MPI_Send()'
p760
S'555'
p761
tp762
a(S'X_MPI_MY_TAG()'
p763
S'556'
p764
tp765
asS'chapel/third-party/gasnet/GASNet-1.18.2/tests/mpi/testosumpi_bcast_lat.c'
p766
(lp767
(S'MPI_Init()'
p768
S'36'
p769
tp770
a(S'MPI_Comm_rank()'
p771
S'37'
p772
tp773
a(S'MPI_Comm_size()'
p774
S'38'
p775
tp776
a(S'MPI_Barrier()'
p777
S'45'
p778
tp779
a(S'MPI_Barrier()'
p780
S'53'
p781
tp782
a(S'MPI_Bcast()'
p783
S'62'
p784
tp785
a(S'MPI_Recv()'
p786
S'65'
p787
tp788
a(S'MPI_Send()'
p789
S'72'
p790
tp791
a(S'MPI_Barrier()'
p792
S'88'
p793
tp794
a(S'MPI_Finalize()'
p795
S'91'
p796
tp797
a(S'MPI_Send()'
p798
S'105'
p799
tp800
a(S'MPI_Recv()'
p801
S'106'
p802
tp803
a(S'MPI_Recv()'
p804
S'113'
p805
tp806
a(S'MPI_Send()'
p807
S'115'
p808
tp809
asS'chapel/third-party/qthread/qthread-1.8/test/benchmarks/mantevo/hpccg/ddot.cpp'
p810
(lp811
(S'MPI_Allreduce()'
p812
S'136'
p813
tp814
a(S'MPI_Allreduce()'
p815
S'171'
p816
tp817
asS'chapel/third-party/gasnet/GASNet-1.18.2/tests/testmpi.c'
p818
(lp819
(S'MPI_SAFE()'
p820
S'75'
p821
tp822
a(S'MPI_SAFE()'
p823
S'78'
p824
tp825
a(S'MPI_SAFE()'
p826
S'85'
p827
tp828
a(S'MPI_SAFE()'
p829
S'103'
p830
tp831
a(S'MPI_SAFE()'
p832
S'109'
p833
tp834
a(S'MPI_SAFE()'
p835
S'110'
p836
tp837
a(S'MPI_SAFE()'
p838
S'116'
p839
tp840
a(S'MPI_SAFE()'
p841
S'136'
p842
tp843
a(S'MPI_SAFE()'
p844
S'154'
p845
tp846
a(S'MPI_SAFE()'
p847
S'161'
p848
tp849
a(S'MPI_LOCK()'
p850
S'191'
p851
tp852
a(S'MPI_SAFE()'
p853
S'200'
p854
tp855
a(S'MPI_UNLOCK()'
p856
S'203'
p857
tp858
a(S'MPI_LOCK()'
p859
S'217'
p860
tp861
a(S'MPI_SAFE()'
p862
S'221'
p863
tp864
a(S'MPI_SAFE()'
p865
S'228'
p866
tp867
a(S'MPI_SAFE()'
p868
S'234'
p869
tp870
a(S'MPI_UNLOCK()'
p871
S'243'
p872
tp873
a(S'MPI_LOCK()'
p874
S'269'
p875
tp876
a(S'MPI_SAFE()'
p877
S'271'
p878
tp879
a(S'MPI_UNLOCK()'
p880
S'273'
p881
tp882
a(S'MPI_LOCK()'
p883
S'310'
p884
tp885
a(S'MPI_SAFE()'
p886
S'313'
p887
tp888
a(S'MPI_SAFE()'
p889
S'317'
p890
tp891
a(S'MPI_UNLOCK()'
p892
S'320'
p893
tp894
asS'chapel/third-party/gasnet/GASNet-1.18.2/shmem-conduit/gasnet_core.c'
p895
(lp896
(S'MPI_Init()'
p897
S'148'
p898
tp899
a(S'MPI_Finalize()'
p900
S'629'
p901
tp902
asS'chapel/third-party/gasnet/GASNet-1.18.2/other/mpi-spawner/gasnet_bootstrap_mpi.c'
p903
(lp904
(S'MPI_Initialized()'
p905
S'25'
p906
tp907
a(S'MPI_Init()'
p908
S'28'
p909
tp910
a(S'MPI_Comm_group()'
p911
S'33'
p912
tp913
a(S'MPI_Comm_create()'
p914
S'35'
p915
tp916
a(S'MPI_Group_free()'
p917
S'37'
p918
tp919
a(S'MPI_Comm_size()'
p920
S'41'
p921
tp922
a(S'MPI_Comm_rank()'
p923
S'46'
p924
tp925
a(S'MPI_Comm_free()'
p926
S'58'
p927
tp928
a(S'MPI_Barrier()'
p929
S'82'
p930
tp931
a(S'MPI_Allgather()'
p932
S'89'
p933
tp934
a(S'MPI_Alltoall()'
p935
S'96'
p936
tp937
a(S'MPI_Bcast()'
p938
S'106'
p939
tp940
asS'chapel/third-party/gasnet/GASNet-1.18.2/tests/mpi/testmpicollperf.c'
p941
(lp942
(S'MPI_Barrier()'
p943
S'15'
p944
tp945
a(S'MPI_Bcast()'
p946
S'40'
p947
tp948
a(S'MPI_Barrier()'
p949
S'43'
p950
tp951
a(S'MPI_Barrier()'
p952
S'47'
p953
tp954
a(S'MPI_Wtime()'
p955
S'49'
p956
tp957
a(S'MPI_Bcast()'
p958
S'51'
p959
tp960
a(S'MPI_Wtime()'
p961
S'53'
p962
tp963
a(S'MPI_Barrier()'
p964
S'54'
p965
tp966
a(S'MPI_Wtime()'
p967
S'60'
p968
tp969
a(S'MPI_Barrier()'
p970
S'61'
p971
tp972
a(S'MPI_Wtime()'
p973
S'65'
p974
tp975
a(S'MPI_Gather()'
p976
S'69'
p977
tp978
a(S'MPI_Gather()'
p979
S'70'
p980
tp981
a(S'MPI_Gather()'
p982
S'72'
p983
tp984
a(S'MPI_Gather()'
p985
S'73'
p986
tp987
a(S'MPI_Barrier()'
p988
S'111'
p989
tp990
a(S'MPI_Scatter()'
p991
S'113'
p992
tp993
a(S'MPI_Barrier()'
p994
S'117'
p995
tp996
a(S'MPI_Wtime()'
p997
S'119'
p998
tp999
a(S'MPI_Scatter()'
p1000
S'121'
p1001
tp1002
a(S'MPI_Wtime()'
p1003
S'124'
p1004
tp1005
a(S'MPI_Barrier()'
p1006
S'125'
p1007
tp1008
a(S'MPI_Wtime()'
p1009
S'130'
p1010
tp1011
a(S'MPI_Barrier()'
p1012
S'131'
p1013
tp1014
a(S'MPI_Wtime()'
p1015
S'135'
p1016
tp1017
a(S'MPI_Gather()'
p1018
S'139'
p1019
tp1020
a(S'MPI_Gather()'
p1021
S'140'
p1022
tp1023
a(S'MPI_Gather()'
p1024
S'142'
p1025
tp1026
a(S'MPI_Gather()'
p1027
S'143'
p1028
tp1029
a(S'MPI_Gather()'
p1030
S'184'
p1031
tp1032
a(S'MPI_Barrier()'
p1033
S'188'
p1034
tp1035
a(S'MPI_Wtime()'
p1036
S'190'
p1037
tp1038
a(S'MPI_Gather()'
p1039
S'192'
p1040
tp1041
a(S'MPI_Wtime()'
p1042
S'195'
p1043
tp1044
a(S'MPI_Barrier()'
p1045
S'197'
p1046
tp1047
a(S'MPI_Wtime()'
p1048
S'202'
p1049
tp1050
a(S'MPI_Barrier()'
p1051
S'203'
p1052
tp1053
a(S'MPI_Wtime()'
p1054
S'207'
p1055
tp1056
a(S'MPI_Gather()'
p1057
S'211'
p1058
tp1059
a(S'MPI_Gather()'
p1060
S'212'
p1061
tp1062
a(S'MPI_Gather()'
p1063
S'214'
p1064
tp1065
a(S'MPI_Gather()'
p1066
S'215'
p1067
tp1068
a(S'MPI_Allgather()'
p1069
S'255'
p1070
tp1071
a(S'MPI_Barrier()'
p1072
S'258'
p1073
tp1074
a(S'MPI_Wtime()'
p1075
S'260'
p1076
tp1077
a(S'MPI_Allgather()'
p1078
S'262'
p1079
tp1080
a(S'MPI_Wtime()'
p1081
S'265'
p1082
tp1083
a(S'MPI_Barrier()'
p1084
S'266'
p1085
tp1086
a(S'MPI_Wtime()'
p1087
S'270'
p1088
tp1089
a(S'MPI_Gather()'
p1090
S'274'
p1091
tp1092
a(S'MPI_Gather()'
p1093
S'275'
p1094
tp1095
a(S'MPI_Gather()'
p1096
S'277'
p1097
tp1098
a(S'MPI_Gather()'
p1099
S'278'
p1100
tp1101
a(S'MPI_Barrier()'
p1102
S'316'
p1103
tp1104
a(S'MPI_Wtime()'
p1105
S'318'
p1106
tp1107
a(S'MPI_Reduce()'
p1108
S'320'
p1109
tp1110
a(S'MPI_Wtime()'
p1111
S'323'
p1112
tp1113
a(S'MPI_Barrier()'
p1114
S'324'
p1115
tp1116
a(S'MPI_Wtime()'
p1117
S'327'
p1118
tp1119
a(S'MPI_Gather()'
p1120
S'332'
p1121
tp1122
a(S'MPI_Gather()'
p1123
S'333'
p1124
tp1125
a(S'MPI_Gather()'
p1126
S'335'
p1127
tp1128
a(S'MPI_Gather()'
p1129
S'336'
p1130
tp1131
a(S'MPI_Reduce()'
p1132
S'374'
p1133
tp1134
a(S'MPI_Barrier()'
p1135
S'377'
p1136
tp1137
a(S'MPI_Wtime()'
p1138
S'379'
p1139
tp1140
a(S'MPI_Reduce()'
p1141
S'381'
p1142
tp1143
a(S'MPI_Wtime()'
p1144
S'384'
p1145
tp1146
a(S'MPI_Barrier()'
p1147
S'386'
p1148
tp1149
a(S'MPI_Wtime()'
p1150
S'392'
p1151
tp1152
a(S'MPI_Barrier()'
p1153
S'393'
p1154
tp1155
a(S'MPI_Wtime()'
p1156
S'397'
p1157
tp1158
a(S'MPI_Gather()'
p1159
S'402'
p1160
tp1161
a(S'MPI_Gather()'
p1162
S'403'
p1163
tp1164
a(S'MPI_Gather()'
p1165
S'405'
p1166
tp1167
a(S'MPI_Gather()'
p1168
S'406'
p1169
tp1170
a(S'MPI_Barrier()'
p1171
S'448'
p1172
tp1173
a(S'MPI_Alltoall()'
p1174
S'451'
p1175
tp1176
a(S'MPI_Barrier()'
p1177
S'453'
p1178
tp1179
a(S'MPI_Barrier()'
p1180
S'456'
p1181
tp1182
a(S'MPI_Wtime()'
p1183
S'458'
p1184
tp1185
a(S'MPI_Alltoall()'
p1186
S'460'
p1187
tp1188
a(S'MPI_Wtime()'
p1189
S'464'
p1190
tp1191
a(S'MPI_Barrier()'
p1192
S'466'
p1193
tp1194
a(S'MPI_Wtime()'
p1195
S'468'
p1196
tp1197
a(S'MPI_Gather()'
p1198
S'472'
p1199
tp1200
a(S'MPI_Gather()'
p1201
S'473'
p1202
tp1203
a(S'MPI_Gather()'
p1204
S'475'
p1205
tp1206
a(S'MPI_Gather()'
p1207
S'476'
p1208
tp1209
a(S'MPI_Barrier()'
p1210
S'508'
p1211
tp1212
a(S'MPI_Wtime()'
p1213
S'510'
p1214
tp1215
a(S'MPI_Allreduce()'
p1216
S'512'
p1217
tp1218
a(S'MPI_Wtime()'
p1219
S'515'
p1220
tp1221
a(S'MPI_Gather()'
p1222
S'519'
p1223
tp1224
a(S'MPI_Gather()'
p1225
S'520'
p1226
tp1227
a(S'MPI_Gather()'
p1228
S'522'
p1229
tp1230
a(S'MPI_Gather()'
p1231
S'523'
p1232
tp1233
a(S'MPI_Init()'
p1234
S'541'
p1235
tp1236
a(S'MPI_Comm_rank()'
p1237
S'543'
p1238
tp1239
a(S'MPI_Comm_size()'
p1240
S'544'
p1241
tp1242
a(S'MPI_Barrier()'
p1243
S'553'
p1244
tp1245
a(S'MPI_Wtime()'
p1246
S'554'
p1247
tp1248
a(S'MPI_Barrier()'
p1249
S'556'
p1250
tp1251
a(S'MPI_Wtime()'
p1252
S'558'
p1253
tp1254
a(S'MPI_Barrier()'
p1255
S'577'
p1256
tp1257
a(S'MPI_Finalize()'
p1258
S'578'
p1259
tp1260
asS'chapel/third-party/qthread/qthread-1.8/test/benchmarks/mantevo/hpccg/exchange_externals.cpp'
p1261
(lp1262
(S'MPI_Comm_size()'
p1263
S'55'
p1264
tp1265
a(S'MPI_Comm_rank()'
p1266
S'56'
p1267
tp1268
a(S'MPI_Irecv()'
p1269
S'77'
p1270
tp1271
a(S'X_MPI_COMM_WORLD()'
p1272
S'78'
p1273
tp1274
a(S'MPI_Send()'
p1275
S'96'
p1276
tp1277
asS'chapel/third-party/gasnet/GASNet-1.18.2/other/ammpi/ammpi_reqrep.c'
p1278
(lp1279
(S'MPI_Issend()'
p1280
S'105'
p1281
tp1282
a(S'MPI_Isend()'
p1283
S'107'
p1284
tp1285
a(S'MPI_Bsend()'
p1286
S'112'
p1287
tp1288
a(S'MPI_SAFE()'
p1289
S'533'
p1290
tp1291
a(S'MPI_SAFE()'
p1292
S'556'
p1293
tp1294
a(S'MPI_SAFE()'
p1295
S'567'
p1296
tp1297
a(S'MPI_SAFE()'
p1298
S'586'
p1299
tp1300
a(S'MPI_SAFE()'
p1301
S'588'
p1302
tp1303
a(S'MPI_SAFE()'
p1304
S'609'
p1305
tp1306
a(S'MPI_SAFE()'
p1307
S'612'
p1308
tp1309
a(S'MPI_SAFE()'
p1310
S'616'
p1311
tp1312
a(S'MPI_SAFE()'
p1313
S'619'
p1314
tp1315
a(S'MPI_SAFE()'
p1316
S'644'
p1317
tp1318
asS'chapel/third-party/gasnet/GASNet-1.18.2/tests/mpi/testosumpi2_put_lat.c'
p1319
(lp1320
(S'MPI_Init()'
p1321
S'33'
p1322
tp1323
a(S'MPI_Comm_size()'
p1324
S'34'
p1325
tp1326
a(S'MPI_Comm_rank()'
p1327
S'35'
p1328
tp1329
a(S'MPI_Abort()'
p1330
S'39'
p1331
tp1332
a(S'MPI_Comm_group()'
p1333
S'59'
p1334
tp1335
a(S'MPI_Win_create()'
p1336
S'65'
p1337
tp1338
a(S'MPI_Group_incl()'
p1339
S'67'
p1340
tp1341
a(S'MPI_Barrier()'
p1342
S'68'
p1343
tp1344
a(S'MPI_Win_start()'
p1345
S'72'
p1346
tp1347
a(S'MPI_Put()'
p1348
S'76'
p1349
tp1350
a(S'MPI_Win_complete()'
p1351
S'77'
p1352
tp1353
a(S'MPI_Win_post()'
p1354
S'78'
p1355
tp1356
a(S'MPI_Win_wait()'
p1357
S'79'
p1358
tp1359
a(S'MPI_Win_create()'
p1360
S'84'
p1361
tp1362
a(S'MPI_Group_incl()'
p1363
S'86'
p1364
tp1365
a(S'MPI_Barrier()'
p1366
S'88'
p1367
tp1368
a(S'MPI_Win_post()'
p1369
S'92'
p1370
tp1371
a(S'MPI_Win_wait()'
p1372
S'93'
p1373
tp1374
a(S'MPI_Win_start()'
p1375
S'94'
p1376
tp1377
a(S'MPI_Put()'
p1378
S'95'
p1379
tp1380
a(S'MPI_Win_complete()'
p1381
S'96'
p1382
tp1383
a(S'MPI_Barrier()'
p1384
S'104'
p1385
tp1386
a(S'MPI_Group_free()'
p1387
S'105'
p1388
tp1389
a(S'MPI_Win_free()'
p1390
S'107'
p1391
tp1392
a(S'MPI_Group_free()'
p1393
S'110'
p1394
tp1395
a(S'MPI_Finalize()'
p1396
S'111'
p1397
tp1398
asS'chapel/third-party/qthread/qthread-1.8/test/benchmarks/mantevo/hpccg/compute_residual.cpp'
p1399
(lp1400
(S'MPI_Allreduce()'
p1401
S'106'
p1402
tp1403
a(S'MPI_Allreduce()'
p1404
S'136'
p1405
tp1406
asS'chapel/third-party/qthread/qthread-1.8/src/net/portals4/runtime-mpi.c'
p1407
(lp1408
(S'MPI_Initialized()'
p1409
S'29'
p1410
tp1411
a(S'MPI_Finalized()'
p1412
S'53'
p1413
tp1414
a(S'MPI_Finalize()'
p1415
S'55'
p1416
tp1417
a(S'MPI_Barrier()'
p1418
S'89'
p1419
tp1420
asS'chapel/third-party/gasnet/GASNet-1.18.2/tests/mpi/testosumpi_bw2.c'
p1421
(lp1422
(S'MPI_Init()'
p1423
S'43'
p1424
tp1425
a(S'MPI_Comm_size()'
p1426
S'44'
p1427
tp1428
a(S'MPI_Comm_rank()'
p1429
S'45'
p1430
tp1431
a(S'MPI_Wtime()'
p1432
S'80'
p1433
tp1434
a(S'MPI_Irecv()'
p1435
S'82'
p1436
tp1437
a(S'X_MPI_COMM_WORLD()'
p1438
S'83'
p1439
tp1440
a(S'MPI_Isend()'
p1441
S'85'
p1442
tp1443
a(S'X_MPI_COMM_WORLD()'
p1444
S'86'
p1445
tp1446
a(S'MPI_Waitall()'
p1447
S'87'
p1448
tp1449
a(S'MPI_Waitall()'
p1450
S'88'
p1451
tp1452
a(S'MPI_Wtime()'
p1453
S'92'
p1454
tp1455
a(S'MPI_Irecv()'
p1456
S'100'
p1457
tp1458
a(S'X_MPI_COMM_WORLD()'
p1459
S'101'
p1460
tp1461
a(S'MPI_Isend()'
p1462
S'103'
p1463
tp1464
a(S'X_MPI_COMM_WORLD()'
p1465
S'104'
p1466
tp1467
a(S'MPI_Waitall()'
p1468
S'105'
p1469
tp1470
a(S'MPI_Waitall()'
p1471
S'106'
p1472
tp1473
a(S'MPI_Finalize()'
p1474
S'128'
p1475
tp1476
asS'chapel/third-party/gasnet/GASNet-1.18.2/tests/mpi/testosumpi2_put_bw2.c'
p1477
(lp1478
(S'MPI_Init()'
p1479
S'40'
p1480
tp1481
a(S'MPI_Comm_size()'
p1482
S'41'
p1483
tp1484
a(S'MPI_Comm_rank()'
p1485
S'42'
p1486
tp1487
a(S'MPI_Comm_group()'
p1488
S'43'
p1489
tp1490
a(S'MPI_Win_create()'
p1491
S'66'
p1492
tp1493
a(S'MPI_Group_incl()'
p1494
S'69'
p1495
tp1496
a(S'MPI_Win_post()'
p1497
S'72'
p1498
tp1499
a(S'MPI_Win_start()'
p1500
S'73'
p1501
tp1502
a(S'MPI_Put()'
p1503
S'74'
p1504
tp1505
a(S'MPI_Win_complete()'
p1506
S'75'
p1507
tp1508
a(S'MPI_Win_wait()'
p1509
S'76'
p1510
tp1511
a(S'MPI_Win_create()'
p1512
S'79'
p1513
tp1514
a(S'MPI_Group_incl()'
p1515
S'81'
p1516
tp1517
a(S'MPI_Win_post()'
p1518
S'84'
p1519
tp1520
a(S'MPI_Win_start()'
p1521
S'85'
p1522
tp1523
a(S'MPI_Put()'
p1524
S'86'
p1525
tp1526
a(S'MPI_Win_complete()'
p1527
S'87'
p1528
tp1529
a(S'MPI_Win_wait()'
p1530
S'88'
p1531
tp1532
a(S'MPI_Barrier()'
p1533
S'92'
p1534
tp1535
a(S'MPI_Win_post()'
p1536
S'99'
p1537
tp1538
a(S'MPI_Win_start()'
p1539
S'100'
p1540
tp1541
a(S'MPI_Put()'
p1542
S'103'
p1543
tp1544
a(S'MPI_Win_complete()'
p1545
S'105'
p1546
tp1547
a(S'MPI_Win_wait()'
p1548
S'106'
p1549
tp1550
a(S'MPI_Barrier()'
p1551
S'109'
p1552
tp1553
a(S'MPI_Win_post()'
p1554
S'115'
p1555
tp1556
a(S'MPI_Win_start()'
p1557
S'116'
p1558
tp1559
a(S'MPI_Put()'
p1560
S'119'
p1561
tp1562
a(S'MPI_Win_complete()'
p1563
S'121'
p1564
tp1565
a(S'MPI_Win_wait()'
p1566
S'122'
p1567
tp1568
a(S'MPI_Barrier()'
p1569
S'124'
p1570
tp1571
a(S'MPI_Win_free()'
p1572
S'138'
p1573
tp1574
a(S'MPI_Barrier()'
p1575
S'140'
p1576
tp1577
a(S'MPI_Finalize()'
p1578
S'141'
p1579
tp1580
asS'chapel/third-party/gasnet/GASNet-1.18.2/README'
p1581
(lp1582
(S'MPI_Barrier()'
p1583
S'673'
p1584
tp1585
as.