ccollections
defaultdict
p0
(c__builtin__
list
p1
tp2
Rp3
S'pp_2019_autumn/modules/task_2/lembrikov_s_gor_mat_on_vec/main.cpp'
p4
(lp5
(S'MPI_Comm_rank()'
p6
S'9'
p7
tp8
a(S'MPI_Comm_rank()'
p9
S'34'
p10
tp11
a(S'MPI_Comm_rank()'
p12
S'63'
p13
tp14
a(S'MPI_Comm_rank()'
p15
S'76'
p16
tp17
a(S'MPI_Comm_rank()'
p18
S'91'
p19
tp20
a(S'MPI_Comm_rank()'
p21
S'112'
p22
tp23
a(S'MPI_Comm_rank()'
p24
S'131'
p25
tp26
a(S'MPI_Comm_rank()'
p27
S'145'
p28
tp29
a(S'MPI_Init()'
p30
S'154'
p31
tp32
asS'pp_2019_autumn/modules/task_2/shemetov_p_network_topology_hypercube/main.cpp'
p33
(lp34
(S'MPI_Comm_size()'
p35
S'19'
p36
tp37
a(S'MPI_Comm_rank()'
p38
S'20'
p39
tp40
a(S'MPI_Comm_size()'
p41
S'33'
p42
tp43
a(S'MPI_Comm_rank()'
p44
S'34'
p45
tp46
a(S'MPI_Comm_size()'
p47
S'46'
p48
tp49
a(S'MPI_Comm_rank()'
p50
S'47'
p51
tp52
a(S'MPI_Comm_size()'
p53
S'60'
p54
tp55
a(S'MPI_Comm_rank()'
p56
S'61'
p57
tp58
a(S'MPI_Cart_create()'
p59
S'66'
p60
tp61
a(S'MPI_Comm_size()'
p62
S'77'
p63
tp64
a(S'MPI_Comm_rank()'
p65
S'78'
p66
tp67
a(S'MPI_Comm_size()'
p68
S'93'
p69
tp70
a(S'MPI_Comm_rank()'
p71
S'94'
p72
tp73
a(S'MPI_Cart_create()'
p74
S'99'
p75
tp76
a(S'MPI_Init()'
p77
S'121'
p78
tp79
asS'pp_2019_autumn/modules/task_1/rezantsev_s_min_matrix/main.cpp'
p80
(lp81
(S'MPI_Comm_rank()'
p82
S'11'
p83
tp84
a(S'MPI_Comm_rank()'
p85
S'25'
p86
tp87
a(S'MPI_Comm_rank()'
p88
S'36'
p89
tp90
a(S'MPI_Comm_rank()'
p91
S'49'
p92
tp93
a(S'MPI_Comm_rank()'
p94
S'60'
p95
tp96
a(S'MPI_Comm_rank()'
p97
S'72'
p98
tp99
a(S'MPI_Comm_rank()'
p100
S'82'
p101
tp102
a(S'MPI_Init()'
p103
S'92'
p104
tp105
asS'pp_2019_autumn/modules/task_1/kolesova_k_close_value_vector/main.cpp'
p106
(lp107
(S'MPI_Comm_rank()'
p108
S'10'
p109
tp110
a(S'MPI_Comm_rank()'
p111
S'20'
p112
tp113
a(S'MPI_Comm_rank()'
p114
S'30'
p115
tp116
a(S'MPI_Comm_rank()'
p117
S'41'
p118
tp119
a(S'MPI_Comm_rank()'
p120
S'52'
p121
tp122
a(S'MPI_Comm_rank()'
p123
S'63'
p124
tp125
a(S'MPI_Init()'
p126
S'74'
p127
tp128
asS'pp_2019_autumn/modules/task_1/devlikamov_v_max_matrix/main.cpp'
p129
(lp130
(S'MPI_Comm_rank()'
p131
S'11'
p132
tp133
a(S'MPI_Comm_rank()'
p134
S'25'
p135
tp136
a(S'MPI_Comm_rank()'
p137
S'39'
p138
tp139
a(S'MPI_Comm_rank()'
p140
S'57'
p141
tp142
a(S'MPI_Comm_rank()'
p143
S'67'
p144
tp145
a(S'MPI_Comm_rank()'
p146
S'77'
p147
tp148
a(S'MPI_Comm_rank()'
p149
S'87'
p150
tp151
a(S'MPI_Comm_rank()'
p152
S'97'
p153
tp154
a(S'MPI_Comm_rank()'
p155
S'107'
p156
tp157
a(S'MPI_Comm_rank()'
p158
S'117'
p159
tp160
a(S'MPI_Comm_rank()'
p161
S'127'
p162
tp163
a(S'MPI_Comm_rank()'
p164
S'137'
p165
tp166
a(S'MPI_Comm_rank()'
p167
S'147'
p168
tp169
a(S'MPI_Comm_rank()'
p170
S'157'
p171
tp172
a(S'MPI_Init()'
p173
S'166'
p174
tp175
asS'pp_2019_autumn/modules/task_2/astafeva_i_mpi_reduce/mpi_reduce.cpp'
p176
(lp177
(S'MPI_Comm_rank()'
p178
S'17'
p179
tp180
a(S'MPI_Send()'
p181
S'41'
p182
tp183
a(S'MPI_Recv()'
p184
S'49'
p185
tp186
a(S'MPI_Recv()'
p187
S'80'
p188
tp189
a(S'MPI_Recv()'
p190
S'111'
p191
tp192
a(S'MPI_Send()'
p193
S'147'
p194
tp195
a(S'MPI_Recv()'
p196
S'151'
p197
tp198
asS'pp_2019_autumn/modules/task_1/devlikamov_v_max_matrix/max_matrix.cpp'
p199
(lp200
(S'MPI_Comm_size()'
p201
S'54'
p202
tp203
a(S'MPI_Comm_rank()'
p204
S'55'
p205
tp206
a(S'MPI_Send()'
p207
S'59'
p208
tp209
a(S'MPI_Recv()'
p210
S'72'
p211
tp212
a(S'MPI_Reduce()'
p213
S'76'
p214
tp215
asS'pp_2019_autumn/modules/task_2/andronov_m_ring_topology/main.cpp'
p216
(lp217
(S'MPI_Comm_size()'
p218
S'28'
p219
tp220
a(S'MPI_Dims_create()'
p221
S'29'
p222
tp223
a(S'MPI_Cart_create()'
p224
S'30'
p225
tp226
a(S'MPI_Comm_size()'
p227
S'39'
p228
tp229
a(S'MPI_Cart_create()'
p230
S'40'
p231
tp232
a(S'MPI_Comm_rank()'
p233
S'49'
p234
tp235
a(S'MPI_Comm_size()'
p236
S'50'
p237
tp238
a(S'MPI_Cart_shift()'
p239
S'51'
p240
tp241
a(S'MPI_Comm_rank()'
p242
S'71'
p243
tp244
a(S'MPI_Comm_size()'
p245
S'72'
p246
tp247
a(S'MPI_Comm_rank()'
p248
S'93'
p249
tp250
a(S'MPI_Comm_size()'
p251
S'94'
p252
tp253
a(S'MPI_Comm_rank()'
p254
S'115'
p255
tp256
a(S'MPI_Comm_size()'
p257
S'116'
p258
tp259
a(S'MPI_Comm_rank()'
p260
S'126'
p261
tp262
a(S'MPI_Comm_size()'
p263
S'127'
p264
tp265
a(S'MPI_Comm_rank()'
p266
S'137'
p267
tp268
a(S'MPI_Comm_size()'
p269
S'138'
p270
tp271
a(S'MPI_Comm_rank()'
p272
S'148'
p273
tp274
a(S'MPI_Comm_size()'
p275
S'149'
p276
tp277
a(S'MPI_Comm_rank()'
p278
S'159'
p279
tp280
a(S'MPI_Comm_size()'
p281
S'160'
p282
tp283
a(S'MPI_Init()'
p284
S'180'
p285
tp286
asS'pp_2019_autumn/modules/task_1/sadikov_a_vector_sum/main.cpp'
p287
(lp288
(S'MPI_Comm_rank()'
p289
S'14'
p290
tp291
a(S'MPI_Comm_rank()'
p292
S'31'
p293
tp294
a(S'MPI_Comm_rank()'
p295
S'48'
p296
tp297
a(S'MPI_Comm_rank()'
p298
S'65'
p299
tp300
a(S'MPI_Comm_rank()'
p301
S'82'
p302
tp303
a(S'MPI_Init()'
p304
S'99'
p305
tp306
asS'pp_2019_autumn/modules/task_1/soboleva_j_max_in_matrix_row/max_in_matrix_row.cpp'
p307
(lp308
(S'MPI_Comm_size()'
p309
S'37'
p310
tp311
a(S'MPI_Comm_rank()'
p312
S'38'
p313
tp314
a(S'MPI_Send()'
p315
S'50'
p316
tp317
a(S'MPI_Recv()'
p318
S'59'
p319
tp320
a(S'MPI_Send()'
p321
S'61'
p322
tp323
a(S'MPI_Recv()'
p324
S'69'
p325
tp326
asS'pp_2019_autumn/modules/task_1/dudchenko_a_max_vector_value/main.cpp'
p327
(lp328
(S'MPI_Comm_rank()'
p329
S'12'
p330
tp331
a(S'MPI_Comm_rank()'
p332
S'23'
p333
tp334
a(S'MPI_Comm_rank()'
p335
S'31'
p336
tp337
a(S'MPI_Comm_rank()'
p338
S'43'
p339
tp340
a(S'MPI_Init()'
p341
S'54'
p342
tp343
asS'pp_2019_autumn/modules/test_tasks/test_mpi/ops_mpi.cpp'
p344
(lp345
(S'MPI_Comm_size()'
p346
S'42'
p347
tp348
a(S'MPI_Comm_rank()'
p349
S'43'
p350
tp351
a(S'MPI_Send()'
p352
S'48'
p353
tp354
a(S'X_MPI_INT()'
p355
S'49'
p356
tp357
a(S'MPI_Recv()'
p358
S'59'
p359
tp360
a(S'MPI_Reduce()'
p361
S'67'
p362
tp363
asS'pp_2019_autumn/modules/task_1/okmyanskiy_a_sum_val_in_rows/main.cpp'
p364
(lp365
(S'MPI_Comm_rank()'
p366
S'10'
p367
tp368
a(S'MPI_Comm_rank()'
p369
S'29'
p370
tp371
a(S'MPI_Comm_rank()'
p372
S'48'
p373
tp374
a(S'MPI_Comm_rank()'
p375
S'60'
p376
tp377
a(S'MPI_Comm_rank()'
p378
S'72'
p379
tp380
a(S'MPI_Init()'
p381
S'86'
p382
tp383
asS'pp_2019_autumn/modules/task_1/pauzin_l_min_elem_in_vector/main.cpp'
p384
(lp385
(S'MPI_Comm_rank()'
p386
S'10'
p387
tp388
a(S'MPI_Comm_rank()'
p389
S'24'
p390
tp391
a(S'MPI_Comm_rank()'
p392
S'40'
p393
tp394
a(S'MPI_Comm_rank()'
p395
S'56'
p396
tp397
a(S'MPI_Comm_rank()'
p398
S'72'
p399
tp400
a(S'MPI_Init()'
p401
S'87'
p402
tp403
asS'pp_2019_autumn/modules/task_1/andronov_m_min_column_matrix/min_column_matrix.cpp'
p404
(lp405
(S'MPI_Comm_size()'
p406
S'64'
p407
tp408
a(S'MPI_Comm_rank()'
p409
S'65'
p410
tp411
a(S'MPI_Send()'
p412
S'73'
p413
tp414
a(S'MPI_Recv()'
p415
S'76'
p416
tp417
a(S'MPI_Send()'
p418
S'96'
p419
tp420
a(S'MPI_Recv()'
p421
S'103'
p422
tp423
a(S'MPI_Recv()'
p424
S'115'
p425
tp426
a(S'MPI_Send()'
p427
S'126'
p428
tp429
asS'pp_2019_autumn/modules/task_1/gribanov_m_vector_difference/main.cpp'
p430
(lp431
(S'MPI_Comm_rank()'
p432
S'10'
p433
tp434
a(S'MPI_Comm_rank()'
p435
S'20'
p436
tp437
a(S'MPI_Comm_rank()'
p438
S'30'
p439
tp440
a(S'MPI_Comm_rank()'
p441
S'42'
p442
tp443
a(S'MPI_Comm_rank()'
p444
S'53'
p445
tp446
a(S'MPI_Comm_rank()'
p447
S'64'
p448
tp449
a(S'MPI_Init()'
p450
S'75'
p451
tp452
asS'pp_2019_autumn/modules/task_2/zinkov_matrix_multiplication_hor_a_ver_b/matrix_multiplication_hor_a_ver_b.cpp'
p453
(lp454
(S'MPI_Comm_size()'
p455
S'46'
p456
tp457
a(S'MPI_Comm_rank()'
p458
S'47'
p459
tp460
a(S'MPI_Barrier()'
p461
S'63'
p462
tp463
a(S'MPI_Type_vector()'
p464
S'67'
p465
tp466
a(S'MPI_Type_commit()'
p467
S'68'
p468
tp469
a(S'MPI_Type_vector()'
p470
S'69'
p471
tp472
a(S'MPI_Type_commit()'
p473
S'70'
p474
tp475
a(S'MPI_Scatterv()'
p476
S'113'
p477
tp478
a(S'MPI_Send()'
p479
S'124'
p480
tp481
a(S'MPI_Send()'
p482
S'133'
p483
tp484
a(S'MPI_Recv()'
p485
S'139'
p486
tp487
a(S'MPI_Recv()'
p488
S'141'
p489
tp490
a(S'MPI_Send()'
p491
S'182'
p492
tp493
a(S'MPI_Recv()'
p494
S'183'
p495
tp496
a(S'MPI_Recv()'
p497
S'187'
p498
tp499
a(S'X_MPI_INT()'
p500
S'188'
p501
tp502
a(S'MPI_Send()'
p503
S'189'
p504
tp505
a(S'X_MPI_INT()'
p506
S'190'
p507
tp508
a(S'MPI_Send()'
p509
S'192'
p510
tp511
a(S'X_MPI_INT()'
p512
S'193'
p513
tp514
a(S'MPI_Recv()'
p515
S'194'
p516
tp517
a(S'X_MPI_INT()'
p518
S'195'
p519
tp520
a(S'MPI_Gatherv()'
p521
S'200'
p522
tp523
a(S'MPI_Type_free()'
p524
S'202'
p525
tp526
a(S'MPI_Type_free()'
p527
S'203'
p528
tp529
asS'pp_2019_autumn/modules/task_2/zinkov_matrix_multiplication_hor_a_ver_b/main.cpp'
p530
(lp531
(S'MPI_Comm_rank()'
p532
g7
tp533
a(S'MPI_Comm_rank()'
p534
S'30'
p535
tp536
a(S'MPI_Comm_rank()'
p537
S'51'
p538
tp539
a(S'MPI_Comm_rank()'
p540
S'72'
p541
tp542
a(S'MPI_Comm_rank()'
p543
S'93'
p544
tp545
a(S'MPI_Comm_rank()'
p546
S'111'
p547
tp548
a(S'MPI_Init()'
p549
S'128'
p550
tp551
asS'pp_2019_autumn/modules/task_1/tanskii_u_min_str/main.cpp'
p552
(lp553
(S'MPI_Comm_rank()'
p554
S'11'
p555
tp556
a(S'MPI_Comm_rank()'
p557
S'27'
p558
tp559
a(S'MPI_Comm_rank()'
p560
S'42'
p561
tp562
a(S'MPI_Comm_rank()'
p563
S'54'
p564
tp565
a(S'MPI_Comm_rank()'
p566
S'64'
p567
tp568
a(S'MPI_Init()'
p569
S'78'
p570
tp571
asS'pp_2019_autumn/modules/task_1/zinkov_num_violation_order_vector/main.cpp'
p572
(lp573
(S'MPI_Comm_rank()'
p574
g7
tp575
a(S'MPI_Comm_rank()'
p576
S'26'
p577
tp578
a(S'MPI_Comm_rank()'
p579
S'43'
p580
tp581
a(S'MPI_Comm_rank()'
p582
S'56'
p583
tp584
a(S'MPI_Comm_rank()'
p585
S'69'
p586
tp587
a(S'MPI_Comm_rank()'
p588
S'88'
p589
tp590
a(S'MPI_Comm_rank()'
p591
S'105'
p592
tp593
a(S'MPI_Comm_rank()'
p594
S'122'
p595
tp596
a(S'MPI_Comm_rank()'
p597
S'134'
p598
tp599
a(S'MPI_Init()'
p600
S'151'
p601
tp602
asS'pp_2019_autumn/modules/task_1/ryabova_a_count_frequency_char_in_line/count_frequency.cpp'
p603
(lp604
(S'MPI_Comm_size()'
p605
S'20'
p606
tp607
a(S'MPI_Comm_rank()'
p608
S'21'
p609
tp610
a(S'MPI_Barrier()'
p611
S'36'
p612
tp613
a(S'MPI_Send()'
p614
S'46'
p615
tp616
a(S'MPI_Send()'
p617
S'53'
p618
tp619
a(S'MPI_Recv()'
p620
S'56'
p621
tp622
a(S'MPI_Recv()'
p623
S'62'
p624
tp625
a(S'MPI_Recv()'
p626
S'65'
p627
tp628
a(S'MPI_Send()'
p629
S'68'
p630
tp631
asS'pp_2019_autumn/modules/task_1/bandenkov_d_sum_columns_matrix/main.cpp'
p632
(lp633
(S'MPI_Comm_rank()'
p634
S'22'
p635
tp636
a(S'MPI_Comm_rank()'
p637
S'34'
p638
tp639
a(S'MPI_Comm_rank()'
p640
S'48'
p641
tp642
a(S'MPI_Comm_rank()'
p643
S'62'
p644
tp645
a(S'MPI_Comm_rank()'
p646
S'76'
p647
tp648
a(S'MPI_Comm_rank()'
p649
S'90'
p650
tp651
a(S'MPI_Comm_rank()'
p652
S'105'
p653
tp654
a(S'MPI_Comm_rank()'
p655
S'119'
p656
tp657
a(S'MPI_Init()'
p658
S'133'
p659
tp660
asS'pp_2019_autumn/modules/task_1/makarikhin_max_vector_value/main.cpp'
p661
(lp662
(S'MPI_Comm_rank()'
p663
S'10'
p664
tp665
a(S'MPI_Comm_rank()'
p666
S'28'
p667
tp668
a(S'MPI_Comm_rank()'
p669
S'41'
p670
tp671
a(S'MPI_Comm_rank()'
p672
S'54'
p673
tp674
a(S'MPI_Comm_rank()'
p675
S'72'
p676
tp677
a(S'MPI_Comm_rank()'
p678
S'82'
p679
tp680
a(S'MPI_Init()'
p681
S'100'
p682
tp683
asS'pp_2019_autumn/modules/task_1/silenko_d_column_sum_matrix/main.cpp'
p684
(lp685
(S'MPI_Comm_rank()'
p686
S'27'
p687
tp688
a(S'MPI_Comm_rank()'
p689
S'38'
p690
tp691
a(S'MPI_Comm_rank()'
p692
S'49'
p693
tp694
a(S'MPI_Comm_rank()'
p695
S'60'
p696
tp697
a(S'MPI_Comm_rank()'
p698
S'71'
p699
tp700
a(S'MPI_Init()'
p701
S'85'
p702
tp703
asS'pp_2019_autumn/modules/task_2/silenko_d_image_smoothing/main.cpp'
p704
(lp705
(S'MPI_Comm_rank()'
p706
S'37'
p707
tp708
a(S'MPI_Comm_rank()'
p709
S'106'
p710
tp711
a(S'MPI_Comm_rank()'
p712
S'169'
p713
tp714
a(S'MPI_Comm_rank()'
p715
S'179'
p716
tp717
a(S'MPI_Init()'
p718
S'226'
p719
tp720
asS'pp_2019_autumn/modules/task_1/trenina_e_rect_integral/main.cpp'
p721
(lp722
(S'MPI_Comm_rank()'
p723
S'13'
p724
tp725
a(S'MPI_Comm_rank()'
p726
S'23'
p727
tp728
a(S'MPI_Comm_rank()'
p729
S'33'
p730
tp731
a(S'MPI_Comm_rank()'
p732
S'44'
p733
tp734
a(S'MPI_Comm_rank()'
p735
S'55'
p736
tp737
a(S'MPI_Comm_rank()'
p738
S'65'
p739
tp740
a(S'MPI_Comm_rank()'
p741
S'75'
p742
tp743
a(S'MPI_Comm_rank()'
p744
S'86'
p745
tp746
a(S'MPI_Init()'
p747
S'99'
p748
tp749
asS'pp_2019_autumn/modules/task_1/nazarov_v_matrix_sum/main.cpp'
p750
(lp751
(S'MPI_Comm_rank()'
p752
g7
tp753
a(S'MPI_Comm_rank()'
p754
S'28'
p755
tp756
a(S'MPI_Comm_rank()'
p757
S'47'
p758
tp759
a(S'MPI_Comm_rank()'
p760
S'66'
p761
tp762
a(S'MPI_Comm_rank()'
p763
S'78'
p764
tp765
a(S'MPI_Comm_rank()'
p766
S'90'
p767
tp768
a(S'MPI_Init()'
p769
S'104'
p770
tp771
asS'pp_2019_autumn/modules/task_1/savkin_y_close_values_on_vector/close_values_on_vector.cpp'
p772
(lp773
(S'MPI_Comm_size()'
p774
S'46'
p775
tp776
a(S'MPI_Comm_rank()'
p777
S'47'
p778
tp779
a(S'MPI_Send()'
p780
S'57'
p781
tp782
a(S'MPI_Recv()'
p783
S'69'
p784
tp785
a(S'MPI_Recv()'
p786
S'78'
p787
tp788
a(S'X_MPI_COMM_WORLD()'
p789
S'79'
p790
tp791
a(S'MPI_Send()'
p792
S'88'
p793
tp794
asS'pp_2019_autumn/modules/task_2/mityagina_d_reduce/main.cpp'
p795
(lp796
(S'MPI_Comm_rank()'
p797
S'62'
p798
tp799
a(S'MPI_Comm_size()'
p800
S'63'
p801
tp802
a(S'MPI_Type_contiguous()'
p803
S'70'
p804
tp805
a(S'MPI_Type_commit()'
p806
S'71'
p807
tp808
a(S'MPI_Send()'
p809
S'80'
p810
tp811
a(S'MPI_Recv()'
p812
S'82'
p813
tp814
a(S'MPI_Send()'
p815
S'95'
p816
tp817
a(S'MPI_Recv()'
p818
S'102'
p819
tp820
a(S'MPI_Reduce()'
p821
S'108'
p822
tp823
a(S'MPI_Reduce()'
p824
S'114'
p825
tp826
a(S'MPI_Reduce()'
p827
S'120'
p828
tp829
a(S'MPI_Comm_rank()'
p830
S'139'
p831
tp832
a(S'MPI_Comm_rank()'
p833
S'154'
p834
tp835
a(S'MPI_Comm_rank()'
p836
S'169'
p837
tp838
a(S'MPI_Init()'
p839
S'257'
p840
tp841
asS'pp_2019_autumn/modules/task_1/makarova_v_vector_min/vector_min.cpp'
p842
(lp843
(S'MPI_Comm_rank()'
p844
S'16'
p845
tp846
a(S'MPI_Comm_size()'
p847
S'17'
p848
tp849
a(S'MPI_Send()'
p850
S'22'
p851
tp852
a(S'X_MPI_INT()'
p853
S'24'
p854
tp855
a(S'MPI_Recv()'
p856
S'35'
p857
tp858
a(S'X_MPI_INT()'
p859
S'37'
p860
tp861
a(S'X_MPI_COMM_WORLD()'
p862
S'40'
p863
tp864
a(S'MPI_Reduce()'
p865
S'45'
p866
tp867
asS'pp_2019_autumn/modules/task_1/lembrikov_s_min_elem_vector/min_elem_vector.cpp'
p868
(lp869
(S'MPI_Comm_size()'
p870
S'47'
p871
tp872
a(S'MPI_Comm_rank()'
p873
S'48'
p874
tp875
a(S'MPI_Send()'
p876
S'60'
p877
tp878
a(S'MPI_Send()'
p879
S'66'
p880
tp881
a(S'MPI_Recv()'
p882
S'81'
p883
tp884
a(S'MPI_Reduce()'
p885
S'89'
p886
tp887
asS'pp_2019_autumn/modules/task_1/fedotov_v_mins_in_matrix_rows/mins_in_matrix_rows.cpp'
p888
(lp889
(S'MPI_Comm_size()'
p890
S'43'
p891
tp892
a(S'MPI_Comm_rank()'
p893
S'44'
p894
tp895
a(S'MPI_Send()'
p896
S'59'
p897
tp898
a(S'X_MPI_INT()'
p899
S'60'
p900
tp901
a(S'MPI_Recv()'
p902
S'71'
p903
tp904
a(S'X_MPI_INT()'
p905
S'72'
p906
tp907
a(S'MPI_Recv()'
p908
S'100'
p909
tp910
a(S'MPI_Send()'
p911
S'107'
p912
tp913
a(S'X_MPI_INT()'
p914
S'108'
p915
tp916
a(S'MPI_Comm_size()'
p917
S'135'
p918
tp919
a(S'MPI_Comm_rank()'
p920
S'136'
p921
tp922
a(S'MPI_Send()'
p923
S'148'
p924
tp925
a(S'X_MPI_INT()'
p926
S'149'
p927
tp928
a(S'MPI_Recv()'
p929
S'161'
p930
tp931
a(S'X_MPI_INT()'
p932
S'162'
p933
tp934
a(S'MPI_Recv()'
p935
S'198'
p936
tp937
a(S'MPI_Send()'
p938
S'204'
p939
tp940
a(S'X_MPI_INT()'
p941
S'205'
p942
tp943
asS'pp_2019_autumn/modules/task_1/kudryashov_n_vector_min/vector_min.cpp'
p944
(lp945
(S'MPI_Comm_size()'
p946
S'20'
p947
tp948
a(S'MPI_Comm_rank()'
p949
S'21'
p950
tp951
a(S'MPI_Reduce()'
p952
S'41'
p953
tp954
asS'pp_2019_autumn/modules/task_1/yasakova_a_min_val_in_cols_matrix/main.cpp'
p955
(lp956
(S'MPI_Comm_rank()'
p957
S'11'
p958
tp959
a(S'MPI_Comm_rank()'
p960
S'19'
p961
tp962
a(S'MPI_Comm_rank()'
p963
S'28'
p964
tp965
a(S'MPI_Comm_rank()'
p966
S'39'
p967
tp968
a(S'MPI_Comm_rank()'
p969
S'53'
p970
tp971
a(S'MPI_Comm_rank()'
p972
S'67'
p973
tp974
a(S'MPI_Comm_rank()'
p975
S'81'
p976
tp977
a(S'MPI_Comm_rank()'
p978
S'95'
p979
tp980
a(S'MPI_Init()'
p981
S'107'
p982
tp983
asS'pp_2019_autumn/modules/task_1/savosina_a_string_sum/sum_string.cpp'
p984
(lp985
(S'MPI_Comm_size()'
p986
S'37'
p987
tp988
a(S'MPI_Comm_rank()'
p989
S'38'
p990
tp991
a(S'MPI_Send()'
p992
S'44'
p993
tp994
a(S'X_MPI_CHAR()'
p995
S'45'
p996
tp997
a(S'MPI_Recv()'
p998
S'55'
p999
tp1000
a(S'MPI_Reduce()'
p1001
S'60'
p1002
tp1003
a(S'MPI_Comm_size()'
p1004
S'66'
p1005
tp1006
a(S'MPI_Comm_rank()'
p1007
S'67'
p1008
tp1009
a(S'MPI_Send()'
p1010
S'78'
p1011
tp1012
a(S'X_MPI_CHAR()'
p1013
S'79'
p1014
tp1015
a(S'MPI_Recv()'
p1016
S'89'
p1017
tp1018
a(S'MPI_Reduce()'
p1019
S'94'
p1020
tp1021
asS'pp_2019_autumn/modules/task_1/shemetov_p_sum_vector/main.cpp'
p1022
(lp1023
(S'MPI_Comm_rank()'
p1024
S'24'
p1025
tp1026
a(S'MPI_Comm_rank()'
p1027
S'37'
p1028
tp1029
a(S'MPI_Comm_rank()'
p1030
S'50'
p1031
tp1032
a(S'MPI_Comm_rank()'
p1033
S'63'
p1034
tp1035
a(S'MPI_Init()'
p1036
S'75'
p1037
tp1038
asS'pp_2019_autumn/modules/task_2/astafeva_i_mpi_reduce/main.cpp'
p1039
(lp1040
(S'MPI_Comm_rank()'
p1041
S'18'
p1042
tp1043
a(S'MPI_Comm_size()'
p1044
S'19'
p1045
tp1046
a(S'MPI_Comm_rank()'
p1047
S'38'
p1048
tp1049
a(S'MPI_Comm_size()'
p1050
S'39'
p1051
tp1052
a(S'MPI_Comm_rank()'
p1053
S'58'
p1054
tp1055
a(S'MPI_Comm_size()'
p1056
S'59'
p1057
tp1058
a(S'MPI_Comm_rank()'
p1059
S'80'
p1060
tp1061
a(S'MPI_Comm_size()'
p1062
S'81'
p1063
tp1064
a(S'MPI_Comm_rank()'
p1065
S'100'
p1066
tp1067
a(S'MPI_Comm_size()'
p1068
S'101'
p1069
tp1070
a(S'MPI_Comm_rank()'
p1071
S'120'
p1072
tp1073
a(S'MPI_Comm_size()'
p1074
S'121'
p1075
tp1076
a(S'MPI_Comm_rank()'
p1077
S'138'
p1078
tp1079
a(S'MPI_Comm_size()'
p1080
S'139'
p1081
tp1082
a(S'MPI_Comm_rank()'
p1083
S'155'
p1084
tp1085
a(S'MPI_Comm_size()'
p1086
S'156'
p1087
tp1088
a(S'MPI_Comm_rank()'
p1089
S'172'
p1090
tp1091
a(S'MPI_Comm_size()'
p1092
S'173'
p1093
tp1094
a(S'MPI_Comm_rank()'
p1095
S'189'
p1096
tp1097
a(S'MPI_Comm_size()'
p1098
S'190'
p1099
tp1100
a(S'MPI_Comm_rank()'
p1101
S'207'
p1102
tp1103
a(S'MPI_Comm_size()'
p1104
S'208'
p1105
tp1106
a(S'MPI_Reduce_User()'
p1107
S'214'
p1108
tp1109
a(S'MPI_Reduce()'
p1110
S'215'
p1111
tp1112
a(S'MPI_Comm_rank()'
p1113
S'229'
p1114
tp1115
a(S'MPI_Comm_size()'
p1116
S'230'
p1117
tp1118
a(S'MPI_Reduce_User()'
p1119
S'236'
p1120
tp1121
a(S'MPI_Reduce()'
p1122
S'237'
p1123
tp1124
a(S'MPI_Comm_rank()'
p1125
S'251'
p1126
tp1127
a(S'MPI_Comm_size()'
p1128
S'252'
p1129
tp1130
a(S'MPI_Reduce_User()'
p1131
S'258'
p1132
tp1133
a(S'MPI_Reduce()'
p1134
S'259'
p1135
tp1136
a(S'MPI_Comm_rank()'
p1137
S'273'
p1138
tp1139
a(S'MPI_Comm_size()'
p1140
S'274'
p1141
tp1142
a(S'MPI_Reduce_User()'
p1143
S'280'
p1144
tp1145
a(S'MPI_Reduce()'
p1146
S'281'
p1147
tp1148
a(S'MPI_Comm_rank()'
p1149
S'296'
p1150
tp1151
a(S'MPI_Comm_size()'
p1152
S'297'
p1153
tp1154
a(S'MPI_Reduce_User()'
p1155
S'308'
p1156
tp1157
a(S'MPI_Reduce()'
p1158
S'309'
p1159
tp1160
a(S'MPI_Comm_rank()'
p1161
S'324'
p1162
tp1163
a(S'MPI_Comm_size()'
p1164
S'325'
p1165
tp1166
a(S'MPI_Reduce_User()'
p1167
S'336'
p1168
tp1169
a(S'MPI_Reduce()'
p1170
S'337'
p1171
tp1172
a(S'MPI_Comm_rank()'
p1173
S'352'
p1174
tp1175
a(S'MPI_Comm_size()'
p1176
S'353'
p1177
tp1178
a(S'MPI_Reduce_User()'
p1179
S'364'
p1180
tp1181
a(S'MPI_Reduce()'
p1182
S'365'
p1183
tp1184
a(S'MPI_Comm_rank()'
p1185
S'380'
p1186
tp1187
a(S'MPI_Comm_size()'
p1188
S'381'
p1189
tp1190
a(S'MPI_Reduce_User()'
p1191
S'392'
p1192
tp1193
a(S'MPI_Reduce()'
p1194
S'393'
p1195
tp1196
a(S'MPI_Init()'
p1197
S'401'
p1198
tp1199
asS'pp_2019_autumn/modules/task_1/utkin_k_num_of_alternations/num_of_alternations.cpp'
p1200
(lp1201
(S'MPI_Comm_size()'
p1202
S'39'
p1203
tp1204
a(S'MPI_Comm_rank()'
p1205
S'40'
p1206
tp1207
a(S'MPI_Send()'
p1208
S'48'
p1209
tp1210
a(S'X_MPI_INT()'
p1211
S'49'
p1212
tp1213
a(S'MPI_Recv()'
p1214
S'56'
p1215
tp1216
a(S'X_MPI_COMM_WORLD()'
p1217
S'57'
p1218
tp1219
a(S'MPI_Reduce()'
p1220
S'62'
p1221
tp1222
asS'pp_2019_autumn/modules/task_1/gilenkov_a_wrong_order/main.cpp'
p1223
(lp1224
(S'MPI_Comm_rank()'
p1225
S'10'
p1226
tp1227
a(S'MPI_Comm_rank()'
p1228
S'19'
p1229
tp1230
a(S'MPI_Comm_rank()'
p1231
S'28'
p1232
tp1233
a(S'MPI_Comm_rank()'
p1234
S'37'
p1235
tp1236
a(S'MPI_Comm_rank()'
p1237
S'46'
p1238
tp1239
a(S'MPI_Comm_rank()'
p1240
S'55'
p1241
tp1242
a(S'MPI_Comm_rank()'
p1243
S'73'
p1244
tp1245
a(S'MPI_Comm_rank()'
p1246
S'91'
p1247
tp1248
a(S'MPI_Init()'
p1249
S'107'
p1250
tp1251
asS'pp_2019_autumn/modules/task_1/soboleva_j_max_in_matrix_row/main.cpp'
p1252
(lp1253
(S'MPI_Comm_rank()'
p1254
g7
tp1255
a(S'MPI_Comm_rank()'
p1256
S'21'
p1257
tp1258
a(S'MPI_Comm_rank()'
p1259
S'31'
p1260
tp1261
a(S'MPI_Comm_rank()'
p1262
S'47'
p1263
tp1264
a(S'MPI_Comm_rank()'
p1265
S'67'
p1266
tp1267
a(S'MPI_Init()'
p1268
S'86'
p1269
tp1270
asS'pp_2019_autumn/modules/task_1/nechaeva_k_count_sent_in_row/count_sent.cpp'
p1271
(lp1272
(S'MPI_Comm_size()'
p1273
S'37'
p1274
tp1275
a(S'MPI_Comm_rank()'
p1276
S'38'
p1277
tp1278
a(S'MPI_Send()'
p1279
S'46'
p1280
tp1281
a(S'X_MPI_CHAR()'
p1282
S'47'
p1283
tp1284
a(S'MPI_Recv()'
p1285
S'57'
p1286
tp1287
a(S'MPI_Reduce()'
p1288
S'62'
p1289
tp1290
asS'pp_2019_autumn/modules/task_1/golovanova_e_min_elem_matrix/main.cpp'
p1291
(lp1292
(S'MPI_Comm_rank()'
p1293
S'10'
p1294
tp1295
a(S'MPI_Comm_rank()'
p1296
S'18'
p1297
tp1298
a(S'MPI_Comm_rank()'
p1299
S'26'
p1300
tp1301
a(S'MPI_Comm_rank()'
p1302
S'39'
p1303
tp1304
a(S'MPI_Comm_rank()'
p1305
S'59'
p1306
tp1307
a(S'MPI_Init()'
p1308
S'79'
p1309
tp1310
asS'pp_2019_autumn/modules/task_1/makarikhin_max_vector_value/max_vector_value.cpp'
p1311
(lp1312
(S'MPI_Comm_size()'
p1313
S'23'
p1314
tp1315
a(S'MPI_Comm_rank()'
p1316
S'24'
p1317
tp1318
a(S'MPI_Send()'
p1319
S'38'
p1320
tp1321
a(S'MPI_Recv()'
p1322
S'49'
p1323
tp1324
a(S'MPI_Reduce()'
p1325
S'54'
p1326
tp1327
asS'pp_2019_autumn/modules/task_2/konnov_s_matrix_mult_only_hor_a/matrix_mult_only_hor_a.cpp'
p1328
(lp1329
(S'MPI_Comm_size()'
p1330
S'12'
p1331
tp1332
a(S'MPI_Comm_rank()'
p1333
S'13'
p1334
tp1335
a(S'MPI_Bcast()'
p1336
S'15'
p1337
tp1338
a(S'MPI_Send()'
p1339
S'25'
p1340
tp1341
a(S'MPI_Recv()'
p1342
S'30'
p1343
tp1344
a(S'MPI_Recv()'
p1345
S'50'
p1346
tp1347
a(S'MPI_Send()'
p1348
S'54'
p1349
tp1350
asS'pp_2019_autumn/modules/task_1/denisov_v_count_frequency_char_in_str/count_frequency_char_in_str.cpp'
p1351
(lp1352
(S'MPI_Comm_size()'
p1353
S'31'
p1354
tp1355
a(S'MPI_Comm_rank()'
p1356
S'32'
p1357
tp1358
a(S'MPI_Send()'
p1359
S'46'
p1360
tp1361
a(S'MPI_Send()'
p1362
S'47'
p1363
tp1364
a(S'MPI_Recv()'
p1365
S'63'
p1366
tp1367
a(S'MPI_Recv()'
p1368
S'64'
p1369
tp1370
a(S'MPI_Barrier()'
p1371
S'71'
p1372
tp1373
a(S'MPI_Reduce()'
p1374
S'74'
p1375
tp1376
asS'pp_2019_autumn/modules/task_1/Antipin_A_scalar_product/main.cpp'
p1377
(lp1378
(S'MPI_Comm_rank()'
p1379
S'10'
p1380
tp1381
a(S'MPI_Comm_rank()'
p1382
S'27'
p1383
tp1384
a(S'MPI_Comm_rank()'
p1385
S'37'
p1386
tp1387
a(S'MPI_Comm_rank()'
p1388
S'54'
p1389
tp1390
a(S'MPI_Comm_rank()'
p1391
S'71'
p1392
tp1393
a(S'MPI_Init()'
p1394
S'87'
p1395
tp1396
asS'pp_2019_autumn/modules/task_2/savkin_y_grid-torus_topology/main.cpp'
p1397
(lp1398
(S'MPI_Comm_rank()'
p1399
S'11'
p1400
tp1401
a(S'MPI_Comm_rank()'
p1402
S'20'
p1403
tp1404
a(S'MPI_Comm_rank()'
p1405
S'31'
p1406
tp1407
a(S'MPI_Comm_size()'
p1408
S'34'
p1409
tp1410
a(S'MPI_Dims_create()'
p1411
S'38'
p1412
tp1413
a(S'MPI_Cart_create()'
p1414
S'39'
p1415
tp1416
a(S'MPI_Comm_rank()'
p1417
S'50'
p1418
tp1419
a(S'MPI_Comm_size()'
p1420
S'53'
p1421
tp1422
a(S'MPI_Dims_create()'
p1423
S'57'
p1424
tp1425
a(S'MPI_Cart_create()'
p1426
S'58'
p1427
tp1428
a(S'MPI_Comm_rank()'
p1429
S'69'
p1430
tp1431
a(S'MPI_Comm_rank()'
p1432
S'79'
p1433
tp1434
a(S'MPI_Comm_size()'
p1435
S'80'
p1436
tp1437
a(S'MPI_Comm_rank()'
p1438
S'93'
p1439
tp1440
a(S'MPI_Comm_size()'
p1441
S'106'
p1442
tp1443
a(S'MPI_Dims_create()'
p1444
S'110'
p1445
tp1446
a(S'MPI_Cart_create()'
p1447
S'111'
p1448
tp1449
a(S'MPI_Comm_rank()'
p1450
S'114'
p1451
tp1452
a(S'MPI_Init()'
p1453
S'125'
p1454
tp1455
asS'pp_2019_autumn/modules/task_1/suslov_e_chislo_cheredovaniy/chislo_cheredovaniy.cpp'
p1456
(lp1457
(S'MPI_Comm_size()'
p1458
S'33'
p1459
tp1460
a(S'MPI_Comm_rank()'
p1461
S'34'
p1462
tp1463
a(S'MPI_Send()'
p1464
S'46'
p1465
tp1466
a(S'MPI_Recv()'
p1467
S'55'
p1468
tp1469
a(S'MPI_Send()'
p1470
S'64'
p1471
tp1472
a(S'MPI_Recv()'
p1473
S'69'
p1474
tp1475
a(S'MPI_Reduce()'
p1476
S'75'
p1477
tp1478
asS'pp_2019_autumn/modules/task_1/koroleva_d_matrix_min_in_line/main.cpp'
p1479
(lp1480
(S'MPI_Comm_rank()'
p1481
g7
tp1482
a(S'MPI_Comm_rank()'
p1483
S'23'
p1484
tp1485
a(S'MPI_Comm_rank()'
p1486
S'39'
p1487
tp1488
a(S'MPI_Comm_rank()'
p1489
S'57'
p1490
tp1491
a(S'MPI_Comm_rank()'
p1492
S'73'
p1493
tp1494
a(S'MPI_Comm_rank()'
p1495
S'92'
p1496
tp1497
a(S'MPI_Init()'
p1498
S'111'
p1499
tp1500
asS'pp_2019_autumn/modules/task_1/vedrukov_p_freq_symbol_in_a_str/freq_symb.cpp'
p1501
(lp1502
(S'MPI_Comm_size()'
p1503
S'10'
p1504
tp1505
a(S'MPI_Comm_rank()'
p1506
S'11'
p1507
tp1508
a(S'MPI_Barrier()'
p1509
S'26'
p1510
tp1511
a(S'MPI_Send()'
p1512
S'29'
p1513
tp1514
a(S'MPI_Send()'
p1515
S'32'
p1516
tp1517
a(S'MPI_Recv()'
p1518
S'35'
p1519
tp1520
a(S'MPI_Recv()'
p1521
S'41'
p1522
tp1523
a(S'MPI_Recv()'
p1524
S'50'
p1525
tp1526
a(S'MPI_Send()'
p1527
S'57'
p1528
tp1529
asS'pp_2019_autumn/modules/task_2/denisov_v_matrix_mult_horiz_schem_only_A/matrix_mult_horiz_schem_only_A.cpp'
p1530
(lp1531
(S'MPI_Comm_size()'
p1532
S'57'
p1533
tp1534
a(S'MPI_Comm_rank()'
p1535
S'58'
p1536
tp1537
a(S'MPI_Send()'
p1538
S'75'
p1539
tp1540
a(S'MPI_Recv()'
p1541
S'94'
p1542
tp1543
a(S'MPI_Barrier()'
p1544
S'125'
p1545
tp1546
a(S'MPI_Recv()'
p1547
S'131'
p1548
tp1549
a(S'MPI_Send()'
p1550
S'146'
p1551
tp1552
asS'pp_2019_autumn/modules/task_1/golubeva_a_mismatched_items/main.cpp'
p1553
(lp1554
(S'MPI_Comm_rank()'
p1555
S'11'
p1556
tp1557
a(S'MPI_Comm_rank()'
p1558
S'23'
p1559
tp1560
a(S'MPI_Comm_rank()'
p1561
S'35'
p1562
tp1563
a(S'MPI_Comm_rank()'
p1564
S'47'
p1565
tp1566
a(S'MPI_Init()'
p1567
S'64'
p1568
tp1569
asS'pp_2019_autumn/modules/task_2/savkin_y_grid-torus_topology/grid-torus_topology.cpp'
p1570
(lp1571
(S'MPI_Comm_size()'
p1572
S'8'
p1573
tp1574
a(S'MPI_Dims_create()'
p1575
S'19'
p1576
tp1577
a(S'MPI_Cart_create()'
p1578
S'24'
p1579
tp1580
a(S'MPI_Topo_test()'
p1581
S'31'
p1582
tp1583
a(S'MPI_Cartdim_get()'
p1584
S'36'
p1585
tp1586
a(S'MPI_Cart_get()'
p1587
S'43'
p1588
tp1589
a(S'MPI_Comm_rank()'
p1590
S'51'
p1591
tp1592
a(S'MPI_Cart_coords()'
p1593
S'54'
p1594
tp1595
a(S'MPI_Cart_shift()'
p1596
S'58'
p1597
tp1598
a(S'MPI_Cart_shift()'
p1599
S'62'
p1600
tp1601
a(S'MPI_Reduce()'
p1602
S'68'
p1603
tp1604
a(S'MPI_Reduce()'
p1605
S'72'
p1606
tp1607
asS'pp_2019_autumn/modules/task_1/khvatov_a_word_count/main.cpp'
p1608
(lp1609
(S'MPI_Comm_rank()'
p1610
S'11'
p1611
tp1612
a(S'MPI_Comm_rank()'
p1613
S'20'
p1614
tp1615
a(S'MPI_Comm_rank()'
p1616
S'27'
p1617
tp1618
a(S'MPI_Comm_rank()'
p1619
S'37'
p1620
tp1621
a(S'MPI_Comm_rank()'
p1622
S'45'
p1623
tp1624
a(S'MPI_Comm_rank()'
p1625
S'55'
p1626
tp1627
a(S'MPI_Comm_rank()'
p1628
S'67'
p1629
tp1630
a(S'MPI_Init()'
p1631
S'81'
p1632
tp1633
asS'pp_2019_autumn/modules/task_1/shemetov_p_sum_vector/sum_vector.cpp'
p1634
(lp1635
(S'MPI_Comm_size()'
p1636
S'53'
p1637
tp1638
a(S'MPI_Comm_rank()'
p1639
S'54'
p1640
tp1641
a(S'MPI_Send()'
p1642
S'61'
p1643
tp1644
a(S'X_MPI_INT()'
p1645
S'62'
p1646
tp1647
a(S'MPI_Recv()'
p1648
S'74'
p1649
tp1650
a(S'MPI_Reduce()'
p1651
S'84'
p1652
tp1653
a(S'X_MPI_INT()'
p1654
S'85'
p1655
tp1656
asS'pp_2019_autumn/modules/task_1/lembrikov_s_min_elem_vector/main.cpp'
p1657
(lp1658
(S'MPI_Comm_rank()'
p1659
g7
tp1660
a(S'MPI_Comm_rank()'
p1661
S'30'
p1662
tp1663
a(S'MPI_Comm_rank()'
p1664
S'44'
p1665
tp1666
a(S'MPI_Comm_rank()'
p1667
S'55'
p1668
tp1669
a(S'MPI_Comm_rank()'
p1670
S'65'
p1671
tp1672
a(S'MPI_Comm_rank()'
p1673
S'76'
p1674
tp1675
a(S'MPI_Comm_rank()'
p1676
S'86'
p1677
tp1678
a(S'MPI_Comm_rank()'
p1679
S'97'
p1680
tp1681
a(S'MPI_Comm_rank()'
p1682
S'107'
p1683
tp1684
a(S'MPI_Comm_rank()'
p1685
S'118'
p1686
tp1687
a(S'MPI_Init()'
p1688
S'127'
p1689
tp1690
asS'pp_2019_autumn/modules/task_1/karin_rect_int/rec_int.cpp'
p1691
(lp1692
(S'MPI_Comm_rank()'
p1693
S'34'
p1694
tp1695
a(S'MPI_Comm_size()'
p1696
S'35'
p1697
tp1698
a(S'MPI_Reduce()'
p1699
S'44'
p1700
tp1701
asS'pp_2019_autumn/modules/task_1/kolesova_k_close_value_vector/close_value_vector.cpp'
p1702
(lp1703
(S'MPI_Comm_size()'
p1704
S'37'
p1705
tp1706
a(S'MPI_Comm_rank()'
p1707
S'38'
p1708
tp1709
a(S'MPI_Send()'
p1710
S'48'
p1711
tp1712
a(S'MPI_Recv()'
p1713
S'53'
p1714
tp1715
a(S'MPI_Send()'
p1716
S'55'
p1717
tp1718
a(S'MPI_Recv()'
p1719
S'64'
p1720
tp1721
asS'pp_2019_autumn/modules/task_1/ostapovich_d_max_elem_vector/max_elem_vector.cpp'
p1722
(lp1723
(S'MPI_Comm_rank()'
p1724
S'47'
p1725
tp1726
a(S'MPI_Comm_size()'
p1727
S'49'
p1728
tp1729
a(S'MPI_Send()'
p1730
S'55'
p1731
tp1732
a(S'MPI_Recv()'
p1733
S'64'
p1734
tp1735
a(S'MPI_Reduce()'
p1736
S'69'
p1737
tp1738
asS'pp_2019_autumn/modules/task_1/vedrukov_p_freq_symbol_in_a_str/main.cpp'
p1739
(lp1740
(S'MPI_Comm_rank()'
p1741
S'10'
p1742
tp1743
a(S'MPI_Comm_rank()'
p1744
S'21'
p1745
tp1746
a(S'MPI_Comm_rank()'
p1747
S'32'
p1748
tp1749
a(S'MPI_Comm_rank()'
p1750
S'43'
p1751
tp1752
a(S'MPI_Comm_rank()'
p1753
S'54'
p1754
tp1755
a(S'MPI_Init()'
p1756
S'65'
p1757
tp1758
asS'pp_2019_autumn/modules/task_1/babushkin_a_word_count/word_count.cpp'
p1759
(lp1760
(S'MPI_Comm_size()'
p1761
S'17'
p1762
tp1763
a(S'MPI_Comm_rank()'
p1764
S'18'
p1765
tp1766
a(S'MPI_Bcast()'
p1767
S'30'
p1768
tp1769
a(S'MPI_Bcast()'
p1770
S'31'
p1771
tp1772
a(S'MPI_Barrier()'
p1773
S'33'
p1774
tp1775
a(S'MPI_Send()'
p1776
S'39'
p1777
tp1778
a(S'X_MPI_CHAR()'
p1779
S'41'
p1780
tp1781
a(S'MPI_Recv()'
p1782
S'54'
p1783
tp1784
a(S'X_MPI_CHAR()'
p1785
S'56'
p1786
tp1787
a(S'X_MPI_COMM_WORLD()'
p1788
S'59'
p1789
tp1790
a(S'MPI_Barrier()'
p1791
S'68'
p1792
tp1793
a(S'MPI_Reduce()'
p1794
S'70'
p1795
tp1796
a(S'X_MPI_INT()'
p1797
S'73'
p1798
tp1799
a(S'X_MPI_SUM()'
p1800
S'74'
p1801
tp1802
asS'pp_2019_autumn/modules/task_1/evdokimov_a_integration_monte_carlo/main.cpp'
p1803
(lp1804
(S'MPI_Comm_rank()'
p1805
S'24'
p1806
tp1807
a(S'MPI_Comm_rank()'
p1808
S'43'
p1809
tp1810
a(S'MPI_Comm_rank()'
p1811
S'64'
p1812
tp1813
a(S'MPI_Init()'
p1814
S'96'
p1815
tp1816
asS'pp_2019_autumn/modules/task_1/rezantsev_s_min_matrix/min_matrix.cpp'
p1817
(lp1818
(S'MPI_Comm_size()'
p1819
S'38'
p1820
tp1821
a(S'MPI_Comm_rank()'
p1822
S'39'
p1823
tp1824
a(S'MPI_Send()'
p1825
S'48'
p1826
tp1827
a(S'MPI_Recv()'
p1828
S'62'
p1829
tp1830
a(S'MPI_Send()'
p1831
S'65'
p1832
tp1833
a(S'MPI_Recv()'
p1834
S'70'
p1835
tp1836
asS'pp_2019_autumn/modules/task_1/myshkin_a_min_matrix/main.cpp'
p1837
(lp1838
(S'MPI_Comm_rank()'
p1839
S'11'
p1840
tp1841
a(S'MPI_Comm_rank()'
p1842
S'32'
p1843
tp1844
a(S'MPI_Comm_rank()'
p1845
S'50'
p1846
tp1847
a(S'MPI_Comm_rank()'
p1848
S'63'
p1849
tp1850
a(S'MPI_Comm_rank()'
p1851
S'81'
p1852
tp1853
a(S'MPI_Comm_rank()'
p1854
S'105'
p1855
tp1856
a(S'MPI_Init()'
p1857
S'124'
p1858
tp1859
asS'pp_2019_autumn/modules/task_1/isaev_columns_max/max_columns.cpp'
p1860
(lp1861
(S'MPI_Comm_size()'
p1862
S'27'
p1863
tp1864
a(S'MPI_Comm_rank()'
p1865
S'28'
p1866
tp1867
a(S'MPI_Send()'
p1868
S'37'
p1869
tp1870
a(S'MPI_Recv()'
p1871
S'41'
p1872
tp1873
a(S'MPI_Send()'
p1874
S'51'
p1875
tp1876
a(S'MPI_Recv()'
p1877
S'56'
p1878
tp1879
a(S'MPI_Recv()'
p1880
S'73'
p1881
tp1882
a(S'MPI_Send()'
p1883
S'84'
p1884
tp1885
asS'pp_2019_autumn/modules/task_2/golubev_v_method_of_Seidel/main.cpp'
p1886
(lp1887
(S'MPI_Comm_rank()'
p1888
S'50'
p1889
tp1890
a(S'MPI_Comm_rank()'
p1891
S'81'
p1892
tp1893
a(S'MPI_Comm_rank()'
p1894
S'119'
p1895
tp1896
a(S'MPI_Init()'
p1897
S'143'
p1898
tp1899
asS'pp_2019_autumn/modules/task_2/nechaeva_e_scatter_fun/main.cpp'
p1900
(lp1901
(S'MPI_Comm_size()'
p1902
S'12'
p1903
tp1904
a(S'MPI_Comm_rank()'
p1905
S'13'
p1906
tp1907
a(S'MPI_Scatter()'
p1908
S'29'
p1909
tp1910
a(S'MPI_Gather()'
p1911
S'31'
p1912
tp1913
a(S'MPI_Gather()'
p1914
S'33'
p1915
tp1916
a(S'MPI_Comm_size()'
p1917
S'44'
p1918
tp1919
a(S'MPI_Comm_rank()'
p1920
S'45'
p1921
tp1922
a(S'MPI_Scatter()'
p1923
S'61'
p1924
tp1925
a(S'MPI_Gather()'
p1926
S'63'
p1927
tp1928
a(S'MPI_Gather()'
p1929
S'65'
p1930
tp1931
a(S'X_MPI_INT()'
p1932
S'81'
p1933
tp1934
a(S'MPI_Comm_size()'
p1935
S'88'
p1936
tp1937
a(S'MPI_Comm_rank()'
p1938
S'89'
p1939
tp1940
a(S'MPI_Scatter()'
p1941
S'105'
p1942
tp1943
a(S'MPI_Gather()'
p1944
S'107'
p1945
tp1946
a(S'MPI_Gather()'
p1947
S'109'
p1948
tp1949
a(S'MPI_Comm_size()'
p1950
S'119'
p1951
tp1952
a(S'MPI_Comm_rank()'
p1953
S'120'
p1954
tp1955
a(S'MPI_Scatter()'
p1956
S'136'
p1957
tp1958
a(S'MPI_Gather()'
p1959
S'138'
p1960
tp1961
a(S'MPI_Gather()'
p1962
S'140'
p1963
tp1964
a(S'MPI_Comm_size()'
p1965
S'150'
p1966
tp1967
a(S'MPI_Comm_rank()'
p1968
S'151'
p1969
tp1970
a(S'MPI_Scatter()'
p1971
S'167'
p1972
tp1973
a(S'MPI_Gather()'
p1974
S'169'
p1975
tp1976
a(S'MPI_Gather()'
p1977
S'171'
p1978
tp1979
a(S'MPI_Init()'
p1980
S'181'
p1981
tp1982
asS'pp_2019_autumn/modules/task_2/devlikamov_v_broadcast/devlikamov_v_broadcast.cpp'
p1983
(lp1984
(S'MPI_Comm_rank()'
p1985
g7
tp1986
a(S'MPI_Comm_size()'
p1987
S'11'
p1988
tp1989
a(S'MPI_Send()'
p1990
S'16'
p1991
tp1992
a(S'MPI_Recv()'
p1993
S'20'
p1994
tp1995
a(S'MPI_Comm_rank()'
p1996
S'32'
p1997
tp1998
a(S'MPI_Comm_size()'
p1999
S'34'
p2000
tp2001
a(S'MPI_Send()'
p2002
S'38'
p2003
tp2004
a(S'MPI_Recv()'
p2005
S'40'
p2006
tp2007
asS'pp_2019_autumn/modules/task_1/andronov_m_min_column_matrix/main.cpp'
p2008
(lp2009
(S'MPI_Comm_rank()'
p2010
g7
tp2011
a(S'MPI_Comm_rank()'
p2012
S'20'
p2013
tp2014
a(S'MPI_Comm_rank()'
p2015
S'31'
p2016
tp2017
a(S'MPI_Comm_rank()'
p2018
S'44'
p2019
tp2020
a(S'MPI_Comm_rank()'
p2021
S'66'
p2022
tp2023
a(S'MPI_Comm_rank()'
p2024
S'89'
p2025
tp2026
a(S'MPI_Comm_rank()'
p2027
S'117'
p2028
tp2029
a(S'MPI_Comm_rank()'
p2030
S'135'
p2031
tp2032
a(S'MPI_Comm_rank()'
p2033
S'153'
p2034
tp2035
a(S'MPI_Comm_rank()'
p2036
S'171'
p2037
tp2038
a(S'MPI_Comm_rank()'
p2039
S'189'
p2040
tp2041
a(S'MPI_Init()'
p2042
S'209'
p2043
tp2044
asS'pp_2019_autumn/modules/task_1/koltyushkina_ya_num_of_elem/num_of_elem.cpp'
p2045
(lp2046
(S'MPI_Comm_size()'
p2047
S'33'
p2048
tp2049
a(S'MPI_Comm_rank()'
p2050
S'34'
p2051
tp2052
a(S'MPI_Send()'
p2053
S'41'
p2054
tp2055
a(S'X_MPI_CHAR()'
p2056
S'42'
p2057
tp2058
a(S'MPI_Recv()'
p2059
S'51'
p2060
tp2061
a(S'MPI_Reduce()'
p2062
S'60'
p2063
tp2064
asS'pp_2019_autumn/modules/task_1/suslov_e_chislo_cheredovaniy/main.cpp'
p2065
(lp2066
(S'MPI_Comm_rank()'
p2067
g7
tp2068
a(S'MPI_Comm_rank()'
p2069
S'19'
p2070
tp2071
a(S'MPI_Comm_rank()'
p2072
S'29'
p2073
tp2074
a(S'MPI_Comm_rank()'
p2075
S'39'
p2076
tp2077
a(S'MPI_Comm_rank()'
p2078
S'49'
p2079
tp2080
a(S'MPI_Comm_rank()'
p2081
S'59'
p2082
tp2083
a(S'MPI_Comm_rank()'
p2084
S'75'
p2085
tp2086
a(S'MPI_Comm_rank()'
p2087
S'92'
p2088
tp2089
a(S'MPI_Init()'
p2090
S'108'
p2091
tp2092
asS'pp_2019_autumn/modules/task_1/sokolov_a_vector_mid_value/vector_mid_value.cpp'
p2093
(lp2094
(S'MPI_Comm_size()'
p2095
S'27'
p2096
tp2097
a(S'MPI_Comm_rank()'
p2098
S'28'
p2099
tp2100
a(S'MPI_Send()'
p2101
S'42'
p2102
tp2103
a(S'MPI_Recv()'
p2104
S'49'
p2105
tp2106
a(S'MPI_Reduce()'
p2107
S'56'
p2108
tp2109
asS'pp_2019_autumn/modules/task_1/koroleva_d_matrix_min_in_line/matrix_min_in_line.cpp'
p2110
(lp2111
(S'MPI_Comm_size()'
p2112
S'44'
p2113
tp2114
a(S'MPI_Comm_rank()'
p2115
S'45'
p2116
tp2117
a(S'MPI_Send()'
p2118
S'64'
p2119
tp2120
a(S'X_MPI_INT()'
p2121
S'65'
p2122
tp2123
a(S'MPI_Recv()'
p2124
S'75'
p2125
tp2126
a(S'X_MPI_INT()'
p2127
S'76'
p2128
tp2129
a(S'MPI_Send()'
p2130
S'82'
p2131
tp2132
a(S'X_MPI_INT()'
p2133
S'83'
p2134
tp2135
a(S'MPI_Recv()'
p2136
S'92'
p2137
tp2138
a(S'X_MPI_INT()'
p2139
S'93'
p2140
tp2141
asS'pp_2019_autumn/modules/task_1/gribanov_m_vector_difference/vector_difference.cpp'
p2142
(lp2143
(S'MPI_Comm_size()'
p2144
S'34'
p2145
tp2146
a(S'MPI_Comm_rank()'
p2147
S'35'
p2148
tp2149
a(S'MPI_Send()'
p2150
S'44'
p2151
tp2152
a(S'MPI_Recv()'
p2153
S'51'
p2154
tp2155
a(S'MPI_Send()'
p2156
S'53'
p2157
tp2158
a(S'MPI_Recv()'
p2159
S'64'
p2160
tp2161
asS'pp_2019_autumn/modules/task_1/iamshchikov_i_columns_min/columns_min.cpp'
p2162
(lp2163
(S'MPI_Comm_size()'
p2164
S'113'
p2165
tp2166
a(S'MPI_Comm_rank()'
p2167
S'114'
p2168
tp2169
a(S'MPI_Comm_group()'
p2170
S'121'
p2171
tp2172
a(S'MPI_Group_incl()'
p2173
S'124'
p2174
tp2175
a(S'MPI_Comm_create()'
p2176
S'126'
p2177
tp2178
a(S'MPI_Scatterv()'
p2179
S'132'
p2180
tp2181
a(S'MPI_Gatherv()'
p2182
S'138'
p2183
tp2184
a(S'X_MPI_INT()'
p2185
S'140'
p2186
tp2187
asS'pp_2019_autumn/modules/task_1/Antipin_A_scalar_product/scalar_product.cpp'
p2188
(lp2189
(S'MPI_Comm_size()'
p2190
S'35'
p2191
tp2192
a(S'MPI_Comm_rank()'
p2193
S'38'
p2194
tp2195
a(S'MPI_Send()'
p2196
S'44'
p2197
tp2198
a(S'MPI_Send()'
p2199
S'45'
p2200
tp2201
a(S'MPI_Send()'
p2202
S'47'
p2203
tp2204
a(S'MPI_Send()'
p2205
S'48'
p2206
tp2207
a(S'MPI_Recv()'
p2208
S'65'
p2209
tp2210
a(S'MPI_Recv()'
p2211
S'66'
p2212
tp2213
a(S'MPI_Recv()'
p2214
S'69'
p2215
tp2216
a(S'MPI_Recv()'
p2217
S'70'
p2218
tp2219
a(S'MPI_Reduce()'
p2220
S'83'
p2221
tp2222
asS'pp_2019_autumn/modules/task_1/korobeinikov_a_max_in_matrix/max_in_matrix.cpp'
p2223
(lp2224
(S'MPI_Comm_size()'
p2225
S'37'
p2226
tp2227
a(S'MPI_Comm_rank()'
p2228
S'38'
p2229
tp2230
a(S'MPI_Send()'
p2231
S'51'
p2232
tp2233
a(S'X_MPI_INT()'
p2234
S'52'
p2235
tp2236
a(S'MPI_Recv()'
p2237
S'60'
p2238
tp2239
a(S'X_MPI_COMM_WORLD()'
p2240
S'61'
p2241
tp2242
a(S'MPI_Recv()'
p2243
S'75'
p2244
tp2245
a(S'X_MPI_COMM_WORLD()'
p2246
S'76'
p2247
tp2248
a(S'MPI_Send()'
p2249
S'89'
p2250
tp2251
asS'pp_2019_autumn/modules/task_1/kriukov_d_monte_karlo_integration/monte_carlo_integration.cpp'
p2252
(lp2253
(S'MPI_Comm_size()'
p2254
S'18'
p2255
tp2256
a(S'MPI_Comm_rank()'
p2257
S'19'
p2258
tp2259
a(S'MPI_Reduce()'
p2260
S'29'
p2261
tp2262
asS'pp_2019_autumn/modules/task_2/silenko_d_image_smoothing/image_smoothing.cpp'
p2263
(lp2264
(S'MPI_Comm_size()'
p2265
S'31'
p2266
tp2267
a(S'MPI_Comm_rank()'
p2268
S'32'
p2269
tp2270
a(S'MPI_Recv()'
p2271
S'142'
p2272
tp2273
a(S'MPI_Send()'
p2274
S'163'
p2275
tp2276
asS'pp_2019_autumn/modules/task_1/makarova_v_vector_min/main.cpp'
p2277
(lp2278
(S'MPI_Comm_rank()'
p2279
S'13'
p2280
tp2281
a(S'MPI_Comm_rank()'
p2282
S'30'
p2283
tp2284
a(S'MPI_Comm_rank()'
p2285
S'47'
p2286
tp2287
a(S'MPI_Comm_rank()'
p2288
S'64'
p2289
tp2290
a(S'MPI_Comm_rank()'
p2291
S'74'
p2292
tp2293
a(S'MPI_Init()'
p2294
S'91'
p2295
tp2296
asS'pp_2019_autumn/modules/task_2/iamshchikov_i_tor_net_topology/main.cpp'
p2297
(lp2298
(S'MPI_Comm_rank()'
p2299
S'18'
p2300
tp2301
a(S'MPI_Comm_size()'
p2302
S'29'
p2303
tp2304
a(S'MPI_Comm_size()'
p2305
S'40'
p2306
tp2307
a(S'MPI_Dims_create()'
p2308
S'41'
p2309
tp2310
a(S'MPI_Comm_size()'
p2311
S'50'
p2312
tp2313
a(S'MPI_Dims_create()'
p2314
S'51'
p2315
tp2316
a(S'MPI_Topo_test()'
p2317
S'54'
p2318
tp2319
a(S'MPI_Comm_size()'
p2320
S'63'
p2321
tp2322
a(S'MPI_Dims_create()'
p2323
S'64'
p2324
tp2325
a(S'MPI_Comm_size()'
p2326
S'74'
p2327
tp2328
a(S'MPI_Dims_create()'
p2329
S'75'
p2330
tp2331
a(S'MPI_Comm_size()'
p2332
S'77'
p2333
tp2334
a(S'MPI_Comm_size()'
p2335
S'86'
p2336
tp2337
a(S'MPI_Dims_create()'
p2338
S'87'
p2339
tp2340
a(S'MPI_Comm_size()'
p2341
S'98'
p2342
tp2343
a(S'MPI_Dims_create()'
p2344
S'99'
p2345
tp2346
a(S'MPI_Comm_size()'
p2347
S'115'
p2348
tp2349
a(S'MPI_Comm_size()'
p2350
S'120'
p2351
tp2352
a(S'MPI_Dims_create()'
p2353
S'121'
p2354
tp2355
a(S'MPI_Comm_rank()'
p2356
S'123'
p2357
tp2358
a(S'MPI_Init()'
p2359
S'133'
p2360
tp2361
asS'pp_2019_autumn/modules/task_1/evdokimov_a_integration_monte_carlo/integration_monte_carlo.cpp'
p2362
(lp2363
(S'MPI_Comm_size()'
p2364
S'12'
p2365
tp2366
a(S'MPI_Comm_rank()'
p2367
S'13'
p2368
tp2369
a(S'MPI_Reduce()'
p2370
S'45'
p2371
tp2372
a(S'X_MPI_DOUBLE()'
p2373
S'46'
p2374
tp2375
asS'pp_2019_autumn/modules/task_1/arisova_a_rectangle_integration/main.cpp'
p2376
(lp2377
(S'MPI_Comm_rank()'
p2378
S'51'
p2379
tp2380
a(S'MPI_Comm_rank()'
p2381
S'74'
p2382
tp2383
a(S'MPI_Comm_rank()'
p2384
S'97'
p2385
tp2386
a(S'MPI_Comm_rank()'
p2387
S'120'
p2388
tp2389
a(S'MPI_Init()'
p2390
S'143'
p2391
tp2392
asS'pp_2019_autumn/modules/task_1/kornev_n_most_different_vector_elements/main.cpp'
p2393
(lp2394
(S'MPI_Comm_rank()'
p2395
S'11'
p2396
tp2397
a(S'MPI_Comm_rank()'
p2398
S'28'
p2399
tp2400
a(S'MPI_Comm_rank()'
p2401
S'44'
p2402
tp2403
a(S'MPI_Comm_rank()'
p2404
S'61'
p2405
tp2406
a(S'MPI_Comm_rank()'
p2407
S'77'
p2408
tp2409
a(S'MPI_Init()'
p2410
S'92'
p2411
tp2412
asS'pp_2019_autumn/modules/task_2/iamshchikov_i_tor_net_topology/tor_net_topology.cpp'
p2413
(lp2414
(S'MPI_Comm_size()'
p2415
S'16'
p2416
tp2417
a(S'MPI_Cart_create()'
p2418
S'25'
p2419
tp2420
a(S'MPI_Cart_coords()'
p2421
S'37'
p2422
tp2423
a(S'MPI_Cart_coords()'
p2424
S'38'
p2425
tp2426
a(S'MPI_Comm_size()'
p2427
S'54'
p2428
tp2429
a(S'MPI_Cartdim_get()'
p2430
S'56'
p2431
tp2432
asS'pp_2019_autumn/modules/task_1/isaev_columns_max/main.cpp'
p2433
(lp2434
(S'MPI_Comm_rank()'
p2435
g7
tp2436
a(S'MPI_Comm_rank()'
p2437
S'17'
p2438
tp2439
a(S'MPI_Comm_rank()'
p2440
S'32'
p2441
tp2442
a(S'MPI_Comm_rank()'
p2443
S'49'
p2444
tp2445
a(S'MPI_Comm_rank()'
p2446
S'59'
p2447
tp2448
a(S'MPI_Comm_rank()'
p2449
S'69'
p2450
tp2451
a(S'MPI_Init()'
p2452
S'79'
p2453
tp2454
asS'pp_2019_autumn/modules/task_1/kurakin_m_count_diff_ch/main.cpp'
p2455
(lp2456
(S'MPI_Comm_rank()'
p2457
S'12'
p2458
tp2459
a(S'MPI_Comm_rank()'
p2460
S'23'
p2461
tp2462
a(S'MPI_Comm_rank()'
p2463
S'34'
p2464
tp2465
a(S'MPI_Comm_rank()'
p2466
S'46'
p2467
tp2468
a(S'MPI_Comm_rank()'
p2469
S'62'
p2470
tp2471
a(S'MPI_Init()'
p2472
S'80'
p2473
tp2474
asS'pp_2019_autumn/3rdparty/gtest-mpi/linux/gtest-mpi-listener.hpp'
p2475
(lp2476
(S'MPI_Comm_dup()'
p2477
S'116'
p2478
tp2479
a(S'MPI_Comm_dup()'
p2480
S'132'
p2481
tp2482
a(S'MPI_Comm_dup()'
p2483
S'148'
p2484
tp2485
a(S'MPI_Comm_free()'
p2486
S'159'
p2487
tp2488
a(S'MPI_Gather()'
p2489
S'185'
p2490
tp2491
a(S'MPI_Send()'
p2492
S'202'
p2493
tp2494
a(S'MPI_Send()'
p2495
S'203'
p2496
tp2497
a(S'MPI_Send()'
p2498
S'204'
p2499
tp2500
a(S'MPI_Send()'
p2501
S'205'
p2502
tp2503
a(S'MPI_Send()'
p2504
S'206'
p2505
tp2506
a(S'MPI_Send()'
p2507
S'208'
p2508
tp2509
a(S'MPI_Recv()'
p2510
S'228'
p2511
tp2512
a(S'MPI_Recv()'
p2513
S'229'
p2514
tp2515
a(S'MPI_Recv()'
p2516
S'231'
p2517
tp2518
a(S'MPI_Recv()'
p2519
S'233'
p2520
tp2521
a(S'MPI_Recv()'
p2522
S'240'
p2523
tp2524
a(S'X_MPI_CHAR()'
p2525
S'241'
p2526
tp2527
a(S'MPI_Recv()'
p2528
S'242'
p2529
tp2530
a(S'X_MPI_CHAR()'
p2531
S'243'
p2532
tp2533
a(S'MPI_Comm_rank()'
p2534
S'270'
p2535
tp2536
a(S'MPI_Comm_size()'
p2537
S'272'
p2538
tp2539
asS'pp_2019_autumn/modules/task_1/tihomirova_m_trapezoid_integration/main.cpp'
p2540
(lp2541
(S'MPI_Comm_rank()'
p2542
S'20'
p2543
tp2544
a(S'MPI_Comm_rank()'
p2545
S'29'
p2546
tp2547
a(S'MPI_Comm_rank()'
p2548
S'38'
p2549
tp2550
a(S'MPI_Comm_rank()'
p2551
S'47'
p2552
tp2553
a(S'MPI_Init()'
p2554
S'56'
p2555
tp2556
asS'pp_2019_autumn/modules/task_2/guschin_a_scatter/main.cpp'
p2557
(lp2558
(S'MPI_Comm_rank()'
p2559
S'10'
p2560
tp2561
a(S'MPI_Comm_size()'
p2562
S'11'
p2563
tp2564
a(S'MPI_Comm_rank()'
p2565
S'20'
p2566
tp2567
a(S'MPI_Comm_size()'
p2568
S'21'
p2569
tp2570
a(S'MPI_Scatter_custom()'
p2571
S'28'
p2572
tp2573
a(S'MPI_Gather()'
p2574
S'30'
p2575
tp2576
a(S'MPI_Comm_rank()'
p2577
S'39'
p2578
tp2579
a(S'MPI_Comm_size()'
p2580
S'40'
p2581
tp2582
a(S'MPI_Scatter_custom()'
p2583
S'47'
p2584
tp2585
a(S'MPI_Gather()'
p2586
S'49'
p2587
tp2588
a(S'MPI_Comm_rank()'
p2589
S'58'
p2590
tp2591
a(S'MPI_Comm_size()'
p2592
S'59'
p2593
tp2594
a(S'MPI_Scatter_custom()'
p2595
S'67'
p2596
tp2597
a(S'MPI_Gather()'
p2598
S'69'
p2599
tp2600
a(S'MPI_Scatter()'
p2601
S'71'
p2602
tp2603
a(S'MPI_Gather()'
p2604
S'73'
p2605
tp2606
a(S'MPI_Comm_rank()'
p2607
S'82'
p2608
tp2609
a(S'MPI_Comm_size()'
p2610
S'83'
p2611
tp2612
a(S'MPI_Scatter_custom()'
p2613
S'90'
p2614
tp2615
a(S'MPI_Gather()'
p2616
S'92'
p2617
tp2618
a(S'MPI_Init()'
p2619
S'101'
p2620
tp2621
asS'pp_2019_autumn/modules/task_1/astafeva_i_max_val_in_row/max_val_in_row.cpp'
p2622
(lp2623
(S'MPI_Comm_size()'
p2624
S'42'
p2625
tp2626
a(S'MPI_Comm_rank()'
p2627
S'43'
p2628
tp2629
a(S'MPI_Send()'
p2630
S'61'
p2631
tp2632
a(S'MPI_Send()'
p2633
S'67'
p2634
tp2635
a(S'MPI_Recv()'
p2636
S'100'
p2637
tp2638
a(S'MPI_Gatherv()'
p2639
S'106'
p2640
tp2641
asS'pp_2019_autumn/modules/task_1/nechaeva_k_count_sent_in_row/main.cpp'
p2642
(lp2643
(S'MPI_Comm_rank()'
p2644
S'20'
p2645
tp2646
a(S'MPI_Comm_rank()'
p2647
S'33'
p2648
tp2649
a(S'MPI_Comm_rank()'
p2650
S'43'
p2651
tp2652
a(S'MPI_Init()'
p2653
S'59'
p2654
tp2655
asS'pp_2019_autumn/modules/task_2/andronov_m_ring_topology/ring_topology.cpp'
p2656
(lp2657
(S'MPI_Comm_size()'
p2658
S'10'
p2659
tp2660
a(S'MPI_Cart_create()'
p2661
S'13'
p2662
tp2663
a(S'MPI_Topo_test()'
p2664
S'20'
p2665
tp2666
a(S'MPI_Cartdim_get()'
p2667
S'25'
p2668
tp2669
a(S'MPI_Cart_get()'
p2670
S'30'
p2671
tp2672
a(S'MPI_Comm_size()'
p2673
S'40'
p2674
tp2675
a(S'MPI_Comm_rank()'
p2676
S'41'
p2677
tp2678
a(S'MPI_Cart_shift()'
p2679
S'55'
p2680
tp2681
a(S'MPI_Send()'
p2682
S'58'
p2683
tp2684
a(S'MPI_Recv()'
p2685
S'61'
p2686
tp2687
a(S'MPI_Recv()'
p2688
S'66'
p2689
tp2690
a(S'MPI_Send()'
p2691
S'67'
p2692
tp2693
asS'pp_2019_autumn/modules/task_1/kondrina_t_matrix_rows_sum/matrix_rows_sum.cpp'
p2694
(lp2695
(S'MPI_Comm_rank()'
p2696
S'25'
p2697
tp2698
a(S'MPI_Comm_size()'
p2699
S'26'
p2700
tp2701
a(S'MPI_Send()'
p2702
S'35'
p2703
tp2704
a(S'X_MPI_INT()'
p2705
S'37'
p2706
tp2707
a(S'MPI_Recv()'
p2708
S'50'
p2709
tp2710
a(S'X_MPI_INT()'
p2711
S'52'
p2712
tp2713
a(S'X_MPI_COMM_WORLD()'
p2714
S'55'
p2715
tp2716
a(S'MPI_Barrier()'
p2717
S'61'
p2718
tp2719
a(S'MPI_Reduce()'
p2720
S'62'
p2721
tp2722
a(S'X_MPI_INT()'
p2723
S'65'
p2724
tp2725
a(S'X_MPI_SUM()'
p2726
S'66'
p2727
tp2728
asS'pp_2019_autumn/3rdparty/gtest-mpi/win/gtest-mpi-listener.hpp'
p2729
(lp2730
(S'MPI_Comm_dup()'
p2731
S'116'
p2732
tp2733
a(S'MPI_Comm_dup()'
p2734
S'132'
p2735
tp2736
a(S'MPI_Comm_dup()'
p2737
S'148'
p2738
tp2739
a(S'MPI_Comm_free()'
p2740
S'159'
p2741
tp2742
a(S'MPI_Gather()'
p2743
S'185'
p2744
tp2745
a(S'MPI_Send()'
p2746
S'202'
p2747
tp2748
a(S'MPI_Send()'
p2749
S'203'
p2750
tp2751
a(S'MPI_Send()'
p2752
S'204'
p2753
tp2754
a(S'MPI_Send()'
p2755
S'205'
p2756
tp2757
a(S'MPI_Send()'
p2758
S'206'
p2759
tp2760
a(S'MPI_Send()'
p2761
S'208'
p2762
tp2763
a(S'MPI_Recv()'
p2764
S'228'
p2765
tp2766
a(S'MPI_Recv()'
p2767
S'229'
p2768
tp2769
a(S'MPI_Recv()'
p2770
S'231'
p2771
tp2772
a(S'MPI_Recv()'
p2773
S'233'
p2774
tp2775
a(S'MPI_Recv()'
p2776
S'240'
p2777
tp2778
a(S'X_MPI_CHAR()'
p2779
S'241'
p2780
tp2781
a(S'MPI_Recv()'
p2782
S'242'
p2783
tp2784
a(S'X_MPI_CHAR()'
p2785
S'243'
p2786
tp2787
a(S'MPI_Comm_rank()'
p2788
S'270'
p2789
tp2790
a(S'MPI_Comm_size()'
p2791
S'272'
p2792
tp2793
asS'pp_2019_autumn/modules/task_2/denisov_v_matrix_mult_horiz_schem_only_A/main.cpp'
p2794
(lp2795
(S'MPI_Comm_rank()'
p2796
g7
tp2797
a(S'MPI_Comm_rank()'
p2798
S'18'
p2799
tp2800
a(S'MPI_Comm_rank()'
p2801
S'30'
p2802
tp2803
a(S'MPI_Comm_rank()'
p2804
S'42'
p2805
tp2806
a(S'MPI_Comm_rank()'
p2807
S'54'
p2808
tp2809
a(S'MPI_Comm_rank()'
p2810
S'66'
p2811
tp2812
a(S'MPI_Comm_rank()'
p2813
S'96'
p2814
tp2815
a(S'MPI_Comm_rank()'
p2816
S'116'
p2817
tp2818
a(S'MPI_Init()'
p2819
S'138'
p2820
tp2821
asS'pp_2019_autumn/modules/task_2/mityagina_d_reduce/reduce.cpp'
p2822
(lp2823
(S'MPI_Comm_rank()'
p2824
S'22'
p2825
tp2826
a(S'MPI_Comm_size()'
p2827
S'23'
p2828
tp2829
a(S'MPI_Send()'
p2830
S'32'
p2831
tp2832
a(S'MPI_Recv()'
p2833
S'37'
p2834
tp2835
a(S'MPI_Type_size()'
p2836
S'47'
p2837
tp2838
asS'pp_2019_autumn/modules/task_1/fedotov_v_mins_in_matrix_rows/main.cpp'
p2839
(lp2840
(S'MPI_Comm_rank()'
p2841
S'11'
p2842
tp2843
a(S'MPI_Comm_rank()'
p2844
S'22'
p2845
tp2846
a(S'MPI_Comm_rank()'
p2847
S'33'
p2848
tp2849
a(S'MPI_Comm_rank()'
p2850
S'46'
p2851
tp2852
a(S'MPI_Comm_rank()'
p2853
S'58'
p2854
tp2855
a(S'MPI_Comm_rank()'
p2856
S'70'
p2857
tp2858
a(S'MPI_Comm_rank()'
p2859
S'84'
p2860
tp2861
a(S'MPI_Comm_rank()'
p2862
S'100'
p2863
tp2864
a(S'MPI_Comm_rank()'
p2865
S'116'
p2866
tp2867
a(S'MPI_Comm_rank()'
p2868
S'132'
p2869
tp2870
a(S'MPI_Init()'
p2871
S'148'
p2872
tp2873
asS'pp_2019_autumn/modules/task_1/khvatov_a_word_count/word_count.cpp'
p2874
(lp2875
(S'MPI_Comm_size()'
p2876
S'35'
p2877
tp2878
a(S'MPI_Comm_rank()'
p2879
S'36'
p2880
tp2881
a(S'MPI_Bcast()'
p2882
S'45'
p2883
tp2884
a(S'MPI_Send()'
p2885
S'50'
p2886
tp2887
a(S'MPI_Recv()'
p2888
S'55'
p2889
tp2890
a(S'MPI_Reduce()'
p2891
S'59'
p2892
tp2893
asS'pp_2019_autumn/modules/task_1/konnov_s_trapez_integr/main.cpp'
p2894
(lp2895
(S'MPI_Comm_rank()'
p2896
S'12'
p2897
tp2898
a(S'MPI_Comm_rank()'
p2899
S'23'
p2900
tp2901
a(S'MPI_Comm_rank()'
p2902
S'34'
p2903
tp2904
a(S'MPI_Comm_rank()'
p2905
S'45'
p2906
tp2907
a(S'MPI_Comm_rank()'
p2908
S'56'
p2909
tp2910
a(S'MPI_Comm_rank()'
p2911
S'67'
p2912
tp2913
a(S'MPI_Init()'
p2914
S'78'
p2915
tp2916
asS'pp_2019_autumn/modules/task_2/devlikamov_v_broadcast/main.cpp'
p2917
(lp2918
(S'MPI_Comm_rank()'
p2919
S'11'
p2920
tp2921
a(S'MPI_Comm_rank()'
p2922
S'24'
p2923
tp2924
a(S'MPI_Comm_rank()'
p2925
S'37'
p2926
tp2927
a(S'MPI_Comm_rank()'
p2928
S'50'
p2929
tp2930
a(S'MPI_Comm_rank()'
p2931
S'63'
p2932
tp2933
a(S'MPI_Comm_rank()'
p2934
S'78'
p2935
tp2936
a(S'MPI_Comm_rank()'
p2937
S'92'
p2938
tp2939
a(S'MPI_Comm_rank()'
p2940
S'106'
p2941
tp2942
a(S'MPI_Comm_rank()'
p2943
S'120'
p2944
tp2945
a(S'MPI_Comm_rank()'
p2946
S'133'
p2947
tp2948
a(S'MPI_Comm_rank()'
p2949
S'146'
p2950
tp2951
a(S'MPI_Comm_rank()'
p2952
S'159'
p2953
tp2954
a(S'MPI_Init()'
p2955
S'171'
p2956
tp2957
asS'pp_2019_autumn/modules/task_1/kudryashov_n_vector_min/main.cpp'
p2958
(lp2959
(S'MPI_Comm_rank()'
p2960
S'10'
p2961
tp2962
a(S'MPI_Comm_rank()'
p2963
S'26'
p2964
tp2965
a(S'MPI_Comm_rank()'
p2966
S'42'
p2967
tp2968
a(S'MPI_Comm_rank()'
p2969
S'59'
p2970
tp2971
a(S'MPI_Comm_rank()'
p2972
S'74'
p2973
tp2974
a(S'MPI_Comm_rank()'
p2975
S'89'
p2976
tp2977
a(S'MPI_Comm_rank()'
p2978
S'104'
p2979
tp2980
a(S'MPI_Comm_rank()'
p2981
S'121'
p2982
tp2983
a(S'MPI_Init()'
p2984
S'138'
p2985
tp2986
asS'pp_2019_autumn/modules/task_1/pinaev_d_string_characters_num/main.cpp'
p2987
(lp2988
(S'MPI_Comm_rank()'
p2989
S'10'
p2990
tp2991
a(S'MPI_Comm_rank()'
p2992
S'18'
p2993
tp2994
a(S'MPI_Comm_rank()'
p2995
S'26'
p2996
tp2997
a(S'MPI_Comm_rank()'
p2998
S'41'
p2999
tp3000
a(S'MPI_Init()'
p3001
S'56'
p3002
tp3003
asS'pp_2019_autumn/modules/task_2/sokolov_a_dining_philosophers/main.cpp'
p3004
(lp3005
(S'MPI_Comm_rank()'
p3006
S'17'
p3007
tp3008
a(S'MPI_Comm_size()'
p3009
S'18'
p3010
tp3011
a(S'MPI_Barrier()'
p3012
S'32'
p3013
tp3014
a(S'MPI_Reduce()'
p3015
S'34'
p3016
tp3017
a(S'MPI_Comm_rank()'
p3018
S'50'
p3019
tp3020
a(S'MPI_Comm_size()'
p3021
S'51'
p3022
tp3023
a(S'MPI_Barrier()'
p3024
S'67'
p3025
tp3026
a(S'MPI_Reduce()'
p3027
S'69'
p3028
tp3029
a(S'MPI_Comm_rank()'
p3030
S'85'
p3031
tp3032
a(S'MPI_Comm_size()'
p3033
S'86'
p3034
tp3035
a(S'MPI_Barrier()'
p3036
S'100'
p3037
tp3038
a(S'MPI_Reduce()'
p3039
S'102'
p3040
tp3041
a(S'MPI_Comm_rank()'
p3042
S'119'
p3043
tp3044
a(S'MPI_Comm_size()'
p3045
S'120'
p3046
tp3047
a(S'MPI_Barrier()'
p3048
S'136'
p3049
tp3050
a(S'MPI_Reduce()'
p3051
S'138'
p3052
tp3053
a(S'MPI_Comm_rank()'
p3054
S'155'
p3055
tp3056
a(S'MPI_Comm_size()'
p3057
S'156'
p3058
tp3059
a(S'MPI_Barrier()'
p3060
S'170'
p3061
tp3062
a(S'MPI_Reduce()'
p3063
S'172'
p3064
tp3065
a(S'MPI_Init()'
p3066
S'181'
p3067
tp3068
asS'pp_2019_autumn/modules/task_1/maximova_i_sum_val_in_rows_mtx/sum_val_in_rows_mtx.cpp'
p3069
(lp3070
(S'MPI_Comm_size()'
p3071
S'26'
p3072
tp3073
a(S'MPI_Comm_rank()'
p3074
S'27'
p3075
tp3076
a(S'MPI_Send()'
p3077
S'44'
p3078
tp3079
a(S'MPI_Recv()'
p3080
S'47'
p3081
tp3082
a(S'MPI_Send()'
p3083
S'63'
p3084
tp3085
a(S'MPI_Recv()'
p3086
S'75'
p3087
tp3088
a(S'MPI_Recv()'
p3089
S'95'
p3090
tp3091
a(S'X_MPI_COMM_WORLD()'
p3092
S'96'
p3093
tp3094
asS'pp_2019_autumn/modules/task_1/khruleva_a_rows_max/rows_max_mpi.cpp'
p3095
(lp3096
(S'MPI_Comm_size()'
p3097
S'50'
p3098
tp3099
a(S'MPI_Comm_rank()'
p3100
S'51'
p3101
tp3102
a(S'MPI_Send()'
p3103
S'80'
p3104
tp3105
a(S'MPI_Recv()'
p3106
S'85'
p3107
tp3108
a(S'MPI_Send()'
p3109
S'89'
p3110
tp3111
a(S'MPI_Recv()'
p3112
S'95'
p3113
tp3114
asS'pp_2019_autumn/modules/task_1/kurakin_m_count_diff_ch/count_diff_ch.cpp'
p3115
(lp3116
(S'MPI_Comm_size()'
p3117
S'27'
p3118
tp3119
a(S'MPI_Comm_rank()'
p3120
S'28'
p3121
tp3122
a(S'MPI_Barrier()'
p3123
S'37'
p3124
tp3125
a(S'MPI_Reduce()'
p3126
S'38'
p3127
tp3128
asS'pp_2019_autumn/modules/task_1/zinkov_num_violation_order_vector/num_violation_order_vector.cpp'
p3129
(lp3130
(S'MPI_Comm_size()'
p3131
S'36'
p3132
tp3133
a(S'MPI_Comm_rank()'
p3134
S'37'
p3135
tp3136
a(S'MPI_Send()'
p3137
S'44'
p3138
tp3139
a(S'MPI_Recv()'
p3140
S'56'
p3141
tp3142
a(S'MPI_Reduce()'
p3143
S'61'
p3144
tp3145
asS'pp_2019_autumn/modules/task_1/golubev_v_method_of_trapezes/main.cpp'
p3146
(lp3147
(S'MPI_Comm_rank()'
p3148
S'16'
p3149
tp3150
a(S'MPI_Comm_rank()'
p3151
S'25'
p3152
tp3153
a(S'MPI_Comm_rank()'
p3154
S'34'
p3155
tp3156
a(S'MPI_Comm_rank()'
p3157
S'43'
p3158
tp3159
a(S'MPI_Comm_rank()'
p3160
S'52'
p3161
tp3162
a(S'MPI_Init()'
p3163
S'61'
p3164
tp3165
asS'pp_2019_autumn/modules/task_1/myshkin_a_min_matrix/min_matrix.cpp'
p3166
(lp3167
(S'MPI_Comm_size()'
p3168
S'39'
p3169
tp3170
a(S'MPI_Comm_rank()'
p3171
S'40'
p3172
tp3173
a(S'MPI_Send()'
p3174
S'62'
p3175
tp3176
a(S'MPI_Send()'
p3177
S'70'
p3178
tp3179
a(S'MPI_Recv()'
p3180
S'76'
p3181
tp3182
a(S'MPI_Reduce()'
p3183
S'80'
p3184
tp3185
asS'pp_2019_autumn/modules/task_2/maximova_i_allreduce/main.cpp'
p3186
(lp3187
(S'MPI_Comm_size()'
p3188
g1573
tp3189
a(S'MPI_Comm_size()'
p3190
S'22'
p3191
tp3192
a(S'MPI_Comm_size()'
p3193
S'36'
p3194
tp3195
a(S'MPI_Comm_size()'
p3196
S'50'
p3197
tp3198
a(S'MPI_Comm_size()'
p3199
S'64'
p3200
tp3201
a(S'MPI_Comm_size()'
p3202
S'76'
p3203
tp3204
a(S'MPI_Comm_size()'
p3205
S'89'
p3206
tp3207
a(S'MPI_Comm_size()'
p3208
S'100'
p3209
tp3210
a(S'MPI_Comm_size()'
p3211
S'112'
p3212
tp3213
a(S'MPI_Init()'
p3214
S'124'
p3215
tp3216
asS'pp_2019_autumn/modules/task_2/maximova_i_allreduce/allreduce.cpp'
p3217
(lp3218
(S'MPI_Comm_size()'
p3219
S'19'
p3220
tp3221
a(S'MPI_Comm_rank()'
p3222
S'20'
p3223
tp3224
a(S'MPI_Send()'
p3225
S'36'
p3226
tp3227
a(S'MPI_Recv()'
p3228
S'42'
p3229
tp3230
a(S'MPI_Recv()'
p3231
S'47'
p3232
tp3233
a(S'MPI_Recv()'
p3234
S'52'
p3235
tp3236
a(S'MPI_Send()'
p3237
S'63'
p3238
tp3239
a(S'MPI_Recv()'
p3240
S'66'
p3241
tp3242
asS'pp_2019_autumn/modules/task_2/konnov_s_matrix_mult_only_hor_a/main.cpp'
p3243
(lp3244
(S'MPI_Comm_rank()'
p3245
S'10'
p3246
tp3247
a(S'MPI_Comm_rank()'
p3248
S'25'
p3249
tp3250
a(S'MPI_Comm_rank()'
p3251
S'35'
p3252
tp3253
a(S'MPI_Comm_rank()'
p3254
S'52'
p3255
tp3256
a(S'MPI_Barrier()'
p3257
S'60'
p3258
tp3259
a(S'MPI_Comm_rank()'
p3260
S'69'
p3261
tp3262
a(S'MPI_Init()'
p3263
S'82'
p3264
tp3265
asS'pp_2019_autumn/modules/task_2/zhivaev_a_mpi_gather/main.cpp'
p3266
(lp3267
(S'MPI_Comm_rank()'
p3268
S'18'
p3269
tp3270
a(S'MPI_Comm_size()'
p3271
S'19'
p3272
tp3273
a(S'MPI_Gather_c()'
p3274
S'30'
p3275
tp3276
a(S'MPI_Gather()'
p3277
S'32'
p3278
tp3279
a(S'MPI_Comm_rank()'
p3280
S'50'
p3281
tp3282
a(S'MPI_Comm_size()'
p3283
S'51'
p3284
tp3285
a(S'MPI_Gather_c()'
p3286
S'62'
p3287
tp3288
a(S'MPI_Gather()'
p3289
S'64'
p3290
tp3291
a(S'MPI_Type_contiguous()'
p3292
S'83'
p3293
tp3294
a(S'MPI_Type_commit()'
p3295
S'84'
p3296
tp3297
a(S'MPI_Comm_rank()'
p3298
S'85'
p3299
tp3300
a(S'MPI_Comm_size()'
p3301
S'86'
p3302
tp3303
a(S'MPI_Gather_c()'
p3304
S'97'
p3305
tp3306
a(S'MPI_Gather()'
p3307
S'98'
p3308
tp3309
a(S'MPI_Type_contiguous()'
p3310
S'116'
p3311
tp3312
a(S'MPI_Type_commit()'
p3313
S'117'
p3314
tp3315
a(S'MPI_Comm_rank()'
p3316
S'118'
p3317
tp3318
a(S'MPI_Comm_size()'
p3319
S'119'
p3320
tp3321
a(S'MPI_Gather_c()'
p3322
S'130'
p3323
tp3324
a(S'MPI_Gather()'
p3325
S'131'
p3326
tp3327
a(S'MPI_Type_contiguous()'
p3328
S'149'
p3329
tp3330
a(S'MPI_Type_commit()'
p3331
S'150'
p3332
tp3333
a(S'MPI_Comm_rank()'
p3334
S'151'
p3335
tp3336
a(S'MPI_Comm_size()'
p3337
S'152'
p3338
tp3339
a(S'MPI_Gather_c()'
p3340
S'163'
p3341
tp3342
a(S'MPI_Gather()'
p3343
S'164'
p3344
tp3345
a(S'MPI_Init()'
p3346
S'174'
p3347
tp3348
asS'pp_2019_autumn/modules/task_1/konnov_s_trapez_integr/trapez_integr.cpp'
p3349
(lp3350
(S'MPI_Comm_size()'
p3351
S'11'
p3352
tp3353
a(S'MPI_Comm_rank()'
p3354
S'12'
p3355
tp3356
a(S'MPI_Send()'
p3357
S'19'
p3358
tp3359
a(S'MPI_Recv()'
p3360
S'26'
p3361
tp3362
a(S'MPI_Reduce()'
p3363
S'41'
p3364
tp3365
asS'pp_2019_autumn/modules/task_1/guseva_e_vector_average_value/vector_average_value.cpp'
p3366
(lp3367
(S'MPI_Comm_size()'
p3368
S'28'
p3369
tp3370
a(S'MPI_Comm_rank()'
p3371
S'29'
p3372
tp3373
a(S'MPI_Send()'
p3374
S'43'
p3375
tp3376
a(S'MPI_Recv()'
p3377
S'48'
p3378
tp3379
a(S'MPI_Reduce()'
p3380
S'53'
p3381
tp3382
asS'pp_2019_autumn/modules/task_1/dudchenko_a_max_vector_value/max_vector_value.cpp'
p3383
(lp3384
(S'MPI_Comm_size()'
p3385
S'22'
p3386
tp3387
a(S'MPI_Comm_rank()'
p3388
S'23'
p3389
tp3390
a(S'MPI_Send()'
p3391
S'35'
p3392
tp3393
a(S'MPI_Recv()'
p3394
S'41'
p3395
tp3396
a(S'MPI_Send()'
p3397
S'43'
p3398
tp3399
a(S'MPI_Recv()'
p3400
S'53'
p3401
tp3402
asS'pp_2019_autumn/modules/task_1/sokolov_a_vector_mid_value/main.cpp'
p3403
(lp3404
(S'MPI_Comm_rank()'
p3405
S'10'
p3406
tp3407
a(S'MPI_Comm_rank()'
p3408
S'30'
p3409
tp3410
a(S'MPI_Comm_rank()'
p3411
S'48'
p3412
tp3413
a(S'MPI_Comm_rank()'
p3414
S'68'
p3415
tp3416
a(S'MPI_Init()'
p3417
S'83'
p3418
tp3419
asS'pp_2019_autumn/modules/task_1/boganov_s_trapezoid_integration/main.cpp'
p3420
(lp3421
(S'MPI_Comm_rank()'
p3422
S'20'
p3423
tp3424
a(S'MPI_Comm_rank()'
p3425
S'35'
p3426
tp3427
a(S'MPI_Comm_rank()'
p3428
S'50'
p3429
tp3430
a(S'MPI_Comm_rank()'
p3431
S'65'
p3432
tp3433
a(S'MPI_Comm_rank()'
p3434
S'80'
p3435
tp3436
a(S'MPI_Comm_rank()'
p3437
S'95'
p3438
tp3439
a(S'MPI_Init()'
p3440
S'106'
p3441
tp3442
asS'pp_2019_autumn/modules/task_1/babushkin_a_word_count/main.cpp'
p3443
(lp3444
(S'MPI_Comm_rank()'
p3445
S'13'
p3446
tp3447
a(S'MPI_Comm_rank()'
p3448
S'25'
p3449
tp3450
a(S'MPI_Comm_rank()'
p3451
S'40'
p3452
tp3453
a(S'MPI_Comm_rank()'
p3454
S'55'
p3455
tp3456
a(S'MPI_Comm_rank()'
p3457
S'71'
p3458
tp3459
a(S'MPI_Comm_rank()'
p3460
S'87'
p3461
tp3462
a(S'MPI_Comm_rank()'
p3463
S'97'
p3464
tp3465
a(S'MPI_Init()'
p3466
S'113'
p3467
tp3468
asS'pp_2019_autumn/modules/task_1/silenko_d_column_sum_matrix/column_sum_matrix.cpp'
p3469
(lp3470
(S'MPI_Comm_size()'
p3471
S'46'
p3472
tp3473
a(S'MPI_Comm_rank()'
p3474
S'47'
p3475
tp3476
a(S'MPI_Send()'
p3477
S'64'
p3478
tp3479
a(S'MPI_Recv()'
p3480
S'66'
p3481
tp3482
a(S'MPI_Send()'
p3483
S'82'
p3484
tp3485
a(S'MPI_Recv()'
p3486
S'91'
p3487
tp3488
a(S'MPI_Recv()'
p3489
S'108'
p3490
tp3491
a(S'MPI_Send()'
p3492
S'113'
p3493
tp3494
asS'pp_2019_autumn/modules/task_1/kondrina_t_matrix_rows_sum/main.cpp'
p3495
(lp3496
(S'MPI_Comm_rank()'
p3497
S'14'
p3498
tp3499
a(S'MPI_Comm_rank()'
p3500
S'32'
p3501
tp3502
a(S'MPI_Comm_rank()'
p3503
S'50'
p3504
tp3505
a(S'MPI_Comm_rank()'
p3506
S'68'
p3507
tp3508
a(S'MPI_Comm_rank()'
p3509
S'86'
p3510
tp3511
a(S'MPI_Init()'
p3512
S'104'
p3513
tp3514
asS'pp_2019_autumn/modules/task_1/nazarov_v_matrix_sum/matrix_sum.cpp'
p3515
(lp3516
(S'MPI_Comm_size()'
p3517
S'11'
p3518
tp3519
a(S'MPI_Comm_rank()'
p3520
S'12'
p3521
tp3522
a(S'MPI_Send()'
p3523
S'19'
p3524
tp3525
a(S'MPI_Send()'
p3526
S'33'
p3527
tp3528
a(S'MPI_Send()'
p3529
S'34'
p3530
tp3531
a(S'MPI_Recv()'
p3532
S'40'
p3533
tp3534
a(S'MPI_Recv()'
p3535
S'44'
p3536
tp3537
a(S'MPI_Reduce()'
p3538
S'47'
p3539
tp3540
asS'pp_2019_autumn/modules/task_1/pauzin_l_min_elem_in_vector/pauzin_l_min_elem_in_vector.cpp'
p3541
(lp3542
(S'MPI_Comm_size()'
p3543
S'15'
p3544
tp3545
a(S'MPI_Comm_rank()'
p3546
S'16'
p3547
tp3548
a(S'MPI_Send()'
p3549
S'32'
p3550
tp3551
a(S'MPI_Recv()'
p3552
S'39'
p3553
tp3554
a(S'MPI_Reduce()'
p3555
S'43'
p3556
tp3557
asS'pp_2019_autumn/modules/task_1/vlasov_a_min_value_rows/min_value_rows.cpp'
p3558
(lp3559
(S'MPI_Comm_size()'
p3560
S'35'
p3561
tp3562
a(S'MPI_Comm_rank()'
p3563
S'36'
p3564
tp3565
a(S'MPI_Scatter()'
p3566
S'40'
p3567
tp3568
a(S'MPI_Gather()'
p3569
S'49'
p3570
tp3571
asS'pp_2019_autumn/modules/task_1/obolenskiy_a_scalar_product/main.cpp'
p3572
(lp3573
(S'MPI_Comm_rank()'
p3574
S'10'
p3575
tp3576
a(S'MPI_Comm_rank()'
p3577
S'32'
p3578
tp3579
a(S'MPI_Comm_rank()'
p3580
S'54'
p3581
tp3582
a(S'MPI_Comm_rank()'
p3583
S'67'
p3584
tp3585
a(S'MPI_Comm_rank()'
p3586
S'81'
p3587
tp3588
a(S'MPI_Comm_rank()'
p3589
S'95'
p3590
tp3591
a(S'MPI_Init()'
p3592
S'119'
p3593
tp3594
asS'pp_2019_autumn/modules/task_1/korobeinikov_a_max_in_matrix/main.cpp'
p3595
(lp3596
(S'MPI_Comm_rank()'
p3597
S'10'
p3598
tp3599
a(S'MPI_Comm_rank()'
p3600
S'21'
p3601
tp3602
a(S'MPI_Comm_rank()'
p3603
S'38'
p3604
tp3605
a(S'MPI_Comm_rank()'
p3606
S'56'
p3607
tp3608
a(S'MPI_Comm_rank()'
p3609
S'74'
p3610
tp3611
a(S'MPI_Init()'
p3612
S'92'
p3613
tp3614
asS'pp_2019_autumn/modules/task_1/boganov_s_trapezoid_integration/trapezoid_integration.cpp'
p3615
(lp3616
(S'MPI_Comm_size()'
p3617
S'17'
p3618
tp3619
a(S'MPI_Comm_rank()'
p3620
S'18'
p3621
tp3622
a(S'MPI_Send()'
p3623
S'27'
p3624
tp3625
a(S'MPI_Send()'
p3626
S'28'
p3627
tp3628
a(S'MPI_Recv()'
p3629
S'36'
p3630
tp3631
a(S'MPI_Recv()'
p3632
S'37'
p3633
tp3634
a(S'MPI_Reduce()'
p3635
S'42'
p3636
tp3637
asS'pp_2019_autumn/modules/task_1/golubeva_a_mismatched_items/mismatched_items.cpp'
p3638
(lp3639
(S'MPI_Comm_size()'
p3640
S'19'
p3641
tp3642
a(S'MPI_Comm_rank()'
p3643
S'20'
p3644
tp3645
a(S'MPI_Send()'
p3646
S'39'
p3647
tp3648
a(S'MPI_Send()'
p3649
S'40'
p3650
tp3651
a(S'MPI_Recv()'
p3652
S'58'
p3653
tp3654
a(S'MPI_Recv()'
p3655
S'59'
p3656
tp3657
a(S'MPI_Barrier()'
p3658
S'65'
p3659
tp3660
a(S'MPI_Reduce()'
p3661
S'66'
p3662
tp3663
asS'pp_2019_autumn/modules/test_tasks/test_mpi/main.cpp'
p3664
(lp3665
(S'MPI_Comm_rank()'
p3666
g7
tp3667
a(S'MPI_Comm_rank()'
p3668
S'27'
p3669
tp3670
a(S'MPI_Comm_rank()'
p3671
S'45'
p3672
tp3673
a(S'MPI_Init()'
p3674
S'64'
p3675
tp3676
asS'pp_2019_autumn/modules/task_2/ryabova_a_mpi_allreduce/main.cpp'
p3677
(lp3678
(S'MPI_Comm_rank()'
p3679
S'11'
p3680
tp3681
a(S'MPI_Comm_size()'
p3682
S'12'
p3683
tp3684
a(S'MPI_Comm_rank()'
p3685
S'22'
p3686
tp3687
a(S'MPI_Comm_size()'
p3688
S'23'
p3689
tp3690
a(S'MPI_Comm_rank()'
p3691
S'33'
p3692
tp3693
a(S'MPI_Comm_size()'
p3694
S'34'
p3695
tp3696
a(S'MPI_Comm_rank()'
p3697
S'45'
p3698
tp3699
a(S'MPI_Comm_size()'
p3700
S'46'
p3701
tp3702
a(S'MPI_Allreduce_c()'
p3703
S'56'
p3704
tp3705
a(S'X_MPI_SUM()'
p3706
S'57'
p3707
tp3708
a(S'MPI_Comm_rank()'
p3709
S'69'
p3710
tp3711
a(S'MPI_Comm_size()'
p3712
S'70'
p3713
tp3714
a(S'MPI_Allreduce_c()'
p3715
S'80'
p3716
tp3717
a(S'X_MPI_PROD()'
p3718
S'81'
p3719
tp3720
a(S'MPI_Comm_rank()'
p3721
S'93'
p3722
tp3723
a(S'MPI_Comm_size()'
p3724
S'94'
p3725
tp3726
a(S'MPI_Allreduce_c()'
p3727
S'104'
p3728
tp3729
a(S'X_MPI_MAX()'
p3730
S'105'
p3731
tp3732
a(S'MPI_Comm_rank()'
p3733
S'114'
p3734
tp3735
a(S'MPI_Comm_size()'
p3736
S'115'
p3737
tp3738
a(S'MPI_Allreduce_c()'
p3739
S'125'
p3740
tp3741
a(S'X_MPI_MIN()'
p3742
S'126'
p3743
tp3744
a(S'MPI_Comm_rank()'
p3745
S'135'
p3746
tp3747
a(S'MPI_Comm_size()'
p3748
S'136'
p3749
tp3750
a(S'MPI_Allreduce_c()'
p3751
S'149'
p3752
tp3753
a(S'X_MPI_SUM()'
p3754
S'150'
p3755
tp3756
a(S'MPI_Comm_rank()'
p3757
S'162'
p3758
tp3759
a(S'MPI_Comm_size()'
p3760
S'163'
p3761
tp3762
a(S'MPI_Allreduce_c()'
p3763
S'176'
p3764
tp3765
a(S'X_MPI_PROD()'
p3766
S'177'
p3767
tp3768
a(S'MPI_Comm_rank()'
p3769
S'189'
p3770
tp3771
a(S'MPI_Comm_size()'
p3772
S'190'
p3773
tp3774
a(S'MPI_Allreduce_c()'
p3775
S'203'
p3776
tp3777
a(S'X_MPI_MAX()'
p3778
S'204'
p3779
tp3780
a(S'MPI_Comm_rank()'
p3781
S'214'
p3782
tp3783
a(S'MPI_Comm_size()'
p3784
S'215'
p3785
tp3786
a(S'MPI_Allreduce_c()'
p3787
S'229'
p3788
tp3789
a(S'X_MPI_MIN()'
p3790
S'230'
p3791
tp3792
a(S'MPI_Comm_rank()'
p3793
S'240'
p3794
tp3795
a(S'MPI_Comm_size()'
p3796
S'241'
p3797
tp3798
a(S'MPI_Allreduce_c()'
p3799
S'250'
p3800
tp3801
a(S'X_MPI_SUM()'
p3802
S'251'
p3803
tp3804
a(S'MPI_Comm_rank()'
p3805
S'260'
p3806
tp3807
a(S'MPI_Comm_size()'
p3808
S'261'
p3809
tp3810
a(S'MPI_Allreduce_c()'
p3811
S'269'
p3812
tp3813
a(S'X_MPI_PROD()'
p3814
S'270'
p3815
tp3816
a(S'MPI_Comm_rank()'
p3817
S'279'
p3818
tp3819
a(S'MPI_Comm_size()'
p3820
S'280'
p3821
tp3822
a(S'MPI_Allreduce_c()'
p3823
S'290'
p3824
tp3825
a(S'X_MPI_MAX()'
p3826
S'291'
p3827
tp3828
a(S'MPI_Comm_rank()'
p3829
S'300'
p3830
tp3831
a(S'MPI_Comm_size()'
p3832
S'301'
p3833
tp3834
a(S'MPI_Allreduce_c()'
p3835
S'311'
p3836
tp3837
a(S'X_MPI_MIN()'
p3838
S'312'
p3839
tp3840
a(S'MPI_Comm_rank()'
p3841
S'321'
p3842
tp3843
a(S'MPI_Comm_size()'
p3844
S'322'
p3845
tp3846
a(S'MPI_Allreduce_c()'
p3847
S'335'
p3848
tp3849
a(S'X_MPI_SUM()'
p3850
S'336'
p3851
tp3852
a(S'MPI_Comm_rank()'
p3853
S'346'
p3854
tp3855
a(S'MPI_Comm_size()'
p3856
S'347'
p3857
tp3858
a(S'MPI_Allreduce_c()'
p3859
S'360'
p3860
tp3861
a(S'X_MPI_PROD()'
p3862
S'361'
p3863
tp3864
a(S'MPI_Comm_rank()'
p3865
S'374'
p3866
tp3867
a(S'MPI_Comm_size()'
p3868
S'375'
p3869
tp3870
a(S'MPI_Allreduce_c()'
p3871
S'388'
p3872
tp3873
a(S'X_MPI_MAX()'
p3874
S'389'
p3875
tp3876
a(S'MPI_Comm_rank()'
p3877
S'399'
p3878
tp3879
a(S'MPI_Comm_size()'
p3880
S'400'
p3881
tp3882
a(S'MPI_Allreduce_c()'
p3883
S'413'
p3884
tp3885
a(S'X_MPI_MIN()'
p3886
S'414'
p3887
tp3888
a(S'MPI_Comm_rank()'
p3889
S'424'
p3890
tp3891
a(S'MPI_Comm_size()'
p3892
S'425'
p3893
tp3894
a(S'MPI_Allreduce_c()'
p3895
S'435'
p3896
tp3897
a(S'X_MPI_SUM()'
p3898
S'436'
p3899
tp3900
a(S'MPI_Comm_rank()'
p3901
S'445'
p3902
tp3903
a(S'MPI_Comm_size()'
p3904
S'446'
p3905
tp3906
a(S'MPI_Allreduce_c()'
p3907
S'456'
p3908
tp3909
a(S'X_MPI_PROD()'
p3910
S'457'
p3911
tp3912
a(S'MPI_Comm_rank()'
p3913
S'469'
p3914
tp3915
a(S'MPI_Comm_size()'
p3916
S'470'
p3917
tp3918
a(S'MPI_Allreduce_c()'
p3919
S'480'
p3920
tp3921
a(S'X_MPI_MAX()'
p3922
S'481'
p3923
tp3924
a(S'MPI_Comm_rank()'
p3925
S'490'
p3926
tp3927
a(S'MPI_Comm_size()'
p3928
S'491'
p3929
tp3930
a(S'MPI_Allreduce_c()'
p3931
S'501'
p3932
tp3933
a(S'X_MPI_MIN()'
p3934
S'502'
p3935
tp3936
a(S'MPI_Comm_rank()'
p3937
S'511'
p3938
tp3939
a(S'MPI_Comm_size()'
p3940
S'512'
p3941
tp3942
a(S'MPI_Allreduce_c()'
p3943
S'526'
p3944
tp3945
a(S'X_MPI_SUM()'
p3946
S'527'
p3947
tp3948
a(S'MPI_Comm_rank()'
p3949
S'537'
p3950
tp3951
a(S'MPI_Comm_size()'
p3952
S'538'
p3953
tp3954
a(S'MPI_Allreduce_c()'
p3955
S'551'
p3956
tp3957
a(S'X_MPI_PROD()'
p3958
S'552'
p3959
tp3960
a(S'MPI_Comm_rank()'
p3961
S'564'
p3962
tp3963
a(S'MPI_Comm_size()'
p3964
S'565'
p3965
tp3966
a(S'MPI_Allreduce_c()'
p3967
S'578'
p3968
tp3969
a(S'X_MPI_MAX()'
p3970
S'579'
p3971
tp3972
a(S'MPI_Comm_rank()'
p3973
S'589'
p3974
tp3975
a(S'MPI_Comm_size()'
p3976
S'590'
p3977
tp3978
a(S'MPI_Allreduce_c()'
p3979
S'603'
p3980
tp3981
a(S'X_MPI_MIN()'
p3982
S'604'
p3983
tp3984
a(S'MPI_Init()'
p3985
S'613'
p3986
tp3987
asS'pp_2019_autumn/modules/task_1/bandenkov_d_sum_columns_matrix/sum_columns.cpp'
p3988
(lp3989
(S'MPI_Comm_size()'
p3990
S'37'
p3991
tp3992
a(S'MPI_Comm_rank()'
p3993
S'38'
p3994
tp3995
a(S'MPI_Send()'
p3996
S'54'
p3997
tp3998
a(S'MPI_Recv()'
p3999
S'58'
p4000
tp4001
a(S'MPI_Recv()'
p4002
S'78'
p4003
tp4004
a(S'MPI_Send()'
p4005
S'91'
p4006
tp4007
asS'pp_2019_autumn/modules/task_1/vlasov_a_min_value_rows/main.cpp'
p4008
(lp4009
(S'MPI_Comm_rank()'
p4010
g7
tp4011
a(S'MPI_Comm_rank()'
p4012
S'17'
p4013
tp4014
a(S'MPI_Comm_rank()'
p4015
S'25'
p4016
tp4017
a(S'MPI_Comm_rank()'
p4018
S'38'
p4019
tp4020
a(S'MPI_Comm_rank()'
p4021
S'61'
p4022
tp4023
a(S'MPI_Init()'
p4024
S'84'
p4025
tp4026
asS'pp_2019_autumn/modules/task_2/obolenskiy_a_gaussian_elimination_vertical/gaussian_elimination.cpp'
p4027
(lp4028
(S'MPI_Comm_size()'
p4029
S'61'
p4030
tp4031
a(S'MPI_Comm_rank()'
p4032
S'62'
p4033
tp4034
a(S'MPI_Bcast()'
p4035
S'71'
p4036
tp4037
a(S'MPI_Bcast()'
p4038
S'79'
p4039
tp4040
a(S'MPI_Send()'
p4041
S'95'
p4042
tp4043
a(S'MPI_Recv()'
p4044
S'100'
p4045
tp4046
a(S'MPI_Bcast()'
p4047
S'112'
p4048
tp4049
a(S'MPI_Isend()'
p4050
S'128'
p4051
tp4052
a(S'MPI_Recv()'
p4053
S'133'
p4054
tp4055
a(S'MPI_Barrier()'
p4056
S'136'
p4057
tp4058
asS'pp_2019_autumn/modules/task_2/kurakin_m_linear_topology/linear_topology.cpp'
p4059
(lp4060
(S'MPI_Comm_size()'
p4061
g7
tp4062
a(S'MPI_Dims_create()'
p4063
S'11'
p4064
tp4065
a(S'MPI_Dims_create()'
p4066
S'13'
p4067
tp4068
a(S'MPI_Cart_create()'
p4069
S'15'
p4070
tp4071
a(S'MPI_Comm_rank()'
p4072
S'26'
p4073
tp4074
a(S'MPI_Comm_size()'
p4075
S'27'
p4076
tp4077
a(S'MPI_Cart_coords()'
p4078
S'28'
p4079
tp4080
a(S'MPI_Cart_shift()'
p4081
S'32'
p4082
tp4083
a(S'MPI_Cart_shift()'
p4084
S'33'
p4085
tp4086
a(S'MPI_Sendrecv()'
p4087
S'34'
p4088
tp4089
a(S'MPI_Sendrecv()'
p4090
S'36'
p4091
tp4092
a(S'MPI_Comm_free()'
p4093
S'38'
p4094
tp4095
a(S'MPI_Topo_test()'
p4096
S'51'
p4097
tp4098
a(S'MPI_Cartdim_get()'
p4099
S'53'
p4100
tp4101
a(S'MPI_Cart_get()'
p4102
S'57'
p4103
tp4104
asS'pp_2019_autumn/modules/task_1/savosina_a_string_sum/main.cpp'
p4105
(lp4106
(S'MPI_Comm_rank()'
p4107
S'10'
p4108
tp4109
a(S'MPI_Comm_rank()'
p4110
S'20'
p4111
tp4112
a(S'MPI_Comm_rank()'
p4113
S'30'
p4114
tp4115
a(S'MPI_Comm_rank()'
p4116
S'42'
p4117
tp4118
a(S'MPI_Comm_rank()'
p4119
S'55'
p4120
tp4121
a(S'MPI_Comm_rank()'
p4122
S'70'
p4123
tp4124
a(S'MPI_Init()'
p4125
S'85'
p4126
tp4127
asS'pp_2019_autumn/modules/task_1/pinaev_d_string_characters_num/string_characters_num.cpp'
p4128
(lp4129
(S'MPI_Comm_size()'
p4130
S'38'
p4131
tp4132
a(S'MPI_Comm_rank()'
p4133
S'39'
p4134
tp4135
a(S'MPI_Send()'
p4136
S'55'
p4137
tp4138
a(S'MPI_Recv()'
p4139
S'58'
p4140
tp4141
a(S'MPI_Recv()'
p4142
S'67'
p4143
tp4144
a(S'MPI_Send()'
p4145
S'72'
p4146
tp4147
asS'pp_2019_autumn/modules/task_1/karin_rect_int/main.cpp'
p4148
(lp4149
(S'MPI_Comm_rank()'
p4150
S'39'
p4151
tp4152
a(S'MPI_Comm_rank()'
p4153
S'52'
p4154
tp4155
a(S'MPI_Comm_rank()'
p4156
S'66'
p4157
tp4158
a(S'MPI_Comm_rank()'
p4159
S'77'
p4160
tp4161
a(S'MPI_Comm_rank()'
p4162
S'91'
p4163
tp4164
a(S'MPI_Comm_rank()'
p4165
S'105'
p4166
tp4167
a(S'MPI_Comm_rank()'
p4168
S'119'
p4169
tp4170
a(S'MPI_Comm_rank()'
p4171
S'133'
p4172
tp4173
a(S'MPI_Comm_rank()'
p4174
S'150'
p4175
tp4176
a(S'MPI_Init()'
p4177
S'161'
p4178
tp4179
asS'pp_2019_autumn/modules/task_1/utkin_k_num_of_alternations/main.cpp'
p4180
(lp4181
(S'MPI_Comm_rank()'
p4182
g7
tp4183
a(S'MPI_Comm_rank()'
p4184
S'20'
p4185
tp4186
a(S'MPI_Comm_rank()'
p4187
S'31'
p4188
tp4189
a(S'MPI_Comm_rank()'
p4190
S'46'
p4191
tp4192
a(S'MPI_Comm_rank()'
p4193
S'63'
p4194
tp4195
a(S'MPI_Comm_rank()'
p4196
S'80'
p4197
tp4198
a(S'MPI_Comm_rank()'
p4199
S'92'
p4200
tp4201
a(S'MPI_Init()'
p4202
S'104'
p4203
tp4204
asS'pp_2019_autumn/modules/task_1/khruleva_a_rows_max/main.cpp'
p4205
(lp4206
(S'MPI_Comm_rank()'
p4207
g7
tp4208
a(S'MPI_Comm_rank()'
p4209
S'17'
p4210
tp4211
a(S'MPI_Comm_rank()'
p4212
S'25'
p4213
tp4214
a(S'MPI_Comm_rank()'
p4215
S'42'
p4216
tp4217
a(S'MPI_Comm_rank()'
p4218
S'59'
p4219
tp4220
a(S'MPI_Init()'
p4221
S'72'
p4222
tp4223
asS'pp_2019_autumn/modules/task_1/golubev_v_method_of_trapezes/method_of_trapezes.cpp'
p4224
(lp4225
(S'MPI_Comm_size()'
p4226
S'10'
p4227
tp4228
a(S'MPI_Comm_rank()'
p4229
S'11'
p4230
tp4231
a(S'MPI_Reduce()'
p4232
S'18'
p4233
tp4234
asS'pp_2019_autumn/modules/task_1/shashkin_e_violations_of_order_in_vector/violations_of_order_in_vector.cpp'
p4235
(lp4236
(S'MPI_Comm_size()'
p4237
S'28'
p4238
tp4239
a(S'MPI_Comm_rank()'
p4240
S'29'
p4241
tp4242
a(S'MPI_Send()'
p4243
S'42'
p4244
tp4245
a(S'MPI_Recv()'
p4246
S'48'
p4247
tp4248
a(S'MPI_Reduce()'
p4249
S'55'
p4250
tp4251
asS'pp_2019_autumn/modules/task_2/guschin_a_scatter/scatter.cpp'
p4252
(lp4253
(S'MPI_Comm_size()'
p4254
S'12'
p4255
tp4256
a(S'MPI_Comm_rank()'
p4257
S'13'
p4258
tp4259
a(S'MPI_Send()'
p4260
S'35'
p4261
tp4262
a(S'MPI_Recv()'
p4263
S'41'
p4264
tp4265
asS'pp_2019_autumn/modules/task_1/iamshchikov_i_columns_min/main.cpp'
p4266
(lp4267
(S'MPI_Comm_rank()'
p4268
S'39'
p4269
tp4270
a(S'MPI_Comm_rank()'
p4271
S'55'
p4272
tp4273
a(S'MPI_Comm_rank()'
p4274
S'71'
p4275
tp4276
a(S'MPI_Init()'
p4277
S'87'
p4278
tp4279
asS'pp_2019_autumn/modules/task_1/okmyanskiy_a_sum_val_in_rows/sum_val_in_rows.cpp'
p4280
(lp4281
(S'MPI_Comm_size()'
p4282
S'21'
p4283
tp4284
a(S'MPI_Comm_rank()'
p4285
S'22'
p4286
tp4287
a(S'MPI_Send()'
p4288
S'34'
p4289
tp4290
a(S'MPI_Recv()'
p4291
S'36'
p4292
tp4293
a(S'MPI_Send()'
p4294
S'44'
p4295
tp4296
a(S'MPI_Recv()'
p4297
S'50'
p4298
tp4299
a(S'MPI_Recv()'
p4300
S'69'
p4301
tp4302
a(S'MPI_Send()'
p4303
S'72'
p4304
tp4305
asS'pp_2019_autumn/modules/task_2/isaev_bubble_sort/main.cpp'
p4306
(lp4307
(S'MPI_Comm_size()'
p4308
S'10'
p4309
tp4310
a(S'MPI_Comm_rank()'
p4311
S'11'
p4312
tp4313
a(S'MPI_Comm_size()'
p4314
S'19'
p4315
tp4316
a(S'MPI_Comm_rank()'
p4317
S'20'
p4318
tp4319
a(S'MPI_Comm_size()'
p4320
S'31'
p4321
tp4322
a(S'MPI_Comm_rank()'
p4323
S'32'
p4324
tp4325
a(S'MPI_Comm_size()'
p4326
S'46'
p4327
tp4328
a(S'MPI_Comm_rank()'
p4329
S'47'
p4330
tp4331
a(S'MPI_Comm_size()'
p4332
S'61'
p4333
tp4334
a(S'MPI_Comm_rank()'
p4335
S'62'
p4336
tp4337
a(S'MPI_Init()'
p4338
S'72'
p4339
tp4340
asS'pp_2019_autumn/modules/task_2/golubev_v_method_of_Seidel/method_of_Seidel.cpp'
p4341
(lp4342
(S'MPI_Comm_size()'
p4343
S'56'
p4344
tp4345
a(S'MPI_Comm_rank()'
p4346
S'57'
p4347
tp4348
a(S'MPI_Bcast()'
p4349
S'62'
p4350
tp4351
a(S'MPI_Scatter()'
p4352
S'77'
p4353
tp4354
a(S'MPI_Send()'
p4355
S'81'
p4356
tp4357
a(S'MPI_Send()'
p4358
S'85'
p4359
tp4360
a(S'MPI_Send()'
p4361
S'87'
p4362
tp4363
a(S'MPI_Recv()'
p4364
S'92'
p4365
tp4366
a(S'MPI_Recv()'
p4367
S'95'
p4368
tp4369
a(S'MPI_Recv()'
p4370
S'97'
p4371
tp4372
a(S'MPI_Recv()'
p4373
S'102'
p4374
tp4375
a(S'MPI_Send()'
p4376
S'118'
p4377
tp4378
a(S'MPI_Recv()'
p4379
S'124'
p4380
tp4381
a(S'MPI_Recv()'
p4382
S'141'
p4383
tp4384
a(S'MPI_Send()'
p4385
S'155'
p4386
tp4387
a(S'MPI_Send()'
p4388
S'161'
p4389
tp4390
a(S'MPI_Recv()'
p4391
S'165'
p4392
tp4393
a(S'MPI_Bcast()'
p4394
S'176'
p4395
tp4396
a(S'MPI_Bcast()'
p4397
S'177'
p4398
tp4399
asS'pp_2019_autumn/modules/task_1/kukushkina_k_lexicograph/lexicograph.cpp'
p4400
(lp4401
(S'MPI_Comm_size()'
p4402
S'53'
p4403
tp4404
a(S'MPI_Comm_rank()'
p4405
S'54'
p4406
tp4407
a(S'MPI_Send()'
p4408
S'63'
p4409
tp4410
a(S'MPI_Send()'
p4411
S'64'
p4412
tp4413
a(S'MPI_Recv()'
p4414
S'73'
p4415
tp4416
a(S'MPI_Recv()'
p4417
S'74'
p4418
tp4419
a(S'MPI_Barrier()'
p4420
S'79'
p4421
tp4422
a(S'MPI_Allreduce()'
p4423
S'80'
p4424
tp4425
asS'pp_2019_autumn/modules/task_1/koltyushkina_ya_num_of_elem/main.cpp'
p4426
(lp4427
(S'MPI_Comm_rank()'
p4428
S'19'
p4429
tp4430
a(S'MPI_Comm_rank()'
p4431
S'30'
p4432
tp4433
a(S'MPI_Comm_rank()'
p4434
S'41'
p4435
tp4436
a(S'MPI_Init()'
p4437
S'54'
p4438
tp4439
asS'pp_2019_autumn/modules/task_1/zhivaev_a_sum_cols/main.cpp'
p4440
(lp4441
(S'MPI_Comm_rank()'
p4442
S'11'
p4443
tp4444
a(S'MPI_Comm_rank()'
p4445
S'30'
p4446
tp4447
a(S'MPI_Comm_rank()'
p4448
S'48'
p4449
tp4450
a(S'MPI_Comm_rank()'
p4451
S'66'
p4452
tp4453
a(S'MPI_Comm_rank()'
p4454
S'84'
p4455
tp4456
a(S'MPI_Init()'
p4457
S'111'
p4458
tp4459
asS'pp_2019_autumn/modules/task_1/tanskii_u_min_str/min_str.cpp'
p4460
(lp4461
(S'MPI_Comm_size()'
p4462
S'46'
p4463
tp4464
a(S'MPI_Comm_rank()'
p4465
S'47'
p4466
tp4467
a(S'MPI_Send()'
p4468
S'76'
p4469
tp4470
a(S'MPI_Recv()'
p4471
S'81'
p4472
tp4473
a(S'MPI_Send()'
p4474
S'85'
p4475
tp4476
a(S'MPI_Recv()'
p4477
S'91'
p4478
tp4479
asS'pp_2019_autumn/modules/task_1/zhbanova_n_most_diff_vectors_elems/main.cpp'
p4480
(lp4481
(S'MPI_Comm_rank()'
p4482
S'13'
p4483
tp4484
a(S'MPI_Comm_rank()'
p4485
S'30'
p4486
tp4487
a(S'MPI_Comm_rank()'
p4488
S'47'
p4489
tp4490
a(S'MPI_Comm_rank()'
p4491
S'64'
p4492
tp4493
a(S'MPI_Comm_rank()'
p4494
S'81'
p4495
tp4496
a(S'MPI_Init()'
p4497
S'92'
p4498
tp4499
asS'pp_2019_autumn/modules/task_1/kornev_n_most_different_vector_elements/most_different_vector_elements.cpp'
p4500
(lp4501
(S'MPI_Comm_rank()'
p4502
S'39'
p4503
tp4504
a(S'MPI_Comm_size()'
p4505
S'40'
p4506
tp4507
a(S'MPI_Send()'
p4508
S'50'
p4509
tp4510
a(S'MPI_Recv()'
p4511
S'60'
p4512
tp4513
a(S'MPI_Reduce()'
p4514
S'72'
p4515
tp4516
asS'pp_2019_autumn/modules/task_1/mityagina_d_sum_of_matrix_elements/main.cpp'
p4517
(lp4518
(S'MPI_Comm_rank()'
p4519
S'13'
p4520
tp4521
a(S'MPI_Comm_rank()'
p4522
S'67'
p4523
tp4524
a(S'MPI_Comm_rank()'
p4525
S'77'
p4526
tp4527
a(S'MPI_Init()'
p4528
S'85'
p4529
tp4530
asS'pp_2019_autumn/modules/task_1/yasakova_a_min_val_in_cols_matrix/min_val_in_cols_matrix.cpp'
p4531
(lp4532
(S'MPI_Comm_size()'
p4533
S'29'
p4534
tp4535
a(S'MPI_Comm_rank()'
p4536
S'30'
p4537
tp4538
a(S'MPI_Send()'
p4539
S'40'
p4540
tp4541
a(S'MPI_Send()'
p4542
S'42'
p4543
tp4544
a(S'MPI_Recv()'
p4545
S'50'
p4546
tp4547
a(S'MPI_Recv()'
p4548
S'53'
p4549
tp4550
a(S'MPI_Recv()'
p4551
S'80'
p4552
tp4553
a(S'MPI_Recv()'
p4554
S'83'
p4555
tp4556
a(S'MPI_Send()'
p4557
S'96'
p4558
tp4559
asS'pp_2019_autumn/modules/task_2/zhivaev_a_mpi_gather/mpi_gather.cpp'
p4560
(lp4561
(S'MPI_Comm_size()'
p4562
S'14'
p4563
tp4564
a(S'MPI_Comm_rank()'
p4565
S'15'
p4566
tp4567
a(S'MPI_Recv()'
p4568
S'32'
p4569
tp4570
a(S'MPI_Send()'
p4571
S'36'
p4572
tp4573
asS'pp_2019_autumn/modules/task_1/ryabova_a_count_frequency_char_in_line/main.cpp'
p4574
(lp4575
(S'MPI_Comm_rank()'
p4576
S'10'
p4577
tp4578
a(S'MPI_Comm_rank()'
p4579
S'24'
p4580
tp4581
a(S'MPI_Comm_rank()'
p4582
S'38'
p4583
tp4584
a(S'MPI_Comm_rank()'
p4585
S'52'
p4586
tp4587
a(S'MPI_Comm_rank()'
p4588
S'66'
p4589
tp4590
a(S'MPI_Init()'
p4591
S'80'
p4592
tp4593
asS'pp_2019_autumn/modules/task_2/sokolov_a_dining_philosophers/dining_philosophers.cpp'
p4594
(lp4595
(S'MPI_Send()'
p4596
S'22'
p4597
tp4598
a(S'MPI_Recv()'
p4599
S'23'
p4600
tp4601
a(S'MPI_Send()'
p4602
S'32'
p4603
tp4604
a(S'MPI_Recv()'
p4605
S'51'
p4606
tp4607
a(S'MPI_Send()'
p4608
S'59'
p4609
tp4610
a(S'MPI_Send()'
p4611
S'72'
p4612
tp4613
asS'pp_2019_autumn/modules/task_2/obolenskiy_a_gaussian_elimination_vertical/main.cpp'
p4614
(lp4615
(S'MPI_Comm_rank()'
p4616
S'47'
p4617
tp4618
a(S'MPI_Comm_rank()'
p4619
S'69'
p4620
tp4621
a(S'MPI_Comm_rank()'
p4622
S'91'
p4623
tp4624
a(S'MPI_Comm_rank()'
p4625
S'113'
p4626
tp4627
a(S'MPI_Comm_rank()'
p4628
S'136'
p4629
tp4630
a(S'MPI_Comm_rank()'
p4631
S'154'
p4632
tp4633
a(S'MPI_Comm_rank()'
p4634
S'172'
p4635
tp4636
a(S'MPI_Comm_rank()'
p4637
S'192'
p4638
tp4639
a(S'MPI_Comm_rank()'
p4640
S'212'
p4641
tp4642
a(S'MPI_Comm_rank()'
p4643
S'234'
p4644
tp4645
a(S'MPI_Init()'
p4646
S'260'
p4647
tp4648
asS'pp_2019_autumn/modules/task_2/ryabova_a_mpi_allreduce/mpi_allreduce.cpp'
p4649
(lp4650
(S'MPI_Comm_size()'
p4651
S'20'
p4652
tp4653
a(S'MPI_Comm_rank()'
p4654
S'21'
p4655
tp4656
a(S'MPI_Send()'
p4657
S'52'
p4658
tp4659
a(S'MPI_Recv()'
p4660
S'57'
p4661
tp4662
a(S'MPI_Recv()'
p4663
S'59'
p4664
tp4665
a(S'MPI_Recv()'
p4666
S'61'
p4667
tp4668
a(S'MPI_Send()'
p4669
S'137'
p4670
tp4671
a(S'MPI_Recv()'
p4672
S'144'
p4673
tp4674
a(S'MPI_Recv()'
p4675
S'151'
p4676
tp4677
a(S'MPI_Recv()'
p4678
S'158'
p4679
tp4680
asS'pp_2019_autumn/modules/task_1/sadikov_a_vector_sum/vector_sum.cpp'
p4681
(lp4682
(S'MPI_Comm_size()'
p4683
S'36'
p4684
tp4685
a(S'MPI_Comm_rank()'
p4686
S'37'
p4687
tp4688
a(S'MPI_Send()'
p4689
S'46'
p4690
tp4691
a(S'MPI_Recv()'
p4692
S'58'
p4693
tp4694
a(S'X_MPI_COMM_WORLD()'
p4695
S'59'
p4696
tp4697
a(S'MPI_Barrier()'
p4698
S'64'
p4699
tp4700
a(S'MPI_Reduce()'
p4701
S'65'
p4702
tp4703
asS'pp_2019_autumn/modules/task_1/savkin_y_close_values_on_vector/main.cpp'
p4704
(lp4705
(S'MPI_Comm_rank()'
p4706
S'10'
p4707
tp4708
a(S'MPI_Comm_rank()'
p4709
S'26'
p4710
tp4711
a(S'MPI_Comm_rank()'
p4712
S'42'
p4713
tp4714
a(S'MPI_Comm_rank()'
p4715
S'58'
p4716
tp4717
a(S'MPI_Comm_rank()'
p4718
S'74'
p4719
tp4720
a(S'MPI_Comm_rank()'
p4721
S'90'
p4722
tp4723
a(S'MPI_Init()'
p4724
S'106'
p4725
tp4726
asS'pp_2019_autumn/modules/task_1/zhivaev_a_sum_cols/sum_cols.cpp'
p4727
(lp4728
(S'MPI_Comm_size()'
p4729
S'46'
p4730
tp4731
a(S'MPI_Comm_rank()'
p4732
S'47'
p4733
tp4734
a(S'MPI_Bcast()'
p4735
S'64'
p4736
tp4737
a(S'MPI_Bcast()'
p4738
S'65'
p4739
tp4740
a(S'MPI_Bcast()'
p4741
S'66'
p4742
tp4743
a(S'MPI_Send()'
p4744
S'84'
p4745
tp4746
a(S'MPI_Recv()'
p4747
S'91'
p4748
tp4749
a(S'MPI_Reduce()'
p4750
S'102'
p4751
tp4752
a(S'X_MPI_SUM()'
p4753
S'103'
p4754
tp4755
asS'pp_2019_autumn/modules/task_1/kukushkina_k_lexicograph/main.cpp'
p4756
(lp4757
(S'MPI_Init()'
p4758
S'62'
p4759
tp4760
asS'pp_2019_autumn/modules/task_1/trenina_e_rect_integral/rect_intg.cpp'
p4761
(lp4762
(S'MPI_Comm_size()'
p4763
S'39'
p4764
tp4765
a(S'MPI_Comm_rank()'
p4766
S'40'
p4767
tp4768
a(S'MPI_Reduce()'
p4769
S'52'
p4770
tp4771
a(S'MPI_Comm_size()'
p4772
S'60'
p4773
tp4774
a(S'MPI_Comm_rank()'
p4775
S'61'
p4776
tp4777
a(S'MPI_Reduce()'
p4778
S'73'
p4779
tp4780
asS'pp_2019_autumn/modules/task_1/guschin_a_word_count/word_count.cpp'
p4781
(lp4782
(S'MPI_Comm_size()'
p4783
S'40'
p4784
tp4785
a(S'MPI_Comm_rank()'
p4786
S'41'
p4787
tp4788
a(S'MPI_Bcast()'
p4789
S'46'
p4790
tp4791
a(S'MPI_Send()'
p4792
S'55'
p4793
tp4794
a(S'MPI_Recv()'
p4795
S'66'
p4796
tp4797
a(S'MPI_Reduce()'
p4798
S'70'
p4799
tp4800
asS'pp_2019_autumn/modules/task_1/astafeva_i_max_val_in_row/main.cpp'
p4801
(lp4802
(S'MPI_Comm_rank()'
p4803
S'15'
p4804
tp4805
a(S'MPI_Comm_size()'
p4806
S'16'
p4807
tp4808
a(S'MPI_Comm_rank()'
p4809
S'35'
p4810
tp4811
a(S'MPI_Comm_size()'
p4812
S'36'
p4813
tp4814
a(S'MPI_Comm_rank()'
p4815
S'55'
p4816
tp4817
a(S'MPI_Comm_size()'
p4818
S'56'
p4819
tp4820
a(S'MPI_Comm_rank()'
p4821
S'81'
p4822
tp4823
a(S'MPI_Comm_size()'
p4824
S'82'
p4825
tp4826
a(S'MPI_Init()'
p4827
S'97'
p4828
tp4829
asS'pp_2019_autumn/modules/task_2/nechaeva_e_scatter_fun/scatter.cpp'
p4830
(lp4831
(S'MPI_Comm_size()'
p4832
S'12'
p4833
tp4834
a(S'MPI_Comm_rank()'
p4835
S'13'
p4836
tp4837
a(S'MPI_Type_size()'
p4838
S'15'
p4839
tp4840
a(S'MPI_Type_size()'
p4841
S'16'
p4842
tp4843
a(S'MPI_Send()'
p4844
S'23'
p4845
tp4846
a(S'MPI_Recv()'
p4847
S'28'
p4848
tp4849
asS'pp_2019_autumn/modules/task_1/gilenkov_a_wrong_order/wrong_order_in_vector.cpp'
p4850
(lp4851
(S'MPI_Comm_size()'
p4852
S'34'
p4853
tp4854
a(S'MPI_Comm_rank()'
p4855
S'35'
p4856
tp4857
a(S'MPI_Send()'
p4858
S'47'
p4859
tp4860
a(S'MPI_Recv()'
p4861
S'56'
p4862
tp4863
a(S'MPI_Send()'
p4864
S'65'
p4865
tp4866
a(S'MPI_Recv()'
p4867
S'70'
p4868
tp4869
a(S'MPI_Reduce()'
p4870
S'76'
p4871
tp4872
asS'pp_2019_autumn/modules/task_2/lembrikov_s_gor_mat_on_vec/gor_mat_on_vec.cpp'
p4873
(lp4874
(S'MPI_Comm_size()'
p4875
S'45'
p4876
tp4877
a(S'MPI_Comm_rank()'
p4878
S'46'
p4879
tp4880
a(S'MPI_Gather()'
p4881
S'85'
p4882
tp4883
asS'pp_2019_autumn/modules/task_2/shemetov_p_network_topology_hypercube/network_top_hypercube.cpp'
p4884
(lp4885
(S'MPI_Comm_size()'
p4886
S'11'
p4887
tp4888
a(S'MPI_Cart_create()'
p4889
S'21'
p4890
tp4891
a(S'MPI_Cartdim_get()'
p4892
S'41'
p4893
tp4894
a(S'MPI_Cart_get()'
p4895
S'46'
p4896
tp4897
a(S'MPI_Topo_test()'
p4898
S'53'
p4899
tp4900
a(S'MPI_Comm_rank()'
p4901
S'72'
p4902
tp4903
a(S'MPI_Comm_size()'
p4904
S'73'
p4905
tp4906
a(S'MPI_Cart_shift()'
p4907
S'76'
p4908
tp4909
a(S'MPI_Bcast()'
p4910
S'83'
p4911
tp4912
a(S'MPI_Reduce()'
p4913
S'84'
p4914
tp4915
asS'pp_2019_autumn/modules/task_1/denisov_v_count_frequency_char_in_str/main.cpp'
p4916
(lp4917
(S'MPI_Comm_rank()'
p4918
g7
tp4919
a(S'MPI_Comm_rank()'
p4920
S'24'
p4921
tp4922
a(S'MPI_Comm_rank()'
p4923
S'39'
p4924
tp4925
a(S'MPI_Comm_rank()'
p4926
S'65'
p4927
tp4928
a(S'MPI_Init()'
p4929
S'83'
p4930
tp4931
asS'pp_2019_autumn/modules/task_1/ostapovich_d_max_elem_vector/main.cpp'
p4932
(lp4933
(S'MPI_Comm_rank()'
p4934
S'26'
p4935
tp4936
a(S'MPI_Comm_rank()'
p4937
S'36'
p4938
tp4939
a(S'MPI_Init()'
p4940
S'50'
p4941
tp4942
asS'pp_2019_autumn/modules/task_2/kurakin_m_linear_topology/main.cpp'
p4943
(lp4944
(S'MPI_Comm_size()'
p4945
S'7'
p4946
tp4947
a(S'MPI_Comm_rank()'
p4948
g1573
tp4949
a(S'MPI_Dims_create()'
p4950
S'12'
p4951
tp4952
a(S'MPI_Cart_create()'
p4953
S'13'
p4954
tp4955
a(S'MPI_Comm_size()'
p4956
S'21'
p4957
tp4958
a(S'MPI_Comm_rank()'
p4959
S'22'
p4960
tp4961
a(S'MPI_Dims_create()'
p4962
S'26'
p4963
tp4964
a(S'MPI_Cart_create()'
p4965
S'27'
p4966
tp4967
a(S'MPI_Comm_rank()'
p4968
S'35'
p4969
tp4970
a(S'MPI_Comm_rank()'
p4971
S'43'
p4972
tp4973
a(S'MPI_Comm_rank()'
p4974
S'52'
p4975
tp4976
a(S'MPI_Comm_free()'
p4977
S'56'
p4978
tp4979
a(S'MPI_Init()'
p4980
S'71'
p4981
tp4982
asS'pp_2019_autumn/modules/task_1/zhbanova_n_most_diff_vectors_elems/most_diff_vectors_elems.cpp'
p4983
(lp4984
(S'MPI_Comm_rank()'
p4985
S'43'
p4986
tp4987
a(S'MPI_Comm_size()'
p4988
S'44'
p4989
tp4990
a(S'MPI_Send()'
p4991
S'56'
p4992
tp4993
a(S'MPI_Recv()'
p4994
S'68'
p4995
tp4996
a(S'MPI_Reduce()'
p4997
S'80'
p4998
tp4999
asS'pp_2019_autumn/modules/task_1/tihomirova_m_trapezoid_integration/trapezoid_integration.cpp'
p5000
(lp5001
(S'MPI_Comm_size()'
p5002
S'19'
p5003
tp5004
a(S'MPI_Comm_rank()'
p5005
S'20'
p5006
tp5007
a(S'MPI_Reduce()'
p5008
S'36'
p5009
tp5010
asS'pp_2019_autumn/modules/task_1/maximova_i_sum_val_in_rows_mtx/main.cpp'
p5011
(lp5012
(S'MPI_Comm_rank()'
p5013
g7
tp5014
a(S'MPI_Comm_rank()'
p5015
S'32'
p5016
tp5017
a(S'MPI_Comm_rank()'
p5018
S'55'
p5019
tp5020
a(S'MPI_Comm_rank()'
p5021
S'78'
p5022
tp5023
a(S'MPI_Comm_rank()'
p5024
S'91'
p5025
tp5026
a(S'MPI_Comm_rank()'
p5027
S'104'
p5028
tp5029
a(S'MPI_Comm_rank()'
p5030
S'117'
p5031
tp5032
a(S'MPI_Init()'
p5033
S'130'
p5034
tp5035
asS'pp_2019_autumn/modules/task_1/guschin_a_word_count/main.cpp'
p5036
(lp5037
(S'MPI_Comm_rank()'
p5038
g7
tp5039
a(S'MPI_Comm_rank()'
p5040
S'20'
p5041
tp5042
a(S'MPI_Comm_rank()'
p5043
S'31'
p5044
tp5045
a(S'MPI_Comm_rank()'
p5046
S'42'
p5047
tp5048
a(S'MPI_Comm_rank()'
p5049
S'53'
p5050
tp5051
a(S'MPI_Init()'
p5052
S'67'
p5053
tp5054
asS'pp_2019_autumn/modules/task_2/isaev_bubble_sort/odd_even.cpp'
p5055
(lp5056
(S'MPI_Comm_size()'
p5057
S'39'
p5058
tp5059
a(S'MPI_Comm_rank()'
p5060
S'40'
p5061
tp5062
a(S'MPI_Send()'
p5063
S'48'
p5064
tp5065
a(S'MPI_Recv()'
p5066
S'52'
p5067
tp5068
a(S'MPI_Scatter()'
p5069
S'64'
p5070
tp5071
a(S'MPI_Sendrecv()'
p5072
S'77'
p5073
tp5074
a(S'MPI_Sendrecv()'
p5075
S'80'
p5076
tp5077
a(S'MPI_Recv()'
p5078
S'100'
p5079
tp5080
a(S'MPI_Send()'
p5081
S'104'
p5082
tp5083
asS'pp_2019_autumn/modules/task_1/arisova_a_rectangle_integration/rectangle_integration.cpp'
p5084
(lp5085
(S'MPI_Comm_size()'
p5086
S'19'
p5087
tp5088
a(S'MPI_Comm_rank()'
p5089
S'20'
p5090
tp5091
a(S'MPI_Send()'
p5092
S'34'
p5093
tp5094
a(S'X_MPI_DOUBLE()'
p5095
S'35'
p5096
tp5097
a(S'MPI_Recv()'
p5098
S'45'
p5099
tp5100
a(S'MPI_Reduce()'
p5101
S'52'
p5102
tp5103
asS'pp_2019_autumn/modules/task_1/guseva_e_vector_average_value/main.cpp'
p5104
(lp5105
(S'MPI_Init()'
p5106
S'10'
p5107
tp5108
a(S'MPI_Comm_rank()'
p5109
S'24'
p5110
tp5111
a(S'MPI_Comm_rank()'
p5112
S'44'
p5113
tp5114
a(S'MPI_Comm_rank()'
p5115
S'64'
p5116
tp5117
a(S'MPI_Comm_rank()'
p5118
S'84'
p5119
tp5120
asS'pp_2019_autumn/modules/task_1/shashkin_e_violations_of_order_in_vector/main.cpp'
p5121
(lp5122
(S'MPI_Comm_rank()'
p5123
S'10'
p5124
tp5125
a(S'MPI_Comm_rank()'
p5126
S'23'
p5127
tp5128
a(S'MPI_Comm_rank()'
p5129
S'40'
p5130
tp5131
a(S'MPI_Comm_rank()'
p5132
S'53'
p5133
tp5134
a(S'MPI_Comm_rank()'
p5135
S'73'
p5136
tp5137
a(S'MPI_Init()'
p5138
S'93'
p5139
tp5140
asS'pp_2019_autumn/modules/task_1/kriukov_d_monte_karlo_integration/main.cpp'
p5141
(lp5142
(S'MPI_Comm_rank()'
p5143
S'21'
p5144
tp5145
a(S'MPI_Comm_rank()'
p5146
S'35'
p5147
tp5148
a(S'MPI_Comm_rank()'
p5149
S'49'
p5150
tp5151
a(S'MPI_Comm_rank()'
p5152
S'64'
p5153
tp5154
a(S'MPI_Comm_rank()'
p5155
S'79'
p5156
tp5157
a(S'MPI_Init()'
p5158
S'92'
p5159
tp5160
asS'pp_2019_autumn/modules/task_1/obolenskiy_a_scalar_product/scalar_product.cpp'
p5161
(lp5162
(S'MPI_Comm_size()'
p5163
S'22'
p5164
tp5165
a(S'MPI_Comm_rank()'
p5166
S'23'
p5167
tp5168
a(S'MPI_Send()'
p5169
S'38'
p5170
tp5171
a(S'MPI_Recv()'
p5172
S'41'
p5173
tp5174
a(S'MPI_Send()'
p5175
S'55'
p5176
tp5177
a(S'MPI_Send()'
p5178
S'56'
p5179
tp5180
a(S'MPI_Recv()'
p5181
S'69'
p5182
tp5183
a(S'MPI_Recv()'
p5184
S'70'
p5185
tp5186
a(S'MPI_Recv()'
p5187
S'83'
p5188
tp5189
a(S'MPI_Send()'
p5190
S'87'
p5191
tp5192
asS'pp_2019_autumn/modules/task_1/golovanova_e_min_elem_matrix/min_elem_matrix.cpp'
p5193
(lp5194
(S'MPI_Comm_size()'
p5195
S'28'
p5196
tp5197
a(S'MPI_Comm_rank()'
p5198
S'30'
p5199
tp5200
a(S'MPI_Scatter()'
p5201
S'34'
p5202
tp5203
a(S'MPI_Gather()'
p5204
S'36'
p5205
tp5206
asS'pp_2019_autumn/modules/task_1/mityagina_d_sum_of_matrix_elements/sum_of_matrix_elements.cpp'
p5207
(lp5208
(S'MPI_Comm_rank()'
p5209
S'13'
p5210
tp5211
a(S'MPI_Comm_size()'
p5212
S'14'
p5213
tp5214
a(S'MPI_Send()'
p5215
S'27'
p5216
tp5217
a(S'MPI_Recv()'
p5218
S'29'
p5219
tp5220
a(S'MPI_Send()'
p5221
S'42'
p5222
tp5223
a(S'MPI_Recv()'
p5224
S'49'
p5225
tp5226
a(S'MPI_Barrier()'
p5227
S'52'
p5228
tp5229
a(S'MPI_Reduce()'
p5230
S'54'
p5231
tp5232
as.