ccollections
defaultdict
p0
(c__builtin__
list
p1
tp2
Rp3
S'Scout/boost_1_56_0/libs/mpi/src/exception.cpp'
p4
(lp5
(S'MPI_Error_string()'
p6
S'19'
p7
tp8
asS'Scout/boost_1_56_0/libs/mpi/test/broadcast_test.cpp'
p9
(lp10
(S'MPI_Abort()'
p11
S'135'
p12
tp13
asS'Scout/boost_1_56_0/boost/mpi/allocator.hpp'
p14
(lp15
(S'X_MPI_INFO_NULL()'
p16
S'141'
p17
tp18
asS'Scout/boost_1_56_0/libs/mpi/src/communicator.cpp'
p19
(lp20
(S'MPI_Errhandler_set()'
p21
S'46'
p22
tp23
asS'Scout/boost_1_56_0/libs/mpi/src/point_to_point.cpp'
p24
(lp25
(S'X_MPI_PACKED()'
p26
S'38'
p27
tp28
a(S'X_MPI_PACKED()'
p29
S'55'
p30
tp31
a(S'X_MPI_PACKED()'
p32
S'75'
p33
tp34
asS'Scout/boost_1_56_0/libs/mpi/src/request.cpp'
p35
(lp36
(S'MPI_Waitall()'
p37
S'39'
p38
tp39
a(S'MPI_Testall()'
p40
S'82'
p41
tp42
asS'Scout/boost_1_56_0/boost/mpi/operations.hpp'
p43
(lp44
(S'MPI_Op_free()'
p45
S'293'
p46
tp47
asS'Scout/boost_1_56_0/boost/graph/distributed/mpi_process_group.hpp'
p48
(lp49
(S'MPI_Bsend()'
p50
S'708'
p51
tp52
a(S'MPI_Isend()'
p53
S'714'
p54
tp55
a(S'MPI_Test()'
p56
S'720'
p57
tp58
a(S'MPI_Bsend()'
p59
S'744'
p60
tp61
a(S'MPI_Isend()'
p62
S'750'
p63
tp64
a(S'MPI_Test()'
p65
S'756'
p66
tp67
asS'Scout/boost_1_56_0/boost/mpi/datatype.hpp'
p68
(lp69
(S'X_MPI_LONG_DOUBLE_INT()'
p70
S'250'
p71
tp72
a(S'MPI_Type_contiguous()'
p73
S'310'
p74
tp75
a(S'MPI_Type_commit()'
p76
S'311'
p77
tp78
asS'Scout/boost_1_56_0/libs/graph_parallel/src/mpi_process_group.cpp'
p79
(lp80
(S'MPI_Cancel()'
p81
S'141'
p82
tp83
a(S'MPI_Isend()'
p84
S'560'
p85
tp86
a(S'X_MPI_PACKED()'
p87
S'561'
p88
tp89
a(S'MPI_Test()'
p90
S'569'
p91
tp92
a(S'MPI_Get_count()'
p93
S'731'
p94
tp95
a(S'MPI_Recv()'
p96
S'738'
p97
tp98
a(S'MPI_Isend()'
p99
S'822'
p100
tp101
a(S'MPI_Test()'
p102
S'826'
p103
tp104
a(S'MPI_Testsome()'
p105
S'929'
p106
tp107
a(S'MPI_Test()'
p108
S'1036'
p109
tp110
a(S'MPI_Test()'
p111
S'1047'
p112
tp113
a(S'MPI_Buffer_detach()'
p114
S'1094'
p115
tp116
a(S'MPI_Buffer_detach()'
p117
S'1099'
p118
tp119
a(S'MPI_Buffer_attach()'
p120
S'1102'
p121
tp122
a(S'MPI_Buffer_attach()'
p123
S'1104'
p124
tp125
asS'Scout/boost_1_56_0/libs/mpi/src/environment.cpp'
p126
(lp127
(S'MPI_Errhandler_set()'
p128
S'74'
p129
tp130
a(S'MPI_Errhandler_set()'
p131
S'89'
p132
tp133
a(S'MPI_Errhandler_set()'
p134
S'102'
p135
tp136
a(S'MPI_Errhandler_set()'
p137
S'118'
p138
tp139
asS'Scout/boost_1_56_0/libs/mpi/example/reduce_performance_test.cpp'
p140
(lp141
(S'MPI_Reduce()'
p142
S'94'
p143
tp144
asS'Scout/boost_1_56_0/libs/mpi/test/skeleton_content_test.cpp'
p145
(lp146
(S'MPI_Abort()'
p147
S'199'
p148
tp149
asS'Scout/boost_1_56_0/boost/mpi/exception.hpp'
p150
(lp151
(S'MPI_Error_class()'
p152
S'73'
p153
tp154
asS'Scout/boost_1_56_0/boost/graph/distributed/page_rank.hpp'
p155
(lp156
(S'MPI_Comm_rank()'
p157
S'40'
p158
tp159
a(S'MPI_Accumulate()'
p160
S'53'
p161
tp162
a(S'MPI_Win_fence()'
p163
S'60'
p164
tp165
a(S'MPI_Comm_rank()'
p166
S'90'
p167
tp168
a(S'MPI_Win_create()'
p169
S'115'
p170
tp171
a(S'X_MPI_INFO_NULL()'
p172
S'118'
p173
tp174
a(S'MPI_Win_set_name()'
p175
S'119'
p176
tp177
a(S'MPI_Win_create()'
p178
S'120'
p179
tp180
a(S'X_MPI_INFO_NULL()'
p181
S'123'
p182
tp183
a(S'MPI_Win_set_name()'
p184
S'124'
p185
tp186
a(S'MPI_Win_fence()'
p187
S'129'
p188
tp189
a(S'MPI_Win_fence()'
p190
S'130'
p191
tp192
a(S'MPI_Win_free()'
p193
S'144'
p194
tp195
a(S'MPI_Win_free()'
p196
S'145'
p197
tp198
asS'Scout/boost_1_56_0/boost/graph/distributed/detail/mpi_process_group.ipp'
p199
(lp200
(S'MPI_Recv()'
p201
S'492'
p202
tp203
a(S'MPI_Get_count()'
p204
S'510'
p205
tp206
a(S'MPI_Recv()'
p207
S'516'
p208
tp209
a(S'MPI_Irecv()'
p210
S'665'
p211
tp212
a(S'X_MPI_PACKED()'
p213
S'666'
p214
tp215
a(S'MPI_Allgather()'
p216
S'837'
p217
tp218
a(S'MPI_Allgatherv()'
p219
S'856'
p220
tp221
a(S'X_MPI_BYTE()'
p222
S'859'
p223
tp224
a(S'MPI_Comm_group()'
p225
S'880'
p226
tp227
a(S'MPI_Group_incl()'
p228
S'884'
p229
tp230
a(S'MPI_Comm_create()'
p231
S'888'
p232
tp233
a(S'MPI_Group_free()'
p234
S'891'
p235
tp236
a(S'MPI_Group_free()'
p237
S'893'
p238
tp239
a(S'MPI_Comm_free()'
p240
S'898'
p241
tp242
a(S'MPI_Irecv()'
p243
S'929'
p244
tp245
a(S'MPI_Test()'
p246
S'934'
p247
tp248
a(S'MPI_Get_count()'
p249
S'967'
p250
tp251
a(S'MPI_Recv()'
p252
S'972'
p253
tp254
asS'Scout/boost_1_56_0/boost/mpi/timer.hpp'
p255
(lp256
(S'MPI_Wtime()'
p257
S'71'
p258
tp259
asS'Scout/boost_1_56_0/libs/graph_parallel/test/distributed_betweenness_centrality_test.cpp'
p260
(lp261
(S'MPI_Abort()'
p262
S'292'
p263
tp264
asS'Scout/boost_1_56_0/boost/mpi/communicator.hpp'
p265
(lp266
(S'MPI_Comm()'
p267
S'1428'
p268
tp269
a(S'MPI_Comm()'
p270
S'1451'
p271
tp272
a(S'MPI_Comm()'
p273
S'1487'
p274
tp275
a(S'MPI_Comm()'
p276
S'1510'
p277
tp278
asS'Scout/boost_1_56_0/libs/mpi/test/ring_test.cpp'
p279
(lp280
(S'MPI_Abort()'
p281
S'95'
p282
tp283
asS'Scout/boost_1_56_0/libs/mpi/src/mpi_datatype_cache.cpp'
p284
(lp285
(S'MPI_Type_free()'
p286
S'36'
p287
tp288
asS'Scout/boost_1_56_0/libs/mpi/doc/mpi.qbk'
p289
(lp290
(S'MPI_Init()'
p291
S'115'
p292
tp293
a(S'MPI_Comm_rank()'
p294
S'118'
p295
tp296
a(S'MPI_Send()'
p297
S'121'
p298
tp299
a(S'MPI_Recv()'
p300
S'126'
p301
tp302
a(S'MPI_Finalize()'
p303
S'131'
p304
tp305
as.