ccollections
defaultdict
p0
(c__builtin__
list
p1
tp2
Rp3
S'MiniNVR/3rdparty/boost/v1.74.0/include/boost/mpi/collectives/broadcast.hpp'
p4
(lp5
(S'X_MPI_BYTE()'
p6
S'120'
p7
tp8
a(S'X_MPI_BYTE()'
p9
S'130'
p10
tp11
asS'MiniNVR/3rdparty/boost/v1.74.0/include/boost/graph/distributed/page_rank.hpp'
p12
(lp13
(S'MPI_Comm_rank()'
p14
S'40'
p15
tp16
a(S'MPI_Accumulate()'
p17
S'53'
p18
tp19
a(S'MPI_Win_fence()'
p20
S'60'
p21
tp22
a(S'MPI_Comm_rank()'
p23
S'90'
p24
tp25
a(S'MPI_Win_create()'
p26
S'115'
p27
tp28
a(S'X_MPI_INFO_NULL()'
p29
S'118'
p30
tp31
a(S'MPI_Win_set_name()'
p32
S'119'
p33
tp34
a(S'MPI_Win_create()'
p35
S'120'
p36
tp37
a(S'X_MPI_INFO_NULL()'
p38
S'123'
p39
tp40
a(S'MPI_Win_set_name()'
p41
S'124'
p42
tp43
a(S'MPI_Win_fence()'
p44
S'129'
p45
tp46
a(S'MPI_Win_fence()'
p47
S'130'
p48
tp49
a(S'MPI_Win_free()'
p50
S'144'
p51
tp52
a(S'MPI_Win_free()'
p53
S'145'
p54
tp55
asS'MiniNVR/3rdparty/boost/v1.74.0/include/boost/mpi/detail/request_handlers.hpp'
p56
(lp57
(S'MPI_Comm()'
p58
S'324'
p59
tp60
a(S'MPI_Comm()'
p61
S'349'
p62
tp63
a(S'MPI_Comm()'
p64
S'392'
p65
tp66
a(S'MPI_Comm()'
p67
S'417'
p68
tp69
a(S'MPI_Comm()'
p70
S'461'
p71
tp72
a(S'MPI_Comm()'
p73
S'483'
p74
tp75
asS'MiniNVR/3rdparty/boost/v1.74.0/include/boost/mpi/collectives/all_gather.hpp'
p76
(lp77
(S'MPI_Comm()'
p78
S'62'
p79
tp80
a(S'MPI_Comm()'
p81
S'73'
p82
tp83
asS'MiniNVR/3rdparty/boost/v1.74.0/include/boost/mpi/allocator.hpp'
p84
(lp85
(S'X_MPI_INFO_NULL()'
p86
S'141'
p87
tp88
asS'MiniNVR/3rdparty/boost/v1.74.0/include/boost/mpi/communicator.hpp'
p89
(lp90
(S'MPI_Comm()'
p91
S'1483'
p92
tp93
asS'MiniNVR/3rdparty/boost/v1.74.0/include/boost/mpi/timer.hpp'
p94
(lp95
(S'MPI_Wtime()'
p96
S'71'
p97
tp98
asS'MiniNVR/3rdparty/boost/v1.74.0/include/boost/graph/distributed/mpi_process_group.hpp'
p99
(lp100
(S'MPI_Bsend()'
p101
S'709'
p102
tp103
a(S'MPI_Isend()'
p104
S'715'
p105
tp106
a(S'MPI_Test()'
p107
S'721'
p108
tp109
a(S'MPI_Bsend()'
p110
S'745'
p111
tp112
a(S'MPI_Isend()'
p113
S'751'
p114
tp115
a(S'MPI_Test()'
p116
S'757'
p117
tp118
asS'MiniNVR/3rdparty/boost/v1.74.0/include/boost/mpi/datatype.hpp'
p119
(lp120
(S'X_MPI_LONG_DOUBLE_INT()'
p121
S'254'
p122
tp123
a(S'MPI_Type_contiguous()'
p124
S'323'
p125
tp126
a(S'MPI_Type_commit()'
p127
S'324'
p128
tp129
asS'MiniNVR/3rdparty/boost/v1.74.0/include/boost/graph/distributed/detail/mpi_process_group.ipp'
p130
(lp131
(S'MPI_Recv()'
p132
S'493'
p133
tp134
a(S'MPI_Get_count()'
p135
S'511'
p136
tp137
a(S'MPI_Recv()'
p138
S'517'
p139
tp140
a(S'MPI_Irecv()'
p141
S'666'
p142
tp143
a(S'X_MPI_PACKED()'
p144
S'667'
p145
tp146
a(S'MPI_Allgather()'
p147
S'838'
p148
tp149
a(S'MPI_Allgatherv()'
p150
S'866'
p151
tp152
a(S'X_MPI_BYTE()'
p153
S'869'
p154
tp155
a(S'MPI_Comm_group()'
p156
S'890'
p157
tp158
a(S'MPI_Group_incl()'
p159
S'895'
p160
tp161
a(S'MPI_Comm_create()'
p162
S'899'
p163
tp164
a(S'MPI_Group_free()'
p165
S'902'
p166
tp167
a(S'MPI_Group_free()'
p168
S'904'
p169
tp170
a(S'MPI_Comm_free()'
p171
S'909'
p172
tp173
a(S'MPI_Irecv()'
p174
S'940'
p175
tp176
a(S'MPI_Test()'
p177
S'945'
p178
tp179
a(S'MPI_Get_count()'
p180
S'978'
p181
tp182
a(S'MPI_Recv()'
p183
S'983'
p184
tp185
asS'MiniNVR/3rdparty/boost/v1.74.0/include/boost/mpi/exception.hpp'
p186
(lp187
(S'MPI_Error_class()'
p188
S'74'
p189
tp190
asS'MiniNVR/3rdparty/boost/v1.74.0/include/boost/mpi/operations.hpp'
p191
(lp192
(S'MPI_Op_free()'
p193
S'310'
p194
tp195
as.