ccollections
defaultdict
p0
(c__builtin__
list
p1
tp2
Rp3
S'MYST/BOOST/boost_1_76_0/libs/mpi/test/sendrecv_vector.cpp'
p4
(lp5
(S'MPI_Type_create_struct()'
p6
S'46'
p7
tp8
a(S'MPI_Type_commit()'
p9
S'53'
p10
tp11
asS'MYST/BOOST/boost_1_76_0/boost/mpi/allocator.hpp'
p12
(lp13
(S'X_MPI_INFO_NULL()'
p14
S'141'
p15
tp16
asS'MYST/BOOST/boost_1_76_0/boost/mpi/communicator.hpp'
p17
(lp18
(S'MPI_Comm()'
p19
S'1483'
p20
tp21
asS'MYST/BOOST/boost_1_76_0/libs/mpi/src/environment.cpp'
p22
(lp23
(S'MPI_Comm_set_errhandler()'
p24
S'76'
p25
tp26
a(S'MPI_Errhandler_set()'
p27
S'78'
p28
tp29
a(S'MPI_Comm_set_errhandler()'
p30
S'95'
p31
tp32
a(S'MPI_Errhandler_set()'
p33
S'97'
p34
tp35
a(S'MPI_Comm_set_errhandler()'
p36
S'112'
p37
tp38
a(S'MPI_Errhandler_set()'
p39
S'114'
p40
tp41
a(S'MPI_Comm_set_errhandler()'
p42
S'132'
p43
tp44
a(S'MPI_Errhandler_set()'
p45
S'134'
p46
tp47
asS'MYST/BOOST/boost_1_76_0/boost/graph/distributed/page_rank.hpp'
p48
(lp49
(S'MPI_Comm_rank()'
p50
S'40'
p51
tp52
a(S'MPI_Accumulate()'
p53
S'53'
p54
tp55
a(S'MPI_Win_fence()'
p56
S'60'
p57
tp58
a(S'MPI_Comm_rank()'
p59
S'90'
p60
tp61
a(S'MPI_Win_create()'
p62
S'115'
p63
tp64
a(S'X_MPI_INFO_NULL()'
p65
S'118'
p66
tp67
a(S'MPI_Win_set_name()'
p68
S'119'
p69
tp70
a(S'MPI_Win_create()'
p71
S'120'
p72
tp73
a(S'X_MPI_INFO_NULL()'
p74
S'123'
p75
tp76
a(S'MPI_Win_set_name()'
p77
S'124'
p78
tp79
a(S'MPI_Win_fence()'
p80
S'129'
p81
tp82
a(S'MPI_Win_fence()'
p83
S'130'
p84
tp85
a(S'MPI_Win_free()'
p86
S'144'
p87
tp88
a(S'MPI_Win_free()'
p89
S'145'
p90
tp91
asS'MYST/BOOST/boost_1_76_0/libs/mpi/example/reduce_performance_test.cpp'
p92
(lp93
(S'MPI_Reduce()'
p94
S'94'
p95
tp96
asS'MYST/BOOST/boost_1_76_0/libs/graph_parallel/src/mpi_process_group.cpp'
p97
(lp98
(S'MPI_Cancel()'
p99
S'142'
p100
tp101
a(S'MPI_Isend()'
p102
S'561'
p103
tp104
a(S'X_MPI_PACKED()'
p105
S'562'
p106
tp107
a(S'MPI_Test()'
p108
S'570'
p109
tp110
a(S'MPI_Get_count()'
p111
S'732'
p112
tp113
a(S'MPI_Recv()'
p114
S'739'
p115
tp116
a(S'MPI_Isend()'
p117
S'823'
p118
tp119
a(S'MPI_Test()'
p120
S'827'
p121
tp122
a(S'MPI_Testsome()'
p123
S'930'
p124
tp125
a(S'MPI_Test()'
p126
S'1037'
p127
tp128
a(S'MPI_Test()'
p129
S'1048'
p130
tp131
a(S'MPI_Buffer_detach()'
p132
S'1095'
p133
tp134
a(S'MPI_Buffer_detach()'
p135
S'1100'
p136
tp137
a(S'MPI_Buffer_attach()'
p138
S'1103'
p139
tp140
a(S'MPI_Buffer_attach()'
p141
S'1105'
p142
tp143
asS'MYST/BOOST/boost_1_76_0/boost/mpi/collectives/broadcast.hpp'
p144
(lp145
(S'X_MPI_BYTE()'
p146
S'120'
p147
tp148
a(S'X_MPI_BYTE()'
p149
S'130'
p150
tp151
asS'MYST/BOOST/boost_1_76_0/boost/mpi/timer.hpp'
p152
(lp153
(S'MPI_Wtime()'
p154
S'71'
p155
tp156
asS'MYST/BOOST/boost_1_76_0/boost/mpi/exception.hpp'
p157
(lp158
(S'MPI_Error_class()'
p159
S'74'
p160
tp161
asS'MYST/BOOST/boost_1_76_0/libs/mpi/src/error_string.cpp'
p162
(lp163
(S'MPI_Error_string()'
p164
S'16'
p165
tp166
asS'MYST/BOOST/boost_1_76_0/boost/graph/distributed/detail/mpi_process_group.ipp'
p167
(lp168
(S'MPI_Recv()'
p169
S'493'
p170
tp171
a(S'MPI_Get_count()'
p172
S'511'
p173
tp174
a(S'MPI_Recv()'
p175
S'517'
p176
tp177
a(S'MPI_Irecv()'
p178
S'666'
p179
tp180
a(S'X_MPI_PACKED()'
p181
S'667'
p182
tp183
a(S'MPI_Allgather()'
p184
S'838'
p185
tp186
a(S'MPI_Allgatherv()'
p187
S'866'
p188
tp189
a(S'X_MPI_BYTE()'
p190
S'869'
p191
tp192
a(S'MPI_Comm_group()'
p193
S'890'
p194
tp195
a(S'MPI_Group_incl()'
p196
S'895'
p197
tp198
a(S'MPI_Comm_create()'
p199
S'899'
p200
tp201
a(S'MPI_Group_free()'
p202
S'902'
p203
tp204
a(S'MPI_Group_free()'
p205
S'904'
p206
tp207
a(S'MPI_Comm_free()'
p208
S'909'
p209
tp210
a(S'MPI_Irecv()'
p211
S'940'
p212
tp213
a(S'MPI_Test()'
p214
S'945'
p215
tp216
a(S'MPI_Get_count()'
p217
S'978'
p218
tp219
a(S'MPI_Recv()'
p220
S'983'
p221
tp222
asS'MYST/BOOST/boost_1_76_0/boost/mpi/collectives/all_gather.hpp'
p223
(lp224
(S'MPI_Comm()'
p225
S'62'
p226
tp227
a(S'MPI_Comm()'
p228
S'73'
p229
tp230
asS'MYST/BOOST/boost_1_76_0/libs/graph_parallel/test/distributed_betweenness_centrality_test.cpp'
p231
(lp232
(S'MPI_Abort()'
p233
S'292'
p234
tp235
asS'MYST/BOOST/boost_1_76_0/boost/mpi/detail/request_handlers.hpp'
p236
(lp237
(S'MPI_Comm()'
p238
S'324'
p239
tp240
a(S'MPI_Comm()'
p241
S'349'
p242
tp243
a(S'MPI_Comm()'
p244
S'392'
p245
tp246
a(S'MPI_Comm()'
p247
S'417'
p248
tp249
a(S'MPI_Comm()'
p250
S'461'
p251
tp252
a(S'MPI_Comm()'
p253
S'483'
p254
tp255
asS'MYST/BOOST/boost_1_76_0/boost/graph/distributed/mpi_process_group.hpp'
p256
(lp257
(S'MPI_Bsend()'
p258
S'709'
p259
tp260
a(S'MPI_Isend()'
p261
S'715'
p262
tp263
a(S'MPI_Test()'
p264
S'721'
p265
tp266
a(S'MPI_Bsend()'
p267
S'745'
p268
tp269
a(S'MPI_Isend()'
p270
S'751'
p271
tp272
a(S'MPI_Test()'
p273
S'757'
p274
tp275
asS'MYST/BOOST/boost_1_76_0/libs/mpi/src/communicator.cpp'
p276
(lp277
(S'MPI_Comm_set_errhandler()'
p278
S'33'
p279
tp280
asS'MYST/BOOST/boost_1_76_0/libs/mpi/src/request.cpp'
p281
(lp282
(S'X_MPI_PACKED()'
p283
S'87'
p284
tp285
a(S'MPI_Waitall()'
p286
S'166'
p287
tp288
a(S'MPI_Testall()'
p289
S'194'
p290
tp291
asS'MYST/BOOST/boost_1_76_0/boost/mpi/operations.hpp'
p292
(lp293
(S'MPI_Op_free()'
p294
S'310'
p295
tp296
asS'MYST/BOOST/boost_1_76_0/libs/mpi/src/point_to_point.cpp'
p297
(lp298
(S'X_MPI_PACKED()'
p299
S'50'
p300
tp301
asS'MYST/BOOST/boost_1_76_0/boost/mpi/datatype.hpp'
p302
(lp303
(S'X_MPI_LONG_DOUBLE_INT()'
p304
S'254'
p305
tp306
a(S'MPI_Type_contiguous()'
p307
S'323'
p308
tp309
a(S'MPI_Type_commit()'
p310
S'324'
p311
tp312
asS'MYST/BOOST/boost_1_76_0/libs/mpi/src/mpi_datatype_cache.cpp'
p313
(lp314
(S'MPI_Type_free()'
p315
S'36'
p316
tp317
asS'MYST/BOOST/boost_1_76_0/libs/mpi/doc/getting_started.qbk'
p318
(lp319
(S'MPI_Init()'
p320
S'25'
p321
tp322
a(S'MPI_Comm_rank()'
p323
S'28'
p324
tp325
a(S'MPI_Send()'
p326
S'31'
p327
tp328
a(S'MPI_Recv()'
p329
S'36'
p330
tp331
a(S'MPI_Finalize()'
p332
S'41'
p333
tp334
as.