ccollections
defaultdict
p0
(c__builtin__
list
p1
tp2
Rp3
S'Win64/toolchain-x86_64/include/boost/mpi/exception.hpp'
p4
(lp5
(S'MPI_Error_class()'
p6
S'73'
p7
tp8
asS'Win64/toolchain-x86_64/include/boost/mpi/operations.hpp'
p9
(lp10
(S'MPI_Op_free()'
p11
S'293'
p12
tp13
asS'Win64/toolchain-x86_64/include/boost/mpi/timer.hpp'
p14
(lp15
(S'MPI_Wtime()'
p16
S'71'
p17
tp18
asS'Win64/toolchain-x86_64/include/boost/mpi/datatype.hpp'
p19
(lp20
(S'X_MPI_LONG_DOUBLE_INT()'
p21
S'254'
p22
tp23
a(S'MPI_Type_contiguous()'
p24
S'323'
p25
tp26
a(S'MPI_Type_commit()'
p27
S'324'
p28
tp29
asS'Win64/toolchain-x86_64/include/boost/graph/distributed/detail/mpi_process_group.ipp'
p30
(lp31
(S'MPI_Recv()'
p32
S'493'
p33
tp34
a(S'MPI_Get_count()'
p35
S'511'
p36
tp37
a(S'MPI_Recv()'
p38
S'517'
p39
tp40
a(S'MPI_Irecv()'
p41
S'666'
p42
tp43
a(S'X_MPI_PACKED()'
p44
S'667'
p45
tp46
a(S'MPI_Allgather()'
p47
S'838'
p48
tp49
a(S'MPI_Allgatherv()'
p50
S'857'
p51
tp52
a(S'X_MPI_BYTE()'
p53
S'860'
p54
tp55
a(S'MPI_Comm_group()'
p56
S'881'
p57
tp58
a(S'MPI_Group_incl()'
p59
S'885'
p60
tp61
a(S'MPI_Comm_create()'
p62
S'889'
p63
tp64
a(S'MPI_Group_free()'
p65
S'892'
p66
tp67
a(S'MPI_Group_free()'
p68
S'894'
p69
tp70
a(S'MPI_Comm_free()'
p71
S'899'
p72
tp73
a(S'MPI_Irecv()'
p74
S'930'
p75
tp76
a(S'MPI_Test()'
p77
S'935'
p78
tp79
a(S'MPI_Get_count()'
p80
S'968'
p81
tp82
a(S'MPI_Recv()'
p83
S'973'
p84
tp85
asS'Win64/toolchain-x86_64/include/boost/mpi/allocator.hpp'
p86
(lp87
(S'X_MPI_INFO_NULL()'
p88
S'141'
p89
tp90
asS'Win64/toolchain-x86_64/include/boost/graph/distributed/page_rank.hpp'
p91
(lp92
(S'MPI_Comm_rank()'
p93
S'40'
p94
tp95
a(S'MPI_Accumulate()'
p96
S'53'
p97
tp98
a(S'MPI_Win_fence()'
p99
S'60'
p100
tp101
a(S'MPI_Comm_rank()'
p102
S'90'
p103
tp104
a(S'MPI_Win_create()'
p105
S'115'
p106
tp107
a(S'X_MPI_INFO_NULL()'
p108
S'118'
p109
tp110
a(S'MPI_Win_set_name()'
p111
S'119'
p112
tp113
a(S'MPI_Win_create()'
p114
S'120'
p115
tp116
a(S'X_MPI_INFO_NULL()'
p117
S'123'
p118
tp119
a(S'MPI_Win_set_name()'
p120
S'124'
p121
tp122
a(S'MPI_Win_fence()'
p123
S'129'
p124
tp125
a(S'MPI_Win_fence()'
p126
S'130'
p127
tp128
a(S'MPI_Win_free()'
p129
S'144'
p130
tp131
a(S'MPI_Win_free()'
p132
S'145'
p133
tp134
asS'Win64/toolchain-x86_64/include/boost/mpi/communicator.hpp'
p135
(lp136
(S'MPI_Comm()'
p137
S'1366'
p138
tp139
a(S'MPI_Comm()'
p140
S'1566'
p141
tp142
a(S'MPI_Comm()'
p143
S'1589'
p144
tp145
a(S'MPI_Comm()'
p146
S'1625'
p147
tp148
a(S'MPI_Comm()'
p149
S'1648'
p150
tp151
asS'Win64/toolchain-x86_64/include/boost/graph/distributed/mpi_process_group.hpp'
p152
(lp153
(S'MPI_Bsend()'
p154
S'709'
p155
tp156
a(S'MPI_Isend()'
p157
S'715'
p158
tp159
a(S'MPI_Test()'
p160
S'721'
p161
tp162
a(S'MPI_Bsend()'
p163
S'745'
p164
tp165
a(S'MPI_Isend()'
p166
S'751'
p167
tp168
a(S'MPI_Test()'
p169
S'757'
p170
tp171
as.