ccollections
defaultdict
p0
(c__builtin__
list
p1
tp2
Rp3
S'LatentREGpp-cpp/include/boost/mpi/operations.hpp'
p4
(lp5
(S'MPI_Op_free()'
p6
S'293'
p7
tp8
asS'LatentREGpp-cpp/include/boost/mpi/communicator.hpp'
p9
(lp10
(S'MPI_Comm()'
p11
S'1292'
p12
tp13
a(S'MPI_Comm()'
p14
S'1492'
p15
tp16
a(S'MPI_Comm()'
p17
S'1515'
p18
tp19
a(S'MPI_Comm()'
p20
S'1551'
p21
tp22
a(S'MPI_Comm()'
p23
S'1574'
p24
tp25
asS'LatentREGpp-cpp/include/boost/mpi/timer.hpp'
p26
(lp27
(S'MPI_Wtime()'
p28
S'71'
p29
tp30
asS'LatentREGpp-cpp/include/boost/graph/distributed/detail/mpi_process_group.ipp'
p31
(lp32
(S'MPI_Recv()'
p33
S'492'
p34
tp35
a(S'MPI_Get_count()'
p36
S'510'
p37
tp38
a(S'MPI_Recv()'
p39
S'516'
p40
tp41
a(S'MPI_Irecv()'
p42
S'665'
p43
tp44
a(S'X_MPI_PACKED()'
p45
S'666'
p46
tp47
a(S'MPI_Allgather()'
p48
S'837'
p49
tp50
a(S'MPI_Allgatherv()'
p51
S'856'
p52
tp53
a(S'X_MPI_BYTE()'
p54
S'859'
p55
tp56
a(S'MPI_Comm_group()'
p57
S'880'
p58
tp59
a(S'MPI_Group_incl()'
p60
S'884'
p61
tp62
a(S'MPI_Comm_create()'
p63
S'888'
p64
tp65
a(S'MPI_Group_free()'
p66
S'891'
p67
tp68
a(S'MPI_Group_free()'
p69
S'893'
p70
tp71
a(S'MPI_Comm_free()'
p72
S'898'
p73
tp74
a(S'MPI_Irecv()'
p75
S'929'
p76
tp77
a(S'MPI_Test()'
p78
S'934'
p79
tp80
a(S'MPI_Get_count()'
p81
S'967'
p82
tp83
a(S'MPI_Recv()'
p84
S'972'
p85
tp86
asS'LatentREGpp-cpp/include/boost/mpi/allocator.hpp'
p87
(lp88
(S'X_MPI_INFO_NULL()'
p89
S'141'
p90
tp91
asS'LatentREGpp-cpp/include/boost/graph/distributed/page_rank.hpp'
p92
(lp93
(S'MPI_Comm_rank()'
p94
S'40'
p95
tp96
a(S'MPI_Accumulate()'
p97
S'53'
p98
tp99
a(S'MPI_Win_fence()'
p100
S'60'
p101
tp102
a(S'MPI_Comm_rank()'
p103
S'90'
p104
tp105
a(S'MPI_Win_create()'
p106
S'115'
p107
tp108
a(S'X_MPI_INFO_NULL()'
p109
S'118'
p110
tp111
a(S'MPI_Win_set_name()'
p112
S'119'
p113
tp114
a(S'MPI_Win_create()'
p115
S'120'
p116
tp117
a(S'X_MPI_INFO_NULL()'
p118
S'123'
p119
tp120
a(S'MPI_Win_set_name()'
p121
S'124'
p122
tp123
a(S'MPI_Win_fence()'
p124
S'129'
p125
tp126
a(S'MPI_Win_fence()'
p127
S'130'
p128
tp129
a(S'MPI_Win_free()'
p130
S'144'
p131
tp132
a(S'MPI_Win_free()'
p133
S'145'
p134
tp135
asS'LatentREGpp-cpp/include/boost/mpi/datatype.hpp'
p136
(lp137
(S'X_MPI_LONG_DOUBLE_INT()'
p138
S'250'
p139
tp140
a(S'MPI_Type_contiguous()'
p141
S'310'
p142
tp143
a(S'MPI_Type_commit()'
p144
S'311'
p145
tp146
asS'LatentREGpp-cpp/include/boost/graph/distributed/mpi_process_group.hpp'
p147
(lp148
(S'MPI_Bsend()'
p149
S'708'
p150
tp151
a(S'MPI_Isend()'
p152
S'714'
p153
tp154
a(S'MPI_Test()'
p155
S'720'
p156
tp157
a(S'MPI_Bsend()'
p158
S'744'
p159
tp160
a(S'MPI_Isend()'
p161
S'750'
p162
tp163
a(S'MPI_Test()'
p164
S'756'
p165
tp166
asS'LatentREGpp-cpp/include/boost/mpi/exception.hpp'
p167
(lp168
(S'MPI_Error_class()'
p169
S'73'
p170
tp171
as.