ccollections
defaultdict
p0
(c__builtin__
list
p1
tp2
Rp3
S'boost/libs/mpi/src/point_to_point.cpp'
p4
(lp5
(S'X_MPI_PACKED()'
p6
S'39'
p7
tp8
a(S'X_MPI_PACKED()'
p9
S'56'
p10
tp11
a(S'X_MPI_PACKED()'
p12
S'76'
p13
tp14
asS'boost/boost/mpi/datatype.hpp'
p15
(lp16
(S'X_MPI_LONG_DOUBLE_INT()'
p17
S'254'
p18
tp19
a(S'MPI_Type_contiguous()'
p20
S'323'
p21
tp22
a(S'MPI_Type_commit()'
p23
S'324'
p24
tp25
asS'boost/libs/mpi/src/error_string.cpp'
p26
(lp27
(S'MPI_Error_string()'
p28
S'16'
p29
tp30
asS'boost/libs/mpi/src/communicator.cpp'
p31
(lp32
(S'MPI_Comm_set_errhandler()'
p33
S'47'
p34
tp35
asS'boost/boost/graph/distributed/mpi_process_group.hpp'
p36
(lp37
(S'MPI_Bsend()'
p38
S'709'
p39
tp40
a(S'MPI_Isend()'
p41
S'715'
p42
tp43
a(S'MPI_Test()'
p44
S'721'
p45
tp46
a(S'MPI_Bsend()'
p47
S'745'
p48
tp49
a(S'MPI_Isend()'
p50
S'751'
p51
tp52
a(S'MPI_Test()'
p53
S'757'
p54
tp55
asS'boost/libs/mpi/test/broadcast_test.cpp'
p56
(lp57
(S'MPI_Abort()'
p58
S'144'
p59
tp60
asS'boost/libs/graph_parallel/test/distributed_betweenness_centrality_test.cpp'
p61
(lp62
(S'MPI_Abort()'
p63
S'292'
p64
tp65
asS'boost/libs/mpi/test/skeleton_content_test.cpp'
p66
(lp67
(S'MPI_Abort()'
p68
S'195'
p69
tp70
asS'boost/boost/graph/distributed/page_rank.hpp'
p71
(lp72
(S'MPI_Comm_rank()'
p73
S'40'
p74
tp75
a(S'MPI_Accumulate()'
p76
S'53'
p77
tp78
a(S'MPI_Win_fence()'
p79
S'60'
p80
tp81
a(S'MPI_Comm_rank()'
p82
S'90'
p83
tp84
a(S'MPI_Win_create()'
p85
S'115'
p86
tp87
a(S'X_MPI_INFO_NULL()'
p88
S'118'
p89
tp90
a(S'MPI_Win_set_name()'
p91
S'119'
p92
tp93
a(S'MPI_Win_create()'
p94
S'120'
p95
tp96
a(S'X_MPI_INFO_NULL()'
p97
S'123'
p98
tp99
a(S'MPI_Win_set_name()'
p100
S'124'
p101
tp102
a(S'MPI_Win_fence()'
p103
S'129'
p104
tp105
a(S'MPI_Win_fence()'
p106
S'130'
p107
tp108
a(S'MPI_Win_free()'
p109
S'144'
p110
tp111
a(S'MPI_Win_free()'
p112
S'145'
p113
tp114
asS'boost/boost/graph/distributed/detail/mpi_process_group.ipp'
p115
(lp116
(S'MPI_Recv()'
p117
S'493'
p118
tp119
a(S'MPI_Get_count()'
p120
S'511'
p121
tp122
a(S'MPI_Recv()'
p123
S'517'
p124
tp125
a(S'MPI_Irecv()'
p126
S'666'
p127
tp128
a(S'X_MPI_PACKED()'
p129
S'667'
p130
tp131
a(S'MPI_Allgather()'
p132
S'838'
p133
tp134
a(S'MPI_Allgatherv()'
p135
S'857'
p136
tp137
a(S'X_MPI_BYTE()'
p138
S'860'
p139
tp140
a(S'MPI_Comm_group()'
p141
S'881'
p142
tp143
a(S'MPI_Group_incl()'
p144
S'885'
p145
tp146
a(S'MPI_Comm_create()'
p147
S'889'
p148
tp149
a(S'MPI_Group_free()'
p150
S'892'
p151
tp152
a(S'MPI_Group_free()'
p153
S'894'
p154
tp155
a(S'MPI_Comm_free()'
p156
S'899'
p157
tp158
a(S'MPI_Irecv()'
p159
S'930'
p160
tp161
a(S'MPI_Test()'
p162
S'935'
p163
tp164
a(S'MPI_Get_count()'
p165
S'968'
p166
tp167
a(S'MPI_Recv()'
p168
S'973'
p169
tp170
asS'boost/boost/mpi/communicator.hpp'
p171
(lp172
(S'MPI_Comm()'
p173
S'1514'
p174
tp175
a(S'MPI_Comm()'
p176
S'1768'
p177
tp178
a(S'MPI_Comm()'
p179
S'1791'
p180
tp181
a(S'MPI_Comm()'
p182
S'1827'
p183
tp184
a(S'MPI_Comm()'
p185
S'1850'
p186
tp187
a(S'MPI_Comm()'
p188
S'1886'
p189
tp190
a(S'MPI_Comm()'
p191
S'1907'
p192
tp193
asS'boost/boost/mpi/collectives/all_gather.hpp'
p194
(lp195
(S'MPI_Comm()'
p196
S'62'
p197
tp198
a(S'MPI_Comm()'
p199
S'73'
p200
tp201
asS'boost/libs/mpi/test/sendrecv_vector.cpp'
p202
(lp203
(S'MPI_Type_create_struct()'
p204
S'46'
p205
tp206
a(S'MPI_Type_commit()'
p207
S'53'
p208
tp209
asS'boost/libs/mpi/src/environment.cpp'
p210
(lp211
(S'MPI_Comm_set_errhandler()'
p212
S'75'
p213
tp214
a(S'MPI_Errhandler_set()'
p215
S'77'
p216
tp217
a(S'MPI_Comm_set_errhandler()'
p218
S'94'
p219
tp220
a(S'MPI_Errhandler_set()'
p221
S'96'
p222
tp223
a(S'MPI_Comm_set_errhandler()'
p224
S'111'
p225
tp226
a(S'MPI_Errhandler_set()'
p227
S'113'
p228
tp229
a(S'MPI_Comm_set_errhandler()'
p230
S'131'
p231
tp232
a(S'MPI_Errhandler_set()'
p233
S'133'
p234
tp235
asS'boost/boost/mpi/collectives/broadcast.hpp'
p236
(lp237
(S'X_MPI_BYTE()'
p238
S'120'
p239
tp240
a(S'X_MPI_BYTE()'
p241
S'130'
p242
tp243
asS'boost/boost/mpi/timer.hpp'
p244
(lp245
(S'MPI_Wtime()'
p246
S'71'
p247
tp248
asS'boost/libs/graph_parallel/src/mpi_process_group.cpp'
p249
(lp250
(S'MPI_Cancel()'
p251
S'142'
p252
tp253
a(S'MPI_Isend()'
p254
S'561'
p255
tp256
a(S'X_MPI_PACKED()'
p257
S'562'
p258
tp259
a(S'MPI_Test()'
p260
S'570'
p261
tp262
a(S'MPI_Get_count()'
p263
S'732'
p264
tp265
a(S'MPI_Recv()'
p266
S'739'
p267
tp268
a(S'MPI_Isend()'
p269
S'823'
p270
tp271
a(S'MPI_Test()'
p272
S'827'
p273
tp274
a(S'MPI_Testsome()'
p275
S'930'
p276
tp277
a(S'MPI_Test()'
p278
S'1037'
p279
tp280
a(S'MPI_Test()'
p281
S'1048'
p282
tp283
a(S'MPI_Buffer_detach()'
p284
S'1095'
p285
tp286
a(S'MPI_Buffer_detach()'
p287
S'1100'
p288
tp289
a(S'MPI_Buffer_attach()'
p290
S'1103'
p291
tp292
a(S'MPI_Buffer_attach()'
p293
S'1105'
p294
tp295
asS'boost/libs/mpi/example/reduce_performance_test.cpp'
p296
(lp297
(S'MPI_Reduce()'
p298
S'94'
p299
tp300
asS'boost/boost/mpi/allocator.hpp'
p301
(lp302
(S'X_MPI_INFO_NULL()'
p303
S'141'
p304
tp305
asS'boost/boost/mpi/operations.hpp'
p306
(lp307
(S'MPI_Op_free()'
p308
S'309'
p309
tp310
asS'boost/libs/mpi/test/ring_test.cpp'
p311
(lp312
(S'MPI_Abort()'
p313
S'95'
p314
tp315
asS'boost/libs/mpi/doc/mpi.qbk'
p316
(lp317
(S'MPI_Init()'
p318
S'115'
p319
tp320
a(S'MPI_Comm_rank()'
p321
S'118'
p322
tp323
a(S'MPI_Send()'
p324
S'121'
p325
tp326
a(S'MPI_Recv()'
p327
S'126'
p328
tp329
a(S'MPI_Finalize()'
p330
S'131'
p331
tp332
asS'boost/libs/mpi/src/mpi_datatype_cache.cpp'
p333
(lp334
(S'MPI_Type_free()'
p335
S'36'
p336
tp337
asS'boost/libs/mpi/src/request.cpp'
p338
(lp339
(S'MPI_Waitall()'
p340
S'39'
p341
tp342
a(S'MPI_Testall()'
p343
S'82'
p344
tp345
asS'boost/boost/mpi/exception.hpp'
p346
(lp347
(S'MPI_Error_class()'
p348
S'74'
p349
tp350
as.