ccollections
defaultdict
p0
(c__builtin__
list
p1
tp2
Rp3
S'Heat-Distribution-Simulation/sequential/build/CMakeFiles/FindMPI/test_mpi.cpp'
p4
(lp5
(S'MPI_Init()'
p6
S'34'
p7
tp8
a(S'MPI_Finalize()'
p9
S'35'
p10
tp11
asS'Heat-Distribution-Simulation/pthread/build/CMakeFiles/FindMPI/test_mpi.cpp'
p12
(lp13
(S'MPI_Init()'
p14
S'34'
p15
tp16
a(S'MPI_Finalize()'
p17
S'35'
p18
tp19
asS'Heat-Distribution-Simulation/hybrid/build/CMakeFiles/FindMPI/test_mpi.cpp'
p20
(lp21
(S'MPI_Init()'
p22
S'34'
p23
tp24
a(S'MPI_Finalize()'
p25
S'35'
p26
tp27
asS'Heat-Distribution-Simulation/omp/build/CMakeFiles/FindMPI/test_mpi.cpp'
p28
(lp29
(S'MPI_Init()'
p30
S'34'
p31
tp32
a(S'MPI_Finalize()'
p33
S'35'
p34
tp35
asS'Heat-Distribution-Simulation/mpi/src/main.cpp'
p36
(lp37
(S'MPI_Init()'
p38
S'58'
p39
tp40
a(S'MPI_Comm_rank()'
p41
S'59'
p42
tp43
a(S'MPI_Comm_size()'
p44
S'60'
p45
tp46
a(S'MPI_Bcast()'
p47
S'173'
p48
tp49
a(S'MPI_Bcast()'
p50
S'174'
p51
tp52
a(S'MPI_Gatherv()'
p53
S'176'
p54
tp55
a(S'MPI_Gatherv()'
p56
S'178'
p57
tp58
a(S'MPI_Bcast()'
p59
S'183'
p60
tp61
a(S'MPI_Bcast()'
p62
S'184'
p63
tp64
a(S'MPI_Gatherv()'
p65
S'186'
p66
tp67
a(S'MPI_Gatherv()'
p68
S'188'
p69
tp70
a(S'MPI_Bcast()'
p71
S'191'
p72
tp73
a(S'MPI_Bcast()'
p74
S'192'
p75
tp76
a(S'MPI_Gatherv()'
p77
S'194'
p78
tp79
a(S'MPI_Gatherv()'
p80
S'196'
p81
tp82
a(S'MPI_Finalize()'
p83
S'268'
p84
tp85
a(S'MPI_Bcast()'
p86
S'282'
p87
tp88
a(S'MPI_Bcast()'
p89
S'283'
p90
tp91
a(S'MPI_Gatherv()'
p92
S'285'
p93
tp94
a(S'MPI_Gatherv()'
p95
S'287'
p96
tp97
a(S'MPI_Bcast()'
p98
S'292'
p99
tp100
a(S'MPI_Bcast()'
p101
S'293'
p102
tp103
a(S'MPI_Gatherv()'
p104
S'295'
p105
tp106
a(S'MPI_Gatherv()'
p107
S'297'
p108
tp109
a(S'MPI_Bcast()'
p110
S'300'
p111
tp112
a(S'MPI_Bcast()'
p113
S'301'
p114
tp115
a(S'MPI_Gatherv()'
p116
S'303'
p117
tp118
a(S'MPI_Gatherv()'
p119
S'305'
p120
tp121
a(S'MPI_Finalize()'
p122
S'313'
p123
tp124
a(S'MPI_Bcast()'
p125
S'326'
p126
tp127
a(S'MPI_Bcast()'
p128
S'327'
p129
tp130
a(S'MPI_Gatherv()'
p131
S'329'
p132
tp133
a(S'MPI_Gatherv()'
p134
S'331'
p135
tp136
a(S'MPI_Bcast()'
p137
S'336'
p138
tp139
a(S'MPI_Bcast()'
p140
S'337'
p141
tp142
a(S'MPI_Gatherv()'
p143
S'339'
p144
tp145
a(S'MPI_Gatherv()'
p146
S'341'
p147
tp148
a(S'MPI_Bcast()'
p149
S'355'
p150
tp151
a(S'MPI_Bcast()'
p152
S'356'
p153
tp154
a(S'MPI_Gatherv()'
p155
S'358'
p156
tp157
a(S'MPI_Gatherv()'
p158
S'360'
p159
tp160
a(S'MPI_Bcast()'
p161
S'415'
p162
tp163
a(S'MPI_Bcast()'
p164
S'416'
p165
tp166
a(S'MPI_Gatherv()'
p167
S'418'
p168
tp169
a(S'MPI_Gatherv()'
p170
S'420'
p171
tp172
a(S'MPI_Bcast()'
p173
S'425'
p174
tp175
a(S'MPI_Bcast()'
p176
S'426'
p177
tp178
a(S'MPI_Gatherv()'
p179
S'428'
p180
tp181
a(S'MPI_Gatherv()'
p182
S'430'
p183
tp184
a(S'MPI_Bcast()'
p185
S'433'
p186
tp187
a(S'MPI_Bcast()'
p188
S'434'
p189
tp190
a(S'MPI_Gatherv()'
p191
S'436'
p192
tp193
a(S'MPI_Gatherv()'
p194
S'438'
p195
tp196
a(S'MPI_Finalize()'
p197
S'447'
p198
tp199
asS'Heat-Distribution-Simulation/hybrid/src/main.cpp'
p200
(lp201
(S'MPI_Init()'
p202
S'59'
p203
tp204
a(S'MPI_Comm_rank()'
p205
S'60'
p206
tp207
a(S'MPI_Comm_size()'
p208
S'61'
p209
tp210
a(S'MPI_Bcast()'
p211
S'174'
p212
tp213
a(S'MPI_Bcast()'
p214
S'175'
p215
tp216
a(S'MPI_Gatherv()'
p217
S'177'
p218
tp219
a(S'MPI_Gatherv()'
p220
S'179'
p221
tp222
a(S'MPI_Bcast()'
p223
S'184'
p224
tp225
a(S'MPI_Bcast()'
p226
S'185'
p227
tp228
a(S'MPI_Gatherv()'
p229
S'187'
p230
tp231
a(S'MPI_Gatherv()'
p232
S'189'
p233
tp234
a(S'MPI_Bcast()'
p235
S'192'
p236
tp237
a(S'MPI_Bcast()'
p238
S'193'
p239
tp240
a(S'MPI_Gatherv()'
p241
S'195'
p242
tp243
a(S'MPI_Gatherv()'
p244
S'197'
p245
tp246
a(S'MPI_Finalize()'
p247
S'269'
p248
tp249
a(S'MPI_Bcast()'
p250
S'283'
p251
tp252
a(S'MPI_Bcast()'
p253
S'284'
p254
tp255
a(S'MPI_Gatherv()'
p256
S'286'
p257
tp258
a(S'MPI_Gatherv()'
p259
S'288'
p260
tp261
a(S'MPI_Bcast()'
p262
S'293'
p263
tp264
a(S'MPI_Bcast()'
p265
S'294'
p266
tp267
a(S'MPI_Gatherv()'
p268
S'296'
p269
tp270
a(S'MPI_Gatherv()'
p271
S'298'
p272
tp273
a(S'MPI_Bcast()'
p274
S'301'
p275
tp276
a(S'MPI_Bcast()'
p277
S'302'
p278
tp279
a(S'MPI_Gatherv()'
p280
S'304'
p281
tp282
a(S'MPI_Gatherv()'
p283
S'306'
p284
tp285
a(S'MPI_Finalize()'
p286
S'314'
p287
tp288
a(S'MPI_Bcast()'
p289
S'327'
p290
tp291
a(S'MPI_Bcast()'
p292
S'328'
p293
tp294
a(S'MPI_Gatherv()'
p295
S'330'
p296
tp297
a(S'MPI_Gatherv()'
p298
S'332'
p299
tp300
a(S'MPI_Bcast()'
p301
S'337'
p302
tp303
a(S'MPI_Bcast()'
p304
S'338'
p305
tp306
a(S'MPI_Gatherv()'
p307
S'340'
p308
tp309
a(S'MPI_Gatherv()'
p310
S'342'
p311
tp312
a(S'MPI_Bcast()'
p313
S'356'
p314
tp315
a(S'MPI_Bcast()'
p316
S'357'
p317
tp318
a(S'MPI_Gatherv()'
p319
S'359'
p320
tp321
a(S'MPI_Gatherv()'
p322
S'361'
p323
tp324
a(S'MPI_Bcast()'
p325
S'416'
p326
tp327
a(S'MPI_Bcast()'
p328
S'417'
p329
tp330
a(S'MPI_Gatherv()'
p331
S'419'
p332
tp333
a(S'MPI_Gatherv()'
p334
S'421'
p335
tp336
a(S'MPI_Bcast()'
p337
S'426'
p338
tp339
a(S'MPI_Bcast()'
p340
S'427'
p341
tp342
a(S'MPI_Gatherv()'
p343
S'429'
p344
tp345
a(S'MPI_Gatherv()'
p346
S'431'
p347
tp348
a(S'MPI_Bcast()'
p349
S'434'
p350
tp351
a(S'MPI_Bcast()'
p352
S'435'
p353
tp354
a(S'MPI_Gatherv()'
p355
S'437'
p356
tp357
a(S'MPI_Gatherv()'
p358
S'439'
p359
tp360
a(S'MPI_Finalize()'
p361
S'448'
p362
tp363
asS'Heat-Distribution-Simulation/mpi/build/CMakeFiles/FindMPI/test_mpi.cpp'
p364
(lp365
(S'MPI_Init()'
p366
S'34'
p367
tp368
a(S'MPI_Finalize()'
p369
S'35'
p370
tp371
as.