ccollections
defaultdict
p0
(c__builtin__
list
p1
tp2
Rp3
S'ArxWindows/libs/boost/include/boost/mpi/allocator.hpp'
p4
(lp5
(S'X_MPI_INFO_NULL()'
p6
S'141'
p7
tp8
asS'ArxWindows/libs/boost/include/boost/mpi/timer.hpp'
p9
(lp10
(S'MPI_Wtime()'
p11
S'71'
p12
tp13
asS'ArxWindows/libs/boost/include/boost/mpi/collectives/all_gather.hpp'
p14
(lp15
(S'MPI_Comm()'
p16
S'62'
p17
tp18
a(S'MPI_Comm()'
p19
S'73'
p20
tp21
asS'ArxWindows/libs/boost/include/boost/graph/distributed/detail/mpi_process_group.ipp'
p22
(lp23
(S'MPI_Recv()'
p24
S'493'
p25
tp26
a(S'MPI_Get_count()'
p27
S'511'
p28
tp29
a(S'MPI_Recv()'
p30
S'517'
p31
tp32
a(S'MPI_Irecv()'
p33
S'666'
p34
tp35
a(S'X_MPI_PACKED()'
p36
S'667'
p37
tp38
a(S'MPI_Allgather()'
p39
S'838'
p40
tp41
a(S'MPI_Allgatherv()'
p42
S'866'
p43
tp44
a(S'X_MPI_BYTE()'
p45
S'869'
p46
tp47
a(S'MPI_Comm_group()'
p48
S'890'
p49
tp50
a(S'MPI_Group_incl()'
p51
S'895'
p52
tp53
a(S'MPI_Comm_create()'
p54
S'899'
p55
tp56
a(S'MPI_Group_free()'
p57
S'902'
p58
tp59
a(S'MPI_Group_free()'
p60
S'904'
p61
tp62
a(S'MPI_Comm_free()'
p63
S'909'
p64
tp65
a(S'MPI_Irecv()'
p66
S'940'
p67
tp68
a(S'MPI_Test()'
p69
S'945'
p70
tp71
a(S'MPI_Get_count()'
p72
S'978'
p73
tp74
a(S'MPI_Recv()'
p75
S'983'
p76
tp77
asS'ArxWindows/libs/boost/include/boost/mpi/operations.hpp'
p78
(lp79
(S'MPI_Op_free()'
p80
S'310'
p81
tp82
asS'ArxWindows/libs/boost/include/boost/mpi/detail/request_handlers.hpp'
p83
(lp84
(S'MPI_Comm()'
p85
S'324'
p86
tp87
a(S'MPI_Comm()'
p88
S'349'
p89
tp90
a(S'MPI_Comm()'
p91
S'392'
p92
tp93
a(S'MPI_Comm()'
p94
S'417'
p95
tp96
a(S'MPI_Comm()'
p97
S'461'
p98
tp99
a(S'MPI_Comm()'
p100
S'483'
p101
tp102
asS'ArxWindows/libs/boost/include/boost/graph/distributed/page_rank.hpp'
p103
(lp104
(S'MPI_Comm_rank()'
p105
S'40'
p106
tp107
a(S'MPI_Accumulate()'
p108
S'53'
p109
tp110
a(S'MPI_Win_fence()'
p111
S'60'
p112
tp113
a(S'MPI_Comm_rank()'
p114
S'90'
p115
tp116
a(S'MPI_Win_create()'
p117
S'115'
p118
tp119
a(S'X_MPI_INFO_NULL()'
p120
S'118'
p121
tp122
a(S'MPI_Win_set_name()'
p123
S'119'
p124
tp125
a(S'MPI_Win_create()'
p126
S'120'
p127
tp128
a(S'X_MPI_INFO_NULL()'
p129
S'123'
p130
tp131
a(S'MPI_Win_set_name()'
p132
S'124'
p133
tp134
a(S'MPI_Win_fence()'
p135
S'129'
p136
tp137
a(S'MPI_Win_fence()'
p138
S'130'
p139
tp140
a(S'MPI_Win_free()'
p141
S'144'
p142
tp143
a(S'MPI_Win_free()'
p144
S'145'
p145
tp146
asS'ArxWindows/libs/boost/include/boost/mpi/datatype.hpp'
p147
(lp148
(S'X_MPI_LONG_DOUBLE_INT()'
p149
S'254'
p150
tp151
a(S'MPI_Type_contiguous()'
p152
S'323'
p153
tp154
a(S'MPI_Type_commit()'
p155
S'324'
p156
tp157
asS'ArxWindows/libs/boost/include/boost/mpi/exception.hpp'
p158
(lp159
(S'MPI_Error_class()'
p160
S'74'
p161
tp162
asS'ArxWindows/libs/boost/include/boost/graph/distributed/mpi_process_group.hpp'
p163
(lp164
(S'MPI_Bsend()'
p165
S'709'
p166
tp167
a(S'MPI_Isend()'
p168
S'715'
p169
tp170
a(S'MPI_Test()'
p171
S'721'
p172
tp173
a(S'MPI_Bsend()'
p174
S'745'
p175
tp176
a(S'MPI_Isend()'
p177
S'751'
p178
tp179
a(S'MPI_Test()'
p180
S'757'
p181
tp182
asS'ArxWindows/libs/boost/include/boost/mpi/communicator.hpp'
p183
(lp184
(S'MPI_Comm()'
p185
S'1483'
p186
tp187
asS'ArxWindows/libs/boost/include/boost/mpi/collectives/broadcast.hpp'
p188
(lp189
(S'X_MPI_BYTE()'
p190
S'120'
p191
tp192
a(S'X_MPI_BYTE()'
p193
S'130'
p194
tp195
as.