ccollections
defaultdict
p0
(c__builtin__
list
p1
tp2
Rp3
S'MyConfig/vim/bundle/YouCompleteMe/third_party/ycmd/cpp/BoostParts/boost/mpi/exception.hpp'
p4
(lp5
(S'MPI_Error_class()'
p6
S'73'
p7
tp8
asS'MyConfig/vim/bundle/YouCompleteMe/third_party/ycmd/cpp/BoostParts/boost/mpi/datatype.hpp'
p9
(lp10
(S'X_MPI_LONG_DOUBLE_INT()'
p11
S'254'
p12
tp13
a(S'MPI_Type_contiguous()'
p14
S'323'
p15
tp16
a(S'MPI_Type_commit()'
p17
S'324'
p18
tp19
asS'MyConfig/vim/bundle/YouCompleteMe/third_party/ycmd/cpp/BoostParts/boost/mpi/communicator.hpp'
p20
(lp21
(S'MPI_Comm()'
p22
S'1366'
p23
tp24
a(S'MPI_Comm()'
p25
S'1566'
p26
tp27
a(S'MPI_Comm()'
p28
S'1589'
p29
tp30
a(S'MPI_Comm()'
p31
S'1625'
p32
tp33
a(S'MPI_Comm()'
p34
S'1648'
p35
tp36
asS'MyConfig/vim/bundle/YouCompleteMe/third_party/ycmd/cpp/BoostParts/boost/mpi/allocator.hpp'
p37
(lp38
(S'X_MPI_INFO_NULL()'
p39
S'141'
p40
tp41
asS'MyConfig/vim/bundle/YouCompleteMe/third_party/ycmd/cpp/BoostParts/boost/mpi/operations.hpp'
p42
(lp43
(S'MPI_Op_free()'
p44
S'293'
p45
tp46
asS'MyConfig/vim/bundle/YouCompleteMe/third_party/ycmd/cpp/BoostParts/boost/mpi/timer.hpp'
p47
(lp48
(S'MPI_Wtime()'
p49
S'71'
p50
tp51
as.