ccollections
defaultdict
p0
(c__builtin__
list
p1
tp2
Rp3
S'boost-159-for-rn/boost/mpi/operations.hpp'
p4
(lp5
(S'MPI_Op_free()'
p6
S'293'
p7
tp8
asS'boost-159-for-rn/boost/graph/distributed/mpi_process_group.hpp'
p9
(lp10
(S'MPI_Bsend()'
p11
S'708'
p12
tp13
a(S'MPI_Isend()'
p14
S'714'
p15
tp16
a(S'MPI_Test()'
p17
S'720'
p18
tp19
a(S'MPI_Bsend()'
p20
S'744'
p21
tp22
a(S'MPI_Isend()'
p23
S'750'
p24
tp25
a(S'MPI_Test()'
p26
S'756'
p27
tp28
asS'boost-159-for-rn/boost/mpi/datatype.hpp'
p29
(lp30
(S'X_MPI_LONG_DOUBLE_INT()'
p31
S'250'
p32
tp33
a(S'MPI_Type_contiguous()'
p34
S'310'
p35
tp36
a(S'MPI_Type_commit()'
p37
S'311'
p38
tp39
asS'boost-159-for-rn/boost/graph/distributed/page_rank.hpp'
p40
(lp41
(S'MPI_Comm_rank()'
p42
S'40'
p43
tp44
a(S'MPI_Accumulate()'
p45
S'53'
p46
tp47
a(S'MPI_Win_fence()'
p48
S'60'
p49
tp50
a(S'MPI_Comm_rank()'
p51
S'90'
p52
tp53
a(S'MPI_Win_create()'
p54
S'115'
p55
tp56
a(S'X_MPI_INFO_NULL()'
p57
S'118'
p58
tp59
a(S'MPI_Win_set_name()'
p60
S'119'
p61
tp62
a(S'MPI_Win_create()'
p63
S'120'
p64
tp65
a(S'X_MPI_INFO_NULL()'
p66
S'123'
p67
tp68
a(S'MPI_Win_set_name()'
p69
S'124'
p70
tp71
a(S'MPI_Win_fence()'
p72
S'129'
p73
tp74
a(S'MPI_Win_fence()'
p75
S'130'
p76
tp77
a(S'MPI_Win_free()'
p78
S'144'
p79
tp80
a(S'MPI_Win_free()'
p81
S'145'
p82
tp83
asS'boost-159-for-rn/boost/mpi/allocator.hpp'
p84
(lp85
(S'X_MPI_INFO_NULL()'
p86
S'141'
p87
tp88
asS'boost-159-for-rn/boost/mpi/communicator.hpp'
p89
(lp90
(S'MPI_Comm()'
p91
S'1292'
p92
tp93
a(S'MPI_Comm()'
p94
S'1492'
p95
tp96
a(S'MPI_Comm()'
p97
S'1515'
p98
tp99
a(S'MPI_Comm()'
p100
S'1551'
p101
tp102
a(S'MPI_Comm()'
p103
S'1574'
p104
tp105
asS'boost-159-for-rn/boost/graph/distributed/detail/mpi_process_group.ipp'
p106
(lp107
(S'MPI_Recv()'
p108
S'492'
p109
tp110
a(S'MPI_Get_count()'
p111
S'510'
p112
tp113
a(S'MPI_Recv()'
p114
S'516'
p115
tp116
a(S'MPI_Irecv()'
p117
S'665'
p118
tp119
a(S'X_MPI_PACKED()'
p120
S'666'
p121
tp122
a(S'MPI_Allgather()'
p123
S'837'
p124
tp125
a(S'MPI_Allgatherv()'
p126
S'856'
p127
tp128
a(S'X_MPI_BYTE()'
p129
S'859'
p130
tp131
a(S'MPI_Comm_group()'
p132
S'880'
p133
tp134
a(S'MPI_Group_incl()'
p135
S'884'
p136
tp137
a(S'MPI_Comm_create()'
p138
S'888'
p139
tp140
a(S'MPI_Group_free()'
p141
S'891'
p142
tp143
a(S'MPI_Group_free()'
p144
S'893'
p145
tp146
a(S'MPI_Comm_free()'
p147
S'898'
p148
tp149
a(S'MPI_Irecv()'
p150
S'929'
p151
tp152
a(S'MPI_Test()'
p153
S'934'
p154
tp155
a(S'MPI_Get_count()'
p156
S'967'
p157
tp158
a(S'MPI_Recv()'
p159
S'972'
p160
tp161
asS'boost-159-for-rn/boost/mpi/exception.hpp'
p162
(lp163
(S'MPI_Error_class()'
p164
S'73'
p165
tp166
asS'boost-159-for-rn/boost/mpi/timer.hpp'
p167
(lp168
(S'MPI_Wtime()'
p169
S'71'
p170
tp171
as.