ccollections
defaultdict
p0
(c__builtin__
list
p1
tp2
Rp3
S'WinUtil4/Boost_1_49/boost/mpi/exception.hpp'
p4
(lp5
(S'MPI_Error_class()'
p6
S'73'
p7
tp8
asS'WinUtil4/Boost_1_49/boost/graph/distributed/detail/mpi_process_group.ipp'
p9
(lp10
(S'MPI_Recv()'
p11
S'492'
p12
tp13
a(S'MPI_Get_count()'
p14
S'510'
p15
tp16
a(S'MPI_Recv()'
p17
S'516'
p18
tp19
a(S'MPI_Irecv()'
p20
S'665'
p21
tp22
a(S'X_MPI_PACKED()'
p23
S'666'
p24
tp25
a(S'MPI_Allgather()'
p26
S'837'
p27
tp28
a(S'MPI_Allgatherv()'
p29
S'856'
p30
tp31
a(S'X_MPI_BYTE()'
p32
S'859'
p33
tp34
a(S'MPI_Comm_group()'
p35
S'880'
p36
tp37
a(S'MPI_Group_incl()'
p38
S'884'
p39
tp40
a(S'MPI_Comm_create()'
p41
S'888'
p42
tp43
a(S'MPI_Group_free()'
p44
S'891'
p45
tp46
a(S'MPI_Group_free()'
p47
S'893'
p48
tp49
a(S'MPI_Comm_free()'
p50
S'898'
p51
tp52
a(S'MPI_Irecv()'
p53
S'929'
p54
tp55
a(S'MPI_Test()'
p56
S'934'
p57
tp58
a(S'MPI_Get_count()'
p59
S'967'
p60
tp61
a(S'MPI_Recv()'
p62
S'972'
p63
tp64
asS'WinUtil4/Boost_1_49/boost/mpi/timer.hpp'
p65
(lp66
(S'MPI_Wtime()'
p67
S'71'
p68
tp69
asS'WinUtil4/Boost_1_49/boost/graph/distributed/mpi_process_group.hpp'
p70
(lp71
(S'MPI_Bsend()'
p72
S'708'
p73
tp74
a(S'MPI_Isend()'
p75
S'714'
p76
tp77
a(S'MPI_Test()'
p78
S'720'
p79
tp80
a(S'MPI_Bsend()'
p81
S'744'
p82
tp83
a(S'MPI_Isend()'
p84
S'750'
p85
tp86
a(S'MPI_Test()'
p87
S'756'
p88
tp89
asS'WinUtil4/Boost_1_49/boost/mpi/operations.hpp'
p90
(lp91
(S'MPI_Op_free()'
p92
S'293'
p93
tp94
asS'WinUtil4/Boost_1_49/boost/graph/distributed/page_rank.hpp'
p95
(lp96
(S'MPI_Comm_rank()'
p97
S'40'
p98
tp99
a(S'MPI_Accumulate()'
p100
S'53'
p101
tp102
a(S'MPI_Win_fence()'
p103
S'60'
p104
tp105
a(S'MPI_Comm_rank()'
p106
S'90'
p107
tp108
a(S'MPI_Win_create()'
p109
S'116'
p110
tp111
a(S'X_MPI_INFO_NULL()'
p112
S'119'
p113
tp114
a(S'MPI_Win_set_name()'
p115
S'120'
p116
tp117
a(S'MPI_Win_create()'
p118
S'121'
p119
tp120
a(S'X_MPI_INFO_NULL()'
p121
S'124'
p122
tp123
a(S'MPI_Win_set_name()'
p124
S'125'
p125
tp126
a(S'MPI_Win_fence()'
p127
S'130'
p128
tp129
a(S'MPI_Win_fence()'
p130
S'131'
p131
tp132
a(S'MPI_Win_free()'
p133
S'145'
p134
tp135
a(S'MPI_Win_free()'
p136
S'146'
p137
tp138
asS'WinUtil4/Boost_1_49/boost/mpi/datatype.hpp'
p139
(lp140
(S'X_MPI_LONG_DOUBLE_INT()'
p141
S'250'
p142
tp143
a(S'MPI_Type_contiguous()'
p144
S'310'
p145
tp146
a(S'MPI_Type_commit()'
p147
S'311'
p148
tp149
asS'WinUtil4/Boost_1_49/boost/mpi/allocator.hpp'
p150
(lp151
(S'X_MPI_INFO_NULL()'
p152
S'141'
p153
tp154
asS'WinUtil4/Boost_1_49/boost/mpi/communicator.hpp'
p155
(lp156
(S'MPI_Comm()'
p157
S'1425'
p158
tp159
a(S'MPI_Comm()'
p160
S'1448'
p161
tp162
a(S'MPI_Comm()'
p163
S'1484'
p164
tp165
a(S'MPI_Comm()'
p166
S'1507'
p167
tp168
as.