ccollections
defaultdict
p0
(c__builtin__
list
p1
tp2
Rp3
S'LARD/inc/boost/mpi/operations.hpp'
p4
(lp5
(S'MPI_Op_free()'
p6
S'311'
p7
tp8
asS'LARD/inc/boost/mpi/datatype.hpp'
p9
(lp10
(S'X_MPI_LONG_DOUBLE_INT()'
p11
S'254'
p12
tp13
a(S'MPI_Type_contiguous()'
p14
S'323'
p15
tp16
a(S'MPI_Type_commit()'
p17
S'324'
p18
tp19
asS'LARD/inc/boost/graph/distributed/mpi_process_group.hpp'
p20
(lp21
(S'MPI_Bsend()'
p22
S'709'
p23
tp24
a(S'MPI_Isend()'
p25
S'715'
p26
tp27
a(S'MPI_Test()'
p28
S'721'
p29
tp30
a(S'MPI_Bsend()'
p31
S'745'
p32
tp33
a(S'MPI_Isend()'
p34
S'751'
p35
tp36
a(S'MPI_Test()'
p37
S'757'
p38
tp39
asS'LARD/inc/boost/graph/distributed/detail/mpi_process_group.ipp'
p40
(lp41
(S'MPI_Recv()'
p42
S'493'
p43
tp44
a(S'MPI_Get_count()'
p45
S'511'
p46
tp47
a(S'MPI_Recv()'
p48
S'517'
p49
tp50
a(S'MPI_Irecv()'
p51
S'666'
p52
tp53
a(S'X_MPI_PACKED()'
p54
S'667'
p55
tp56
a(S'MPI_Allgather()'
p57
S'838'
p58
tp59
a(S'MPI_Allgatherv()'
p60
S'857'
p61
tp62
a(S'X_MPI_BYTE()'
p63
S'860'
p64
tp65
a(S'MPI_Comm_group()'
p66
S'881'
p67
tp68
a(S'MPI_Group_incl()'
p69
S'885'
p70
tp71
a(S'MPI_Comm_create()'
p72
S'889'
p73
tp74
a(S'MPI_Group_free()'
p75
S'892'
p76
tp77
a(S'MPI_Group_free()'
p78
S'894'
p79
tp80
a(S'MPI_Comm_free()'
p81
S'899'
p82
tp83
a(S'MPI_Irecv()'
p84
S'930'
p85
tp86
a(S'MPI_Test()'
p87
S'935'
p88
tp89
a(S'MPI_Get_count()'
p90
S'968'
p91
tp92
a(S'MPI_Recv()'
p93
S'973'
p94
tp95
asS'LARD/inc/boost/mpi/communicator.hpp'
p96
(lp97
(S'MPI_Comm()'
p98
S'1481'
p99
tp100
a(S'MPI_Comm()'
p101
S'1681'
p102
tp103
a(S'MPI_Comm()'
p104
S'1704'
p105
tp106
a(S'MPI_Comm()'
p107
S'1740'
p108
tp109
a(S'MPI_Comm()'
p110
S'1763'
p111
tp112
asS'LARD/inc/boost/mpi/timer.hpp'
p113
(lp114
(S'MPI_Wtime()'
p115
S'71'
p116
tp117
asS'LARD/inc/boost/mpi/collectives/broadcast.hpp'
p118
(lp119
(S'X_MPI_BYTE()'
p120
S'120'
p121
tp122
a(S'X_MPI_BYTE()'
p123
S'130'
p124
tp125
asS'LARD/inc/boost/graph/distributed/page_rank.hpp'
p126
(lp127
(S'MPI_Comm_rank()'
p128
S'40'
p129
tp130
a(S'MPI_Accumulate()'
p131
S'53'
p132
tp133
a(S'MPI_Win_fence()'
p134
S'60'
p135
tp136
a(S'MPI_Comm_rank()'
p137
S'90'
p138
tp139
a(S'MPI_Win_create()'
p140
S'115'
p141
tp142
a(S'X_MPI_INFO_NULL()'
p143
S'118'
p144
tp145
a(S'MPI_Win_set_name()'
p146
S'119'
p147
tp148
a(S'MPI_Win_create()'
p149
S'120'
p150
tp151
a(S'X_MPI_INFO_NULL()'
p152
S'123'
p153
tp154
a(S'MPI_Win_set_name()'
p155
S'124'
p156
tp157
a(S'MPI_Win_fence()'
p158
S'129'
p159
tp160
a(S'MPI_Win_fence()'
p161
S'130'
p162
tp163
a(S'MPI_Win_free()'
p164
S'144'
p165
tp166
a(S'MPI_Win_free()'
p167
S'145'
p168
tp169
asS'LARD/inc/boost/mpi/collectives/all_gather.hpp'
p170
(lp171
(S'MPI_Comm()'
p172
S'62'
p173
tp174
a(S'MPI_Comm()'
p175
S'73'
p176
tp177
asS'LARD/inc/boost/mpi/exception.hpp'
p178
(lp179
(S'MPI_Error_class()'
p180
S'74'
p181
tp182
asS'LARD/inc/boost/mpi/allocator.hpp'
p183
(lp184
(S'X_MPI_INFO_NULL()'
p185
S'141'
p186
tp187
as.