ccollections
defaultdict
p0
(c__builtin__
list
p1
tp2
Rp3
S'GI_big/include/boost/graph/distributed/mpi_process_group.hpp'
p4
(lp5
(S'MPI_Bsend()'
p6
S'709'
p7
tp8
a(S'MPI_Isend()'
p9
S'715'
p10
tp11
a(S'MPI_Test()'
p12
S'721'
p13
tp14
a(S'MPI_Bsend()'
p15
S'745'
p16
tp17
a(S'MPI_Isend()'
p18
S'751'
p19
tp20
a(S'MPI_Test()'
p21
S'757'
p22
tp23
asS'GI_big/include/boost/mpi/communicator.hpp'
p24
(lp25
(S'MPI_Comm()'
p26
S'1481'
p27
tp28
a(S'MPI_Comm()'
p29
S'1681'
p30
tp31
a(S'MPI_Comm()'
p32
S'1704'
p33
tp34
a(S'MPI_Comm()'
p35
S'1740'
p36
tp37
a(S'MPI_Comm()'
p38
S'1763'
p39
tp40
asS'GI_big/include/boost/mpi/exception.hpp'
p41
(lp42
(S'MPI_Error_class()'
p43
S'74'
p44
tp45
asS'GI_big/include/boost/graph/distributed/detail/mpi_process_group.ipp'
p46
(lp47
(S'MPI_Recv()'
p48
S'493'
p49
tp50
a(S'MPI_Get_count()'
p51
S'511'
p52
tp53
a(S'MPI_Recv()'
p54
S'517'
p55
tp56
a(S'MPI_Irecv()'
p57
S'666'
p58
tp59
a(S'X_MPI_PACKED()'
p60
S'667'
p61
tp62
a(S'MPI_Allgather()'
p63
S'838'
p64
tp65
a(S'MPI_Allgatherv()'
p66
S'857'
p67
tp68
a(S'X_MPI_BYTE()'
p69
S'860'
p70
tp71
a(S'MPI_Comm_group()'
p72
S'881'
p73
tp74
a(S'MPI_Group_incl()'
p75
S'885'
p76
tp77
a(S'MPI_Comm_create()'
p78
S'889'
p79
tp80
a(S'MPI_Group_free()'
p81
S'892'
p82
tp83
a(S'MPI_Group_free()'
p84
S'894'
p85
tp86
a(S'MPI_Comm_free()'
p87
S'899'
p88
tp89
a(S'MPI_Irecv()'
p90
S'930'
p91
tp92
a(S'MPI_Test()'
p93
S'935'
p94
tp95
a(S'MPI_Get_count()'
p96
S'968'
p97
tp98
a(S'MPI_Recv()'
p99
S'973'
p100
tp101
asS'GI_big/include/boost/mpi/collectives/all_gather.hpp'
p102
(lp103
(S'MPI_Comm()'
p104
S'62'
p105
tp106
a(S'MPI_Comm()'
p107
S'73'
p108
tp109
asS'GI_big/include/boost/graph/distributed/page_rank.hpp'
p110
(lp111
(S'MPI_Comm_rank()'
p112
S'40'
p113
tp114
a(S'MPI_Accumulate()'
p115
S'53'
p116
tp117
a(S'MPI_Win_fence()'
p118
S'60'
p119
tp120
a(S'MPI_Comm_rank()'
p121
S'90'
p122
tp123
a(S'MPI_Win_create()'
p124
S'115'
p125
tp126
a(S'X_MPI_INFO_NULL()'
p127
S'118'
p128
tp129
a(S'MPI_Win_set_name()'
p130
S'119'
p131
tp132
a(S'MPI_Win_create()'
p133
S'120'
p134
tp135
a(S'X_MPI_INFO_NULL()'
p136
S'123'
p137
tp138
a(S'MPI_Win_set_name()'
p139
S'124'
p140
tp141
a(S'MPI_Win_fence()'
p142
S'129'
p143
tp144
a(S'MPI_Win_fence()'
p145
S'130'
p146
tp147
a(S'MPI_Win_free()'
p148
S'144'
p149
tp150
a(S'MPI_Win_free()'
p151
S'145'
p152
tp153
asS'GI_big/include/boost/mpi/datatype.hpp'
p154
(lp155
(S'X_MPI_LONG_DOUBLE_INT()'
p156
S'254'
p157
tp158
a(S'MPI_Type_contiguous()'
p159
S'323'
p160
tp161
a(S'MPI_Type_commit()'
p162
S'324'
p163
tp164
asS'GI_big/include/boost/mpi/timer.hpp'
p165
(lp166
(S'MPI_Wtime()'
p167
S'71'
p168
tp169
asS'GI_big/include/boost/mpi/collectives/broadcast.hpp'
p170
(lp171
(S'X_MPI_BYTE()'
p172
S'120'
p173
tp174
a(S'X_MPI_BYTE()'
p175
S'130'
p176
tp177
asS'GI_big/include/boost/mpi/operations.hpp'
p178
(lp179
(S'MPI_Op_free()'
p180
S'311'
p181
tp182
asS'GI_big/include/boost/mpi/allocator.hpp'
p183
(lp184
(S'X_MPI_INFO_NULL()'
p185
S'141'
p186
tp187
as.