ccollections
defaultdict
p0
(c__builtin__
list
p1
tp2
Rp3
S'CPEG614/chapel/chapel-1.9.0/third-party/gasnet/GASNet-1.22.0/configure.in'
p4
(lp5
(S'MPI_Init()'
p6
S'2738'
p7
tp8
a(S'MPI_Finalize()'
p9
S'2739'
p10
tp11
a(S'MPI_Init()'
p12
S'2749'
p13
tp14
a(S'MPI_Finalize()'
p15
S'2750'
p16
tp17
asS'CPEG614/chapel/chapel-1.9.0/third-party/qthread/qthread-1.10/test/benchmarks/mantevo/hpccg/compute_residual.cpp'
p18
(lp19
(S'MPI_Allreduce()'
p20
S'106'
p21
tp22
a(S'MPI_Allreduce()'
p23
S'136'
p24
tp25
asS'CPEG614/chapel/chapel-1.9.0/third-party/gasnet/GASNet-1.22.0/tests/mpi/testosumpi_bw2.c'
p26
(lp27
(S'MPI_Init()'
p28
S'43'
p29
tp30
a(S'MPI_Comm_size()'
p31
S'44'
p32
tp33
a(S'MPI_Comm_rank()'
p34
S'45'
p35
tp36
a(S'MPI_Wtime()'
p37
S'80'
p38
tp39
a(S'MPI_Irecv()'
p40
S'82'
p41
tp42
a(S'X_MPI_COMM_WORLD()'
p43
S'83'
p44
tp45
a(S'MPI_Isend()'
p46
S'85'
p47
tp48
a(S'X_MPI_COMM_WORLD()'
p49
S'86'
p50
tp51
a(S'MPI_Waitall()'
p52
S'87'
p53
tp54
a(S'MPI_Waitall()'
p55
S'88'
p56
tp57
a(S'MPI_Wtime()'
p58
S'92'
p59
tp60
a(S'MPI_Irecv()'
p61
S'100'
p62
tp63
a(S'X_MPI_COMM_WORLD()'
p64
S'101'
p65
tp66
a(S'MPI_Isend()'
p67
S'103'
p68
tp69
a(S'X_MPI_COMM_WORLD()'
p70
S'104'
p71
tp72
a(S'MPI_Waitall()'
p73
S'105'
p74
tp75
a(S'MPI_Waitall()'
p76
S'106'
p77
tp78
a(S'MPI_Finalize()'
p79
S'128'
p80
tp81
asS'CPEG614/chapel/chapel-1.9.0/third-party/gasnet/GASNet-1.22.0/other/ammpi/ammpi_reqrep.c'
p82
(lp83
(S'MPI_Issend()'
p84
S'105'
p85
tp86
a(S'MPI_Isend()'
p87
S'107'
p88
tp89
a(S'MPI_Bsend()'
p90
S'112'
p91
tp92
a(S'MPI_SAFE()'
p93
S'533'
p94
tp95
a(S'MPI_SAFE()'
p96
S'556'
p97
tp98
a(S'MPI_SAFE()'
p99
S'567'
p100
tp101
a(S'MPI_SAFE()'
p102
S'586'
p103
tp104
a(S'MPI_SAFE()'
p105
S'588'
p106
tp107
a(S'MPI_SAFE()'
p108
S'609'
p109
tp110
a(S'MPI_SAFE()'
p111
S'612'
p112
tp113
a(S'MPI_SAFE()'
p114
S'616'
p115
tp116
a(S'MPI_SAFE()'
p117
S'619'
p118
tp119
a(S'MPI_SAFE()'
p120
S'644'
p121
tp122
asS'CPEG614/chapel/chapel-1.9.0/third-party/gasnet/GASNet-1.22.0/tests/mpi/testmpiperf.c'
p123
(lp124
(S'MPI_SAFE()'
p125
S'67'
p126
tp127
a(S'MPI_SAFE()'
p128
S'68'
p129
tp130
a(S'MPI_SAFE()'
p131
S'69'
p132
tp133
a(S'MPI_SAFE()'
p134
S'90'
p135
tp136
a(S'MPI_SAFE()'
p137
S'101'
p138
tp139
a(S'MPI_SAFE()'
p140
S'108'
p141
tp142
a(S'MPI_Barrier()'
p143
S'159'
p144
tp145
a(S'MPI_SAFE()'
p146
S'204'
p147
tp148
a(S'MPI_SAFE()'
p149
S'219'
p150
tp151
a(S'MPI_SAFE()'
p152
S'221'
p153
tp154
a(S'MPI_SAFE()'
p155
S'225'
p156
tp157
a(S'MPI_SAFE()'
p158
S'230'
p159
tp160
a(S'MPI_SAFE()'
p161
S'240'
p162
tp163
a(S'MPI_SAFE()'
p164
S'249'
p165
tp166
a(S'MPI_SAFE()'
p167
S'251'
p168
tp169
a(S'MPI_SAFE()'
p170
S'255'
p171
tp172
a(S'MPI_SAFE()'
p173
S'259'
p174
tp175
a(S'MPI_SAFE()'
p176
S'265'
p177
tp178
a(S'MPI_SAFE()'
p179
S'281'
p180
tp181
a(S'MPI_SAFE()'
p182
S'334'
p183
tp184
a(S'MPI_SAFE()'
p185
S'350'
p186
tp187
a(S'MPI_SAFE()'
p188
S'362'
p189
tp190
a(S'MPI_SAFE()'
p191
S'371'
p192
tp193
a(S'MPI_SAFE()'
p194
S'383'
p195
tp196
a(S'MPI_SAFE()'
p197
S'390'
p198
tp199
a(S'MPI_SAFE()'
p200
S'400'
p201
tp202
a(S'MPI_SAFE()'
p203
S'463'
p204
tp205
a(S'MPI_SAFE()'
p206
S'478'
p207
tp208
a(S'MPI_SAFE()'
p209
S'487'
p210
tp211
a(S'MPI_SAFE()'
p212
S'493'
p213
tp214
a(S'MPI_Alltoall()'
p215
S'540'
p216
tp217
asS'CPEG614/chapel/chapel-1.9.0/third-party/gasnet/GASNet-1.22.0/shmem-conduit/gasnet_core.c'
p218
(lp219
(S'MPI_Init()'
p220
S'148'
p221
tp222
a(S'MPI_Finalize()'
p223
S'636'
p224
tp225
asS'CPEG614/chapel/chapel-1.9.0/third-party/gasnet/GASNet-1.22.0/tests/mpi/testosumpi2_put_bw.c'
p226
(lp227
(S'MPI_Init()'
p228
S'39'
p229
tp230
a(S'MPI_Comm_size()'
p231
S'40'
p232
tp233
a(S'MPI_Comm_rank()'
p234
S'41'
p235
tp236
a(S'MPI_Comm_group()'
p237
S'42'
p238
tp239
a(S'MPI_Win_create()'
p240
S'65'
p241
tp242
a(S'MPI_Group_incl()'
p243
S'68'
p244
tp245
a(S'MPI_Win_start()'
p246
S'71'
p247
tp248
a(S'MPI_Put()'
p249
S'72'
p250
tp251
a(S'MPI_Win_complete()'
p252
S'73'
p253
tp254
a(S'MPI_Win_create()'
p255
S'76'
p256
tp257
a(S'MPI_Group_incl()'
p258
S'78'
p259
tp260
a(S'MPI_Win_post()'
p261
S'81'
p262
tp263
a(S'MPI_Win_wait()'
p264
S'82'
p265
tp266
a(S'MPI_Barrier()'
p267
S'86'
p268
tp269
a(S'MPI_Win_start()'
p270
S'93'
p271
tp272
a(S'MPI_Put()'
p273
S'96'
p274
tp275
a(S'MPI_Win_complete()'
p276
S'98'
p277
tp278
a(S'MPI_Barrier()'
p279
S'101'
p280
tp281
a(S'MPI_Win_post()'
p282
S'107'
p283
tp284
a(S'MPI_Win_wait()'
p285
S'108'
p286
tp287
a(S'MPI_Barrier()'
p288
S'110'
p289
tp290
a(S'MPI_Win_free()'
p291
S'124'
p292
tp293
a(S'MPI_Barrier()'
p294
S'126'
p295
tp296
a(S'MPI_Finalize()'
p297
S'127'
p298
tp299
asS'CPEG614/chapel/chapel-1.9.0/third-party/gasnet/GASNet-1.22.0/tests/mpi/testosumpi_bcast_lat.c'
p300
(lp301
(S'MPI_Init()'
p302
S'36'
p303
tp304
a(S'MPI_Comm_rank()'
p305
S'37'
p306
tp307
a(S'MPI_Comm_size()'
p308
S'38'
p309
tp310
a(S'MPI_Barrier()'
p311
S'45'
p312
tp313
a(S'MPI_Barrier()'
p314
S'53'
p315
tp316
a(S'MPI_Bcast()'
p317
S'62'
p318
tp319
a(S'MPI_Recv()'
p320
S'65'
p321
tp322
a(S'MPI_Send()'
p323
S'72'
p324
tp325
a(S'MPI_Barrier()'
p326
S'88'
p327
tp328
a(S'MPI_Finalize()'
p329
S'91'
p330
tp331
a(S'MPI_Send()'
p332
S'105'
p333
tp334
a(S'MPI_Recv()'
p335
S'106'
p336
tp337
a(S'MPI_Recv()'
p338
S'113'
p339
tp340
a(S'MPI_Send()'
p341
S'115'
p342
tp343
asS'CPEG614/chapel/chapel-1.9.0/third-party/qthread/qthread-1.10/src/net/portals4/runtime-mpi.c'
p344
(lp345
(S'MPI_Initialized()'
p346
S'29'
p347
tp348
a(S'MPI_Finalized()'
p349
S'55'
p350
tp351
a(S'MPI_Finalize()'
p352
S'57'
p353
tp354
a(S'MPI_Barrier()'
p355
S'93'
p356
tp357
asS'CPEG614/chapel/chapel-1.9.0/third-party/gasnet/GASNet-1.22.0/tests/mpi/testosumpi2_put_bw2.c'
p358
(lp359
(S'MPI_Init()'
p360
S'40'
p361
tp362
a(S'MPI_Comm_size()'
p363
S'41'
p364
tp365
a(S'MPI_Comm_rank()'
p366
S'42'
p367
tp368
a(S'MPI_Comm_group()'
p369
S'43'
p370
tp371
a(S'MPI_Win_create()'
p372
S'66'
p373
tp374
a(S'MPI_Group_incl()'
p375
S'69'
p376
tp377
a(S'MPI_Win_post()'
p378
S'72'
p379
tp380
a(S'MPI_Win_start()'
p381
S'73'
p382
tp383
a(S'MPI_Put()'
p384
S'74'
p385
tp386
a(S'MPI_Win_complete()'
p387
S'75'
p388
tp389
a(S'MPI_Win_wait()'
p390
S'76'
p391
tp392
a(S'MPI_Win_create()'
p393
S'79'
p394
tp395
a(S'MPI_Group_incl()'
p396
S'81'
p397
tp398
a(S'MPI_Win_post()'
p399
S'84'
p400
tp401
a(S'MPI_Win_start()'
p402
S'85'
p403
tp404
a(S'MPI_Put()'
p405
S'86'
p406
tp407
a(S'MPI_Win_complete()'
p408
S'87'
p409
tp410
a(S'MPI_Win_wait()'
p411
S'88'
p412
tp413
a(S'MPI_Barrier()'
p414
S'92'
p415
tp416
a(S'MPI_Win_post()'
p417
S'99'
p418
tp419
a(S'MPI_Win_start()'
p420
S'100'
p421
tp422
a(S'MPI_Put()'
p423
S'103'
p424
tp425
a(S'MPI_Win_complete()'
p426
S'105'
p427
tp428
a(S'MPI_Win_wait()'
p429
S'106'
p430
tp431
a(S'MPI_Barrier()'
p432
S'109'
p433
tp434
a(S'MPI_Win_post()'
p435
S'115'
p436
tp437
a(S'MPI_Win_start()'
p438
S'116'
p439
tp440
a(S'MPI_Put()'
p441
S'119'
p442
tp443
a(S'MPI_Win_complete()'
p444
S'121'
p445
tp446
a(S'MPI_Win_wait()'
p447
S'122'
p448
tp449
a(S'MPI_Barrier()'
p450
S'124'
p451
tp452
a(S'MPI_Win_free()'
p453
S'138'
p454
tp455
a(S'MPI_Barrier()'
p456
S'140'
p457
tp458
a(S'MPI_Finalize()'
p459
S'141'
p460
tp461
asS'CPEG614/chapel/chapel-1.9.0/third-party/gasnet/GASNet-1.22.0/tests/mpi/testmpicollperf.c'
p462
(lp463
(S'MPI_Barrier()'
p464
S'15'
p465
tp466
a(S'MPI_Bcast()'
p467
S'40'
p468
tp469
a(S'MPI_Barrier()'
p470
S'43'
p471
tp472
a(S'MPI_Barrier()'
p473
S'47'
p474
tp475
a(S'MPI_Wtime()'
p476
S'49'
p477
tp478
a(S'MPI_Bcast()'
p479
S'51'
p480
tp481
a(S'MPI_Wtime()'
p482
S'53'
p483
tp484
a(S'MPI_Barrier()'
p485
S'54'
p486
tp487
a(S'MPI_Wtime()'
p488
S'60'
p489
tp490
a(S'MPI_Barrier()'
p491
S'61'
p492
tp493
a(S'MPI_Wtime()'
p494
S'65'
p495
tp496
a(S'MPI_Gather()'
p497
S'69'
p498
tp499
a(S'MPI_Gather()'
p500
S'70'
p501
tp502
a(S'MPI_Gather()'
p503
S'72'
p504
tp505
a(S'MPI_Gather()'
p506
S'73'
p507
tp508
a(S'MPI_Barrier()'
p509
S'111'
p510
tp511
a(S'MPI_Scatter()'
p512
S'113'
p513
tp514
a(S'MPI_Barrier()'
p515
S'117'
p516
tp517
a(S'MPI_Wtime()'
p518
S'119'
p519
tp520
a(S'MPI_Scatter()'
p521
S'121'
p522
tp523
a(S'MPI_Wtime()'
p524
S'124'
p525
tp526
a(S'MPI_Barrier()'
p527
S'125'
p528
tp529
a(S'MPI_Wtime()'
p530
S'130'
p531
tp532
a(S'MPI_Barrier()'
p533
S'131'
p534
tp535
a(S'MPI_Wtime()'
p536
S'135'
p537
tp538
a(S'MPI_Gather()'
p539
S'139'
p540
tp541
a(S'MPI_Gather()'
p542
S'140'
p543
tp544
a(S'MPI_Gather()'
p545
S'142'
p546
tp547
a(S'MPI_Gather()'
p548
S'143'
p549
tp550
a(S'MPI_Gather()'
p551
S'184'
p552
tp553
a(S'MPI_Barrier()'
p554
S'188'
p555
tp556
a(S'MPI_Wtime()'
p557
S'190'
p558
tp559
a(S'MPI_Gather()'
p560
S'192'
p561
tp562
a(S'MPI_Wtime()'
p563
S'195'
p564
tp565
a(S'MPI_Barrier()'
p566
S'197'
p567
tp568
a(S'MPI_Wtime()'
p569
S'202'
p570
tp571
a(S'MPI_Barrier()'
p572
S'203'
p573
tp574
a(S'MPI_Wtime()'
p575
S'207'
p576
tp577
a(S'MPI_Gather()'
p578
S'211'
p579
tp580
a(S'MPI_Gather()'
p581
S'212'
p582
tp583
a(S'MPI_Gather()'
p584
S'214'
p585
tp586
a(S'MPI_Gather()'
p587
S'215'
p588
tp589
a(S'MPI_Allgather()'
p590
S'255'
p591
tp592
a(S'MPI_Barrier()'
p593
S'258'
p594
tp595
a(S'MPI_Wtime()'
p596
S'260'
p597
tp598
a(S'MPI_Allgather()'
p599
S'262'
p600
tp601
a(S'MPI_Wtime()'
p602
S'265'
p603
tp604
a(S'MPI_Barrier()'
p605
S'266'
p606
tp607
a(S'MPI_Wtime()'
p608
S'270'
p609
tp610
a(S'MPI_Gather()'
p611
S'274'
p612
tp613
a(S'MPI_Gather()'
p614
S'275'
p615
tp616
a(S'MPI_Gather()'
p617
S'277'
p618
tp619
a(S'MPI_Gather()'
p620
S'278'
p621
tp622
a(S'MPI_Barrier()'
p623
S'316'
p624
tp625
a(S'MPI_Wtime()'
p626
S'318'
p627
tp628
a(S'MPI_Reduce()'
p629
S'320'
p630
tp631
a(S'MPI_Wtime()'
p632
S'323'
p633
tp634
a(S'MPI_Barrier()'
p635
S'324'
p636
tp637
a(S'MPI_Wtime()'
p638
S'327'
p639
tp640
a(S'MPI_Gather()'
p641
S'332'
p642
tp643
a(S'MPI_Gather()'
p644
S'333'
p645
tp646
a(S'MPI_Gather()'
p647
S'335'
p648
tp649
a(S'MPI_Gather()'
p650
S'336'
p651
tp652
a(S'MPI_Reduce()'
p653
S'374'
p654
tp655
a(S'MPI_Barrier()'
p656
S'377'
p657
tp658
a(S'MPI_Wtime()'
p659
S'379'
p660
tp661
a(S'MPI_Reduce()'
p662
S'381'
p663
tp664
a(S'MPI_Wtime()'
p665
S'384'
p666
tp667
a(S'MPI_Barrier()'
p668
S'386'
p669
tp670
a(S'MPI_Wtime()'
p671
S'392'
p672
tp673
a(S'MPI_Barrier()'
p674
S'393'
p675
tp676
a(S'MPI_Wtime()'
p677
S'397'
p678
tp679
a(S'MPI_Gather()'
p680
S'402'
p681
tp682
a(S'MPI_Gather()'
p683
S'403'
p684
tp685
a(S'MPI_Gather()'
p686
S'405'
p687
tp688
a(S'MPI_Gather()'
p689
S'406'
p690
tp691
a(S'MPI_Barrier()'
p692
S'448'
p693
tp694
a(S'MPI_Alltoall()'
p695
S'451'
p696
tp697
a(S'MPI_Barrier()'
p698
S'453'
p699
tp700
a(S'MPI_Barrier()'
p701
S'456'
p702
tp703
a(S'MPI_Wtime()'
p704
S'458'
p705
tp706
a(S'MPI_Alltoall()'
p707
S'460'
p708
tp709
a(S'MPI_Wtime()'
p710
S'464'
p711
tp712
a(S'MPI_Barrier()'
p713
S'466'
p714
tp715
a(S'MPI_Wtime()'
p716
S'468'
p717
tp718
a(S'MPI_Gather()'
p719
S'472'
p720
tp721
a(S'MPI_Gather()'
p722
S'473'
p723
tp724
a(S'MPI_Gather()'
p725
S'475'
p726
tp727
a(S'MPI_Gather()'
p728
S'476'
p729
tp730
a(S'MPI_Barrier()'
p731
S'508'
p732
tp733
a(S'MPI_Wtime()'
p734
S'510'
p735
tp736
a(S'MPI_Allreduce()'
p737
S'512'
p738
tp739
a(S'MPI_Wtime()'
p740
S'515'
p741
tp742
a(S'MPI_Gather()'
p743
S'519'
p744
tp745
a(S'MPI_Gather()'
p746
S'520'
p747
tp748
a(S'MPI_Gather()'
p749
S'522'
p750
tp751
a(S'MPI_Gather()'
p752
S'523'
p753
tp754
a(S'MPI_Init()'
p755
S'541'
p756
tp757
a(S'MPI_Comm_rank()'
p758
S'543'
p759
tp760
a(S'MPI_Comm_size()'
p761
S'544'
p762
tp763
a(S'MPI_Barrier()'
p764
S'553'
p765
tp766
a(S'MPI_Wtime()'
p767
S'554'
p768
tp769
a(S'MPI_Barrier()'
p770
S'556'
p771
tp772
a(S'MPI_Wtime()'
p773
S'558'
p774
tp775
a(S'MPI_Barrier()'
p776
S'577'
p777
tp778
a(S'MPI_Finalize()'
p779
S'578'
p780
tp781
asS'CPEG614/chapel/chapel-1.9.0/third-party/gasnet/GASNet-1.22.0/configure'
p782
(lp783
(S'MPI_Init()'
p784
S'155685'
p785
tp786
a(S'MPI_Finalize()'
p787
S'155686'
p788
tp789
a(S'MPI_Init()'
p790
S'155873'
p791
tp792
a(S'MPI_Finalize()'
p793
S'155874'
p794
tp795
asS'CPEG614/chapel/chapel-1.9.0/third-party/gasnet/GASNet-1.22.0/tests/mpi/testosumpi2_get_bw.c'
p796
(lp797
(S'MPI_Init()'
p798
S'39'
p799
tp800
a(S'MPI_Comm_size()'
p801
S'40'
p802
tp803
a(S'MPI_Comm_rank()'
p804
S'41'
p805
tp806
a(S'MPI_Comm_group()'
p807
S'42'
p808
tp809
a(S'MPI_Win_create()'
p810
S'65'
p811
tp812
a(S'MPI_Group_incl()'
p813
S'68'
p814
tp815
a(S'MPI_Win_start()'
p816
S'71'
p817
tp818
a(S'MPI_Get()'
p819
S'72'
p820
tp821
a(S'MPI_Win_complete()'
p822
S'73'
p823
tp824
a(S'MPI_Win_create()'
p825
S'76'
p826
tp827
a(S'MPI_Group_incl()'
p828
S'78'
p829
tp830
a(S'MPI_Win_post()'
p831
S'81'
p832
tp833
a(S'MPI_Win_wait()'
p834
S'82'
p835
tp836
a(S'MPI_Barrier()'
p837
S'86'
p838
tp839
a(S'MPI_Win_start()'
p840
S'93'
p841
tp842
a(S'MPI_Get()'
p843
S'96'
p844
tp845
a(S'MPI_Win_complete()'
p846
S'98'
p847
tp848
a(S'MPI_Barrier()'
p849
S'101'
p850
tp851
a(S'MPI_Win_post()'
p852
S'107'
p853
tp854
a(S'MPI_Win_wait()'
p855
S'108'
p856
tp857
a(S'MPI_Barrier()'
p858
S'110'
p859
tp860
a(S'MPI_Win_free()'
p861
S'124'
p862
tp863
a(S'MPI_Barrier()'
p864
S'126'
p865
tp866
a(S'MPI_Finalize()'
p867
S'127'
p868
tp869
asS'CPEG614/chapel/chapel-1.9.0/third-party/gasnet/GASNet-1.22.0/other/mpi-spawner/gasnet_bootstrap_mpi.c'
p870
(lp871
(S'MPI_Initialized()'
p872
S'37'
p873
tp874
a(S'MPI_Init()'
p875
S'40'
p876
tp877
a(S'MPI_Comm_group()'
p878
S'45'
p879
tp880
a(S'MPI_Comm_create()'
p881
S'47'
p882
tp883
a(S'MPI_Group_free()'
p884
S'49'
p885
tp886
a(S'MPI_Comm_size()'
p887
S'53'
p888
tp889
a(S'MPI_Comm_rank()'
p890
S'58'
p891
tp892
a(S'MPI_Comm_free()'
p893
S'72'
p894
tp895
a(S'MPI_Barrier()'
p896
S'96'
p897
tp898
a(S'MPI_Allgather()'
p899
S'112'
p900
tp901
a(S'MPI_Alltoall()'
p902
S'133'
p903
tp904
a(S'MPI_Bcast()'
p905
S'147'
p906
tp907
asS'CPEG614/chapel/chapel-1.9.0/third-party/qthread/qthread-1.10/test/benchmarks/mantevo/hpccg/main.cpp'
p908
(lp909
(S'MPI_Init()'
p910
S'109'
p911
tp912
a(S'MPI_Comm_size()'
p913
S'111'
p914
tp915
a(S'MPI_Comm_rank()'
p916
S'112'
p917
tp918
a(S'MPI_Barrier()'
p919
S'130'
p920
tp921
a(S'MPI_Allreduce()'
p922
S'177'
p923
tp924
a(S'MPI_Allreduce()'
p925
S'178'
p926
tp927
a(S'MPI_Allreduce()'
p928
S'179'
p929
tp930
a(S'MPI_Finalize()'
p931
S'236'
p932
tp933
asS'CPEG614/chapel/chapel-1.9.0/third-party/qthread/qthread-1.10/test/benchmarks/mantevo/hpccg/read_HPC_row.cpp'
p934
(lp935
(S'MPI_Comm_size()'
p936
S'81'
p937
tp938
a(S'MPI_Comm_rank()'
p939
S'82'
p940
tp941
asS'CPEG614/chapel/chapel-1.9.0/third-party/qthread/qthread-1.10/test/benchmarks/mantevo/hpccg/HPCCG.cpp'
p942
(lp943
(S'MPI_Comm_size()'
p944
S'83'
p945
tp946
a(S'MPI_Comm_rank()'
p947
S'84'
p948
tp949
asS'CPEG614/chapel/chapel-1.9.0/third-party/gasnet/GASNet-1.22.0/tests/mpi/testmpinbr.c'
p950
(lp951
(S'MPI_SAFE()'
p952
S'183'
p953
tp954
a(S'MPI_SAFE()'
p955
S'240'
p956
tp957
a(S'MPI_Gather()'
p958
S'241'
p959
tp960
a(S'MPI_SAFE()'
p961
S'348'
p962
tp963
a(S'MPI_SAFE()'
p964
S'349'
p965
tp966
a(S'MPI_SAFE()'
p967
S'350'
p968
tp969
a(S'MPI_SAFE()'
p970
S'364'
p971
tp972
a(S'MPI_SAFE()'
p973
S'374'
p974
tp975
a(S'MPI_SAFE()'
p976
S'687'
p977
tp978
a(S'MPI_SAFE()'
p979
S'755'
p980
tp981
a(S'MPI_Waitall()'
p982
S'756'
p983
tp984
a(S'MPI_SAFE()'
p985
S'814'
p986
tp987
a(S'MPI_Irecv()'
p988
S'815'
p989
tp990
a(S'X_MPI_COMM_WORLD()'
p991
S'816'
p992
tp993
a(S'MPI_Isend()'
p994
S'868'
p995
tp996
asS'CPEG614/chapel/chapel-1.9.0/third-party/gasnet/GASNet-1.22.0/tests/mpi/testosumpi2_get_lat.c'
p997
(lp998
(S'MPI_Init()'
p999
S'33'
p1000
tp1001
a(S'MPI_Comm_size()'
p1002
S'34'
p1003
tp1004
a(S'MPI_Comm_rank()'
p1005
S'35'
p1006
tp1007
a(S'MPI_Abort()'
p1008
S'39'
p1009
tp1010
a(S'MPI_Comm_group()'
p1011
S'59'
p1012
tp1013
a(S'MPI_Win_create()'
p1014
S'65'
p1015
tp1016
a(S'MPI_Group_incl()'
p1017
S'67'
p1018
tp1019
a(S'MPI_Barrier()'
p1020
S'68'
p1021
tp1022
a(S'MPI_Win_start()'
p1023
S'72'
p1024
tp1025
a(S'MPI_Get()'
p1026
S'76'
p1027
tp1028
a(S'MPI_Win_complete()'
p1029
S'77'
p1030
tp1031
a(S'MPI_Win_post()'
p1032
S'78'
p1033
tp1034
a(S'MPI_Win_wait()'
p1035
S'79'
p1036
tp1037
a(S'MPI_Win_create()'
p1038
S'84'
p1039
tp1040
a(S'MPI_Group_incl()'
p1041
S'86'
p1042
tp1043
a(S'MPI_Barrier()'
p1044
S'88'
p1045
tp1046
a(S'MPI_Win_post()'
p1047
S'92'
p1048
tp1049
a(S'MPI_Win_wait()'
p1050
S'93'
p1051
tp1052
a(S'MPI_Win_start()'
p1053
S'94'
p1054
tp1055
a(S'MPI_Get()'
p1056
S'95'
p1057
tp1058
a(S'MPI_Win_complete()'
p1059
S'96'
p1060
tp1061
a(S'MPI_Barrier()'
p1062
S'104'
p1063
tp1064
a(S'MPI_Group_free()'
p1065
S'105'
p1066
tp1067
a(S'MPI_Win_free()'
p1068
S'107'
p1069
tp1070
a(S'MPI_Group_free()'
p1071
S'110'
p1072
tp1073
a(S'MPI_Finalize()'
p1074
S'111'
p1075
tp1076
asS'CPEG614/chapel/chapel-1.9.0/third-party/gasnet/GASNet-1.22.0/tests/mpi/testosumpi2_put_lat.c'
p1077
(lp1078
(S'MPI_Init()'
p1079
S'33'
p1080
tp1081
a(S'MPI_Comm_size()'
p1082
S'34'
p1083
tp1084
a(S'MPI_Comm_rank()'
p1085
S'35'
p1086
tp1087
a(S'MPI_Abort()'
p1088
S'39'
p1089
tp1090
a(S'MPI_Comm_group()'
p1091
S'59'
p1092
tp1093
a(S'MPI_Win_create()'
p1094
S'65'
p1095
tp1096
a(S'MPI_Group_incl()'
p1097
S'67'
p1098
tp1099
a(S'MPI_Barrier()'
p1100
S'68'
p1101
tp1102
a(S'MPI_Win_start()'
p1103
S'72'
p1104
tp1105
a(S'MPI_Put()'
p1106
S'76'
p1107
tp1108
a(S'MPI_Win_complete()'
p1109
S'77'
p1110
tp1111
a(S'MPI_Win_post()'
p1112
S'78'
p1113
tp1114
a(S'MPI_Win_wait()'
p1115
S'79'
p1116
tp1117
a(S'MPI_Win_create()'
p1118
S'84'
p1119
tp1120
a(S'MPI_Group_incl()'
p1121
S'86'
p1122
tp1123
a(S'MPI_Barrier()'
p1124
S'88'
p1125
tp1126
a(S'MPI_Win_post()'
p1127
S'92'
p1128
tp1129
a(S'MPI_Win_wait()'
p1130
S'93'
p1131
tp1132
a(S'MPI_Win_start()'
p1133
S'94'
p1134
tp1135
a(S'MPI_Put()'
p1136
S'95'
p1137
tp1138
a(S'MPI_Win_complete()'
p1139
S'96'
p1140
tp1141
a(S'MPI_Barrier()'
p1142
S'104'
p1143
tp1144
a(S'MPI_Group_free()'
p1145
S'105'
p1146
tp1147
a(S'MPI_Win_free()'
p1148
S'107'
p1149
tp1150
a(S'MPI_Group_free()'
p1151
S'110'
p1152
tp1153
a(S'MPI_Finalize()'
p1154
S'111'
p1155
tp1156
asS'CPEG614/chapel/chapel-1.9.0/third-party/qthread/qthread-1.10/test/benchmarks/mantevo/hpccg/generate_matrix.cpp'
p1157
(lp1158
(S'MPI_Comm_size()'
p1159
S'58'
p1160
tp1161
a(S'MPI_Comm_rank()'
p1162
S'59'
p1163
tp1164
asS'CPEG614/chapel/chapel-1.9.0/third-party/qthread/qthread-1.10/test/benchmarks/mantevo/hpccg/make_local_matrix.cpp'
p1165
(lp1166
(S'MPI_Comm_size()'
p1167
S'62'
p1168
tp1169
a(S'MPI_Comm_rank()'
p1170
S'63'
p1171
tp1172
a(S'MPI_Allreduce()'
p1173
S'172'
p1174
tp1175
a(S'X_MPI_SUM()'
p1176
S'173'
p1177
tp1178
a(S'MPI_Allreduce()'
p1179
S'291'
p1180
tp1181
a(S'MPI_Irecv()'
p1182
S'374'
p1183
tp1184
a(S'X_MPI_COMM_WORLD()'
p1185
S'375'
p1186
tp1187
a(S'MPI_Send()'
p1188
S'381'
p1189
tp1190
a(S'MPI_Irecv()'
p1191
S'473'
p1192
tp1193
a(S'MPI_Send()'
p1194
S'506'
p1195
tp1196
a(S'MPI_Irecv()'
p1197
S'533'
p1198
tp1199
a(S'X_MPI_MY_TAG()'
p1200
S'534'
p1201
tp1202
a(S'MPI_Send()'
p1203
S'555'
p1204
tp1205
a(S'X_MPI_MY_TAG()'
p1206
S'556'
p1207
tp1208
asS'CPEG614/chapel/chapel-1.9.0/third-party/qthread/qthread-1.10/test/benchmarks/mantevo/hpccg/ddot.cpp'
p1209
(lp1210
(S'MPI_Allreduce()'
p1211
S'120'
p1212
tp1213
a(S'MPI_Allreduce()'
p1214
S'155'
p1215
tp1216
asS'CPEG614/chapel/chapel-1.9.0/third-party/gasnet/GASNet-1.22.0/tests/mpi/testosumpi_lat.c'
p1217
(lp1218
(S'MPI_Init()'
p1219
S'38'
p1220
tp1221
a(S'MPI_Comm_size()'
p1222
S'39'
p1223
tp1224
a(S'MPI_Comm_rank()'
p1225
S'40'
p1226
tp1227
a(S'MPI_Barrier()'
p1228
S'75'
p1229
tp1230
a(S'MPI_Wtime()'
p1231
S'80'
p1232
tp1233
a(S'MPI_Send()'
p1234
S'81'
p1235
tp1236
a(S'MPI_Recv()'
p1237
S'83'
p1238
tp1239
a(S'MPI_Recv()'
p1240
S'85'
p1241
tp1242
a(S'MPI_Wtime()'
p1243
S'87'
p1244
tp1245
a(S'MPI_Recv()'
p1246
S'91'
p1247
tp1248
a(S'MPI_Send()'
p1249
S'93'
p1250
tp1251
a(S'MPI_Send()'
p1252
S'95'
p1253
tp1254
a(S'MPI_Finalize()'
p1255
S'112'
p1256
tp1257
asS'CPEG614/chapel/chapel-1.9.0/third-party/gasnet/GASNet-1.22.0/README'
p1258
(lp1259
(S'MPI_Barrier()'
p1260
S'722'
p1261
tp1262
asS'CPEG614/chapel/chapel-1.9.0/third-party/gasnet/GASNet-1.22.0/tests/mpi/testosumpi2_acc_lat.c'
p1263
(lp1264
(S'MPI_Init()'
p1265
S'35'
p1266
tp1267
a(S'MPI_Comm_size()'
p1268
S'36'
p1269
tp1270
a(S'MPI_Comm_rank()'
p1271
S'37'
p1272
tp1273
a(S'MPI_Comm_group()'
p1274
S'38'
p1275
tp1276
a(S'MPI_Win_create()'
p1277
S'67'
p1278
tp1279
a(S'MPI_Group_incl()'
p1280
S'69'
p1281
tp1282
a(S'MPI_Barrier()'
p1283
S'70'
p1284
tp1285
a(S'MPI_Win_start()'
p1286
S'74'
p1287
tp1288
a(S'MPI_Accumulate()'
p1289
S'76'
p1290
tp1291
a(S'MPI_Win_complete()'
p1292
S'77'
p1293
tp1294
a(S'MPI_Win_post()'
p1295
S'78'
p1296
tp1297
a(S'MPI_Win_wait()'
p1298
S'79'
p1299
tp1300
a(S'MPI_Win_free()'
p1301
S'82'
p1302
tp1303
a(S'MPI_Win_create()'
p1304
S'87'
p1305
tp1306
a(S'MPI_Group_incl()'
p1307
S'89'
p1308
tp1309
a(S'MPI_Barrier()'
p1310
S'90'
p1311
tp1312
a(S'MPI_Win_post()'
p1313
S'94'
p1314
tp1315
a(S'MPI_Win_wait()'
p1316
S'95'
p1317
tp1318
a(S'MPI_Win_start()'
p1319
S'96'
p1320
tp1321
a(S'MPI_Accumulate()'
p1322
S'97'
p1323
tp1324
a(S'MPI_Win_complete()'
p1325
S'98'
p1326
tp1327
a(S'MPI_Win_free()'
p1328
S'101'
p1329
tp1330
a(S'MPI_Finalize()'
p1331
S'113'
p1332
tp1333
asS'CPEG614/chapel/chapel-1.9.0/third-party/gasnet/GASNet-1.22.0/tests/mpi/testosumpi_bw.c'
p1334
(lp1335
(S'MPI_Init()'
p1336
S'42'
p1337
tp1338
a(S'MPI_Comm_size()'
p1339
S'43'
p1340
tp1341
a(S'MPI_Comm_rank()'
p1342
S'44'
p1343
tp1344
a(S'MPI_Wtime()'
p1345
S'80'
p1346
tp1347
a(S'MPI_Isend()'
p1348
S'82'
p1349
tp1350
a(S'X_MPI_COMM_WORLD()'
p1351
S'83'
p1352
tp1353
a(S'MPI_Waitall()'
p1354
S'85'
p1355
tp1356
a(S'MPI_Recv()'
p1357
S'86'
p1358
tp1359
a(S'MPI_Wtime()'
p1360
S'91'
p1361
tp1362
a(S'MPI_Irecv()'
p1363
S'99'
p1364
tp1365
a(S'X_MPI_COMM_WORLD()'
p1366
S'100'
p1367
tp1368
a(S'MPI_Waitall()'
p1369
S'102'
p1370
tp1371
a(S'MPI_Send()'
p1372
S'103'
p1373
tp1374
a(S'MPI_Finalize()'
p1375
S'125'
p1376
tp1377
asS'CPEG614/chapel/chapel-1.9.0/third-party/gasnet/GASNet-1.22.0/other/ammpi/ammpi_ep.c'
p1378
(lp1379
(S'MPI_SAFE()'
p1380
S'185'
p1381
tp1382
a(S'MPI_SAFE()'
p1383
S'190'
p1384
tp1385
a(S'MPI_SAFE()'
p1386
S'191'
p1387
tp1388
a(S'MPI_SAFE()'
p1389
S'192'
p1390
tp1391
a(S'MPI_SAFE()'
p1392
S'195'
p1393
tp1394
a(S'MPI_SAFE()'
p1395
S'198'
p1396
tp1397
a(S'MPI_SAFE()'
p1398
S'199'
p1399
tp1400
a(S'MPI_SAFE()'
p1401
S'268'
p1402
tp1403
a(S'MPI_SAFE()'
p1404
S'269'
p1405
tp1406
a(S'MPI_SAFE()'
p1407
S'334'
p1408
tp1409
a(S'X_MPI_ANY_SOURCE()'
p1410
S'335'
p1411
tp1412
a(S'MPI_SAFE()'
p1413
S'483'
p1414
tp1415
a(S'MPI_SAFE()'
p1416
S'532'
p1417
tp1418
a(S'MPI_SAFE()'
p1419
S'672'
p1420
tp1421
a(S'MPI_SAFE()'
p1422
S'702'
p1423
tp1424
a(S'MPI_SAFE()'
p1425
S'910'
p1426
tp1427
a(S'MPI_SAFE()'
p1428
S'928'
p1429
tp1430
asS'CPEG614/chapel/chapel-1.9.0/third-party/gasnet/GASNet-1.22.0/other/ammpi/ammpi_spmd.c'
p1431
(lp1432
(S'MPI_SAFE()'
p1433
S'138'
p1434
tp1435
a(S'MPI_SAFE()'
p1436
S'147'
p1437
tp1438
a(S'MPI_SAFE()'
p1439
S'183'
p1440
tp1441
a(S'MPI_SAFE()'
p1442
S'185'
p1443
tp1444
a(S'MPI_SAFE()'
p1445
S'209'
p1446
tp1447
a(S'MPI_SAFE()'
p1448
S'210'
p1449
tp1450
a(S'MPI_SAFE()'
p1451
S'238'
p1452
tp1453
a(S'MPI_SAFE()'
p1454
S'239'
p1455
tp1456
a(S'MPI_SAFE()'
p1457
S'240'
p1458
tp1459
a(S'MPI_SAFE()'
p1460
S'247'
p1461
tp1462
a(S'MPI_SAFE()'
p1463
S'273'
p1464
tp1465
a(S'MPI_SAFE()'
p1466
S'277'
p1467
tp1468
a(S'MPI_SAFE()'
p1469
S'322'
p1470
tp1471
a(S'MPI_SAFE()'
p1472
S'407'
p1473
tp1474
a(S'MPI_SAFE()'
p1475
S'410'
p1476
tp1477
a(S'MPI_SAFE()'
p1478
S'413'
p1479
tp1480
a(S'MPI_SAFE()'
p1481
S'534'
p1482
tp1483
a(S'MPI_SAFE()'
p1484
S'543'
p1485
tp1486
asS'CPEG614/chapel/chapel-1.9.0/third-party/qthread/qthread-1.10/test/benchmarks/mantevo/hpccg/exchange_externals.cpp'
p1487
(lp1488
(S'MPI_Comm_size()'
p1489
S'55'
p1490
tp1491
a(S'MPI_Comm_rank()'
p1492
S'56'
p1493
tp1494
a(S'MPI_Irecv()'
p1495
S'77'
p1496
tp1497
a(S'X_MPI_COMM_WORLD()'
p1498
S'78'
p1499
tp1500
a(S'MPI_Send()'
p1501
S'96'
p1502
tp1503
asS'CPEG614/chapel/chapel-1.9.0/third-party/gasnet/GASNet-1.22.0/tests/testmpi.c'
p1504
(lp1505
(S'MPI_SAFE()'
p1506
S'75'
p1507
tp1508
a(S'MPI_SAFE()'
p1509
S'78'
p1510
tp1511
a(S'MPI_SAFE()'
p1512
S'85'
p1513
tp1514
a(S'MPI_SAFE()'
p1515
S'103'
p1516
tp1517
a(S'MPI_SAFE()'
p1518
S'109'
p1519
tp1520
a(S'MPI_SAFE()'
p1521
S'110'
p1522
tp1523
a(S'MPI_SAFE()'
p1524
S'116'
p1525
tp1526
a(S'MPI_SAFE()'
p1527
S'136'
p1528
tp1529
a(S'MPI_SAFE()'
p1530
S'154'
p1531
tp1532
a(S'MPI_SAFE()'
p1533
S'161'
p1534
tp1535
a(S'MPI_LOCK()'
p1536
S'191'
p1537
tp1538
a(S'MPI_SAFE()'
p1539
S'200'
p1540
tp1541
a(S'MPI_UNLOCK()'
p1542
S'203'
p1543
tp1544
a(S'MPI_LOCK()'
p1545
S'217'
p1546
tp1547
a(S'MPI_SAFE()'
p1548
S'221'
p1549
tp1550
a(S'MPI_SAFE()'
p1551
S'228'
p1552
tp1553
a(S'MPI_SAFE()'
p1554
S'234'
p1555
tp1556
a(S'MPI_UNLOCK()'
p1557
S'243'
p1558
tp1559
a(S'MPI_LOCK()'
p1560
S'269'
p1561
tp1562
a(S'MPI_SAFE()'
p1563
S'271'
p1564
tp1565
a(S'MPI_UNLOCK()'
p1566
S'273'
p1567
tp1568
a(S'MPI_LOCK()'
p1569
S'310'
p1570
tp1571
a(S'MPI_SAFE()'
p1572
S'313'
p1573
tp1574
a(S'MPI_SAFE()'
p1575
S'317'
p1576
tp1577
a(S'MPI_UNLOCK()'
p1578
S'320'
p1579
tp1580
as.