ccollections
defaultdict
p0
(c__builtin__
list
p1
tp2
Rp3
S'learning_documents/\xe5\xb9\xb6\xe8\xa1\x8c\xe7\xa8\x8b\xe5\xba\x8f\xe8\xae\xbe\xe8\xae\xa1/parallel/\xe5\xb9\xb6\xe8\xa1\x8c\xe5\xae\x9e\xe9\xaa\x8c+\xe5\x90\xb4\xe7\x87\x95\xe6\x99\xb6+SA17011125/rank_sort.c'
p4
(lp5
(S'MPI_Init()'
p6
S'22'
p7
tp8
a(S'MPI_Comm_rank()'
p9
S'23'
p10
tp11
a(S'MPI_Comm_size()'
p12
S'24'
p13
tp14
a(S'MPI_Wtime()'
p15
S'28'
p16
tp17
a(S'MPI_Bcast()'
p18
S'34'
p19
tp20
a(S'MPI_Bcast()'
p21
S'72'
p22
tp23
a(S'MPI_Recv()'
p24
S'81'
p25
tp26
a(S'MPI_Recv()'
p27
S'83'
p28
tp29
a(S'MPI_Send()'
p30
S'87'
p31
tp32
a(S'MPI_Wtime()'
p33
S'100'
p34
tp35
a(S'MPI_Finalize()'
p36
S'104'
p37
tp38
asS'learning_documents/\xe5\xb9\xb6\xe8\xa1\x8c\xe8\xae\xa1\xe7\xae\x97/\xe7\xac\xac\xe4\xb8\x80\xe6\xac\xa1\xe8\xaf\x95\xe9\xaa\x8c/mywork/sushu_mpi.cc'
p39
(lp40
(S'MPI_Comm_size()'
p41
S'28'
p42
tp43
a(S'MPI_Comm_rank()'
p44
S'29'
p45
tp46
a(S'MPI_Wtime()'
p47
S'33'
p48
tp49
a(S'MPI_Bcast()'
p50
S'35'
p51
tp52
a(S'MPI_Reduce()'
p53
S'41'
p54
tp55
a(S'MPI_Wtime()'
p56
S'44'
p57
tp58
a(S'MPI_Wtime()'
p59
S'51'
p60
tp61
a(S'MPI_Wtime()'
p62
S'55'
p63
tp64
a(S'MPI_Init()'
p65
S'63'
p66
tp67
a(S'MPI_Finalize()'
p68
S'68'
p69
tp70
asS'learning_documents/\xe5\xb9\xb6\xe8\xa1\x8c\xe8\xae\xa1\xe7\xae\x97/\xe7\xac\xac\xe4\xb8\x89\xe6\xac\xa1\xe5\xae\x9e\xe9\xaa\x8c/SA17011125_\xe5\x90\xb4\xe7\x87\x95\xe6\x99\xb6_\xe5\xae\x9e\xe9\xaa\x8c3/Sourcecode/ball_mpi.cc'
p71
(lp72
(S'MPI_Comm_rank()'
p73
S'81'
p74
tp75
a(S'MPI_Comm_size()'
p76
S'82'
p77
tp78
a(S'MPI_Wtime()'
p79
S'88'
p80
tp81
a(S'MPI_Address()'
p82
S'123'
p83
tp84
a(S'MPI_Address()'
p85
S'124'
p86
tp87
a(S'MPI_Address()'
p88
S'125'
p89
tp90
a(S'MPI_Address()'
p91
S'126'
p92
tp93
a(S'MPI_Address()'
p94
S'127'
p95
tp96
a(S'MPI_Address()'
p97
S'128'
p98
tp99
a(S'MPI_Type_struct()'
p100
S'132'
p101
tp102
a(S'MPI_Type_commit()'
p103
S'133'
p104
tp105
a(S'MPI_Send()'
p106
S'142'
p107
tp108
a(S'MPI_Recv()'
p109
S'146'
p110
tp111
a(S'MPI_Send()'
p112
S'150'
p113
tp114
a(S'MPI_Recv()'
p115
S'155'
p116
tp117
a(S'MPI_Wtime()'
p118
S'174'
p119
tp120
a(S'MPI_Wtime()'
p121
S'188'
p122
tp123
a(S'MPI_Wtime()'
p124
S'211'
p125
tp126
a(S'MPI_Init()'
p127
S'217'
p128
tp129
a(S'MPI_Finalize()'
p130
S'222'
p131
tp132
asS'learning_documents/\xe5\xb9\xb6\xe8\xa1\x8c\xe7\xa8\x8b\xe5\xba\x8f\xe8\xae\xbe\xe8\xae\xa1/parallel/\xe5\xb9\xb6\xe8\xa1\x8c\xe5\xae\x9e\xe9\xaa\x8c+\xe5\x90\xb4\xe7\x87\x95\xe6\x99\xb6+SA17011125/connect.c'
p133
(lp134
(S'MPI_Bcast()'
p135
S'70'
p136
tp137
a(S'MPI_Init()'
p138
S'177'
p139
tp140
a(S'MPI_Comm_size()'
p141
S'178'
p142
tp143
a(S'MPI_Comm_rank()'
p144
S'179'
p145
tp146
a(S'MPI_Barrier()'
p147
S'182'
p148
tp149
a(S'MPI_Barrier()'
p150
S'189'
p151
tp152
a(S'MPI_Bcast()'
p153
S'191'
p154
tp155
a(S'MPI_Barrier()'
p156
S'206'
p157
tp158
a(S'MPI_Gather()'
p159
S'207'
p160
tp161
a(S'MPI_Barrier()'
p162
S'210'
p163
tp164
a(S'MPI_Send()'
p165
S'215'
p166
tp167
a(S'MPI_Recv()'
p168
S'217'
p169
tp170
a(S'MPI_Barrier()'
p171
S'218'
p172
tp173
a(S'MPI_Barrier()'
p174
S'229'
p175
tp176
a(S'MPI_Gather()'
p177
S'230'
p178
tp179
a(S'MPI_Barrier()'
p180
S'233'
p181
tp182
a(S'MPI_Barrier()'
p183
S'238'
p184
tp185
a(S'MPI_Gather()'
p186
S'239'
p187
tp188
a(S'MPI_Gather()'
p189
S'240'
p190
tp191
a(S'MPI_Barrier()'
p192
S'241'
p193
tp194
a(S'MPI_Gather()'
p195
S'253'
p196
tp197
a(S'MPI_Gather()'
p198
S'260'
p199
tp200
a(S'MPI_Finalize()'
p201
S'274'
p202
tp203
asS'learning_documents/\xe5\xb9\xb6\xe8\xa1\x8c\xe8\xae\xa1\xe7\xae\x97/\xe7\xac\xac\xe4\xba\x8c\xe6\xac\xa1\xe8\xaf\x95\xe9\xaa\x8c/SA17011125_\xe5\x90\xb4\xe7\x87\x95\xe6\x99\xb6_\xe5\xae\x9e\xe9\xaa\x8c2/src/nasch.cc'
p204
(lp205
(S'MPI_Comm_rank()'
p206
S'36'
p207
tp208
a(S'MPI_Comm_size()'
p209
S'37'
p210
tp211
a(S'MPI_Wtime()'
p212
S'52'
p213
tp214
a(S'MPI_Send()'
p215
S'61'
p216
tp217
a(S'MPI_Recv()'
p218
S'79'
p219
tp220
a(S'MPI_Send()'
p221
S'103'
p222
tp223
a(S'MPI_Wtime()'
p224
S'110'
p225
tp226
a(S'MPI_Init()'
p227
S'131'
p228
tp229
a(S'MPI_Finalize()'
p230
S'135'
p231
tp232
asS'learning_documents/\xe5\xb9\xb6\xe8\xa1\x8c\xe7\xa8\x8b\xe5\xba\x8f\xe8\xae\xbe\xe8\xae\xa1/parallel/test/connect.c'
p233
(lp234
(S'MPI_Bcast()'
p235
S'70'
p236
tp237
a(S'MPI_Init()'
p238
S'177'
p239
tp240
a(S'MPI_Comm_size()'
p241
S'178'
p242
tp243
a(S'MPI_Comm_rank()'
p244
S'179'
p245
tp246
a(S'MPI_Barrier()'
p247
S'182'
p248
tp249
a(S'MPI_Barrier()'
p250
S'189'
p251
tp252
a(S'MPI_Bcast()'
p253
S'191'
p254
tp255
a(S'MPI_Barrier()'
p256
S'206'
p257
tp258
a(S'MPI_Gather()'
p259
S'207'
p260
tp261
a(S'MPI_Barrier()'
p262
S'210'
p263
tp264
a(S'MPI_Send()'
p265
S'215'
p266
tp267
a(S'MPI_Recv()'
p268
S'217'
p269
tp270
a(S'MPI_Barrier()'
p271
S'218'
p272
tp273
a(S'MPI_Barrier()'
p274
S'229'
p275
tp276
a(S'MPI_Gather()'
p277
S'230'
p278
tp279
a(S'MPI_Barrier()'
p280
S'233'
p281
tp282
a(S'MPI_Barrier()'
p283
S'238'
p284
tp285
a(S'MPI_Gather()'
p286
S'239'
p287
tp288
a(S'MPI_Gather()'
p289
S'240'
p290
tp291
a(S'MPI_Barrier()'
p292
S'241'
p293
tp294
a(S'MPI_Gather()'
p295
S'253'
p296
tp297
a(S'MPI_Gather()'
p298
S'260'
p299
tp300
a(S'MPI_Finalize()'
p301
S'274'
p302
tp303
asS'learning_documents/\xe5\xb9\xb6\xe8\xa1\x8c\xe7\xa8\x8b\xe5\xba\x8f\xe8\xae\xbe\xe8\xae\xa1/parallel/\xe5\xb9\xb6\xe8\xa1\x8c\xe5\xae\x9e\xe9\xaa\x8c+\xe5\x90\xb4\xe7\x87\x95\xe6\x99\xb6+SA17011125/15-2/connect.c'
p304
(lp305
(S'MPI_Bcast()'
p306
S'67'
p307
tp308
a(S'MPI_Init()'
p309
S'157'
p310
tp311
a(S'MPI_Comm_size()'
p312
S'158'
p313
tp314
a(S'MPI_Comm_rank()'
p315
S'159'
p316
tp317
a(S'MPI_Barrier()'
p318
S'162'
p319
tp320
a(S'MPI_Barrier()'
p321
S'169'
p322
tp323
a(S'MPI_Bcast()'
p324
S'171'
p325
tp326
a(S'MPI_Barrier()'
p327
S'186'
p328
tp329
a(S'MPI_Gather()'
p330
S'187'
p331
tp332
a(S'MPI_Barrier()'
p333
S'190'
p334
tp335
a(S'MPI_Send()'
p336
S'195'
p337
tp338
a(S'MPI_Recv()'
p339
S'197'
p340
tp341
a(S'MPI_Barrier()'
p342
S'198'
p343
tp344
a(S'MPI_Barrier()'
p345
S'209'
p346
tp347
a(S'MPI_Gather()'
p348
S'210'
p349
tp350
a(S'MPI_Barrier()'
p351
S'213'
p352
tp353
a(S'MPI_Barrier()'
p354
S'218'
p355
tp356
a(S'MPI_Gather()'
p357
S'219'
p358
tp359
a(S'MPI_Gather()'
p360
S'220'
p361
tp362
a(S'MPI_Barrier()'
p363
S'221'
p364
tp365
a(S'MPI_Gather()'
p366
S'233'
p367
tp368
a(S'MPI_Gather()'
p369
S'240'
p370
tp371
a(S'MPI_Finalize()'
p372
S'254'
p373
tp374
asS'learning_documents/\xe5\xb9\xb6\xe8\xa1\x8c\xe7\xa8\x8b\xe5\xba\x8f\xe8\xae\xbe\xe8\xae\xa1/parallel/13-1/rank_sort.c'
p375
(lp376
(S'MPI_Init()'
p377
S'22'
p378
tp379
a(S'MPI_Comm_rank()'
p380
S'23'
p381
tp382
a(S'MPI_Comm_size()'
p383
S'24'
p384
tp385
a(S'MPI_Wtime()'
p386
S'28'
p387
tp388
a(S'MPI_Bcast()'
p389
S'34'
p390
tp391
a(S'MPI_Bcast()'
p392
S'72'
p393
tp394
a(S'MPI_Recv()'
p395
S'81'
p396
tp397
a(S'MPI_Recv()'
p398
S'83'
p399
tp400
a(S'MPI_Send()'
p401
S'87'
p402
tp403
a(S'MPI_Wtime()'
p404
S'100'
p405
tp406
a(S'MPI_Finalize()'
p407
S'104'
p408
tp409
asS'learning_documents/\xe5\xb9\xb6\xe8\xa1\x8c\xe7\xa8\x8b\xe5\xba\x8f\xe8\xae\xbe\xe8\xae\xa1/parallel/\xe5\xb9\xb6\xe8\xa1\x8c\xe5\xae\x9e\xe9\xaa\x8c+\xe5\x90\xb4\xe7\x87\x95\xe6\x99\xb6+SA17011125/or_brocast.c'
p410
(lp411
(S'MPI_Init()'
p412
S'13'
p413
tp414
a(S'MPI_Comm_dup()'
p415
S'14'
p416
tp417
a(S'MPI_Comm_rank()'
p418
S'15'
p419
tp420
a(S'MPI_Comm_size()'
p421
S'16'
p422
tp423
a(S'MPI_Wtime()'
p424
S'30'
p425
tp426
a(S'MPI_Bcast()'
p427
S'38'
p428
tp429
a(S'MPI_Barrier()'
p430
S'39'
p431
tp432
a(S'MPI_Finalize()'
p433
S'46'
p434
tp435
a(S'MPI_Wtime()'
p436
S'49'
p437
tp438
asS'learning_documents/\xe5\xb9\xb6\xe8\xa1\x8c\xe7\xa8\x8b\xe5\xba\x8f\xe8\xae\xbe\xe8\xae\xa1/parallel/test/queen.c'
p439
(lp440
(S'MPI_Recv()'
p441
S'113'
p442
tp443
a(S'MPI_Recv()'
p444
S'116'
p445
tp446
a(S'MPI_Recv()'
p447
S'118'
p448
tp449
a(S'MPI_Send()'
p450
S'125'
p451
tp452
a(S'MPI_Send()'
p453
S'126'
p454
tp455
a(S'MPI_Send()'
p456
S'128'
p457
tp458
a(S'MPI_Send()'
p459
S'145'
p460
tp461
a(S'MPI_Recv()'
p462
S'148'
p463
tp464
a(S'MPI_Recv()'
p465
S'150'
p466
tp467
a(S'MPI_Send()'
p468
S'155'
p469
tp470
a(S'MPI_Send()'
p471
S'156'
p472
tp473
a(S'MPI_Send()'
p474
S'158'
p475
tp476
a(S'MPI_Init()'
p477
S'171'
p478
tp479
a(S'MPI_Comm_size()'
p480
S'172'
p481
tp482
a(S'MPI_Comm_rank()'
p483
S'173'
p484
tp485
a(S'MPI_Finalize()'
p486
S'192'
p487
tp488
asS'learning_documents/\xe5\xb9\xb6\xe8\xa1\x8c\xe8\xae\xa1\xe7\xae\x97/\xe7\xac\xac\xe4\xba\x94\xe6\xac\xa1\xe5\xae\x9e\xe9\xaa\x8c/SA17011125_\xe5\x90\xb4\xe7\x87\x95\xe6\x99\xb6_\xe5\xae\x9e\xe9\xaa\x8c5/rank_sort_mpi.cc'
p489
(lp490
(S'MPI_Init()'
p491
S'45'
p492
tp493
a(S'MPI_Comm_rank()'
p494
S'46'
p495
tp496
a(S'MPI_Comm_size()'
p497
S'47'
p498
tp499
a(S'MPI_Wtime()'
p500
S'51'
p501
tp502
a(S'MPI_Bcast()'
p503
S'54'
p504
tp505
a(S'MPI_Bcast()'
p506
S'90'
p507
tp508
a(S'MPI_Recv()'
p509
S'99'
p510
tp511
a(S'MPI_Recv()'
p512
S'101'
p513
tp514
a(S'MPI_Send()'
p515
S'105'
p516
tp517
a(S'MPI_Wtime()'
p518
S'117'
p519
tp520
a(S'MPI_Finalize()'
p521
S'126'
p522
tp523
asS'learning_documents/\xe5\xb9\xb6\xe8\xa1\x8c\xe7\xa8\x8b\xe5\xba\x8f\xe8\xae\xbe\xe8\xae\xa1/parallel/test/or_brocast.c'
p524
(lp525
(S'MPI_Init()'
p526
S'13'
p527
tp528
a(S'MPI_Comm_dup()'
p529
S'14'
p530
tp531
a(S'MPI_Comm_rank()'
p532
S'15'
p533
tp534
a(S'MPI_Comm_size()'
p535
S'16'
p536
tp537
a(S'MPI_Wtime()'
p538
S'30'
p539
tp540
a(S'MPI_Bcast()'
p541
S'38'
p542
tp543
a(S'MPI_Barrier()'
p544
S'39'
p545
tp546
a(S'MPI_Finalize()'
p547
S'46'
p548
tp549
a(S'MPI_Wtime()'
p550
S'49'
p551
tp552
asS'learning_documents/\xe5\xb9\xb6\xe8\xa1\x8c\xe8\xae\xa1\xe7\xae\x97/\xe7\xac\xac\xe4\xb8\x80\xe6\xac\xa1\xe8\xaf\x95\xe9\xaa\x8c/SA17011125_\xe5\x90\xb4\xe7\x87\x95\xe6\x99\xb6_\xe5\xae\x9e\xe9\xaa\x8c1/src/pi_mpi.cc'
p553
(lp554
(S'MPI_Comm_size()'
p555
S'16'
p556
tp557
a(S'MPI_Comm_rank()'
p558
S'17'
p559
tp560
a(S'MPI_Wtime()'
p561
S'21'
p562
tp563
a(S'MPI_Reduce()'
p564
S'28'
p565
tp566
a(S'MPI_Wtime()'
p567
S'31'
p568
tp569
a(S'MPI_Wtime()'
p570
S'36'
p571
tp572
a(S'MPI_Wtime()'
p573
S'43'
p574
tp575
a(S'MPI_Init()'
p576
S'52'
p577
tp578
a(S'MPI_Finalize()'
p579
S'57'
p580
tp581
asS'learning_documents/\xe5\xb9\xb6\xe8\xa1\x8c\xe7\xa8\x8b\xe5\xba\x8f\xe8\xae\xbe\xe8\xae\xa1/parallel/test/splitcomm.c'
p582
(lp583
(S'MPI_Init()'
p584
S'9'
p585
tp586
a(S'MPI_Get_processor_name()'
p587
S'10'
p588
tp589
a(S'MPI_Comm_dup()'
p590
S'13'
p591
tp592
a(S'MPI_Comm_rank()'
p593
S'14'
p594
tp595
a(S'MPI_Comm_size()'
p596
S'15'
p597
tp598
a(S'MPI_Comm_split()'
p599
S'18'
p600
tp601
a(S'MPI_Comm_rank()'
p602
S'20'
p603
tp604
a(S'MPI_Comm_size()'
p605
S'21'
p606
tp607
a(S'MPI_Finalize()'
p608
S'24'
p609
tp610
asS'learning_documents/\xe5\xb9\xb6\xe8\xa1\x8c\xe7\xa8\x8b\xe5\xba\x8f\xe8\xae\xbe\xe8\xae\xa1/parallel/test/brocast.c'
p611
(lp612
(S'MPI_Init()'
p613
S'19'
p614
tp615
a(S'MPI_Comm_dup()'
p616
S'20'
p617
tp618
a(S'MPI_Comm_rank()'
p619
S'21'
p620
tp621
a(S'MPI_Comm_size()'
p622
S'22'
p623
tp624
a(S'MPI_Wtime()'
p625
S'29'
p626
tp627
a(S'MPI_Get_processor_name()'
p628
S'36'
p629
tp630
a(S'MPI_Allgather()'
p631
S'38'
p632
tp633
a(S'MPI_Comm_split()'
p634
S'52'
p635
tp636
a(S'MPI_Comm_rank()'
p637
S'56'
p638
tp639
a(S'MPI_Comm_size()'
p640
S'57'
p641
tp642
a(S'MPI_Wtime()'
p643
S'65'
p644
tp645
a(S'MPI_Comm_split()'
p646
S'74'
p647
tp648
a(S'MPI_Comm_rank()'
p649
S'76'
p650
tp651
a(S'MPI_Comm_size()'
p652
S'77'
p653
tp654
a(S'MPI_Send()'
p655
S'85'
p656
tp657
a(S'MPI_Recv()'
p658
S'90'
p659
tp660
a(S'MPI_Send()'
p661
S'98'
p662
tp663
a(S'MPI_Comm_split()'
p664
S'103'
p665
tp666
a(S'MPI_Recv()'
p667
S'104'
p668
tp669
a(S'MPI_Wtime()'
p670
S'110'
p671
tp672
a(S'MPI_Finalize()'
p673
S'117'
p674
tp675
asS'learning_documents/\xe5\xb9\xb6\xe8\xa1\x8c\xe7\xa8\x8b\xe5\xba\x8f\xe8\xae\xbe\xe8\xae\xa1/parallel/\xe5\xb9\xb6\xe8\xa1\x8c\xe5\xae\x9e\xe9\xaa\x8c+\xe5\x90\xb4\xe7\x87\x95\xe6\x99\xb6+SA17011125/20-2/seidel.c'
p676
(lp677
(S'MPI_Bcast()'
p678
S'130'
p679
tp680
a(S'MPI_Bcast()'
p681
S'155'
p682
tp683
a(S'MPI_Send()'
p684
S'171'
p685
tp686
a(S'MPI_Send()'
p687
S'172'
p688
tp689
a(S'MPI_Recv()'
p690
S'181'
p691
tp692
a(S'MPI_Recv()'
p693
S'182'
p694
tp695
a(S'MPI_Bcast()'
p696
S'232'
p697
tp698
a(S'MPI_Bcast()'
p699
S'240'
p700
tp701
a(S'MPI_Allreduce()'
p702
S'248'
p703
tp704
a(S'MPI_Init()'
p705
S'285'
p706
tp707
a(S'MPI_Comm_size()'
p708
S'286'
p709
tp710
a(S'MPI_Comm_rank()'
p711
S'287'
p712
tp713
a(S'MPI_Wtime()'
p714
S'290'
p715
tp716
a(S'MPI_Barrier()'
p717
S'303'
p718
tp719
a(S'MPI_Wtime()'
p720
S'305'
p721
tp722
a(S'MPI_Finalize()'
p723
S'308'
p724
tp725
asS'learning_documents/\xe5\xb9\xb6\xe8\xa1\x8c\xe8\xae\xa1\xe7\xae\x97/\xe7\xac\xac\xe5\x9b\x9b\xe6\xac\xa1\xe5\xae\x9e\xe9\xaa\x8c/\xe7\xac\xac\xe5\x9b\x9b\xe6\xac\xa1\xe5\xae\x9e\xe9\xaa\x8c+\xe5\x90\xb4\xe7\x87\x95\xe6\x99\xb6+SA17011125/Sourcecode/psrs_mpi.cc'
p726
(lp727
(S'MPI_Gather()'
p728
S'39'
p729
tp730
a(S'MPI_Bcast()'
p731
S'52'
p732
tp733
a(S'MPI_Barrier()'
p734
S'77'
p735
tp736
a(S'MPI_Alltoall()'
p737
S'79'
p738
tp739
a(S'MPI_Alltoallv()'
p740
S'100'
p741
tp742
a(S'MPI_Gather()'
p743
S'141'
p744
tp745
a(S'MPI_Gatherv()'
p746
S'152'
p747
tp748
a(S'MPI_Comm_rank()'
p749
S'167'
p750
tp751
a(S'MPI_Comm_size()'
p752
S'168'
p753
tp754
a(S'MPI_Wtime()'
p755
S'173'
p756
tp757
a(S'MPI_Bcast()'
p758
S'181'
p759
tp760
a(S'MPI_Bcast()'
p761
S'182'
p762
tp763
a(S'MPI_Barrier()'
p764
S'207'
p765
tp766
a(S'MPI_Wtime()'
p767
S'235'
p768
tp769
a(S'MPI_Init()'
p770
S'258'
p771
tp772
a(S'MPI_Finalize()'
p773
S'260'
p774
tp775
asS'learning_documents/\xe5\xb9\xb6\xe8\xa1\x8c\xe7\xa8\x8b\xe5\xba\x8f\xe8\xae\xbe\xe8\xae\xa1/parallel/\xe5\xb9\xb6\xe8\xa1\x8c\xe5\xae\x9e\xe9\xaa\x8c+\xe5\x90\xb4\xe7\x87\x95\xe6\x99\xb6+SA17011125/brocast.c'
p776
(lp777
(S'MPI_Init()'
p778
S'19'
p779
tp780
a(S'MPI_Comm_dup()'
p781
S'20'
p782
tp783
a(S'MPI_Comm_rank()'
p784
S'21'
p785
tp786
a(S'MPI_Comm_size()'
p787
S'22'
p788
tp789
a(S'MPI_Wtime()'
p790
S'29'
p791
tp792
a(S'MPI_Get_processor_name()'
p793
S'36'
p794
tp795
a(S'MPI_Allgather()'
p796
S'38'
p797
tp798
a(S'MPI_Comm_split()'
p799
S'52'
p800
tp801
a(S'MPI_Comm_rank()'
p802
S'56'
p803
tp804
a(S'MPI_Comm_size()'
p805
S'57'
p806
tp807
a(S'MPI_Wtime()'
p808
S'65'
p809
tp810
a(S'MPI_Comm_split()'
p811
S'74'
p812
tp813
a(S'MPI_Comm_rank()'
p814
S'76'
p815
tp816
a(S'MPI_Comm_size()'
p817
S'77'
p818
tp819
a(S'MPI_Send()'
p820
S'85'
p821
tp822
a(S'MPI_Recv()'
p823
S'90'
p824
tp825
a(S'MPI_Send()'
p826
S'98'
p827
tp828
a(S'MPI_Comm_split()'
p829
S'103'
p830
tp831
a(S'MPI_Recv()'
p832
S'104'
p833
tp834
a(S'MPI_Wtime()'
p835
S'110'
p836
tp837
a(S'MPI_Finalize()'
p838
S'117'
p839
tp840
asS'learning_documents/\xe5\xb9\xb6\xe8\xa1\x8c\xe7\xa8\x8b\xe5\xba\x8f\xe8\xae\xbe\xe8\xae\xa1/parallel/\xe5\xb9\xb6\xe8\xa1\x8c\xe5\xae\x9e\xe9\xaa\x8c+\xe5\x90\xb4\xe7\x87\x95\xe6\x99\xb6+SA17011125/20-2/fox.c'
p841
(lp842
(S'MPI_Init()'
p843
S'16'
p844
tp845
a(S'MPI_Wtime()'
p846
S'17'
p847
tp848
a(S'MPI_Comm_size()'
p849
S'18'
p850
tp851
a(S'MPI_Comm_rank()'
p852
S'19'
p853
tp854
a(S'MPI_Finalize()'
p855
S'28'
p856
tp857
a(S'MPI_Finalize()'
p858
S'33'
p859
tp860
a(S'MPI_Finalize()'
p861
S'38'
p862
tp863
a(S'MPI_Cart_create()'
p864
S'74'
p865
tp866
a(S'MPI_Comm_rank()'
p867
S'75'
p868
tp869
a(S'MPI_Cart_coords()'
p870
S'76'
p871
tp872
a(S'MPI_Comm_split()'
p873
S'77'
p874
tp875
a(S'MPI_Comm_split()'
p876
S'78'
p877
tp878
a(S'MPI_Comm_rank()'
p879
S'80'
p880
tp881
a(S'MPI_Comm_rank()'
p882
S'81'
p883
tp884
a(S'MPI_Isend()'
p885
S'85'
p886
tp887
a(S'MPI_Bcast()'
p888
S'91'
p889
tp890
a(S'MPI_Wait()'
p891
S'99'
p892
tp893
a(S'MPI_Recv()'
p894
S'100'
p895
tp896
a(S'MPI_Comm_free()'
p897
S'114'
p898
tp899
a(S'MPI_Comm_free()'
p900
S'115'
p901
tp902
a(S'MPI_Comm_free()'
p903
S'116'
p904
tp905
a(S'MPI_Wtime()'
p906
S'121'
p907
tp908
a(S'MPI_Finalize()'
p909
S'122'
p910
tp911
asS'learning_documents/\xe5\xb9\xb6\xe8\xa1\x8c\xe7\xa8\x8b\xe5\xba\x8f\xe8\xae\xbe\xe8\xae\xa1/parallel/\xe5\xb9\xb6\xe8\xa1\x8c\xe5\xae\x9e\xe9\xaa\x8c+\xe5\x90\xb4\xe7\x87\x95\xe6\x99\xb6+SA17011125/21-2/cjacobi.c'
p912
(lp913
(S'MPI_Send()'
p914
S'93'
p915
tp916
a(S'MPI_Send()'
p917
S'94'
p918
tp919
a(S'MPI_Recv()'
p920
S'115'
p921
tp922
a(S'MPI_Recv()'
p923
S'116'
p924
tp925
a(S'MPI_Init()'
p926
S'139'
p927
tp928
a(S'MPI_Comm_size()'
p929
S'140'
p930
tp931
a(S'MPI_Comm_rank()'
p932
S'141'
p933
tp934
a(S'MPI_Bcast()'
p935
S'150'
p936
tp937
a(S'MPI_Allgather()'
p938
S'268'
p939
tp940
a(S'MPI_Send()'
p941
S'314'
p942
tp943
a(S'MPI_Send()'
p944
S'315'
p945
tp946
a(S'MPI_Send()'
p947
S'316'
p948
tp949
a(S'MPI_Recv()'
p950
S'318'
p951
tp952
a(S'MPI_Recv()'
p953
S'319'
p954
tp955
a(S'MPI_Recv()'
p956
S'320'
p957
tp958
a(S'MPI_Recv()'
p959
S'347'
p960
tp961
a(S'MPI_Recv()'
p962
S'348'
p963
tp964
a(S'MPI_Recv()'
p965
S'349'
p966
tp967
a(S'MPI_Send()'
p968
S'350'
p969
tp970
a(S'MPI_Send()'
p971
S'351'
p972
tp973
a(S'MPI_Send()'
p974
S'352'
p975
tp976
a(S'MPI_Send()'
p977
S'357'
p978
tp979
a(S'MPI_Send()'
p980
S'358'
p981
tp982
a(S'MPI_Send()'
p983
S'359'
p984
tp985
a(S'MPI_Recv()'
p986
S'372'
p987
tp988
a(S'MPI_Recv()'
p989
S'373'
p990
tp991
a(S'MPI_Recv()'
p992
S'374'
p993
tp994
a(S'MPI_Send()'
p995
S'381'
p996
tp997
a(S'MPI_Send()'
p998
S'382'
p999
tp1000
a(S'MPI_Send()'
p1001
S'383'
p1002
tp1003
a(S'MPI_Send()'
p1004
S'384'
p1005
tp1006
a(S'MPI_Send()'
p1007
S'385'
p1008
tp1009
a(S'MPI_Send()'
p1010
S'386'
p1011
tp1012
a(S'MPI_Recv()'
p1013
S'388'
p1014
tp1015
a(S'MPI_Recv()'
p1016
S'389'
p1017
tp1018
a(S'MPI_Recv()'
p1019
S'390'
p1020
tp1021
a(S'MPI_Recv()'
p1022
S'391'
p1023
tp1024
a(S'MPI_Recv()'
p1025
S'392'
p1026
tp1027
a(S'MPI_Recv()'
p1028
S'393'
p1029
tp1030
a(S'MPI_Recv()'
p1031
S'409'
p1032
tp1033
a(S'MPI_Recv()'
p1034
S'410'
p1035
tp1036
a(S'MPI_Recv()'
p1037
S'411'
p1038
tp1039
a(S'MPI_Recv()'
p1040
S'412'
p1041
tp1042
a(S'MPI_Recv()'
p1043
S'413'
p1044
tp1045
a(S'MPI_Recv()'
p1046
S'414'
p1047
tp1048
a(S'MPI_Send()'
p1049
S'416'
p1050
tp1051
a(S'MPI_Send()'
p1052
S'417'
p1053
tp1054
a(S'MPI_Send()'
p1055
S'418'
p1056
tp1057
a(S'MPI_Send()'
p1058
S'419'
p1059
tp1060
a(S'MPI_Send()'
p1061
S'420'
p1062
tp1063
a(S'MPI_Send()'
p1064
S'421'
p1065
tp1066
a(S'MPI_Allgather()'
p1067
S'491'
p1068
tp1069
a(S'MPI_Send()'
p1070
S'532'
p1071
tp1072
a(S'MPI_Send()'
p1073
S'534'
p1074
tp1075
a(S'MPI_Send()'
p1076
S'535'
p1077
tp1078
a(S'MPI_Recv()'
p1079
S'537'
p1080
tp1081
a(S'MPI_Recv()'
p1082
S'538'
p1083
tp1084
a(S'MPI_Recv()'
p1085
S'539'
p1086
tp1087
a(S'MPI_Recv()'
p1088
S'566'
p1089
tp1090
a(S'MPI_Recv()'
p1091
S'567'
p1092
tp1093
a(S'MPI_Recv()'
p1094
S'568'
p1095
tp1096
a(S'MPI_Send()'
p1097
S'569'
p1098
tp1099
a(S'MPI_Send()'
p1100
S'570'
p1101
tp1102
a(S'MPI_Send()'
p1103
S'571'
p1104
tp1105
a(S'MPI_Send()'
p1106
S'576'
p1107
tp1108
a(S'MPI_Send()'
p1109
S'577'
p1110
tp1111
a(S'MPI_Send()'
p1112
S'578'
p1113
tp1114
a(S'MPI_Recv()'
p1115
S'591'
p1116
tp1117
a(S'MPI_Recv()'
p1118
S'592'
p1119
tp1120
a(S'MPI_Recv()'
p1121
S'593'
p1122
tp1123
a(S'MPI_Send()'
p1124
S'600'
p1125
tp1126
a(S'MPI_Send()'
p1127
S'601'
p1128
tp1129
a(S'MPI_Send()'
p1130
S'602'
p1131
tp1132
a(S'MPI_Send()'
p1133
S'603'
p1134
tp1135
a(S'MPI_Send()'
p1136
S'604'
p1137
tp1138
a(S'MPI_Send()'
p1139
S'605'
p1140
tp1141
a(S'MPI_Recv()'
p1142
S'607'
p1143
tp1144
a(S'MPI_Recv()'
p1145
S'608'
p1146
tp1147
a(S'MPI_Recv()'
p1148
S'609'
p1149
tp1150
a(S'MPI_Recv()'
p1151
S'610'
p1152
tp1153
a(S'MPI_Recv()'
p1154
S'611'
p1155
tp1156
a(S'MPI_Recv()'
p1157
S'612'
p1158
tp1159
a(S'MPI_Recv()'
p1160
S'628'
p1161
tp1162
a(S'MPI_Recv()'
p1163
S'629'
p1164
tp1165
a(S'MPI_Recv()'
p1166
S'630'
p1167
tp1168
a(S'MPI_Recv()'
p1169
S'631'
p1170
tp1171
a(S'MPI_Recv()'
p1172
S'632'
p1173
tp1174
a(S'MPI_Recv()'
p1175
S'633'
p1176
tp1177
a(S'MPI_Send()'
p1178
S'635'
p1179
tp1180
a(S'MPI_Send()'
p1181
S'636'
p1182
tp1183
a(S'MPI_Send()'
p1184
S'637'
p1185
tp1186
a(S'MPI_Send()'
p1187
S'638'
p1188
tp1189
a(S'MPI_Send()'
p1190
S'639'
p1191
tp1192
a(S'MPI_Send()'
p1193
S'640'
p1194
tp1195
a(S'MPI_Allreduce()'
p1196
S'654'
p1197
tp1198
a(S'MPI_Send()'
p1199
S'674'
p1200
tp1201
a(S'MPI_Send()'
p1202
S'675'
p1203
tp1204
a(S'MPI_Recv()'
p1205
S'680'
p1206
tp1207
a(S'MPI_Recv()'
p1208
S'681'
p1209
tp1210
a(S'MPI_Finalize()'
p1211
S'707'
p1212
tp1213
asS'learning_documents/\xe5\xb9\xb6\xe8\xa1\x8c\xe8\xae\xa1\xe7\xae\x97/\xe7\xac\xac\xe4\xb8\x80\xe6\xac\xa1\xe8\xaf\x95\xe9\xaa\x8c/SA17011125_\xe5\x90\xb4\xe7\x87\x95\xe6\x99\xb6_\xe5\xae\x9e\xe9\xaa\x8c1/src/sushu_mpi.cc'
p1214
(lp1215
(S'MPI_Comm_size()'
p1216
S'28'
p1217
tp1218
a(S'MPI_Comm_rank()'
p1219
S'29'
p1220
tp1221
a(S'MPI_Wtime()'
p1222
S'33'
p1223
tp1224
a(S'MPI_Bcast()'
p1225
S'35'
p1226
tp1227
a(S'MPI_Reduce()'
p1228
S'41'
p1229
tp1230
a(S'MPI_Wtime()'
p1231
S'44'
p1232
tp1233
a(S'MPI_Wtime()'
p1234
S'51'
p1235
tp1236
a(S'MPI_Wtime()'
p1237
S'55'
p1238
tp1239
a(S'MPI_Init()'
p1240
S'63'
p1241
tp1242
a(S'MPI_Finalize()'
p1243
S'68'
p1244
tp1245
asS'learning_documents/\xe5\xb9\xb6\xe8\xa1\x8c\xe8\xae\xa1\xe7\xae\x97/\xe7\xac\xac\xe4\xb8\x80\xe6\xac\xa1\xe8\xaf\x95\xe9\xaa\x8c/mywork/pi_mpi.cc'
p1246
(lp1247
(S'MPI_Comm_size()'
p1248
S'16'
p1249
tp1250
a(S'MPI_Comm_rank()'
p1251
S'17'
p1252
tp1253
a(S'MPI_Wtime()'
p1254
S'21'
p1255
tp1256
a(S'MPI_Reduce()'
p1257
S'28'
p1258
tp1259
a(S'MPI_Wtime()'
p1260
S'31'
p1261
tp1262
a(S'MPI_Wtime()'
p1263
S'36'
p1264
tp1265
a(S'MPI_Wtime()'
p1266
S'43'
p1267
tp1268
a(S'MPI_Init()'
p1269
S'52'
p1270
tp1271
a(S'MPI_Finalize()'
p1272
S'57'
p1273
tp1274
as.