ccollections
defaultdict
p0
(c__builtin__
list
p1
tp2
Rp3
S'YouCompleteMe-x86/third_party/ycmd/cpp/BoostParts/boost/mpi/timer.hpp'
p4
(lp5
(S'MPI_Wtime()'
p6
S'71'
p7
tp8
asS'YouCompleteMe-x86/third_party/ycmd/cpp/BoostParts/boost/mpi/communicator.hpp'
p9
(lp10
(S'MPI_Comm()'
p11
S'1366'
p12
tp13
a(S'MPI_Comm()'
p14
S'1566'
p15
tp16
a(S'MPI_Comm()'
p17
S'1589'
p18
tp19
a(S'MPI_Comm()'
p20
S'1625'
p21
tp22
a(S'MPI_Comm()'
p23
S'1648'
p24
tp25
asS'YouCompleteMe-x86/third_party/ycmd/cpp/BoostParts/boost/mpi/allocator.hpp'
p26
(lp27
(S'X_MPI_INFO_NULL()'
p28
S'141'
p29
tp30
asS'YouCompleteMe-x86/third_party/ycmd/cpp/BoostParts/boost/mpi/datatype.hpp'
p31
(lp32
(S'X_MPI_LONG_DOUBLE_INT()'
p33
S'254'
p34
tp35
a(S'MPI_Type_contiguous()'
p36
S'323'
p37
tp38
a(S'MPI_Type_commit()'
p39
S'324'
p40
tp41
asS'YouCompleteMe-x86/third_party/ycmd/cpp/BoostParts/boost/mpi/operations.hpp'
p42
(lp43
(S'MPI_Op_free()'
p44
S'293'
p45
tp46
asS'YouCompleteMe-x86/third_party/ycmd/cpp/BoostParts/boost/mpi/exception.hpp'
p47
(lp48
(S'MPI_Error_class()'
p49
S'73'
p50
tp51
as.