ccollections
defaultdict
p0
(c__builtin__
list
p1
tp2
Rp3
S'cloneofg4g2019/Engine/Plugins/Experimental/AlembicImporter/Source/ThirdParty/Alembic/hdf5/testpar/t_chunk_alloc.c'
p4
(lp5
(S'MPI_File_open()'
p6
S'40'
p7
tp8
a(S'X_MPI_INFO_NULL()'
p9
S'41'
p10
tp11
a(S'MPI_File_get_size()'
p12
S'44'
p13
tp14
a(S'MPI_File_close()'
p15
S'47'
p16
tp17
a(S'MPI_Comm_size()'
p18
S'94'
p19
tp20
a(S'MPI_Comm_rank()'
p21
S'95'
p22
tp23
a(S'MPI_Barrier()'
p24
S'173'
p25
tp26
a(S'MPI_Comm_size()'
p27
S'209'
p28
tp29
a(S'MPI_Comm_rank()'
p30
S'210'
p31
tp32
a(S'MPI_Barrier()'
p33
S'310'
p34
tp35
a(S'MPI_Comm_size()'
p36
S'340'
p37
tp38
a(S'MPI_Comm_rank()'
p39
S'341'
p40
tp41
a(S'MPI_Barrier()'
p42
S'432'
p43
tp44
a(S'MPI_Comm_size()'
p45
S'464'
p46
tp47
a(S'MPI_Comm_rank()'
p48
S'465'
p49
tp50
asS'cloneofg4g2019/Engine/Plugins/Experimental/AlembicImporter/Source/ThirdParty/Alembic/hdf5/src/H5Dchunk.c'
p51
(lp52
(S'MPI_Type_contiguous()'
p53
S'3696'
p54
tp55
a(S'MPI_Type_contiguous()'
p56
S'3699'
p57
tp58
a(S'MPI_Type_create_hindexed()'
p59
S'3708'
p60
tp61
a(S'X_MPI_BYTE()'
p62
S'3709'
p63
tp64
a(S'MPI_Type_create_hvector()'
p65
S'3712'
p66
tp67
asS'cloneofg4g2019/Engine/Plugins/Experimental/AlembicImporter/Source/ThirdParty/Alembic/hdf5/testpar/t_pshutdown.c'
p68
(lp69
(S'MPI_Init()'
p70
S'54'
p71
tp72
a(S'MPI_Comm_size()'
p73
S'55'
p74
tp75
a(S'MPI_Comm_rank()'
p76
S'56'
p77
tp78
a(S'MPI_Finalize()'
p79
S'115'
p80
tp81
asS'cloneofg4g2019/Engine/Plugins/Experimental/AlembicImporter/Source/ThirdParty/Alembic/hdf5/src/H5AC.c'
p82
(lp83
(S'MPI_Bcast()'
p84
S'2594'
p85
tp86
a(S'MPI_Bcast()'
p87
S'2701'
p88
tp89
asS'cloneofg4g2019/Engine/Plugins/Experimental/AlembicImporter/Source/ThirdParty/Alembic/hdf5/testpar/t_coll_chunk.c'
p90
(lp91
(S'MPI_Comm_size()'
p92
S'188'
p93
tp94
a(S'MPI_Comm_size()'
p95
S'628'
p96
tp97
a(S'MPI_Comm_rank()'
p98
S'629'
p99
tp100
asS'cloneofg4g2019/Engine/Plugins/Experimental/AlembicImporter/Source/ThirdParty/Alembic/hdf5/testpar/testphdf5.c'
p101
(lp102
(S'MPI_Comm_size()'
p103
S'79'
p104
tp105
a(S'MPI_Comm_rank()'
p106
S'80'
p107
tp108
a(S'MPI_Get_processor_name()'
p109
S'81'
p110
tp111
a(S'MPI_Barrier()'
p112
S'93'
p113
tp114
a(S'MPI_Comm_size()'
p115
S'136'
p116
tp117
a(S'MPI_Comm_rank()'
p118
S'137'
p119
tp120
a(S'MPI_Comm_rank()'
p121
S'263'
p122
tp123
a(S'MPI_Init()'
p124
S'316'
p125
tp126
a(S'MPI_Comm_size()'
p127
S'317'
p128
tp129
a(S'MPI_Comm_rank()'
p130
S'318'
p131
tp132
a(S'MPI_Barrier()'
p133
S'561'
p134
tp135
a(S'MPI_Allreduce()'
p136
S'575'
p137
tp138
a(S'MPI_Finalize()'
p139
S'591'
p140
tp141
asS'cloneofg4g2019/Engine/Plugins/Experimental/AlembicImporter/Source/ThirdParty/Alembic/hdf5/testpar/t_shapesame.c'
p142
(lp143
(S'MPI_Comm_size()'
p144
S'169'
p145
tp146
a(S'MPI_Comm_rank()'
p147
S'170'
p148
tp149
a(S'MPI_Barrier()'
p150
S'525'
p151
tp152
a(S'MPI_Barrier()'
p153
S'633'
p154
tp155
a(S'MPI_Barrier()'
p156
S'673'
p157
tp158
a(S'MPI_Comm_size()'
p159
S'2262'
p160
tp161
a(S'MPI_Comm_rank()'
p162
S'2263'
p163
tp164
a(S'MPI_Allreduce()'
p165
S'2269'
p166
tp167
a(S'X_MPI_INT()'
p168
S'2272'
p169
tp170
a(S'X_MPI_MAX()'
p171
S'2273'
p172
tp173
a(S'MPI_Comm_rank()'
p174
S'2830'
p175
tp176
a(S'MPI_Comm_size()'
p177
S'4545'
p178
tp179
a(S'MPI_Comm_rank()'
p180
S'4546'
p181
tp182
a(S'MPI_Allreduce()'
p183
S'4554'
p184
tp185
a(S'X_MPI_INT()'
p186
S'4557'
p187
tp188
a(S'X_MPI_MAX()'
p189
S'4558'
p190
tp191
a(S'MPI_Comm_size()'
p192
S'4755'
p193
tp194
a(S'MPI_Comm_rank()'
p195
S'4756'
p196
tp197
a(S'MPI_Get_processor_name()'
p198
S'4757'
p199
tp200
a(S'MPI_Barrier()'
p201
S'4769'
p202
tp203
a(S'MPI_Comm_size()'
p204
S'4812'
p205
tp206
a(S'MPI_Comm_rank()'
p207
S'4813'
p208
tp209
a(S'MPI_Comm_rank()'
p210
S'4939'
p211
tp212
a(S'MPI_Init()'
p213
S'5046'
p214
tp215
a(S'MPI_Comm_size()'
p216
S'5047'
p217
tp218
a(S'MPI_Comm_rank()'
p219
S'5048'
p220
tp221
a(S'MPI_Barrier()'
p222
S'5119'
p223
tp224
a(S'MPI_Allreduce()'
p225
S'5133'
p226
tp227
a(S'MPI_Finalize()'
p228
S'5146'
p229
tp230
asS'cloneofg4g2019/Engine/Plugins/Compositing/OpenCVLensDistortion/Source/ThirdParty/OpenCV/include/opencv2/flann/hdf5.h'
p231
(lp232
(S'MPI_Comm_size()'
p233
S'175'
p234
tp235
a(S'MPI_Comm_rank()'
p236
S'176'
p237
tp238
asS'cloneofg4g2019/Engine/Plugins/Experimental/AlembicImporter/Source/ThirdParty/Alembic/hdf5/src/H5FDmpio.c'
p239
(lp240
(S'MPI_Comm_free()'
p241
S'443'
p242
tp243
a(S'MPI_Info_get()'
p244
S'1045'
p245
tp246
a(S'MPI_File_close()'
p247
S'1109'
p248
tp249
a(S'MPI_Comm_free()'
p250
S'1111'
p251
tp252
a(S'MPI_Info_free()'
p253
S'1113'
p254
tp255
asS'cloneofg4g2019/Engine/Plugins/Experimental/AlembicImporter/Source/ThirdParty/Alembic/hdf5/tools/perform/perf_meta.c'
p256
(lp257
(S'MPI_Comm_rank()'
p258
S'367'
p259
tp260
a(S'MPI_Barrier()'
p261
S'412'
p262
tp263
a(S'MPI_Comm_rank()'
p264
S'473'
p265
tp266
a(S'MPI_Barrier()'
p267
S'515'
p268
tp269
a(S'MPI_Comm_rank()'
p270
S'578'
p271
tp272
a(S'MPI_Barrier()'
p273
S'628'
p274
tp275
a(S'MPI_Comm_size()'
p276
S'707'
p277
tp278
a(S'MPI_Comm_rank()'
p279
S'708'
p280
tp281
a(S'MPI_Barrier()'
p282
S'709'
p283
tp284
a(S'MPI_Reduce()'
p285
S'711'
p286
tp287
a(S'MPI_Reduce()'
p288
S'715'
p289
tp290
a(S'MPI_Reduce()'
p291
S'717'
p292
tp293
a(S'MPI_Init()'
p294
S'795'
p295
tp296
a(S'MPI_Comm_size()'
p297
S'796'
p298
tp299
a(S'MPI_Comm_rank()'
p300
S'797'
p301
tp302
a(S'MPI_Finalize()'
p303
S'829'
p304
tp305
asS'cloneofg4g2019/Engine/Source/ThirdParty/IntelTBB/IntelTBB-4.4u3/src/test/harness.h'
p306
(lp307
(S'MPI_Init()'
p308
S'346'
p309
tp310
a(S'MPI_Init()'
p311
S'352'
p312
tp313
a(S'MPI_Comm_size()'
p314
S'365'
p315
tp316
a(S'MPI_Comm_rank()'
p317
S'366'
p318
tp319
a(S'MPI_Finalize()'
p320
S'410'
p321
tp322
asS'cloneofg4g2019/Engine/Plugins/Experimental/AlembicImporter/Source/ThirdParty/Alembic/hdf5/src/H5Eint.c'
p323
(lp324
(S'MPI_Initialized()'
p325
S'277'
p326
tp327
a(S'MPI_Finalized()'
p328
S'278'
p329
tp330
a(S'MPI_Comm_rank()'
p331
S'281'
p332
tp333
a(S'MPI_Initialized()'
p334
S'409'
p335
tp336
a(S'MPI_Finalized()'
p337
S'410'
p338
tp339
a(S'MPI_Comm_rank()'
p340
S'413'
p341
tp342
asS'cloneofg4g2019/Engine/Plugins/Experimental/AlembicImporter/Source/ThirdParty/Alembic/hdf5/tools/lib/h5diff.c'
p343
(lp344
(S'MPI_Send()'
p345
S'104'
p346
tp347
a(S'MPI_Iprobe()'
p348
S'131'
p349
tp350
a(S'MPI_Recv()'
p351
S'135'
p352
tp353
a(S'MPI_Abort()'
p354
S'980'
p355
tp356
a(S'MPI_Send()'
p357
S'988'
p358
tp359
a(S'MPI_Abort()'
p360
S'1226'
p361
tp362
a(S'MPI_Iprobe()'
p363
S'1243'
p364
tp365
a(S'MPI_Recv()'
p366
S'1249'
p367
tp368
a(S'MPI_Iprobe()'
p369
S'1262'
p370
tp371
a(S'MPI_Recv()'
p372
S'1267'
p373
tp374
a(S'MPI_Iprobe()'
p375
S'1279'
p376
tp377
a(S'MPI_Recv()'
p378
S'1282'
p379
tp380
a(S'MPI_Send()'
p381
S'1283'
p382
tp383
a(S'MPI_Send()'
p384
S'1297'
p385
tp386
a(S'MPI_Iprobe()'
p387
S'1323'
p388
tp389
a(S'MPI_Recv()'
p390
S'1326'
p391
tp392
a(S'MPI_Send()'
p393
S'1331'
p394
tp395
a(S'MPI_Probe()'
p396
S'1340'
p397
tp398
a(S'MPI_Recv()'
p399
S'1343'
p400
tp401
a(S'MPI_Send()'
p402
S'1346'
p403
tp404
a(S'MPI_Recv()'
p405
S'1352'
p406
tp407
a(S'MPI_Send()'
p408
S'1353'
p409
tp410
a(S'MPI_Iprobe()'
p411
S'1357'
p412
tp413
a(S'MPI_Recv()'
p414
S'1362'
p415
tp416
a(S'MPI_Send()'
p417
S'1365'
p418
tp419
a(S'MPI_Abort()'
p420
S'1370'
p421
tp422
a(S'MPI_Finalize()'
p423
S'1371'
p424
tp425
a(S'MPI_Probe()'
p426
S'1390'
p427
tp428
a(S'MPI_Recv()'
p429
S'1393'
p430
tp431
a(S'MPI_Recv()'
p432
S'1400'
p433
tp434
a(S'MPI_Send()'
p435
S'1405'
p436
tp437
a(S'MPI_Iprobe()'
p438
S'1408'
p439
tp440
a(S'MPI_Recv()'
p441
S'1413'
p442
tp443
a(S'MPI_Iprobe()'
p444
S'1426'
p445
tp446
a(S'MPI_Recv()'
p447
S'1432'
p448
tp449
a(S'MPI_Send()'
p450
S'1436'
p451
tp452
a(S'MPI_Recv()'
p453
S'1441'
p454
tp455
a(S'MPI_Recv()'
p456
S'1452'
p457
tp458
a(S'MPI_Abort()'
p459
S'1459'
p460
tp461
a(S'MPI_Send()'
p462
S'1464'
p463
tp464
asS'cloneofg4g2019/Engine/Plugins/Experimental/ProxyLODPlugin/Source/ThirdParty/boost/mpi/collectives/broadcast.hpp'
p465
(lp466
(S'X_MPI_BYTE()'
p467
S'120'
p468
tp469
a(S'X_MPI_BYTE()'
p470
S'130'
p471
tp472
asS'cloneofg4g2019/Engine/Plugins/Experimental/AlembicImporter/Source/ThirdParty/Alembic/hdf5/tools/perform/perf.c'
p473
(lp474
(S'MPI_Init()'
p475
S'139'
p476
tp477
a(S'MPI_Comm_size()'
p478
S'140'
p479
tp480
a(S'MPI_Comm_rank()'
p481
S'141'
p482
tp483
a(S'MPI_Barrier()'
p484
S'256'
p485
tp486
a(S'MPI_Wtime()'
p487
S'257'
p488
tp489
a(S'MPI_Wtime()'
p490
S'265'
p491
tp492
a(S'MPI_Barrier()'
p493
S'281'
p494
tp495
a(S'MPI_Barrier()'
p496
S'307'
p497
tp498
a(S'MPI_Wtime()'
p499
S'308'
p500
tp501
a(S'MPI_Wtime()'
p502
S'320'
p503
tp504
a(S'MPI_Allreduce()'
p505
S'333'
p506
tp507
a(S'MPI_Allreduce()'
p508
S'349'
p509
tp510
a(S'MPI_Allreduce()'
p511
S'351'
p512
tp513
a(S'MPI_Allreduce()'
p514
S'353'
p515
tp516
a(S'MPI_Allreduce()'
p517
S'359'
p518
tp519
a(S'MPI_Allreduce()'
p520
S'361'
p521
tp522
a(S'MPI_Allreduce()'
p523
S'363'
p524
tp525
a(S'MPI_Finalize()'
p526
S'406'
p527
tp528
asS'cloneofg4g2019/Engine/Plugins/Experimental/AlembicImporter/Source/ThirdParty/Alembic/hdf5/tools/h5diff/ph5diff_main.c'
p529
(lp530
(S'MPI_Init()'
p531
S'69'
p532
tp533
a(S'MPI_Comm_rank()'
p534
S'71'
p535
tp536
a(S'MPI_Comm_size()'
p537
S'72'
p538
tp539
a(S'MPI_Barrier()'
p540
S'96'
p541
tp542
a(S'MPI_Barrier()'
p543
S'105'
p544
tp545
a(S'MPI_Finalize()'
p546
S'110'
p547
tp548
a(S'MPI_Probe()'
p549
S'140'
p550
tp551
a(S'MPI_Recv()'
p552
S'148'
p553
tp554
a(S'MPI_Abort()'
p555
S'157'
p556
tp557
a(S'MPI_Abort()'
p558
S'162'
p559
tp560
a(S'MPI_Recv()'
p561
S'183'
p562
tp563
a(S'MPI_Send()'
p564
S'192'
p565
tp566
a(S'MPI_Recv()'
p567
S'195'
p568
tp569
a(S'MPI_Send()'
p570
S'199'
p571
tp572
a(S'MPI_Send()'
p573
S'216'
p574
tp575
a(S'MPI_Send()'
p576
S'223'
p577
tp578
a(S'MPI_Send()'
p579
S'233'
p580
tp581
a(S'MPI_Send()'
p582
S'236'
p583
tp584
a(S'MPI_Recv()'
p585
S'241'
p586
tp587
a(S'MPI_Barrier()'
p588
S'318'
p589
tp590
a(S'MPI_Finalize()'
p591
S'320'
p592
tp593
asS'cloneofg4g2019/Engine/Plugins/Experimental/ProxyLODPlugin/Source/ThirdParty/boost/mpi/exception.hpp'
p594
(lp595
(S'MPI_Error_class()'
p596
S'74'
p597
tp598
asS'cloneofg4g2019/Engine/Plugins/Experimental/AlembicImporter/Source/ThirdParty/Alembic/hdf5/examples/ph5example.c'
p599
(lp600
(S'MPI_Comm_size()'
p601
S'895'
p602
tp603
a(S'MPI_Comm_rank()'
p604
S'896'
p605
tp606
a(S'MPI_Barrier()'
p607
S'900'
p608
tp609
a(S'MPI_File_delete()'
p610
S'925'
p611
tp612
a(S'MPI_File_delete()'
p613
S'1050'
p614
tp615
a(S'MPI_Init()'
p616
S'1063'
p617
tp618
a(S'MPI_Comm_size()'
p619
S'1064'
p620
tp621
a(S'MPI_Comm_rank()'
p622
S'1065'
p623
tp624
a(S'MPI_Get_processor_name()'
p625
S'1066'
p626
tp627
a(S'MPI_BANNER()'
p628
S'1088'
p629
tp630
a(S'MPI_BANNER()'
p631
S'1090'
p632
tp633
a(S'MPI_BANNER()'
p634
S'1092'
p635
tp636
a(S'MPI_BANNER()'
p637
S'1096'
p638
tp639
a(S'MPI_BANNER()'
p640
S'1098'
p641
tp642
a(S'MPI_Finalize()'
p643
S'1119'
p644
tp645
asS'cloneofg4g2019/Engine/Plugins/Experimental/AlembicImporter/Source/ThirdParty/Alembic/hdf5/src/H5FDmpi.c'
p646
(lp647
(S'MPI_Comm_free()'
p648
S'289'
p649
tp650
a(S'MPI_Info_free()'
p651
S'291'
p652
tp653
a(S'MPI_Comm_free()'
p654
S'329'
p655
tp656
a(S'MPI_Info_free()'
p657
S'331'
p658
tp659
asS'cloneofg4g2019/Engine/Plugins/Experimental/AlembicImporter/Source/ThirdParty/Alembic/hdf5/testpar/t_ph5basic.c'
p660
(lp661
(S'MPI_Comm_size()'
p662
S'58'
p663
tp664
a(S'MPI_Comm_rank()'
p665
S'59'
p666
tp667
a(S'MPI_Comm_split()'
p668
S'66'
p669
tp670
a(S'MPI_Comm_size()'
p671
S'68'
p672
tp673
a(S'MPI_Comm_rank()'
p674
S'69'
p675
tp676
a(S'MPI_Info_create()'
p677
S'74'
p678
tp679
a(S'MPI_Info_set()'
p680
S'76'
p681
tp682
a(S'MPI_Comm_free()'
p683
S'96'
p684
tp685
a(S'MPI_Info_free()'
p686
S'99'
p687
tp688
a(S'MPI_Comm_size()'
p689
S'105'
p690
tp691
a(S'MPI_Comm_rank()'
p692
S'106'
p693
tp694
a(S'MPI_Comm_free()'
p695
S'126'
p696
tp697
a(S'MPI_Info_free()'
p698
S'129'
p699
tp700
a(S'MPI_Comm_free()'
p701
S'136'
p702
tp703
a(S'MPI_Info_free()'
p704
S'142'
p705
tp706
a(S'MPI_Comm_size()'
p707
S'153'
p708
tp709
a(S'MPI_Comm_rank()'
p710
S'154'
p711
tp712
a(S'MPI_Comm_size()'
p713
S'173'
p714
tp715
a(S'MPI_Comm_rank()'
p716
S'174'
p717
tp718
a(S'MPI_Comm_free()'
p719
S'186'
p720
tp721
a(S'MPI_Info_free()'
p722
S'189'
p723
tp724
asS'cloneofg4g2019/Engine/Plugins/Experimental/AlembicImporter/Source/ThirdParty/Alembic/hdf5/test/testhdf5.h'
p725
(lp726
(S'MPI_Comm_rank()'
p727
S'144'
p728
tp729
asS'cloneofg4g2019/Engine/Plugins/Experimental/AlembicImporter/Source/ThirdParty/Alembic/hdf5/tools/lib/h5tools.c'
p730
(lp731
(S'MPI_Initialized()'
p732
S'521'
p733
tp734
a(S'MPI_Finalized()'
p735
S'522'
p736
tp737
asS'cloneofg4g2019/Engine/Plugins/Experimental/AlembicImporter/Source/ThirdParty/Alembic/hdf5/tools/perform/sio_standalone.c'
p738
(lp739
(S'MPI_Info_create()'
p740
S'191'
p741
tp742
a(S'MPI_Info_get_nkeys()'
p743
S'273'
p744
tp745
a(S'MPI_Info_get_nthkey()'
p746
S'276'
p747
tp748
a(S'MPI_Info_get()'
p749
S'277'
p750
tp751
asS'cloneofg4g2019/Engine/Plugins/Experimental/AlembicImporter/Source/ThirdParty/Alembic/hdf5/testpar/t_pflush1.c'
p752
(lp753
(S'MPI_Init()'
p754
S'132'
p755
tp756
a(S'MPI_Comm_size()'
p757
S'133'
p758
tp759
a(S'MPI_Comm_rank()'
p760
S'134'
p761
tp762
asS'cloneofg4g2019/Engine/Plugins/Experimental/ProxyLODPlugin/Source/ThirdParty/boost/graph/distributed/mpi_process_group.hpp'
p763
(lp764
(S'MPI_Bsend()'
p765
S'709'
p766
tp767
a(S'MPI_Isend()'
p768
S'715'
p769
tp770
a(S'MPI_Test()'
p771
S'721'
p772
tp773
a(S'MPI_Bsend()'
p774
S'745'
p775
tp776
a(S'MPI_Isend()'
p777
S'751'
p778
tp779
a(S'MPI_Test()'
p780
S'757'
p781
tp782
asS'cloneofg4g2019/Engine/Source/ThirdParty/IntelTBB/IntelTBB-4.0/src/test/harness.h'
p783
(lp784
(S'MPI_Init()'
p785
S'232'
p786
tp787
a(S'MPI_Init()'
p788
S'238'
p789
tp790
a(S'MPI_Comm_size()'
p791
S'247'
p792
tp793
a(S'MPI_Comm_rank()'
p794
S'248'
p795
tp796
a(S'MPI_Finalize()'
p797
S'279'
p798
tp799
asS'cloneofg4g2019/Engine/Plugins/Experimental/AlembicImporter/Source/ThirdParty/Alembic/hdf5/tools/perform/pio_standalone.c'
p800
(lp801
(S'MPI_Info_create()'
p802
S'190'
p803
tp804
a(S'MPI_Info_get_nkeys()'
p805
S'272'
p806
tp807
a(S'MPI_Info_get_nthkey()'
p808
S'275'
p809
tp810
a(S'MPI_Info_get()'
p811
S'276'
p812
tp813
asS'cloneofg4g2019/Engine/Plugins/Experimental/AlembicImporter/Source/ThirdParty/Alembic/hdf5/testpar/t_file.c'
p814
(lp815
(S'MPI_Comm_size()'
p816
S'52'
p817
tp818
a(S'MPI_Comm_rank()'
p819
S'53'
p820
tp821
a(S'MPI_Comm_split()'
p822
S'55'
p823
tp824
a(S'MPI_Comm_size()'
p825
S'57'
p826
tp827
a(S'MPI_Comm_rank()'
p828
S'58'
p829
tp830
a(S'MPI_Barrier()'
p831
S'62'
p832
tp833
a(S'MPI_Comm_rank()'
p834
S'67'
p835
tp836
a(S'MPI_File_delete()'
p837
S'87'
p838
tp839
a(S'MPI_Comm_free()'
p840
S'91'
p841
tp842
a(S'MPI_Barrier()'
p843
S'93'
p844
tp845
asS'cloneofg4g2019/Engine/Plugins/Experimental/AlembicImporter/Source/ThirdParty/Alembic/hdf5/testpar/t_mpi.c'
p846
(lp847
(S'MPI_Comm_size()'
p848
S'68'
p849
tp850
a(S'MPI_Comm_rank()'
p851
S'69'
p852
tp853
a(S'MPI_File_open()'
p854
S'86'
p855
tp856
a(S'MPI_File_write_at()'
p857
S'100'
p858
tp859
a(S'MPI_File_close()'
p860
S'116'
p861
tp862
a(S'MPI_Comm_free()'
p863
S'118'
p864
tp865
a(S'MPI_Barrier()'
p866
S'122'
p867
tp868
a(S'MPI_Barrier()'
p869
S'128'
p870
tp871
a(S'MPI_File_open()'
p872
S'131'
p873
tp874
a(S'MPI_File_read_at()'
p875
S'140'
p876
tp877
a(S'MPI_File_close()'
p878
S'160'
p879
tp880
a(S'MPI_Comm_free()'
p881
S'162'
p882
tp883
a(S'MPI_Barrier()'
p884
S'170'
p885
tp886
a(S'MPI_Comm_size()'
p887
S'213'
p888
tp889
a(S'MPI_Comm_rank()'
p890
S'214'
p891
tp892
a(S'MPI_File_delete()'
p893
S'290'
p894
tp895
a(S'MPI_Barrier()'
p896
S'291'
p897
tp898
a(S'MPI_File_open()'
p899
S'293'
p900
tp901
a(S'MPI_File_write_at()'
p902
S'317'
p903
tp904
a(S'MPI_File_close()'
p905
S'325'
p906
tp907
a(S'MPI_Barrier()'
p908
S'328'
p909
tp910
a(S'MPI_File_open()'
p911
S'342'
p912
tp913
a(S'MPI_File_read_at()'
p914
S'353'
p915
tp916
a(S'MPI_File_close()'
p917
S'372'
p918
tp919
a(S'MPI_Barrier()'
p920
S'379'
p921
tp922
a(S'MPI_File_open()'
p923
S'384'
p924
tp925
a(S'MPI_File_get_size()'
p926
S'388'
p927
tp928
a(S'MPI_File_close()'
p929
S'394'
p930
tp931
a(S'MPI_Barrier()'
p932
S'401'
p933
tp934
a(S'MPI_Comm_size()'
p935
S'453'
p936
tp937
a(S'MPI_Comm_rank()'
p938
S'454'
p939
tp940
a(S'MPI_File_delete()'
p941
S'476'
p942
tp943
a(S'MPI_Barrier()'
p944
S'477'
p945
tp946
a(S'X_MPI_INFO_NULL()'
p947
S'481'
p948
tp949
a(S'MPI_Error_string()'
p950
S'483'
p951
tp952
a(S'MPI_Error_string()'
p953
S'495'
p954
tp955
a(S'MPI_Error_string()'
p956
S'502'
p957
tp958
a(S'MPI_Error_string()'
p959
S'507'
p960
tp961
a(S'MPI_Barrier()'
p962
S'516'
p963
tp964
a(S'X_MPI_BYTE()'
p965
S'537'
p966
tp967
a(S'MPI_Error_string()'
p968
S'539'
p969
tp970
a(S'MPI_Bcast()'
p971
S'549'
p972
tp973
a(S'MPI_Error_string()'
p974
S'564'
p975
tp976
a(S'MPI_Barrier()'
p977
S'568'
p978
tp979
a(S'MPI_Error_string()'
p980
S'571'
p981
tp982
a(S'MPI_Barrier()'
p983
S'579'
p984
tp985
a(S'MPI_Error_string()'
p986
S'593'
p987
tp988
a(S'MPI_File_close()'
p989
S'609'
p990
tp991
a(S'MPI_Barrier()'
p992
S'616'
p993
tp994
a(S'MPI_Comm_size()'
p995
S'697'
p996
tp997
a(S'MPI_Comm_rank()'
p998
S'698'
p999
tp1000
a(S'X_MPI_INFO_NULL()'
p1001
S'706'
p1002
tp1003
a(S'MPI_Error_string()'
p1004
S'708'
p1005
tp1006
a(S'MPI_Error_string()'
p1007
S'722'
p1008
tp1009
a(S'MPI_Error_string()'
p1010
S'728'
p1011
tp1012
a(S'MPI_Error_string()'
p1013
S'738'
p1014
tp1015
a(S'MPI_Error_string()'
p1016
S'744'
p1017
tp1018
a(S'MPI_Error_string()'
p1019
S'759'
p1020
tp1021
a(S'MPI_Error_string()'
p1022
S'764'
p1023
tp1024
a(S'MPI_Error_string()'
p1025
S'771'
p1026
tp1027
a(S'MPI_Error_string()'
p1028
S'777'
p1029
tp1030
a(S'MPI_Error_string()'
p1031
S'785'
p1032
tp1033
a(S'MPI_Error_string()'
p1034
S'792'
p1035
tp1036
a(S'MPI_Error_string()'
p1037
S'798'
p1038
tp1039
a(S'MPI_Error_string()'
p1040
S'803'
p1041
tp1042
a(S'MPI_Error_string()'
p1043
S'822'
p1044
tp1045
a(S'MPI_Barrier()'
p1046
S'828'
p1047
tp1048
a(S'MPI_Comm_size()'
p1049
S'883'
p1050
tp1051
a(S'MPI_Comm_rank()'
p1052
S'884'
p1053
tp1054
a(S'MPI_Error_string()'
p1055
S'908'
p1056
tp1057
a(S'MPI_Error_string()'
p1058
S'914'
p1059
tp1060
a(S'MPI_Error_string()'
p1061
S'924'
p1062
tp1063
a(S'MPI_Error_string()'
p1064
S'930'
p1065
tp1066
a(S'X_MPI_INFO_NULL()'
p1067
S'944'
p1068
tp1069
a(S'MPI_Error_string()'
p1070
S'946'
p1071
tp1072
a(S'X_MPI_BYTE()'
p1073
S'958'
p1074
tp1075
a(S'MPI_Error_string()'
p1076
S'962'
p1077
tp1078
a(S'MPI_Error_string()'
p1079
S'974'
p1080
tp1081
a(S'MPI_Error_string()'
p1082
S'982'
p1083
tp1084
a(S'MPI_Barrier()'
p1085
S'988'
p1086
tp1087
a(S'MPI_Allreduce()'
p1088
S'1082'
p1089
tp1090
a(S'MPI_Init()'
p1091
S'1093'
p1092
tp1093
a(S'MPI_Comm_size()'
p1094
S'1094'
p1095
tp1096
a(S'MPI_Comm_rank()'
p1097
S'1095'
p1098
tp1099
a(S'MPI_BANNER()'
p1100
S'1131'
p1101
tp1102
a(S'MPI_BANNER()'
p1103
S'1142'
p1104
tp1105
a(S'MPI_BANNER()'
p1106
S'1150'
p1107
tp1108
a(S'MPI_BANNER()'
p1109
S'1163'
p1110
tp1111
a(S'MPI_BANNER()'
p1112
S'1179'
p1113
tp1114
a(S'MPI_BANNER()'
p1115
S'1190'
p1116
tp1117
a(S'MPI_BANNER()'
p1118
S'1202'
p1119
tp1120
a(S'MPI_BANNER()'
p1121
S'1209'
p1122
tp1123
a(S'MPI_Barrier()'
p1124
S'1224'
p1125
tp1126
a(S'MPI_Finalize()'
p1127
S'1243'
p1128
tp1129
asS'cloneofg4g2019/Engine/Plugins/Experimental/ProxyLODPlugin/Source/ThirdParty/boost/mpi/collectives/all_gather.hpp'
p1130
(lp1131
(S'MPI_Comm()'
p1132
S'62'
p1133
tp1134
a(S'MPI_Comm()'
p1135
S'73'
p1136
tp1137
asS'cloneofg4g2019/Engine/Plugins/Experimental/AlembicImporter/Source/ThirdParty/Alembic/hdf5/testpar/t_cache.c'
p1138
(lp1139
(S'MPI_Comm_group()'
p1140
S'576'
p1141
tp1142
a(S'MPI_Group_excl()'
p1143
S'594'
p1144
tp1145
a(S'MPI_Comm_create()'
p1146
S'611'
p1147
tp1148
a(S'MPI_Comm_size()'
p1149
S'658'
p1150
tp1151
a(S'MPI_Comm_rank()'
p1152
S'674'
p1153
tp1154
a(S'MPI_Allreduce()'
p1155
S'847'
p1156
tp1157
a(S'X_MPI_INT()'
p1158
S'850'
p1159
tp1160
a(S'X_MPI_MAX()'
p1161
S'851'
p1162
tp1163
a(S'MPI_Allreduce()'
p1164
S'975'
p1165
tp1166
a(S'X_MPI_INT()'
p1167
S'978'
p1168
tp1169
a(S'X_MPI_MAX()'
p1170
S'979'
p1171
tp1172
a(S'MPI_Recv()'
p1173
S'1050'
p1174
tp1175
a(S'MPI_Send()'
p1176
S'1144'
p1177
tp1178
a(S'X_MPI_INT()'
p1179
S'1186'
p1180
tp1181
a(S'MPI_Type_struct()'
p1182
S'1220'
p1183
tp1184
a(S'MPI_Type_commit()'
p1185
S'1235'
p1186
tp1187
a(S'MPI_Type_free()'
p1188
S'1279'
p1189
tp1190
a(S'MPI_Init()'
p1191
S'7110'
p1192
tp1193
a(S'MPI_Comm_size()'
p1194
S'7111'
p1195
tp1196
a(S'MPI_Comm_rank()'
p1197
S'7112'
p1198
tp1199
a(S'MPI_Barrier()'
p1200
S'7288'
p1201
tp1202
a(S'MPI_Finalize()'
p1203
S'7307'
p1204
tp1205
asS'cloneofg4g2019/Engine/Plugins/Experimental/AlembicImporter/Source/ThirdParty/Alembic/hdf5/tools/perform/pio_engine.c'
p1206
(lp1207
(S'MPI_Comm_rank()'
p1208
S'287'
p1209
tp1210
a(S'MPI_Barrier()'
p1211
S'308'
p1212
tp1213
a(S'MPI_Barrier()'
p1214
S'336'
p1215
tp1216
a(S'MPI_Barrier()'
p1217
S'358'
p1218
tp1219
a(S'MPI_Type_contiguous()'
p1220
S'663'
p1221
tp1222
a(S'X_MPI_BYTE()'
p1223
S'664'
p1224
tp1225
a(S'MPI_Type_vector()'
p1226
S'668'
p1227
tp1228
a(S'MPI_Type_commit()'
p1229
S'673'
p1230
tp1231
a(S'MPI_Type_commit()'
p1232
S'677'
p1233
tp1234
a(S'MPI_Type_contiguous()'
p1235
S'684'
p1236
tp1237
a(S'MPI_Type_commit()'
p1238
S'689'
p1239
tp1240
a(S'MPI_Type_vector()'
p1241
S'693'
p1242
tp1243
a(S'MPI_Type_commit()'
p1244
S'698'
p1245
tp1246
a(S'MPI_Type_contiguous()'
p1247
S'702'
p1248
tp1249
a(S'MPI_Type_commit()'
p1250
S'707'
p1251
tp1252
a(S'MPI_Type_vector()'
p1253
S'711'
p1254
tp1255
a(S'MPI_Type_commit()'
p1256
S'716'
p1257
tp1258
a(S'MPI_Type_contiguous()'
p1259
S'720'
p1260
tp1261
a(S'MPI_Type_commit()'
p1262
S'725'
p1263
tp1264
a(S'MPI_Type_contiguous()'
p1265
S'729'
p1266
tp1267
a(S'MPI_Type_commit()'
p1268
S'734'
p1269
tp1270
a(S'MPI_Type_vector()'
p1271
S'738'
p1272
tp1273
a(S'MPI_Type_commit()'
p1274
S'743'
p1275
tp1276
a(S'MPI_File_write_at()'
p1277
S'1131'
p1278
tp1279
a(S'MPI_File_write_at()'
p1280
S'1154'
p1281
tp1282
a(S'MPI_File_write_at_all()'
p1283
S'1178'
p1284
tp1285
a(S'MPI_File_set_view()'
p1286
S'1192'
p1287
tp1288
a(S'MPI_File_write_at_all()'
p1289
S'1197'
p1290
tp1291
a(S'MPI_File_write_at()'
p1292
S'1293'
p1293
tp1294
a(S'MPI_File_set_view()'
p1295
S'1314'
p1296
tp1297
a(S'MPI_File_write_at_all()'
p1298
S'1319'
p1299
tp1300
a(S'X_MPI_BYTE()'
p1301
S'1320'
p1302
tp1303
a(S'MPI_Type_free()'
p1304
S'1412'
p1305
tp1306
a(S'MPI_Type_free()'
p1307
S'1416'
p1308
tp1309
a(S'MPI_Type_free()'
p1310
S'1422'
p1311
tp1312
a(S'MPI_Type_free()'
p1313
S'1426'
p1314
tp1315
a(S'MPI_Type_free()'
p1316
S'1430'
p1317
tp1318
a(S'MPI_Type_free()'
p1319
S'1434'
p1320
tp1321
a(S'MPI_Type_free()'
p1322
S'1438'
p1323
tp1324
a(S'MPI_Type_free()'
p1325
S'1442'
p1326
tp1327
a(S'MPI_Type_free()'
p1328
S'1446'
p1329
tp1330
a(S'MPI_Type_contiguous()'
p1331
S'1636'
p1332
tp1333
a(S'X_MPI_BYTE()'
p1334
S'1637'
p1335
tp1336
a(S'MPI_Type_vector()'
p1337
S'1641'
p1338
tp1339
a(S'MPI_Type_commit()'
p1340
S'1646'
p1341
tp1342
a(S'MPI_Type_commit()'
p1343
S'1650'
p1344
tp1345
a(S'MPI_Type_contiguous()'
p1346
S'1656'
p1347
tp1348
a(S'MPI_Type_commit()'
p1349
S'1661'
p1350
tp1351
a(S'MPI_Type_vector()'
p1352
S'1665'
p1353
tp1354
a(S'MPI_Type_commit()'
p1355
S'1670'
p1356
tp1357
a(S'MPI_Type_contiguous()'
p1358
S'1674'
p1359
tp1360
a(S'MPI_Type_commit()'
p1361
S'1679'
p1362
tp1363
a(S'MPI_Type_vector()'
p1364
S'1683'
p1365
tp1366
a(S'MPI_Type_commit()'
p1367
S'1688'
p1368
tp1369
a(S'MPI_Type_contiguous()'
p1370
S'1692'
p1371
tp1372
a(S'MPI_Type_commit()'
p1373
S'1697'
p1374
tp1375
a(S'MPI_Type_contiguous()'
p1376
S'1701'
p1377
tp1378
a(S'MPI_Type_commit()'
p1379
S'1706'
p1380
tp1381
a(S'MPI_Type_vector()'
p1382
S'1710'
p1383
tp1384
a(S'MPI_Type_commit()'
p1385
S'1715'
p1386
tp1387
a(S'MPI_File_read_at()'
p1388
S'2061'
p1389
tp1390
a(S'MPI_File_read_at()'
p1391
S'2084'
p1392
tp1393
a(S'MPI_File_read_at_all()'
p1394
S'2108'
p1395
tp1396
a(S'MPI_File_set_view()'
p1397
S'2122'
p1398
tp1399
a(S'MPI_File_read_at_all()'
p1400
S'2127'
p1401
tp1402
a(S'MPI_File_read_at()'
p1403
S'2223'
p1404
tp1405
a(S'MPI_File_set_view()'
p1406
S'2244'
p1407
tp1408
a(S'MPI_File_read_at_all()'
p1409
S'2249'
p1410
tp1411
a(S'X_MPI_BYTE()'
p1412
S'2250'
p1413
tp1414
a(S'MPI_Type_free()'
p1415
S'2367'
p1416
tp1417
a(S'MPI_Type_free()'
p1418
S'2371'
p1419
tp1420
a(S'MPI_Type_free()'
p1421
S'2377'
p1422
tp1423
a(S'MPI_Type_free()'
p1424
S'2381'
p1425
tp1426
a(S'MPI_Type_free()'
p1427
S'2385'
p1428
tp1429
a(S'MPI_Type_free()'
p1430
S'2389'
p1431
tp1432
a(S'MPI_Type_free()'
p1433
S'2393'
p1434
tp1435
a(S'MPI_Type_free()'
p1436
S'2397'
p1437
tp1438
a(S'MPI_Type_free()'
p1439
S'2401'
p1440
tp1441
a(S'MPI_Barrier()'
p1442
S'2474'
p1443
tp1444
a(S'MPI_File_delete()'
p1445
S'2480'
p1446
tp1447
a(S'MPI_File_open()'
p1448
S'2481'
p1449
tp1450
a(S'MPI_File_set_size()'
p1451
S'2491'
p1452
tp1453
a(S'MPI_File_open()'
p1454
S'2497'
p1455
tp1456
a(S'MPI_File_close()'
p1457
S'2573'
p1458
tp1459
a(S'MPI_File_delete()'
p1460
S'2625'
p1461
tp1462
asS'cloneofg4g2019/Engine/Plugins/Experimental/AlembicImporter/Source/ThirdParty/Alembic/hdf5/tools/perform/pio_perf.c'
p1463
(lp1464
(S'MPI_Init()'
p1465
S'340'
p1466
tp1467
a(S'MPI_Comm_size()'
p1468
S'341'
p1469
tp1470
a(S'MPI_Comm_rank()'
p1471
S'355'
p1472
tp1473
a(S'MPI_Finalize()'
p1474
S'393'
p1475
tp1476
a(S'MPI_Comm_size()'
p1477
S'565'
p1478
tp1479
a(S'MPI_Barrier()'
p1480
S'588'
p1481
tp1482
a(S'MPI_Comm_rank()'
p1483
S'861'
p1484
tp1485
a(S'MPI_Comm_size()'
p1486
S'862'
p1487
tp1488
a(S'MPI_Allreduce()'
p1489
S'864'
p1490
tp1491
a(S'MPI_Allreduce()'
p1492
S'865'
p1493
tp1494
a(S'MPI_Allreduce()'
p1495
S'866'
p1496
tp1497
a(S'MPI_Comm_size()'
p1498
S'927'
p1499
tp1500
a(S'MPI_Comm_rank()'
p1501
S'936'
p1502
tp1503
a(S'MPI_Comm_split()'
p1504
S'938'
p1505
tp1506
a(S'MPI_Comm_size()'
p1507
S'952'
p1508
tp1509
a(S'MPI_Comm_rank()'
p1510
S'953'
p1511
tp1512
a(S'MPI_Comm_rank()'
p1513
S'1065'
p1514
tp1515
a(S'MPI_Comm_rank()'
p1516
S'1089'
p1517
tp1518
a(S'MPI_Comm_rank()'
p1519
S'1552'
p1520
tp1521
asS'cloneofg4g2019/Engine/Plugins/Experimental/ProxyLODPlugin/Source/ThirdParty/boost/mpi/datatype.hpp'
p1522
(lp1523
(S'X_MPI_LONG_DOUBLE_INT()'
p1524
S'254'
p1525
tp1526
a(S'MPI_Type_contiguous()'
p1527
S'323'
p1528
tp1529
a(S'MPI_Type_commit()'
p1530
S'324'
p1531
tp1532
asS'cloneofg4g2019/Engine/Plugins/Experimental/AlembicImporter/Source/ThirdParty/Alembic/hdf5/testpar/t_pflush2.c'
p1533
(lp1534
(S'MPI_Init()'
p1535
S'150'
p1536
tp1537
a(S'MPI_Comm_size()'
p1538
S'151'
p1539
tp1540
a(S'MPI_Comm_rank()'
p1541
S'152'
p1542
tp1543
a(S'MPI_Finalize()'
p1544
S'213'
p1545
tp1546
asS'cloneofg4g2019/Engine/Plugins/Experimental/AlembicImporter/Source/ThirdParty/Alembic/hdf5/src/H5Eprivate.h'
p1547
(lp1548
(S'MPI_Error_string()'
p1549
S'115'
p1550
tp1551
asS'cloneofg4g2019/Engine/Plugins/Experimental/AlembicImporter/Source/ThirdParty/Alembic/hdf5/src/H5.c'
p1552
(lp1553
(S'MPI_Initialized()'
p1554
S'116'
p1555
tp1556
a(S'MPI_Finalized()'
p1557
S'117'
p1558
tp1559
a(S'MPI_Initialized()'
p1560
S'342'
p1561
tp1562
a(S'MPI_Finalized()'
p1563
S'343'
p1564
tp1565
asS'cloneofg4g2019/Engine/Plugins/Experimental/AlembicImporter/Source/ThirdParty/Alembic/hdf5/testpar/t_filter_read.c'
p1566
(lp1567
(S'MPI_Comm_size()'
p1568
S'72'
p1569
tp1570
a(S'MPI_Comm_rank()'
p1571
S'73'
p1572
tp1573
a(S'MPI_Barrier()'
p1574
S'125'
p1575
tp1576
a(S'MPI_Barrier()'
p1577
S'192'
p1578
tp1579
asS'cloneofg4g2019/Engine/Plugins/Experimental/AlembicImporter/Source/ThirdParty/Alembic/hdf5/testpar/testpar.h'
p1580
(lp1581
(S'MPI_Abort()'
p1582
S'61'
p1583
tp1584
a(S'MPI_BANNER()'
p1585
S'95'
p1586
tp1587
a(S'MPI_Barrier()'
p1588
S'96'
p1589
tp1590
a(S'MPI_BANNER()'
p1591
S'97'
p1592
tp1593
asS'cloneofg4g2019/Engine/Plugins/Experimental/AlembicImporter/Source/ThirdParty/Alembic/hdf5/testpar/t_file_image.c'
p1594
(lp1595
(S'MPI_Comm_size()'
p1596
S'88'
p1597
tp1598
a(S'MPI_Comm_rank()'
p1599
S'89'
p1600
tp1601
a(S'MPI_Ssend()'
p1602
S'167'
p1603
tp1604
a(S'X_MPI_BYTE()'
p1605
S'168'
p1606
tp1607
a(S'MPI_Ssend()'
p1608
S'171'
p1609
tp1610
a(S'X_MPI_BYTE()'
p1611
S'172'
p1612
tp1613
a(S'MPI_Recv()'
p1614
S'182'
p1615
tp1616
a(S'X_MPI_BYTE()'
p1617
S'183'
p1618
tp1619
a(S'MPI_Recv()'
p1620
S'190'
p1621
tp1622
a(S'X_MPI_BYTE()'
p1623
S'191'
p1624
tp1625
a(S'MPI_Recv()'
p1626
S'267'
p1627
tp1628
a(S'X_MPI_BYTE()'
p1629
S'268'
p1630
tp1631
a(S'MPI_Recv()'
p1632
S'276'
p1633
tp1634
a(S'X_MPI_BYTE()'
p1635
S'277'
p1636
tp1637
a(S'MPI_Ssend()'
p1638
S'364'
p1639
tp1640
a(S'X_MPI_BYTE()'
p1641
S'365'
p1642
tp1643
a(S'MPI_Ssend()'
p1644
S'370'
p1645
tp1646
a(S'X_MPI_BYTE()'
p1647
S'371'
p1648
tp1649
asS'cloneofg4g2019/Engine/Plugins/Experimental/AlembicImporter/Source/ThirdParty/Alembic/hdf5/tools/lib/ph5diff.h'
p1650
(lp1651
(S'X_MPI_TAG_ARGS()'
p1652
S'20'
p1653
tp1654
a(S'X_MPI_TAG_PRINT_TOK()'
p1655
S'21'
p1656
tp1657
a(S'X_MPI_TAG_TOK_REQUEST()'
p1658
S'24'
p1659
tp1660
a(S'X_MPI_TAG_DONE()'
p1661
S'25'
p1662
tp1663
a(S'X_MPI_TAG_TOK_RETURN()'
p1664
S'26'
p1665
tp1666
a(S'X_MPI_TAG_PRINT_DATA()'
p1667
S'27'
p1668
tp1669
a(S'X_MPI_TAG_END()'
p1670
S'30'
p1671
tp1672
a(S'X_MPI_TAG_PARALLEL()'
p1673
S'31'
p1674
tp1675
asS'cloneofg4g2019/Engine/Plugins/Experimental/AlembicImporter/Source/ThirdParty/Alembic/hdf5/testpar/t_mdset.c'
p1676
(lp1677
(S'MPI_Comm_rank()'
p1678
S'54'
p1679
tp1680
a(S'MPI_Comm_size()'
p1681
S'55'
p1682
tp1683
a(S'MPI_Comm_rank()'
p1684
S'89'
p1685
tp1686
a(S'MPI_Comm_size()'
p1687
S'90'
p1688
tp1689
a(S'MPI_Comm_rank()'
p1690
S'165'
p1691
tp1692
a(S'MPI_Comm_size()'
p1693
S'166'
p1694
tp1695
a(S'MPI_Barrier()'
p1696
S'209'
p1697
tp1698
a(S'MPI_Comm_rank()'
p1699
S'247'
p1700
tp1701
a(S'MPI_Comm_size()'
p1702
S'248'
p1703
tp1704
a(S'MPI_Comm_rank()'
p1705
S'362'
p1706
tp1707
a(S'MPI_Comm_size()'
p1708
S'363'
p1709
tp1710
a(S'MPI_Comm_rank()'
p1711
S'475'
p1712
tp1713
a(S'MPI_Comm_size()'
p1714
S'476'
p1715
tp1716
a(S'MPI_Comm_rank()'
p1717
S'613'
p1718
tp1719
a(S'MPI_Comm_size()'
p1720
S'614'
p1721
tp1722
a(S'MPI_Barrier()'
p1723
S'674'
p1724
tp1725
a(S'MPI_Barrier()'
p1726
S'711'
p1727
tp1728
a(S'MPI_Comm_rank()'
p1729
S'800'
p1730
tp1731
a(S'MPI_Comm_size()'
p1732
S'801'
p1733
tp1734
a(S'MPI_Barrier()'
p1735
S'860'
p1736
tp1737
a(S'MPI_Comm_rank()'
p1738
S'888'
p1739
tp1740
a(S'MPI_Comm_rank()'
p1741
S'1015'
p1742
tp1743
a(S'MPI_Comm_size()'
p1744
S'1016'
p1745
tp1746
a(S'MPI_Barrier()'
p1747
S'1059'
p1748
tp1749
a(S'MPI_Comm_rank()'
p1750
S'1097'
p1751
tp1752
a(S'MPI_Comm_size()'
p1753
S'1098'
p1754
tp1755
a(S'MPI_Comm_rank()'
p1756
S'1135'
p1757
tp1758
a(S'MPI_Barrier()'
p1759
S'1140'
p1760
tp1761
a(S'MPI_Comm_rank()'
p1762
S'1183'
p1763
tp1764
a(S'MPI_Comm_size()'
p1765
S'1184'
p1766
tp1767
a(S'MPI_Barrier()'
p1768
S'1223'
p1769
tp1770
a(S'MPI_Comm_rank()'
p1771
S'1257'
p1772
tp1773
a(S'MPI_Comm_size()'
p1774
S'1258'
p1775
tp1776
a(S'MPI_Comm_rank()'
p1777
S'1311'
p1778
tp1779
a(S'MPI_Barrier()'
p1780
S'1314'
p1781
tp1782
a(S'MPI_Comm_rank()'
p1783
S'1340'
p1784
tp1785
a(S'MPI_Comm_rank()'
p1786
S'1372'
p1787
tp1788
a(S'MPI_Comm_rank()'
p1789
S'1415'
p1790
tp1791
a(S'MPI_Comm_size()'
p1792
S'1416'
p1793
tp1794
a(S'MPI_Comm_rank()'
p1795
S'1450'
p1796
tp1797
a(S'MPI_Comm_size()'
p1798
S'1451'
p1799
tp1800
a(S'MPI_Comm_rank()'
p1801
S'1529'
p1802
tp1803
a(S'MPI_Comm_size()'
p1804
S'1530'
p1805
tp1806
a(S'MPI_Barrier()'
p1807
S'1619'
p1808
tp1809
a(S'MPI_Barrier()'
p1810
S'1652'
p1811
tp1812
a(S'MPI_Bcast()'
p1813
S'1776'
p1814
tp1815
a(S'MPI_Bcast()'
p1816
S'1778'
p1817
tp1818
a(S'MPI_Comm_rank()'
p1819
S'1827'
p1820
tp1821
a(S'MPI_Comm_size()'
p1822
S'1828'
p1823
tp1824
a(S'MPI_Comm_split()'
p1825
S'1833'
p1826
tp1827
a(S'MPI_Comm_free()'
p1828
S'1848'
p1829
tp1830
a(S'MPI_Comm_rank()'
p1831
S'1908'
p1832
tp1833
a(S'MPI_Comm_size()'
p1834
S'1909'
p1835
tp1836
a(S'MPI_Comm_rank()'
p1837
S'1910'
p1838
tp1839
a(S'MPI_Comm_size()'
p1840
S'1911'
p1841
tp1842
a(S'MPI_Comm_rank()'
p1843
S'2301'
p1844
tp1845
a(S'MPI_Comm_size()'
p1846
S'2302'
p1847
tp1848
a(S'MPI_Comm_rank()'
p1849
S'2303'
p1850
tp1851
a(S'MPI_Comm_size()'
p1852
S'2304'
p1853
tp1854
a(S'MPI_Comm_rank()'
p1855
S'2633'
p1856
tp1857
asS'cloneofg4g2019/Engine/Plugins/Experimental/AlembicImporter/Source/ThirdParty/Alembic/hdf5/src/H5Smpio.c'
p1858
(lp1859
(S'MPI_Type_free()'
p1860
S'190'
p1861
tp1862
a(S'MPI_Type_vector()'
p1863
S'660'
p1864
tp1865
a(S'MPI_Type_free()'
p1866
S'666'
p1867
tp1868
a(S'MPI_Type_create_hindexed()'
p1869
S'690'
p1870
tp1871
a(S'MPI_Type_free()'
p1872
S'691'
p1873
tp1874
a(S'MPI_Type_create_resized()'
p1875
S'695'
p1876
tp1877
a(S'MPI_Type_free()'
p1878
S'696'
p1879
tp1880
a(S'MPI_Type_free()'
p1881
S'929'
p1882
tp1883
asS'cloneofg4g2019/Engine/Plugins/Experimental/ProxyLODPlugin/Source/ThirdParty/boost/graph/distributed/page_rank.hpp'
p1884
(lp1885
(S'MPI_Comm_rank()'
p1886
S'40'
p1887
tp1888
a(S'MPI_Accumulate()'
p1889
S'53'
p1890
tp1891
a(S'MPI_Win_fence()'
p1892
S'60'
p1893
tp1894
a(S'MPI_Comm_rank()'
p1895
S'90'
p1896
tp1897
a(S'MPI_Win_create()'
p1898
S'115'
p1899
tp1900
a(S'X_MPI_INFO_NULL()'
p1901
S'118'
p1902
tp1903
a(S'MPI_Win_set_name()'
p1904
S'119'
p1905
tp1906
a(S'MPI_Win_create()'
p1907
S'120'
p1908
tp1909
a(S'X_MPI_INFO_NULL()'
p1910
S'123'
p1911
tp1912
a(S'MPI_Win_set_name()'
p1913
S'124'
p1914
tp1915
a(S'MPI_Win_fence()'
p1916
S'129'
p1917
tp1918
a(S'MPI_Win_fence()'
p1919
S'130'
p1920
tp1921
a(S'MPI_Win_free()'
p1922
S'144'
p1923
tp1924
a(S'MPI_Win_free()'
p1925
S'145'
p1926
tp1927
asS'cloneofg4g2019/Engine/Plugins/Experimental/AlembicImporter/Source/ThirdParty/Alembic/hdf5/test/h5test.c'
p1928
(lp1929
(S'MPI_Comm_rank()'
p1930
S'388'
p1931
tp1932
a(S'MPI_Initialized()'
p1933
S'712'
p1934
tp1935
a(S'MPI_Finalized()'
p1936
S'713'
p1937
tp1938
a(S'MPI_Comm_rank()'
p1939
S'716'
p1940
tp1941
a(S'MPI_Info_create()'
p1942
S'793'
p1943
tp1944
a(S'MPI_Info_get_nkeys()'
p1945
S'883'
p1946
tp1947
a(S'MPI_Info_get_nthkey()'
p1948
S'886'
p1949
tp1950
a(S'MPI_Info_get()'
p1951
S'887'
p1952
tp1953
a(S'MPI_File_open()'
p1954
S'970'
p1955
tp1956
a(S'MPI_File_get_size()'
p1957
S'972'
p1958
tp1959
a(S'MPI_File_close()'
p1960
S'974'
p1961
tp1962
a(S'MPI_Initialized()'
p1963
S'1111'
p1964
tp1965
a(S'MPI_Finalized()'
p1966
S'1112'
p1967
tp1968
a(S'MPI_Comm_rank()'
p1969
S'1115'
p1970
tp1971
a(S'MPI_Comm_size()'
p1972
S'1116'
p1973
tp1974
a(S'MPI_Bcast()'
p1975
S'1125'
p1976
tp1977
a(S'MPI_Bcast()'
p1978
S'1126'
p1979
tp1980
a(S'MPI_Bcast()'
p1981
S'1131'
p1982
tp1983
a(S'MPI_Bcast()'
p1984
S'1135'
p1985
tp1986
a(S'MPI_Bcast()'
p1987
S'1142'
p1988
tp1989
a(S'MPI_Barrier()'
p1990
S'1152'
p1991
tp1992
asS'cloneofg4g2019/Engine/Plugins/Experimental/ProxyLODPlugin/Source/ThirdParty/boost/mpi/timer.hpp'
p1993
(lp1994
(S'MPI_Wtime()'
p1995
S'71'
p1996
tp1997
asS'cloneofg4g2019/Engine/Plugins/Experimental/AlembicImporter/Source/ThirdParty/Alembic/hdf5/testpar/t_dset.c'
p1998
(lp1999
(S'MPI_Comm_size()'
p2000
S'301'
p2001
tp2002
a(S'MPI_Comm_rank()'
p2003
S'302'
p2004
tp2005
a(S'MPI_Barrier()'
p2006
S'396'
p2007
tp2008
a(S'MPI_Comm_size()'
p2009
S'446'
p2010
tp2011
a(S'MPI_Comm_rank()'
p2012
S'447'
p2013
tp2014
a(S'MPI_Comm_size()'
p2015
S'577'
p2016
tp2017
a(S'MPI_Comm_rank()'
p2018
S'578'
p2019
tp2020
a(S'MPI_Comm_size()'
p2021
S'1109'
p2022
tp2023
a(S'MPI_Comm_rank()'
p2024
S'1110'
p2025
tp2026
a(S'MPI_Comm_size()'
p2027
S'1522'
p2028
tp2029
a(S'MPI_Comm_rank()'
p2030
S'1523'
p2031
tp2032
a(S'MPI_Comm_size()'
p2033
S'1745'
p2034
tp2035
a(S'MPI_Comm_rank()'
p2036
S'1746'
p2037
tp2038
a(S'MPI_Comm_size()'
p2039
S'1910'
p2040
tp2041
a(S'MPI_Comm_rank()'
p2042
S'1911'
p2043
tp2044
a(S'MPI_Comm_size()'
p2045
S'2093'
p2046
tp2047
a(S'MPI_Comm_rank()'
p2048
S'2094'
p2049
tp2050
a(S'MPI_Comm_size()'
p2051
S'2340'
p2052
tp2053
a(S'MPI_Comm_rank()'
p2054
S'2341'
p2055
tp2056
a(S'MPI_Comm_size()'
p2057
S'2531'
p2058
tp2059
a(S'MPI_Comm_rank()'
p2060
S'2532'
p2061
tp2062
a(S'MPI_Barrier()'
p2063
S'2591'
p2064
tp2065
a(S'MPI_Comm_size()'
p2066
S'2707'
p2067
tp2068
a(S'MPI_Comm_rank()'
p2069
S'2708'
p2070
tp2071
a(S'MPI_Comm_size()'
p2072
S'2998'
p2073
tp2074
a(S'MPI_Comm_rank()'
p2075
S'2999'
p2076
tp2077
a(S'MPI_Barrier()'
p2078
S'3001'
p2079
tp2080
a(S'MPI_Comm_size()'
p2081
S'3372'
p2082
tp2083
a(S'MPI_Comm_size()'
p2084
S'3373'
p2085
tp2086
a(S'MPI_Comm_size()'
p2087
S'3496'
p2088
tp2089
a(S'MPI_Comm_rank()'
p2090
S'3497'
p2091
tp2092
a(S'MPI_Barrier()'
p2093
S'3499'
p2094
tp2095
a(S'MPI_Comm_size()'
p2096
S'3815'
p2097
tp2098
a(S'MPI_Comm_rank()'
p2099
S'3816'
p2100
tp2101
a(S'MPI_Barrier()'
p2102
S'3818'
p2103
tp2104
a(S'MPI_Comm_size()'
p2105
S'4076'
p2106
tp2107
a(S'MPI_Comm_rank()'
p2108
S'4077'
p2109
tp2110
a(S'MPI_Comm_size()'
p2111
S'4380'
p2112
tp2113
a(S'MPI_Comm_rank()'
p2114
S'4381'
p2115
tp2116
asS'cloneofg4g2019/Engine/Plugins/Experimental/AlembicImporter/Source/ThirdParty/Alembic/hdf5/testpar/t_prestart.c'
p2117
(lp2118
(S'MPI_Init()'
p2119
S'50'
p2120
tp2121
a(S'MPI_Comm_size()'
p2122
S'51'
p2123
tp2124
a(S'MPI_Comm_rank()'
p2125
S'52'
p2126
tp2127
a(S'MPI_Finalize()'
p2128
S'121'
p2129
tp2130
asS'cloneofg4g2019/Engine/Plugins/Experimental/ProxyLODPlugin/Source/ThirdParty/boost/mpi/operations.hpp'
p2131
(lp2132
(S'MPI_Op_free()'
p2133
S'309'
p2134
tp2135
asS'cloneofg4g2019/Engine/Plugins/Experimental/ProxyLODPlugin/Source/ThirdParty/boost/mpi/communicator.hpp'
p2136
(lp2137
(S'MPI_Comm()'
p2138
S'1514'
p2139
tp2140
a(S'MPI_Comm()'
p2141
S'1768'
p2142
tp2143
a(S'MPI_Comm()'
p2144
S'1791'
p2145
tp2146
a(S'MPI_Comm()'
p2147
S'1827'
p2148
tp2149
a(S'MPI_Comm()'
p2150
S'1850'
p2151
tp2152
a(S'MPI_Comm()'
p2153
S'1886'
p2154
tp2155
a(S'MPI_Comm()'
p2156
S'1907'
p2157
tp2158
asS'cloneofg4g2019/Engine/Plugins/Experimental/ProxyLODPlugin/Source/ThirdParty/boost/mpi/allocator.hpp'
p2159
(lp2160
(S'X_MPI_INFO_NULL()'
p2161
S'141'
p2162
tp2163
asS'cloneofg4g2019/Engine/Plugins/Experimental/AlembicImporter/Source/ThirdParty/Alembic/hdf5/testpar/t_span_tree.c'
p2164
(lp2165
(S'MPI_Comm_size()'
p2166
S'270'
p2167
tp2168
a(S'MPI_Comm_rank()'
p2169
S'271'
p2170
tp2171
a(S'MPI_Comm_size()'
p2172
S'732'
p2173
tp2174
a(S'MPI_Comm_rank()'
p2175
S'733'
p2176
tp2177
a(S'MPI_Comm_size()'
p2178
S'1632'
p2179
tp2180
a(S'MPI_Comm_rank()'
p2181
S'1633'
p2182
tp2183
a(S'MPI_Barrier()'
p2184
S'2026'
p2185
tp2186
a(S'MPI_Barrier()'
p2187
S'2240'
p2188
tp2189
a(S'MPI_Comm_size()'
p2190
S'2707'
p2191
tp2192
a(S'MPI_Comm_rank()'
p2193
S'2708'
p2194
tp2195
a(S'MPI_Barrier()'
p2196
S'2809'
p2197
tp2198
asS'cloneofg4g2019/Engine/Plugins/Experimental/AlembicImporter/Source/ThirdParty/Alembic/hdf5/testpar/t_init_term.c'
p2199
(lp2200
(S'MPI_Init()'
p2201
S'40'
p2202
tp2203
a(S'MPI_Comm_size()'
p2204
S'41'
p2205
tp2206
a(S'MPI_Comm_rank()'
p2207
S'42'
p2208
tp2209
a(S'MPI_Finalize()'
p2210
S'47'
p2211
tp2212
as.