ccollections
defaultdict
p0
(c__builtin__
list
p1
tp2
Rp3
S'Destruction/include/boost/mpi/operations.hpp'
p4
(lp5
(S'MPI_Op_free()'
p6
S'293'
p7
tp8
asS'Destruction/include/boost/mpi/datatype.hpp'
p9
(lp10
(S'X_MPI_LONG_DOUBLE_INT()'
p11
S'250'
p12
tp13
a(S'MPI_Type_contiguous()'
p14
S'310'
p15
tp16
a(S'MPI_Type_commit()'
p17
S'311'
p18
tp19
asS'Destruction/include/boost/mpi/communicator.hpp'
p20
(lp21
(S'MPI_Comm()'
p22
S'1292'
p23
tp24
a(S'MPI_Comm()'
p25
S'1492'
p26
tp27
a(S'MPI_Comm()'
p28
S'1515'
p29
tp30
a(S'MPI_Comm()'
p31
S'1551'
p32
tp33
a(S'MPI_Comm()'
p34
S'1574'
p35
tp36
asS'Destruction/include/boost/graph/distributed/page_rank.hpp'
p37
(lp38
(S'MPI_Comm_rank()'
p39
S'40'
p40
tp41
a(S'MPI_Accumulate()'
p42
S'53'
p43
tp44
a(S'MPI_Win_fence()'
p45
S'60'
p46
tp47
a(S'MPI_Comm_rank()'
p48
S'90'
p49
tp50
a(S'MPI_Win_create()'
p51
S'115'
p52
tp53
a(S'X_MPI_INFO_NULL()'
p54
S'118'
p55
tp56
a(S'MPI_Win_set_name()'
p57
S'119'
p58
tp59
a(S'MPI_Win_create()'
p60
S'120'
p61
tp62
a(S'X_MPI_INFO_NULL()'
p63
S'123'
p64
tp65
a(S'MPI_Win_set_name()'
p66
S'124'
p67
tp68
a(S'MPI_Win_fence()'
p69
S'129'
p70
tp71
a(S'MPI_Win_fence()'
p72
S'130'
p73
tp74
a(S'MPI_Win_free()'
p75
S'144'
p76
tp77
a(S'MPI_Win_free()'
p78
S'145'
p79
tp80
asS'Destruction/include/boost/mpi/timer.hpp'
p81
(lp82
(S'MPI_Wtime()'
p83
S'71'
p84
tp85
asS'Destruction/include/boost/graph/distributed/detail/mpi_process_group.ipp'
p86
(lp87
(S'MPI_Recv()'
p88
S'492'
p89
tp90
a(S'MPI_Get_count()'
p91
S'510'
p92
tp93
a(S'MPI_Recv()'
p94
S'516'
p95
tp96
a(S'MPI_Irecv()'
p97
S'665'
p98
tp99
a(S'X_MPI_PACKED()'
p100
S'666'
p101
tp102
a(S'MPI_Allgather()'
p103
S'837'
p104
tp105
a(S'MPI_Allgatherv()'
p106
S'856'
p107
tp108
a(S'X_MPI_BYTE()'
p109
S'859'
p110
tp111
a(S'MPI_Comm_group()'
p112
S'880'
p113
tp114
a(S'MPI_Group_incl()'
p115
S'884'
p116
tp117
a(S'MPI_Comm_create()'
p118
S'888'
p119
tp120
a(S'MPI_Group_free()'
p121
S'891'
p122
tp123
a(S'MPI_Group_free()'
p124
S'893'
p125
tp126
a(S'MPI_Comm_free()'
p127
S'898'
p128
tp129
a(S'MPI_Irecv()'
p130
S'929'
p131
tp132
a(S'MPI_Test()'
p133
S'934'
p134
tp135
a(S'MPI_Get_count()'
p136
S'967'
p137
tp138
a(S'MPI_Recv()'
p139
S'972'
p140
tp141
asS'Destruction/include/boost/mpi/allocator.hpp'
p142
(lp143
(S'X_MPI_INFO_NULL()'
p144
S'141'
p145
tp146
asS'Destruction/include/boost/graph/distributed/mpi_process_group.hpp'
p147
(lp148
(S'MPI_Bsend()'
p149
S'708'
p150
tp151
a(S'MPI_Isend()'
p152
S'714'
p153
tp154
a(S'MPI_Test()'
p155
S'720'
p156
tp157
a(S'MPI_Bsend()'
p158
S'744'
p159
tp160
a(S'MPI_Isend()'
p161
S'750'
p162
tp163
a(S'MPI_Test()'
p164
S'756'
p165
tp166
asS'Destruction/include/boost/mpi/exception.hpp'
p167
(lp168
(S'MPI_Error_class()'
p169
S'73'
p170
tp171
as.