ccollections
defaultdict
p0
(c__builtin__
list
p1
tp2
Rp3
S'homeworkInUstc/parallelComputer/source/16-5/tsp.c'
p4
(lp5
(S'MPI_Init()'
p6
S'108'
p7
tp8
a(S'MPI_Comm_rank()'
p9
S'111'
p10
tp11
a(S'MPI_Comm_size()'
p12
S'114'
p13
tp14
a(S'MPI_Bcast()'
p15
S'158'
p16
tp17
a(S'MPI_Barrier()'
p18
S'161'
p19
tp20
a(S'MPI_Bcast()'
p21
S'165'
p22
tp23
a(S'MPI_Barrier()'
p24
S'166'
p25
tp26
a(S'MPI_Send()'
p27
S'185'
p28
tp29
a(S'MPI_Recv()'
p30
S'192'
p31
tp32
a(S'MPI_Barrier()'
p33
S'195'
p34
tp35
a(S'MPI_Bcast()'
p36
S'198'
p37
tp38
a(S'MPI_Barrier()'
p39
S'199'
p40
tp41
a(S'MPI_Bcast()'
p42
S'206'
p43
tp44
a(S'MPI_Finalize()'
p45
S'215'
p46
tp47
asS'homeworkInUstc/parallelComputer/source/13-1/rank_sort.c'
p48
(lp49
(S'MPI_Init()'
p50
S'22'
p51
tp52
a(S'MPI_Comm_rank()'
p53
S'23'
p54
tp55
a(S'MPI_Comm_size()'
p56
S'24'
p57
tp58
a(S'MPI_Bcast()'
p59
S'29'
p60
tp61
a(S'MPI_Bcast()'
p62
S'67'
p63
tp64
a(S'MPI_Recv()'
p65
S'76'
p66
tp67
a(S'MPI_Recv()'
p68
S'78'
p69
tp70
a(S'MPI_Send()'
p71
S'82'
p72
tp73
a(S'MPI_Finalize()'
p74
S'95'
p75
tp76
asS'homeworkInUstc/parallelComputer/My_jobs/one/main.c'
p77
(lp78
(S'MPI_Comm_rank()'
p79
S'11'
p80
tp81
a(S'MPI_Comm_size()'
p82
S'12'
p83
tp84
a(S'MPI_Comm_split()'
p85
S'18'
p86
tp87
a(S'MPI_Comm_group()'
p88
S'21'
p89
tp90
a(S'MPI_Group_incl()'
p91
S'22'
p92
tp93
a(S'MPI_Comm_create()'
p94
S'25'
p95
tp96
a(S'MPI_Comm_rank()'
p97
S'29'
p98
tp99
a(S'MPI_Comm_size()'
p100
S'30'
p101
tp102
a(S'MPI_Send()'
p103
S'37'
p104
tp105
a(S'MPI_Recv()'
p106
S'39'
p107
tp108
a(S'MPI_Comm_rank()'
p109
S'42'
p110
tp111
a(S'MPI_Comm_size()'
p112
S'43'
p113
tp114
a(S'MPI_Send()'
p115
S'47'
p116
tp117
a(S'MPI_Recv()'
p118
S'51'
p119
tp120
a(S'MPI_Init()'
p121
S'62'
p122
tp123
a(S'MPI_Comm_rank()'
p124
S'63'
p125
tp126
a(S'MPI_Barrier()'
p127
S'70'
p128
tp129
a(S'MPI_Bcast()'
p130
S'71'
p131
tp132
a(S'MPI_Barrier()'
p133
S'72'
p134
tp135
a(S'MPI_Barrier()'
p136
S'79'
p137
tp138
a(S'MPI_Barrier()'
p139
S'81'
p140
tp141
a(S'MPI_Finalize()'
p142
S'90'
p143
tp144
asS'homeworkInUstc/parallelComputer/My_jobs/four/20-3/relaxation.c'
p145
(lp146
(S'MPI_Init()'
p147
S'60'
p148
tp149
a(S'MPI_Comm_size()'
p150
S'61'
p151
tp152
a(S'MPI_Comm_rank()'
p153
S'62'
p154
tp155
a(S'MPI_Bcast()'
p156
S'121'
p157
tp158
a(S'MPI_Bcast()'
p159
S'140'
p160
tp161
a(S'MPI_Send()'
p162
S'158'
p163
tp164
a(S'MPI_Send()'
p165
S'159'
p166
tp167
a(S'MPI_Recv()'
p168
S'165'
p169
tp170
a(S'MPI_Recv()'
p171
S'166'
p172
tp173
a(S'MPI_Bcast()'
p174
S'207'
p175
tp176
a(S'MPI_Bcast()'
p177
S'216'
p178
tp179
a(S'MPI_Allreduce()'
p180
S'223'
p181
tp182
a(S'MPI_Barrier()'
p183
S'244'
p184
tp185
a(S'MPI_Finalize()'
p186
S'245'
p187
tp188
asS'homeworkInUstc/parallelComputer/source/20-3/15-1/closure.c'
p189
(lp190
(S'MPI_Send()'
p191
S'88'
p192
tp193
a(S'MPI_Send()'
p194
S'90'
p195
tp196
a(S'MPI_Recv()'
p197
S'115'
p198
tp199
a(S'MPI_Recv()'
p200
S'117'
p201
tp202
a(S'MPI_Send()'
p203
S'147'
p204
tp205
a(S'MPI_Recv()'
p206
S'148'
p207
tp208
a(S'MPI_Recv()'
p209
S'155'
p210
tp211
a(S'MPI_Send()'
p212
S'156'
p213
tp214
a(S'MPI_Recv()'
p215
S'178'
p216
tp217
a(S'MPI_Send()'
p218
S'182'
p219
tp220
a(S'MPI_Init()'
p221
S'223'
p222
tp223
a(S'MPI_Comm_size()'
p224
S'225'
p225
tp226
a(S'MPI_Comm_rank()'
p227
S'227'
p228
tp229
a(S'MPI_Send()'
p230
S'235'
p231
tp232
a(S'MPI_Recv()'
p233
S'238'
p234
tp235
a(S'MPI_Finalize()'
p236
S'266'
p237
tp238
asS'homeworkInUstc/parallelComputer/source/18-6/qr.c'
p239
(lp240
(S'MPI_Init()'
p241
S'49'
p242
tp243
a(S'MPI_Comm_rank()'
p244
S'50'
p245
tp246
a(S'MPI_Comm_size()'
p247
S'51'
p248
tp249
a(S'MPI_Bcast()'
p250
S'85'
p251
tp252
a(S'MPI_Send()'
p253
S'115'
p254
tp255
a(S'MPI_Send()'
p256
S'116'
p257
tp258
a(S'MPI_Recv()'
p259
S'122'
p260
tp261
a(S'MPI_Recv()'
p262
S'123'
p263
tp264
a(S'MPI_Send()'
p265
S'162'
p266
tp267
a(S'MPI_Send()'
p268
S'163'
p269
tp270
a(S'MPI_Send()'
p271
S'171'
p272
tp273
a(S'MPI_Send()'
p274
S'172'
p275
tp276
a(S'MPI_Recv()'
p277
S'181'
p278
tp279
a(S'MPI_Recv()'
p280
S'182'
p281
tp282
a(S'MPI_Send()'
p283
S'206'
p284
tp285
a(S'MPI_Send()'
p286
S'207'
p287
tp288
a(S'MPI_Send()'
p289
S'241'
p290
tp291
a(S'MPI_Send()'
p292
S'242'
p293
tp294
a(S'MPI_Send()'
p295
S'251'
p296
tp297
a(S'MPI_Send()'
p298
S'252'
p299
tp300
a(S'MPI_Recv()'
p301
S'260'
p302
tp303
a(S'MPI_Recv()'
p304
S'261'
p305
tp306
a(S'MPI_Wtime()'
p307
S'408'
p308
tp309
a(S'MPI_Barrier()'
p310
S'418'
p311
tp312
a(S'MPI_Finalize()'
p313
S'419'
p314
tp315
asS'homeworkInUstc/parallelComputer/source/20-3/15-4/mst.c'
p316
(lp317
(S'MPI_Bcast()'
p318
S'84'
p319
tp320
a(S'MPI_Recv()'
p321
S'147'
p322
tp323
a(S'MPI_Recv()'
p324
S'148'
p325
tp326
a(S'MPI_Send()'
p327
S'154'
p328
tp329
a(S'MPI_Send()'
p330
S'155'
p331
tp332
a(S'MPI_Barrier()'
p333
S'157'
p334
tp335
a(S'MPI_Init()'
p336
S'197'
p337
tp338
a(S'MPI_Comm_size()'
p339
S'198'
p340
tp341
a(S'MPI_Comm_rank()'
p342
S'199'
p343
tp344
a(S'MPI_Bcast()'
p345
S'209'
p346
tp347
a(S'MPI_Gather()'
p348
S'225'
p349
tp350
a(S'MPI_Send()'
p351
S'230'
p352
tp353
a(S'MPI_Recv()'
p354
S'232'
p355
tp356
a(S'MPI_Barrier()'
p357
S'233'
p358
tp359
a(S'MPI_Barrier()'
p360
S'245'
p361
tp362
a(S'MPI_Gather()'
p363
S'246'
p364
tp365
a(S'MPI_Gather()'
p366
S'247'
p367
tp368
a(S'MPI_Barrier()'
p369
S'250'
p370
tp371
a(S'MPI_Barrier()'
p372
S'254'
p373
tp374
a(S'MPI_Gather()'
p375
S'256'
p376
tp377
a(S'MPI_Gather()'
p378
S'257'
p379
tp380
a(S'MPI_Barrier()'
p381
S'258'
p382
tp383
a(S'MPI_Gather()'
p384
S'268'
p385
tp386
a(S'MPI_Gather()'
p387
S'275'
p388
tp389
a(S'MPI_Finalize()'
p390
S'284'
p391
tp392
asS'homeworkInUstc/parallelComputer/source/17-3/17-1/including.c'
p393
(lp394
(S'MPI_Init()'
p395
S'74'
p396
tp397
a(S'MPI_Comm_rank()'
p398
S'75'
p399
tp400
a(S'MPI_Comm_size()'
p401
S'76'
p402
tp403
a(S'MPI_Barrier()'
p404
S'96'
p405
tp406
a(S'MPI_Bcast()'
p407
S'98'
p408
tp409
a(S'MPI_Bcast()'
p410
S'99'
p411
tp412
a(S'MPI_Bcast()'
p413
S'100'
p414
tp415
a(S'MPI_Bcast()'
p416
S'101'
p417
tp418
a(S'MPI_Bcast()'
p419
S'102'
p420
tp421
a(S'MPI_Barrier()'
p422
S'104'
p423
tp424
a(S'MPI_Barrier()'
p425
S'111'
p426
tp427
a(S'MPI_Reduce()'
p428
S'114'
p429
tp430
a(S'MPI_Finalize()'
p431
S'127'
p432
tp433
asS'homeworkInUstc/parallelComputer/source/18-7/svd.c'
p434
(lp435
(S'MPI_Init()'
p436
S'69'
p437
tp438
a(S'MPI_Comm_size()'
p439
S'70'
p440
tp441
a(S'MPI_Comm_rank()'
p442
S'71'
p443
tp444
a(S'MPI_Bcast()'
p445
S'81'
p446
tp447
a(S'MPI_Bcast()'
p448
S'82'
p449
tp450
a(S'MPI_Send()'
p451
S'112'
p452
tp453
a(S'MPI_Send()'
p454
S'113'
p455
tp456
a(S'MPI_Recv()'
p457
S'118'
p458
tp459
a(S'MPI_Recv()'
p460
S'119'
p461
tp462
a(S'MPI_Allreduce()'
p463
S'142'
p464
tp465
a(S'MPI_Send()'
p466
S'195'
p467
tp468
a(S'MPI_Recv()'
p469
S'200'
p470
tp471
a(S'MPI_Send()'
p472
S'209'
p473
tp474
a(S'MPI_Recv()'
p475
S'214'
p476
tp477
a(S'MPI_Finalize()'
p478
S'278'
p479
tp480
asS'homeworkInUstc/parallelComputer/My_jobs/four/20-3/20-2/seidel.c'
p481
(lp482
(S'MPI_Bcast()'
p483
S'115'
p484
tp485
a(S'MPI_Bcast()'
p486
S'140'
p487
tp488
a(S'MPI_Send()'
p489
S'156'
p490
tp491
a(S'MPI_Send()'
p492
S'157'
p493
tp494
a(S'MPI_Recv()'
p495
S'166'
p496
tp497
a(S'MPI_Recv()'
p498
S'167'
p499
tp500
a(S'MPI_Bcast()'
p501
S'217'
p502
tp503
a(S'MPI_Bcast()'
p504
S'225'
p505
tp506
a(S'MPI_Allreduce()'
p507
S'233'
p508
tp509
a(S'MPI_Init()'
p510
S'268'
p511
tp512
a(S'MPI_Comm_size()'
p513
S'269'
p514
tp515
a(S'MPI_Comm_rank()'
p516
S'270'
p517
tp518
a(S'MPI_Barrier()'
p519
S'283'
p520
tp521
a(S'MPI_Finalize()'
p522
S'284'
p523
tp524
asS'homeworkInUstc/parallelComputer/source/18-1/transpose.c'
p525
(lp526
(S'MPI_Init()'
p527
S'41'
p528
tp529
a(S'MPI_Comm_size()'
p530
S'42'
p531
tp532
a(S'MPI_Comm_rank()'
p533
S'43'
p534
tp535
a(S'MPI_Bcast()'
p536
S'71'
p537
tp538
a(S'MPI_Send()'
p539
S'117'
p540
tp541
a(S'MPI_Recv()'
p542
S'121'
p543
tp544
a(S'MPI_Send()'
p545
S'132'
p546
tp547
a(S'MPI_Recv()'
p548
S'134'
p549
tp550
a(S'MPI_Recv()'
p551
S'148'
p552
tp553
a(S'MPI_Send()'
p554
S'150'
p555
tp556
a(S'MPI_Recv()'
p557
S'177'
p558
tp559
a(S'MPI_Send()'
p560
S'188'
p561
tp562
a(S'MPI_Barrier()'
p563
S'216'
p564
tp565
a(S'MPI_Finalize()'
p566
S'217'
p567
tp568
asS'homeworkInUstc/parallelComputer/My_jobs/three/15-4/mst.c'
p569
(lp570
(S'MPI_Bcast()'
p571
S'87'
p572
tp573
a(S'MPI_Recv()'
p574
S'150'
p575
tp576
a(S'MPI_Recv()'
p577
S'151'
p578
tp579
a(S'MPI_Send()'
p580
S'157'
p581
tp582
a(S'MPI_Send()'
p583
S'158'
p584
tp585
a(S'MPI_Barrier()'
p586
S'160'
p587
tp588
a(S'MPI_Init()'
p589
S'200'
p590
tp591
a(S'MPI_Comm_size()'
p592
S'201'
p593
tp594
a(S'MPI_Comm_rank()'
p595
S'202'
p596
tp597
a(S'MPI_Bcast()'
p598
S'212'
p599
tp600
a(S'MPI_Gather()'
p601
S'228'
p602
tp603
a(S'MPI_Send()'
p604
S'233'
p605
tp606
a(S'MPI_Recv()'
p607
S'235'
p608
tp609
a(S'MPI_Barrier()'
p610
S'236'
p611
tp612
a(S'MPI_Barrier()'
p613
S'248'
p614
tp615
a(S'MPI_Gather()'
p616
S'249'
p617
tp618
a(S'MPI_Gather()'
p619
S'250'
p620
tp621
a(S'MPI_Barrier()'
p622
S'253'
p623
tp624
a(S'MPI_Barrier()'
p625
S'257'
p626
tp627
a(S'MPI_Gather()'
p628
S'259'
p629
tp630
a(S'MPI_Gather()'
p631
S'260'
p632
tp633
a(S'MPI_Barrier()'
p634
S'261'
p635
tp636
a(S'MPI_Gather()'
p637
S'271'
p638
tp639
a(S'MPI_Gather()'
p640
S'278'
p641
tp642
a(S'MPI_Finalize()'
p643
S'287'
p644
tp645
asS'homeworkInUstc/parallelComputer/My_jobs/four/20-3/20-1/jacobi.c'
p646
(lp647
(S'MPI_Send()'
p648
S'138'
p649
tp650
a(S'MPI_Send()'
p651
S'139'
p652
tp653
a(S'MPI_Recv()'
p654
S'145'
p655
tp656
a(S'MPI_Recv()'
p657
S'146'
p658
tp659
a(S'MPI_Allreduce()'
p660
S'183'
p661
tp662
a(S'MPI_Allgather()'
p663
S'186'
p664
tp665
a(S'MPI_Init()'
p666
S'251'
p667
tp668
a(S'MPI_Comm_size()'
p669
S'252'
p670
tp671
a(S'MPI_Comm_rank()'
p672
S'253'
p673
tp674
a(S'MPI_Bcast()'
p675
S'258'
p676
tp677
a(S'MPI_Bcast()'
p678
S'262'
p679
tp680
a(S'MPI_Barrier()'
p681
S'266'
p682
tp683
a(S'MPI_Finalize()'
p684
S'267'
p685
tp686
asS'homeworkInUstc/parallelComputer/source/18-8/cholersky.c'
p687
(lp688
(S'MPI_Init()'
p689
S'21'
p690
tp691
a(S'MPI_Comm_rank()'
p692
S'22'
p693
tp694
a(S'MPI_Comm_size()'
p695
S'23'
p696
tp697
a(S'MPI_Bcast()'
p698
S'64'
p699
tp700
a(S'MPI_Bcast()'
p701
S'69'
p702
tp703
a(S'MPI_Send()'
p704
S'91'
p705
tp706
a(S'MPI_Recv()'
p707
S'100'
p708
tp709
a(S'MPI_Finalize()'
p710
S'118'
p711
tp712
asS'homeworkInUstc/parallelComputer/My_jobs/two/Matrix/matrix.cpp'
p713
(lp714
(S'MPI_Wtime()'
p715
S'77'
p716
tp717
a(S'MPI_Init()'
p718
S'150'
p719
tp720
a(S'MPI_Comm_size()'
p721
S'151'
p722
tp723
a(S'MPI_Comm_rank()'
p724
S'152'
p725
tp726
a(S'MPI_Send()'
p727
S'166'
p728
tp729
a(S'MPI_Send()'
p730
S'167'
p731
tp732
a(S'MPI_Send()'
p733
S'168'
p734
tp735
a(S'MPI_Recv()'
p736
S'172'
p737
tp738
a(S'MPI_Recv()'
p739
S'173'
p740
tp741
a(S'MPI_Recv()'
p742
S'174'
p743
tp744
a(S'MPI_Send()'
p745
S'209'
p746
tp747
a(S'MPI_Send()'
p748
S'212'
p749
tp750
a(S'MPI_Recv()'
p751
S'220'
p752
tp753
a(S'MPI_Recv()'
p754
S'223'
p755
tp756
a(S'MPI_Send()'
p757
S'245'
p758
tp759
a(S'MPI_Recv()'
p760
S'246'
p761
tp762
a(S'MPI_Recv()'
p763
S'255'
p764
tp765
a(S'MPI_Send()'
p766
S'256'
p767
tp768
a(S'MPI_Send()'
p769
S'266'
p770
tp771
a(S'MPI_Recv()'
p772
S'271'
p773
tp774
a(S'MPI_Finalize()'
p775
S'283'
p776
tp777
asS'homeworkInUstc/parallelComputer/source/17-2/intersect.c'
p778
(lp779
(S'MPI_Barrier()'
p780
S'142'
p781
tp782
a(S'MPI_Bcast()'
p783
S'143'
p784
tp785
a(S'MPI_Bcast()'
p786
S'144'
p787
tp788
a(S'MPI_Bcast()'
p789
S'145'
p790
tp791
a(S'MPI_Bcast()'
p792
S'146'
p793
tp794
a(S'MPI_Bcast()'
p795
S'147'
p796
tp797
a(S'MPI_Bcast()'
p798
S'148'
p799
tp800
a(S'MPI_Barrier()'
p801
S'149'
p802
tp803
a(S'MPI_Scan()'
p804
S'183'
p805
tp806
a(S'MPI_Init()'
p807
S'230'
p808
tp809
a(S'MPI_Comm_rank()'
p810
S'231'
p811
tp812
a(S'MPI_Comm_size()'
p813
S'232'
p814
tp815
a(S'MPI_Barrier()'
p816
S'240'
p817
tp818
a(S'MPI_Finalize()'
p819
S'248'
p820
tp821
asS'homeworkInUstc/parallelComputer/My_jobs/four/20-3/18-2/matrixvector.c'
p822
(lp823
(S'MPI_Init()'
p824
S'74'
p825
tp826
a(S'MPI_Comm_size()'
p827
S'75'
p828
tp829
a(S'MPI_Comm_rank()'
p830
S'76'
p831
tp832
a(S'MPI_Bcast()'
p833
S'136'
p834
tp835
a(S'MPI_Bcast()'
p836
S'166'
p837
tp838
a(S'MPI_Send()'
p839
S'181'
p840
tp841
a(S'MPI_Send()'
p842
S'186'
p843
tp844
a(S'MPI_Send()'
p845
S'187'
p846
tp847
a(S'X_MPI_FLOAT()'
p848
S'189'
p849
tp850
a(S'MPI_Recv()'
p851
S'198'
p852
tp853
a(S'MPI_Recv()'
p854
S'202'
p855
tp856
a(S'MPI_Recv()'
p857
S'204'
p858
tp859
a(S'MPI_Barrier()'
p860
S'212'
p861
tp862
a(S'MPI_Barrier()'
p863
S'254'
p864
tp865
a(S'MPI_Recv()'
p866
S'264'
p867
tp868
a(S'MPI_Recv()'
p869
S'267'
p870
tp871
a(S'X_MPI_FLOAT()'
p872
S'269'
p873
tp874
a(S'X_MPI_COMM_WORLD()'
p875
S'270'
p876
tp877
a(S'MPI_Send()'
p878
S'279'
p879
tp880
a(S'MPI_Send()'
p881
S'281'
p882
tp883
a(S'MPI_Barrier()'
p884
S'293'
p885
tp886
a(S'MPI_Barrier()'
p887
S'306'
p888
tp889
a(S'MPI_Finalize()'
p890
S'307'
p891
tp892
asS'homeworkInUstc/parallelComputer/source/21-3/single.c'
p893
(lp894
(S'MPI_Init()'
p895
S'81'
p896
tp897
a(S'MPI_Comm_size()'
p898
S'82'
p899
tp900
a(S'MPI_Comm_rank()'
p901
S'83'
p902
tp903
a(S'MPI_Bcast()'
p904
S'92'
p905
tp906
a(S'MPI_Send()'
p907
S'118'
p908
tp909
a(S'MPI_Send()'
p910
S'119'
p911
tp912
a(S'MPI_Recv()'
p913
S'124'
p914
tp915
a(S'MPI_Recv()'
p916
S'125'
p917
tp918
a(S'MPI_Allreduce()'
p919
S'149'
p920
tp921
a(S'MPI_Send()'
p922
S'201'
p923
tp924
a(S'MPI_Recv()'
p925
S'206'
p926
tp927
a(S'MPI_Send()'
p928
S'215'
p929
tp930
a(S'MPI_Recv()'
p931
S'220'
p932
tp933
a(S'MPI_Finalize()'
p934
S'269'
p935
tp936
asS'homeworkInUstc/parallelComputer/source/20-3/18-4/cannon.c'
p937
(lp938
(S'MPI_Send()'
p939
S'84'
p940
tp941
a(S'MPI_Send()'
p942
S'85'
p943
tp944
a(S'MPI_Sendrecv()'
p945
S'97'
p946
tp947
a(S'MPI_Sendrecv()'
p948
S'102'
p949
tp950
a(S'MPI_Sendrecv()'
p951
S'128'
p952
tp953
a(S'MPI_Sendrecv()'
p954
S'133'
p955
tp956
a(S'MPI_Recv()'
p957
S'162'
p958
tp959
a(S'MPI_Init()'
p960
S'211'
p961
tp962
a(S'MPI_Comm_size()'
p963
S'212'
p964
tp965
a(S'MPI_Comm_rank()'
p966
S'213'
p967
tp968
a(S'MPI_Finalize()'
p969
S'222'
p970
tp971
a(S'MPI_Finalize()'
p972
S'230'
p973
tp974
a(S'MPI_Recv()'
p975
S'272'
p976
tp977
a(S'MPI_Recv()'
p978
S'273'
p979
tp980
a(S'MPI_Wtime()'
p981
S'276'
p982
tp983
a(S'MPI_Wtime()'
p984
S'281'
p985
tp986
a(S'MPI_Barrier()'
p987
S'300'
p988
tp989
a(S'MPI_Finalize()'
p990
S'301'
p991
tp992
asS'homeworkInUstc/parallelComputer/source/20-3/18-6/qr.c'
p993
(lp994
(S'MPI_Init()'
p995
S'49'
p996
tp997
a(S'MPI_Comm_rank()'
p998
S'50'
p999
tp1000
a(S'MPI_Comm_size()'
p1001
S'51'
p1002
tp1003
a(S'MPI_Bcast()'
p1004
S'85'
p1005
tp1006
a(S'MPI_Send()'
p1007
S'115'
p1008
tp1009
a(S'MPI_Send()'
p1010
S'116'
p1011
tp1012
a(S'MPI_Recv()'
p1013
S'122'
p1014
tp1015
a(S'MPI_Recv()'
p1016
S'123'
p1017
tp1018
a(S'MPI_Send()'
p1019
S'162'
p1020
tp1021
a(S'MPI_Send()'
p1022
S'163'
p1023
tp1024
a(S'MPI_Send()'
p1025
S'171'
p1026
tp1027
a(S'MPI_Send()'
p1028
S'172'
p1029
tp1030
a(S'MPI_Recv()'
p1031
S'181'
p1032
tp1033
a(S'MPI_Recv()'
p1034
S'182'
p1035
tp1036
a(S'MPI_Send()'
p1037
S'206'
p1038
tp1039
a(S'MPI_Send()'
p1040
S'207'
p1041
tp1042
a(S'MPI_Send()'
p1043
S'241'
p1044
tp1045
a(S'MPI_Send()'
p1046
S'242'
p1047
tp1048
a(S'MPI_Send()'
p1049
S'251'
p1050
tp1051
a(S'MPI_Send()'
p1052
S'252'
p1053
tp1054
a(S'MPI_Recv()'
p1055
S'260'
p1056
tp1057
a(S'MPI_Recv()'
p1058
S'261'
p1059
tp1060
a(S'MPI_Wtime()'
p1061
S'408'
p1062
tp1063
a(S'MPI_Barrier()'
p1064
S'418'
p1065
tp1066
a(S'MPI_Finalize()'
p1067
S'419'
p1068
tp1069
asS'homeworkInUstc/parallelComputer/source/20-2/fox.c'
p1070
(lp1071
(S'MPI_Init()'
p1072
S'16'
p1073
tp1074
a(S'MPI_Wtime()'
p1075
S'17'
p1076
tp1077
a(S'MPI_Comm_size()'
p1078
S'18'
p1079
tp1080
a(S'MPI_Comm_rank()'
p1081
S'19'
p1082
tp1083
a(S'MPI_Finalize()'
p1084
S'28'
p1085
tp1086
a(S'MPI_Finalize()'
p1087
S'33'
p1088
tp1089
a(S'MPI_Finalize()'
p1090
S'38'
p1091
tp1092
a(S'MPI_Cart_create()'
p1093
S'74'
p1094
tp1095
a(S'MPI_Comm_rank()'
p1096
S'75'
p1097
tp1098
a(S'MPI_Cart_coords()'
p1099
S'76'
p1100
tp1101
a(S'MPI_Comm_split()'
p1102
S'77'
p1103
tp1104
a(S'MPI_Comm_split()'
p1105
S'78'
p1106
tp1107
a(S'MPI_Comm_rank()'
p1108
S'80'
p1109
tp1110
a(S'MPI_Comm_rank()'
p1111
S'81'
p1112
tp1113
a(S'MPI_Isend()'
p1114
S'85'
p1115
tp1116
a(S'MPI_Bcast()'
p1117
S'91'
p1118
tp1119
a(S'MPI_Wait()'
p1120
S'99'
p1121
tp1122
a(S'MPI_Recv()'
p1123
S'100'
p1124
tp1125
a(S'MPI_Comm_free()'
p1126
S'114'
p1127
tp1128
a(S'MPI_Comm_free()'
p1129
S'115'
p1130
tp1131
a(S'MPI_Comm_free()'
p1132
S'116'
p1133
tp1134
a(S'MPI_Wtime()'
p1135
S'121'
p1136
tp1137
a(S'MPI_Finalize()'
p1138
S'122'
p1139
tp1140
asS'homeworkInUstc/parallelComputer/source/21-4/qr_value.c'
p1141
(lp1142
(S'MPI_Init()'
p1143
S'61'
p1144
tp1145
a(S'MPI_Comm_rank()'
p1146
S'62'
p1147
tp1148
a(S'MPI_Comm_size()'
p1149
S'63'
p1150
tp1151
a(S'MPI_Bcast()'
p1152
S'106'
p1153
tp1154
a(S'MPI_Send()'
p1155
S'141'
p1156
tp1157
a(S'MPI_Send()'
p1158
S'142'
p1159
tp1160
a(S'MPI_Recv()'
p1161
S'147'
p1162
tp1163
a(S'MPI_Recv()'
p1164
S'148'
p1165
tp1166
a(S'MPI_Send()'
p1167
S'189'
p1168
tp1169
a(S'MPI_Send()'
p1170
S'190'
p1171
tp1172
a(S'MPI_Send()'
p1173
S'198'
p1174
tp1175
a(S'MPI_Send()'
p1176
S'199'
p1177
tp1178
a(S'MPI_Recv()'
p1179
S'208'
p1180
tp1181
a(S'MPI_Recv()'
p1182
S'209'
p1183
tp1184
a(S'MPI_Send()'
p1185
S'233'
p1186
tp1187
a(S'MPI_Send()'
p1188
S'234'
p1189
tp1190
a(S'MPI_Send()'
p1191
S'268'
p1192
tp1193
a(S'MPI_Send()'
p1194
S'269'
p1195
tp1196
a(S'MPI_Send()'
p1197
S'278'
p1198
tp1199
a(S'MPI_Send()'
p1200
S'279'
p1201
tp1202
a(S'MPI_Recv()'
p1203
S'287'
p1204
tp1205
a(S'MPI_Recv()'
p1206
S'288'
p1207
tp1208
a(S'MPI_Send()'
p1209
S'424'
p1210
tp1211
a(S'MPI_Send()'
p1212
S'427'
p1213
tp1214
a(S'MPI_Recv()'
p1215
S'432'
p1216
tp1217
a(S'MPI_Recv()'
p1218
S'435'
p1219
tp1220
a(S'MPI_Send()'
p1221
S'454'
p1222
tp1223
a(S'MPI_Recv()'
p1224
S'455'
p1225
tp1226
a(S'MPI_Recv()'
p1227
S'463'
p1228
tp1229
a(S'MPI_Send()'
p1230
S'464'
p1231
tp1232
a(S'MPI_Send()'
p1233
S'475'
p1234
tp1235
a(S'MPI_Recv()'
p1236
S'480'
p1237
tp1238
a(S'MPI_Bcast()'
p1239
S'500'
p1240
tp1241
a(S'MPI_Send()'
p1242
S'526'
p1243
tp1244
a(S'MPI_Send()'
p1245
S'527'
p1246
tp1247
a(S'MPI_Recv()'
p1248
S'532'
p1249
tp1250
a(S'MPI_Recv()'
p1251
S'533'
p1252
tp1253
a(S'MPI_Wtime()'
p1254
S'560'
p1255
tp1256
a(S'MPI_Barrier()'
p1257
S'571'
p1258
tp1259
a(S'MPI_Finalize()'
p1260
S'572'
p1261
tp1262
asS'homeworkInUstc/parallelComputer/source/13-2/quick_sort.c'
p1263
(lp1264
(S'MPI_Init()'
p1265
S'24'
p1266
tp1267
a(S'MPI_Comm_rank()'
p1268
S'28'
p1269
tp1270
a(S'MPI_Comm_size()'
p1271
S'31'
p1272
tp1273
a(S'MPI_Bcast()'
p1274
S'60'
p1275
tp1276
a(S'MPI_Finalize()'
p1277
S'75'
p1278
tp1279
a(S'MPI_Send()'
p1280
S'115'
p1281
tp1282
a(S'MPI_Send()'
p1283
S'118'
p1284
tp1285
a(S'MPI_Recv()'
p1286
S'124'
p1287
tp1288
a(S'MPI_Recv()'
p1289
S'129'
p1290
tp1291
a(S'MPI_Bcast()'
p1292
S'137'
p1293
tp1294
a(S'MPI_Bcast()'
p1295
S'144'
p1296
tp1297
a(S'MPI_Send()'
p1298
S'152'
p1299
tp1300
a(S'MPI_Recv()'
p1301
S'155'
p1302
tp1303
asS'homeworkInUstc/parallelComputer/My_jobs/four/21-4/qr_value.c'
p1304
(lp1305
(S'MPI_Init()'
p1306
S'62'
p1307
tp1308
a(S'MPI_Comm_rank()'
p1309
S'63'
p1310
tp1311
a(S'MPI_Comm_size()'
p1312
S'64'
p1313
tp1314
a(S'MPI_Bcast()'
p1315
S'106'
p1316
tp1317
a(S'MPI_Send()'
p1318
S'141'
p1319
tp1320
a(S'MPI_Send()'
p1321
S'142'
p1322
tp1323
a(S'MPI_Recv()'
p1324
S'147'
p1325
tp1326
a(S'MPI_Recv()'
p1327
S'148'
p1328
tp1329
a(S'MPI_Send()'
p1330
S'189'
p1331
tp1332
a(S'MPI_Send()'
p1333
S'190'
p1334
tp1335
a(S'MPI_Send()'
p1336
S'198'
p1337
tp1338
a(S'MPI_Send()'
p1339
S'199'
p1340
tp1341
a(S'MPI_Recv()'
p1342
S'208'
p1343
tp1344
a(S'MPI_Recv()'
p1345
S'209'
p1346
tp1347
a(S'MPI_Send()'
p1348
S'233'
p1349
tp1350
a(S'MPI_Send()'
p1351
S'234'
p1352
tp1353
a(S'MPI_Send()'
p1354
S'268'
p1355
tp1356
a(S'MPI_Send()'
p1357
S'269'
p1358
tp1359
a(S'MPI_Send()'
p1360
S'278'
p1361
tp1362
a(S'MPI_Send()'
p1363
S'279'
p1364
tp1365
a(S'MPI_Recv()'
p1366
S'287'
p1367
tp1368
a(S'MPI_Recv()'
p1369
S'288'
p1370
tp1371
a(S'MPI_Send()'
p1372
S'424'
p1373
tp1374
a(S'MPI_Send()'
p1375
S'427'
p1376
tp1377
a(S'MPI_Recv()'
p1378
S'432'
p1379
tp1380
a(S'MPI_Recv()'
p1381
S'435'
p1382
tp1383
a(S'MPI_Send()'
p1384
S'454'
p1385
tp1386
a(S'MPI_Recv()'
p1387
S'455'
p1388
tp1389
a(S'MPI_Recv()'
p1390
S'463'
p1391
tp1392
a(S'MPI_Send()'
p1393
S'464'
p1394
tp1395
a(S'MPI_Send()'
p1396
S'475'
p1397
tp1398
a(S'MPI_Recv()'
p1399
S'480'
p1400
tp1401
a(S'MPI_Bcast()'
p1402
S'500'
p1403
tp1404
a(S'MPI_Send()'
p1405
S'526'
p1406
tp1407
a(S'MPI_Send()'
p1408
S'527'
p1409
tp1410
a(S'MPI_Recv()'
p1411
S'532'
p1412
tp1413
a(S'MPI_Recv()'
p1414
S'533'
p1415
tp1416
a(S'MPI_Wtime()'
p1417
S'560'
p1418
tp1419
a(S'MPI_Barrier()'
p1420
S'571'
p1421
tp1422
a(S'MPI_Finalize()'
p1423
S'572'
p1424
tp1425
asS'homeworkInUstc/parallelComputer/My_jobs/four/20-3/18-8/cholersky.c'
p1426
(lp1427
(S'MPI_Init()'
p1428
S'21'
p1429
tp1430
a(S'MPI_Comm_rank()'
p1431
S'22'
p1432
tp1433
a(S'MPI_Comm_size()'
p1434
S'23'
p1435
tp1436
a(S'MPI_Bcast()'
p1437
S'64'
p1438
tp1439
a(S'MPI_Bcast()'
p1440
S'69'
p1441
tp1442
a(S'MPI_Send()'
p1443
S'91'
p1444
tp1445
a(S'MPI_Recv()'
p1446
S'100'
p1447
tp1448
a(S'MPI_Finalize()'
p1449
S'118'
p1450
tp1451
asS'homeworkInUstc/parallelComputer/source/20-3/18-9/invert.c'
p1452
(lp1453
(S'MPI_Bcast()'
p1454
S'77'
p1455
tp1456
a(S'MPI_Send()'
p1457
S'107'
p1458
tp1459
a(S'MPI_Send()'
p1460
S'109'
p1461
tp1462
a(S'MPI_Recv()'
p1463
S'115'
p1464
tp1465
a(S'MPI_Bcast()'
p1466
S'140'
p1467
tp1468
a(S'MPI_Bcast()'
p1469
S'145'
p1470
tp1471
a(S'MPI_Send()'
p1472
S'206'
p1473
tp1474
a(S'MPI_Recv()'
p1475
S'214'
p1476
tp1477
a(S'MPI_Init()'
p1478
S'269'
p1479
tp1480
a(S'MPI_Comm_size()'
p1481
S'270'
p1482
tp1483
a(S'MPI_Comm_rank()'
p1484
S'271'
p1485
tp1486
a(S'MPI_Finalize()'
p1487
S'296'
p1488
tp1489
asS'homeworkInUstc/parallelComputer/My_jobs/two/Matrix/matrix.c'
p1490
(lp1491
(S'MPI_Wtime()'
p1492
S'78'
p1493
tp1494
a(S'MPI_Init()'
p1495
S'152'
p1496
tp1497
a(S'MPI_Comm_size()'
p1498
S'153'
p1499
tp1500
a(S'MPI_Comm_rank()'
p1501
S'154'
p1502
tp1503
a(S'MPI_Send()'
p1504
S'168'
p1505
tp1506
a(S'MPI_Send()'
p1507
S'169'
p1508
tp1509
a(S'MPI_Send()'
p1510
S'170'
p1511
tp1512
a(S'MPI_Recv()'
p1513
S'174'
p1514
tp1515
a(S'MPI_Recv()'
p1516
S'175'
p1517
tp1518
a(S'MPI_Recv()'
p1519
S'176'
p1520
tp1521
a(S'MPI_Send()'
p1522
S'211'
p1523
tp1524
a(S'MPI_Send()'
p1525
S'214'
p1526
tp1527
a(S'MPI_Recv()'
p1528
S'222'
p1529
tp1530
a(S'MPI_Recv()'
p1531
S'225'
p1532
tp1533
a(S'MPI_Send()'
p1534
S'249'
p1535
tp1536
a(S'MPI_Recv()'
p1537
S'250'
p1538
tp1539
a(S'MPI_Recv()'
p1540
S'259'
p1541
tp1542
a(S'MPI_Send()'
p1543
S'260'
p1544
tp1545
a(S'MPI_Send()'
p1546
S'270'
p1547
tp1548
a(S'MPI_Recv()'
p1549
S'275'
p1550
tp1551
a(S'MPI_Finalize()'
p1552
S'287'
p1553
tp1554
asS'homeworkInUstc/parallelComputer/source/15-2/connect.c'
p1555
(lp1556
(S'MPI_Bcast()'
p1557
S'65'
p1558
tp1559
a(S'MPI_Init()'
p1560
S'155'
p1561
tp1562
a(S'MPI_Comm_size()'
p1563
S'156'
p1564
tp1565
a(S'MPI_Comm_rank()'
p1566
S'157'
p1567
tp1568
a(S'MPI_Barrier()'
p1569
S'160'
p1570
tp1571
a(S'MPI_Barrier()'
p1572
S'167'
p1573
tp1574
a(S'MPI_Bcast()'
p1575
S'169'
p1576
tp1577
a(S'MPI_Barrier()'
p1578
S'184'
p1579
tp1580
a(S'MPI_Gather()'
p1581
S'185'
p1582
tp1583
a(S'MPI_Barrier()'
p1584
S'188'
p1585
tp1586
a(S'MPI_Send()'
p1587
S'193'
p1588
tp1589
a(S'MPI_Recv()'
p1590
S'195'
p1591
tp1592
a(S'MPI_Barrier()'
p1593
S'196'
p1594
tp1595
a(S'MPI_Barrier()'
p1596
S'207'
p1597
tp1598
a(S'MPI_Gather()'
p1599
S'208'
p1600
tp1601
a(S'MPI_Barrier()'
p1602
S'211'
p1603
tp1604
a(S'MPI_Barrier()'
p1605
S'216'
p1606
tp1607
a(S'MPI_Gather()'
p1608
S'217'
p1609
tp1610
a(S'MPI_Gather()'
p1611
S'218'
p1612
tp1613
a(S'MPI_Barrier()'
p1614
S'219'
p1615
tp1616
a(S'MPI_Gather()'
p1617
S'231'
p1618
tp1619
a(S'MPI_Gather()'
p1620
S'238'
p1621
tp1622
a(S'MPI_Finalize()'
p1623
S'252'
p1624
tp1625
asS'homeworkInUstc/parallelComputer/source/20-3/20-2/seidel.c'
p1626
(lp1627
(S'MPI_Bcast()'
p1628
S'115'
p1629
tp1630
a(S'MPI_Bcast()'
p1631
S'140'
p1632
tp1633
a(S'MPI_Send()'
p1634
S'156'
p1635
tp1636
a(S'MPI_Send()'
p1637
S'157'
p1638
tp1639
a(S'MPI_Recv()'
p1640
S'166'
p1641
tp1642
a(S'MPI_Recv()'
p1643
S'167'
p1644
tp1645
a(S'MPI_Bcast()'
p1646
S'217'
p1647
tp1648
a(S'MPI_Bcast()'
p1649
S'225'
p1650
tp1651
a(S'MPI_Allreduce()'
p1652
S'233'
p1653
tp1654
a(S'MPI_Init()'
p1655
S'268'
p1656
tp1657
a(S'MPI_Comm_size()'
p1658
S'269'
p1659
tp1660
a(S'MPI_Comm_rank()'
p1661
S'270'
p1662
tp1663
a(S'MPI_Barrier()'
p1664
S'283'
p1665
tp1666
a(S'MPI_Finalize()'
p1667
S'284'
p1668
tp1669
asS'homeworkInUstc/parallelComputer/source/20-3/18-2/matrixvector.c'
p1670
(lp1671
(S'MPI_Init()'
p1672
S'74'
p1673
tp1674
a(S'MPI_Comm_size()'
p1675
S'75'
p1676
tp1677
a(S'MPI_Comm_rank()'
p1678
S'76'
p1679
tp1680
a(S'MPI_Bcast()'
p1681
S'136'
p1682
tp1683
a(S'MPI_Bcast()'
p1684
S'166'
p1685
tp1686
a(S'MPI_Send()'
p1687
S'181'
p1688
tp1689
a(S'MPI_Send()'
p1690
S'186'
p1691
tp1692
a(S'MPI_Send()'
p1693
S'187'
p1694
tp1695
a(S'X_MPI_FLOAT()'
p1696
S'189'
p1697
tp1698
a(S'MPI_Recv()'
p1699
S'198'
p1700
tp1701
a(S'MPI_Recv()'
p1702
S'202'
p1703
tp1704
a(S'MPI_Recv()'
p1705
S'204'
p1706
tp1707
a(S'MPI_Barrier()'
p1708
S'212'
p1709
tp1710
a(S'MPI_Barrier()'
p1711
S'254'
p1712
tp1713
a(S'MPI_Recv()'
p1714
S'264'
p1715
tp1716
a(S'MPI_Recv()'
p1717
S'267'
p1718
tp1719
a(S'X_MPI_FLOAT()'
p1720
S'269'
p1721
tp1722
a(S'X_MPI_COMM_WORLD()'
p1723
S'270'
p1724
tp1725
a(S'MPI_Send()'
p1726
S'279'
p1727
tp1728
a(S'MPI_Send()'
p1729
S'281'
p1730
tp1731
a(S'MPI_Barrier()'
p1732
S'293'
p1733
tp1734
a(S'MPI_Barrier()'
p1735
S'306'
p1736
tp1737
a(S'MPI_Finalize()'
p1738
S'307'
p1739
tp1740
asS'homeworkInUstc/parallelComputer/source/20-1/jacobi.c'
p1741
(lp1742
(S'MPI_Send()'
p1743
S'138'
p1744
tp1745
a(S'MPI_Send()'
p1746
S'139'
p1747
tp1748
a(S'MPI_Recv()'
p1749
S'145'
p1750
tp1751
a(S'MPI_Recv()'
p1752
S'146'
p1753
tp1754
a(S'MPI_Allreduce()'
p1755
S'183'
p1756
tp1757
a(S'MPI_Allgather()'
p1758
S'186'
p1759
tp1760
a(S'MPI_Init()'
p1761
S'251'
p1762
tp1763
a(S'MPI_Comm_size()'
p1764
S'252'
p1765
tp1766
a(S'MPI_Comm_rank()'
p1767
S'253'
p1768
tp1769
a(S'MPI_Bcast()'
p1770
S'258'
p1771
tp1772
a(S'MPI_Bcast()'
p1773
S'262'
p1774
tp1775
a(S'MPI_Barrier()'
p1776
S'266'
p1777
tp1778
a(S'MPI_Finalize()'
p1779
S'267'
p1780
tp1781
asS'homeworkInUstc/parallelComputer/source/20-3/15-3/shortest.c'
p1782
(lp1783
(S'MPI_Send()'
p1784
S'116'
p1785
tp1786
a(S'MPI_Recv()'
p1787
S'124'
p1788
tp1789
a(S'MPI_Barrier()'
p1790
S'198'
p1791
tp1792
a(S'MPI_Send()'
p1793
S'210'
p1794
tp1795
a(S'MPI_Send()'
p1796
S'212'
p1797
tp1798
a(S'MPI_Recv()'
p1799
S'215'
p1800
tp1801
a(S'X_MPI_COMM_WORLD()'
p1802
S'216'
p1803
tp1804
a(S'MPI_Recv()'
p1805
S'217'
p1806
tp1807
a(S'X_MPI_COMM_WORLD()'
p1808
S'218'
p1809
tp1810
a(S'MPI_Send()'
p1811
S'230'
p1812
tp1813
a(S'MPI_Send()'
p1814
S'232'
p1815
tp1816
a(S'MPI_Recv()'
p1817
S'235'
p1818
tp1819
a(S'X_MPI_COMM_WORLD()'
p1820
S'236'
p1821
tp1822
a(S'MPI_Recv()'
p1823
S'237'
p1824
tp1825
a(S'X_MPI_COMM_WORLD()'
p1826
S'238'
p1827
tp1828
a(S'MPI_Barrier()'
p1829
S'246'
p1830
tp1831
a(S'MPI_Bcast()'
p1832
S'249'
p1833
tp1834
a(S'MPI_Bcast()'
p1835
S'250'
p1836
tp1837
a(S'MPI_Barrier()'
p1838
S'263'
p1839
tp1840
a(S'MPI_Init()'
p1841
S'276'
p1842
tp1843
a(S'MPI_Comm_size()'
p1844
S'277'
p1845
tp1846
a(S'MPI_Comm_rank()'
p1847
S'278'
p1848
tp1849
a(S'MPI_Send()'
p1850
S'293'
p1851
tp1852
a(S'MPI_Send()'
p1853
S'294'
p1854
tp1855
a(S'MPI_Recv()'
p1856
S'297'
p1857
tp1858
a(S'MPI_Recv()'
p1859
S'298'
p1860
tp1861
a(S'MPI_Finalize()'
p1862
S'323'
p1863
tp1864
asS'homeworkInUstc/parallelComputer/source/20-3/18-4/cannon.c.bak'
p1865
(lp1866
(S'MPI_Send()'
p1867
S'84'
p1868
tp1869
a(S'MPI_Send()'
p1870
S'85'
p1871
tp1872
a(S'MPI_Sendrecv()'
p1873
S'97'
p1874
tp1875
a(S'MPI_Sendrecv()'
p1876
S'102'
p1877
tp1878
a(S'MPI_Send()'
p1879
S'124'
p1880
tp1881
a(S'MPI_Recv()'
p1882
S'125'
p1883
tp1884
a(S'MPI_Send()'
p1885
S'128'
p1886
tp1887
a(S'MPI_Recv()'
p1888
S'129'
p1889
tp1890
a(S'MPI_Recv()'
p1891
S'150'
p1892
tp1893
a(S'MPI_Init()'
p1894
S'199'
p1895
tp1896
a(S'MPI_Comm_size()'
p1897
S'200'
p1898
tp1899
a(S'MPI_Comm_rank()'
p1900
S'201'
p1901
tp1902
a(S'MPI_Finalize()'
p1903
S'210'
p1904
tp1905
a(S'MPI_Finalize()'
p1906
S'218'
p1907
tp1908
a(S'MPI_Recv()'
p1909
S'260'
p1910
tp1911
a(S'MPI_Recv()'
p1912
S'261'
p1913
tp1914
a(S'MPI_Wtime()'
p1915
S'264'
p1916
tp1917
a(S'MPI_Wtime()'
p1918
S'269'
p1919
tp1920
a(S'MPI_Send()'
p1921
S'285'
p1922
tp1923
a(S'MPI_Barrier()'
p1924
S'288'
p1925
tp1926
a(S'MPI_Finalize()'
p1927
S'289'
p1928
tp1929
asS'homeworkInUstc/parallelComputer/source/18-3/matrix.c'
p1930
(lp1931
(S'MPI_Wtime()'
p1932
S'39'
p1933
tp1934
a(S'MPI_Init()'
p1935
S'143'
p1936
tp1937
a(S'MPI_Comm_size()'
p1938
S'144'
p1939
tp1940
a(S'MPI_Comm_rank()'
p1941
S'145'
p1942
tp1943
a(S'MPI_Send()'
p1944
S'159'
p1945
tp1946
a(S'MPI_Send()'
p1947
S'160'
p1948
tp1949
a(S'MPI_Send()'
p1950
S'161'
p1951
tp1952
a(S'MPI_Recv()'
p1953
S'165'
p1954
tp1955
a(S'MPI_Recv()'
p1956
S'166'
p1957
tp1958
a(S'MPI_Recv()'
p1959
S'167'
p1960
tp1961
a(S'MPI_Send()'
p1962
S'202'
p1963
tp1964
a(S'MPI_Send()'
p1965
S'205'
p1966
tp1967
a(S'MPI_Recv()'
p1968
S'213'
p1969
tp1970
a(S'MPI_Recv()'
p1971
S'216'
p1972
tp1973
a(S'MPI_Send()'
p1974
S'238'
p1975
tp1976
a(S'MPI_Recv()'
p1977
S'239'
p1978
tp1979
a(S'MPI_Recv()'
p1980
S'248'
p1981
tp1982
a(S'MPI_Send()'
p1983
S'249'
p1984
tp1985
a(S'MPI_Send()'
p1986
S'259'
p1987
tp1988
a(S'MPI_Recv()'
p1989
S'264'
p1990
tp1991
a(S'MPI_Finalize()'
p1992
S'276'
p1993
tp1994
asS'homeworkInUstc/parallelComputer/My_jobs/four/20-3/18-6/qr.c'
p1995
(lp1996
(S'MPI_Init()'
p1997
S'49'
p1998
tp1999
a(S'MPI_Comm_rank()'
p2000
S'50'
p2001
tp2002
a(S'MPI_Comm_size()'
p2003
S'51'
p2004
tp2005
a(S'MPI_Bcast()'
p2006
S'85'
p2007
tp2008
a(S'MPI_Send()'
p2009
S'115'
p2010
tp2011
a(S'MPI_Send()'
p2012
S'116'
p2013
tp2014
a(S'MPI_Recv()'
p2015
S'122'
p2016
tp2017
a(S'MPI_Recv()'
p2018
S'123'
p2019
tp2020
a(S'MPI_Send()'
p2021
S'162'
p2022
tp2023
a(S'MPI_Send()'
p2024
S'163'
p2025
tp2026
a(S'MPI_Send()'
p2027
S'171'
p2028
tp2029
a(S'MPI_Send()'
p2030
S'172'
p2031
tp2032
a(S'MPI_Recv()'
p2033
S'181'
p2034
tp2035
a(S'MPI_Recv()'
p2036
S'182'
p2037
tp2038
a(S'MPI_Send()'
p2039
S'206'
p2040
tp2041
a(S'MPI_Send()'
p2042
S'207'
p2043
tp2044
a(S'MPI_Send()'
p2045
S'241'
p2046
tp2047
a(S'MPI_Send()'
p2048
S'242'
p2049
tp2050
a(S'MPI_Send()'
p2051
S'251'
p2052
tp2053
a(S'MPI_Send()'
p2054
S'252'
p2055
tp2056
a(S'MPI_Recv()'
p2057
S'260'
p2058
tp2059
a(S'MPI_Recv()'
p2060
S'261'
p2061
tp2062
a(S'MPI_Wtime()'
p2063
S'408'
p2064
tp2065
a(S'MPI_Barrier()'
p2066
S'418'
p2067
tp2068
a(S'MPI_Finalize()'
p2069
S'419'
p2070
tp2071
asS'homeworkInUstc/parallelComputer/source/21-1/power.c'
p2072
(lp2073
(S'MPI_Init()'
p2074
S'48'
p2075
tp2076
a(S'MPI_Comm_size()'
p2077
S'49'
p2078
tp2079
a(S'MPI_Comm_rank()'
p2080
S'50'
p2081
tp2082
a(S'MPI_Bcast()'
p2083
S'88'
p2084
tp2085
a(S'MPI_Bcast()'
p2086
S'105'
p2087
tp2088
a(S'MPI_Send()'
p2089
S'117'
p2090
tp2091
a(S'MPI_Recv()'
p2092
S'122'
p2093
tp2094
a(S'MPI_Allreduce()'
p2095
S'142'
p2096
tp2097
a(S'MPI_Allgather()'
p2098
S'147'
p2099
tp2100
a(S'MPI_Barrier()'
p2101
S'169'
p2102
tp2103
a(S'MPI_Finalize()'
p2104
S'170'
p2105
tp2106
asS'homeworkInUstc/parallelComputer/My_jobs/four/20-3/18-5/ludep.c'
p2107
(lp2108
(S'MPI_Init()'
p2109
S'39'
p2110
tp2111
a(S'MPI_Comm_size()'
p2112
S'40'
p2113
tp2114
a(S'MPI_Comm_rank()'
p2115
S'41'
p2116
tp2117
a(S'MPI_Bcast()'
p2118
S'62'
p2119
tp2120
a(S'MPI_Send()'
p2121
S'92'
p2122
tp2123
a(S'MPI_Recv()'
p2124
S'98'
p2125
tp2126
a(S'MPI_Bcast()'
p2127
S'111'
p2128
tp2129
a(S'MPI_Bcast()'
p2130
S'116'
p2131
tp2132
a(S'MPI_Send()'
p2133
S'148'
p2134
tp2135
a(S'MPI_Recv()'
p2136
S'155'
p2137
tp2138
a(S'MPI_Finalize()'
p2139
S'202'
p2140
tp2141
asS'homeworkInUstc/parallelComputer/source/13-3/psrs_sort.c'
p2142
(lp2143
(S'MPI_Init()'
p2144
S'26'
p2145
tp2146
a(S'MPI_Comm_rank()'
p2147
S'27'
p2148
tp2149
a(S'MPI_Finalize()'
p2150
S'39'
p2151
tp2152
a(S'MPI_Comm_rank()'
p2153
S'53'
p2154
tp2155
a(S'MPI_Comm_size()'
p2156
S'54'
p2157
tp2158
a(S'MPI_Barrier()'
p2159
S'71'
p2160
tp2161
a(S'MPI_Barrier()'
p2162
S'86'
p2163
tp2164
a(S'MPI_Barrier()'
p2165
S'88'
p2166
tp2167
a(S'MPI_Barrier()'
p2168
S'93'
p2169
tp2170
a(S'MPI_Barrier()'
p2171
S'99'
p2172
tp2173
a(S'MPI_Irecv()'
p2174
S'106'
p2175
tp2176
a(S'MPI_Waitall()'
p2177
S'107'
p2178
tp2179
a(S'MPI_Barrier()'
p2180
S'110'
p2181
tp2182
a(S'MPI_Barrier()'
p2183
S'112'
p2184
tp2185
a(S'MPI_Bcast()'
p2186
S'117'
p2187
tp2188
a(S'MPI_Barrier()'
p2189
S'118'
p2190
tp2191
a(S'MPI_Send()'
p2192
S'122'
p2193
tp2194
a(S'MPI_Barrier()'
p2195
S'123'
p2196
tp2197
a(S'MPI_Barrier()'
p2198
S'124'
p2199
tp2200
a(S'MPI_Bcast()'
p2201
S'125'
p2202
tp2203
a(S'MPI_Barrier()'
p2204
S'126'
p2205
tp2206
a(S'MPI_Barrier()'
p2207
S'181'
p2208
tp2209
a(S'MPI_Send()'
p2210
S'195'
p2211
tp2212
a(S'MPI_Recv()'
p2213
S'201'
p2214
tp2215
a(S'MPI_Barrier()'
p2216
S'205'
p2217
tp2218
a(S'MPI_Barrier()'
p2219
S'213'
p2220
tp2221
a(S'MPI_Barrier()'
p2222
S'221'
p2223
tp2224
a(S'MPI_Send()'
p2225
S'228'
p2226
tp2227
a(S'MPI_Recv()'
p2228
S'235'
p2229
tp2230
a(S'MPI_Barrier()'
p2231
S'239'
p2232
tp2233
a(S'MPI_Barrier()'
p2234
S'242'
p2235
tp2236
a(S'MPI_Barrier()'
p2237
S'247'
p2238
tp2239
asS'homeworkInUstc/parallelComputer/source/20-2/seidel.c'
p2240
(lp2241
(S'MPI_Bcast()'
p2242
S'115'
p2243
tp2244
a(S'MPI_Bcast()'
p2245
S'140'
p2246
tp2247
a(S'MPI_Send()'
p2248
S'156'
p2249
tp2250
a(S'MPI_Send()'
p2251
S'157'
p2252
tp2253
a(S'MPI_Recv()'
p2254
S'166'
p2255
tp2256
a(S'MPI_Recv()'
p2257
S'167'
p2258
tp2259
a(S'MPI_Bcast()'
p2260
S'217'
p2261
tp2262
a(S'MPI_Bcast()'
p2263
S'225'
p2264
tp2265
a(S'MPI_Allreduce()'
p2266
S'233'
p2267
tp2268
a(S'MPI_Init()'
p2269
S'268'
p2270
tp2271
a(S'MPI_Comm_size()'
p2272
S'269'
p2273
tp2274
a(S'MPI_Comm_rank()'
p2275
S'270'
p2276
tp2277
a(S'MPI_Barrier()'
p2278
S'283'
p2279
tp2280
a(S'MPI_Finalize()'
p2281
S'284'
p2282
tp2283
asS'homeworkInUstc/parallelComputer/source/18-2/matrixvector.c'
p2284
(lp2285
(S'MPI_Init()'
p2286
S'74'
p2287
tp2288
a(S'MPI_Comm_size()'
p2289
S'75'
p2290
tp2291
a(S'MPI_Comm_rank()'
p2292
S'76'
p2293
tp2294
a(S'MPI_Bcast()'
p2295
S'136'
p2296
tp2297
a(S'MPI_Bcast()'
p2298
S'166'
p2299
tp2300
a(S'MPI_Send()'
p2301
S'181'
p2302
tp2303
a(S'MPI_Send()'
p2304
S'186'
p2305
tp2306
a(S'MPI_Send()'
p2307
S'187'
p2308
tp2309
a(S'X_MPI_FLOAT()'
p2310
S'189'
p2311
tp2312
a(S'MPI_Recv()'
p2313
S'198'
p2314
tp2315
a(S'MPI_Recv()'
p2316
S'202'
p2317
tp2318
a(S'MPI_Recv()'
p2319
S'204'
p2320
tp2321
a(S'MPI_Barrier()'
p2322
S'212'
p2323
tp2324
a(S'MPI_Barrier()'
p2325
S'254'
p2326
tp2327
a(S'MPI_Recv()'
p2328
S'264'
p2329
tp2330
a(S'MPI_Recv()'
p2331
S'267'
p2332
tp2333
a(S'X_MPI_FLOAT()'
p2334
S'269'
p2335
tp2336
a(S'X_MPI_COMM_WORLD()'
p2337
S'270'
p2338
tp2339
a(S'MPI_Send()'
p2340
S'279'
p2341
tp2342
a(S'MPI_Send()'
p2343
S'281'
p2344
tp2345
a(S'MPI_Barrier()'
p2346
S'293'
p2347
tp2348
a(S'MPI_Barrier()'
p2349
S'306'
p2350
tp2351
a(S'MPI_Finalize()'
p2352
S'307'
p2353
tp2354
asS'homeworkInUstc/parallelComputer/source/20-3/15-2/connect.c'
p2355
(lp2356
(S'MPI_Bcast()'
p2357
S'65'
p2358
tp2359
a(S'MPI_Init()'
p2360
S'155'
p2361
tp2362
a(S'MPI_Comm_size()'
p2363
S'156'
p2364
tp2365
a(S'MPI_Comm_rank()'
p2366
S'157'
p2367
tp2368
a(S'MPI_Barrier()'
p2369
S'160'
p2370
tp2371
a(S'MPI_Barrier()'
p2372
S'167'
p2373
tp2374
a(S'MPI_Bcast()'
p2375
S'169'
p2376
tp2377
a(S'MPI_Barrier()'
p2378
S'184'
p2379
tp2380
a(S'MPI_Gather()'
p2381
S'185'
p2382
tp2383
a(S'MPI_Barrier()'
p2384
S'188'
p2385
tp2386
a(S'MPI_Send()'
p2387
S'193'
p2388
tp2389
a(S'MPI_Recv()'
p2390
S'195'
p2391
tp2392
a(S'MPI_Barrier()'
p2393
S'196'
p2394
tp2395
a(S'MPI_Barrier()'
p2396
S'207'
p2397
tp2398
a(S'MPI_Gather()'
p2399
S'208'
p2400
tp2401
a(S'MPI_Barrier()'
p2402
S'211'
p2403
tp2404
a(S'MPI_Barrier()'
p2405
S'216'
p2406
tp2407
a(S'MPI_Gather()'
p2408
S'217'
p2409
tp2410
a(S'MPI_Gather()'
p2411
S'218'
p2412
tp2413
a(S'MPI_Barrier()'
p2414
S'219'
p2415
tp2416
a(S'MPI_Gather()'
p2417
S'231'
p2418
tp2419
a(S'MPI_Gather()'
p2420
S'238'
p2421
tp2422
a(S'MPI_Finalize()'
p2423
S'252'
p2424
tp2425
asS'homeworkInUstc/parallelComputer/source/21-2/cjacobi.c'
p2426
(lp2427
(S'MPI_Send()'
p2428
S'88'
p2429
tp2430
a(S'MPI_Send()'
p2431
S'89'
p2432
tp2433
a(S'MPI_Recv()'
p2434
S'110'
p2435
tp2436
a(S'MPI_Recv()'
p2437
S'111'
p2438
tp2439
a(S'MPI_Init()'
p2440
S'134'
p2441
tp2442
a(S'MPI_Comm_size()'
p2443
S'135'
p2444
tp2445
a(S'MPI_Comm_rank()'
p2446
S'136'
p2447
tp2448
a(S'MPI_Bcast()'
p2449
S'145'
p2450
tp2451
a(S'MPI_Allgather()'
p2452
S'263'
p2453
tp2454
a(S'MPI_Send()'
p2455
S'309'
p2456
tp2457
a(S'MPI_Send()'
p2458
S'310'
p2459
tp2460
a(S'MPI_Send()'
p2461
S'311'
p2462
tp2463
a(S'MPI_Recv()'
p2464
S'313'
p2465
tp2466
a(S'MPI_Recv()'
p2467
S'314'
p2468
tp2469
a(S'MPI_Recv()'
p2470
S'315'
p2471
tp2472
a(S'MPI_Recv()'
p2473
S'342'
p2474
tp2475
a(S'MPI_Recv()'
p2476
S'343'
p2477
tp2478
a(S'MPI_Recv()'
p2479
S'344'
p2480
tp2481
a(S'MPI_Send()'
p2482
S'345'
p2483
tp2484
a(S'MPI_Send()'
p2485
S'346'
p2486
tp2487
a(S'MPI_Send()'
p2488
S'347'
p2489
tp2490
a(S'MPI_Send()'
p2491
S'352'
p2492
tp2493
a(S'MPI_Send()'
p2494
S'353'
p2495
tp2496
a(S'MPI_Send()'
p2497
S'354'
p2498
tp2499
a(S'MPI_Recv()'
p2500
S'367'
p2501
tp2502
a(S'MPI_Recv()'
p2503
S'368'
p2504
tp2505
a(S'MPI_Recv()'
p2506
S'369'
p2507
tp2508
a(S'MPI_Send()'
p2509
S'376'
p2510
tp2511
a(S'MPI_Send()'
p2512
S'377'
p2513
tp2514
a(S'MPI_Send()'
p2515
S'378'
p2516
tp2517
a(S'MPI_Send()'
p2518
S'379'
p2519
tp2520
a(S'MPI_Send()'
p2521
S'380'
p2522
tp2523
a(S'MPI_Send()'
p2524
S'381'
p2525
tp2526
a(S'MPI_Recv()'
p2527
S'383'
p2528
tp2529
a(S'MPI_Recv()'
p2530
S'384'
p2531
tp2532
a(S'MPI_Recv()'
p2533
S'385'
p2534
tp2535
a(S'MPI_Recv()'
p2536
S'386'
p2537
tp2538
a(S'MPI_Recv()'
p2539
S'387'
p2540
tp2541
a(S'MPI_Recv()'
p2542
S'388'
p2543
tp2544
a(S'MPI_Recv()'
p2545
S'404'
p2546
tp2547
a(S'MPI_Recv()'
p2548
S'405'
p2549
tp2550
a(S'MPI_Recv()'
p2551
S'406'
p2552
tp2553
a(S'MPI_Recv()'
p2554
S'407'
p2555
tp2556
a(S'MPI_Recv()'
p2557
S'408'
p2558
tp2559
a(S'MPI_Recv()'
p2560
S'409'
p2561
tp2562
a(S'MPI_Send()'
p2563
S'411'
p2564
tp2565
a(S'MPI_Send()'
p2566
S'412'
p2567
tp2568
a(S'MPI_Send()'
p2569
S'413'
p2570
tp2571
a(S'MPI_Send()'
p2572
S'414'
p2573
tp2574
a(S'MPI_Send()'
p2575
S'415'
p2576
tp2577
a(S'MPI_Send()'
p2578
S'416'
p2579
tp2580
a(S'MPI_Allgather()'
p2581
S'486'
p2582
tp2583
a(S'MPI_Send()'
p2584
S'527'
p2585
tp2586
a(S'MPI_Send()'
p2587
S'529'
p2588
tp2589
a(S'MPI_Send()'
p2590
S'530'
p2591
tp2592
a(S'MPI_Recv()'
p2593
S'532'
p2594
tp2595
a(S'MPI_Recv()'
p2596
S'533'
p2597
tp2598
a(S'MPI_Recv()'
p2599
S'534'
p2600
tp2601
a(S'MPI_Recv()'
p2602
S'561'
p2603
tp2604
a(S'MPI_Recv()'
p2605
S'562'
p2606
tp2607
a(S'MPI_Recv()'
p2608
S'563'
p2609
tp2610
a(S'MPI_Send()'
p2611
S'564'
p2612
tp2613
a(S'MPI_Send()'
p2614
S'565'
p2615
tp2616
a(S'MPI_Send()'
p2617
S'566'
p2618
tp2619
a(S'MPI_Send()'
p2620
S'571'
p2621
tp2622
a(S'MPI_Send()'
p2623
S'572'
p2624
tp2625
a(S'MPI_Send()'
p2626
S'573'
p2627
tp2628
a(S'MPI_Recv()'
p2629
S'586'
p2630
tp2631
a(S'MPI_Recv()'
p2632
S'587'
p2633
tp2634
a(S'MPI_Recv()'
p2635
S'588'
p2636
tp2637
a(S'MPI_Send()'
p2638
S'595'
p2639
tp2640
a(S'MPI_Send()'
p2641
S'596'
p2642
tp2643
a(S'MPI_Send()'
p2644
S'597'
p2645
tp2646
a(S'MPI_Send()'
p2647
S'598'
p2648
tp2649
a(S'MPI_Send()'
p2650
S'599'
p2651
tp2652
a(S'MPI_Send()'
p2653
S'600'
p2654
tp2655
a(S'MPI_Recv()'
p2656
S'602'
p2657
tp2658
a(S'MPI_Recv()'
p2659
S'603'
p2660
tp2661
a(S'MPI_Recv()'
p2662
S'604'
p2663
tp2664
a(S'MPI_Recv()'
p2665
S'605'
p2666
tp2667
a(S'MPI_Recv()'
p2668
S'606'
p2669
tp2670
a(S'MPI_Recv()'
p2671
S'607'
p2672
tp2673
a(S'MPI_Recv()'
p2674
S'623'
p2675
tp2676
a(S'MPI_Recv()'
p2677
S'624'
p2678
tp2679
a(S'MPI_Recv()'
p2680
S'625'
p2681
tp2682
a(S'MPI_Recv()'
p2683
S'626'
p2684
tp2685
a(S'MPI_Recv()'
p2686
S'627'
p2687
tp2688
a(S'MPI_Recv()'
p2689
S'628'
p2690
tp2691
a(S'MPI_Send()'
p2692
S'630'
p2693
tp2694
a(S'MPI_Send()'
p2695
S'631'
p2696
tp2697
a(S'MPI_Send()'
p2698
S'632'
p2699
tp2700
a(S'MPI_Send()'
p2701
S'633'
p2702
tp2703
a(S'MPI_Send()'
p2704
S'634'
p2705
tp2706
a(S'MPI_Send()'
p2707
S'635'
p2708
tp2709
a(S'MPI_Allreduce()'
p2710
S'649'
p2711
tp2712
a(S'MPI_Send()'
p2713
S'669'
p2714
tp2715
a(S'MPI_Send()'
p2716
S'670'
p2717
tp2718
a(S'MPI_Recv()'
p2719
S'675'
p2720
tp2721
a(S'MPI_Recv()'
p2722
S'676'
p2723
tp2724
a(S'MPI_Finalize()'
p2725
S'702'
p2726
tp2727
asS'homeworkInUstc/parallelComputer/source/17-3/c.c'
p2728
(lp2729
(S'MPI_Init()'
p2730
S'316'
p2731
tp2732
a(S'MPI_Comm_size()'
p2733
S'317'
p2734
tp2735
a(S'MPI_Comm_rank()'
p2736
S'318'
p2737
tp2738
a(S'MPI_Finalize()'
p2739
S'327'
p2740
tp2741
a(S'MPI_Bcast()'
p2742
S'347'
p2743
tp2744
a(S'MPI_Send()'
p2745
S'354'
p2746
tp2747
a(S'MPI_Send()'
p2748
S'355'
p2749
tp2750
a(S'MPI_Recv()'
p2751
S'360'
p2752
tp2753
a(S'MPI_Recv()'
p2754
S'361'
p2755
tp2756
a(S'MPI_Barrier()'
p2757
S'364'
p2758
tp2759
a(S'MPI_Barrier()'
p2760
S'380'
p2761
tp2762
a(S'MPI_Send()'
p2763
S'386'
p2764
tp2765
a(S'MPI_Send()'
p2766
S'387'
p2767
tp2768
a(S'MPI_Recv()'
p2769
S'393'
p2770
tp2771
a(S'MPI_Recv()'
p2772
S'394'
p2773
tp2774
a(S'MPI_Send()'
p2775
S'404'
p2776
tp2777
a(S'MPI_Send()'
p2778
S'405'
p2779
tp2780
a(S'MPI_Recv()'
p2781
S'413'
p2782
tp2783
a(S'MPI_Recv()'
p2784
S'414'
p2785
tp2786
a(S'MPI_Barrier()'
p2787
S'418'
p2788
tp2789
a(S'MPI_Barrier()'
p2790
S'434'
p2791
tp2792
a(S'MPI_Send()'
p2793
S'441'
p2794
tp2795
a(S'MPI_Recv()'
p2796
S'447'
p2797
tp2798
a(S'MPI_Barrier()'
p2799
S'450'
p2800
tp2801
a(S'MPI_Send()'
p2802
S'457'
p2803
tp2804
a(S'MPI_Send()'
p2805
S'458'
p2806
tp2807
a(S'MPI_Recv()'
p2808
S'463'
p2809
tp2810
a(S'MPI_Recv()'
p2811
S'464'
p2812
tp2813
a(S'MPI_Barrier()'
p2814
S'467'
p2815
tp2816
a(S'MPI_Barrier()'
p2817
S'485'
p2818
tp2819
a(S'MPI_Send()'
p2820
S'491'
p2821
tp2822
a(S'MPI_Recv()'
p2823
S'499'
p2824
tp2825
a(S'MPI_Barrier()'
p2826
S'504'
p2827
tp2828
a(S'MPI_Barrier()'
p2829
S'507'
p2830
tp2831
a(S'MPI_Send()'
p2832
S'515'
p2833
tp2834
a(S'MPI_Send()'
p2835
S'516'
p2836
tp2837
a(S'MPI_Send()'
p2838
S'518'
p2839
tp2840
a(S'MPI_Send()'
p2841
S'519'
p2842
tp2843
a(S'MPI_Recv()'
p2844
S'524'
p2845
tp2846
a(S'MPI_Recv()'
p2847
S'525'
p2848
tp2849
a(S'MPI_Send()'
p2850
S'527'
p2851
tp2852
a(S'MPI_Send()'
p2853
S'528'
p2854
tp2855
a(S'MPI_Recv()'
p2856
S'533'
p2857
tp2858
a(S'MPI_Recv()'
p2859
S'534'
p2860
tp2861
a(S'MPI_Send()'
p2862
S'536'
p2863
tp2864
a(S'MPI_Send()'
p2865
S'537'
p2866
tp2867
a(S'MPI_Recv()'
p2868
S'542'
p2869
tp2870
a(S'MPI_Recv()'
p2871
S'543'
p2872
tp2873
a(S'MPI_Recv()'
p2874
S'545'
p2875
tp2876
a(S'MPI_Recv()'
p2877
S'546'
p2878
tp2879
a(S'MPI_Barrier()'
p2880
S'549'
p2881
tp2882
a(S'MPI_Barrier()'
p2883
S'555'
p2884
tp2885
a(S'MPI_Barrier()'
p2886
S'561'
p2887
tp2888
a(S'MPI_Barrier()'
p2889
S'567'
p2890
tp2891
a(S'MPI_Finalize()'
p2892
S'569'
p2893
tp2894
asS'homeworkInUstc/parallelComputer/My_jobs/four/20-3/18-3/matrix.c'
p2895
(lp2896
(S'MPI_Wtime()'
p2897
S'39'
p2898
tp2899
a(S'MPI_Init()'
p2900
S'143'
p2901
tp2902
a(S'MPI_Comm_size()'
p2903
S'144'
p2904
tp2905
a(S'MPI_Comm_rank()'
p2906
S'145'
p2907
tp2908
a(S'MPI_Send()'
p2909
S'159'
p2910
tp2911
a(S'MPI_Send()'
p2912
S'160'
p2913
tp2914
a(S'MPI_Send()'
p2915
S'161'
p2916
tp2917
a(S'MPI_Recv()'
p2918
S'165'
p2919
tp2920
a(S'MPI_Recv()'
p2921
S'166'
p2922
tp2923
a(S'MPI_Recv()'
p2924
S'167'
p2925
tp2926
a(S'MPI_Send()'
p2927
S'202'
p2928
tp2929
a(S'MPI_Send()'
p2930
S'205'
p2931
tp2932
a(S'MPI_Recv()'
p2933
S'213'
p2934
tp2935
a(S'MPI_Recv()'
p2936
S'216'
p2937
tp2938
a(S'MPI_Send()'
p2939
S'238'
p2940
tp2941
a(S'MPI_Recv()'
p2942
S'239'
p2943
tp2944
a(S'MPI_Recv()'
p2945
S'248'
p2946
tp2947
a(S'MPI_Send()'
p2948
S'249'
p2949
tp2950
a(S'MPI_Send()'
p2951
S'259'
p2952
tp2953
a(S'MPI_Recv()'
p2954
S'264'
p2955
tp2956
a(S'MPI_Finalize()'
p2957
S'276'
p2958
tp2959
asS'homeworkInUstc/parallelComputer/source/18-5/ludep.c'
p2960
(lp2961
(S'MPI_Init()'
p2962
S'39'
p2963
tp2964
a(S'MPI_Comm_size()'
p2965
S'40'
p2966
tp2967
a(S'MPI_Comm_rank()'
p2968
S'41'
p2969
tp2970
a(S'MPI_Bcast()'
p2971
S'62'
p2972
tp2973
a(S'MPI_Send()'
p2974
S'92'
p2975
tp2976
a(S'MPI_Recv()'
p2977
S'98'
p2978
tp2979
a(S'MPI_Bcast()'
p2980
S'111'
p2981
tp2982
a(S'MPI_Bcast()'
p2983
S'116'
p2984
tp2985
a(S'MPI_Send()'
p2986
S'148'
p2987
tp2988
a(S'MPI_Recv()'
p2989
S'155'
p2990
tp2991
a(S'MPI_Finalize()'
p2992
S'202'
p2993
tp2994
asS'homeworkInUstc/parallelComputer/source/15-3/shortest.c'
p2995
(lp2996
(S'MPI_Send()'
p2997
S'116'
p2998
tp2999
a(S'MPI_Recv()'
p3000
S'124'
p3001
tp3002
a(S'MPI_Barrier()'
p3003
S'198'
p3004
tp3005
a(S'MPI_Send()'
p3006
S'210'
p3007
tp3008
a(S'MPI_Send()'
p3009
S'212'
p3010
tp3011
a(S'MPI_Recv()'
p3012
S'215'
p3013
tp3014
a(S'X_MPI_COMM_WORLD()'
p3015
S'216'
p3016
tp3017
a(S'MPI_Recv()'
p3018
S'217'
p3019
tp3020
a(S'X_MPI_COMM_WORLD()'
p3021
S'218'
p3022
tp3023
a(S'MPI_Send()'
p3024
S'230'
p3025
tp3026
a(S'MPI_Send()'
p3027
S'232'
p3028
tp3029
a(S'MPI_Recv()'
p3030
S'235'
p3031
tp3032
a(S'X_MPI_COMM_WORLD()'
p3033
S'236'
p3034
tp3035
a(S'MPI_Recv()'
p3036
S'237'
p3037
tp3038
a(S'X_MPI_COMM_WORLD()'
p3039
S'238'
p3040
tp3041
a(S'MPI_Barrier()'
p3042
S'246'
p3043
tp3044
a(S'MPI_Bcast()'
p3045
S'249'
p3046
tp3047
a(S'MPI_Bcast()'
p3048
S'250'
p3049
tp3050
a(S'MPI_Barrier()'
p3051
S'263'
p3052
tp3053
a(S'MPI_Init()'
p3054
S'276'
p3055
tp3056
a(S'MPI_Comm_size()'
p3057
S'277'
p3058
tp3059
a(S'MPI_Comm_rank()'
p3060
S'278'
p3061
tp3062
a(S'MPI_Send()'
p3063
S'293'
p3064
tp3065
a(S'MPI_Send()'
p3066
S'294'
p3067
tp3068
a(S'MPI_Recv()'
p3069
S'297'
p3070
tp3071
a(S'MPI_Recv()'
p3072
S'298'
p3073
tp3074
a(S'MPI_Finalize()'
p3075
S'323'
p3076
tp3077
asS'homeworkInUstc/parallelComputer/My_jobs/four/20-3/18-4/cannon.c.bak'
p3078
(lp3079
(S'MPI_Send()'
p3080
S'84'
p3081
tp3082
a(S'MPI_Send()'
p3083
S'85'
p3084
tp3085
a(S'MPI_Sendrecv()'
p3086
S'97'
p3087
tp3088
a(S'MPI_Sendrecv()'
p3089
S'102'
p3090
tp3091
a(S'MPI_Send()'
p3092
S'124'
p3093
tp3094
a(S'MPI_Recv()'
p3095
S'125'
p3096
tp3097
a(S'MPI_Send()'
p3098
S'128'
p3099
tp3100
a(S'MPI_Recv()'
p3101
S'129'
p3102
tp3103
a(S'MPI_Recv()'
p3104
S'150'
p3105
tp3106
a(S'MPI_Init()'
p3107
S'199'
p3108
tp3109
a(S'MPI_Comm_size()'
p3110
S'200'
p3111
tp3112
a(S'MPI_Comm_rank()'
p3113
S'201'
p3114
tp3115
a(S'MPI_Finalize()'
p3116
S'210'
p3117
tp3118
a(S'MPI_Finalize()'
p3119
S'218'
p3120
tp3121
a(S'MPI_Recv()'
p3122
S'260'
p3123
tp3124
a(S'MPI_Recv()'
p3125
S'261'
p3126
tp3127
a(S'MPI_Wtime()'
p3128
S'264'
p3129
tp3130
a(S'MPI_Wtime()'
p3131
S'269'
p3132
tp3133
a(S'MPI_Send()'
p3134
S'285'
p3135
tp3136
a(S'MPI_Barrier()'
p3137
S'288'
p3138
tp3139
a(S'MPI_Finalize()'
p3140
S'289'
p3141
tp3142
asS'homeworkInUstc/parallelComputer/source/20-3/18-7/svd.c'
p3143
(lp3144
(S'MPI_Init()'
p3145
S'69'
p3146
tp3147
a(S'MPI_Comm_size()'
p3148
S'70'
p3149
tp3150
a(S'MPI_Comm_rank()'
p3151
S'71'
p3152
tp3153
a(S'MPI_Bcast()'
p3154
S'81'
p3155
tp3156
a(S'MPI_Bcast()'
p3157
S'82'
p3158
tp3159
a(S'MPI_Send()'
p3160
S'112'
p3161
tp3162
a(S'MPI_Send()'
p3163
S'113'
p3164
tp3165
a(S'MPI_Recv()'
p3166
S'118'
p3167
tp3168
a(S'MPI_Recv()'
p3169
S'119'
p3170
tp3171
a(S'MPI_Allreduce()'
p3172
S'142'
p3173
tp3174
a(S'MPI_Send()'
p3175
S'195'
p3176
tp3177
a(S'MPI_Recv()'
p3178
S'200'
p3179
tp3180
a(S'MPI_Send()'
p3181
S'209'
p3182
tp3183
a(S'MPI_Recv()'
p3184
S'214'
p3185
tp3186
a(S'MPI_Finalize()'
p3187
S'278'
p3188
tp3189
asS'homeworkInUstc/parallelComputer/source/18-9/invert.c'
p3190
(lp3191
(S'MPI_Bcast()'
p3192
S'77'
p3193
tp3194
a(S'MPI_Send()'
p3195
S'107'
p3196
tp3197
a(S'MPI_Send()'
p3198
S'109'
p3199
tp3200
a(S'MPI_Recv()'
p3201
S'115'
p3202
tp3203
a(S'MPI_Bcast()'
p3204
S'140'
p3205
tp3206
a(S'MPI_Bcast()'
p3207
S'145'
p3208
tp3209
a(S'MPI_Send()'
p3210
S'206'
p3211
tp3212
a(S'MPI_Recv()'
p3213
S'214'
p3214
tp3215
a(S'MPI_Init()'
p3216
S'269'
p3217
tp3218
a(S'MPI_Comm_size()'
p3219
S'270'
p3220
tp3221
a(S'MPI_Comm_rank()'
p3222
S'271'
p3223
tp3224
a(S'MPI_Finalize()'
p3225
S'296'
p3226
tp3227
asS'homeworkInUstc/parallelComputer/source/20-3/relaxation.c'
p3228
(lp3229
(S'MPI_Init()'
p3230
S'59'
p3231
tp3232
a(S'MPI_Comm_size()'
p3233
S'60'
p3234
tp3235
a(S'MPI_Comm_rank()'
p3236
S'61'
p3237
tp3238
a(S'MPI_Bcast()'
p3239
S'118'
p3240
tp3241
a(S'MPI_Bcast()'
p3242
S'137'
p3243
tp3244
a(S'MPI_Send()'
p3245
S'155'
p3246
tp3247
a(S'MPI_Send()'
p3248
S'156'
p3249
tp3250
a(S'MPI_Recv()'
p3251
S'162'
p3252
tp3253
a(S'MPI_Recv()'
p3254
S'163'
p3255
tp3256
a(S'MPI_Bcast()'
p3257
S'204'
p3258
tp3259
a(S'MPI_Bcast()'
p3260
S'213'
p3261
tp3262
a(S'MPI_Allreduce()'
p3263
S'220'
p3264
tp3265
a(S'MPI_Barrier()'
p3266
S'241'
p3267
tp3268
a(S'MPI_Finalize()'
p3269
S'242'
p3270
tp3271
asS'homeworkInUstc/parallelComputer/My_jobs/four/20-3/15-2/connect.c'
p3272
(lp3273
(S'MPI_Bcast()'
p3274
S'65'
p3275
tp3276
a(S'MPI_Init()'
p3277
S'155'
p3278
tp3279
a(S'MPI_Comm_size()'
p3280
S'156'
p3281
tp3282
a(S'MPI_Comm_rank()'
p3283
S'157'
p3284
tp3285
a(S'MPI_Barrier()'
p3286
S'160'
p3287
tp3288
a(S'MPI_Barrier()'
p3289
S'167'
p3290
tp3291
a(S'MPI_Bcast()'
p3292
S'169'
p3293
tp3294
a(S'MPI_Barrier()'
p3295
S'184'
p3296
tp3297
a(S'MPI_Gather()'
p3298
S'185'
p3299
tp3300
a(S'MPI_Barrier()'
p3301
S'188'
p3302
tp3303
a(S'MPI_Send()'
p3304
S'193'
p3305
tp3306
a(S'MPI_Recv()'
p3307
S'195'
p3308
tp3309
a(S'MPI_Barrier()'
p3310
S'196'
p3311
tp3312
a(S'MPI_Barrier()'
p3313
S'207'
p3314
tp3315
a(S'MPI_Gather()'
p3316
S'208'
p3317
tp3318
a(S'MPI_Barrier()'
p3319
S'211'
p3320
tp3321
a(S'MPI_Barrier()'
p3322
S'216'
p3323
tp3324
a(S'MPI_Gather()'
p3325
S'217'
p3326
tp3327
a(S'MPI_Gather()'
p3328
S'218'
p3329
tp3330
a(S'MPI_Barrier()'
p3331
S'219'
p3332
tp3333
a(S'MPI_Gather()'
p3334
S'231'
p3335
tp3336
a(S'MPI_Gather()'
p3337
S'238'
p3338
tp3339
a(S'MPI_Finalize()'
p3340
S'252'
p3341
tp3342
asS'homeworkInUstc/parallelComputer/source/16-1/queen.c'
p3343
(lp3344
(S'MPI_Recv()'
p3345
S'205'
p3346
tp3347
a(S'MPI_Recv()'
p3348
S'212'
p3349
tp3350
a(S'MPI_Recv()'
p3351
S'216'
p3352
tp3353
a(S'MPI_Send()'
p3354
S'227'
p3355
tp3356
a(S'MPI_Send()'
p3357
S'229'
p3358
tp3359
a(S'MPI_Send()'
p3360
S'234'
p3361
tp3362
a(S'MPI_Send()'
p3363
S'264'
p3364
tp3365
a(S'MPI_Recv()'
p3366
S'269'
p3367
tp3368
a(S'MPI_Recv()'
p3369
S'274'
p3370
tp3371
a(S'MPI_Send()'
p3372
S'285'
p3373
tp3374
a(S'MPI_Send()'
p3375
S'286'
p3376
tp3377
a(S'MPI_Send()'
p3378
S'289'
p3379
tp3380
a(S'X_MPI_INT()'
p3381
S'291'
p3382
tp3383
a(S'MPI_Init()'
p3384
S'320'
p3385
tp3386
a(S'MPI_Comm_size()'
p3387
S'322'
p3388
tp3389
a(S'MPI_Comm_rank()'
p3390
S'324'
p3391
tp3392
a(S'MPI_Finalize()'
p3393
S'342'
p3394
tp3395
asS'homeworkInUstc/parallelComputer/source/15-4/mst.c'
p3396
(lp3397
(S'MPI_Bcast()'
p3398
S'84'
p3399
tp3400
a(S'MPI_Recv()'
p3401
S'147'
p3402
tp3403
a(S'MPI_Recv()'
p3404
S'148'
p3405
tp3406
a(S'MPI_Send()'
p3407
S'154'
p3408
tp3409
a(S'MPI_Send()'
p3410
S'155'
p3411
tp3412
a(S'MPI_Barrier()'
p3413
S'157'
p3414
tp3415
a(S'MPI_Init()'
p3416
S'197'
p3417
tp3418
a(S'MPI_Comm_size()'
p3419
S'198'
p3420
tp3421
a(S'MPI_Comm_rank()'
p3422
S'199'
p3423
tp3424
a(S'MPI_Bcast()'
p3425
S'209'
p3426
tp3427
a(S'MPI_Gather()'
p3428
S'225'
p3429
tp3430
a(S'MPI_Send()'
p3431
S'230'
p3432
tp3433
a(S'MPI_Recv()'
p3434
S'232'
p3435
tp3436
a(S'MPI_Barrier()'
p3437
S'233'
p3438
tp3439
a(S'MPI_Barrier()'
p3440
S'245'
p3441
tp3442
a(S'MPI_Gather()'
p3443
S'246'
p3444
tp3445
a(S'MPI_Gather()'
p3446
S'247'
p3447
tp3448
a(S'MPI_Barrier()'
p3449
S'250'
p3450
tp3451
a(S'MPI_Barrier()'
p3452
S'254'
p3453
tp3454
a(S'MPI_Gather()'
p3455
S'256'
p3456
tp3457
a(S'MPI_Gather()'
p3458
S'257'
p3459
tp3460
a(S'MPI_Barrier()'
p3461
S'258'
p3462
tp3463
a(S'MPI_Gather()'
p3464
S'268'
p3465
tp3466
a(S'MPI_Gather()'
p3467
S'275'
p3468
tp3469
a(S'MPI_Finalize()'
p3470
S'284'
p3471
tp3472
asS'homeworkInUstc/parallelComputer/source/16-2/sat.c'
p3473
(lp3474
(S'MPI_Init()'
p3475
S'103'
p3476
tp3477
a(S'MPI_Comm_rank()'
p3478
S'104'
p3479
tp3480
a(S'MPI_Comm_size()'
p3481
S'105'
p3482
tp3483
a(S'MPI_Abort()'
p3484
S'113'
p3485
tp3486
a(S'MPI_Abort()'
p3487
S'119'
p3488
tp3489
a(S'MPI_Barrier()'
p3490
S'128'
p3491
tp3492
a(S'MPI_Bcast()'
p3493
S'129'
p3494
tp3495
a(S'MPI_Barrier()'
p3496
S'130'
p3497
tp3498
a(S'MPI_Send()'
p3499
S'139'
p3500
tp3501
a(S'MPI_Recv()'
p3502
S'142'
p3503
tp3504
a(S'MPI_Send()'
p3505
S'150'
p3506
tp3507
a(S'MPI_Send()'
p3508
S'158'
p3509
tp3510
a(S'MPI_Send()'
p3511
S'164'
p3512
tp3513
a(S'MPI_Recv()'
p3514
S'175'
p3515
tp3516
a(S'MPI_Finalize()'
p3517
S'181'
p3518
tp3519
a(S'MPI_Send()'
p3520
S'518'
p3521
tp3522
a(S'MPI_Send()'
p3523
S'523'
p3524
tp3525
asS'homeworkInUstc/parallelComputer/source/16-4/beibao.c'
p3526
(lp3527
(S'MPI_Send()'
p3528
S'38'
p3529
tp3530
a(S'MPI_Send()'
p3531
S'48'
p3532
tp3533
a(S'MPI_Send()'
p3534
S'58'
p3535
tp3536
a(S'MPI_Recv()'
p3537
S'68'
p3538
tp3539
a(S'MPI_Recv()'
p3540
S'69'
p3541
tp3542
a(S'MPI_Recv()'
p3543
S'70'
p3544
tp3545
a(S'MPI_Recv()'
p3546
S'87'
p3547
tp3548
a(S'MPI_Send()'
p3549
S'105'
p3550
tp3551
a(S'MPI_Finalize()'
p3552
S'135'
p3553
tp3554
asS'homeworkInUstc/parallelComputer/source/18-4/-'
p3555
(lp3556
(S'MPI_Send()'
p3557
S'84'
p3558
tp3559
a(S'MPI_Send()'
p3560
S'85'
p3561
tp3562
a(S'MPI_Sendrecv()'
p3563
S'97'
p3564
tp3565
a(S'MPI_Sendrecv()'
p3566
S'102'
p3567
tp3568
a(S'MPI_Sendrecv()'
p3569
S'128'
p3570
tp3571
a(S'MPI_Sendrecv()'
p3572
S'133'
p3573
tp3574
a(S'MPI_Recv()'
p3575
S'162'
p3576
tp3577
a(S'MPI_Init()'
p3578
S'211'
p3579
tp3580
a(S'MPI_Comm_size()'
p3581
S'212'
p3582
tp3583
a(S'MPI_Comm_rank()'
p3584
S'213'
p3585
tp3586
a(S'MPI_Finalize()'
p3587
S'222'
p3588
tp3589
a(S'MPI_Finalize()'
p3590
S'230'
p3591
tp3592
a(S'MPI_Recv()'
p3593
S'272'
p3594
tp3595
a(S'MPI_Recv()'
p3596
S'273'
p3597
tp3598
a(S'MPI_Wtime()'
p3599
S'276'
p3600
tp3601
a(S'MPI_Wtime()'
p3602
S'281'
p3603
tp3604
a(S'MPI_Send()'
p3605
S'297'
p3606
tp3607
a(S'MPI_Barrier()'
p3608
S'300'
p3609
tp3610
a(S'MPI_Finalize()'
p3611
S'301'
p3612
tp3613
asS'homeworkInUstc/parallelComputer/source/20-3/20-1/jacobi.c'
p3614
(lp3615
(S'MPI_Send()'
p3616
S'138'
p3617
tp3618
a(S'MPI_Send()'
p3619
S'139'
p3620
tp3621
a(S'MPI_Recv()'
p3622
S'145'
p3623
tp3624
a(S'MPI_Recv()'
p3625
S'146'
p3626
tp3627
a(S'MPI_Allreduce()'
p3628
S'183'
p3629
tp3630
a(S'MPI_Allgather()'
p3631
S'186'
p3632
tp3633
a(S'MPI_Init()'
p3634
S'251'
p3635
tp3636
a(S'MPI_Comm_size()'
p3637
S'252'
p3638
tp3639
a(S'MPI_Comm_rank()'
p3640
S'253'
p3641
tp3642
a(S'MPI_Bcast()'
p3643
S'258'
p3644
tp3645
a(S'MPI_Bcast()'
p3646
S'262'
p3647
tp3648
a(S'MPI_Barrier()'
p3649
S'266'
p3650
tp3651
a(S'MPI_Finalize()'
p3652
S'267'
p3653
tp3654
asS'homeworkInUstc/parallelComputer/source/16-3/box.c'
p3655
(lp3656
(S'MPI_Wtime()'
p3657
S'56'
p3658
tp3659
a(S'MPI_Send()'
p3660
S'105'
p3661
tp3662
a(S'MPI_Send()'
p3663
S'118'
p3664
tp3665
a(S'MPI_Recv()'
p3666
S'123'
p3667
tp3668
a(S'MPI_Recv()'
p3669
S'130'
p3670
tp3671
a(S'MPI_Send()'
p3672
S'134'
p3673
tp3674
a(S'MPI_Recv()'
p3675
S'139'
p3676
tp3677
a(S'MPI_Send()'
p3678
S'144'
p3679
tp3680
a(S'MPI_Recv()'
p3681
S'146'
p3682
tp3683
a(S'MPI_Recv()'
p3684
S'150'
p3685
tp3686
a(S'MPI_Send()'
p3687
S'156'
p3688
tp3689
a(S'MPI_Recv()'
p3690
S'167'
p3691
tp3692
a(S'MPI_Recv()'
p3693
S'187'
p3694
tp3695
a(S'MPI_Send()'
p3696
S'190'
p3697
tp3698
a(S'MPI_Send()'
p3699
S'200'
p3700
tp3701
a(S'MPI_Send()'
p3702
S'202'
p3703
tp3704
a(S'MPI_Recv()'
p3705
S'206'
p3706
tp3707
a(S'MPI_Send()'
p3708
S'209'
p3709
tp3710
a(S'MPI_Send()'
p3711
S'211'
p3712
tp3713
a(S'MPI_Recv()'
p3714
S'215'
p3715
tp3716
a(S'MPI_Send()'
p3717
S'218'
p3718
tp3719
a(S'MPI_Send()'
p3720
S'220'
p3721
tp3722
a(S'MPI_Send()'
p3723
S'224'
p3724
tp3725
a(S'MPI_Recv()'
p3726
S'227'
p3727
tp3728
a(S'MPI_Send()'
p3729
S'243'
p3730
tp3731
a(S'MPI_Recv()'
p3732
S'246'
p3733
tp3734
a(S'MPI_Recv()'
p3735
S'260'
p3736
tp3737
a(S'MPI_Recv()'
p3738
S'261'
p3739
tp3740
a(S'MPI_Send()'
p3741
S'284'
p3742
tp3743
a(S'MPI_Send()'
p3744
S'285'
p3745
tp3746
a(S'MPI_Send()'
p3747
S'295'
p3748
tp3749
a(S'MPI_Recv()'
p3750
S'300'
p3751
tp3752
a(S'MPI_Send()'
p3753
S'312'
p3754
tp3755
a(S'MPI_Recv()'
p3756
S'316'
p3757
tp3758
a(S'MPI_Send()'
p3759
S'321'
p3760
tp3761
a(S'MPI_Send()'
p3762
S'324'
p3763
tp3764
a(S'MPI_Recv()'
p3765
S'328'
p3766
tp3767
a(S'MPI_Send()'
p3768
S'332'
p3769
tp3770
a(S'MPI_Send()'
p3771
S'335'
p3772
tp3773
a(S'MPI_Send()'
p3774
S'343'
p3775
tp3776
a(S'MPI_Recv()'
p3777
S'348'
p3778
tp3779
a(S'MPI_Wtime()'
p3780
S'364'
p3781
tp3782
a(S'MPI_Finalize()'
p3783
S'366'
p3784
tp3785
asS'homeworkInUstc/parallelComputer/source/20-3/18-8/cholersky.c'
p3786
(lp3787
(S'MPI_Init()'
p3788
S'21'
p3789
tp3790
a(S'MPI_Comm_rank()'
p3791
S'22'
p3792
tp3793
a(S'MPI_Comm_size()'
p3794
S'23'
p3795
tp3796
a(S'MPI_Bcast()'
p3797
S'64'
p3798
tp3799
a(S'MPI_Bcast()'
p3800
S'69'
p3801
tp3802
a(S'MPI_Send()'
p3803
S'91'
p3804
tp3805
a(S'MPI_Recv()'
p3806
S'100'
p3807
tp3808
a(S'MPI_Finalize()'
p3809
S'118'
p3810
tp3811
asS'homeworkInUstc/parallelComputer/My_jobs/four/20-3/18-4/cannon.c'
p3812
(lp3813
(S'MPI_Send()'
p3814
S'84'
p3815
tp3816
a(S'MPI_Send()'
p3817
S'85'
p3818
tp3819
a(S'MPI_Sendrecv()'
p3820
S'97'
p3821
tp3822
a(S'MPI_Sendrecv()'
p3823
S'102'
p3824
tp3825
a(S'MPI_Sendrecv()'
p3826
S'128'
p3827
tp3828
a(S'MPI_Sendrecv()'
p3829
S'133'
p3830
tp3831
a(S'MPI_Recv()'
p3832
S'162'
p3833
tp3834
a(S'MPI_Init()'
p3835
S'211'
p3836
tp3837
a(S'MPI_Comm_size()'
p3838
S'212'
p3839
tp3840
a(S'MPI_Comm_rank()'
p3841
S'213'
p3842
tp3843
a(S'MPI_Finalize()'
p3844
S'222'
p3845
tp3846
a(S'MPI_Finalize()'
p3847
S'230'
p3848
tp3849
a(S'MPI_Recv()'
p3850
S'272'
p3851
tp3852
a(S'MPI_Recv()'
p3853
S'273'
p3854
tp3855
a(S'MPI_Wtime()'
p3856
S'276'
p3857
tp3858
a(S'MPI_Wtime()'
p3859
S'281'
p3860
tp3861
a(S'MPI_Barrier()'
p3862
S'300'
p3863
tp3864
a(S'MPI_Finalize()'
p3865
S'301'
p3866
tp3867
asS'homeworkInUstc/parallelComputer/source/17-3/17-2/intersect.c'
p3868
(lp3869
(S'MPI_Barrier()'
p3870
S'142'
p3871
tp3872
a(S'MPI_Bcast()'
p3873
S'143'
p3874
tp3875
a(S'MPI_Bcast()'
p3876
S'144'
p3877
tp3878
a(S'MPI_Bcast()'
p3879
S'145'
p3880
tp3881
a(S'MPI_Bcast()'
p3882
S'146'
p3883
tp3884
a(S'MPI_Bcast()'
p3885
S'147'
p3886
tp3887
a(S'MPI_Bcast()'
p3888
S'148'
p3889
tp3890
a(S'MPI_Barrier()'
p3891
S'149'
p3892
tp3893
a(S'MPI_Scan()'
p3894
S'183'
p3895
tp3896
a(S'MPI_Init()'
p3897
S'230'
p3898
tp3899
a(S'MPI_Comm_rank()'
p3900
S'231'
p3901
tp3902
a(S'MPI_Comm_size()'
p3903
S'232'
p3904
tp3905
a(S'MPI_Barrier()'
p3906
S'240'
p3907
tp3908
a(S'MPI_Finalize()'
p3909
S'248'
p3910
tp3911
asS'homeworkInUstc/parallelComputer/source/19-1/gauss.c'
p3912
(lp3913
(S'MPI_Init()'
p3914
S'56'
p3915
tp3916
a(S'MPI_Comm_size()'
p3917
S'57'
p3918
tp3919
a(S'MPI_Comm_rank()'
p3920
S'58'
p3921
tp3922
a(S'MPI_Bcast()'
p3923
S'87'
p3924
tp3925
a(S'MPI_Send()'
p3926
S'126'
p3927
tp3928
a(S'MPI_Send()'
p3929
S'127'
p3930
tp3931
a(S'MPI_Recv()'
p3932
S'134'
p3933
tp3934
a(S'MPI_Recv()'
p3935
S'135'
p3936
tp3937
a(S'MPI_Bcast()'
p3938
S'182'
p3939
tp3940
a(S'MPI_Bcast()'
p3941
S'184'
p3942
tp3943
a(S'MPI_Bcast()'
p3944
S'189'
p3945
tp3946
a(S'MPI_Bcast()'
p3947
S'190'
p3948
tp3949
a(S'MPI_Bcast()'
p3950
S'233'
p3951
tp3952
a(S'MPI_Bcast()'
p3953
S'240'
p3954
tp3955
a(S'MPI_Send()'
p3956
S'253'
p3957
tp3958
a(S'MPI_Recv()'
p3959
S'257'
p3960
tp3961
a(S'MPI_Finalize()'
p3962
S'288'
p3963
tp3964
asS'homeworkInUstc/parallelComputer/source/22-2/dwt.c'
p3965
(lp3966
(S'MPI_Init()'
p3967
S'38'
p3968
tp3969
a(S'MPI_Comm_size()'
p3970
S'39'
p3971
tp3972
a(S'MPI_Comm_rank()'
p3973
S'40'
p3974
tp3975
a(S'MPI_Finalize()'
p3976
S'55'
p3977
tp3978
a(S'MPI_Bcast()'
p3979
S'91'
p3980
tp3981
a(S'MPI_Bcast()'
p3982
S'92'
p3983
tp3984
a(S'MPI_Bcast()'
p3985
S'93'
p3986
tp3987
a(S'MPI_Bcast()'
p3988
S'94'
p3989
tp3990
a(S'MPI_Bcast()'
p3991
S'101'
p3992
tp3993
a(S'MPI_Gather()'
p3994
S'137'
p3995
tp3996
a(S'MPI_Gather()'
p3997
S'138'
p3998
tp3999
a(S'MPI_Finalize()'
p4000
S'160'
p4001
tp4002
asS'homeworkInUstc/parallelComputer/source/20-3/18-3/matrix.c'
p4003
(lp4004
(S'MPI_Wtime()'
p4005
S'39'
p4006
tp4007
a(S'MPI_Init()'
p4008
S'143'
p4009
tp4010
a(S'MPI_Comm_size()'
p4011
S'144'
p4012
tp4013
a(S'MPI_Comm_rank()'
p4014
S'145'
p4015
tp4016
a(S'MPI_Send()'
p4017
S'159'
p4018
tp4019
a(S'MPI_Send()'
p4020
S'160'
p4021
tp4022
a(S'MPI_Send()'
p4023
S'161'
p4024
tp4025
a(S'MPI_Recv()'
p4026
S'165'
p4027
tp4028
a(S'MPI_Recv()'
p4029
S'166'
p4030
tp4031
a(S'MPI_Recv()'
p4032
S'167'
p4033
tp4034
a(S'MPI_Send()'
p4035
S'202'
p4036
tp4037
a(S'MPI_Send()'
p4038
S'205'
p4039
tp4040
a(S'MPI_Recv()'
p4041
S'213'
p4042
tp4043
a(S'MPI_Recv()'
p4044
S'216'
p4045
tp4046
a(S'MPI_Send()'
p4047
S'238'
p4048
tp4049
a(S'MPI_Recv()'
p4050
S'239'
p4051
tp4052
a(S'MPI_Recv()'
p4053
S'248'
p4054
tp4055
a(S'MPI_Send()'
p4056
S'249'
p4057
tp4058
a(S'MPI_Send()'
p4059
S'259'
p4060
tp4061
a(S'MPI_Recv()'
p4062
S'264'
p4063
tp4064
a(S'MPI_Finalize()'
p4065
S'276'
p4066
tp4067
asS'homeworkInUstc/parallelComputer/My_jobs/four/20-3/15-4/mst.c'
p4068
(lp4069
(S'MPI_Bcast()'
p4070
S'84'
p4071
tp4072
a(S'MPI_Recv()'
p4073
S'147'
p4074
tp4075
a(S'MPI_Recv()'
p4076
S'148'
p4077
tp4078
a(S'MPI_Send()'
p4079
S'154'
p4080
tp4081
a(S'MPI_Send()'
p4082
S'155'
p4083
tp4084
a(S'MPI_Barrier()'
p4085
S'157'
p4086
tp4087
a(S'MPI_Init()'
p4088
S'197'
p4089
tp4090
a(S'MPI_Comm_size()'
p4091
S'198'
p4092
tp4093
a(S'MPI_Comm_rank()'
p4094
S'199'
p4095
tp4096
a(S'MPI_Bcast()'
p4097
S'209'
p4098
tp4099
a(S'MPI_Gather()'
p4100
S'225'
p4101
tp4102
a(S'MPI_Send()'
p4103
S'230'
p4104
tp4105
a(S'MPI_Recv()'
p4106
S'232'
p4107
tp4108
a(S'MPI_Barrier()'
p4109
S'233'
p4110
tp4111
a(S'MPI_Barrier()'
p4112
S'245'
p4113
tp4114
a(S'MPI_Gather()'
p4115
S'246'
p4116
tp4117
a(S'MPI_Gather()'
p4118
S'247'
p4119
tp4120
a(S'MPI_Barrier()'
p4121
S'250'
p4122
tp4123
a(S'MPI_Barrier()'
p4124
S'254'
p4125
tp4126
a(S'MPI_Gather()'
p4127
S'256'
p4128
tp4129
a(S'MPI_Gather()'
p4130
S'257'
p4131
tp4132
a(S'MPI_Barrier()'
p4133
S'258'
p4134
tp4135
a(S'MPI_Gather()'
p4136
S'268'
p4137
tp4138
a(S'MPI_Gather()'
p4139
S'275'
p4140
tp4141
a(S'MPI_Finalize()'
p4142
S'284'
p4143
tp4144
asS'homeworkInUstc/parallelComputer/source/17-1/including.c'
p4145
(lp4146
(S'MPI_Init()'
p4147
S'74'
p4148
tp4149
a(S'MPI_Comm_rank()'
p4150
S'75'
p4151
tp4152
a(S'MPI_Comm_size()'
p4153
S'76'
p4154
tp4155
a(S'MPI_Barrier()'
p4156
S'96'
p4157
tp4158
a(S'MPI_Bcast()'
p4159
S'98'
p4160
tp4161
a(S'MPI_Bcast()'
p4162
S'99'
p4163
tp4164
a(S'MPI_Bcast()'
p4165
S'100'
p4166
tp4167
a(S'MPI_Bcast()'
p4168
S'101'
p4169
tp4170
a(S'MPI_Bcast()'
p4171
S'102'
p4172
tp4173
a(S'MPI_Barrier()'
p4174
S'104'
p4175
tp4176
a(S'MPI_Barrier()'
p4177
S'111'
p4178
tp4179
a(S'MPI_Reduce()'
p4180
S'114'
p4181
tp4182
a(S'MPI_Finalize()'
p4183
S'127'
p4184
tp4185
asS'homeworkInUstc/parallelComputer/source/20-3/18-1/transpose.c'
p4186
(lp4187
(S'MPI_Init()'
p4188
S'41'
p4189
tp4190
a(S'MPI_Comm_size()'
p4191
S'42'
p4192
tp4193
a(S'MPI_Comm_rank()'
p4194
S'43'
p4195
tp4196
a(S'MPI_Bcast()'
p4197
S'71'
p4198
tp4199
a(S'MPI_Send()'
p4200
S'117'
p4201
tp4202
a(S'MPI_Recv()'
p4203
S'121'
p4204
tp4205
a(S'MPI_Send()'
p4206
S'132'
p4207
tp4208
a(S'MPI_Recv()'
p4209
S'134'
p4210
tp4211
a(S'MPI_Recv()'
p4212
S'148'
p4213
tp4214
a(S'MPI_Send()'
p4215
S'150'
p4216
tp4217
a(S'MPI_Recv()'
p4218
S'177'
p4219
tp4220
a(S'MPI_Send()'
p4221
S'188'
p4222
tp4223
a(S'MPI_Barrier()'
p4224
S'216'
p4225
tp4226
a(S'MPI_Finalize()'
p4227
S'217'
p4228
tp4229
asS'homeworkInUstc/parallelComputer/My_jobs/four/20-3/18-1/transpose.c'
p4230
(lp4231
(S'MPI_Init()'
p4232
S'41'
p4233
tp4234
a(S'MPI_Comm_size()'
p4235
S'42'
p4236
tp4237
a(S'MPI_Comm_rank()'
p4238
S'43'
p4239
tp4240
a(S'MPI_Bcast()'
p4241
S'71'
p4242
tp4243
a(S'MPI_Send()'
p4244
S'117'
p4245
tp4246
a(S'MPI_Recv()'
p4247
S'121'
p4248
tp4249
a(S'MPI_Send()'
p4250
S'132'
p4251
tp4252
a(S'MPI_Recv()'
p4253
S'134'
p4254
tp4255
a(S'MPI_Recv()'
p4256
S'148'
p4257
tp4258
a(S'MPI_Send()'
p4259
S'150'
p4260
tp4261
a(S'MPI_Recv()'
p4262
S'177'
p4263
tp4264
a(S'MPI_Send()'
p4265
S'188'
p4266
tp4267
a(S'MPI_Barrier()'
p4268
S'216'
p4269
tp4270
a(S'MPI_Finalize()'
p4271
S'217'
p4272
tp4273
asS'homeworkInUstc/parallelComputer/source/20-3/18-5/ludep.c'
p4274
(lp4275
(S'MPI_Init()'
p4276
S'39'
p4277
tp4278
a(S'MPI_Comm_size()'
p4279
S'40'
p4280
tp4281
a(S'MPI_Comm_rank()'
p4282
S'41'
p4283
tp4284
a(S'MPI_Bcast()'
p4285
S'62'
p4286
tp4287
a(S'MPI_Send()'
p4288
S'92'
p4289
tp4290
a(S'MPI_Recv()'
p4291
S'98'
p4292
tp4293
a(S'MPI_Bcast()'
p4294
S'111'
p4295
tp4296
a(S'MPI_Bcast()'
p4297
S'116'
p4298
tp4299
a(S'MPI_Send()'
p4300
S'148'
p4301
tp4302
a(S'MPI_Recv()'
p4303
S'155'
p4304
tp4305
a(S'MPI_Finalize()'
p4306
S'202'
p4307
tp4308
asS'homeworkInUstc/parallelComputer/source/22-1/fft.c'
p4309
(lp4310
(S'MPI_Send()'
p4311
S'276'
p4312
tp4313
a(S'MPI_Send()'
p4314
S'277'
p4315
tp4316
a(S'MPI_Send()'
p4317
S'278'
p4318
tp4319
a(S'MPI_Recv()'
p4320
S'289'
p4321
tp4322
a(S'MPI_Recv()'
p4323
S'290'
p4324
tp4325
a(S'MPI_Recv()'
p4326
S'291'
p4327
tp4328
a(S'MPI_Init()'
p4329
S'299'
p4330
tp4331
a(S'MPI_Comm_rank()'
p4332
S'300'
p4333
tp4334
a(S'MPI_Comm_size()'
p4335
S'301'
p4336
tp4337
a(S'MPI_Abort()'
p4338
S'313'
p4339
tp4340
a(S'MPI_Wtime()'
p4341
S'316'
p4342
tp4343
a(S'MPI_Send()'
p4344
S'369'
p4345
tp4346
a(S'MPI_Recv()'
p4347
S'370'
p4348
tp4349
a(S'MPI_Recv()'
p4350
S'379'
p4351
tp4352
a(S'X_MPI_DOUBLE()'
p4353
S'380'
p4354
tp4355
a(S'MPI_Send()'
p4356
S'385'
p4357
tp4358
a(S'X_MPI_DOUBLE()'
p4359
S'386'
p4360
tp4361
a(S'MPI_Send()'
p4362
S'409'
p4363
tp4364
a(S'MPI_Recv()'
p4365
S'419'
p4366
tp4367
a(S'X_MPI_DOUBLE()'
p4368
S'420'
p4369
tp4370
a(S'MPI_Wtime()'
p4371
S'423'
p4372
tp4373
a(S'MPI_Finalize()'
p4374
S'436'
p4375
tp4376
asS'homeworkInUstc/parallelComputer/source/15-1/closure.c'
p4377
(lp4378
(S'MPI_Send()'
p4379
S'88'
p4380
tp4381
a(S'MPI_Send()'
p4382
S'90'
p4383
tp4384
a(S'MPI_Recv()'
p4385
S'115'
p4386
tp4387
a(S'MPI_Recv()'
p4388
S'117'
p4389
tp4390
a(S'MPI_Send()'
p4391
S'147'
p4392
tp4393
a(S'MPI_Recv()'
p4394
S'148'
p4395
tp4396
a(S'MPI_Recv()'
p4397
S'155'
p4398
tp4399
a(S'MPI_Send()'
p4400
S'156'
p4401
tp4402
a(S'MPI_Recv()'
p4403
S'178'
p4404
tp4405
a(S'MPI_Send()'
p4406
S'182'
p4407
tp4408
a(S'MPI_Init()'
p4409
S'223'
p4410
tp4411
a(S'MPI_Comm_size()'
p4412
S'225'
p4413
tp4414
a(S'MPI_Comm_rank()'
p4415
S'227'
p4416
tp4417
a(S'MPI_Send()'
p4418
S'235'
p4419
tp4420
a(S'MPI_Recv()'
p4421
S'238'
p4422
tp4423
a(S'MPI_Finalize()'
p4424
S'266'
p4425
tp4426
asS'homeworkInUstc/parallelComputer/My_jobs/four/20-3/18-7/svd.c'
p4427
(lp4428
(S'MPI_Init()'
p4429
S'69'
p4430
tp4431
a(S'MPI_Comm_size()'
p4432
S'70'
p4433
tp4434
a(S'MPI_Comm_rank()'
p4435
S'71'
p4436
tp4437
a(S'MPI_Bcast()'
p4438
S'81'
p4439
tp4440
a(S'MPI_Bcast()'
p4441
S'82'
p4442
tp4443
a(S'MPI_Send()'
p4444
S'112'
p4445
tp4446
a(S'MPI_Send()'
p4447
S'113'
p4448
tp4449
a(S'MPI_Recv()'
p4450
S'118'
p4451
tp4452
a(S'MPI_Recv()'
p4453
S'119'
p4454
tp4455
a(S'MPI_Allreduce()'
p4456
S'142'
p4457
tp4458
a(S'MPI_Send()'
p4459
S'195'
p4460
tp4461
a(S'MPI_Recv()'
p4462
S'200'
p4463
tp4464
a(S'MPI_Send()'
p4465
S'209'
p4466
tp4467
a(S'MPI_Recv()'
p4468
S'214'
p4469
tp4470
a(S'MPI_Finalize()'
p4471
S'278'
p4472
tp4473
asS'homeworkInUstc/parallelComputer/source/18-4/cannon.c.bak'
p4474
(lp4475
(S'MPI_Send()'
p4476
S'84'
p4477
tp4478
a(S'MPI_Send()'
p4479
S'85'
p4480
tp4481
a(S'MPI_Sendrecv()'
p4482
S'97'
p4483
tp4484
a(S'MPI_Sendrecv()'
p4485
S'102'
p4486
tp4487
a(S'MPI_Send()'
p4488
S'124'
p4489
tp4490
a(S'MPI_Recv()'
p4491
S'125'
p4492
tp4493
a(S'MPI_Send()'
p4494
S'128'
p4495
tp4496
a(S'MPI_Recv()'
p4497
S'129'
p4498
tp4499
a(S'MPI_Recv()'
p4500
S'150'
p4501
tp4502
a(S'MPI_Init()'
p4503
S'199'
p4504
tp4505
a(S'MPI_Comm_size()'
p4506
S'200'
p4507
tp4508
a(S'MPI_Comm_rank()'
p4509
S'201'
p4510
tp4511
a(S'MPI_Finalize()'
p4512
S'210'
p4513
tp4514
a(S'MPI_Finalize()'
p4515
S'218'
p4516
tp4517
a(S'MPI_Recv()'
p4518
S'260'
p4519
tp4520
a(S'MPI_Recv()'
p4521
S'261'
p4522
tp4523
a(S'MPI_Wtime()'
p4524
S'264'
p4525
tp4526
a(S'MPI_Wtime()'
p4527
S'269'
p4528
tp4529
a(S'MPI_Send()'
p4530
S'285'
p4531
tp4532
a(S'MPI_Barrier()'
p4533
S'288'
p4534
tp4535
a(S'MPI_Finalize()'
p4536
S'289'
p4537
tp4538
asS'homeworkInUstc/parallelComputer/source/14-3/app_match.c'
p4539
(lp4540
(S'MPI_Init()'
p4541
S'246'
p4542
tp4543
a(S'MPI_Comm_size()'
p4544
S'247'
p4545
tp4546
a(S'MPI_Comm_rank()'
p4547
S'248'
p4548
tp4549
a(S'MPI_Barrier()'
p4550
S'274'
p4551
tp4552
a(S'MPI_Barrier()'
p4553
S'294'
p4554
tp4555
a(S'MPI_Bcast()'
p4556
S'297'
p4557
tp4558
a(S'MPI_Send()'
p4559
S'304'
p4560
tp4561
a(S'MPI_Recv()'
p4562
S'307'
p4563
tp4564
a(S'MPI_Recv()'
p4565
S'310'
p4566
tp4567
a(S'MPI_Send()'
p4568
S'311'
p4569
tp4570
a(S'MPI_Barrier()'
p4571
S'315'
p4572
tp4573
a(S'MPI_Barrier()'
p4574
S'336'
p4575
tp4576
a(S'MPI_Barrier()'
p4577
S'349'
p4578
tp4579
a(S'MPI_Finalize()'
p4580
S'356'
p4581
tp4582
asS'homeworkInUstc/parallelComputer/source/14-1/kmp.c'
p4583
(lp4584
(S'MPI_Init()'
p4585
S'187'
p4586
tp4587
a(S'MPI_Comm_size()'
p4588
S'188'
p4589
tp4590
a(S'MPI_Comm_rank()'
p4591
S'189'
p4592
tp4593
a(S'MPI_Send()'
p4594
S'206'
p4595
tp4596
a(S'MPI_Recv()'
p4597
S'209'
p4598
tp4599
a(S'MPI_Send()'
p4600
S'212'
p4601
tp4602
a(S'MPI_Bcast()'
p4603
S'246'
p4604
tp4605
a(S'MPI_Barrier()'
p4606
S'254'
p4607
tp4608
a(S'MPI_Bcast()'
p4609
S'255'
p4610
tp4611
a(S'MPI_Bcast()'
p4612
S'256'
p4613
tp4614
a(S'MPI_Bcast()'
p4615
S'257'
p4616
tp4617
a(S'MPI_Bcast()'
p4618
S'258'
p4619
tp4620
a(S'MPI_Barrier()'
p4621
S'261'
p4622
tp4623
a(S'MPI_Barrier()'
p4624
S'276'
p4625
tp4626
a(S'MPI_Send()'
p4627
S'280'
p4628
tp4629
a(S'MPI_Recv()'
p4630
S'283'
p4631
tp4632
a(S'MPI_Barrier()'
p4633
S'285'
p4634
tp4635
a(S'MPI_Barrier()'
p4636
S'290'
p4637
tp4638
a(S'MPI_Send()'
p4639
S'297'
p4640
tp4641
a(S'MPI_Recv()'
p4642
S'300'
p4643
tp4644
a(S'MPI_Send()'
p4645
S'303'
p4646
tp4647
a(S'MPI_Finalize()'
p4648
S'309'
p4649
tp4650
asS'homeworkInUstc/parallelComputer/source/19-2/jordan.c'
p4651
(lp4652
(S'MPI_Init()'
p4653
S'88'
p4654
tp4655
a(S'MPI_Comm_size()'
p4656
S'89'
p4657
tp4658
a(S'MPI_Comm_rank()'
p4659
S'90'
p4660
tp4661
a(S'MPI_Bcast()'
p4662
S'129'
p4663
tp4664
a(S'MPI_Send()'
p4665
S'163'
p4666
tp4667
a(S'MPI_Send()'
p4668
S'164'
p4669
tp4670
a(S'MPI_Recv()'
p4671
S'172'
p4672
tp4673
a(S'MPI_Recv()'
p4674
S'173'
p4675
tp4676
a(S'MPI_Bcast()'
p4677
S'223'
p4678
tp4679
a(S'MPI_Bcast()'
p4680
S'224'
p4681
tp4682
a(S'MPI_Bcast()'
p4683
S'229'
p4684
tp4685
a(S'MPI_Bcast()'
p4686
S'230'
p4687
tp4688
a(S'MPI_Send()'
p4689
S'274'
p4690
tp4691
a(S'MPI_Recv()'
p4692
S'284'
p4693
tp4694
a(S'MPI_Finalize()'
p4695
S'334'
p4696
tp4697
asS'homeworkInUstc/parallelComputer/source/14-2/rand_match.c'
p4698
(lp4699
(S'MPI_Init()'
p4700
S'45'
p4701
tp4702
a(S'MPI_Comm_size()'
p4703
S'46'
p4704
tp4705
a(S'MPI_Comm_rank()'
p4706
S'47'
p4707
tp4708
a(S'MPI_Bcast()'
p4709
S'86'
p4710
tp4711
a(S'MPI_Bcast()'
p4712
S'87'
p4713
tp4714
a(S'MPI_Barrier()'
p4715
S'93'
p4716
tp4717
a(S'MPI_Bcast()'
p4718
S'122'
p4719
tp4720
a(S'MPI_Barrier()'
p4721
S'123'
p4722
tp4723
a(S'MPI_Send()'
p4724
S'147'
p4725
tp4726
a(S'MPI_Recv()'
p4727
S'150'
p4728
tp4729
a(S'MPI_Recv()'
p4730
S'153'
p4731
tp4732
a(S'MPI_Send()'
p4733
S'167'
p4734
tp4735
a(S'MPI_Barrier()'
p4736
S'171'
p4737
tp4738
a(S'MPI_Barrier()'
p4739
S'186'
p4740
tp4741
a(S'MPI_Recv()'
p4742
S'190'
p4743
tp4744
a(S'MPI_Send()'
p4745
S'193'
p4746
tp4747
a(S'MPI_Recv()'
p4748
S'196'
p4749
tp4750
a(S'MPI_Send()'
p4751
S'197'
p4752
tp4753
a(S'MPI_Send()'
p4754
S'223'
p4755
tp4756
a(S'MPI_Recv()'
p4757
S'226'
p4758
tp4759
a(S'MPI_Recv()'
p4760
S'229'
p4761
tp4762
a(S'MPI_Send()'
p4763
S'242'
p4764
tp4765
a(S'MPI_Barrier()'
p4766
S'246'
p4767
tp4768
a(S'MPI_Barrier()'
p4769
S'269'
p4770
tp4771
a(S'MPI_Finalize()'
p4772
S'306'
p4773
tp4774
asS'homeworkInUstc/parallelComputer/My_jobs/four/20-3/18-9/invert.c'
p4775
(lp4776
(S'MPI_Bcast()'
p4777
S'77'
p4778
tp4779
a(S'MPI_Send()'
p4780
S'107'
p4781
tp4782
a(S'MPI_Send()'
p4783
S'109'
p4784
tp4785
a(S'MPI_Recv()'
p4786
S'115'
p4787
tp4788
a(S'MPI_Bcast()'
p4789
S'140'
p4790
tp4791
a(S'MPI_Bcast()'
p4792
S'145'
p4793
tp4794
a(S'MPI_Send()'
p4795
S'206'
p4796
tp4797
a(S'MPI_Recv()'
p4798
S'214'
p4799
tp4800
a(S'MPI_Init()'
p4801
S'269'
p4802
tp4803
a(S'MPI_Comm_size()'
p4804
S'270'
p4805
tp4806
a(S'MPI_Comm_rank()'
p4807
S'271'
p4808
tp4809
a(S'MPI_Finalize()'
p4810
S'296'
p4811
tp4812
asS'homeworkInUstc/parallelComputer/My_jobs/four/20-3/15-1/closure.c'
p4813
(lp4814
(S'MPI_Send()'
p4815
S'88'
p4816
tp4817
a(S'MPI_Send()'
p4818
S'90'
p4819
tp4820
a(S'MPI_Recv()'
p4821
S'115'
p4822
tp4823
a(S'MPI_Recv()'
p4824
S'117'
p4825
tp4826
a(S'MPI_Send()'
p4827
S'147'
p4828
tp4829
a(S'MPI_Recv()'
p4830
S'148'
p4831
tp4832
a(S'MPI_Recv()'
p4833
S'155'
p4834
tp4835
a(S'MPI_Send()'
p4836
S'156'
p4837
tp4838
a(S'MPI_Recv()'
p4839
S'178'
p4840
tp4841
a(S'MPI_Send()'
p4842
S'182'
p4843
tp4844
a(S'MPI_Init()'
p4845
S'223'
p4846
tp4847
a(S'MPI_Comm_size()'
p4848
S'225'
p4849
tp4850
a(S'MPI_Comm_rank()'
p4851
S'227'
p4852
tp4853
a(S'MPI_Send()'
p4854
S'235'
p4855
tp4856
a(S'MPI_Recv()'
p4857
S'238'
p4858
tp4859
a(S'MPI_Finalize()'
p4860
S'266'
p4861
tp4862
asS'homeworkInUstc/parallelComputer/source/18-4/cannon.c'
p4863
(lp4864
(S'MPI_Send()'
p4865
S'84'
p4866
tp4867
a(S'MPI_Send()'
p4868
S'85'
p4869
tp4870
a(S'MPI_Sendrecv()'
p4871
S'97'
p4872
tp4873
a(S'MPI_Sendrecv()'
p4874
S'102'
p4875
tp4876
a(S'MPI_Sendrecv()'
p4877
S'128'
p4878
tp4879
a(S'MPI_Sendrecv()'
p4880
S'133'
p4881
tp4882
a(S'MPI_Recv()'
p4883
S'162'
p4884
tp4885
a(S'MPI_Init()'
p4886
S'211'
p4887
tp4888
a(S'MPI_Comm_size()'
p4889
S'212'
p4890
tp4891
a(S'MPI_Comm_rank()'
p4892
S'213'
p4893
tp4894
a(S'MPI_Finalize()'
p4895
S'222'
p4896
tp4897
a(S'MPI_Finalize()'
p4898
S'230'
p4899
tp4900
a(S'MPI_Recv()'
p4901
S'272'
p4902
tp4903
a(S'MPI_Recv()'
p4904
S'273'
p4905
tp4906
a(S'MPI_Wtime()'
p4907
S'276'
p4908
tp4909
a(S'MPI_Wtime()'
p4910
S'281'
p4911
tp4912
a(S'MPI_Send()'
p4913
S'297'
p4914
tp4915
a(S'MPI_Barrier()'
p4916
S'300'
p4917
tp4918
a(S'MPI_Finalize()'
p4919
S'301'
p4920
tp4921
asS'homeworkInUstc/parallelComputer/My_jobs/four/20-3/15-3/shortest.c'
p4922
(lp4923
(S'MPI_Send()'
p4924
S'116'
p4925
tp4926
a(S'MPI_Recv()'
p4927
S'124'
p4928
tp4929
a(S'MPI_Barrier()'
p4930
S'198'
p4931
tp4932
a(S'MPI_Send()'
p4933
S'210'
p4934
tp4935
a(S'MPI_Send()'
p4936
S'212'
p4937
tp4938
a(S'MPI_Recv()'
p4939
S'215'
p4940
tp4941
a(S'X_MPI_COMM_WORLD()'
p4942
S'216'
p4943
tp4944
a(S'MPI_Recv()'
p4945
S'217'
p4946
tp4947
a(S'X_MPI_COMM_WORLD()'
p4948
S'218'
p4949
tp4950
a(S'MPI_Send()'
p4951
S'230'
p4952
tp4953
a(S'MPI_Send()'
p4954
S'232'
p4955
tp4956
a(S'MPI_Recv()'
p4957
S'235'
p4958
tp4959
a(S'X_MPI_COMM_WORLD()'
p4960
S'236'
p4961
tp4962
a(S'MPI_Recv()'
p4963
S'237'
p4964
tp4965
a(S'X_MPI_COMM_WORLD()'
p4966
S'238'
p4967
tp4968
a(S'MPI_Barrier()'
p4969
S'246'
p4970
tp4971
a(S'MPI_Bcast()'
p4972
S'249'
p4973
tp4974
a(S'MPI_Bcast()'
p4975
S'250'
p4976
tp4977
a(S'MPI_Barrier()'
p4978
S'263'
p4979
tp4980
a(S'MPI_Init()'
p4981
S'276'
p4982
tp4983
a(S'MPI_Comm_size()'
p4984
S'277'
p4985
tp4986
a(S'MPI_Comm_rank()'
p4987
S'278'
p4988
tp4989
a(S'MPI_Send()'
p4990
S'293'
p4991
tp4992
a(S'MPI_Send()'
p4993
S'294'
p4994
tp4995
a(S'MPI_Recv()'
p4996
S'297'
p4997
tp4998
a(S'MPI_Recv()'
p4999
S'298'
p5000
tp5001
a(S'MPI_Finalize()'
p5002
S'323'
p5003
tp5004
as.