ccollections
defaultdict
p0
(c__builtin__
list
p1
tp2
Rp3
S'CS-Notes-In-UOE/PPLS/coursework2/codeFromWeb/aquadPartA.c'
p4
(lp5
(S'MPI_Init()'
p6
S'114'
p7
tp8
a(S'MPI_Comm_size()'
p9
S'115'
p10
tp11
a(S'MPI_Comm_rank()'
p12
S'116'
p13
tp14
a(S'MPI_Finalize()'
p15
S'120'
p16
tp17
a(S'MPI_Finalize()'
p18
S'147'
p19
tp20
a(S'MPI_Isend()'
p21
S'173'
p22
tp23
a(S'MPI_Probe()'
p24
S'179'
p25
tp26
a(S'MPI_Recv()'
p27
S'183'
p28
tp29
a(S'MPI_Recv()'
p30
S'186'
p31
tp32
a(S'MPI_Send()'
p33
S'215'
p34
tp35
a(S'MPI_Probe()'
p36
S'225'
p37
tp38
a(S'MPI_Recv()'
p39
S'228'
p40
tp41
a(S'MPI_Recv()'
p42
S'233'
p43
tp44
a(S'MPI_Send()'
p45
S'252'
p46
tp47
a(S'MPI_Send()'
p48
S'255'
p49
tp50
asS'CS-Notes-In-UOE/PPLS/coursework2/aquadSolution.c'
p51
(lp52
(S'MPI_Init()'
p53
S'69'
p54
tp55
a(S'MPI_Comm_size()'
p56
S'70'
p57
tp58
a(S'MPI_Comm_rank()'
p59
S'71'
p60
tp61
a(S'MPI_Finalize()'
p62
S'75'
p63
tp64
a(S'MPI_Finalize()'
p65
S'106'
p66
tp67
a(S'MPI_Send()'
p68
S'143'
p69
tp70
a(S'MPI_Probe()'
p71
S'156'
p72
tp73
a(S'MPI_Recv()'
p74
S'162'
p75
tp76
a(S'MPI_Recv()'
p77
S'167'
p78
tp79
a(S'MPI_Send()'
p80
S'192'
p81
tp82
a(S'MPI_Probe()'
p83
S'209'
p84
tp85
a(S'MPI_Recv()'
p86
S'214'
p87
tp88
a(S'MPI_Send()'
p89
S'232'
p90
tp91
a(S'MPI_Send()'
p92
S'236'
p93
tp94
asS'CS-Notes-In-UOE/PPLS/coursework2/aquadSolutionV1.c'
p95
(lp96
(S'MPI_Init()'
p97
S'60'
p98
tp99
a(S'MPI_Comm_size()'
p100
S'61'
p101
tp102
a(S'MPI_Comm_rank()'
p103
S'62'
p104
tp105
a(S'MPI_Finalize()'
p106
S'66'
p107
tp108
a(S'MPI_Finalize()'
p109
S'97'
p110
tp111
a(S'MPI_Send()'
p112
S'134'
p113
tp114
a(S'MPI_Probe()'
p115
S'145'
p116
tp117
a(S'MPI_Recv()'
p118
S'151'
p119
tp120
a(S'MPI_Recv()'
p121
S'156'
p122
tp123
a(S'MPI_Send()'
p124
S'178'
p125
tp126
a(S'MPI_Probe()'
p127
S'196'
p128
tp129
a(S'MPI_Recv()'
p130
S'201'
p131
tp132
a(S'MPI_Send()'
p133
S'224'
p134
tp135
a(S'MPI_Send()'
p136
S'228'
p137
tp138
asS'CS-Notes-In-UOE/PPLS/pplsslides.pdf'
p139
(lp140
(S'MPI_Init()'
p141
S'9'
p142
tp143
a(S'MPI_Comm_rank()'
p144
S'10'
p145
tp146
a(S'MPI_Comm_size()'
p147
S'11'
p148
tp149
a(S'MPI_Finalize()'
p150
S'16'
p151
tp152
a(S'MPI_Init()'
p153
S'14'
p154
tp155
a(S'MPI_Comm_rank()'
p156
S'15'
p157
tp158
a(S'MPI_Comm_size()'
p159
S'16'
p160
tp161
a(S'MPI_Finalize()'
p162
S'22'
p163
tp164
a(S'MPI_Send()'
p165
S'35'
p166
tp167
a(S'MPI_Recv()'
p168
S'40'
p169
tp170
a(S'MPI_Send()'
p171
S'48'
p172
tp173
a(S'MPI_Recv()'
p174
S'54'
p175
tp176
a(S'MPI_Send()'
p177
S'59'
p178
tp179
a(S'MPI_Recv()'
p180
S'69'
p181
tp182
a(S'MPI_Send()'
p183
S'78'
p184
tp185
a(S'MPI_Recv()'
p186
S'79'
p187
tp188
asS'CS-Notes-In-UOE/PPLS/coursework2/codeFromWeb/aquadPartB.c'
p189
(lp190
(S'MPI_Init()'
p191
S'58'
p192
tp193
a(S'MPI_Comm_size()'
p194
S'59'
p195
tp196
a(S'MPI_Comm_rank()'
p197
S'60'
p198
tp199
a(S'MPI_Finalize()'
p200
S'64'
p201
tp202
a(S'MPI_Finalize()'
p203
S'91'
p204
tp205
a(S'MPI_Scatter()'
p206
S'105'
p207
tp208
a(S'MPI_Reduce()'
p209
S'111'
p210
tp211
a(S'MPI_Gather()'
p212
S'114'
p213
tp214
a(S'MPI_Scatter()'
p215
S'137'
p216
tp217
a(S'MPI_Reduce()'
p218
S'145'
p219
tp220
a(S'MPI_Gather()'
p221
S'146'
p222
tp223
as.