ccollections
defaultdict
p0
(c__builtin__
list
p1
tp2
Rp3
S'book-code/3rdparty/boost_1_60_0/boost/mpi/exception.hpp'
p4
(lp5
(S'MPI_Error_class()'
p6
S'73'
p7
tp8
asS'book-code/3rdparty/boost_1_60_0/boost/graph/distributed/page_rank.hpp'
p9
(lp10
(S'MPI_Comm_rank()'
p11
S'40'
p12
tp13
a(S'MPI_Accumulate()'
p14
S'53'
p15
tp16
a(S'MPI_Win_fence()'
p17
S'60'
p18
tp19
a(S'MPI_Comm_rank()'
p20
S'90'
p21
tp22
a(S'MPI_Win_create()'
p23
S'115'
p24
tp25
a(S'X_MPI_INFO_NULL()'
p26
S'118'
p27
tp28
a(S'MPI_Win_set_name()'
p29
S'119'
p30
tp31
a(S'MPI_Win_create()'
p32
S'120'
p33
tp34
a(S'X_MPI_INFO_NULL()'
p35
S'123'
p36
tp37
a(S'MPI_Win_set_name()'
p38
S'124'
p39
tp40
a(S'MPI_Win_fence()'
p41
S'129'
p42
tp43
a(S'MPI_Win_fence()'
p44
S'130'
p45
tp46
a(S'MPI_Win_free()'
p47
S'144'
p48
tp49
a(S'MPI_Win_free()'
p50
S'145'
p51
tp52
asS'book-code/3rdparty/boost/graph/distributed/detail/mpi_process_group.ipp'
p53
(lp54
(S'MPI_Recv()'
p55
S'492'
p56
tp57
a(S'MPI_Get_count()'
p58
S'510'
p59
tp60
a(S'MPI_Recv()'
p61
S'516'
p62
tp63
a(S'MPI_Irecv()'
p64
S'665'
p65
tp66
a(S'X_MPI_PACKED()'
p67
S'666'
p68
tp69
a(S'MPI_Allgather()'
p70
S'837'
p71
tp72
a(S'MPI_Allgatherv()'
p73
S'856'
p74
tp75
a(S'X_MPI_BYTE()'
p76
S'859'
p77
tp78
a(S'MPI_Comm_group()'
p79
S'880'
p80
tp81
a(S'MPI_Group_incl()'
p82
S'884'
p83
tp84
a(S'MPI_Comm_create()'
p85
S'888'
p86
tp87
a(S'MPI_Group_free()'
p88
S'891'
p89
tp90
a(S'MPI_Group_free()'
p91
S'893'
p92
tp93
a(S'MPI_Comm_free()'
p94
S'898'
p95
tp96
a(S'MPI_Irecv()'
p97
S'929'
p98
tp99
a(S'MPI_Test()'
p100
S'934'
p101
tp102
a(S'MPI_Get_count()'
p103
S'967'
p104
tp105
a(S'MPI_Recv()'
p106
S'972'
p107
tp108
asS'book-code/3rdparty/boost/mpi/timer.hpp'
p109
(lp110
(S'MPI_Wtime()'
p111
S'71'
p112
tp113
asS'book-code/3rdparty/boost/graph/distributed/page_rank.hpp'
p114
(lp115
(S'MPI_Comm_rank()'
p116
S'40'
p117
tp118
a(S'MPI_Accumulate()'
p119
S'53'
p120
tp121
a(S'MPI_Win_fence()'
p122
S'60'
p123
tp124
a(S'MPI_Comm_rank()'
p125
S'90'
p126
tp127
a(S'MPI_Win_create()'
p128
S'115'
p129
tp130
a(S'X_MPI_INFO_NULL()'
p131
S'118'
p132
tp133
a(S'MPI_Win_set_name()'
p134
S'119'
p135
tp136
a(S'MPI_Win_create()'
p137
S'120'
p138
tp139
a(S'X_MPI_INFO_NULL()'
p140
S'123'
p141
tp142
a(S'MPI_Win_set_name()'
p143
S'124'
p144
tp145
a(S'MPI_Win_fence()'
p146
S'129'
p147
tp148
a(S'MPI_Win_fence()'
p149
S'130'
p150
tp151
a(S'MPI_Win_free()'
p152
S'144'
p153
tp154
a(S'MPI_Win_free()'
p155
S'145'
p156
tp157
asS'book-code/3rdparty/boost_1_60_0/boost/graph/distributed/mpi_process_group.hpp'
p158
(lp159
(S'MPI_Bsend()'
p160
S'708'
p161
tp162
a(S'MPI_Isend()'
p163
S'714'
p164
tp165
a(S'MPI_Test()'
p166
S'720'
p167
tp168
a(S'MPI_Bsend()'
p169
S'744'
p170
tp171
a(S'MPI_Isend()'
p172
S'750'
p173
tp174
a(S'MPI_Test()'
p175
S'756'
p176
tp177
asS'book-code/3rdparty/boost/mpi/operations.hpp'
p178
(lp179
(S'MPI_Op_free()'
p180
S'293'
p181
tp182
asS'book-code/3rdparty/boost/mpi/allocator.hpp'
p183
(lp184
(S'X_MPI_INFO_NULL()'
p185
S'141'
p186
tp187
asS'book-code/3rdparty/boost_1_60_0/boost/mpi/communicator.hpp'
p188
(lp189
(S'MPI_Comm()'
p190
S'1292'
p191
tp192
a(S'MPI_Comm()'
p193
S'1492'
p194
tp195
a(S'MPI_Comm()'
p196
S'1515'
p197
tp198
a(S'MPI_Comm()'
p199
S'1551'
p200
tp201
a(S'MPI_Comm()'
p202
S'1574'
p203
tp204
asS'book-code/3rdparty/boost/mpi/exception.hpp'
p205
(lp206
(S'MPI_Error_class()'
p207
S'73'
p208
tp209
asS'book-code/3rdparty/boost/graph/distributed/mpi_process_group.hpp'
p210
(lp211
(S'MPI_Bsend()'
p212
S'708'
p213
tp214
a(S'MPI_Isend()'
p215
S'714'
p216
tp217
a(S'MPI_Test()'
p218
S'720'
p219
tp220
a(S'MPI_Bsend()'
p221
S'744'
p222
tp223
a(S'MPI_Isend()'
p224
S'750'
p225
tp226
a(S'MPI_Test()'
p227
S'756'
p228
tp229
asS'book-code/3rdparty/boost_1_60_0/boost/mpi/allocator.hpp'
p230
(lp231
(S'X_MPI_INFO_NULL()'
p232
S'141'
p233
tp234
asS'book-code/3rdparty/boost_1_60_0/boost/graph/distributed/detail/mpi_process_group.ipp'
p235
(lp236
(S'MPI_Recv()'
p237
S'492'
p238
tp239
a(S'MPI_Get_count()'
p240
S'510'
p241
tp242
a(S'MPI_Recv()'
p243
S'516'
p244
tp245
a(S'MPI_Irecv()'
p246
S'665'
p247
tp248
a(S'X_MPI_PACKED()'
p249
S'666'
p250
tp251
a(S'MPI_Allgather()'
p252
S'837'
p253
tp254
a(S'MPI_Allgatherv()'
p255
S'856'
p256
tp257
a(S'X_MPI_BYTE()'
p258
S'859'
p259
tp260
a(S'MPI_Comm_group()'
p261
S'880'
p262
tp263
a(S'MPI_Group_incl()'
p264
S'884'
p265
tp266
a(S'MPI_Comm_create()'
p267
S'888'
p268
tp269
a(S'MPI_Group_free()'
p270
S'891'
p271
tp272
a(S'MPI_Group_free()'
p273
S'893'
p274
tp275
a(S'MPI_Comm_free()'
p276
S'898'
p277
tp278
a(S'MPI_Irecv()'
p279
S'929'
p280
tp281
a(S'MPI_Test()'
p282
S'934'
p283
tp284
a(S'MPI_Get_count()'
p285
S'967'
p286
tp287
a(S'MPI_Recv()'
p288
S'972'
p289
tp290
asS'book-code/3rdparty/boost/mpi/datatype.hpp'
p291
(lp292
(S'X_MPI_LONG_DOUBLE_INT()'
p293
S'250'
p294
tp295
a(S'MPI_Type_contiguous()'
p296
S'310'
p297
tp298
a(S'MPI_Type_commit()'
p299
S'311'
p300
tp301
asS'book-code/3rdparty/boost_1_60_0/boost/mpi/timer.hpp'
p302
(lp303
(S'MPI_Wtime()'
p304
S'71'
p305
tp306
asS'book-code/3rdparty/boost_1_60_0/boost/mpi/datatype.hpp'
p307
(lp308
(S'X_MPI_LONG_DOUBLE_INT()'
p309
S'250'
p310
tp311
a(S'MPI_Type_contiguous()'
p312
S'310'
p313
tp314
a(S'MPI_Type_commit()'
p315
S'311'
p316
tp317
asS'book-code/3rdparty/boost/mpi/communicator.hpp'
p318
(lp319
(S'MPI_Comm()'
p320
S'1428'
p321
tp322
a(S'MPI_Comm()'
p323
S'1451'
p324
tp325
a(S'MPI_Comm()'
p326
S'1487'
p327
tp328
a(S'MPI_Comm()'
p329
S'1510'
p330
tp331
asS'book-code/3rdparty/boost_1_60_0/boost/mpi/operations.hpp'
p332
(lp333
(S'MPI_Op_free()'
p334
S'293'
p335
tp336
as.