ccollections
defaultdict
p0
(c__builtin__
list
p1
tp2
Rp3
S'Depend/Boost/X86_64/include/boost/graph/distributed/page_rank.hpp'
p4
(lp5
(S'MPI_Comm_rank()'
p6
S'40'
p7
tp8
a(S'MPI_Accumulate()'
p9
S'53'
p10
tp11
a(S'MPI_Win_fence()'
p12
S'60'
p13
tp14
a(S'MPI_Comm_rank()'
p15
S'90'
p16
tp17
a(S'MPI_Win_create()'
p18
S'115'
p19
tp20
a(S'X_MPI_INFO_NULL()'
p21
S'118'
p22
tp23
a(S'MPI_Win_set_name()'
p24
S'119'
p25
tp26
a(S'MPI_Win_create()'
p27
S'120'
p28
tp29
a(S'X_MPI_INFO_NULL()'
p30
S'123'
p31
tp32
a(S'MPI_Win_set_name()'
p33
S'124'
p34
tp35
a(S'MPI_Win_fence()'
p36
S'129'
p37
tp38
a(S'MPI_Win_fence()'
p39
S'130'
p40
tp41
a(S'MPI_Win_free()'
p42
S'144'
p43
tp44
a(S'MPI_Win_free()'
p45
S'145'
p46
tp47
asS'Depend/Boost/X86_64/include/boost/graph/distributed/mpi_process_group.hpp'
p48
(lp49
(S'MPI_Bsend()'
p50
S'708'
p51
tp52
a(S'MPI_Isend()'
p53
S'714'
p54
tp55
a(S'MPI_Test()'
p56
S'720'
p57
tp58
a(S'MPI_Bsend()'
p59
S'744'
p60
tp61
a(S'MPI_Isend()'
p62
S'750'
p63
tp64
a(S'MPI_Test()'
p65
S'756'
p66
tp67
asS'Depend/Boost/X86_64/include/boost/mpi/allocator.hpp'
p68
(lp69
(S'X_MPI_INFO_NULL()'
p70
S'141'
p71
tp72
asS'Depend/Boost/X86_64/include/boost/graph/distributed/detail/mpi_process_group.ipp'
p73
(lp74
(S'MPI_Recv()'
p75
S'492'
p76
tp77
a(S'MPI_Get_count()'
p78
S'510'
p79
tp80
a(S'MPI_Recv()'
p81
S'516'
p82
tp83
a(S'MPI_Irecv()'
p84
S'665'
p85
tp86
a(S'X_MPI_PACKED()'
p87
S'666'
p88
tp89
a(S'MPI_Allgather()'
p90
S'837'
p91
tp92
a(S'MPI_Allgatherv()'
p93
S'856'
p94
tp95
a(S'X_MPI_BYTE()'
p96
S'859'
p97
tp98
a(S'MPI_Comm_group()'
p99
S'880'
p100
tp101
a(S'MPI_Group_incl()'
p102
S'884'
p103
tp104
a(S'MPI_Comm_create()'
p105
S'888'
p106
tp107
a(S'MPI_Group_free()'
p108
S'891'
p109
tp110
a(S'MPI_Group_free()'
p111
S'893'
p112
tp113
a(S'MPI_Comm_free()'
p114
S'898'
p115
tp116
a(S'MPI_Irecv()'
p117
S'929'
p118
tp119
a(S'MPI_Test()'
p120
S'934'
p121
tp122
a(S'MPI_Get_count()'
p123
S'967'
p124
tp125
a(S'MPI_Recv()'
p126
S'972'
p127
tp128
asS'Depend/Boost/X86_64/include/boost/mpi/communicator.hpp'
p129
(lp130
(S'MPI_Comm()'
p131
S'1292'
p132
tp133
a(S'MPI_Comm()'
p134
S'1492'
p135
tp136
a(S'MPI_Comm()'
p137
S'1515'
p138
tp139
a(S'MPI_Comm()'
p140
S'1551'
p141
tp142
a(S'MPI_Comm()'
p143
S'1574'
p144
tp145
asS'Depend/Boost/I386/include/boost/mpi/operations.hpp'
p146
(lp147
(S'MPI_Op_free()'
p148
S'293'
p149
tp150
asS'Depend/Boost/I386/include/boost/mpi/timer.hpp'
p151
(lp152
(S'MPI_Wtime()'
p153
S'71'
p154
tp155
asS'Depend/Boost/I386/include/boost/mpi/datatype.hpp'
p156
(lp157
(S'X_MPI_LONG_DOUBLE_INT()'
p158
S'250'
p159
tp160
a(S'MPI_Type_contiguous()'
p161
S'310'
p162
tp163
a(S'MPI_Type_commit()'
p164
S'311'
p165
tp166
asS'Depend/Boost/X86_64/include/boost/mpi/datatype.hpp'
p167
(lp168
(S'X_MPI_LONG_DOUBLE_INT()'
p169
S'250'
p170
tp171
a(S'MPI_Type_contiguous()'
p172
S'310'
p173
tp174
a(S'MPI_Type_commit()'
p175
S'311'
p176
tp177
asS'Depend/Boost/I386/include/boost/mpi/allocator.hpp'
p178
(lp179
(S'X_MPI_INFO_NULL()'
p180
S'141'
p181
tp182
asS'Depend/Boost/X86_64/include/boost/mpi/timer.hpp'
p183
(lp184
(S'MPI_Wtime()'
p185
S'71'
p186
tp187
asS'Depend/Boost/X86_64/include/boost/mpi/exception.hpp'
p188
(lp189
(S'MPI_Error_class()'
p190
S'73'
p191
tp192
asS'Depend/Boost/I386/include/boost/mpi/exception.hpp'
p193
(lp194
(S'MPI_Error_class()'
p195
S'73'
p196
tp197
asS'Depend/Boost/I386/include/boost/graph/distributed/detail/mpi_process_group.ipp'
p198
(lp199
(S'MPI_Recv()'
p200
S'492'
p201
tp202
a(S'MPI_Get_count()'
p203
S'510'
p204
tp205
a(S'MPI_Recv()'
p206
S'516'
p207
tp208
a(S'MPI_Irecv()'
p209
S'665'
p210
tp211
a(S'X_MPI_PACKED()'
p212
S'666'
p213
tp214
a(S'MPI_Allgather()'
p215
S'837'
p216
tp217
a(S'MPI_Allgatherv()'
p218
S'856'
p219
tp220
a(S'X_MPI_BYTE()'
p221
S'859'
p222
tp223
a(S'MPI_Comm_group()'
p224
S'880'
p225
tp226
a(S'MPI_Group_incl()'
p227
S'884'
p228
tp229
a(S'MPI_Comm_create()'
p230
S'888'
p231
tp232
a(S'MPI_Group_free()'
p233
S'891'
p234
tp235
a(S'MPI_Group_free()'
p236
S'893'
p237
tp238
a(S'MPI_Comm_free()'
p239
S'898'
p240
tp241
a(S'MPI_Irecv()'
p242
S'929'
p243
tp244
a(S'MPI_Test()'
p245
S'934'
p246
tp247
a(S'MPI_Get_count()'
p248
S'967'
p249
tp250
a(S'MPI_Recv()'
p251
S'972'
p252
tp253
asS'Depend/Boost/I386/include/boost/mpi/communicator.hpp'
p254
(lp255
(S'MPI_Comm()'
p256
S'1292'
p257
tp258
a(S'MPI_Comm()'
p259
S'1492'
p260
tp261
a(S'MPI_Comm()'
p262
S'1515'
p263
tp264
a(S'MPI_Comm()'
p265
S'1551'
p266
tp267
a(S'MPI_Comm()'
p268
S'1574'
p269
tp270
asS'Depend/Boost/I386/include/boost/graph/distributed/mpi_process_group.hpp'
p271
(lp272
(S'MPI_Bsend()'
p273
S'708'
p274
tp275
a(S'MPI_Isend()'
p276
S'714'
p277
tp278
a(S'MPI_Test()'
p279
S'720'
p280
tp281
a(S'MPI_Bsend()'
p282
S'744'
p283
tp284
a(S'MPI_Isend()'
p285
S'750'
p286
tp287
a(S'MPI_Test()'
p288
S'756'
p289
tp290
asS'Depend/Boost/X86_64/include/boost/mpi/operations.hpp'
p291
(lp292
(S'MPI_Op_free()'
p293
S'293'
p294
tp295
asS'Depend/Boost/I386/include/boost/graph/distributed/page_rank.hpp'
p296
(lp297
(S'MPI_Comm_rank()'
p298
S'40'
p299
tp300
a(S'MPI_Accumulate()'
p301
S'53'
p302
tp303
a(S'MPI_Win_fence()'
p304
S'60'
p305
tp306
a(S'MPI_Comm_rank()'
p307
S'90'
p308
tp309
a(S'MPI_Win_create()'
p310
S'115'
p311
tp312
a(S'X_MPI_INFO_NULL()'
p313
S'118'
p314
tp315
a(S'MPI_Win_set_name()'
p316
S'119'
p317
tp318
a(S'MPI_Win_create()'
p319
S'120'
p320
tp321
a(S'X_MPI_INFO_NULL()'
p322
S'123'
p323
tp324
a(S'MPI_Win_set_name()'
p325
S'124'
p326
tp327
a(S'MPI_Win_fence()'
p328
S'129'
p329
tp330
a(S'MPI_Win_fence()'
p331
S'130'
p332
tp333
a(S'MPI_Win_free()'
p334
S'144'
p335
tp336
a(S'MPI_Win_free()'
p337
S'145'
p338
tp339
as.