ccollections
defaultdict
p0
(c__builtin__
list
p1
tp2
Rp3
S'freeorion/FreeOrion/Xcode/dep/local/include/boost/mpi/communicator.hpp'
p4
(lp5
(S'MPI_Comm()'
p6
S'1425'
p7
tp8
a(S'MPI_Comm()'
p9
S'1448'
p10
tp11
a(S'MPI_Comm()'
p12
S'1484'
p13
tp14
a(S'MPI_Comm()'
p15
S'1507'
p16
tp17
asS'freeorion/FreeOrion/Xcode/dep/local/include/boost/mpi/timer.hpp'
p18
(lp19
(S'MPI_Wtime()'
p20
S'71'
p21
tp22
asS'freeorion/FreeOrion/Xcode/dep/local/include/boost/mpi/exception.hpp'
p23
(lp24
(S'MPI_Error_class()'
p25
S'73'
p26
tp27
asS'freeorion/FreeOrion/Xcode/dep/local/include/boost/mpi/datatype.hpp'
p28
(lp29
(S'X_MPI_LONG_DOUBLE_INT()'
p30
S'250'
p31
tp32
a(S'MPI_Type_contiguous()'
p33
S'310'
p34
tp35
a(S'MPI_Type_commit()'
p36
S'311'
p37
tp38
asS'freeorion/FreeOrion/Xcode/dep/local/include/boost/mpi/operations.hpp'
p39
(lp40
(S'MPI_Op_free()'
p41
S'293'
p42
tp43
asS'freeorion/FreeOrion/Xcode/dep/local/include/boost/graph/distributed/page_rank.hpp'
p44
(lp45
(S'MPI_Comm_rank()'
p46
S'40'
p47
tp48
a(S'MPI_Accumulate()'
p49
S'53'
p50
tp51
a(S'MPI_Win_fence()'
p52
S'60'
p53
tp54
a(S'MPI_Comm_rank()'
p55
S'90'
p56
tp57
a(S'MPI_Win_create()'
p58
S'116'
p59
tp60
a(S'X_MPI_INFO_NULL()'
p61
S'119'
p62
tp63
a(S'MPI_Win_set_name()'
p64
S'120'
p65
tp66
a(S'MPI_Win_create()'
p67
S'121'
p68
tp69
a(S'X_MPI_INFO_NULL()'
p70
S'124'
p71
tp72
a(S'MPI_Win_set_name()'
p73
S'125'
p74
tp75
a(S'MPI_Win_fence()'
p76
S'130'
p77
tp78
a(S'MPI_Win_fence()'
p79
S'131'
p80
tp81
a(S'MPI_Win_free()'
p82
S'145'
p83
tp84
a(S'MPI_Win_free()'
p85
S'146'
p86
tp87
asS'freeorion/FreeOrion/Xcode/dep/local/include/boost/graph/distributed/detail/mpi_process_group.ipp'
p88
(lp89
(S'MPI_Recv()'
p90
S'492'
p91
tp92
a(S'MPI_Get_count()'
p93
S'510'
p94
tp95
a(S'MPI_Recv()'
p96
S'516'
p97
tp98
a(S'MPI_Irecv()'
p99
S'665'
p100
tp101
a(S'X_MPI_PACKED()'
p102
S'666'
p103
tp104
a(S'MPI_Allgather()'
p105
S'837'
p106
tp107
a(S'MPI_Allgatherv()'
p108
S'856'
p109
tp110
a(S'X_MPI_BYTE()'
p111
S'859'
p112
tp113
a(S'MPI_Comm_group()'
p114
S'880'
p115
tp116
a(S'MPI_Group_incl()'
p117
S'884'
p118
tp119
a(S'MPI_Comm_create()'
p120
S'888'
p121
tp122
a(S'MPI_Group_free()'
p123
S'891'
p124
tp125
a(S'MPI_Group_free()'
p126
S'893'
p127
tp128
a(S'MPI_Comm_free()'
p129
S'898'
p130
tp131
a(S'MPI_Irecv()'
p132
S'929'
p133
tp134
a(S'MPI_Test()'
p135
S'934'
p136
tp137
a(S'MPI_Get_count()'
p138
S'967'
p139
tp140
a(S'MPI_Recv()'
p141
S'972'
p142
tp143
asS'freeorion/FreeOrion/Xcode/dep/local/include/boost/mpi/allocator.hpp'
p144
(lp145
(S'X_MPI_INFO_NULL()'
p146
S'141'
p147
tp148
asS'freeorion/FreeOrion/Xcode/dep/local/include/boost/graph/distributed/mpi_process_group.hpp'
p149
(lp150
(S'MPI_Bsend()'
p151
S'708'
p152
tp153
a(S'MPI_Isend()'
p154
S'714'
p155
tp156
a(S'MPI_Test()'
p157
S'720'
p158
tp159
a(S'MPI_Bsend()'
p160
S'744'
p161
tp162
a(S'MPI_Isend()'
p163
S'750'
p164
tp165
a(S'MPI_Test()'
p166
S'756'
p167
tp168
as.