ccollections
defaultdict
p0
(c__builtin__
list
p1
tp2
Rp3
S'EECE4542P2/EECE4542P2/GraphColoring/boost_1_57_0/libs/mpi/test/broadcast_test.cpp'
p4
(lp5
(S'MPI_Abort()'
p6
S'135'
p7
tp8
asS'EECE4542P2/EECE4542P2/GraphColoring/boost_1_57_0/boost/mpi/operations.hpp'
p9
(lp10
(S'MPI_Op_free()'
p11
S'293'
p12
tp13
asS'EECE4542P2/EECE4542P2/GraphColoring/boost_1_57_0/libs/mpi/src/point_to_point.cpp'
p14
(lp15
(S'X_MPI_PACKED()'
p16
S'38'
p17
tp18
a(S'X_MPI_PACKED()'
p19
S'55'
p20
tp21
a(S'X_MPI_PACKED()'
p22
S'75'
p23
tp24
asS'EECE4542P2/EECE4542P2/GraphColoring/boost_1_57_0/boost/mpi/exception.hpp'
p25
(lp26
(S'MPI_Error_class()'
p27
S'73'
p28
tp29
asS'EECE4542P2/EECE4542P2/GraphColoring/boost_1_57_0/libs/mpi/test/skeleton_content_test.cpp'
p30
(lp31
(S'MPI_Abort()'
p32
S'199'
p33
tp34
asS'EECE4542P2/EECE4542P2/GraphColoring/boost_1_57_0/boost/mpi/timer.hpp'
p35
(lp36
(S'MPI_Wtime()'
p37
S'71'
p38
tp39
asS'EECE4542P2/EECE4542P2/GraphColoring/boost_1_57_0/libs/mpi/src/communicator.cpp'
p40
(lp41
(S'MPI_Errhandler_set()'
p42
S'46'
p43
tp44
asS'EECE4542P2/EECE4542P2/GraphColoring/boost_1_57_0/boost/graph/distributed/detail/mpi_process_group.ipp'
p45
(lp46
(S'MPI_Recv()'
p47
S'492'
p48
tp49
a(S'MPI_Get_count()'
p50
S'510'
p51
tp52
a(S'MPI_Recv()'
p53
S'516'
p54
tp55
a(S'MPI_Irecv()'
p56
S'665'
p57
tp58
a(S'X_MPI_PACKED()'
p59
S'666'
p60
tp61
a(S'MPI_Allgather()'
p62
S'837'
p63
tp64
a(S'MPI_Allgatherv()'
p65
S'856'
p66
tp67
a(S'X_MPI_BYTE()'
p68
S'859'
p69
tp70
a(S'MPI_Comm_group()'
p71
S'880'
p72
tp73
a(S'MPI_Group_incl()'
p74
S'884'
p75
tp76
a(S'MPI_Comm_create()'
p77
S'888'
p78
tp79
a(S'MPI_Group_free()'
p80
S'891'
p81
tp82
a(S'MPI_Group_free()'
p83
S'893'
p84
tp85
a(S'MPI_Comm_free()'
p86
S'898'
p87
tp88
a(S'MPI_Irecv()'
p89
S'929'
p90
tp91
a(S'MPI_Test()'
p92
S'934'
p93
tp94
a(S'MPI_Get_count()'
p95
S'967'
p96
tp97
a(S'MPI_Recv()'
p98
S'972'
p99
tp100
asS'EECE4542P2/EECE4542P2/GraphColoring/boost_1_57_0/boost/graph/distributed/page_rank.hpp'
p101
(lp102
(S'MPI_Comm_rank()'
p103
S'40'
p104
tp105
a(S'MPI_Accumulate()'
p106
S'53'
p107
tp108
a(S'MPI_Win_fence()'
p109
S'60'
p110
tp111
a(S'MPI_Comm_rank()'
p112
S'90'
p113
tp114
a(S'MPI_Win_create()'
p115
S'115'
p116
tp117
a(S'X_MPI_INFO_NULL()'
p118
S'118'
p119
tp120
a(S'MPI_Win_set_name()'
p121
S'119'
p122
tp123
a(S'MPI_Win_create()'
p124
S'120'
p125
tp126
a(S'X_MPI_INFO_NULL()'
p127
S'123'
p128
tp129
a(S'MPI_Win_set_name()'
p130
S'124'
p131
tp132
a(S'MPI_Win_fence()'
p133
S'129'
p134
tp135
a(S'MPI_Win_fence()'
p136
S'130'
p137
tp138
a(S'MPI_Win_free()'
p139
S'144'
p140
tp141
a(S'MPI_Win_free()'
p142
S'145'
p143
tp144
asS'EECE4542P2/EECE4542P2/GraphColoring/boost_1_57_0/libs/mpi/src/request.cpp'
p145
(lp146
(S'MPI_Waitall()'
p147
S'39'
p148
tp149
a(S'MPI_Testall()'
p150
S'82'
p151
tp152
asS'EECE4542P2/EECE4542P2/GraphColoring/boost_1_57_0/libs/mpi/example/reduce_performance_test.cpp'
p153
(lp154
(S'MPI_Reduce()'
p155
S'94'
p156
tp157
asS'EECE4542P2/EECE4542P2/GraphColoring/boost_1_57_0/libs/mpi/test/ring_test.cpp'
p158
(lp159
(S'MPI_Abort()'
p160
S'95'
p161
tp162
asS'EECE4542P2/EECE4542P2/GraphColoring/boost_1_57_0/boost/mpi/communicator.hpp'
p163
(lp164
(S'MPI_Comm()'
p165
S'1428'
p166
tp167
a(S'MPI_Comm()'
p168
S'1451'
p169
tp170
a(S'MPI_Comm()'
p171
S'1487'
p172
tp173
a(S'MPI_Comm()'
p174
S'1510'
p175
tp176
asS'EECE4542P2/EECE4542P2/GraphColoring/boost_1_57_0/libs/mpi/doc/mpi.qbk'
p177
(lp178
(S'MPI_Init()'
p179
S'115'
p180
tp181
a(S'MPI_Comm_rank()'
p182
S'118'
p183
tp184
a(S'MPI_Send()'
p185
S'121'
p186
tp187
a(S'MPI_Recv()'
p188
S'126'
p189
tp190
a(S'MPI_Finalize()'
p191
S'131'
p192
tp193
asS'EECE4542P2/EECE4542P2/GraphColoring/boost_1_57_0/boost/graph/distributed/mpi_process_group.hpp'
p194
(lp195
(S'MPI_Bsend()'
p196
S'708'
p197
tp198
a(S'MPI_Isend()'
p199
S'714'
p200
tp201
a(S'MPI_Test()'
p202
S'720'
p203
tp204
a(S'MPI_Bsend()'
p205
S'744'
p206
tp207
a(S'MPI_Isend()'
p208
S'750'
p209
tp210
a(S'MPI_Test()'
p211
S'756'
p212
tp213
asS'EECE4542P2/EECE4542P2/GraphColoring/boost_1_57_0/libs/mpi/src/mpi_datatype_cache.cpp'
p214
(lp215
(S'MPI_Type_free()'
p216
S'36'
p217
tp218
asS'EECE4542P2/EECE4542P2/GraphColoring/boost_1_57_0/libs/mpi/src/exception.cpp'
p219
(lp220
(S'MPI_Error_string()'
p221
S'19'
p222
tp223
asS'EECE4542P2/EECE4542P2/GraphColoring/boost_1_57_0/libs/graph_parallel/test/distributed_betweenness_centrality_test.cpp'
p224
(lp225
(S'MPI_Abort()'
p226
S'292'
p227
tp228
asS'EECE4542P2/EECE4542P2/GraphColoring/boost_1_57_0/libs/mpi/src/environment.cpp'
p229
(lp230
(S'MPI_Errhandler_set()'
p231
S'74'
p232
tp233
a(S'MPI_Errhandler_set()'
p234
S'89'
p235
tp236
a(S'MPI_Errhandler_set()'
p237
S'102'
p238
tp239
a(S'MPI_Errhandler_set()'
p240
S'118'
p241
tp242
asS'EECE4542P2/EECE4542P2/GraphColoring/boost_1_57_0/libs/graph_parallel/src/mpi_process_group.cpp'
p243
(lp244
(S'MPI_Cancel()'
p245
S'141'
p246
tp247
a(S'MPI_Isend()'
p248
S'560'
p249
tp250
a(S'X_MPI_PACKED()'
p251
S'561'
p252
tp253
a(S'MPI_Test()'
p254
S'569'
p255
tp256
a(S'MPI_Get_count()'
p257
S'731'
p258
tp259
a(S'MPI_Recv()'
p260
S'738'
p261
tp262
a(S'MPI_Isend()'
p263
S'822'
p264
tp265
a(S'MPI_Test()'
p266
S'826'
p267
tp268
a(S'MPI_Testsome()'
p269
S'929'
p270
tp271
a(S'MPI_Test()'
p272
S'1036'
p273
tp274
a(S'MPI_Test()'
p275
S'1047'
p276
tp277
a(S'MPI_Buffer_detach()'
p278
S'1094'
p279
tp280
a(S'MPI_Buffer_detach()'
p281
S'1099'
p282
tp283
a(S'MPI_Buffer_attach()'
p284
S'1102'
p285
tp286
a(S'MPI_Buffer_attach()'
p287
S'1104'
p288
tp289
asS'EECE4542P2/EECE4542P2/GraphColoring/boost_1_57_0/boost/mpi/datatype.hpp'
p290
(lp291
(S'X_MPI_LONG_DOUBLE_INT()'
p292
S'250'
p293
tp294
a(S'MPI_Type_contiguous()'
p295
S'310'
p296
tp297
a(S'MPI_Type_commit()'
p298
S'311'
p299
tp300
asS'EECE4542P2/EECE4542P2/GraphColoring/boost_1_57_0/boost/mpi/allocator.hpp'
p301
(lp302
(S'X_MPI_INFO_NULL()'
p303
S'141'
p304
tp305
as.