ccollections
defaultdict
p0
(c__builtin__
list
p1
tp2
Rp3
S'LTSmin/src/hre-mpi/hre_mpi.c'
p4
(lp5
(S'MPI_Get_count()'
p6
S'77'
p7
tp8
a(S'MPI_Get_count()'
p9
S'89'
p10
tp11
a(S'MPI_Abort()'
p12
S'192'
p13
tp14
a(S'MPI_Finalize()'
p15
S'199'
p16
tp17
a(S'MPI_Comm_dup()'
p18
S'248'
p19
tp20
a(S'MPI_Comm_dup()'
p21
S'263'
p22
tp23
a(S'MPI_Comm_size()'
p24
S'270'
p25
tp26
a(S'MPI_Comm_rank()'
p27
S'271'
p28
tp29
a(S'MPI_Get_processor_name()'
p30
S'275'
p31
tp32
a(S'MPI_Bcast()'
p33
S'277'
p34
tp35
a(S'MPI_Allreduce()'
p36
S'280'
p37
tp38
a(S'MPI_Comm_rank()'
p39
S'295'
p40
tp41
a(S'MPI_Comm_size()'
p42
S'296'
p43
tp44
a(S'MPI_Allgather()'
p45
S'301'
p46
tp47
a(S'MPI_Comm_dup()'
p48
S'309'
p49
tp50
a(S'MPI_Barrier()'
p51
S'360'
p52
tp53
a(S'MPI_Comm_size()'
p54
S'370'
p55
tp56
a(S'MPI_Comm_rank()'
p57
S'371'
p58
tp59
a(S'MPI_Barrier()'
p60
S'389'
p61
tp62
a(S'MPI_Init_thread()'
p63
S'411'
p64
tp65
a(S'MPI_Init()'
p66
S'425'
p67
tp68
a(S'MPI_Errhandler_set()'
p69
S'427'
p70
tp71
asS'LTSmin/src/ce/Ddlts.c'
p72
(lp73
(S'MPI_Barrier()'
p74
S'159'
p75
tp76
a(S'MPI_Sendrecv()'
p77
S'166'
p78
tp79
a(S'MPI_Sendrecv()'
p80
S'171'
p81
tp82
a(S'MPI_Sendrecv()'
p83
S'176'
p84
tp85
a(S'MPI_Barrier()'
p86
S'181'
p87
tp88
a(S'MPI_Sendrecv()'
p89
S'189'
p90
tp91
a(S'MPI_Sendrecv()'
p92
S'194'
p93
tp94
a(S'MPI_Sendrecv()'
p95
S'199'
p96
tp97
a(S'MPI_Barrier()'
p98
S'204'
p99
tp100
asS'LTSmin/src/ce/Dtaudlts.c'
p101
(lp102
(S'MPI_Comm_rank()'
p103
S'115'
p104
tp105
a(S'MPI_Comm_rank()'
p106
S'155'
p107
tp108
a(S'MPI_Comm_size()'
p109
S'251'
p110
tp111
a(S'MPI_Comm_rank()'
p112
S'252'
p113
tp114
a(S'MPI_Allreduce()'
p115
S'270'
p116
tp117
a(S'MPI_Allreduce()'
p118
S'314'
p119
tp120
a(S'MPI_Allreduce()'
p121
S'315'
p122
tp123
a(S'MPI_Allreduce()'
p124
S'316'
p125
tp126
a(S'MPI_Barrier()'
p127
S'349'
p128
tp129
a(S'MPI_Comm_size()'
p130
S'350'
p131
tp132
a(S'MPI_Comm_rank()'
p133
S'351'
p134
tp135
a(S'MPI_Barrier()'
p136
S'389'
p137
tp138
a(S'MPI_Comm_rank()'
p139
S'443'
p140
tp141
a(S'MPI_Comm_size()'
p142
S'444'
p143
tp144
a(S'MPI_Allgather()'
p145
S'454'
p146
tp147
a(S'MPI_Comm_size()'
p148
S'540'
p149
tp150
a(S'MPI_Comm_rank()'
p151
S'541'
p152
tp153
a(S'MPI_Alltoall()'
p154
S'576'
p155
tp156
a(S'MPI_Isend()'
p157
S'634'
p158
tp159
a(S'MPI_Irecv()'
p160
S'641'
p161
tp162
a(S'MPI_Waitall()'
p163
S'649'
p164
tp165
a(S'MPI_Comm_size()'
p166
S'729'
p167
tp168
a(S'MPI_Comm_rank()'
p169
S'730'
p170
tp171
a(S'MPI_Alltoall()'
p172
S'771'
p173
tp174
a(S'MPI_Isend()'
p175
S'801'
p176
tp177
a(S'MPI_Irecv()'
p178
S'808'
p179
tp180
a(S'MPI_Waitall()'
p181
S'816'
p182
tp183
a(S'MPI_Allreduce()'
p184
S'857'
p185
tp186
a(S'MPI_Alltoall()'
p187
S'863'
p188
tp189
a(S'MPI_Isend()'
p190
S'911'
p191
tp192
a(S'MPI_Irecv()'
p193
S'918'
p194
tp195
a(S'MPI_Waitall()'
p196
S'926'
p197
tp198
a(S'MPI_Reduce()'
p199
S'982'
p200
tp201
a(S'MPI_Reduce()'
p202
S'983'
p203
tp204
a(S'MPI_Comm_size()'
p205
S'1015'
p206
tp207
a(S'MPI_Comm_rank()'
p208
S'1016'
p209
tp210
a(S'MPI_Reduce()'
p211
S'1036'
p212
tp213
a(S'MPI_Reduce()'
p214
S'1063'
p215
tp216
a(S'MPI_Reduce()'
p217
S'1065'
p218
tp219
a(S'MPI_Reduce()'
p220
S'1067'
p221
tp222
a(S'MPI_Reduce()'
p223
S'1069'
p224
tp225
a(S'MPI_Reduce()'
p226
S'1071'
p227
tp228
a(S'MPI_Reduce()'
p229
S'1073'
p230
tp231
a(S'MPI_Reduce()'
p232
S'1075'
p233
tp234
a(S'MPI_Reduce()'
p235
S'1077'
p236
tp237
a(S'MPI_Reduce()'
p238
S'1083'
p239
tp240
a(S'MPI_Comm_size()'
p241
S'1119'
p242
tp243
a(S'MPI_Comm_rank()'
p244
S'1120'
p245
tp246
a(S'MPI_Alltoall()'
p247
S'1145'
p248
tp249
a(S'MPI_Isend()'
p250
S'1173'
p251
tp252
a(S'MPI_Irecv()'
p253
S'1180'
p254
tp255
a(S'MPI_Waitall()'
p256
S'1188'
p257
tp258
a(S'MPI_Allreduce()'
p259
S'1221'
p260
tp261
a(S'MPI_Alltoall()'
p262
S'1227'
p263
tp264
a(S'MPI_Isend()'
p265
S'1270'
p266
tp267
a(S'MPI_Irecv()'
p268
S'1277'
p269
tp270
a(S'MPI_Waitall()'
p271
S'1285'
p272
tp273
a(S'MPI_Reduce()'
p274
S'1323'
p275
tp276
a(S'MPI_Reduce()'
p277
S'1324'
p278
tp279
a(S'MPI_Comm_rank()'
p280
S'1417'
p281
tp282
a(S'MPI_Comm_rank()'
p283
S'1533'
p284
tp285
a(S'MPI_Reduce()'
p286
S'1564'
p287
tp288
a(S'MPI_Reduce()'
p289
S'1565'
p290
tp291
a(S'MPI_Reduce()'
p292
S'1566'
p293
tp294
a(S'MPI_Irecv()'
p295
S'1607'
p296
tp297
a(S'X_MPI_INT()'
p298
S'1608'
p299
tp300
a(S'MPI_Waitall()'
p301
S'1612'
p302
tp303
a(S'MPI_Send()'
p304
S'1615'
p305
tp306
a(S'MPI_Isend()'
p307
S'1645'
p308
tp309
a(S'X_MPI_INT()'
p310
S'1646'
p311
tp312
a(S'MPI_Waitall()'
p313
S'1649'
p314
tp315
a(S'MPI_Recv()'
p316
S'1652'
p317
tp318
a(S'MPI_Isend()'
p319
S'1674'
p320
tp321
a(S'MPI_Irecv()'
p322
S'1681'
p323
tp324
a(S'MPI_Waitall()'
p325
S'1687'
p326
tp327
a(S'MPI_Isend()'
p328
S'1720'
p329
tp330
a(S'MPI_Irecv()'
p331
S'1728'
p332
tp333
a(S'MPI_Waitall()'
p334
S'1732'
p335
tp336
a(S'MPI_Comm_size()'
p337
S'1772'
p338
tp339
a(S'MPI_Comm_rank()'
p340
S'1773'
p341
tp342
a(S'MPI_Recv()'
p343
S'1793'
p344
tp345
a(S'MPI_Recv()'
p346
S'1794'
p347
tp348
a(S'MPI_Send()'
p349
S'1801'
p350
tp351
a(S'MPI_Send()'
p352
S'1802'
p353
tp354
a(S'MPI_Send()'
p355
S'1810'
p356
tp357
a(S'MPI_Barrier()'
p358
S'1816'
p359
tp360
a(S'MPI_Recv()'
p361
S'1852'
p362
tp363
a(S'MPI_Send()'
p364
S'1856'
p365
tp366
a(S'MPI_Comm_size()'
p367
S'1971'
p368
tp369
a(S'MPI_Comm_rank()'
p370
S'1972'
p371
tp372
a(S'MPI_Comm_size()'
p373
S'2115'
p374
tp375
a(S'MPI_Comm_rank()'
p376
S'2116'
p377
tp378
a(S'MPI_Comm_size()'
p379
S'2243'
p380
tp381
a(S'MPI_Comm_rank()'
p382
S'2244'
p383
tp384
a(S'MPI_Comm_size()'
p385
S'2381'
p386
tp387
a(S'MPI_Comm_rank()'
p388
S'2382'
p389
tp390
a(S'MPI_Comm_size()'
p391
S'2453'
p392
tp393
a(S'MPI_Barrier()'
p394
S'2466'
p395
tp396
a(S'MPI_Comm_rank()'
p397
S'2467'
p398
tp399
a(S'MPI_Barrier()'
p400
S'2470'
p401
tp402
a(S'MPI_Barrier()'
p403
S'2472'
p404
tp405
a(S'MPI_Comm_size()'
p406
S'2504'
p407
tp408
a(S'MPI_Comm_rank()'
p409
S'2505'
p410
tp411
a(S'MPI_Comm_size()'
p412
S'2572'
p413
tp414
a(S'MPI_Comm_rank()'
p415
S'2573'
p416
tp417
a(S'MPI_Barrier()'
p418
S'2579'
p419
tp420
a(S'MPI_Gather()'
p421
S'2586'
p422
tp423
a(S'MPI_Comm_size()'
p424
S'2724'
p425
tp426
a(S'MPI_Comm_rank()'
p427
S'2725'
p428
tp429
a(S'MPI_Allreduce()'
p430
S'2765'
p431
tp432
a(S'MPI_Allreduce()'
p433
S'2852'
p434
tp435
a(S'MPI_Barrier()'
p436
S'2856'
p437
tp438
a(S'MPI_Comm_rank()'
p439
S'2884'
p440
tp441
a(S'MPI_Comm_rank()'
p442
S'3014'
p443
tp444
a(S'MPI_Comm_size()'
p445
S'3022'
p446
tp447
a(S'MPI_Gather()'
p448
S'3026'
p449
tp450
a(S'MPI_Scatter()'
p451
S'3032'
p452
tp453
a(S'MPI_Gatherv()'
p454
S'3064'
p455
tp456
a(S'MPI_Scatterv()'
p457
S'3082'
p458
tp459
a(S'MPI_Scatterv()'
p460
S'3088'
p461
tp462
a(S'MPI_Comm_size()'
p463
S'3164'
p464
tp465
a(S'MPI_Comm_size()'
p466
S'3199'
p467
tp468
a(S'MPI_Comm_rank()'
p469
S'3200'
p470
tp471
a(S'MPI_Alltoall()'
p472
S'3233'
p473
tp474
a(S'MPI_Isend()'
p475
S'3242'
p476
tp477
a(S'MPI_Irecv()'
p478
S'3249'
p479
tp480
a(S'MPI_Waitall()'
p481
S'3257'
p482
tp483
a(S'MPI_Isend()'
p484
S'3263'
p485
tp486
a(S'MPI_Irecv()'
p487
S'3270'
p488
tp489
a(S'MPI_Waitall()'
p490
S'3278'
p491
tp492
a(S'MPI_Isend()'
p493
S'3287'
p494
tp495
a(S'MPI_Irecv()'
p496
S'3294'
p497
tp498
a(S'MPI_Waitall()'
p499
S'3302'
p500
tp501
a(S'MPI_Alltoall()'
p502
S'3319'
p503
tp504
a(S'MPI_Isend()'
p505
S'3331'
p506
tp507
a(S'MPI_Irecv()'
p508
S'3335'
p509
tp510
a(S'MPI_Waitall()'
p511
S'3340'
p512
tp513
a(S'MPI_Isend()'
p514
S'3348'
p515
tp516
a(S'MPI_Irecv()'
p517
S'3352'
p518
tp519
a(S'MPI_Waitall()'
p520
S'3357'
p521
tp522
a(S'MPI_Isend()'
p523
S'3365'
p524
tp525
a(S'MPI_Irecv()'
p526
S'3369'
p527
tp528
a(S'MPI_Waitall()'
p529
S'3374'
p530
tp531
a(S'MPI_Comm_size()'
p532
S'3445'
p533
tp534
a(S'MPI_Comm_rank()'
p535
S'3446'
p536
tp537
a(S'MPI_Alltoall()'
p538
S'3501'
p539
tp540
a(S'MPI_Isend()'
p541
S'3516'
p542
tp543
a(S'MPI_Irecv()'
p544
S'3519'
p545
tp546
a(S'MPI_Waitall()'
p547
S'3523'
p548
tp549
a(S'MPI_Isend()'
p550
S'3531'
p551
tp552
a(S'MPI_Irecv()'
p553
S'3534'
p554
tp555
a(S'MPI_Waitall()'
p556
S'3538'
p557
tp558
a(S'MPI_Isend()'
p559
S'3545'
p560
tp561
a(S'MPI_Irecv()'
p562
S'3548'
p563
tp564
a(S'MPI_Waitall()'
p565
S'3552'
p566
tp567
a(S'MPI_Isend()'
p568
S'3560'
p569
tp570
a(S'MPI_Irecv()'
p571
S'3563'
p572
tp573
a(S'MPI_Waitall()'
p574
S'3567'
p575
tp576
a(S'MPI_Alltoall()'
p577
S'3584'
p578
tp579
a(S'MPI_Isend()'
p580
S'3600'
p581
tp582
a(S'MPI_Irecv()'
p583
S'3604'
p584
tp585
a(S'MPI_Waitall()'
p586
S'3609'
p587
tp588
a(S'MPI_Barrier()'
p589
S'3624'
p590
tp591
a(S'MPI_Isend()'
p592
S'3627'
p593
tp594
a(S'MPI_Irecv()'
p595
S'3631'
p596
tp597
a(S'MPI_Waitall()'
p598
S'3636'
p599
tp600
a(S'MPI_Isend()'
p601
S'3647'
p602
tp603
a(S'MPI_Irecv()'
p604
S'3651'
p605
tp606
a(S'MPI_Waitall()'
p607
S'3656'
p608
tp609
a(S'MPI_Comm_size()'
p610
S'3716'
p611
tp612
a(S'MPI_Comm_rank()'
p613
S'3717'
p614
tp615
a(S'MPI_Allreduce()'
p616
S'3786'
p617
tp618
a(S'MPI_Comm_size()'
p619
S'3816'
p620
tp621
a(S'MPI_Comm_rank()'
p622
S'3817'
p623
tp624
a(S'MPI_Alltoall()'
p625
S'3860'
p626
tp627
a(S'MPI_Isend()'
p628
S'3875'
p629
tp630
a(S'MPI_Irecv()'
p631
S'3878'
p632
tp633
a(S'MPI_Waitall()'
p634
S'3882'
p635
tp636
a(S'MPI_Waitall()'
p637
S'3909'
p638
tp639
a(S'MPI_Allreduce()'
p640
S'3927'
p641
tp642
a(S'MPI_Alltoall()'
p643
S'3928'
p644
tp645
a(S'MPI_Isend()'
p646
S'3931'
p647
tp648
a(S'MPI_Irecv()'
p649
S'3933'
p650
tp651
a(S'MPI_Wait()'
p652
S'3935'
p653
tp654
a(S'MPI_Wait()'
p655
S'3936'
p656
tp657
a(S'MPI_Reduce()'
p658
S'3964'
p659
tp660
a(S'MPI_Comm_size()'
p661
S'3988'
p662
tp663
a(S'MPI_Comm_rank()'
p664
S'3989'
p665
tp666
a(S'MPI_Comm_size()'
p667
S'4018'
p668
tp669
a(S'MPI_Comm_rank()'
p670
S'4019'
p671
tp672
a(S'MPI_Alltoall()'
p673
S'4023'
p674
tp675
a(S'MPI_Isend()'
p676
S'4035'
p677
tp678
a(S'MPI_Irecv()'
p679
S'4037'
p680
tp681
a(S'MPI_Wait()'
p682
S'4039'
p683
tp684
a(S'MPI_Wait()'
p685
S'4040'
p686
tp687
a(S'MPI_Isend()'
p688
S'4045'
p689
tp690
a(S'MPI_Irecv()'
p691
S'4047'
p692
tp693
a(S'MPI_Wait()'
p694
S'4049'
p695
tp696
a(S'MPI_Wait()'
p697
S'4050'
p698
tp699
a(S'MPI_Allreduce()'
p700
S'4058'
p701
tp702
a(S'MPI_Comm_rank()'
p703
S'4074'
p704
tp705
a(S'MPI_Reduce()'
p706
S'4075'
p707
tp708
a(S'MPI_Reduce()'
p709
S'4076'
p710
tp711
a(S'MPI_Reduce()'
p712
S'4077'
p713
tp714
a(S'MPI_Reduce()'
p715
S'4078'
p716
tp717
a(S'MPI_Reduce()'
p718
S'4079'
p719
tp720
a(S'MPI_Reduce()'
p721
S'4080'
p722
tp723
a(S'MPI_Reduce()'
p724
S'4081'
p725
tp726
a(S'MPI_Reduce()'
p727
S'4085'
p728
tp729
asS'LTSmin/src/ce/groups.c'
p730
(lp731
(S'MPI_Barrier()'
p732
S'29'
p733
tp734
a(S'MPI_Barrier()'
p735
S'37'
p736
tp737
a(S'MPI_Barrier()'
p738
S'51'
p739
tp740
a(S'MPI_Barrier()'
p741
S'66'
p742
tp743
a(S'MPI_Barrier()'
p744
S'71'
p745
tp746
a(S'MPI_Barrier()'
p747
S'89'
p748
tp749
a(S'MPI_Barrier()'
p750
S'99'
p751
tp752
a(S'MPI_Alltoall()'
p753
S'104'
p754
tp755
a(S'MPI_Allreduce()'
p756
S'107'
p757
tp758
a(S'MPI_Barrier()'
p759
S'122'
p760
tp761
a(S'MPI_Comm_size()'
p762
S'154'
p763
tp764
a(S'MPI_Comm_rank()'
p765
S'155'
p766
tp767
a(S'MPI_Allreduce()'
p768
S'173'
p769
tp770
a(S'MPI_Allreduce()'
p771
S'183'
p772
tp773
asS'LTSmin/src/ce/paint.c'
p774
(lp775
(S'MPI_Comm_size()'
p776
S'45'
p777
tp778
a(S'MPI_Comm_rank()'
p779
S'46'
p780
tp781
a(S'MPI_Alltoall()'
p782
S'65'
p783
tp784
a(S'MPI_Alltoallv()'
p785
S'70'
p786
tp787
a(S'MPI_Comm_size()'
p788
S'88'
p789
tp790
a(S'MPI_Comm_rank()'
p791
S'89'
p792
tp793
a(S'MPI_Alltoallv()'
p794
S'102'
p795
tp796
a(S'MPI_Comm_size()'
p797
S'147'
p798
tp799
a(S'MPI_Comm_rank()'
p800
S'148'
p801
tp802
a(S'MPI_Isend()'
p803
S'211'
p804
tp805
a(S'MPI_Irecv()'
p806
S'214'
p807
tp808
a(S'MPI_Wait()'
p809
S'216'
p810
tp811
a(S'MPI_Wait()'
p812
S'217'
p813
tp814
a(S'MPI_Allreduce()'
p815
S'228'
p816
tp817
a(S'MPI_Comm_rank()'
p818
S'254'
p819
tp820
a(S'MPI_Comm_size()'
p821
S'280'
p822
tp823
a(S'MPI_Comm_rank()'
p824
S'281'
p825
tp826
a(S'MPI_Barrier()'
p827
S'302'
p828
tp829
a(S'MPI_Barrier()'
p830
S'342'
p831
tp832
a(S'MPI_Reduce()'
p833
S'344'
p834
tp835
a(S'MPI_Barrier()'
p836
S'349'
p837
tp838
a(S'MPI_Allreduce()'
p839
S'362'
p840
tp841
a(S'MPI_Alltoall()'
p842
S'363'
p843
tp844
a(S'MPI_Barrier()'
p845
S'367'
p846
tp847
a(S'MPI_Isend()'
p848
S'369'
p849
tp850
a(S'MPI_Irecv()'
p851
S'371'
p852
tp853
a(S'MPI_Wait()'
p854
S'373'
p855
tp856
a(S'MPI_Wait()'
p857
S'374'
p858
tp859
a(S'MPI_Barrier()'
p860
S'400'
p861
tp862
a(S'MPI_Comm_size()'
p863
S'439'
p864
tp865
a(S'MPI_Comm_rank()'
p866
S'440'
p867
tp868
a(S'MPI_Alltoall()'
p869
S'463'
p870
tp871
a(S'MPI_Isend()'
p872
S'489'
p873
tp874
a(S'MPI_Irecv()'
p875
S'492'
p876
tp877
a(S'MPI_Wait()'
p878
S'494'
p879
tp880
a(S'MPI_Wait()'
p881
S'495'
p882
tp883
a(S'MPI_Isend()'
p884
S'500'
p885
tp886
a(S'MPI_Irecv()'
p887
S'503'
p888
tp889
a(S'MPI_Wait()'
p890
S'505'
p891
tp892
a(S'MPI_Wait()'
p893
S'506'
p894
tp895
a(S'MPI_Reduce()'
p896
S'516'
p897
tp898
a(S'MPI_Reduce()'
p899
S'576'
p900
tp901
a(S'MPI_Comm_size()'
p902
S'593'
p903
tp904
a(S'MPI_Comm_rank()'
p905
S'594'
p906
tp907
a(S'MPI_Comm_rank()'
p908
S'655'
p909
tp910
a(S'MPI_Allreduce()'
p911
S'695'
p912
tp913
asS'LTSmin/src/ce/bufs.c'
p914
(lp915
(S'MPI_Ssend()'
p916
S'39'
p917
tp918
a(S'X_MPI_INT()'
p919
S'40'
p920
tp921
a(S'MPI_Send()'
p922
S'42'
p923
tp924
a(S'X_MPI_INT()'
p925
S'43'
p926
tp927
a(S'MPI_Isend()'
p928
S'62'
p929
tp930
a(S'X_MPI_INT()'
p931
S'63'
p932
tp933
a(S'MPI_Get_count()'
p934
S'80'
p935
tp936
a(S'MPI_Recv()'
p937
S'84'
p938
tp939
a(S'X_MPI_INT()'
p940
S'85'
p941
tp942
a(S'MPI_Iprobe()'
p943
S'108'
p944
tp945
a(S'MPI_Iprobe()'
p946
S'110'
p947
tp948
a(S'MPI_Iprobe()'
p949
S'115'
p950
tp951
a(S'MPI_Iprobe()'
p952
S'117'
p953
tp954
a(S'MPI_Iprobe()'
p955
S'119'
p956
tp957
a(S'MPI_Probe()'
p958
S'123'
p959
tp960
a(S'MPI_Get_count()'
p961
S'132'
p962
tp963
a(S'MPI_Recv()'
p964
S'142'
p965
tp966
a(S'X_MPI_INT()'
p967
S'143'
p968
tp969
a(S'MPI_Send()'
p970
S'164'
p971
tp972
a(S'MPI_Probe()'
p973
S'175'
p974
tp975
a(S'MPI_Recv()'
p976
S'177'
p977
tp978
a(S'MPI_Send()'
p979
S'286'
p980
tp981
a(S'MPI_Send()'
p982
S'289'
p983
tp984
a(S'X_MPI_INT()'
p985
S'290'
p986
tp987
asS'LTSmin/src/ltsmin-reduce-dist/ltsmin-reduce-dist.c'
p988
(lp989
(S'MPI_Comm_size()'
p990
S'54'
p991
tp992
a(S'MPI_Comm_rank()'
p993
S'55'
p994
tp995
asS'LTSmin/src/ltsmin-reduce-dist/sigmin-array.c'
p996
(lp997
(S'MPI_Allreduce()'
p998
S'138'
p999
tp1000
asS'LTSmin/src/ltsmin-reduce-dist/sigmin-set.c'
p1001
(lp1002
(S'MPI_Allreduce()'
p1003
S'108'
p1004
tp1005
a(S'MPI_Barrier()'
p1006
S'141'
p1007
tp1008
a(S'MPI_Isend()'
p1009
S'153'
p1010
tp1011
a(S'MPI_Irecv()'
p1012
S'154'
p1013
tp1014
a(S'MPI_Waitall()'
p1015
S'156'
p1016
tp1017
a(S'MPI_Barrier()'
p1018
S'157'
p1019
tp1020
a(S'MPI_Get_count()'
p1021
S'178'
p1022
tp1023
a(S'X_MPI_ANY_SOURCE()'
p1024
S'190'
p1025
tp1026
a(S'X_MPI_ANY_SOURCE()'
p1027
S'203'
p1028
tp1029
a(S'X_MPI_INT()'
p1030
S'239'
p1031
tp1032
a(S'MPI_Get_count()'
p1033
S'270'
p1034
tp1035
a(S'X_MPI_ANY_SOURCE()'
p1036
S'289'
p1037
tp1038
a(S'X_MPI_ANY_SOURCE()'
p1039
S'304'
p1040
tp1041
a(S'X_MPI_INT()'
p1042
S'318'
p1043
tp1044
a(S'X_MPI_INT()'
p1045
S'328'
p1046
tp1047
a(S'X_MPI_INT()'
p1048
S'344'
p1049
tp1050
a(S'MPI_Get_count()'
p1051
S'370'
p1052
tp1053
a(S'X_MPI_ANY_SOURCE()'
p1054
S'377'
p1055
tp1056
a(S'X_MPI_ANY_SOURCE()'
p1057
S'390'
p1058
tp1059
a(S'X_MPI_INT()'
p1060
S'456'
p1061
tp1062
a(S'X_MPI_INT()'
p1063
S'461'
p1064
tp1065
a(S'MPI_Get_count()'
p1066
S'497'
p1067
tp1068
a(S'X_MPI_ANY_SOURCE()'
p1069
S'513'
p1070
tp1071
a(S'MPI_Get_count()'
p1072
S'519'
p1073
tp1074
a(S'X_MPI_ANY_SOURCE()'
p1075
S'526'
p1076
tp1077
a(S'X_MPI_ANY_SOURCE()'
p1078
S'546'
p1079
tp1080
a(S'X_MPI_ANY_SOURCE()'
p1081
S'549'
p1082
tp1083
a(S'X_MPI_INT()'
p1084
S'602'
p1085
tp1086
a(S'MPI_Get_count()'
p1087
S'617'
p1088
tp1089
a(S'X_MPI_ANY_SOURCE()'
p1090
S'629'
p1091
tp1092
a(S'X_MPI_ANY_SOURCE()'
p1093
S'646'
p1094
tp1095
a(S'MPI_Comm_size()'
p1096
S'665'
p1097
tp1098
a(S'MPI_Comm_rank()'
p1099
S'666'
p1100
tp1101
a(S'MPI_Allreduce()'
p1102
S'738'
p1103
tp1104
a(S'MPI_Allreduce()'
p1105
S'753'
p1106
tp1107
a(S'MPI_Comm_size()'
p1108
S'771'
p1109
tp1110
a(S'MPI_Comm_rank()'
p1111
S'772'
p1112
tp1113
a(S'MPI_Allreduce()'
p1114
S'806'
p1115
tp1116
a(S'MPI_Get_count()'
p1117
S'836'
p1118
tp1119
a(S'X_MPI_ANY_SOURCE()'
p1120
S'842'
p1121
tp1122
a(S'X_MPI_ANY_SOURCE()'
p1123
S'855'
p1124
tp1125
a(S'MPI_Allreduce()'
p1126
S'947'
p1127
tp1128
a(S'MPI_Comm_size()'
p1129
S'977'
p1130
tp1131
a(S'MPI_Comm_rank()'
p1132
S'978'
p1133
tp1134
a(S'MPI_Barrier()'
p1135
S'1007'
p1136
tp1137
a(S'MPI_Barrier()'
p1138
S'1009'
p1139
tp1140
a(S'MPI_Barrier()'
p1141
S'1014'
p1142
tp1143
a(S'MPI_Barrier()'
p1144
S'1031'
p1145
tp1146
a(S'MPI_Allreduce()'
p1147
S'1044'
p1148
tp1149
a(S'MPI_Comm_size()'
p1150
S'1068'
p1151
tp1152
a(S'MPI_Comm_rank()'
p1153
S'1069'
p1154
tp1155
a(S'MPI_Barrier()'
p1156
S'1098'
p1157
tp1158
a(S'MPI_Barrier()'
p1159
S'1100'
p1160
tp1161
a(S'MPI_Barrier()'
p1162
S'1105'
p1163
tp1164
a(S'MPI_Barrier()'
p1165
S'1158'
p1166
tp1167
a(S'MPI_Allreduce()'
p1168
S'1160'
p1169
tp1170
asS'LTSmin/src/hre-mpi/mpi_event_loop.c'
p1171
(lp1172
(S'MPI_Cancel()'
p1173
S'56'
p1174
tp1175
a(S'MPI_Waitany()'
p1176
S'80'
p1177
tp1178
a(S'MPI_Testany()'
p1179
S'91'
p1180
tp1181
a(S'MPI_Waitany()'
p1182
S'149'
p1183
tp1184
a(S'MPI_Isend()'
p1185
S'207'
p1186
tp1187
a(S'MPI_Issend()'
p1188
S'216'
p1189
tp1190
a(S'MPI_Isend()'
p1191
S'224'
p1192
tp1193
a(S'MPI_Issend()'
p1194
S'234'
p1195
tp1196
a(S'MPI_Irecv()'
p1197
S'244'
p1198
tp1199
a(S'MPI_Irecv()'
p1200
S'252'
p1201
tp1202
a(S'MPI_Comm_size()'
p1203
S'293'
p1204
tp1205
a(S'MPI_Comm_rank()'
p1206
S'294'
p1207
tp1208
a(S'X_MPI_INT()'
p1209
S'387'
p1210
tp1211
a(S'MPI_Comm_size()'
p1212
S'396'
p1213
tp1214
a(S'MPI_Comm_rank()'
p1215
S'397'
p1216
tp1217
a(S'X_MPI_INT()'
p1218
S'411'
p1219
tp1220
as.