ccollections
defaultdict
p0
(c__builtin__
list
p1
tp2
Rp3
S'Control-and-Trajectory-Tracking/project/pid_controller/libcarla-install/include/system/boost/mpi/datatype.hpp'
p4
(lp5
(S'X_MPI_LONG_DOUBLE_INT()'
p6
S'254'
p7
tp8
a(S'MPI_Type_contiguous()'
p9
S'323'
p10
tp11
a(S'MPI_Type_commit()'
p12
S'324'
p13
tp14
asS'Control-and-Trajectory-Tracking/project/pid_controller/libcarla-install/include/system/boost/mpi/operations.hpp'
p15
(lp16
(S'MPI_Op_free()'
p17
S'310'
p18
tp19
asS'Control-and-Trajectory-Tracking/project/pid_controller/libcarla-install/include/system/boost/mpi/exception.hpp'
p20
(lp21
(S'MPI_Error_class()'
p22
S'74'
p23
tp24
asS'Control-and-Trajectory-Tracking/project/pid_controller/libcarla-install/include/system/boost/mpi/allocator.hpp'
p25
(lp26
(S'X_MPI_INFO_NULL()'
p27
S'141'
p28
tp29
asS'Control-and-Trajectory-Tracking/project/pid_controller/libcarla-install/include/system/boost/graph/distributed/mpi_process_group.hpp'
p30
(lp31
(S'MPI_Bsend()'
p32
S'709'
p33
tp34
a(S'MPI_Isend()'
p35
S'715'
p36
tp37
a(S'MPI_Test()'
p38
S'721'
p39
tp40
a(S'MPI_Bsend()'
p41
S'745'
p42
tp43
a(S'MPI_Isend()'
p44
S'751'
p45
tp46
a(S'MPI_Test()'
p47
S'757'
p48
tp49
asS'Control-and-Trajectory-Tracking/project/pid_controller/libcarla-install/include/system/boost/graph/distributed/page_rank.hpp'
p50
(lp51
(S'MPI_Comm_rank()'
p52
S'40'
p53
tp54
a(S'MPI_Accumulate()'
p55
S'53'
p56
tp57
a(S'MPI_Win_fence()'
p58
S'60'
p59
tp60
a(S'MPI_Comm_rank()'
p61
S'90'
p62
tp63
a(S'MPI_Win_create()'
p64
S'115'
p65
tp66
a(S'X_MPI_INFO_NULL()'
p67
S'118'
p68
tp69
a(S'MPI_Win_set_name()'
p70
S'119'
p71
tp72
a(S'MPI_Win_create()'
p73
S'120'
p74
tp75
a(S'X_MPI_INFO_NULL()'
p76
S'123'
p77
tp78
a(S'MPI_Win_set_name()'
p79
S'124'
p80
tp81
a(S'MPI_Win_fence()'
p82
S'129'
p83
tp84
a(S'MPI_Win_fence()'
p85
S'130'
p86
tp87
a(S'MPI_Win_free()'
p88
S'144'
p89
tp90
a(S'MPI_Win_free()'
p91
S'145'
p92
tp93
asS'Control-and-Trajectory-Tracking/project/pid_controller/libcarla-install/include/system/boost/mpi/detail/request_handlers.hpp'
p94
(lp95
(S'MPI_Comm()'
p96
S'324'
p97
tp98
a(S'MPI_Comm()'
p99
S'349'
p100
tp101
a(S'MPI_Comm()'
p102
S'392'
p103
tp104
a(S'MPI_Comm()'
p105
S'417'
p106
tp107
a(S'MPI_Comm()'
p108
S'461'
p109
tp110
a(S'MPI_Comm()'
p111
S'483'
p112
tp113
asS'Control-and-Trajectory-Tracking/project/pid_controller/libcarla-install/include/system/boost/mpi/collectives/all_gather.hpp'
p114
(lp115
(S'MPI_Comm()'
p116
S'62'
p117
tp118
a(S'MPI_Comm()'
p119
S'73'
p120
tp121
asS'Control-and-Trajectory-Tracking/project/pid_controller/libcarla-install/include/system/boost/graph/distributed/detail/mpi_process_group.ipp'
p122
(lp123
(S'MPI_Recv()'
p124
S'493'
p125
tp126
a(S'MPI_Get_count()'
p127
S'511'
p128
tp129
a(S'MPI_Recv()'
p130
S'517'
p131
tp132
a(S'MPI_Irecv()'
p133
S'666'
p134
tp135
a(S'X_MPI_PACKED()'
p136
S'667'
p137
tp138
a(S'MPI_Allgather()'
p139
S'838'
p140
tp141
a(S'MPI_Allgatherv()'
p142
S'866'
p143
tp144
a(S'X_MPI_BYTE()'
p145
S'869'
p146
tp147
a(S'MPI_Comm_group()'
p148
S'890'
p149
tp150
a(S'MPI_Group_incl()'
p151
S'895'
p152
tp153
a(S'MPI_Comm_create()'
p154
S'899'
p155
tp156
a(S'MPI_Group_free()'
p157
S'902'
p158
tp159
a(S'MPI_Group_free()'
p160
S'904'
p161
tp162
a(S'MPI_Comm_free()'
p163
S'909'
p164
tp165
a(S'MPI_Irecv()'
p166
S'940'
p167
tp168
a(S'MPI_Test()'
p169
S'945'
p170
tp171
a(S'MPI_Get_count()'
p172
S'978'
p173
tp174
a(S'MPI_Recv()'
p175
S'983'
p176
tp177
asS'Control-and-Trajectory-Tracking/project/pid_controller/libcarla-install/include/system/boost/mpi/collectives/broadcast.hpp'
p178
(lp179
(S'X_MPI_BYTE()'
p180
S'120'
p181
tp182
a(S'X_MPI_BYTE()'
p183
S'130'
p184
tp185
asS'Control-and-Trajectory-Tracking/project/pid_controller/libcarla-install/include/system/boost/mpi/communicator.hpp'
p186
(lp187
(S'MPI_Comm()'
p188
S'1515'
p189
tp190
asS'Control-and-Trajectory-Tracking/project/pid_controller/libcarla-install/include/system/boost/mpi/timer.hpp'
p191
(lp192
(S'MPI_Wtime()'
p193
S'71'
p194
tp195
as.