ccollections
defaultdict
p0
(c__builtin__
list
p1
tp2
Rp3
S'generic-vector-clocks-hips22-supplemental/source/tests/CommChecks/MaxDimsGreaterNDimsNoWarning.cpp'
p4
(lp5
(S'MPI_Finalize()'
p6
S'39'
p7
tp8
a(S'MPI_Cart_create()'
p9
S'55'
p10
tp11
a(S'MPI_Cart_get()'
p12
S'56'
p13
tp14
a(S'MPI_Comm_free()'
p15
S'59'
p16
tp17
asS'generic-vector-clocks-hips22-supplemental/source/tests/DeadlockDetection/DeadlockDetection/waitAnySourceEx5NoDlError.c'
p18
(lp19
(S'MPI_Init()'
p20
S'39'
p21
tp22
a(S'MPI_Finalize()'
p23
S'47'
p24
tp25
asS'generic-vector-clocks-hips22-supplemental/source/tests/DeadlockDetection/CollectiveMatch/collReduceScatterBlockNoError.cpp'
p26
(lp27
(S'MPI_Type_contiguous()'
p28
S'52'
p29
tp30
a(S'MPI_Type_commit()'
p31
S'53'
p32
tp33
a(S'MPI_Reduce_scatter_block()'
p34
S'58'
p35
tp36
a(S'MPI_Type_free()'
p37
S'60'
p38
tp39
asS'generic-vector-clocks-hips22-supplemental/source/tests/TypeMatch/MatchHindexedLengthError.c'
p40
(lp41
(S'MPI_Init()'
p42
S'46'
p43
tp44
a(S'MPI_Finalize()'
p45
S'54'
p46
tp47
a(S'MPI_Type_free()'
p48
S'73'
p49
tp50
asS'generic-vector-clocks-hips22-supplemental/source/tests/OverlapChecks/commOverlap.c'
p51
(lp52
(S'MPI_Finalize()'
p53
S'40'
p54
tp55
a(S'MPI_Type_extent()'
p56
S'51'
p57
tp58
a(S'MPI_Type_commit()'
p59
S'60'
p60
tp61
a(S'MPI_Waitall()'
p62
S'71'
p63
tp64
a(S'MPI_Waitall()'
p65
S'80'
p66
tp67
a(S'MPI_Type_free()'
p68
S'83'
p69
tp70
a(S'MPI_Type_free()'
p71
S'84'
p72
tp73
asS'generic-vector-clocks-hips22-supplemental/source/tests/DeadlockDetection/CollectiveMatch/collAlltoallNoError.c'
p74
(lp75
(S'MPI_Init()'
p76
S'41'
p77
tp78
a(S'MPI_Finalize()'
p79
S'49'
p80
tp81
asS'generic-vector-clocks-hips22-supplemental/source/tests/OverlapChecks/noOverlapBcast.c'
p82
(lp83
(S'MPI_Finalize()'
p84
S'40'
p85
tp86
a(S'MPI_Type_extent()'
p87
S'55'
p88
tp89
a(S'MPI_Type_commit()'
p90
S'64'
p91
tp92
a(S'MPI_Bcast()'
p93
S'85'
p94
tp95
a(S'MPI_Waitall()'
p96
S'89'
p97
tp98
a(S'MPI_Type_free()'
p99
S'93'
p100
tp101
a(S'MPI_Type_free()'
p102
S'94'
p103
tp104
asS'generic-vector-clocks-hips22-supplemental/source/tests/CommChecks/DirectionGreaterNDimsError.cpp'
p105
(lp106
(S'MPI_Finalize()'
p107
S'43'
p108
tp109
a(S'MPI_Cart_create()'
p110
S'59'
p111
tp112
a(S'MPI_Cart_shift()'
p113
S'60'
p114
tp115
a(S'MPI_Comm_free()'
p116
S'62'
p117
tp118
asS'generic-vector-clocks-hips22-supplemental/source/tests/VectorClock/OpenSHMEM/VCBarrierAll.cpp'
p119
(lp120
(S'MPI_Init()'
p121
S'31'
p122
tp123
a(S'MPI_Finalize()'
p124
S'36'
p125
tp126
asS'generic-vector-clocks-hips22-supplemental/source/tests/MpiTSan/send.c'
p127
(lp128
(S'MPI_Init_thread()'
p129
S'24'
p130
tp131
a(S'MPI_Abort()'
p132
S'28'
p133
tp134
a(S'MPI_Comm_size()'
p135
S'30'
p136
tp137
a(S'MPI_Comm_rank()'
p138
S'31'
p139
tp140
a(S'MPI_Irecv()'
p141
S'33'
p142
tp143
a(S'MPI_Send()'
p144
S'41'
p145
tp146
a(S'MPI_Wait()'
p147
S'44'
p148
tp149
a(S'MPI_Finalize()'
p150
S'45'
p151
tp152
asS'generic-vector-clocks-hips22-supplemental/source/tests/DeadlockDetection/P2PMatch/anyTagNoLoss.c'
p153
(lp154
(S'MPI_Init()'
p155
S'35'
p156
tp157
a(S'MPI_Finalize()'
p158
S'43'
p159
tp160
asS'generic-vector-clocks-hips22-supplemental/source/tests/TypeMatch/MatchHvectorNoError.c'
p161
(lp162
(S'MPI_Init()'
p163
S'40'
p164
tp165
a(S'MPI_Finalize()'
p166
S'48'
p167
tp168
a(S'MPI_Type_free()'
p169
S'65'
p170
tp171
asS'generic-vector-clocks-hips22-supplemental/source/tests/RequestChecks/RequestCanceledNoWarning.cpp'
p172
(lp173
(S'MPI_Finalize()'
p174
S'41'
p175
tp176
a(S'MPI_Start()'
p177
S'51'
p178
tp179
a(S'MPI_Cancel()'
p180
S'52'
p181
tp182
a(S'MPI_Irecv()'
p183
S'57'
p184
tp185
a(S'MPI_Wait()'
p186
S'59'
p187
tp188
asS'generic-vector-clocks-hips22-supplemental/source/tests/CommChecks/MaxIndicesToSmallNoWarning.cpp'
p189
(lp190
(S'MPI_Finalize()'
p191
S'41'
p192
tp193
a(S'MPI_Graph_create()'
p194
S'52'
p195
tp196
a(S'MPI_Graph_get()'
p197
S'56'
p198
tp199
a(S'MPI_Comm_free()'
p200
S'60'
p201
tp202
asS'generic-vector-clocks-hips22-supplemental/source/tests/DeadlockDetection/CollectiveMatch/collAllgathervTypeLenError2.cpp'
p203
(lp204
(S'MPI_Type_contiguous()'
p205
S'55'
p206
tp207
a(S'MPI_Type_commit()'
p208
S'56'
p209
tp210
a(S'MPI_Allgatherv()'
p211
S'64'
p212
tp213
a(S'MPI_Type_free()'
p214
S'66'
p215
tp216
asS'generic-vector-clocks-hips22-supplemental/source/tests/VectorClock/Annotations/VCAnnotateResourceSignalWait.cpp'
p217
(lp218
(S'MPI_Init()'
p219
S'31'
p220
tp221
a(S'MPI_Comm_rank()'
p222
S'32'
p223
tp224
a(S'MPI_Comm_size()'
p225
S'33'
p226
tp227
a(S'MPI_Win_allocate()'
p228
S'35'
p229
tp230
a(S'MPI_Barrier()'
p231
S'39'
p232
tp233
a(S'MPI_Finalize()'
p234
S'55'
p235
tp236
asS'generic-vector-clocks-hips22-supplemental/source/tests/DeadlockDetection/NbcCollectiveMatch/nbcCollIbarrierTestBgWaitP2PDl.c'
p237
(lp238
(S'MPI_Init()'
p239
S'37'
p240
tp241
a(S'MPI_Finalize()'
p242
S'45'
p243
tp244
asS'generic-vector-clocks-hips22-supplemental/source/tests/DeadlockDetection/DeadlockDetection/waitallNoDlComm.c'
p245
(lp246
(S'MPI_Init()'
p247
S'31'
p248
tp249
a(S'MPI_Finalize()'
p250
S'39'
p251
tp252
asS'generic-vector-clocks-hips22-supplemental/source/externals/GTI/externals/PnMPI/externals/adept-utils/utils/mpi_utils.h'
p253
(lp254
(S'X_MPI_SIZE_T()'
p255
S'50'
p256
tp257
a(S'X_MPI_INTPTR_T()'
p258
S'51'
p259
tp260
a(S'X_MPI_UINTPTR_T()'
p261
S'52'
p262
tp263
a(S'MPI_Pack_size()'
p264
S'60'
p265
tp266
asS'generic-vector-clocks-hips22-supplemental/source/tests/DeadlockDetection/CollectiveMatch/collAllgathervNoError2.cpp'
p267
(lp268
(S'MPI_Type_contiguous()'
p269
S'59'
p270
tp271
a(S'MPI_Type_commit()'
p272
S'60'
p273
tp274
a(S'MPI_Allgatherv()'
p275
S'68'
p276
tp277
a(S'MPI_Type_free()'
p278
S'70'
p279
tp280
asS'generic-vector-clocks-hips22-supplemental/source/tests/TypeMatch/MatchSimpleNoError.c'
p281
(lp282
(S'MPI_Init()'
p283
S'37'
p284
tp285
a(S'MPI_Finalize()'
p286
S'45'
p287
tp288
asS'generic-vector-clocks-hips22-supplemental/source/tests/DeadlockDetection/CollectiveMatch/collAllgatherNoError2.cpp'
p289
(lp290
(S'MPI_Type_contiguous()'
p291
S'52'
p292
tp293
a(S'MPI_Type_commit()'
p294
S'53'
p295
tp296
a(S'MPI_Allgather()'
p297
S'58'
p298
tp299
a(S'MPI_Type_free()'
p300
S'60'
p301
tp302
asS'generic-vector-clocks-hips22-supplemental/source/tests/DeadlockDetection/DeadlockDetection/sendrecvDl.c'
p303
(lp304
(S'MPI_Init()'
p305
S'36'
p306
tp307
a(S'MPI_Finalize()'
p308
S'44'
p309
tp310
asS'generic-vector-clocks-hips22-supplemental/source/modules/Callpath/util/mpi_utils.h'
p311
(lp312
(S'X_MPI_SIZE_T()'
p313
S'39'
p314
tp315
a(S'X_MPI_INTPTR_T()'
p316
S'40'
p317
tp318
a(S'X_MPI_UINTPTR_T()'
p319
S'41'
p320
tp321
a(S'MPI_Pack_size()'
p322
S'49'
p323
tp324
asS'generic-vector-clocks-hips22-supplemental/source/tests/DeadlockDetection/CollectiveMatch/collAlltoallwNoErrorLarge.cpp'
p325
(lp326
(S'MPI_Type_contiguous()'
p327
S'74'
p328
tp329
a(S'MPI_Type_commit()'
p330
S'75'
p331
tp332
a(S'MPI_Alltoallw()'
p333
S'81'
p334
tp335
a(S'MPI_Type_free()'
p336
S'85'
p337
tp338
asS'generic-vector-clocks-hips22-supplemental/source/tests/IntegrityChecks/IntegrityIfNullWarning.cpp'
p339
(lp340
(S'MPI_Finalize()'
p341
S'42'
p342
tp343
a(S'MPI_Keyval_free()'
p344
S'54'
p345
tp346
asS'generic-vector-clocks-hips22-supplemental/source/tests/CommChecks/CommNotCartNoError.cpp'
p347
(lp348
(S'MPI_Finalize()'
p349
S'39'
p350
tp351
a(S'MPI_Cart_create()'
p352
S'55'
p353
tp354
a(S'MPI_Cart_get()'
p355
S'56'
p356
tp357
a(S'MPI_Comm_free()'
p358
S'59'
p359
tp360
asS'generic-vector-clocks-hips22-supplemental/source/tests/DeadlockDetection/DeadlockDetection/waitallNoDl.c'
p361
(lp362
(S'MPI_Init()'
p363
S'35'
p364
tp365
a(S'MPI_Finalize()'
p366
S'43'
p367
tp368
asS'generic-vector-clocks-hips22-supplemental/source/tests/MpiTSan/ibcast.c'
p369
(lp370
(S'MPI_Init_thread()'
p371
S'25'
p372
tp373
a(S'MPI_Abort()'
p374
S'30'
p375
tp376
a(S'MPI_Ibcast()'
p377
S'46'
p378
tp379
a(S'MPI_Wait()'
p380
S'48'
p381
tp382
a(S'MPI_Finalize()'
p383
S'52'
p384
tp385
asS'generic-vector-clocks-hips22-supplemental/source/tests/LeakChecks/LeakErrError.c'
p386
(lp387
(S'MPI_Finalize()'
p388
S'53'
p389
tp390
asS'generic-vector-clocks-hips22-supplemental/source/tests/BasicChecks/NoDuplicatedRanksArrayNoError.cpp'
p391
(lp392
(S'MPI_Finalize()'
p393
S'40'
p394
tp395
a(S'MPI_Comm_group()'
p396
S'48'
p397
tp398
a(S'MPI_Group_excl()'
p399
S'55'
p400
tp401
a(S'MPI_Group_free()'
p402
S'61'
p403
tp404
a(S'MPI_Group_free()'
p405
S'66'
p406
tp407
asS'generic-vector-clocks-hips22-supplemental/source/tests/Mustrun/mustrun_passes_correct_envvars.c'
p408
(lp409
(S'MPI_Init()'
p410
S'33'
p411
tp412
a(S'MPI_Comm_rank()'
p413
S'34'
p414
tp415
a(S'MPI_Finalize()'
p416
S'55'
p417
tp418
a(S'MPI_Finalize()'
p419
S'58'
p420
tp421
asS'generic-vector-clocks-hips22-supplemental/source/tests/DatatypeChecks/NotValidForCommunication_MpiDatatypeNull.cpp'
p422
(lp423
(S'MPI_Bcast()'
p424
S'41'
p425
tp426
asS'generic-vector-clocks-hips22-supplemental/source/tests/DeadlockDetection/DeadlockDetection/waitsomeNoDl.c'
p427
(lp428
(S'MPI_Init()'
p429
S'36'
p430
tp431
a(S'MPI_Finalize()'
p432
S'44'
p433
tp434
asS'generic-vector-clocks-hips22-supplemental/source/tests/MpiTSan/isend_single.c'
p435
(lp436
(S'MPI_Init_thread()'
p437
S'27'
p438
tp439
a(S'MPI_Abort()'
p440
S'31'
p441
tp442
a(S'MPI_Comm_size()'
p443
S'33'
p444
tp445
a(S'MPI_Comm_rank()'
p446
S'34'
p447
tp448
a(S'MPI_Isend()'
p449
S'39'
p450
tp451
a(S'MPI_Wait()'
p452
S'44'
p453
tp454
a(S'MPI_Recv()'
p455
S'48'
p456
tp457
a(S'MPI_Finalize()'
p458
S'51'
p459
tp460
asS'generic-vector-clocks-hips22-supplemental/source/tests/TypeMatch/MatchVectorNoError.c'
p461
(lp462
(S'MPI_Init()'
p463
S'39'
p464
tp465
a(S'MPI_Finalize()'
p466
S'47'
p467
tp468
a(S'MPI_Type_free()'
p469
S'64'
p470
tp471
asS'generic-vector-clocks-hips22-supplemental/source/tests/DatatypeImplementation/resizeExpandByResized.c'
p472
(lp473
(S'MPI_Init()'
p474
S'26'
p475
tp476
a(S'MPI_Type_free()'
p477
S'36'
p478
tp479
a(S'MPI_Type_free()'
p480
S'37'
p481
tp482
asS'generic-vector-clocks-hips22-supplemental/source/tests/DeadlockDetection/DeadlockView/DLViewMulticommMultitag.c'
p483
(lp484
(S'MPI_Init()'
p485
S'34'
p486
tp487
a(S'MPI_Finalize()'
p488
S'42'
p489
tp490
asS'generic-vector-clocks-hips22-supplemental/source/tests/BasicChecks/NoDuplicatedRanksArrayError.cpp'
p491
(lp492
(S'MPI_Finalize()'
p493
S'41'
p494
tp495
a(S'MPI_Comm_group()'
p496
S'49'
p497
tp498
a(S'MPI_Group_excl()'
p499
S'56'
p500
tp501
a(S'MPI_Group_free()'
p502
S'62'
p503
tp504
a(S'MPI_Group_free()'
p505
S'67'
p506
tp507
asS'generic-vector-clocks-hips22-supplemental/source/tests/OnlyOnRootCondition/OnlyOnRoot_noError.cpp'
p508
(lp509
(S'MPI_Finalize()'
p510
S'41'
p511
tp512
a(S'MPI_Gatherv()'
p513
S'57'
p514
tp515
a(S'MPI_Gatherv()'
p516
S'59'
p517
tp518
a(S'MPI_Gatherv()'
p519
S'62'
p520
tp521
a(S'MPI_Gatherv()'
p522
S'64'
p523
tp524
a(S'MPI_Gatherv()'
p525
S'67'
p526
tp527
a(S'MPI_Gatherv()'
p528
S'69'
p529
tp530
a(S'MPI_Gatherv()'
p531
S'74'
p532
tp533
a(S'MPI_Gatherv()'
p534
S'76'
p535
tp536
asS'generic-vector-clocks-hips22-supplemental/source/tests/DeadlockDetection/DeadlockDetection/persistentNoDl.c'
p537
(lp538
(S'MPI_Init()'
p539
S'33'
p540
tp541
a(S'MPI_Finalize()'
p542
S'41'
p543
tp544
asS'generic-vector-clocks-hips22-supplemental/source/tests/CommGroupTrack/testInterCommTrack.c'
p545
(lp546
(S'MPI_Init()'
p547
S'55'
p548
tp549
a(S'MPI_Intercomm_create()'
p550
S'95'
p551
tp552
asS'generic-vector-clocks-hips22-supplemental/source/tests/TypeMatch/MatchSimpleLengthNoError.c'
p553
(lp554
(S'MPI_Init()'
p555
S'38'
p556
tp557
a(S'MPI_Finalize()'
p558
S'46'
p559
tp560
asS'generic-vector-clocks-hips22-supplemental/source/tests/BasicChecks/IntegerNegativeNotProcNullAnySourceNoError.cpp'
p561
(lp562
(S'MPI_Finalize()'
p563
S'39'
p564
tp565
asS'generic-vector-clocks-hips22-supplemental/source/tests/TypeMatch/MatchIndexedNoError.c'
p566
(lp567
(S'MPI_Init()'
p568
S'42'
p569
tp570
a(S'MPI_Finalize()'
p571
S'50'
p572
tp573
a(S'MPI_Type_free()'
p574
S'67'
p575
tp576
asS'generic-vector-clocks-hips22-supplemental/source/tests/DatatypeImplementation/resizeExpandByStruct.c'
p577
(lp578
(S'MPI_Init()'
p579
S'26'
p580
tp581
a(S'MPI_Type_free()'
p582
S'36'
p583
tp584
a(S'MPI_Type_free()'
p585
S'37'
p586
tp587
asS'generic-vector-clocks-hips22-supplemental/source/tests/DeadlockDetection/DeadlockDetection/waitallAnySourceNoDl.c'
p588
(lp589
(S'MPI_Init()'
p590
S'36'
p591
tp592
a(S'MPI_Finalize()'
p593
S'44'
p594
tp595
asS'generic-vector-clocks-hips22-supplemental/source/tests/CommChecks/CommHasTopologyWarning.cpp'
p596
(lp597
(S'MPI_Finalize()'
p598
S'41'
p599
tp600
a(S'MPI_Cart_create()'
p601
S'57'
p602
tp603
a(S'MPI_Cart_create()'
p604
S'58'
p605
tp606
a(S'MPI_Comm_free()'
p607
S'61'
p608
tp609
a(S'MPI_Comm_free()'
p610
S'63'
p611
tp612
asS'generic-vector-clocks-hips22-supplemental/source/tests/VectorClock/Annotations/VCAnnotateTick.cpp'
p613
(lp614
(S'MPI_Init()'
p615
S'27'
p616
tp617
a(S'MPI_Comm_rank()'
p618
S'28'
p619
tp620
a(S'MPI_Comm_size()'
p621
S'29'
p622
tp623
a(S'MPI_Finalize()'
p624
S'38'
p625
tp626
asS'generic-vector-clocks-hips22-supplemental/source/tests/DeadlockDetection/CollectiveMatch/collAlltoallvNoError.c'
p627
(lp628
(S'MPI_Init()'
p629
S'51'
p630
tp631
a(S'MPI_Finalize()'
p632
S'59'
p633
tp634
asS'generic-vector-clocks-hips22-supplemental/source/tests/GroupChecks/GroupNotKnownNoError.cpp'
p635
(lp636
(S'MPI_Finalize()'
p637
S'40'
p638
tp639
a(S'MPI_Comm_group()'
p640
S'51'
p641
tp642
a(S'MPI_Comm_create()'
p643
S'54'
p644
tp645
a(S'MPI_Comm_free()'
p646
S'58'
p647
tp648
a(S'MPI_Group_free()'
p649
S'60'
p650
tp651
asS'generic-vector-clocks-hips22-supplemental/source/tests/basic/initialized.c'
p652
(lp653
(S'MPI_Initialized()'
p654
S'25'
p655
tp656
a(S'MPI_Init()'
p657
S'30'
p658
tp659
a(S'MPI_Comm_rank()'
p660
S'33'
p661
tp662
a(S'MPI_Comm_size()'
p663
S'34'
p664
tp665
a(S'MPI_Finalize()'
p666
S'37'
p667
tp668
asS'generic-vector-clocks-hips22-supplemental/source/tests/DeadlockDetection/P2PMatch/simpleNoLoss.c'
p669
(lp670
(S'MPI_Init()'
p671
S'34'
p672
tp673
a(S'MPI_Finalize()'
p674
S'42'
p675
tp676
asS'generic-vector-clocks-hips22-supplemental/source/tests/TypeMatch/MatchContiLengthError.c'
p677
(lp678
(S'MPI_Init()'
p679
S'42'
p680
tp681
a(S'MPI_Finalize()'
p682
S'50'
p683
tp684
asS'generic-vector-clocks-hips22-supplemental/source/tests/DatatypeImplementation/mpi1Datatypetest.c'
p685
(lp686
(S'MPI_Init()'
p687
S'21'
p688
tp689
a(S'MPI_Type_extent()'
p690
S'31'
p691
tp692
a(S'MPI_Type_free()'
p693
S'38'
p694
tp695
a(S'MPI_Type_free()'
p696
S'39'
p697
tp698
asS'generic-vector-clocks-hips22-supplemental/source/tests/OverlapChecks/sendRecvOverlapIndexed.c'
p699
(lp700
(S'MPI_Finalize()'
p701
S'54'
p702
tp703
a(S'MPI_Type_commit()'
p704
S'78'
p705
tp706
a(S'MPI_Sendrecv()'
p707
S'85'
p708
tp709
a(S'MPI_Sendrecv()'
p710
S'87'
p711
tp712
asS'generic-vector-clocks-hips22-supplemental/source/tests/DeadlockDetection/DeadlockDetection/waitAnySourceEx6NoDl.c'
p713
(lp714
(S'MPI_Init()'
p715
S'25'
p716
tp717
a(S'MPI_Finalize()'
p718
S'33'
p719
tp720
a(S'MPI_Wait()'
p721
S'49'
p722
tp723
a(S'MPI_Wait()'
p724
S'53'
p725
tp726
a(S'MPI_Wait()'
p727
S'56'
p728
tp729
asS'generic-vector-clocks-hips22-supplemental/source/tests/TypeMatch/MatchSimpleLengthError.c'
p730
(lp731
(S'MPI_Init()'
p732
S'40'
p733
tp734
a(S'MPI_Finalize()'
p735
S'48'
p736
tp737
asS'generic-vector-clocks-hips22-supplemental/source/externals/GTI/cmakemodules/FeatureTests/ft_mpi_comm_set_errhandler.cpp'
p738
(lp739
(S'MPI_Comm_set_errhandler()'
p740
S'16'
p741
tp742
asS'generic-vector-clocks-hips22-supplemental/source/tests/DeadlockDetection/NbcCollectiveMatch/nbcCollIbarrierWaitallP2PDl.c'
p743
(lp744
(S'MPI_Init()'
p745
S'36'
p746
tp747
a(S'MPI_Finalize()'
p748
S'44'
p749
tp750
asS'generic-vector-clocks-hips22-supplemental/source/tests/VectorClock/OpenSHMEM/VCLock.cpp'
p751
(lp752
(S'MPI_Init()'
p753
S'31'
p754
tp755
a(S'MPI_Finalize()'
p756
S'48'
p757
tp758
asS'generic-vector-clocks-hips22-supplemental/source/tests/RequestChecks/RequestPersistentButInactiveNoError.cpp'
p759
(lp760
(S'MPI_Finalize()'
p761
S'41'
p762
tp763
a(S'MPI_Start()'
p764
S'51'
p765
tp766
a(S'MPI_Irecv()'
p767
S'56'
p768
tp769
a(S'MPI_Cancel()'
p770
S'59'
p771
tp772
a(S'MPI_Wait()'
p773
S'60'
p774
tp775
asS'generic-vector-clocks-hips22-supplemental/source/tests/TypeMatch/MatchStructMismatchError.c'
p776
(lp777
(S'MPI_Init()'
p778
S'45'
p779
tp780
a(S'MPI_Finalize()'
p781
S'53'
p782
tp783
a(S'MPI_Type_free()'
p784
S'72'
p785
tp786
asS'generic-vector-clocks-hips22-supplemental/source/tests/DatatypeChecks/NotValidForCommunication_Undefined.cpp'
p787
(lp788
(S'MPI_Type_contiguous()'
p789
S'41'
p790
tp791
a(S'MPI_Type_commit()'
p792
S'42'
p793
tp794
a(S'MPI_Type_free()'
p795
S'44'
p796
tp797
a(S'MPI_Bcast()'
p798
S'45'
p799
tp800
asS'generic-vector-clocks-hips22-supplemental/source/tests/DeadlockDetection/CollectiveMatch/collScatterNoError.c'
p801
(lp802
(S'MPI_Init()'
p803
S'40'
p804
tp805
a(S'MPI_Finalize()'
p806
S'48'
p807
tp808
asS'generic-vector-clocks-hips22-supplemental/source/tests/DeadlockDetection/CollectiveMatch/collBcastNoError.c'
p809
(lp810
(S'MPI_Init()'
p811
S'35'
p812
tp813
a(S'MPI_Finalize()'
p814
S'43'
p815
tp816
asS'generic-vector-clocks-hips22-supplemental/source/tests/DeadlockDetection/CollectiveMatch/collGatherTypeLenError2.cpp'
p817
(lp818
(S'MPI_Type_contiguous()'
p819
S'54'
p820
tp821
a(S'MPI_Type_commit()'
p822
S'55'
p823
tp824
a(S'MPI_Gather()'
p825
S'60'
p826
tp827
a(S'MPI_Type_free()'
p828
S'62'
p829
tp830
asS'generic-vector-clocks-hips22-supplemental/source/tests/DeadlockDetection/NbcCollectiveMatch/nbcCollIreduceWaitAnyNoError.c'
p831
(lp832
(S'MPI_Init()'
p833
S'34'
p834
tp835
a(S'MPI_Finalize()'
p836
S'42'
p837
tp838
asS'generic-vector-clocks-hips22-supplemental/source/tests/RequestChecks/RequestActiveNoError.cpp'
p839
(lp840
(S'MPI_Finalize()'
p841
S'41'
p842
tp843
a(S'MPI_Start()'
p844
S'51'
p845
tp846
a(S'MPI_Start()'
p847
S'57'
p848
tp849
a(S'MPI_Wait()'
p850
S'60'
p851
tp852
asS'generic-vector-clocks-hips22-supplemental/source/tests/LeakChecks/LeakGroupError.c'
p853
(lp854
(S'MPI_Finalize()'
p855
S'46'
p856
tp857
asS'generic-vector-clocks-hips22-supplemental/source/tests/VectorClock/PointToPoint/VCP2PMixed.cpp'
p858
(lp859
(S'MPI_Finalize()'
p860
S'44'
p861
tp862
a(S'MPI_Send()'
p863
S'49'
p864
tp865
a(S'MPI_Recv()'
p866
S'50'
p867
tp868
a(S'MPI_Send()'
p869
S'51'
p870
tp871
a(S'MPI_Send()'
p872
S'54'
p873
tp874
a(S'MPI_Recv()'
p875
S'55'
p876
tp877
a(S'MPI_Recv()'
p878
S'56'
p879
tp880
a(S'MPI_Recv()'
p881
S'59'
p882
tp883
a(S'MPI_Ssend()'
p884
S'60'
p885
tp886
asS'generic-vector-clocks-hips22-supplemental/source/tests/IntegrityChecks/IntegrityIfNullError.cpp'
p887
(lp888
(S'MPI_Finalize()'
p889
S'42'
p890
tp891
a(S'MPI_Pack()'
p892
S'59'
p893
tp894
a(S'MPI_Send()'
p895
S'60'
p896
tp897
a(S'MPI_Recv()'
p898
S'66'
p899
tp900
a(S'MPI_Unpack()'
p901
S'67'
p902
tp903
asS'generic-vector-clocks-hips22-supplemental/source/tests/LeakChecks/LeaksNoError.c'
p904
(lp905
(S'MPI_Finalize()'
p906
S'59'
p907
tp908
asS'generic-vector-clocks-hips22-supplemental/source/tests/OverlapChecks/vectorOverlap.c'
p909
(lp910
(S'MPI_Type_size()'
p911
S'30'
p912
tp913
a(S'MPI_Type_size()'
p914
S'31'
p915
tp916
a(S'MPI_Type_get_true_extent()'
p917
S'32'
p918
tp919
a(S'MPI_Pack_size()'
p920
S'33'
p921
tp922
a(S'MPI_Type_contiguous()'
p923
S'36'
p924
tp925
a(S'MPI_Type_commit()'
p926
S'37'
p927
tp928
a(S'MPI_Pack()'
p929
S'45'
p930
tp931
a(S'MPI_Unpack()'
p932
S'47'
p933
tp934
a(S'MPI_Type_free()'
p935
S'53'
p936
tp937
a(S'MPI_Init()'
p938
S'66'
p939
tp940
a(S'MPI_Type_extent()'
p941
S'75'
p942
tp943
a(S'MPI_Type_free()'
p944
S'90'
p945
tp946
a(S'MPI_Type_free()'
p947
S'91'
p948
tp949
asS'generic-vector-clocks-hips22-supplemental/source/tests/IntegrityChecks/IntegrityIfNullNotMPIBottomCommSizeArrayError.cpp'
p950
(lp951
(S'MPI_Finalize()'
p952
S'45'
p953
tp954
a(S'MPI_Allgather()'
p955
S'57'
p956
tp957
a(S'X_MPI_CHAR()'
p958
S'59'
p959
tp960
a(S'X_MPI_CHAR()'
p961
S'63'
p962
tp963
asS'generic-vector-clocks-hips22-supplemental/source/tests/MpiTSan/scatter.c'
p964
(lp965
(S'MPI_Init_thread()'
p966
S'26'
p967
tp968
a(S'MPI_Abort()'
p969
S'31'
p970
tp971
a(S'MPI_Scatter()'
p972
S'51'
p973
tp974
a(S'MPI_Finalize()'
p975
S'55'
p976
tp977
asS'generic-vector-clocks-hips22-supplemental/source/tests/DeadlockDetection/DeadlockDetection/waitAnySourceNoDl.c'
p978
(lp979
(S'MPI_Init()'
p980
S'35'
p981
tp982
a(S'MPI_Finalize()'
p983
S'43'
p984
tp985
asS'generic-vector-clocks-hips22-supplemental/source/tests/DeadlockDetection/DeadlockDetection/waitStatusIgnore.c'
p986
(lp987
(S'MPI_Init()'
p988
S'26'
p989
tp990
a(S'MPI_Finalize()'
p991
S'34'
p992
tp993
asS'generic-vector-clocks-hips22-supplemental/source/tests/Hybrid/MpiInitInParallel.cpp'
p994
(lp995
(S'MPI_Comm_size()'
p996
S'48'
p997
tp998
a(S'MPI_Comm_rank()'
p999
S'49'
p1000
tp1001
asS'generic-vector-clocks-hips22-supplemental/source/externals/GTI/externals/PnMPI/src/pnmpi/pnmpimod.h'
p1002
(lp1003
(S'X_MPI_ERROR_MEM()'
p1004
S'53'
p1005
tp1006
a(S'X_MPI_ERROR_PNMPI()'
p1007
S'54'
p1008
tp1009
asS'generic-vector-clocks-hips22-supplemental/source/tests/BufferChecks/BufferNoError.cpp'
p1010
(lp1011
(S'MPI_Finalize()'
p1012
S'39'
p1013
tp1014
a(S'MPI_Pack_size()'
p1015
S'51'
p1016
tp1017
a(S'MPI_Buffer_attach()'
p1018
S'53'
p1019
tp1020
a(S'MPI_Bsend()'
p1021
S'54'
p1022
tp1023
a(S'MPI_Barrier()'
p1024
S'55'
p1025
tp1026
a(S'MPI_Buffer_detach()'
p1027
S'56'
p1028
tp1029
a(S'MPI_Barrier()'
p1030
S'63'
p1031
tp1032
a(S'MPI_Recv()'
p1033
S'64'
p1034
tp1035
asS'generic-vector-clocks-hips22-supplemental/source/tests/DeadlockDetection/CollectiveMatch/collGatherEx2NoError.c'
p1036
(lp1037
(S'MPI_Init()'
p1038
S'41'
p1039
tp1040
a(S'MPI_Finalize()'
p1041
S'49'
p1042
tp1043
asS'generic-vector-clocks-hips22-supplemental/source/tests/DeadlockDetection/DeadlockDetection/waitNoDl.c'
p1044
(lp1045
(S'MPI_Init()'
p1046
S'33'
p1047
tp1048
a(S'MPI_Finalize()'
p1049
S'41'
p1050
tp1051
asS'generic-vector-clocks-hips22-supplemental/source/tests/DatatypeTrack/datatypeTest.h'
p1052
(lp1053
(S'MPI_Type_commit()'
p1054
S'46'
p1055
tp1056
a(S'MPI_Type_size()'
p1057
S'47'
p1058
tp1059
a(S'MPI_Type_get_extent()'
p1060
S'50'
p1061
tp1062
a(S'MPI_Type_get_true_extent()'
p1063
S'54'
p1064
tp1065
a(S'MPI_Type_lb()'
p1066
S'57'
p1067
tp1068
a(S'MPI_Type_extent()'
p1069
S'59'
p1070
tp1071
a(S'MPI_Type_ub()'
p1072
S'61'
p1073
tp1074
asS'generic-vector-clocks-hips22-supplemental/source/tests/DeadlockDetection/CollectiveMatch/collAlltoallwTypeLenError.cpp'
p1075
(lp1076
(S'MPI_Type_contiguous()'
p1077
S'74'
p1078
tp1079
a(S'MPI_Type_commit()'
p1080
S'75'
p1081
tp1082
a(S'MPI_Alltoallw()'
p1083
S'79'
p1084
tp1085
a(S'MPI_Type_free()'
p1086
S'83'
p1087
tp1088
asS'generic-vector-clocks-hips22-supplemental/source/tests/DeadlockDetection/CollectiveMatch/collGathervTypeLenError.c'
p1089
(lp1090
(S'MPI_Init()'
p1091
S'52'
p1092
tp1093
a(S'MPI_Finalize()'
p1094
S'60'
p1095
tp1096
asS'generic-vector-clocks-hips22-supplemental/source/tests/DatatypeImplementation/resizeReduceByResized.c'
p1097
(lp1098
(S'MPI_Init()'
p1099
S'26'
p1100
tp1101
a(S'MPI_Type_free()'
p1102
S'36'
p1103
tp1104
a(S'MPI_Type_free()'
p1105
S'37'
p1106
tp1107
asS'generic-vector-clocks-hips22-supplemental/source/tests/DatatypeImplementation/simpleVector.c'
p1108
(lp1109
(S'MPI_Init()'
p1110
S'24'
p1111
tp1112
a(S'MPI_Type_free()'
p1113
S'33'
p1114
tp1115
asS'generic-vector-clocks-hips22-supplemental/source/tests/RequestChecks/RequestActiveError.cpp'
p1116
(lp1117
(S'MPI_Finalize()'
p1118
S'44'
p1119
tp1120
a(S'MPI_Start()'
p1121
S'55'
p1122
tp1123
a(S'MPI_Start()'
p1124
S'56'
p1125
tp1126
a(S'MPI_Start()'
p1127
S'62'
p1128
tp1129
a(S'MPI_Wait()'
p1130
S'66'
p1131
tp1132
asS'generic-vector-clocks-hips22-supplemental/source/tests/LeakChecks/LeakOpError.c'
p1133
(lp1134
(S'MPI_Finalize()'
p1135
S'51'
p1136
tp1137
asS'generic-vector-clocks-hips22-supplemental/source/tests/DeadlockDetection/CollectiveMatch/collGathervNoError.c'
p1138
(lp1139
(S'MPI_Init()'
p1140
S'48'
p1141
tp1142
a(S'MPI_Finalize()'
p1143
S'56'
p1144
tp1145
asS'generic-vector-clocks-hips22-supplemental/source/tests/VectorClock/Annotations/VCAnnotateProcessSignalWaitTransitive.cpp'
p1146
(lp1147
(S'MPI_Init()'
p1148
S'27'
p1149
tp1150
a(S'MPI_Comm_rank()'
p1151
S'28'
p1152
tp1153
a(S'MPI_Comm_size()'
p1154
S'29'
p1155
tp1156
a(S'MPI_Finalize()'
p1157
S'45'
p1158
tp1159
asS'generic-vector-clocks-hips22-supplemental/source/tests/BasicChecks/IntegerNegativeNotProcNullNoError.cpp'
p1160
(lp1161
(S'MPI_Finalize()'
p1162
S'39'
p1163
tp1164
asS'generic-vector-clocks-hips22-supplemental/source/tests/DatatypeImplementation/simpleIndexed.c'
p1165
(lp1166
(S'MPI_Init()'
p1167
S'24'
p1168
tp1169
a(S'MPI_Type_free()'
p1170
S'36'
p1171
tp1172
asS'generic-vector-clocks-hips22-supplemental/source/tests/DeadlockDetection/DeadlockDetection/waitallAnySourceEx1Dl.c'
p1173
(lp1174
(S'MPI_Init()'
p1175
S'25'
p1176
tp1177
a(S'MPI_Finalize()'
p1178
S'33'
p1179
tp1180
a(S'MPI_Barrier()'
p1181
S'59'
p1182
tp1183
asS'generic-vector-clocks-hips22-supplemental/source/tests/OpTrack/testOpTrack.c'
p1184
(lp1185
(S'MPI_Init()'
p1186
S'52'
p1187
tp1188
asS'generic-vector-clocks-hips22-supplemental/source/tests/RequestChecks/RequestNullError.cpp'
p1189
(lp1190
(S'MPI_Finalize()'
p1191
S'43'
p1192
tp1193
a(S'MPI_Start()'
p1194
S'53'
p1195
tp1196
a(S'MPI_Start()'
p1197
S'60'
p1198
tp1199
a(S'MPI_Wait()'
p1200
S'61'
p1201
tp1202
asS'generic-vector-clocks-hips22-supplemental/source/tests/DatatypeImplementation/resizeReduceByIndexed.c'
p1203
(lp1204
(S'MPI_Init()'
p1205
S'25'
p1206
tp1207
a(S'MPI_Type_free()'
p1208
S'34'
p1209
tp1210
a(S'MPI_Type_free()'
p1211
S'35'
p1212
tp1213
asS'generic-vector-clocks-hips22-supplemental/source/tests/DeadlockDetection/NbcCollectiveMatch/nbcCollIbarrierWaitP2PDl.c'
p1214
(lp1215
(S'MPI_Init()'
p1216
S'33'
p1217
tp1218
a(S'MPI_Finalize()'
p1219
S'41'
p1220
tp1221
asS'generic-vector-clocks-hips22-supplemental/source/tests/DeadlockDetection/CollectiveMatch/collAlltoallNoError2.cpp'
p1222
(lp1223
(S'MPI_Type_contiguous()'
p1224
S'52'
p1225
tp1226
a(S'MPI_Type_commit()'
p1227
S'53'
p1228
tp1229
a(S'MPI_Alltoall()'
p1230
S'58'
p1231
tp1232
a(S'MPI_Type_free()'
p1233
S'60'
p1234
tp1235
asS'generic-vector-clocks-hips22-supplemental/source/tests/FortranTests/simple_fortran.f'
p1236
(lp1237
(S'MPI_INIT()'
p1238
S'38'
p1239
tp1240
a(S'MPI_COMM_RANK()'
p1241
S'40'
p1242
tp1243
a(S'MPI_COMM_SIZE()'
p1244
S'41'
p1245
tp1246
a(S'MPI_SEND()'
p1247
S'54'
p1248
tp1249
a(S'MPI_RECV()'
p1250
S'60'
p1251
tp1252
a(S'MPI_FINALIZE()'
p1253
S'68'
p1254
tp1255
asS'generic-vector-clocks-hips22-supplemental/source/tests/CommChecks/IntegerGreaterCommSizeError.cpp'
p1256
(lp1257
(S'MPI_Finalize()'
p1258
S'43'
p1259
tp1260
a(S'MPI_Graph_create()'
p1261
S'54'
p1262
tp1263
a(S'MPI_Comm_free()'
p1264
S'56'
p1265
tp1266
asS'generic-vector-clocks-hips22-supplemental/source/externals/GTI/externals/PnMPI/tests/src/test-mpi.c'
p1267
(lp1268
(S'MPI_Init()'
p1269
S'40'
p1270
tp1271
a(S'MPI_Finalize()'
p1272
S'41'
p1273
tp1274
asS'generic-vector-clocks-hips22-supplemental/source/tests/TypeMatch/MatchIndexedBlockLengthError.c'
p1275
(lp1276
(S'MPI_Init()'
p1277
S'45'
p1278
tp1279
a(S'MPI_Finalize()'
p1280
S'53'
p1281
tp1282
a(S'MPI_Type_free()'
p1283
S'72'
p1284
tp1285
asS'generic-vector-clocks-hips22-supplemental/source/tests/ErrTrack/testErrTrack.c'
p1286
(lp1287
(S'MPI_Init()'
p1288
S'59'
p1289
tp1290
asS'generic-vector-clocks-hips22-supplemental/source/tests/DeadlockDetection/CollectiveMatch/collScanTypeLenError.cpp'
p1291
(lp1292
(S'MPI_Type_contiguous()'
p1293
S'55'
p1294
tp1295
a(S'MPI_Type_commit()'
p1296
S'56'
p1297
tp1298
a(S'MPI_Scan()'
p1299
S'61'
p1300
tp1301
a(S'MPI_Type_free()'
p1302
S'63'
p1303
tp1304
asS'generic-vector-clocks-hips22-supplemental/source/tests/VectorClock/OpenSHMEM/VCBarrier.cpp'
p1305
(lp1306
(S'MPI_Init()'
p1307
S'34'
p1308
tp1309
a(S'MPI_Finalize()'
p1310
S'49'
p1311
tp1312
asS'generic-vector-clocks-hips22-supplemental/source/tests/GroupChecks/IntegerArrayElementGreaterGrpSizeError.cpp'
p1313
(lp1314
(S'MPI_Finalize()'
p1315
S'45'
p1316
tp1317
a(S'MPI_Comm_group()'
p1318
S'55'
p1319
tp1320
a(S'MPI_Comm_group()'
p1321
S'56'
p1322
tp1323
a(S'MPI_Group_translate_ranks()'
p1324
S'63'
p1325
tp1326
a(S'MPI_Group_free()'
p1327
S'69'
p1328
tp1329
a(S'MPI_Group_free()'
p1330
S'74'
p1331
tp1332
asS'generic-vector-clocks-hips22-supplemental/source/tests/RequestChecks/RequestActiveArrayNoError.cpp'
p1333
(lp1334
(S'MPI_Finalize()'
p1335
S'41'
p1336
tp1337
a(S'MPI_Startall()'
p1338
S'53'
p1339
tp1340
a(S'MPI_Startall()'
p1341
S'61'
p1342
tp1343
a(S'MPI_Waitall()'
p1344
S'64'
p1345
tp1346
asS'generic-vector-clocks-hips22-supplemental/source/tests/DeadlockDetection/DeadlockDetection/waitAnySourceEx3Dl.c'
p1347
(lp1348
(S'MPI_Init()'
p1349
S'41'
p1350
tp1351
a(S'MPI_Finalize()'
p1352
S'49'
p1353
tp1354
asS'generic-vector-clocks-hips22-supplemental/source/tests/VectorClock/OpenSHMEM/VCBroadcast.cpp'
p1355
(lp1356
(S'MPI_Init()'
p1357
S'35'
p1358
tp1359
a(S'MPI_Finalize()'
p1360
S'53'
p1361
tp1362
asS'generic-vector-clocks-hips22-supplemental/source/externals/GTI/externals/PnMPI/src/pnshmem/shm_wrapper.c'
p1363
(lp1364
(S'MPI_Initialized()'
p1365
S'84'
p1366
tp1367
a(S'MPI_Init()'
p1368
S'87'
p1369
tp1370
asS'generic-vector-clocks-hips22-supplemental/source/tests/BasicChecks/IntegerNotWithinZeroTagUbError.cpp'
p1371
(lp1372
(S'MPI_Finalize()'
p1373
S'43'
p1374
tp1375
asS'generic-vector-clocks-hips22-supplemental/source/tests/DeadlockDetection/CollectiveMatch/collScatterNoError2.cpp'
p1376
(lp1377
(S'MPI_Type_contiguous()'
p1378
S'51'
p1379
tp1380
a(S'MPI_Type_commit()'
p1381
S'52'
p1382
tp1383
a(S'MPI_Scatter()'
p1384
S'57'
p1385
tp1386
a(S'MPI_Type_free()'
p1387
S'59'
p1388
tp1389
asS'generic-vector-clocks-hips22-supplemental/source/tests/BasicChecks/IntegerNegativeNotProcNullArrayNoError.cpp'
p1390
(lp1391
(S'MPI_Finalize()'
p1392
S'39'
p1393
tp1394
a(S'MPI_Comm_group()'
p1395
S'50'
p1396
tp1397
a(S'MPI_Comm_group()'
p1398
S'51'
p1399
tp1400
a(S'MPI_Group_translate_ranks()'
p1401
S'55'
p1402
tp1403
a(S'MPI_Group_free()'
p1404
S'57'
p1405
tp1406
a(S'MPI_Group_free()'
p1407
S'58'
p1408
tp1409
asS'generic-vector-clocks-hips22-supplemental/source/tests/OverlapChecks/sendRecvOverlap.c'
p1410
(lp1411
(S'MPI_Finalize()'
p1412
S'41'
p1413
tp1414
a(S'MPI_Type_extent()'
p1415
S'52'
p1416
tp1417
a(S'MPI_Type_commit()'
p1418
S'63'
p1419
tp1420
a(S'MPI_Sendrecv()'
p1421
S'69'
p1422
tp1423
a(S'MPI_Sendrecv()'
p1424
S'71'
p1425
tp1426
a(S'MPI_Type_free()'
p1427
S'74'
p1428
tp1429
a(S'MPI_Type_free()'
p1430
S'75'
p1431
tp1432
asS'generic-vector-clocks-hips22-supplemental/source/tests/DatatypeChecks/ArrayNotValidForCreate_Undefined.cpp'
p1433
(lp1434
(S'MPI_Type_contiguous()'
p1435
S'46'
p1436
tp1437
a(S'MPI_Type_free()'
p1438
S'49'
p1439
tp1440
a(S'MPI_Type_struct()'
p1441
S'51'
p1442
tp1443
a(S'MPI_Type_free()'
p1444
S'52'
p1445
tp1446
asS'generic-vector-clocks-hips22-supplemental/source/tests/GroupChecks/GroupIsEmptyNoWarning.cpp'
p1447
(lp1448
(S'MPI_Finalize()'
p1449
S'40'
p1450
tp1451
a(S'MPI_Comm_group()'
p1452
S'51'
p1453
tp1454
a(S'MPI_Comm_create()'
p1455
S'54'
p1456
tp1457
a(S'MPI_Comm_free()'
p1458
S'58'
p1459
tp1460
a(S'MPI_Group_free()'
p1461
S'60'
p1462
tp1463
asS'generic-vector-clocks-hips22-supplemental/source/tests/DatatypeImplementation/treeRecursion6.c'
p1464
(lp1465
(S'MPI_Init()'
p1466
S'24'
p1467
tp1468
a(S'MPI_Type_extent()'
p1469
S'37'
p1470
tp1471
a(S'MPI_Type_free()'
p1472
S'53'
p1473
tp1474
asS'generic-vector-clocks-hips22-supplemental/source/tests/OnlyOnRootCondition/OnlyOnRoot_IntegrityNullError.cpp'
p1475
(lp1476
(S'MPI_Finalize()'
p1477
S'45'
p1478
tp1479
a(S'MPI_Gatherv()'
p1480
S'60'
p1481
tp1482
asS'generic-vector-clocks-hips22-supplemental/source/tests/BasicChecks/IntegerNotOneOrZeroArrayNoWarning.cpp'
p1483
(lp1484
(S'MPI_Finalize()'
p1485
S'40'
p1486
tp1487
a(S'MPI_Cart_create()'
p1488
S'58'
p1489
tp1490
a(S'MPI_Comm_free()'
p1491
S'59'
p1492
tp1493
asS'generic-vector-clocks-hips22-supplemental/source/tests/VectorClock/Collective/VCCollBlockingAllToAll.cpp'
p1494
(lp1495
(S'MPI_Init()'
p1496
S'51'
p1497
tp1498
a(S'MPI_Comm_rank()'
p1499
S'52'
p1500
tp1501
a(S'MPI_Comm_size()'
p1502
S'53'
p1503
tp1504
a(S'MPI_Comm_group()'
p1505
S'58'
p1506
tp1507
a(S'MPI_Group_incl()'
p1508
S'59'
p1509
tp1510
a(S'MPI_Comm_create()'
p1511
S'60'
p1512
tp1513
a(S'MPI_Recv()'
p1514
S'64'
p1515
tp1516
a(S'MPI_Send()'
p1517
S'66'
p1518
tp1519
a(S'MPI_Barrier()'
p1520
S'68'
p1521
tp1522
a(S'MPI_Send()'
p1523
S'72'
p1524
tp1525
a(S'MPI_Recv()'
p1526
S'74'
p1527
tp1528
a(S'MPI_Bcast()'
p1529
S'79'
p1530
tp1531
a(S'MPI_Barrier()'
p1532
S'82'
p1533
tp1534
a(S'MPI_Allreduce()'
p1535
S'92'
p1536
tp1537
a(S'MPI_Allgather()'
p1538
S'94'
p1539
tp1540
a(S'MPI_Finalize()'
p1541
S'96'
p1542
tp1543
asS'generic-vector-clocks-hips22-supplemental/source/tests/DatatypeImplementation/simpleDarray.c'
p1544
(lp1545
(S'MPI_Init()'
p1546
S'24'
p1547
tp1548
a(S'MPI_Type_free()'
p1549
S'38'
p1550
tp1551
asS'generic-vector-clocks-hips22-supplemental/source/tests/FortranTests/fortran_waitall.f'
p1552
(lp1553
(S'MPI_INIT()'
p1554
S'40'
p1555
tp1556
a(S'MPI_COMM_RANK()'
p1557
S'42'
p1558
tp1559
a(S'MPI_COMM_SIZE()'
p1560
S'43'
p1561
tp1562
a(S'MPI_ISEND()'
p1563
S'56'
p1564
tp1565
a(S'MPI_IRECV()'
p1566
S'62'
p1567
tp1568
a(S'MPI_WAITALL()'
p1569
S'65'
p1570
tp1571
a(S'MPI_FINALIZE()'
p1572
S'71'
p1573
tp1574
asS'generic-vector-clocks-hips22-supplemental/source/tests/RequestChecks/RequestNullArrayError.cpp'
p1575
(lp1576
(S'MPI_Finalize()'
p1577
S'44'
p1578
tp1579
a(S'MPI_Startall()'
p1580
S'67'
p1581
tp1582
a(S'MPI_Waitall()'
p1583
S'69'
p1584
tp1585
asS'generic-vector-clocks-hips22-supplemental/source/externals/GTI/externals/PnMPI/externals/wrap/wrap.py'
p1586
(lp1587
(S'X_MPI_F_STATUS_SIZE()'
p1588
S'133'
p1589
tp1590
a(S'X_MPI_F_STATUS_SIZE()'
p1591
S'137'
p1592
tp1593
asS'generic-vector-clocks-hips22-supplemental/source/tests/DeadlockDetection/CollectiveMatch/collGathervTypeLenErrorLarge.cpp'
p1594
(lp1595
(S'MPI_Type_contiguous()'
p1596
S'64'
p1597
tp1598
a(S'MPI_Type_commit()'
p1599
S'65'
p1600
tp1601
a(S'MPI_Gatherv()'
p1602
S'82'
p1603
tp1604
a(S'MPI_Gatherv()'
p1605
S'84'
p1606
tp1607
a(S'MPI_Gatherv()'
p1608
S'86'
p1609
tp1610
a(S'MPI_Type_free()'
p1611
S'89'
p1612
tp1613
asS'generic-vector-clocks-hips22-supplemental/source/tests/DeadlockDetection/CollectiveMatch/collAllgatherTypeLenError.cpp'
p1614
(lp1615
(S'MPI_Type_contiguous()'
p1616
S'56'
p1617
tp1618
a(S'MPI_Type_commit()'
p1619
S'57'
p1620
tp1621
a(S'MPI_Allgather()'
p1622
S'62'
p1623
tp1624
a(S'MPI_Type_free()'
p1625
S'64'
p1626
tp1627
asS'generic-vector-clocks-hips22-supplemental/source/tests/RequestChecks/RequestNullOrInActiveArrayNoWarning.cpp'
p1628
(lp1629
(S'MPI_Finalize()'
p1630
S'42'
p1631
tp1632
a(S'MPI_Start()'
p1633
S'54'
p1634
tp1635
a(S'MPI_Start()'
p1636
S'55'
p1637
tp1638
a(S'MPI_Waitall()'
p1639
S'56'
p1640
tp1641
asS'generic-vector-clocks-hips22-supplemental/source/tests/DeadlockDetection/CollectiveMatch/collExscanNoError.cpp'
p1642
(lp1643
(S'MPI_Type_contiguous()'
p1644
S'53'
p1645
tp1646
a(S'MPI_Type_commit()'
p1647
S'54'
p1648
tp1649
a(S'MPI_Exscan()'
p1650
S'59'
p1651
tp1652
a(S'MPI_Type_free()'
p1653
S'61'
p1654
tp1655
asS'generic-vector-clocks-hips22-supplemental/source/tests/IntegrityChecks/IntegrityIfNullNoAtIndexMpiBottomError.cpp'
p1656
(lp1657
(S'MPI_Finalize()'
p1658
S'43'
p1659
tp1660
a(S'MPI_Reduce_scatter()'
p1661
S'55'
p1662
tp1663
asS'generic-vector-clocks-hips22-supplemental/source/tests/BasicChecks/IntegerLessTagUbNoWarning.cpp'
p1664
(lp1665
(S'MPI_Finalize()'
p1666
S'39'
p1667
tp1668
asS'generic-vector-clocks-hips22-supplemental/source/externals/GTI/externals/PnMPI/tests/src/test-mpi-threaded.c'
p1669
(lp1670
(S'MPI_Init_thread()'
p1671
S'45'
p1672
tp1673
a(S'MPI_Finalize()'
p1674
S'46'
p1675
tp1676
asS'generic-vector-clocks-hips22-supplemental/source/externals/GTI/externals/PnMPI/tests/src/test-mpi-threaded.f'
p1677
(lp1678
(S'MPI_INIT_THREAD()'
p1679
S'36'
p1680
tp1681
a(S'MPI_FINALIZE()'
p1682
S'40'
p1683
tp1684
asS'generic-vector-clocks-hips22-supplemental/source/tests/DatatypeImplementation/simpleContiguous.c'
p1685
(lp1686
(S'MPI_Init()'
p1687
S'25'
p1688
tp1689
a(S'MPI_Type_free()'
p1690
S'34'
p1691
tp1692
asS'generic-vector-clocks-hips22-supplemental/source/tests/DeadlockDetection/CollectiveMatch/collAllgathervNoError.c'
p1693
(lp1694
(S'MPI_Init()'
p1695
S'42'
p1696
tp1697
a(S'MPI_Finalize()'
p1698
S'50'
p1699
tp1700
asS'generic-vector-clocks-hips22-supplemental/source/tests/OnlyOnRootCondition/OnlyOnRoot_IntegrityNullNotMPIBottomError.cpp'
p1701
(lp1702
(S'MPI_Finalize()'
p1703
S'47'
p1704
tp1705
a(S'MPI_Gatherv()'
p1706
S'62'
p1707
tp1708
a(S'X_MPI_CHAR()'
p1709
S'64'
p1710
tp1711
a(S'X_MPI_CHAR()'
p1712
S'69'
p1713
tp1714
asS'generic-vector-clocks-hips22-supplemental/source/tests/DatatypeImplementation/treeRecursion2.c'
p1715
(lp1716
(S'MPI_Init()'
p1717
S'24'
p1718
tp1719
a(S'MPI_Type_extent()'
p1720
S'37'
p1721
tp1722
a(S'MPI_Type_free()'
p1723
S'53'
p1724
tp1725
asS'generic-vector-clocks-hips22-supplemental/source/tests/DeadlockDetection/NbcCollectiveMatch/nbcCollIbcastStrideBuffer2NoError.c'
p1726
(lp1727
(S'MPI_Init()'
p1728
S'38'
p1729
tp1730
a(S'MPI_Finalize()'
p1731
S'46'
p1732
tp1733
asS'generic-vector-clocks-hips22-supplemental/source/tests/BasicChecks/IntegerZeroArrayNoWarning.cpp'
p1734
(lp1735
(S'MPI_Finalize()'
p1736
S'39'
p1737
tp1738
a(S'MPI_Cart_create()'
p1739
S'57'
p1740
tp1741
a(S'MPI_Comm_free()'
p1742
S'59'
p1743
tp1744
asS'generic-vector-clocks-hips22-supplemental/source/externals/wrap/README.md'
p1745
(lp1746
(S'MPI_Abort()'
p1747
S'281'
p1748
tp1749
a(S'MPI_Abort()'
p1750
S'284'
p1751
tp1752
asS'generic-vector-clocks-hips22-supplemental/source/tests/OverlapChecks/overlapIbcast.c'
p1753
(lp1754
(S'MPI_Finalize()'
p1755
S'36'
p1756
tp1757
a(S'MPI_Type_extent()'
p1758
S'52'
p1759
tp1760
a(S'MPI_Type_commit()'
p1761
S'56'
p1762
tp1763
a(S'MPI_Ibcast()'
p1764
S'61'
p1765
tp1766
a(S'MPI_Waitall()'
p1767
S'81'
p1768
tp1769
a(S'MPI_Type_free()'
p1770
S'85'
p1771
tp1772
a(S'MPI_Type_free()'
p1773
S'86'
p1774
tp1775
asS'generic-vector-clocks-hips22-supplemental/source/tests/DeadlockDetection/DeadlockDetection/waitanyDl.c'
p1776
(lp1777
(S'MPI_Init()'
p1778
S'37'
p1779
tp1780
a(S'MPI_Finalize()'
p1781
S'45'
p1782
tp1783
asS'generic-vector-clocks-hips22-supplemental/source/tests/DatatypeChecks/NotValidForCommit_MpiDatatypeNull.cpp'
p1784
(lp1785
(S'MPI_Type_commit()'
p1786
S'43'
p1787
tp1788
asS'generic-vector-clocks-hips22-supplemental/source/tests/CommChecks/DirectionGreaterNDimsNoError.cpp'
p1789
(lp1790
(S'MPI_Finalize()'
p1791
S'40'
p1792
tp1793
a(S'MPI_Cart_create()'
p1794
S'56'
p1795
tp1796
a(S'MPI_Cart_shift()'
p1797
S'57'
p1798
tp1799
a(S'MPI_Comm_free()'
p1800
S'59'
p1801
tp1802
asS'generic-vector-clocks-hips22-supplemental/source/tests/BasicChecks/IntegerNegativeProcNullAnySourceNoError.cpp'
p1803
(lp1804
(S'MPI_Finalize()'
p1805
S'39'
p1806
tp1807
a(S'MPI_Reduce()'
p1808
S'47'
p1809
tp1810
asS'generic-vector-clocks-hips22-supplemental/source/tests/MpiTSan/irecv.c'
p1811
(lp1812
(S'MPI_Init_thread()'
p1813
S'31'
p1814
tp1815
a(S'MPI_Bcast()'
p1816
S'34'
p1817
tp1818
a(S'MPI_Abort()'
p1819
S'38'
p1820
tp1821
a(S'MPI_Comm_size()'
p1822
S'40'
p1823
tp1824
a(S'MPI_Comm_rank()'
p1825
S'41'
p1826
tp1827
a(S'MPI_Isend()'
p1828
S'43'
p1829
tp1830
a(S'MPI_Irecv()'
p1831
S'52'
p1832
tp1833
a(S'MPI_Wait()'
p1834
S'53'
p1835
tp1836
a(S'MPI_Wait()'
p1837
S'56'
p1838
tp1839
a(S'MPI_Finalize()'
p1840
S'57'
p1841
tp1842
asS'generic-vector-clocks-hips22-supplemental/source/tests/DatatypeImplementation/treeRecursion4.c'
p1843
(lp1844
(S'MPI_Init()'
p1845
S'24'
p1846
tp1847
a(S'MPI_Type_extent()'
p1848
S'37'
p1849
tp1850
a(S'MPI_Type_free()'
p1851
S'53'
p1852
tp1853
asS'generic-vector-clocks-hips22-supplemental/source/tests/DeadlockDetection/P2PMatch/complexNoLoss.c'
p1854
(lp1855
(S'MPI_Init()'
p1856
S'48'
p1857
tp1858
a(S'MPI_Finalize()'
p1859
S'56'
p1860
tp1861
asS'generic-vector-clocks-hips22-supplemental/source/tests/DeadlockDetection/CollectiveMatch/collBcastNoError2.cpp'
p1862
(lp1863
(S'MPI_Type_contiguous()'
p1864
S'51'
p1865
tp1866
a(S'MPI_Type_commit()'
p1867
S'52'
p1868
tp1869
a(S'MPI_Bcast()'
p1870
S'57'
p1871
tp1872
a(S'MPI_Type_free()'
p1873
S'59'
p1874
tp1875
asS'generic-vector-clocks-hips22-supplemental/source/tests/CommChecks/IntegerArrayProductGreaterCommSizeError.cpp'
p1876
(lp1877
(S'MPI_Finalize()'
p1878
S'42'
p1879
tp1880
a(S'MPI_Cart_create()'
p1881
S'58'
p1882
tp1883
a(S'MPI_Comm_free()'
p1884
S'60'
p1885
tp1886
asS'generic-vector-clocks-hips22-supplemental/source/tests/CommChecks/CommIsNullNoWarning.cpp'
p1887
(lp1888
(S'MPI_Finalize()'
p1889
S'37'
p1890
tp1891
a(S'MPI_Comm_split()'
p1892
S'47'
p1893
tp1894
a(S'MPI_Comm_compare()'
p1895
S'49'
p1896
tp1897
a(S'MPI_Comm_free()'
p1898
S'51'
p1899
tp1900
asS'generic-vector-clocks-hips22-supplemental/source/externals/GTI/cmakemodules/FeatureTests/ft_mpi_comm_create_errhandler.cpp'
p1901
(lp1902
(S'MPI_Comm_create_errhandler()'
p1903
S'20'
p1904
tp1905
asS'generic-vector-clocks-hips22-supplemental/source/tests/OnlyOnRootCondition/OnlyOnRoot_IntegrityNegativeArrayError.cpp'
p1906
(lp1907
(S'MPI_Finalize()'
p1908
S'43'
p1909
tp1910
a(S'MPI_Gatherv()'
p1911
S'58'
p1912
tp1913
asS'generic-vector-clocks-hips22-supplemental/source/externals/GTI/externals/PnMPI/src/pnmpi/debug/print_error.c'
p1914
(lp1915
(S'MPI_Abort()'
p1916
S'57'
p1917
tp1918
asS'generic-vector-clocks-hips22-supplemental/source/tests/OnlyOnRootCondition/OnlyOnRoot_ScatterWarning.cpp'
p1919
(lp1920
(S'MPI_Finalize()'
p1921
S'44'
p1922
tp1923
a(S'MPI_Scatter()'
p1924
S'57'
p1925
tp1926
asS'generic-vector-clocks-hips22-supplemental/source/tests/BasicChecks/GroupRangeNoError.cpp'
p1927
(lp1928
(S'MPI_Finalize()'
p1929
S'40'
p1930
tp1931
a(S'MPI_Comm_group()'
p1932
S'50'
p1933
tp1934
a(S'MPI_Group_range_excl()'
p1935
S'57'
p1936
tp1937
a(S'MPI_Group_free()'
p1938
S'59'
p1939
tp1940
a(S'MPI_Group_free()'
p1941
S'60'
p1942
tp1943
asS'generic-vector-clocks-hips22-supplemental/source/tests/FortranTests/datatype_fortran.f'
p1944
(lp1945
(S'MPI_INIT()'
p1946
S'39'
p1947
tp1948
a(S'MPI_COMM_RANK()'
p1949
S'41'
p1950
tp1951
a(S'MPI_COMM_SIZE()'
p1952
S'42'
p1953
tp1954
a(S'MPI_TYPE_CONTIGUOUS()'
p1955
S'53'
p1956
tp1957
a(S'MPI_TYPE_COMMIT()'
p1958
S'54'
p1959
tp1960
a(S'MPI_SEND()'
p1961
S'59'
p1962
tp1963
a(S'MPI_IRECV()'
p1964
S'65'
p1965
tp1966
a(S'MPI_WAIT()'
p1967
S'68'
p1968
tp1969
a(S'MPI_TYPE_FREE()'
p1970
S'73'
p1971
tp1972
a(S'MPI_FINALIZE()'
p1973
S'77'
p1974
tp1975
asS'generic-vector-clocks-hips22-supplemental/source/tests/BasicChecks/OpIsNullError.cpp'
p1976
(lp1977
(S'MPI_Finalize()'
p1978
S'42'
p1979
tp1980
a(S'MPI_Op_free()'
p1981
S'51'
p1982
tp1983
asS'generic-vector-clocks-hips22-supplemental/source/tests/DeadlockDetection/DeadlockDetection/recvDl.c'
p1984
(lp1985
(S'MPI_Init()'
p1986
S'35'
p1987
tp1988
a(S'MPI_Finalize()'
p1989
S'43'
p1990
tp1991
asS'generic-vector-clocks-hips22-supplemental/source/externals/GTI/externals/wrap/wrap.py'
p1992
(lp1993
(S'X_MPI_F_STATUS_SIZE()'
p1994
S'133'
p1995
tp1996
a(S'X_MPI_F_STATUS_SIZE()'
p1997
S'137'
p1998
tp1999
asS'generic-vector-clocks-hips22-supplemental/source/tests/LeakChecks/LeakCommError.c'
p2000
(lp2001
(S'MPI_Finalize()'
p2002
S'41'
p2003
tp2004
asS'generic-vector-clocks-hips22-supplemental/source/tests/BasicChecks/IntegerZeroWarning.cpp'
p2005
(lp2006
(S'MPI_Finalize()'
p2007
S'41'
p2008
tp2009
asS'generic-vector-clocks-hips22-supplemental/source/tests/GroupChecks/GroupNullError.cpp'
p2010
(lp2011
(S'MPI_Finalize()'
p2012
S'42'
p2013
tp2014
a(S'MPI_Comm_create()'
p2015
S'56'
p2016
tp2017
a(S'MPI_Comm_free()'
p2018
S'60'
p2019
tp2020
asS'generic-vector-clocks-hips22-supplemental/source/externals/GTI/externals/PnMPI/src/modules/metrics/timing.c.w'
p2021
(lp2022
(S'X_MPI_COMM_WORLD()'
p2023
S'274'
p2024
tp2025
asS'generic-vector-clocks-hips22-supplemental/source/tests/VectorClock/Collective/VCCollNonblockingAllToOne.cpp'
p2026
(lp2027
(S'MPI_Finalize()'
p2028
S'49'
p2029
tp2030
a(S'MPI_Comm_group()'
p2031
S'56'
p2032
tp2033
a(S'MPI_Group_incl()'
p2034
S'57'
p2035
tp2036
a(S'MPI_Comm_create()'
p2037
S'58'
p2038
tp2039
a(S'MPI_Reduce()'
p2040
S'63'
p2041
tp2042
a(S'MPI_Reduce()'
p2043
S'65'
p2044
tp2045
a(S'MPI_Reduce()'
p2046
S'68'
p2047
tp2048
a(S'MPI_Send()'
p2049
S'71'
p2050
tp2051
a(S'MPI_Recv()'
p2052
S'73'
p2053
tp2054
a(S'MPI_Send()'
p2055
S'76'
p2056
tp2057
a(S'MPI_Recv()'
p2058
S'78'
p2059
tp2060
a(S'MPI_Ireduce()'
p2061
S'80'
p2062
tp2063
a(S'MPI_Send()'
p2064
S'84'
p2065
tp2066
a(S'MPI_Recv()'
p2067
S'86'
p2068
tp2069
a(S'MPI_Wait()'
p2070
S'88'
p2071
tp2072
asS'generic-vector-clocks-hips22-supplemental/source/tests/DeadlockDetection/DeadlockDetection/waitallStatusesIgnore.c'
p2073
(lp2074
(S'MPI_Init()'
p2075
S'26'
p2076
tp2077
a(S'MPI_Finalize()'
p2078
S'34'
p2079
tp2080
asS'generic-vector-clocks-hips22-supplemental/source/tests/DeadlockDetection/CollectiveMatch/collAlltoallwTypeLenErrorLarge.cpp'
p2081
(lp2082
(S'MPI_Type_contiguous()'
p2083
S'78'
p2084
tp2085
a(S'MPI_Type_commit()'
p2086
S'79'
p2087
tp2088
a(S'MPI_Alltoallw()'
p2089
S'87'
p2090
tp2091
a(S'MPI_Type_free()'
p2092
S'91'
p2093
tp2094
asS'generic-vector-clocks-hips22-supplemental/source/tests/DatatypeImplementation/simpleHVector.c'
p2095
(lp2096
(S'MPI_Init()'
p2097
S'24'
p2098
tp2099
a(S'MPI_Type_free()'
p2100
S'33'
p2101
tp2102
asS'generic-vector-clocks-hips22-supplemental/source/tests/DeadlockDetection/DeadlockDetection/waitanyNoDl.c'
p2103
(lp2104
(S'MPI_Init()'
p2105
S'35'
p2106
tp2107
a(S'MPI_Finalize()'
p2108
S'43'
p2109
tp2110
asS'generic-vector-clocks-hips22-supplemental/source/tests/DeadlockDetection/CollectiveMatch/collAlltoallwNoError.cpp'
p2111
(lp2112
(S'MPI_Type_contiguous()'
p2113
S'71'
p2114
tp2115
a(S'MPI_Type_commit()'
p2116
S'72'
p2117
tp2118
a(S'MPI_Alltoallw()'
p2119
S'77'
p2120
tp2121
a(S'MPI_Type_free()'
p2122
S'81'
p2123
tp2124
asS'generic-vector-clocks-hips22-supplemental/source/tests/BasicChecks/IntegerNegativeNotProcNullError.cpp'
p2125
(lp2126
(S'MPI_Finalize()'
p2127
S'42'
p2128
tp2129
asS'generic-vector-clocks-hips22-supplemental/source/tests/OverlapChecks/overlapBcast.c'
p2130
(lp2131
(S'MPI_Finalize()'
p2132
S'41'
p2133
tp2134
a(S'MPI_Type_extent()'
p2135
S'56'
p2136
tp2137
a(S'MPI_Type_commit()'
p2138
S'65'
p2139
tp2140
a(S'MPI_Bcast()'
p2141
S'86'
p2142
tp2143
a(S'MPI_Waitall()'
p2144
S'90'
p2145
tp2146
a(S'MPI_Type_free()'
p2147
S'94'
p2148
tp2149
a(S'MPI_Type_free()'
p2150
S'95'
p2151
tp2152
asS'generic-vector-clocks-hips22-supplemental/source/tests/BasicChecks/OpIsNotKnownError.cpp'
p2153
(lp2154
(S'MPI_Finalize()'
p2155
S'50'
p2156
tp2157
a(S'MPI_Op_create()'
p2158
S'60'
p2159
tp2160
a(S'MPI_Op_free()'
p2161
S'66'
p2162
tp2163
a(S'MPI_Op_free()'
p2164
S'69'
p2165
tp2166
asS'generic-vector-clocks-hips22-supplemental/source/tests/DeadlockDetection/CollectiveMatch/collBcastRootMismatchError.cpp'
p2167
(lp2168
(S'MPI_Type_contiguous()'
p2169
S'54'
p2170
tp2171
a(S'MPI_Type_commit()'
p2172
S'55'
p2173
tp2174
a(S'MPI_Bcast()'
p2175
S'60'
p2176
tp2177
a(S'MPI_Type_free()'
p2178
S'62'
p2179
tp2180
asS'generic-vector-clocks-hips22-supplemental/source/tests/CommChecks/MaxEdgesToSmallWarning.cpp'
p2181
(lp2182
(S'MPI_Finalize()'
p2183
S'45'
p2184
tp2185
a(S'MPI_Graph_create()'
p2186
S'56'
p2187
tp2188
a(S'MPI_Graph_get()'
p2189
S'60'
p2190
tp2191
a(S'MPI_Comm_free()'
p2192
S'64'
p2193
tp2194
asS'generic-vector-clocks-hips22-supplemental/source/tests/DeadlockDetection/DeadlockDetection/waitAnySourceEx1NoDl.c'
p2195
(lp2196
(S'MPI_Init()'
p2197
S'36'
p2198
tp2199
a(S'MPI_Finalize()'
p2200
S'44'
p2201
tp2202
asS'generic-vector-clocks-hips22-supplemental/source/tests/CommChecks/CommNotGraphError.cpp'
p2203
(lp2204
(S'MPI_Finalize()'
p2205
S'43'
p2206
tp2207
a(S'MPI_Graph_create()'
p2208
S'55'
p2209
tp2210
a(S'MPI_Graph_neighbors_count()'
p2211
S'59'
p2212
tp2213
a(S'MPI_Comm_free()'
p2214
S'63'
p2215
tp2216
asS'generic-vector-clocks-hips22-supplemental/source/tests/BufferChecks/BufferReattachError.cpp'
p2217
(lp2218
(S'MPI_Finalize()'
p2219
S'42'
p2220
tp2221
a(S'MPI_Pack_size()'
p2222
S'55'
p2223
tp2224
a(S'MPI_Buffer_attach()'
p2225
S'57'
p2226
tp2227
a(S'MPI_Buffer_attach()'
p2228
S'58'
p2229
tp2230
a(S'MPI_Bsend()'
p2231
S'59'
p2232
tp2233
a(S'MPI_Barrier()'
p2234
S'60'
p2235
tp2236
a(S'MPI_Buffer_detach()'
p2237
S'61'
p2238
tp2239
a(S'MPI_Barrier()'
p2240
S'68'
p2241
tp2242
a(S'MPI_Recv()'
p2243
S'69'
p2244
tp2245
asS'generic-vector-clocks-hips22-supplemental/source/tests/BasicChecks/IntegerNotOneOrZeroNoWarning.cpp'
p2246
(lp2247
(S'MPI_Finalize()'
p2248
S'39'
p2249
tp2250
a(S'MPI_Cart_create()'
p2251
S'57'
p2252
tp2253
a(S'MPI_Comm_free()'
p2254
S'58'
p2255
tp2256
asS'generic-vector-clocks-hips22-supplemental/source/tests/CommChecks/CommNotCartError.cpp'
p2257
(lp2258
(S'MPI_Finalize()'
p2259
S'42'
p2260
tp2261
a(S'MPI_Cart_create()'
p2262
S'58'
p2263
tp2264
a(S'MPI_Cart_get()'
p2265
S'59'
p2266
tp2267
a(S'MPI_Comm_free()'
p2268
S'62'
p2269
tp2270
asS'generic-vector-clocks-hips22-supplemental/source/externals/GTI/externals/PnMPI/externals/wrap/osh_wrap.py'
p2271
(lp2272
(S'X_MPI_F_STATUS_SIZE()'
p2273
S'139'
p2274
tp2275
a(S'X_MPI_F_STATUS_SIZE()'
p2276
S'143'
p2277
tp2278
asS'generic-vector-clocks-hips22-supplemental/source/tests/DeadlockDetection/CollectiveMatch/collAllgatherNoErrorEx.cpp'
p2279
(lp2280
(S'MPI_Type_contiguous()'
p2281
S'52'
p2282
tp2283
a(S'MPI_Type_commit()'
p2284
S'53'
p2285
tp2286
a(S'MPI_Allgather()'
p2287
S'60'
p2288
tp2289
a(S'MPI_Type_free()'
p2290
S'63'
p2291
tp2292
asS'generic-vector-clocks-hips22-supplemental/source/tests/DeadlockDetection/DeadlockView/DLViewMultiLocationInMsgQueue.c'
p2293
(lp2294
(S'MPI_Init()'
p2295
S'32'
p2296
tp2297
a(S'MPI_Finalize()'
p2298
S'40'
p2299
tp2300
asS'generic-vector-clocks-hips22-supplemental/source/tests/DatatypeChecks/NotValidForCommit_Undefined.cpp'
p2301
(lp2302
(S'MPI_Type_contiguous()'
p2303
S'44'
p2304
tp2305
a(S'MPI_Type_free()'
p2306
S'46'
p2307
tp2308
a(S'MPI_Type_commit()'
p2309
S'48'
p2310
tp2311
asS'generic-vector-clocks-hips22-supplemental/source/tests/DeadlockDetection/P2PMatch/interCommNoLoss.c'
p2312
(lp2313
(S'MPI_Init()'
p2314
S'38'
p2315
tp2316
a(S'MPI_Finalize()'
p2317
S'47'
p2318
tp2319
asS'generic-vector-clocks-hips22-supplemental/source/tests/DeadlockDetection/CollectiveMatch/collOpMissmatchReduceError.c'
p2320
(lp2321
(S'MPI_Init()'
p2322
S'38'
p2323
tp2324
a(S'MPI_Finalize()'
p2325
S'46'
p2326
tp2327
asS'generic-vector-clocks-hips22-supplemental/source/tests/BasicChecks/OpIsPredefinedError.cpp'
p2328
(lp2329
(S'MPI_Finalize()'
p2330
S'43'
p2331
tp2332
a(S'MPI_Op_free()'
p2333
S'57'
p2334
tp2335
asS'generic-vector-clocks-hips22-supplemental/source/tests/BasicChecks/IntegerZeroNoError.cpp'
p2336
(lp2337
(S'MPI_Finalize()'
p2338
S'40'
p2339
tp2340
a(S'MPI_Cart_create()'
p2341
S'59'
p2342
tp2343
a(S'MPI_Cart_shift()'
p2344
S'60'
p2345
tp2346
a(S'MPI_Comm_free()'
p2347
S'61'
p2348
tp2349
asS'generic-vector-clocks-hips22-supplemental/source/tests/CommChecks/RootNotInCommError.cpp'
p2350
(lp2351
(S'MPI_Finalize()'
p2352
S'42'
p2353
tp2354
a(S'MPI_Reduce()'
p2355
S'50'
p2356
tp2357
asS'generic-vector-clocks-hips22-supplemental/source/tests/DeadlockDetection/CollectiveMatch/collScatterNoErrorLarge.cpp'
p2358
(lp2359
(S'MPI_Type_contiguous()'
p2360
S'53'
p2361
tp2362
a(S'MPI_Type_commit()'
p2363
S'54'
p2364
tp2365
a(S'MPI_Scatter()'
p2366
S'59'
p2367
tp2368
a(S'MPI_Type_free()'
p2369
S'61'
p2370
tp2371
asS'generic-vector-clocks-hips22-supplemental/source/tests/BasicChecks/IntegerZeroArrayWarning.cpp'
p2372
(lp2373
(S'MPI_Finalize()'
p2374
S'42'
p2375
tp2376
a(S'MPI_Gatherv()'
p2377
S'57'
p2378
tp2379
asS'generic-vector-clocks-hips22-supplemental/source/tests/DeadlockDetection/DeadlockDetection/reduceBcastCommNoDl.c'
p2380
(lp2381
(S'MPI_Finalize()'
p2382
S'62'
p2383
tp2384
a(S'MPI_Comm_free()'
p2385
S'115'
p2386
tp2387
a(S'MPI_Group_free()'
p2388
S'119'
p2389
tp2390
a(S'MPI_Group_free()'
p2391
S'120'
p2392
tp2393
a(S'MPI_Finalize()'
p2394
S'126'
p2395
tp2396
asS'generic-vector-clocks-hips22-supplemental/source/tests/DatatypeTrack/example_4_3.c'
p2397
(lp2398
(S'MPI_Init()'
p2399
S'29'
p2400
tp2401
asS'generic-vector-clocks-hips22-supplemental/source/tests/DeadlockDetection/CollectiveMatch/collReduceScatterTypeLenError.cpp'
p2402
(lp2403
(S'MPI_Type_contiguous()'
p2404
S'56'
p2405
tp2406
a(S'MPI_Type_commit()'
p2407
S'57'
p2408
tp2409
a(S'MPI_Reduce_scatter()'
p2410
S'65'
p2411
tp2412
a(S'MPI_Type_free()'
p2413
S'67'
p2414
tp2415
asS'generic-vector-clocks-hips22-supplemental/source/tests/CommChecks/CommIsNullWarning.cpp'
p2416
(lp2417
(S'MPI_Finalize()'
p2418
S'41'
p2419
tp2420
a(S'MPI_Comm_compare()'
p2421
S'52'
p2422
tp2423
asS'generic-vector-clocks-hips22-supplemental/source/tests/DatatypeChecks/ArrayNotValidForCreate_MpiDatatypeNull.cpp'
p2424
(lp2425
(S'MPI_Type_struct()'
p2426
S'46'
p2427
tp2428
a(S'MPI_Type_free()'
p2429
S'47'
p2430
tp2431
asS'generic-vector-clocks-hips22-supplemental/source/tests/DeadlockDetection/DeadlockDetection/persistentDl.c'
p2432
(lp2433
(S'MPI_Init()'
p2434
S'39'
p2435
tp2436
a(S'MPI_Finalize()'
p2437
S'47'
p2438
tp2439
asS'generic-vector-clocks-hips22-supplemental/source/tests/ErrorFilter/single_error.c'
p2440
(lp2441
(S'MPI_Init()'
p2442
S'51'
p2443
tp2444
a(S'MPI_Comm_size()'
p2445
S'52'
p2446
tp2447
a(S'MPI_Comm_rank()'
p2448
S'53'
p2449
tp2450
a(S'MPI_Abort()'
p2451
S'57'
p2452
tp2453
a(S'MPI_Send()'
p2454
S'65'
p2455
tp2456
a(S'MPI_Recv()'
p2457
S'66'
p2458
tp2459
a(S'MPI_Recv()'
p2460
S'68'
p2461
tp2462
a(S'MPI_Send()'
p2463
S'69'
p2464
tp2465
a(S'MPI_Finalize()'
p2466
S'72'
p2467
tp2468
asS'generic-vector-clocks-hips22-supplemental/source/tests/DatatypeImplementation/simpleSubarray.c'
p2469
(lp2470
(S'MPI_Init()'
p2471
S'24'
p2472
tp2473
a(S'MPI_Type_free()'
p2474
S'37'
p2475
tp2476
asS'generic-vector-clocks-hips22-supplemental/source/tests/DeadlockDetection/CollectiveMatch/collScattervTypeLenErrorLarge.cpp'
p2477
(lp2478
(S'MPI_Type_contiguous()'
p2479
S'60'
p2480
tp2481
a(S'MPI_Type_commit()'
p2482
S'61'
p2483
tp2484
a(S'MPI_Scatterv()'
p2485
S'80'
p2486
tp2487
a(S'MPI_Scatterv()'
p2488
S'82'
p2489
tp2490
a(S'MPI_Scatterv()'
p2491
S'84'
p2492
tp2493
a(S'MPI_Type_free()'
p2494
S'86'
p2495
tp2496
asS'generic-vector-clocks-hips22-supplemental/source/tests/DeadlockDetection/CollectiveMatch/collGatherTypeLenError.c'
p2497
(lp2498
(S'MPI_Init()'
p2499
S'45'
p2500
tp2501
a(S'MPI_Finalize()'
p2502
S'53'
p2503
tp2504
asS'generic-vector-clocks-hips22-supplemental/source/tests/RequestChecks/RequestActiveRecvNoWarning.cpp'
p2505
(lp2506
(S'MPI_Finalize()'
p2507
S'41'
p2508
tp2509
a(S'MPI_Start()'
p2510
S'51'
p2511
tp2512
a(S'MPI_Start()'
p2513
S'57'
p2514
tp2515
a(S'MPI_Wait()'
p2516
S'58'
p2517
tp2518
asS'generic-vector-clocks-hips22-supplemental/source/tests/DeadlockDetection/NbcCollectiveMatch/nbcCollIbarrierWaitsomeDl.c'
p2519
(lp2520
(S'MPI_Init()'
p2521
S'39'
p2522
tp2523
a(S'MPI_Finalize()'
p2524
S'47'
p2525
tp2526
asS'generic-vector-clocks-hips22-supplemental/source/tests/ErrorFilter/errors_with_different_ids_2.c'
p2527
(lp2528
(S'MPI_Init()'
p2529
S'74'
p2530
tp2531
a(S'MPI_Comm_size()'
p2532
S'75'
p2533
tp2534
a(S'MPI_Comm_rank()'
p2535
S'76'
p2536
tp2537
a(S'MPI_Abort()'
p2538
S'79'
p2539
tp2540
a(S'MPI_Isend()'
p2541
S'94'
p2542
tp2543
a(S'MPI_Finalize()'
p2544
S'98'
p2545
tp2546
asS'generic-vector-clocks-hips22-supplemental/source/tests/BasicChecks/IntegerNotOneOrZeroWarning.cpp'
p2547
(lp2548
(S'MPI_Finalize()'
p2549
S'41'
p2550
tp2551
a(S'MPI_Cart_create()'
p2552
S'60'
p2553
tp2554
a(S'MPI_Comm_free()'
p2555
S'61'
p2556
tp2557
asS'generic-vector-clocks-hips22-supplemental/source/tests/VectorClock/Collective/VCCollBlockingOneToAll.cpp'
p2558
(lp2559
(S'MPI_Finalize()'
p2560
S'48'
p2561
tp2562
a(S'MPI_Comm_group()'
p2563
S'55'
p2564
tp2565
a(S'MPI_Group_incl()'
p2566
S'56'
p2567
tp2568
a(S'MPI_Comm_create()'
p2569
S'57'
p2570
tp2571
a(S'MPI_Group_translate_ranks()'
p2572
S'61'
p2573
tp2574
a(S'MPI_Bcast()'
p2575
S'63'
p2576
tp2577
a(S'MPI_Bcast()'
p2578
S'68'
p2579
tp2580
a(S'MPI_Bcast()'
p2581
S'75'
p2582
tp2583
a(S'MPI_Bcast()'
p2584
S'76'
p2585
tp2586
a(S'MPI_Bcast()'
p2587
S'79'
p2588
tp2589
a(S'MPI_Bcast()'
p2590
S'80'
p2591
tp2592
asS'generic-vector-clocks-hips22-supplemental/source/tests/IntegrityChecks/IntegrityIfNullStatusesError.cpp'
p2593
(lp2594
(S'MPI_Finalize()'
p2595
S'43'
p2596
tp2597
a(S'MPI_Irecv()'
p2598
S'58'
p2599
tp2600
a(S'MPI_Waitall()'
p2601
S'62'
p2602
tp2603
a(S'MPI_Send()'
p2604
S'71'
p2605
tp2606
asS'generic-vector-clocks-hips22-supplemental/source/tests/IntegrityChecks/IntegrityIfNullConditionNoError.cpp'
p2607
(lp2608
(S'MPI_Finalize()'
p2609
S'39'
p2610
tp2611
a(S'MPI_Cart_create()'
p2612
S'56'
p2613
tp2614
a(S'MPI_Comm_free()'
p2615
S'60'
p2616
tp2617
asS'generic-vector-clocks-hips22-supplemental/source/tests/DeadlockDetection/NbcCollectiveMatch/nbcCollIbcastStrideBufferNoError.c'
p2618
(lp2619
(S'MPI_Init()'
p2620
S'36'
p2621
tp2622
a(S'MPI_Finalize()'
p2623
S'44'
p2624
tp2625
asS'generic-vector-clocks-hips22-supplemental/source/tests/MpiTSan/recv.c'
p2626
(lp2627
(S'MPI_Init_thread()'
p2628
S'29'
p2629
tp2630
a(S'MPI_Abort()'
p2631
S'33'
p2632
tp2633
a(S'MPI_Comm_size()'
p2634
S'35'
p2635
tp2636
a(S'MPI_Comm_rank()'
p2637
S'36'
p2638
tp2639
a(S'MPI_Isend()'
p2640
S'38'
p2641
tp2642
a(S'MPI_Recv()'
p2643
S'46'
p2644
tp2645
a(S'MPI_Wait()'
p2646
S'49'
p2647
tp2648
a(S'MPI_Finalize()'
p2649
S'50'
p2650
tp2651
asS'generic-vector-clocks-hips22-supplemental/source/tests/VectorClock/Annotations/VCAnnotateProcessSignalWait.cpp'
p2652
(lp2653
(S'MPI_Init()'
p2654
S'27'
p2655
tp2656
a(S'MPI_Comm_rank()'
p2657
S'28'
p2658
tp2659
a(S'MPI_Comm_size()'
p2660
S'29'
p2661
tp2662
a(S'MPI_Finalize()'
p2663
S'42'
p2664
tp2665
asS'generic-vector-clocks-hips22-supplemental/source/tests/CommChecks/MaxneighborsToSmallWarning.cpp'
p2666
(lp2667
(S'MPI_Finalize()'
p2668
S'42'
p2669
tp2670
a(S'MPI_Graph_create()'
p2671
S'54'
p2672
tp2673
a(S'MPI_Graph_neighbors()'
p2674
S'58'
p2675
tp2676
a(S'MPI_Comm_free()'
p2677
S'62'
p2678
tp2679
asS'generic-vector-clocks-hips22-supplemental/source/tests/IntegrityChecks/IntegrityIfNullStatusError.cpp'
p2680
(lp2681
(S'MPI_Finalize()'
p2682
S'46'
p2683
tp2684
a(S'MPI_Send()'
p2685
S'57'
p2686
tp2687
a(S'MPI_Send()'
p2688
S'59'
p2689
tp2690
a(S'MPI_Recv()'
p2691
S'66'
p2692
tp2693
a(S'MPI_Recv()'
p2694
S'68'
p2695
tp2696
asS'generic-vector-clocks-hips22-supplemental/source/tests/BasicChecks/IntegerEntryGreaterEqualArrayNoError.cpp'
p2697
(lp2698
(S'MPI_Finalize()'
p2699
S'40'
p2700
tp2701
a(S'MPI_Graph_create()'
p2702
S'52'
p2703
tp2704
a(S'MPI_Comm_free()'
p2705
S'54'
p2706
tp2707
asS'generic-vector-clocks-hips22-supplemental/source/tests/GroupChecks/IntegerGreaterGrpSizeError.cpp'
p2708
(lp2709
(S'MPI_Finalize()'
p2710
S'43'
p2711
tp2712
a(S'MPI_Comm_group()'
p2713
S'53'
p2714
tp2715
a(S'MPI_Comm_group()'
p2716
S'54'
p2717
tp2718
a(S'MPI_Group_translate_ranks()'
p2719
S'62'
p2720
tp2721
a(S'MPI_Group_free()'
p2722
S'68'
p2723
tp2724
a(S'MPI_Group_free()'
p2725
S'73'
p2726
tp2727
asS'generic-vector-clocks-hips22-supplemental/source/tests/DeadlockDetection/NbcCollectiveMatch/nbcCollIbarrierWaitDl.c'
p2728
(lp2729
(S'MPI_Init()'
p2730
S'34'
p2731
tp2732
a(S'MPI_Finalize()'
p2733
S'42'
p2734
tp2735
asS'generic-vector-clocks-hips22-supplemental/source/tests/GroupChecks/RankFromRangesNotInGroupError.cpp'
p2736
(lp2737
(S'MPI_Finalize()'
p2738
S'42'
p2739
tp2740
a(S'MPI_Comm_group()'
p2741
S'50'
p2742
tp2743
a(S'MPI_Group_range_excl()'
p2744
S'54'
p2745
tp2746
a(S'MPI_Group_free()'
p2747
S'61'
p2748
tp2749
a(S'MPI_Group_free()'
p2750
S'66'
p2751
tp2752
asS'generic-vector-clocks-hips22-supplemental/source/tests/DeadlockDetection/P2PMatch/wcRecvNoLoss.c'
p2753
(lp2754
(S'MPI_Init()'
p2755
S'35'
p2756
tp2757
a(S'MPI_Finalize()'
p2758
S'43'
p2759
tp2760
asS'generic-vector-clocks-hips22-supplemental/source/externals/GTI/externals/PnMPI/tests/src/test-mpi.f'
p2761
(lp2762
(S'MPI_INIT()'
p2763
S'35'
p2764
tp2765
a(S'MPI_FINALIZE()'
p2766
S'36'
p2767
tp2768
asS'generic-vector-clocks-hips22-supplemental/source/tests/DeadlockDetection/CollectiveMatch/collGatherNoError.c'
p2769
(lp2770
(S'MPI_Init()'
p2771
S'39'
p2772
tp2773
a(S'MPI_Finalize()'
p2774
S'47'
p2775
tp2776
asS'generic-vector-clocks-hips22-supplemental/source/tests/DatatypeChecks/NotValidForCommunication_NotCommited.cpp'
p2777
(lp2778
(S'MPI_Type_contiguous()'
p2779
S'42'
p2780
tp2781
a(S'MPI_Bcast()'
p2782
S'43'
p2783
tp2784
a(S'MPI_Type_free()'
p2785
S'45'
p2786
tp2787
asS'generic-vector-clocks-hips22-supplemental/source/tests/BasicChecks/IntegerZeroError.cpp'
p2788
(lp2789
(S'MPI_Finalize()'
p2790
S'41'
p2791
tp2792
a(S'MPI_Cart_create()'
p2793
S'58'
p2794
tp2795
a(S'MPI_Cart_shift()'
p2796
S'59'
p2797
tp2798
a(S'MPI_Comm_free()'
p2799
S'60'
p2800
tp2801
asS'generic-vector-clocks-hips22-supplemental/source/tests/RequestChecks/RequestInActiveWarning.cpp'
p2802
(lp2803
(S'MPI_Finalize()'
p2804
S'42'
p2805
tp2806
a(S'MPI_Wait()'
p2807
S'52'
p2808
tp2809
asS'generic-vector-clocks-hips22-supplemental/source/utility/printMemoryusage.c'
p2810
(lp2811
(S'MPI_Comm_rank()'
p2812
S'32'
p2813
tp2814
asS'generic-vector-clocks-hips22-supplemental/source/tests/BasicChecks/IntegerNegativeArrayError.cpp'
p2815
(lp2816
(S'MPI_Finalize()'
p2817
S'41'
p2818
tp2819
a(S'MPI_Cart_create()'
p2820
S'60'
p2821
tp2822
a(S'MPI_Comm_free()'
p2823
S'61'
p2824
tp2825
asS'generic-vector-clocks-hips22-supplemental/source/tests/RequestChecks/RequestPersistentButInactiveError.cpp'
p2826
(lp2827
(S'MPI_Finalize()'
p2828
S'43'
p2829
tp2830
a(S'MPI_Cancel()'
p2831
S'53'
p2832
tp2833
a(S'MPI_Start()'
p2834
S'54'
p2835
tp2836
a(S'MPI_Irecv()'
p2837
S'59'
p2838
tp2839
a(S'MPI_Wait()'
p2840
S'62'
p2841
tp2842
asS'generic-vector-clocks-hips22-supplemental/source/tests/RequestTrack/testRequestTrack.c'
p2843
(lp2844
(S'MPI_Init()'
p2845
S'64'
p2846
tp2847
asS'generic-vector-clocks-hips22-supplemental/source/tests/OverlapChecks/overlapAllreduce.c'
p2848
(lp2849
(S'MPI_Finalize()'
p2850
S'45'
p2851
tp2852
a(S'MPI_Type_extent()'
p2853
S'60'
p2854
tp2855
a(S'MPI_Type_commit()'
p2856
S'69'
p2857
tp2858
a(S'MPI_Allreduce()'
p2859
S'90'
p2860
tp2861
a(S'MPI_Waitall()'
p2862
S'94'
p2863
tp2864
a(S'MPI_Type_free()'
p2865
S'98'
p2866
tp2867
a(S'MPI_Type_free()'
p2868
S'99'
p2869
tp2870
asS'generic-vector-clocks-hips22-supplemental/source/externals/GTI/tests/example-analysis-specification.xml'
p2871
(lp2872
(S'MPI_Comm_size()'
p2873
S'77'
p2874
tp2875
asS'generic-vector-clocks-hips22-supplemental/source/tests/TypeMatch/MatchIndexedLengthError.c'
p2876
(lp2877
(S'MPI_Init()'
p2878
S'45'
p2879
tp2880
a(S'MPI_Finalize()'
p2881
S'53'
p2882
tp2883
a(S'MPI_Type_free()'
p2884
S'72'
p2885
tp2886
asS'generic-vector-clocks-hips22-supplemental/source/tests/DeadlockDetection/CollectiveMatch/collExscanTypeLenError.cpp'
p2887
(lp2888
(S'MPI_Type_contiguous()'
p2889
S'55'
p2890
tp2891
a(S'MPI_Type_commit()'
p2892
S'56'
p2893
tp2894
a(S'MPI_Exscan()'
p2895
S'61'
p2896
tp2897
a(S'MPI_Type_free()'
p2898
S'63'
p2899
tp2900
asS'generic-vector-clocks-hips22-supplemental/source/tests/DeadlockDetection/DeadlockDetection/waitallAnySourceDl.c'
p2901
(lp2902
(S'MPI_Init()'
p2903
S'39'
p2904
tp2905
a(S'MPI_Finalize()'
p2906
S'47'
p2907
tp2908
asS'generic-vector-clocks-hips22-supplemental/source/tests/DeadlockDetection/CollectiveMatch/collAlltoallvNoError2.cpp'
p2909
(lp2910
(S'MPI_Type_contiguous()'
p2911
S'68'
p2912
tp2913
a(S'MPI_Type_commit()'
p2914
S'69'
p2915
tp2916
a(S'MPI_Alltoallv()'
p2917
S'78'
p2918
tp2919
a(S'MPI_Type_free()'
p2920
S'80'
p2921
tp2922
asS'generic-vector-clocks-hips22-supplemental/source/tests/BufferChecks/BufferedSendNotAttachedError.cpp'
p2923
(lp2924
(S'MPI_Finalize()'
p2925
S'42'
p2926
tp2927
a(S'MPI_Pack_size()'
p2928
S'54'
p2929
tp2930
a(S'MPI_Bsend()'
p2931
S'57'
p2932
tp2933
a(S'MPI_Barrier()'
p2934
S'58'
p2935
tp2936
a(S'MPI_Buffer_detach()'
p2937
S'59'
p2938
tp2939
a(S'MPI_Barrier()'
p2940
S'66'
p2941
tp2942
a(S'MPI_Recv()'
p2943
S'67'
p2944
tp2945
asS'generic-vector-clocks-hips22-supplemental/source/tests/CommChecks/CommHasTopologyNoWarning.cpp'
p2946
(lp2947
(S'MPI_Finalize()'
p2948
S'39'
p2949
tp2950
a(S'MPI_Cart_create()'
p2951
S'55'
p2952
tp2953
a(S'MPI_Comm_free()'
p2954
S'58'
p2955
tp2956
asS'generic-vector-clocks-hips22-supplemental/source/tests/FortranTests/communicator_fortran.f'
p2957
(lp2958
(S'MPI_INIT()'
p2959
S'41'
p2960
tp2961
a(S'MPI_COMM_RANK()'
p2962
S'43'
p2963
tp2964
a(S'MPI_COMM_SIZE()'
p2965
S'44'
p2966
tp2967
a(S'MPI_CART_CREATE()'
p2968
S'59'
p2969
tp2970
a(S'MPI_SEND()'
p2971
S'65'
p2972
tp2973
a(S'MPI_RECV()'
p2974
S'71'
p2975
tp2976
a(S'MPI_COMM_FREE()'
p2977
S'75'
p2978
tp2979
a(S'MPI_FINALIZE()'
p2980
S'80'
p2981
tp2982
asS'generic-vector-clocks-hips22-supplemental/source/tests/BasicChecks/IntegerNegativeError.cpp'
p2983
(lp2984
(S'MPI_Finalize()'
p2985
S'42'
p2986
tp2987
asS'generic-vector-clocks-hips22-supplemental/source/tests/DatatypeTrack/example_4_9.c'
p2988
(lp2989
(S'MPI_Init()'
p2990
S'29'
p2991
tp2992
asS'generic-vector-clocks-hips22-supplemental/source/tests/DeadlockDetection/CollectiveMatch/collScattervTypeLenError.cpp'
p2993
(lp2994
(S'MPI_Type_contiguous()'
p2995
S'61'
p2996
tp2997
a(S'MPI_Type_commit()'
p2998
S'62'
p2999
tp3000
a(S'MPI_Scatterv()'
p3001
S'70'
p3002
tp3003
a(S'MPI_Type_free()'
p3004
S'72'
p3005
tp3006
asS'generic-vector-clocks-hips22-supplemental/source/tests/DeadlockDetection/DeadlockDetection/commNoDl.c'
p3007
(lp3008
(S'MPI_Init()'
p3009
S'36'
p3010
tp3011
a(S'MPI_Finalize()'
p3012
S'44'
p3013
tp3014
asS'generic-vector-clocks-hips22-supplemental/source/tests/DeadlockDetection/CollectiveMatch/collAllreduceNoError2.cpp'
p3015
(lp3016
(S'MPI_Type_contiguous()'
p3017
S'52'
p3018
tp3019
a(S'MPI_Type_commit()'
p3020
S'53'
p3021
tp3022
a(S'MPI_Allreduce()'
p3023
S'58'
p3024
tp3025
a(S'MPI_Type_free()'
p3026
S'60'
p3027
tp3028
asS'generic-vector-clocks-hips22-supplemental/source/tests/TypeMatch/MatchHindexedNoError.c'
p3029
(lp3030
(S'MPI_Init()'
p3031
S'43'
p3032
tp3033
a(S'MPI_Finalize()'
p3034
S'51'
p3035
tp3036
a(S'MPI_Type_free()'
p3037
S'68'
p3038
tp3039
asS'generic-vector-clocks-hips22-supplemental/source/tests/DeadlockDetection/CollectiveMatch/collGatherNoError2.cpp'
p3040
(lp3041
(S'MPI_Type_contiguous()'
p3042
S'51'
p3043
tp3044
a(S'MPI_Type_commit()'
p3045
S'52'
p3046
tp3047
a(S'MPI_Gather()'
p3048
S'59'
p3049
tp3050
a(S'MPI_Gather()'
p3051
S'63'
p3052
tp3053
a(S'MPI_Type_free()'
p3054
S'66'
p3055
tp3056
asS'generic-vector-clocks-hips22-supplemental/source/tests/TypeMatch/MatchVectorLengthError.c'
p3057
(lp3058
(S'MPI_Init()'
p3059
S'43'
p3060
tp3061
a(S'MPI_Finalize()'
p3062
S'51'
p3063
tp3064
a(S'MPI_Type_free()'
p3065
S'70'
p3066
tp3067
asS'generic-vector-clocks-hips22-supplemental/source/tests/DatatypeTrack/example_4_5.c'
p3068
(lp3069
(S'MPI_Init()'
p3070
S'29'
p3071
tp3072
asS'generic-vector-clocks-hips22-supplemental/source/tests/DatatypeImplementation/simpleIndexedBlock.c'
p3073
(lp3074
(S'MPI_Init()'
p3075
S'25'
p3076
tp3077
a(S'MPI_Type_free()'
p3078
S'36'
p3079
tp3080
asS'generic-vector-clocks-hips22-supplemental/source/tests/DeadlockDetection/DeadlockDetection/waitallDl.c'
p3081
(lp3082
(S'MPI_Init()'
p3083
S'38'
p3084
tp3085
a(S'MPI_Finalize()'
p3086
S'46'
p3087
tp3088
asS'generic-vector-clocks-hips22-supplemental/source/tests/DeadlockDetection/DeadlockDetection/sendDl.c'
p3089
(lp3090
(S'MPI_Init()'
p3091
S'34'
p3092
tp3093
a(S'MPI_Finalize()'
p3094
S'42'
p3095
tp3096
asS'generic-vector-clocks-hips22-supplemental/source/tests/VectorClock/PointToPoint/VCP2PNonblockingAsync.cpp'
p3097
(lp3098
(S'MPI_Finalize()'
p3099
S'45'
p3100
tp3101
a(S'MPI_Isend()'
p3102
S'51'
p3103
tp3104
a(S'MPI_Irecv()'
p3105
S'54'
p3106
tp3107
a(S'MPI_Waitall()'
p3108
S'56'
p3109
tp3110
a(S'MPI_Waitall()'
p3111
S'57'
p3112
tp3113
a(S'MPI_Irecv()'
p3114
S'65'
p3115
tp3116
a(S'MPI_Isend()'
p3117
S'68'
p3118
tp3119
a(S'MPI_Waitall()'
p3120
S'70'
p3121
tp3122
a(S'MPI_Waitall()'
p3123
S'71'
p3124
tp3125
asS'generic-vector-clocks-hips22-supplemental/source/tests/MpiTSan/bcast.c'
p3126
(lp3127
(S'MPI_Init_thread()'
p3128
S'25'
p3129
tp3130
a(S'MPI_Abort()'
p3131
S'30'
p3132
tp3133
a(S'MPI_Bcast()'
p3134
S'47'
p3135
tp3136
a(S'MPI_Finalize()'
p3137
S'51'
p3138
tp3139
asS'generic-vector-clocks-hips22-supplemental/source/tests/DeadlockDetection/DeadlockDetection/waitallNullReqNoDl.c'
p3140
(lp3141
(S'MPI_Init()'
p3142
S'38'
p3143
tp3144
a(S'MPI_Finalize()'
p3145
S'46'
p3146
tp3147
asS'generic-vector-clocks-hips22-supplemental/source/tests/DeadlockDetection/P2PMatch/wcIrecvEx2Loss.c'
p3148
(lp3149
(S'MPI_Init()'
p3150
S'41'
p3151
tp3152
a(S'MPI_Finalize()'
p3153
S'49'
p3154
tp3155
asS'generic-vector-clocks-hips22-supplemental/source/externals/GTI/modules/comm-strategy/CStratCrashHandling.cpp'
p3156
(lp3157
(S'MPI_Abort()'
p3158
S'107'
p3159
tp3160
asS'generic-vector-clocks-hips22-supplemental/source/tests/DeadlockDetection/CollectiveMatch/collRootMissmatchErrorScatter.c'
p3161
(lp3162
(S'MPI_Init()'
p3163
S'38'
p3164
tp3165
a(S'MPI_Finalize()'
p3166
S'46'
p3167
tp3168
asS'generic-vector-clocks-hips22-supplemental/source/tests/DeadlockDetection/NbcCollectiveMatch/nbcCollBlockingBarrierMismatch.c'
p3169
(lp3170
(S'MPI_Init()'
p3171
S'37'
p3172
tp3173
a(S'MPI_Finalize()'
p3174
S'45'
p3175
tp3176
asS'generic-vector-clocks-hips22-supplemental/source/tests/BasicChecks/GroupRangeStrideZeroError.cpp'
p3177
(lp3178
(S'MPI_Finalize()'
p3179
S'42'
p3180
tp3181
a(S'MPI_Comm_group()'
p3182
S'52'
p3183
tp3184
a(S'MPI_Group_range_excl()'
p3185
S'59'
p3186
tp3187
a(S'MPI_Group_free()'
p3188
S'61'
p3189
tp3190
a(S'MPI_Group_free()'
p3191
S'62'
p3192
tp3193
asS'generic-vector-clocks-hips22-supplemental/source/tests/DeadlockDetection/CollectiveMatch/collReduceScatterNoError.cpp'
p3194
(lp3195
(S'MPI_Type_contiguous()'
p3196
S'52'
p3197
tp3198
a(S'MPI_Type_commit()'
p3199
S'53'
p3200
tp3201
a(S'MPI_Reduce_scatter()'
p3202
S'60'
p3203
tp3204
a(S'MPI_Type_free()'
p3205
S'62'
p3206
tp3207
asS'generic-vector-clocks-hips22-supplemental/source/tests/RequestChecks/RequestNullNoWarning.cpp'
p3208
(lp3209
(S'MPI_Finalize()'
p3210
S'42'
p3211
tp3212
a(S'MPI_Wait()'
p3213
S'52'
p3214
tp3215
asS'generic-vector-clocks-hips22-supplemental/source/tests/TypeMatch/sendRecvStructMismatch.c'
p3216
(lp3217
(S'MPI_Finalize()'
p3218
S'56'
p3219
tp3220
a(S'MPI_Type_commit()'
p3221
S'82'
p3222
tp3223
a(S'MPI_Sendrecv()'
p3224
S'89'
p3225
tp3226
a(S'MPI_Sendrecv()'
p3227
S'91'
p3228
tp3229
a(S'MPI_Type_free()'
p3230
S'94'
p3231
tp3232
asS'generic-vector-clocks-hips22-supplemental/source/tests/DeadlockDetection/DeadlockView/DLViewCommmismatch.c'
p3233
(lp3234
(S'MPI_Init()'
p3235
S'33'
p3236
tp3237
a(S'MPI_Finalize()'
p3238
S'41'
p3239
tp3240
asS'generic-vector-clocks-hips22-supplemental/source/tests/DeadlockDetection/DeadlockDetection/sendProcNullNoDl.c'
p3241
(lp3242
(S'MPI_Init()'
p3243
S'34'
p3244
tp3245
a(S'MPI_Finalize()'
p3246
S'42'
p3247
tp3248
asS'generic-vector-clocks-hips22-supplemental/source/tests/DatatypeChecks/NotValidForCxxxx_NoErRoR.cpp'
p3249
(lp3250
(S'MPI_Type_contiguous()'
p3251
S'40'
p3252
tp3253
a(S'MPI_Type_commit()'
p3254
S'41'
p3255
tp3256
a(S'MPI_Bcast()'
p3257
S'42'
p3258
tp3259
a(S'MPI_Type_free()'
p3260
S'46'
p3261
tp3262
asS'generic-vector-clocks-hips22-supplemental/source/tests/DeadlockDetection/P2PMatch/wcIrecvNoLoss.c'
p3263
(lp3264
(S'MPI_Init()'
p3265
S'36'
p3266
tp3267
a(S'MPI_Finalize()'
p3268
S'44'
p3269
tp3270
asS'generic-vector-clocks-hips22-supplemental/source/externals/GTI/tests/HelloWeaver/test.cpp'
p3271
(lp3272
(S'MPI_Finalize()'
p3273
S'34'
p3274
tp3275
asS'generic-vector-clocks-hips22-supplemental/source/tests/IntegrityChecks/IntegrityIfNullAndNotMpiBottomError.cpp'
p3276
(lp3277
(S'MPI_Finalize()'
p3278
S'42'
p3279
tp3280
asS'generic-vector-clocks-hips22-supplemental/source/tests/BasicChecks/OpIsPredefinedNoError.cpp'
p3281
(lp3282
(S'MPI_Finalize()'
p3283
S'48'
p3284
tp3285
a(S'MPI_Op_create()'
p3286
S'58'
p3287
tp3288
a(S'MPI_Op_free()'
p3289
S'62'
p3290
tp3291
asS'generic-vector-clocks-hips22-supplemental/source/tests/TypeMatch/MatchStructNoError.c'
p3292
(lp3293
(S'MPI_Init()'
p3294
S'43'
p3295
tp3296
a(S'MPI_Finalize()'
p3297
S'51'
p3298
tp3299
a(S'MPI_Type_free()'
p3300
S'68'
p3301
tp3302
asS'generic-vector-clocks-hips22-supplemental/source/tests/DeadlockDetection/NbcCollectiveMatch/nbcCollIreduceBufferOverlapError.c'
p3303
(lp3304
(S'MPI_Init()'
p3305
S'35'
p3306
tp3307
a(S'MPI_Finalize()'
p3308
S'43'
p3309
tp3310
asS'generic-vector-clocks-hips22-supplemental/source/tests/DeadlockDetection/CollectiveMatch/collReduceTypeLenError.cpp'
p3311
(lp3312
(S'MPI_Type_contiguous()'
p3313
S'55'
p3314
tp3315
a(S'MPI_Type_commit()'
p3316
S'56'
p3317
tp3318
a(S'MPI_Reduce()'
p3319
S'61'
p3320
tp3321
a(S'MPI_Type_free()'
p3322
S'63'
p3323
tp3324
asS'generic-vector-clocks-hips22-supplemental/source/tests/OverlapChecks/commOverlapInit.c'
p3325
(lp3326
(S'MPI_Finalize()'
p3327
S'41'
p3328
tp3329
a(S'MPI_Type_extent()'
p3330
S'52'
p3331
tp3332
a(S'MPI_Type_commit()'
p3333
S'61'
p3334
tp3335
a(S'MPI_Startall()'
p3336
S'72'
p3337
tp3338
a(S'MPI_Waitall()'
p3339
S'73'
p3340
tp3341
a(S'MPI_Request_free()'
p3342
S'76'
p3343
tp3344
a(S'MPI_Startall()'
p3345
S'86'
p3346
tp3347
a(S'MPI_Waitall()'
p3348
S'87'
p3349
tp3350
a(S'MPI_Request_free()'
p3351
S'90'
p3352
tp3353
a(S'MPI_Type_free()'
p3354
S'94'
p3355
tp3356
a(S'MPI_Type_free()'
p3357
S'95'
p3358
tp3359
asS'generic-vector-clocks-hips22-supplemental/source/tests/BufferChecks/BufferDetachNotAttachedError.cpp'
p3360
(lp3361
(S'MPI_Finalize()'
p3362
S'41'
p3363
tp3364
a(S'MPI_Buffer_detach()'
p3365
S'54'
p3366
tp3367
a(S'MPI_Pack_size()'
p3368
S'55'
p3369
tp3370
a(S'MPI_Buffer_attach()'
p3371
S'57'
p3372
tp3373
a(S'MPI_Bsend()'
p3374
S'58'
p3375
tp3376
a(S'MPI_Barrier()'
p3377
S'59'
p3378
tp3379
a(S'MPI_Buffer_detach()'
p3380
S'60'
p3381
tp3382
a(S'MPI_Barrier()'
p3383
S'67'
p3384
tp3385
a(S'MPI_Recv()'
p3386
S'68'
p3387
tp3388
asS'generic-vector-clocks-hips22-supplemental/source/tests/BasicChecks/IntegerNegativeNotUndefinedError.cpp'
p3389
(lp3390
(S'MPI_Finalize()'
p3391
S'42'
p3392
tp3393
a(S'MPI_Comm_split()'
p3394
S'53'
p3395
tp3396
a(S'MPI_Comm_free()'
p3397
S'54'
p3398
tp3399
asS'generic-vector-clocks-hips22-supplemental/source/tests/RequestChecks/RequestNullWarning.cpp'
p3400
(lp3401
(S'MPI_Finalize()'
p3402
S'43'
p3403
tp3404
a(S'MPI_Wait()'
p3405
S'54'
p3406
tp3407
a(S'MPI_Wait()'
p3408
S'55'
p3409
tp3410
asS'generic-vector-clocks-hips22-supplemental/source/externals/wrap/wrap.py'
p3411
(lp3412
(S'X_MPI_F_STATUS_SIZE()'
p3413
S'133'
p3414
tp3415
a(S'X_MPI_F_STATUS_SIZE()'
p3416
S'137'
p3417
tp3418
asS'generic-vector-clocks-hips22-supplemental/source/tests/OverlapChecks/sendRecvNoOverlap.c'
p3419
(lp3420
(S'MPI_Finalize()'
p3421
S'40'
p3422
tp3423
a(S'MPI_Type_get_extent()'
p3424
S'55'
p3425
tp3426
a(S'MPI_Type_free()'
p3427
S'57'
p3428
tp3429
a(S'MPI_Type_commit()'
p3430
S'64'
p3431
tp3432
a(S'MPI_Type_extent()'
p3433
S'66'
p3434
tp3435
a(S'MPI_Sendrecv()'
p3436
S'72'
p3437
tp3438
a(S'MPI_Sendrecv()'
p3439
S'74'
p3440
tp3441
a(S'MPI_Type_free()'
p3442
S'77'
p3443
tp3444
a(S'MPI_Type_free()'
p3445
S'78'
p3446
tp3447
asS'generic-vector-clocks-hips22-supplemental/source/tests/DeadlockDetection/DeadlockDetection/simpleNoDl.c'
p3448
(lp3449
(S'MPI_Init()'
p3450
S'33'
p3451
tp3452
a(S'MPI_Finalize()'
p3453
S'41'
p3454
tp3455
asS'generic-vector-clocks-hips22-supplemental/source/tests/DatatypeTrack/datatype.c'
p3456
(lp3457
(S'MPI_Init()'
p3458
S'35'
p3459
tp3460
asS'generic-vector-clocks-hips22-supplemental/source/tests/IntegrityChecks/IntegrityIfNullStatusesNoError.cpp'
p3461
(lp3462
(S'MPI_Finalize()'
p3463
S'39'
p3464
tp3465
a(S'MPI_Irecv()'
p3466
S'54'
p3467
tp3468
a(S'MPI_Waitall()'
p3469
S'60'
p3470
tp3471
a(S'MPI_Waitall()'
p3472
S'62'
p3473
tp3474
a(S'MPI_Send()'
p3475
S'72'
p3476
tp3477
asS'generic-vector-clocks-hips22-supplemental/source/tests/VectorClock/RMA/VCRMALockUnlock.cpp'
p3478
(lp3479
(S'MPI_Init()'
p3480
S'75'
p3481
tp3482
a(S'MPI_Comm_rank()'
p3483
S'76'
p3484
tp3485
a(S'MPI_Comm_size()'
p3486
S'77'
p3487
tp3488
a(S'MPI_Abort()'
p3489
S'81'
p3490
tp3491
a(S'MPI_Win_allocate()'
p3492
S'84'
p3493
tp3494
a(S'MPI_Barrier()'
p3495
S'88'
p3496
tp3497
a(S'MPI_Win_lock()'
p3498
S'91'
p3499
tp3500
a(S'MPI_Win_unlock()'
p3501
S'92'
p3502
tp3503
a(S'MPI_Win_lock()'
p3504
S'94'
p3505
tp3506
a(S'MPI_Win_unlock()'
p3507
S'95'
p3508
tp3509
a(S'MPI_Win_lock()'
p3510
S'97'
p3511
tp3512
a(S'MPI_Win_unlock()'
p3513
S'98'
p3514
tp3515
a(S'MPI_Barrier()'
p3516
S'101'
p3517
tp3518
a(S'MPI_Win_free()'
p3519
S'103'
p3520
tp3521
a(S'MPI_Finalize()'
p3522
S'105'
p3523
tp3524
asS'generic-vector-clocks-hips22-supplemental/source/externals/GTI/tests/hello.c'
p3525
(lp3526
(S'MPI_Init()'
p3527
S'26'
p3528
tp3529
asS'generic-vector-clocks-hips22-supplemental/source/tests/RequestChecks/RequestActiveArrayError.cpp'
p3530
(lp3531
(S'MPI_Finalize()'
p3532
S'43'
p3533
tp3534
a(S'MPI_Isend()'
p3535
S'55'
p3536
tp3537
a(S'MPI_Start()'
p3538
S'56'
p3539
tp3540
a(S'MPI_Startall()'
p3541
S'67'
p3542
tp3543
a(S'MPI_Waitall()'
p3544
S'68'
p3545
tp3546
asS'generic-vector-clocks-hips22-supplemental/source/tests/DeadlockDetection/CollectiveMatch/collAllreduceTypeLenError.cpp'
p3547
(lp3548
(S'MPI_Type_contiguous()'
p3549
S'55'
p3550
tp3551
a(S'MPI_Type_commit()'
p3552
S'56'
p3553
tp3554
a(S'MPI_Allreduce()'
p3555
S'61'
p3556
tp3557
a(S'MPI_Type_free()'
p3558
S'63'
p3559
tp3560
asS'generic-vector-clocks-hips22-supplemental/source/tests/DeadlockDetection/NbcCollectiveMatch/nbcCollIbarrierAvoidDlNoError.c'
p3561
(lp3562
(S'MPI_Init()'
p3563
S'33'
p3564
tp3565
a(S'MPI_Finalize()'
p3566
S'41'
p3567
tp3568
asS'generic-vector-clocks-hips22-supplemental/source/tests/CommChecks/CommNotKnownError.cpp'
p3569
(lp3570
(S'MPI_Finalize()'
p3571
S'41'
p3572
tp3573
a(S'MPI_Cart_create()'
p3574
S'51'
p3575
tp3576
a(S'MPI_Comm_free()'
p3577
S'53'
p3578
tp3579
asS'generic-vector-clocks-hips22-supplemental/source/tests/TypeMatch/MatchMultipleContiMissmatchError.c'
p3580
(lp3581
(S'MPI_Init()'
p3582
S'36'
p3583
tp3584
a(S'MPI_Finalize()'
p3585
S'44'
p3586
tp3587
a(S'MPI_Type_free()'
p3588
S'68'
p3589
tp3590
asS'generic-vector-clocks-hips22-supplemental/source/tests/DeadlockDetection/CollectiveMatch/collAlltoallvTypeLenError.cpp'
p3591
(lp3592
(S'MPI_Type_contiguous()'
p3593
S'71'
p3594
tp3595
a(S'MPI_Type_commit()'
p3596
S'72'
p3597
tp3598
a(S'MPI_Alltoallv()'
p3599
S'80'
p3600
tp3601
a(S'MPI_Type_free()'
p3602
S'82'
p3603
tp3604
asS'generic-vector-clocks-hips22-supplemental/source/tests/OnlyOnRootCondition/OnlyOnRoot_noWarning.cpp'
p3605
(lp3606
(S'MPI_Finalize()'
p3607
S'39'
p3608
tp3609
a(S'MPI_Scatter()'
p3610
S'56'
p3611
tp3612
a(S'MPI_Scatter()'
p3613
S'58'
p3614
tp3615
a(S'MPI_Gather()'
p3616
S'61'
p3617
tp3618
a(S'MPI_Gather()'
p3619
S'63'
p3620
tp3621
a(S'MPI_Gatherv()'
p3622
S'66'
p3623
tp3624
a(S'MPI_Gatherv()'
p3625
S'68'
p3626
tp3627
asS'generic-vector-clocks-hips22-supplemental/source/tests/IntegrityChecks/IntegrityIfNullAndNotMpiBottomNoError.cpp'
p3628
(lp3629
(S'MPI_Finalize()'
p3630
S'40'
p3631
tp3632
a(S'MPI_Type_struct()'
p3633
S'53'
p3634
tp3635
a(S'MPI_Type_commit()'
p3636
S'54'
p3637
tp3638
a(S'MPI_Type_free()'
p3639
S'70'
p3640
tp3641
asS'generic-vector-clocks-hips22-supplemental/source/tests/BasicChecks/IntegerNegativeProcNullAnySourceError.cpp'
p3642
(lp3643
(S'MPI_Finalize()'
p3644
S'42'
p3645
tp3646
a(S'MPI_Reduce()'
p3647
S'50'
p3648
tp3649
asS'generic-vector-clocks-hips22-supplemental/source/tests/BasicChecks/IntegerNotOneOrZeroArrayWarning.cpp'
p3650
(lp3651
(S'MPI_Finalize()'
p3652
S'41'
p3653
tp3654
a(S'MPI_Cart_create()'
p3655
S'59'
p3656
tp3657
a(S'MPI_Comm_free()'
p3658
S'60'
p3659
tp3660
asS'generic-vector-clocks-hips22-supplemental/source/tests/DeadlockDetection/DeadlockDetection/waitallProcNullNoDl.c'
p3661
(lp3662
(S'MPI_Init()'
p3663
S'36'
p3664
tp3665
a(S'MPI_Finalize()'
p3666
S'44'
p3667
tp3668
asS'generic-vector-clocks-hips22-supplemental/source/tests/DeadlockDetection/CollectiveMatch/collDisjointCommNoError.c'
p3669
(lp3670
(S'MPI_Init()'
p3671
S'37'
p3672
tp3673
a(S'MPI_Finalize()'
p3674
S'45'
p3675
tp3676
asS'generic-vector-clocks-hips22-supplemental/source/tests/DeadlockDetection/CollectiveMatch/collScattervNoErrorLarge.cpp'
p3677
(lp3678
(S'MPI_Type_contiguous()'
p3679
S'54'
p3680
tp3681
a(S'MPI_Type_commit()'
p3682
S'55'
p3683
tp3684
a(S'MPI_Scatterv()'
p3685
S'73'
p3686
tp3687
a(S'MPI_Type_free()'
p3688
S'75'
p3689
tp3690
asS'generic-vector-clocks-hips22-supplemental/source/tests/DeadlockDetection/CollectiveMatch/collAlltoallTypeLenError.cpp'
p3691
(lp3692
(S'MPI_Type_contiguous()'
p3693
S'54'
p3694
tp3695
a(S'MPI_Type_commit()'
p3696
S'55'
p3697
tp3698
a(S'MPI_Alltoall()'
p3699
S'60'
p3700
tp3701
a(S'MPI_Type_free()'
p3702
S'62'
p3703
tp3704
asS'generic-vector-clocks-hips22-supplemental/source/tests/VectorClock/OpenSHMEM/VCWaitUntil.cpp'
p3705
(lp3706
(S'MPI_Init()'
p3707
S'33'
p3708
tp3709
a(S'MPI_Finalize()'
p3710
S'56'
p3711
tp3712
asS'generic-vector-clocks-hips22-supplemental/source/tests/DeadlockDetection/P2PMatch/sendRecvNoLoss.c'
p3713
(lp3714
(S'MPI_Init()'
p3715
S'34'
p3716
tp3717
a(S'MPI_Finalize()'
p3718
S'42'
p3719
tp3720
asS'generic-vector-clocks-hips22-supplemental/source/externals/GTI/externals/PnMPI/src/modules/comm/commsub-critpath.cpp'
p3721
(lp3722
(S'MPI_Barrier()'
p3723
S'230'
p3724
tp3725
asS'generic-vector-clocks-hips22-supplemental/source/tests/BasicChecks/IntegerNegativeArrayNoError.cpp'
p3726
(lp3727
(S'MPI_Finalize()'
p3728
S'39'
p3729
tp3730
a(S'MPI_Cart_create()'
p3731
S'57'
p3732
tp3733
a(S'MPI_Comm_free()'
p3734
S'58'
p3735
tp3736
asS'generic-vector-clocks-hips22-supplemental/source/tests/DeadlockDetection/DeadlockDetection/waitAnySourceEx2Dl.c'
p3737
(lp3738
(S'MPI_Init()'
p3739
S'42'
p3740
tp3741
a(S'MPI_Finalize()'
p3742
S'50'
p3743
tp3744
asS'generic-vector-clocks-hips22-supplemental/source/tests/CommGroupTrack/testGroupTrack.c'
p3745
(lp3746
(S'MPI_Init()'
p3747
S'62'
p3748
tp3749
a(S'MPI_Group_free()'
p3750
S'159'
p3751
tp3752
a(S'MPI_Group_free()'
p3753
S'160'
p3754
tp3755
a(S'MPI_Group_free()'
p3756
S'161'
p3757
tp3758
a(S'MPI_Group_free()'
p3759
S'162'
p3760
tp3761
a(S'MPI_Group_free()'
p3762
S'163'
p3763
tp3764
a(S'MPI_Group_free()'
p3765
S'164'
p3766
tp3767
a(S'MPI_Group_free()'
p3768
S'165'
p3769
tp3770
a(S'MPI_Group_free()'
p3771
S'166'
p3772
tp3773
a(S'MPI_Group_free()'
p3774
S'167'
p3775
tp3776
a(S'MPI_Group_free()'
p3777
S'168'
p3778
tp3779
asS'generic-vector-clocks-hips22-supplemental/source/tests/GroupChecks/GroupNullNoWarning.cpp'
p3780
(lp3781
(S'MPI_Finalize()'
p3782
S'40'
p3783
tp3784
a(S'MPI_Comm_group()'
p3785
S'50'
p3786
tp3787
a(S'MPI_Group_compare()'
p3788
S'54'
p3789
tp3790
a(S'MPI_Group_free()'
p3791
S'58'
p3792
tp3793
asS'generic-vector-clocks-hips22-supplemental/source/tests/RequestChecks/RequestNullArrayNoError.cpp'
p3794
(lp3795
(S'MPI_Finalize()'
p3796
S'40'
p3797
tp3798
a(S'MPI_Startall()'
p3799
S'64'
p3800
tp3801
a(S'MPI_Waitall()'
p3802
S'65'
p3803
tp3804
asS'generic-vector-clocks-hips22-supplemental/source/tests/VectorClock/PointToPoint/VCP2PBlockingAsync.cpp'
p3805
(lp3806
(S'MPI_Finalize()'
p3807
S'46'
p3808
tp3809
a(S'MPI_Send()'
p3810
S'52'
p3811
tp3812
asS'generic-vector-clocks-hips22-supplemental/source/tests/BasicChecks/NoDuplicatedRanksTripletArrayError.cpp'
p3813
(lp3814
(S'MPI_Finalize()'
p3815
S'42'
p3816
tp3817
a(S'MPI_Comm_group()'
p3818
S'50'
p3819
tp3820
a(S'MPI_Group_range_excl()'
p3821
S'54'
p3822
tp3823
a(S'MPI_Group_free()'
p3824
S'60'
p3825
tp3826
a(S'MPI_Group_free()'
p3827
S'65'
p3828
tp3829
asS'generic-vector-clocks-hips22-supplemental/source/tests/DatatypeChecks/NotValidForCreate_Undefined.cpp'
p3830
(lp3831
(S'MPI_Type_contiguous()'
p3832
S'43'
p3833
tp3834
a(S'MPI_Type_free()'
p3835
S'45'
p3836
tp3837
a(S'MPI_Type_contiguous()'
p3838
S'47'
p3839
tp3840
a(S'MPI_Type_free()'
p3841
S'49'
p3842
tp3843
asS'generic-vector-clocks-hips22-supplemental/source/tests/DeadlockDetection/DeadlockDetection/statusesIgnoreTest.c'
p3844
(lp3845
(S'MPI_Init()'
p3846
S'29'
p3847
tp3848
a(S'MPI_Finalize()'
p3849
S'37'
p3850
tp3851
asS'generic-vector-clocks-hips22-supplemental/source/tests/FortranTests/collective_fortran.f'
p3852
(lp3853
(S'MPI_INIT()'
p3854
S'39'
p3855
tp3856
a(S'MPI_COMM_RANK()'
p3857
S'41'
p3858
tp3859
a(S'MPI_COMM_SIZE()'
p3860
S'42'
p3861
tp3862
a(S'MPI_REDUCE()'
p3863
S'54'
p3864
tp3865
a(S'MPI_FINALIZE()'
p3866
S'61'
p3867
tp3868
asS'generic-vector-clocks-hips22-supplemental/source/tests/VectorClock/RMA/VCRMAGeneralActiveTarget.cpp'
p3869
(lp3870
(S'MPI_Finalize()'
p3871
S'47'
p3872
tp3873
a(S'MPI_Comm_group()'
p3874
S'52'
p3875
tp3876
a(S'MPI_Win_create()'
p3877
S'55'
p3878
tp3879
a(S'MPI_Barrier()'
p3880
S'56'
p3881
tp3882
a(S'MPI_Group_incl()'
p3883
S'62'
p3884
tp3885
a(S'MPI_Win_start()'
p3886
S'64'
p3887
tp3888
a(S'MPI_Win_complete()'
p3889
S'65'
p3890
tp3891
a(S'MPI_Group_incl()'
p3892
S'70'
p3893
tp3894
a(S'MPI_Win_post()'
p3895
S'72'
p3896
tp3897
a(S'MPI_Win_wait()'
p3898
S'73'
p3899
tp3900
a(S'MPI_Group_incl()'
p3901
S'78'
p3902
tp3903
a(S'MPI_Win_start()'
p3904
S'79'
p3905
tp3906
a(S'MPI_Win_complete()'
p3907
S'80'
p3908
tp3909
a(S'MPI_Group_incl()'
p3910
S'85'
p3911
tp3912
a(S'MPI_Win_post()'
p3913
S'87'
p3914
tp3915
a(S'MPI_Win_wait()'
p3916
S'88'
p3917
tp3918
asS'generic-vector-clocks-hips22-supplemental/source/tests/DeadlockDetection/CollectiveMatch/collGathervTypeLenError2.cpp'
p3919
(lp3920
(S'MPI_Type_contiguous()'
p3921
S'61'
p3922
tp3923
a(S'MPI_Type_commit()'
p3924
S'62'
p3925
tp3926
a(S'MPI_Gatherv()'
p3927
S'70'
p3928
tp3929
a(S'MPI_Type_free()'
p3930
S'72'
p3931
tp3932
asS'generic-vector-clocks-hips22-supplemental/source/tests/FortranTests/c_calls_fortran.c'
p3933
(lp3934
(S'MPI_Init()'
p3935
S'34'
p3936
tp3937
a(S'MPI_Finalize()'
p3938
S'42'
p3939
tp3940
asS'generic-vector-clocks-hips22-supplemental/source/tests/IntegrityChecks/IntegrityIfNullStatusNoError.cpp'
p3941
(lp3942
(S'MPI_Finalize()'
p3943
S'41'
p3944
tp3945
a(S'MPI_Send()'
p3946
S'52'
p3947
tp3948
a(S'MPI_Send()'
p3949
S'54'
p3950
tp3951
a(S'MPI_Recv()'
p3952
S'61'
p3953
tp3954
a(S'MPI_Recv()'
p3955
S'63'
p3956
tp3957
asS'generic-vector-clocks-hips22-supplemental/source/tests/IntegrityChecks/IntegrityIfNullConditionError.cpp'
p3958
(lp3959
(S'MPI_Finalize()'
p3960
S'43'
p3961
tp3962
a(S'MPI_Cart_create()'
p3963
S'58'
p3964
tp3965
a(S'MPI_Comm_free()'
p3966
S'62'
p3967
tp3968
asS'generic-vector-clocks-hips22-supplemental/source/tests/DatatypeImplementation/resizeExpandByStructNolimit.c'
p3969
(lp3970
(S'MPI_Init()'
p3971
S'25'
p3972
tp3973
a(S'MPI_Type_free()'
p3974
S'35'
p3975
tp3976
a(S'MPI_Type_free()'
p3977
S'36'
p3978
tp3979
asS'generic-vector-clocks-hips22-supplemental/source/tests/VectorClock/RMA/VCRMAGeneralActiveTargetMultiple.cpp'
p3980
(lp3981
(S'MPI_Finalize()'
p3982
S'50'
p3983
tp3984
a(S'MPI_Comm_group()'
p3985
S'55'
p3986
tp3987
a(S'MPI_Win_create()'
p3988
S'58'
p3989
tp3990
a(S'MPI_Barrier()'
p3991
S'59'
p3992
tp3993
a(S'MPI_Group_incl()'
p3994
S'70'
p3995
tp3996
a(S'MPI_Win_start()'
p3997
S'71'
p3998
tp3999
a(S'MPI_Win_complete()'
p4000
S'72'
p4001
tp4002
a(S'MPI_Group_incl()'
p4003
S'77'
p4004
tp4005
a(S'MPI_Win_post()'
p4006
S'78'
p4007
tp4008
a(S'MPI_Win_wait()'
p4009
S'79'
p4010
tp4011
a(S'MPI_Group_incl()'
p4012
S'83'
p4013
tp4014
a(S'MPI_Win_start()'
p4015
S'84'
p4016
tp4017
a(S'MPI_Win_complete()'
p4018
S'85'
p4019
tp4020
a(S'MPI_Group_incl()'
p4021
S'89'
p4022
tp4023
a(S'MPI_Win_post()'
p4024
S'90'
p4025
tp4026
a(S'MPI_Win_wait()'
p4027
S'91'
p4028
tp4029
a(S'MPI_Group_incl()'
p4030
S'95'
p4031
tp4032
a(S'MPI_Win_start()'
p4033
S'96'
p4034
tp4035
a(S'MPI_Win_complete()'
p4036
S'97'
p4037
tp4038
a(S'MPI_Group_incl()'
p4039
S'101'
p4040
tp4041
a(S'MPI_Win_start()'
p4042
S'102'
p4043
tp4044
a(S'MPI_Win_complete()'
p4045
S'103'
p4046
tp4047
a(S'MPI_Group_incl()'
p4048
S'107'
p4049
tp4050
a(S'MPI_Win_post()'
p4051
S'108'
p4052
tp4053
a(S'MPI_Win_wait()'
p4054
S'109'
p4055
tp4056
asS'generic-vector-clocks-hips22-supplemental/source/tests/CommChecks/CommIsPredefinedNoError.cpp'
p4057
(lp4058
(S'MPI_Finalize()'
p4059
S'40'
p4060
tp4061
a(S'MPI_Comm_split()'
p4062
S'50'
p4063
tp4064
a(S'MPI_Comm_free()'
p4065
S'52'
p4066
tp4067
asS'generic-vector-clocks-hips22-supplemental/source/tests/BufferChecks/BufferOutsizeError.cpp'
p4068
(lp4069
(S'MPI_Finalize()'
p4070
S'41'
p4071
tp4072
a(S'MPI_Pack_size()'
p4073
S'53'
p4074
tp4075
a(S'MPI_Buffer_attach()'
p4076
S'55'
p4077
tp4078
a(S'MPI_Bsend()'
p4079
S'56'
p4080
tp4081
a(S'MPI_Barrier()'
p4082
S'57'
p4083
tp4084
a(S'MPI_Bsend()'
p4085
S'58'
p4086
tp4087
a(S'MPI_Barrier()'
p4088
S'59'
p4089
tp4090
a(S'MPI_Buffer_detach()'
p4091
S'60'
p4092
tp4093
a(S'MPI_Recv()'
p4094
S'67'
p4095
tp4096
a(S'MPI_Barrier()'
p4097
S'68'
p4098
tp4099
a(S'MPI_Recv()'
p4100
S'69'
p4101
tp4102
a(S'MPI_Barrier()'
p4103
S'70'
p4104
tp4105
asS'generic-vector-clocks-hips22-supplemental/source/tests/CommChecks/CommNotGraphNoError.cpp'
p4106
(lp4107
(S'MPI_Finalize()'
p4108
S'41'
p4109
tp4110
a(S'MPI_Graph_create()'
p4111
S'53'
p4112
tp4113
a(S'MPI_Graph_neighbors_count()'
p4114
S'57'
p4115
tp4116
a(S'MPI_Comm_free()'
p4117
S'61'
p4118
tp4119
asS'generic-vector-clocks-hips22-supplemental/source/tests/RequestChecks/RequestNoError.cpp'
p4120
(lp4121
(S'MPI_Finalize()'
p4122
S'37'
p4123
tp4124
a(S'MPI_Wait()'
p4125
S'51'
p4126
tp4127
asS'generic-vector-clocks-hips22-supplemental/source/tests/DeadlockDetection/CollectiveMatch/collScattervNoError2.cpp'
p4128
(lp4129
(S'MPI_Type_contiguous()'
p4130
S'57'
p4131
tp4132
a(S'MPI_Type_commit()'
p4133
S'58'
p4134
tp4135
a(S'MPI_Scatterv()'
p4136
S'66'
p4137
tp4138
a(S'MPI_Type_free()'
p4139
S'68'
p4140
tp4141
asS'generic-vector-clocks-hips22-supplemental/source/tests/DeadlockDetection/CollectiveMatch/collAllgatherNoError.c'
p4142
(lp4143
(S'MPI_Init()'
p4144
S'39'
p4145
tp4146
a(S'MPI_Finalize()'
p4147
S'47'
p4148
tp4149
asS'generic-vector-clocks-hips22-supplemental/source/externals/GTI/system-builder/wrapper-generator/GeneratorBase.cpp'
p4150
(lp4151
(S'MPI_Finalize()'
p4152
S'294'
p4153
tp4154
asS'generic-vector-clocks-hips22-supplemental/source/externals/GTI/externals/PnMPI/tests/src/test-mpi-sendrecv.c'
p4155
(lp4156
(S'MPI_Init()'
p4157
S'40'
p4158
tp4159
a(S'MPI_Comm_size()'
p4160
S'47'
p4161
tp4162
a(S'MPI_Comm_rank()'
p4163
S'48'
p4164
tp4165
a(S'MPI_Finalize()'
p4166
S'53'
p4167
tp4168
a(S'MPI_Recv()'
p4169
S'67'
p4170
tp4171
a(S'MPI_Send()'
p4172
S'69'
p4173
tp4174
a(S'MPI_Send()'
p4175
S'74'
p4176
tp4177
a(S'MPI_Recv()'
p4178
S'75'
p4179
tp4180
a(S'MPI_Finalize()'
p4181
S'80'
p4182
tp4183
asS'generic-vector-clocks-hips22-supplemental/source/tests/TypeMatch/MatchHvectorLengthError.c'
p4184
(lp4185
(S'MPI_Init()'
p4186
S'44'
p4187
tp4188
a(S'MPI_Finalize()'
p4189
S'52'
p4190
tp4191
a(S'MPI_Type_free()'
p4192
S'71'
p4193
tp4194
asS'generic-vector-clocks-hips22-supplemental/source/tests/DeadlockDetection/CollectiveMatch/collScanNoError.cpp'
p4195
(lp4196
(S'MPI_Type_contiguous()'
p4197
S'50'
p4198
tp4199
a(S'MPI_Type_commit()'
p4200
S'51'
p4201
tp4202
a(S'MPI_Scan()'
p4203
S'56'
p4204
tp4205
a(S'MPI_Type_free()'
p4206
S'58'
p4207
tp4208
asS'generic-vector-clocks-hips22-supplemental/source/tests/MpiTSan/isend.c'
p4209
(lp4210
(S'MPI_Init_thread()'
p4211
S'24'
p4212
tp4213
a(S'MPI_Abort()'
p4214
S'28'
p4215
tp4216
a(S'MPI_Comm_size()'
p4217
S'30'
p4218
tp4219
a(S'MPI_Comm_rank()'
p4220
S'31'
p4221
tp4222
a(S'MPI_Irecv()'
p4223
S'33'
p4224
tp4225
a(S'MPI_Isend()'
p4226
S'42'
p4227
tp4228
a(S'MPI_Wait()'
p4229
S'43'
p4230
tp4231
a(S'MPI_Wait()'
p4232
S'46'
p4233
tp4234
a(S'MPI_Finalize()'
p4235
S'47'
p4236
tp4237
asS'generic-vector-clocks-hips22-supplemental/source/tests/RequestChecks/RequestNullOrInActiveArrayWarning.cpp'
p4238
(lp4239
(S'MPI_Finalize()'
p4240
S'43'
p4241
tp4242
a(S'MPI_Waitall()'
p4243
S'55'
p4244
tp4245
a(S'MPI_Start()'
p4246
S'56'
p4247
tp4248
a(S'MPI_Start()'
p4249
S'57'
p4250
tp4251
a(S'MPI_Waitall()'
p4252
S'58'
p4253
tp4254
asS'generic-vector-clocks-hips22-supplemental/source/tests/BasicChecks/IntegerLessTagUbWarning.cpp'
p4255
(lp4256
(S'MPI_Finalize()'
p4257
S'43'
p4258
tp4259
asS'generic-vector-clocks-hips22-supplemental/source/tests/Templates/Template.cpp'
p4260
(lp4261
(S'MPI_Finalize()'
p4262
S'35'
p4263
tp4264
asS'generic-vector-clocks-hips22-supplemental/source/tests/OverlapChecks/commOverlapInitWaitall.c'
p4265
(lp4266
(S'MPI_Finalize()'
p4267
S'42'
p4268
tp4269
a(S'MPI_Type_extent()'
p4270
S'53'
p4271
tp4272
a(S'MPI_Type_commit()'
p4273
S'62'
p4274
tp4275
a(S'MPI_Startall()'
p4276
S'72'
p4277
tp4278
a(S'MPI_Waitall()'
p4279
S'73'
p4280
tp4281
a(S'MPI_Request_free()'
p4282
S'77'
p4283
tp4284
a(S'MPI_Startall()'
p4285
S'86'
p4286
tp4287
a(S'MPI_Waitall()'
p4288
S'87'
p4289
tp4290
a(S'MPI_Request_free()'
p4291
S'91'
p4292
tp4293
a(S'MPI_Type_free()'
p4294
S'95'
p4295
tp4296
a(S'MPI_Type_free()'
p4297
S'96'
p4298
tp4299
asS'generic-vector-clocks-hips22-supplemental/source/tests/OverlapChecks/overlapGather.c'
p4300
(lp4301
(S'MPI_Finalize()'
p4302
S'45'
p4303
tp4304
a(S'MPI_Type_extent()'
p4305
S'60'
p4306
tp4307
a(S'MPI_Type_commit()'
p4308
S'69'
p4309
tp4310
a(S'MPI_Gather()'
p4311
S'90'
p4312
tp4313
a(S'MPI_Waitall()'
p4314
S'94'
p4315
tp4316
a(S'MPI_Type_free()'
p4317
S'98'
p4318
tp4319
a(S'MPI_Type_free()'
p4320
S'99'
p4321
tp4322
asS'generic-vector-clocks-hips22-supplemental/source/tests/DeadlockDetection/DeadlockDetection/sendrecvProcNullNoDl.c'
p4323
(lp4324
(S'MPI_Init()'
p4325
S'34'
p4326
tp4327
a(S'MPI_Finalize()'
p4328
S'42'
p4329
tp4330
asS'generic-vector-clocks-hips22-supplemental/source/tests/TypeMatch/MatchMultipleContiMissmatchNoError.c'
p4331
(lp4332
(S'MPI_Init()'
p4333
S'36'
p4334
tp4335
a(S'MPI_Finalize()'
p4336
S'44'
p4337
tp4338
a(S'MPI_Type_free()'
p4339
S'74'
p4340
tp4341
a(S'MPI_Type_free()'
p4342
S'75'
p4343
tp4344
asS'generic-vector-clocks-hips22-supplemental/source/tests/RequestChecks/RequestNullNoError.cpp'
p4345
(lp4346
(S'MPI_Finalize()'
p4347
S'41'
p4348
tp4349
a(S'MPI_Start()'
p4350
S'51'
p4351
tp4352
a(S'MPI_Start()'
p4353
S'57'
p4354
tp4355
a(S'MPI_Wait()'
p4356
S'58'
p4357
tp4358
asS'generic-vector-clocks-hips22-supplemental/source/tests/DeadlockDetection/CollectiveMatch/collRootMissmatchError.c'
p4359
(lp4360
(S'MPI_Init()'
p4361
S'37'
p4362
tp4363
a(S'MPI_Finalize()'
p4364
S'45'
p4365
tp4366
asS'generic-vector-clocks-hips22-supplemental/source/tests/VectorClock/OpenSHMEM/VCAnnotateLock.cpp'
p4367
(lp4368
(S'MPI_Init()'
p4369
S'32'
p4370
tp4371
a(S'MPI_Finalize()'
p4372
S'59'
p4373
tp4374
asS'generic-vector-clocks-hips22-supplemental/source/tests/GroupChecks/GroupRankNotInCommNoError.cpp'
p4375
(lp4376
(S'MPI_Finalize()'
p4377
S'40'
p4378
tp4379
a(S'MPI_Comm_group()'
p4380
S'51'
p4381
tp4382
a(S'MPI_Comm_split()'
p4383
S'56'
p4384
tp4385
a(S'MPI_Comm_split()'
p4386
S'60'
p4387
tp4388
a(S'MPI_Comm_create()'
p4389
S'64'
p4390
tp4391
a(S'MPI_Comm_free()'
p4392
S'68'
p4393
tp4394
a(S'MPI_Comm_free()'
p4395
S'71'
p4396
tp4397
a(S'MPI_Group_free()'
p4398
S'74'
p4399
tp4400
asS'generic-vector-clocks-hips22-supplemental/source/tests/DatatypeImplementation/resizeExpandByIndexed.c'
p4401
(lp4402
(S'MPI_Init()'
p4403
S'25'
p4404
tp4405
a(S'MPI_Type_free()'
p4406
S'35'
p4407
tp4408
a(S'MPI_Type_free()'
p4409
S'36'
p4410
tp4411
asS'generic-vector-clocks-hips22-supplemental/source/tests/DeadlockDetection/NbcCollectiveMatch/nbcCollIbarrierNoError.c'
p4412
(lp4413
(S'MPI_Init()'
p4414
S'32'
p4415
tp4416
a(S'MPI_Finalize()'
p4417
S'40'
p4418
tp4419
asS'generic-vector-clocks-hips22-supplemental/source/tests/DeadlockDetection/CollectiveMatch/collCallMissmatchError.c'
p4420
(lp4421
(S'MPI_Init()'
p4422
S'38'
p4423
tp4424
a(S'MPI_Finalize()'
p4425
S'46'
p4426
tp4427
asS'generic-vector-clocks-hips22-supplemental/source/tests/DeadlockDetection/CollectiveMatch/collRootMissmatchErrorGather.c'
p4428
(lp4429
(S'MPI_Init()'
p4430
S'39'
p4431
tp4432
a(S'MPI_Finalize()'
p4433
S'47'
p4434
tp4435
asS'generic-vector-clocks-hips22-supplemental/source/tests/GroupChecks/GroupIsEmptyWarning.cpp'
p4436
(lp4437
(S'MPI_Finalize()'
p4438
S'42'
p4439
tp4440
a(S'MPI_Comm_create()'
p4441
S'56'
p4442
tp4443
a(S'MPI_Comm_free()'
p4444
S'60'
p4445
tp4446
asS'generic-vector-clocks-hips22-supplemental/source/tests/DatatypeImplementation/simpleStruct.c'
p4447
(lp4448
(S'MPI_Init()'
p4449
S'24'
p4450
tp4451
a(S'MPI_Type_free()'
p4452
S'37'
p4453
tp4454
asS'generic-vector-clocks-hips22-supplemental/source/tests/CommChecks/MaxIndicesToSmallWarning.cpp'
p4455
(lp4456
(S'MPI_Finalize()'
p4457
S'44'
p4458
tp4459
a(S'MPI_Graph_create()'
p4460
S'55'
p4461
tp4462
a(S'MPI_Graph_get()'
p4463
S'59'
p4464
tp4465
a(S'MPI_Comm_free()'
p4466
S'63'
p4467
tp4468
asS'generic-vector-clocks-hips22-supplemental/source/tests/FortranTests/c_calls_fortran_lib.f'
p4469
(lp4470
(S'MPI_RECV()'
p4471
S'37'
p4472
tp4473
asS'generic-vector-clocks-hips22-supplemental/source/tests/DeadlockDetection/CollectiveMatch/collReduceNoError2.cpp'
p4474
(lp4475
(S'MPI_Type_contiguous()'
p4476
S'52'
p4477
tp4478
a(S'MPI_Type_commit()'
p4479
S'53'
p4480
tp4481
a(S'MPI_Reduce()'
p4482
S'58'
p4483
tp4484
a(S'MPI_Type_free()'
p4485
S'60'
p4486
tp4487
asS'generic-vector-clocks-hips22-supplemental/source/tests/RequestChecks/RequestInActiveNoWarning.cpp'
p4488
(lp4489
(S'MPI_Finalize()'
p4490
S'41'
p4491
tp4492
a(S'MPI_Start()'
p4493
S'51'
p4494
tp4495
a(S'MPI_Start()'
p4496
S'57'
p4497
tp4498
a(S'MPI_Wait()'
p4499
S'58'
p4500
tp4501
asS'generic-vector-clocks-hips22-supplemental/source/tests/OnlyOnRootCondition/OnlyOnRoot_GatherWarning.cpp'
p4502
(lp4503
(S'MPI_Finalize()'
p4504
S'43'
p4505
tp4506
a(S'MPI_Gather()'
p4507
S'56'
p4508
tp4509
asS'generic-vector-clocks-hips22-supplemental/source/tests/DeadlockDetection/DeadlockDetection/waitAnySourceEx4Dl.c'
p4510
(lp4511
(S'MPI_Init()'
p4512
S'41'
p4513
tp4514
a(S'MPI_Finalize()'
p4515
S'49'
p4516
tp4517
asS'generic-vector-clocks-hips22-supplemental/source/tests/TypeMatch/MatchContiMissmatchError.c'
p4518
(lp4519
(S'MPI_Init()'
p4520
S'42'
p4521
tp4522
a(S'MPI_Finalize()'
p4523
S'50'
p4524
tp4525
a(S'MPI_Type_free()'
p4526
S'67'
p4527
tp4528
asS'generic-vector-clocks-hips22-supplemental/source/tests/RequestChecks/RequestCanceledWarning.cpp'
p4529
(lp4530
(S'MPI_Finalize()'
p4531
S'42'
p4532
tp4533
a(S'MPI_Start()'
p4534
S'52'
p4535
tp4536
a(S'MPI_Cancel()'
p4537
S'53'
p4538
tp4539
a(S'MPI_Cancel()'
p4540
S'54'
p4541
tp4542
a(S'MPI_Irecv()'
p4543
S'59'
p4544
tp4545
a(S'MPI_Wait()'
p4546
S'61'
p4547
tp4548
asS'generic-vector-clocks-hips22-supplemental/source/tests/LeakChecks/LeakTypeError.c'
p4549
(lp4550
(S'MPI_Finalize()'
p4551
S'46'
p4552
tp4553
asS'generic-vector-clocks-hips22-supplemental/source/tests/DeadlockDetection/CollectiveMatch/collInverseCommNoError.c'
p4554
(lp4555
(S'MPI_Init()'
p4556
S'39'
p4557
tp4558
a(S'MPI_Finalize()'
p4559
S'47'
p4560
tp4561
asS'generic-vector-clocks-hips22-supplemental/source/tests/basic/basic.c'
p4562
(lp4563
(S'MPI_Init()'
p4564
S'28'
p4565
tp4566
asS'generic-vector-clocks-hips22-supplemental/source/tests/CommChecks/RootNotInCommNoError.cpp'
p4567
(lp4568
(S'MPI_Finalize()'
p4569
S'39'
p4570
tp4571
a(S'MPI_Reduce()'
p4572
S'47'
p4573
tp4574
asS'generic-vector-clocks-hips22-supplemental/source/externals/GTI/externals/PnMPI/src/modules/metrics/counter.c.w'
p4575
(lp4576
(S'X_MPI_COMM_WORLD()'
p4577
S'166'
p4578
tp4579
asS'generic-vector-clocks-hips22-supplemental/source/tests/CommChecks/IsIntercommError.cpp'
p4580
(lp4581
(S'MPI_Finalize()'
p4582
S'42'
p4583
tp4584
a(S'MPI_Comm_split()'
p4585
S'54'
p4586
tp4587
a(S'MPI_Intercomm_create()'
p4588
S'57'
p4589
tp4590
a(S'MPI_Cart_create()'
p4591
S'69'
p4592
tp4593
a(S'MPI_Comm_free()'
p4594
S'73'
p4595
tp4596
a(S'MPI_Comm_free()'
p4597
S'75'
p4598
tp4599
a(S'MPI_Comm_free()'
p4600
S'76'
p4601
tp4602
asS'generic-vector-clocks-hips22-supplemental/source/tests/CommChecks/IsIntercommNoError.cpp'
p4603
(lp4604
(S'MPI_Finalize()'
p4605
S'39'
p4606
tp4607
a(S'MPI_Cart_create()'
p4608
S'55'
p4609
tp4610
a(S'MPI_Comm_free()'
p4611
S'58'
p4612
tp4613
asS'generic-vector-clocks-hips22-supplemental/source/tests/GroupChecks/GroupRankNotInCommError.cpp'
p4614
(lp4615
(S'MPI_Finalize()'
p4616
S'43'
p4617
tp4618
a(S'MPI_Comm_group()'
p4619
S'57'
p4620
tp4621
a(S'MPI_Group_range_incl()'
p4622
S'59'
p4623
tp4624
a(S'MPI_Comm_split()'
p4625
S'65'
p4626
tp4627
a(S'MPI_Comm_split()'
p4628
S'70'
p4629
tp4630
a(S'MPI_Comm_create()'
p4631
S'75'
p4632
tp4633
a(S'MPI_Comm_free()'
p4634
S'79'
p4635
tp4636
a(S'MPI_Comm_free()'
p4637
S'82'
p4638
tp4639
a(S'MPI_Group_free()'
p4640
S'85'
p4641
tp4642
a(S'MPI_Group_free()'
p4643
S'88'
p4644
tp4645
asS'generic-vector-clocks-hips22-supplemental/source/tests/BasicChecks/IntegerNegativeNotProcNullArrayError.cpp'
p4646
(lp4647
(S'MPI_Finalize()'
p4648
S'41'
p4649
tp4650
a(S'MPI_Comm_group()'
p4651
S'52'
p4652
tp4653
a(S'MPI_Comm_group()'
p4654
S'53'
p4655
tp4656
a(S'MPI_Group_translate_ranks()'
p4657
S'64'
p4658
tp4659
a(S'MPI_Group_free()'
p4660
S'66'
p4661
tp4662
a(S'MPI_Group_free()'
p4663
S'67'
p4664
tp4665
asS'generic-vector-clocks-hips22-supplemental/source/tests/CommChecks/IntegerArrayProductLessCommSizeWarning.cpp'
p4666
(lp4667
(S'MPI_Finalize()'
p4668
S'43'
p4669
tp4670
a(S'MPI_Cart_create()'
p4671
S'59'
p4672
tp4673
a(S'MPI_Comm_free()'
p4674
S'61'
p4675
tp4676
asS'generic-vector-clocks-hips22-supplemental/source/tests/BasicChecks/IntegerEntryGreaterEqualArrayError.cpp'
p4677
(lp4678
(S'MPI_Finalize()'
p4679
S'43'
p4680
tp4681
a(S'MPI_Graph_create()'
p4682
S'55'
p4683
tp4684
a(S'MPI_Comm_free()'
p4685
S'57'
p4686
tp4687
asS'generic-vector-clocks-hips22-supplemental/source/tests/DatatypeChecks/NotValidForCommit_Predefined.cpp'
p4688
(lp4689
(S'MPI_Type_commit()'
p4690
S'42'
p4691
tp4692
asS'generic-vector-clocks-hips22-supplemental/source/tests/DeadlockDetection/P2PMatch/wcIrecvEx2NoLoss.c'
p4693
(lp4694
(S'MPI_Init()'
p4695
S'39'
p4696
tp4697
a(S'MPI_Finalize()'
p4698
S'47'
p4699
tp4700
asS'generic-vector-clocks-hips22-supplemental/source/tests/DeadlockDetection/CollectiveMatch/collReduceNoError.c'
p4701
(lp4702
(S'MPI_Init()'
p4703
S'35'
p4704
tp4705
a(S'MPI_Finalize()'
p4706
S'43'
p4707
tp4708
asS'generic-vector-clocks-hips22-supplemental/source/tests/DeadlockDetection/CollectiveMatch/collScattervNoError.c'
p4709
(lp4710
(S'MPI_Init()'
p4711
S'49'
p4712
tp4713
a(S'MPI_Finalize()'
p4714
S'57'
p4715
tp4716
asS'generic-vector-clocks-hips22-supplemental/source/tests/BasicChecks/IntegerNegativeNotProcNullAnySourceError.cpp'
p4717
(lp4718
(S'MPI_Finalize()'
p4719
S'42'
p4720
tp4721
asS'generic-vector-clocks-hips22-supplemental/source/tests/DatatypeTrack/example_4_6.c'
p4722
(lp4723
(S'MPI_Init()'
p4724
S'29'
p4725
tp4726
asS'generic-vector-clocks-hips22-supplemental/source/tests/IntegrityChecks/IntegrityIfNullCommSizeNoError.cpp'
p4727
(lp4728
(S'MPI_Finalize()'
p4729
S'39'
p4730
tp4731
a(S'MPI_Gatherv()'
p4732
S'54'
p4733
tp4734
asS'generic-vector-clocks-hips22-supplemental/source/tests/DatatypeChecks/NotValidForCommit_Recommit.cpp'
p4735
(lp4736
(S'MPI_Type_contiguous()'
p4737
S'42'
p4738
tp4739
a(S'MPI_Type_commit()'
p4740
S'43'
p4741
tp4742
a(S'MPI_Type_commit()'
p4743
S'44'
p4744
tp4745
a(S'MPI_Type_free()'
p4746
S'45'
p4747
tp4748
asS'generic-vector-clocks-hips22-supplemental/source/externals/GTI/externals/PnMPI/tests/modules/metrics/timing.c'
p4749
(lp4750
(S'MPI_Init()'
p4751
S'43'
p4752
tp4753
a(S'MPI_Pcontrol()'
p4754
S'45'
p4755
tp4756
a(S'MPI_Finalize()'
p4757
S'47'
p4758
tp4759
asS'generic-vector-clocks-hips22-supplemental/source/tests/RequestChecks/RequestNotKnownArrayNoError.cpp'
p4760
(lp4761
(S'MPI_Finalize()'
p4762
S'42'
p4763
tp4764
a(S'MPI_Waitall()'
p4765
S'54'
p4766
tp4767
asS'generic-vector-clocks-hips22-supplemental/source/tests/DeadlockDetection/CollectiveMatch/collGathervNoError2.cpp'
p4768
(lp4769
(S'MPI_Type_contiguous()'
p4770
S'57'
p4771
tp4772
a(S'MPI_Type_commit()'
p4773
S'58'
p4774
tp4775
a(S'MPI_Gatherv()'
p4776
S'66'
p4777
tp4778
a(S'MPI_Type_free()'
p4779
S'68'
p4780
tp4781
asS'generic-vector-clocks-hips22-supplemental/source/tests/DeadlockDetection/DeadlockView/DLViewTagmismatch.c'
p4782
(lp4783
(S'MPI_Init()'
p4784
S'32'
p4785
tp4786
a(S'MPI_Finalize()'
p4787
S'40'
p4788
tp4789
asS'generic-vector-clocks-hips22-supplemental/source/tests/DatatypeImplementation/resizeReduceByStructNolimit.c'
p4790
(lp4791
(S'MPI_Init()'
p4792
S'25'
p4793
tp4794
a(S'MPI_Type_free()'
p4795
S'35'
p4796
tp4797
a(S'MPI_Type_free()'
p4798
S'36'
p4799
tp4800
asS'generic-vector-clocks-hips22-supplemental/source/tests/OnlyOnRootCondition/OnlyOnRoot_GathervWarning.cpp'
p4801
(lp4802
(S'MPI_Finalize()'
p4803
S'43'
p4804
tp4805
a(S'MPI_Gatherv()'
p4806
S'58'
p4807
tp4808
asS'generic-vector-clocks-hips22-supplemental/source/tests/CommChecks/IsNoIntercommNoError.cpp'
p4809
(lp4810
(S'MPI_Finalize()'
p4811
S'39'
p4812
tp4813
a(S'MPI_Comm_split()'
p4814
S'50'
p4815
tp4816
a(S'MPI_Intercomm_create()'
p4817
S'53'
p4818
tp4819
a(S'MPI_Intercomm_merge()'
p4820
S'56'
p4821
tp4822
a(S'MPI_Comm_free()'
p4823
S'59'
p4824
tp4825
a(S'MPI_Comm_free()'
p4826
S'61'
p4827
tp4828
a(S'MPI_Comm_free()'
p4829
S'63'
p4830
tp4831
asS'generic-vector-clocks-hips22-supplemental/source/tests/OverlapChecks/sendRecvOverlapGather.c'
p4832
(lp4833
(S'MPI_Finalize()'
p4834
S'41'
p4835
tp4836
a(S'MPI_Type_extent()'
p4837
S'52'
p4838
tp4839
a(S'MPI_Type_commit()'
p4840
S'61'
p4841
tp4842
a(S'MPI_Gather()'
p4843
S'66'
p4844
tp4845
a(S'MPI_Type_free()'
p4846
S'69'
p4847
tp4848
a(S'MPI_Type_free()'
p4849
S'70'
p4850
tp4851
asS'generic-vector-clocks-hips22-supplemental/source/tests/GroupChecks/GroupNotKnownError.cpp'
p4852
(lp4853
(S'MPI_Finalize()'
p4854
S'41'
p4855
tp4856
a(S'MPI_Comm_group()'
p4857
S'54'
p4858
tp4859
a(S'MPI_Group_free()'
p4860
S'56'
p4861
tp4862
a(S'MPI_Comm_create()'
p4863
S'59'
p4864
tp4865
asS'generic-vector-clocks-hips22-supplemental/source/tests/BasicChecks/IntegerNotWithinZeroTagUbNoError.cpp'
p4866
(lp4867
(S'MPI_Finalize()'
p4868
S'39'
p4869
tp4870
asS'generic-vector-clocks-hips22-supplemental/source/tests/CommChecks/IntegerGreaterCommSizeNoError.cpp'
p4871
(lp4872
(S'MPI_Finalize()'
p4873
S'40'
p4874
tp4875
a(S'MPI_Graph_create()'
p4876
S'51'
p4877
tp4878
a(S'MPI_Comm_free()'
p4879
S'53'
p4880
tp4881
asS'generic-vector-clocks-hips22-supplemental/source/externals/GTI/modules/coll-strategy/CollStratMpi.cpp'
p4882
(lp4883
(S'X_MPI_UNSIGNED_LONG_LONG()'
p4884
S'119'
p4885
tp4886
asS'generic-vector-clocks-hips22-supplemental/source/tests/DeadlockDetection/CollectiveMatch/collAllreduceNoError.c'
p4887
(lp4888
(S'MPI_Init()'
p4889
S'35'
p4890
tp4891
a(S'MPI_Finalize()'
p4892
S'43'
p4893
tp4894
asS'generic-vector-clocks-hips22-supplemental/source/externals/GTI/externals/PnMPI/src/pnshmem/debug/print_error.c'
p4895
(lp4896
(S'MPI_Abort()'
p4897
S'57'
p4898
tp4899
asS'generic-vector-clocks-hips22-supplemental/source/tests/ErrorFilter/errors_from_different_functions.c'
p4900
(lp4901
(S'MPI_Init()'
p4902
S'92'
p4903
tp4904
a(S'MPI_Comm_size()'
p4905
S'93'
p4906
tp4907
a(S'MPI_Comm_rank()'
p4908
S'94'
p4909
tp4910
a(S'MPI_Abort()'
p4911
S'97'
p4912
tp4913
a(S'MPI_Finalize()'
p4914
S'106'
p4915
tp4916
a(S'MPI_Send()'
p4917
S'115'
p4918
tp4919
a(S'MPI_Recv()'
p4920
S'116'
p4921
tp4922
a(S'MPI_Recv()'
p4923
S'118'
p4924
tp4925
a(S'MPI_Send()'
p4926
S'119'
p4927
tp4928
a(S'MPI_Send()'
p4929
S'128'
p4930
tp4931
a(S'MPI_Recv()'
p4932
S'129'
p4933
tp4934
a(S'MPI_Recv()'
p4935
S'131'
p4936
tp4937
a(S'MPI_Send()'
p4938
S'132'
p4939
tp4940
asS'generic-vector-clocks-hips22-supplemental/source/tests/Hybrid/CommSizeOnWorkerThread.cpp'
p4941
(lp4942
(S'MPI_Comm_size()'
p4943
S'47'
p4944
tp4945
a(S'MPI_Comm_rank()'
p4946
S'48'
p4947
tp4948
asS'generic-vector-clocks-hips22-supplemental/source/tests/DeadlockDetection/DeadlockDetection/sendrecvNoDl.c'
p4949
(lp4950
(S'MPI_Init()'
p4951
S'33'
p4952
tp4953
a(S'MPI_Finalize()'
p4954
S'41'
p4955
tp4956
asS'generic-vector-clocks-hips22-supplemental/source/externals/GTI/externals/wrap/osh_wrap.py'
p4957
(lp4958
(S'X_MPI_F_STATUS_SIZE()'
p4959
S'139'
p4960
tp4961
a(S'X_MPI_F_STATUS_SIZE()'
p4962
S'143'
p4963
tp4964
asS'generic-vector-clocks-hips22-supplemental/source/tests/CommChecks/IsNoIntercommError.cpp'
p4965
(lp4966
(S'MPI_Finalize()'
p4967
S'41'
p4968
tp4969
a(S'MPI_Intercomm_merge()'
p4970
S'50'
p4971
tp4972
a(S'MPI_Comm_free()'
p4973
S'53'
p4974
tp4975
asS'generic-vector-clocks-hips22-supplemental/source/tests/CommChecks/CommIsPredefinedError.cpp'
p4976
(lp4977
(S'MPI_Finalize()'
p4978
S'43'
p4979
tp4980
a(S'MPI_Comm_split()'
p4981
S'53'
p4982
tp4983
a(S'MPI_Comm_free()'
p4984
S'55'
p4985
tp4986
a(S'MPI_Comm_free()'
p4987
S'60'
p4988
tp4989
asS'generic-vector-clocks-hips22-supplemental/source/tests/DatatypeImplementation/resizeReduceByStruct.c'
p4990
(lp4991
(S'MPI_Init()'
p4992
S'26'
p4993
tp4994
a(S'MPI_Type_free()'
p4995
S'36'
p4996
tp4997
a(S'MPI_Type_free()'
p4998
S'37'
p4999
tp5000
asS'generic-vector-clocks-hips22-supplemental/source/tests/DatatypeTrack/example_4_2.c'
p5001
(lp5002
(S'MPI_Init()'
p5003
S'29'
p5004
tp5005
asS'generic-vector-clocks-hips22-supplemental/source/doc/manual/manual.tex'
p5006
(lp5007
(S'MPI_Init()'
p5008
S'341'
p5009
tp5010
a(S'MPI_Finalize()'
p5011
S'349'
p5012
tp5013
a(S'X_MPI_COMM_WORLD()'
p5014
S'364'
p5015
tp5016
asS'generic-vector-clocks-hips22-supplemental/source/tests/DeadlockDetection/CollectiveMatch/collAllgathervTypeLenError.c'
p5017
(lp5018
(S'MPI_Init()'
p5019
S'44'
p5020
tp5021
a(S'MPI_Finalize()'
p5022
S'52'
p5023
tp5024
asS'generic-vector-clocks-hips22-supplemental/source/tests/DeadlockDetection/DeadlockDetection/waitanyNoDlEx1.c'
p5025
(lp5026
(S'MPI_Init()'
p5027
S'37'
p5028
tp5029
a(S'MPI_Finalize()'
p5030
S'45'
p5031
tp5032
asS'generic-vector-clocks-hips22-supplemental/source/tests/BasicChecks/IntegerNoError.cpp'
p5033
(lp5034
(S'MPI_Finalize()'
p5035
S'38'
p5036
tp5037
asS'generic-vector-clocks-hips22-supplemental/source/tests/DeadlockDetection/P2PMatch/nonBlockingNoLoss.c'
p5038
(lp5039
(S'MPI_Init()'
p5040
S'38'
p5041
tp5042
a(S'MPI_Finalize()'
p5043
S'46'
p5044
tp5045
asS'generic-vector-clocks-hips22-supplemental/source/tests/BasicChecks/IntegerNegativeNotUndefinedNoError.cpp'
p5046
(lp5047
(S'MPI_Finalize()'
p5048
S'39'
p5049
tp5050
a(S'MPI_Comm_split()'
p5051
S'47'
p5052
tp5053
a(S'MPI_Comm_free()'
p5054
S'49'
p5055
tp5056
asS'generic-vector-clocks-hips22-supplemental/source/tests/mustTest.h'
p5057
(lp5058
(S'X_MPI_Type_struct()'
p5059
S'10'
p5060
tp5061
a(S'X_MPI_Type_hvector()'
p5062
S'14'
p5063
tp5064
a(S'X_MPI_Type_hindexed()'
p5065
S'18'
p5066
tp5067
a(S'X_MPI_Address()'
p5068
S'28'
p5069
tp5070
a(S'X_MPI_Keyval_free()'
p5071
S'33'
p5072
tp5073
a(S'X_MPI_Keyval_create()'
p5074
S'34'
p5075
tp5076
a(S'X_MPI_NULL_COPY_FN()'
p5077
S'36'
p5078
tp5079
a(S'X_MPI_NULL_DELETE_FN()'
p5080
S'38'
p5081
tp5082
a(S'X_MPI_DUP_FN()'
p5083
S'40'
p5084
tp5085
a(S'X_MPI_Errhandler_create()'
p5086
S'44'
p5087
tp5088
asS'generic-vector-clocks-hips22-supplemental/source/tests/VectorClock/Collective/VCCollBlockingAllToOne.cpp'
p5089
(lp5090
(S'MPI_Finalize()'
p5091
S'52'
p5092
tp5093
a(S'MPI_Comm_group()'
p5094
S'59'
p5095
tp5096
a(S'MPI_Group_incl()'
p5097
S'60'
p5098
tp5099
a(S'MPI_Comm_create()'
p5100
S'61'
p5101
tp5102
a(S'MPI_Reduce()'
p5103
S'68'
p5104
tp5105
a(S'MPI_Reduce()'
p5106
S'69'
p5107
tp5108
a(S'MPI_Reduce()'
p5109
S'77'
p5110
tp5111
a(S'MPI_Reduce()'
p5112
S'78'
p5113
tp5114
asS'generic-vector-clocks-hips22-supplemental/source/tests/OverlapChecks/overlapScatter.c'
p5115
(lp5116
(S'MPI_Finalize()'
p5117
S'45'
p5118
tp5119
a(S'MPI_Type_extent()'
p5120
S'60'
p5121
tp5122
a(S'MPI_Type_commit()'
p5123
S'69'
p5124
tp5125
a(S'MPI_Scatter()'
p5126
S'90'
p5127
tp5128
a(S'MPI_Waitall()'
p5129
S'94'
p5130
tp5131
a(S'MPI_Type_free()'
p5132
S'98'
p5133
tp5134
a(S'MPI_Type_free()'
p5135
S'99'
p5136
tp5137
asS'generic-vector-clocks-hips22-supplemental/source/tests/OnlyOnRootCondition/OnlyOnRoot_IntegrityNullCommSizeError.cpp'
p5138
(lp5139
(S'MPI_Finalize()'
p5140
S'45'
p5141
tp5142
a(S'MPI_Gatherv()'
p5143
S'60'
p5144
tp5145
asS'generic-vector-clocks-hips22-supplemental/source/tests/DatatypeChecks/NotValidForCreate_MpiDatatypeNull.cpp'
p5146
(lp5147
(S'MPI_Type_contiguous()'
p5148
S'43'
p5149
tp5150
a(S'MPI_Type_free()'
p5151
S'44'
p5152
tp5153
asS'generic-vector-clocks-hips22-supplemental/source/tests/GroupChecks/IntegerGreaterGrpSizeNoError.cpp'
p5154
(lp5155
(S'MPI_Finalize()'
p5156
S'40'
p5157
tp5158
a(S'MPI_Comm_group()'
p5159
S'50'
p5160
tp5161
a(S'MPI_Comm_group()'
p5162
S'51'
p5163
tp5164
a(S'MPI_Group_translate_ranks()'
p5165
S'58'
p5166
tp5167
a(S'MPI_Group_free()'
p5168
S'64'
p5169
tp5170
a(S'MPI_Group_free()'
p5171
S'69'
p5172
tp5173
asS'generic-vector-clocks-hips22-supplemental/source/tests/VectorClock/PointToPoint/VCP2PBlockingSync.cpp'
p5174
(lp5175
(S'MPI_Finalize()'
p5176
S'46'
p5177
tp5178
a(S'MPI_Ssend()'
p5179
S'52'
p5180
tp5181
asS'generic-vector-clocks-hips22-supplemental/source/tests/IntegrityChecks/IntegrityIfNullCommSizeError.cpp'
p5182
(lp5183
(S'MPI_Finalize()'
p5184
S'41'
p5185
tp5186
a(S'MPI_Gatherv()'
p5187
S'56'
p5188
tp5189
a(S'X_MPI_CHAR()'
p5190
S'58'
p5191
tp5192
a(S'X_MPI_CHAR()'
p5193
S'62'
p5194
tp5195
asS'generic-vector-clocks-hips22-supplemental/source/tests/DatatypeImplementation/simpleHIndexed.c'
p5196
(lp5197
(S'MPI_Init()'
p5198
S'24'
p5199
tp5200
a(S'MPI_Type_free()'
p5201
S'36'
p5202
tp5203
asS'generic-vector-clocks-hips22-supplemental/source/tests/CommChecks/MaxneighborsToSmallNoWarning.cpp'
p5204
(lp5205
(S'MPI_Finalize()'
p5206
S'41'
p5207
tp5208
a(S'MPI_Graph_create()'
p5209
S'53'
p5210
tp5211
a(S'MPI_Graph_neighbors()'
p5212
S'57'
p5213
tp5214
a(S'MPI_Comm_free()'
p5215
S'61'
p5216
tp5217
asS'generic-vector-clocks-hips22-supplemental/source/tests/DeadlockDetection/DeadlockDetection/testanyNoDl.c'
p5218
(lp5219
(S'MPI_Init()'
p5220
S'35'
p5221
tp5222
a(S'MPI_Finalize()'
p5223
S'43'
p5224
tp5225
asS'generic-vector-clocks-hips22-supplemental/source/tests/DeadlockDetection/CollectiveMatch/collGathervNoErrorLarge.cpp'
p5226
(lp5227
(S'MPI_Type_contiguous()'
p5228
S'58'
p5229
tp5230
a(S'MPI_Type_commit()'
p5231
S'59'
p5232
tp5233
a(S'MPI_Gatherv()'
p5234
S'75'
p5235
tp5236
a(S'MPI_Type_free()'
p5237
S'77'
p5238
tp5239
asS'generic-vector-clocks-hips22-supplemental/source/tests/MpiTSan/iscatter.c'
p5240
(lp5241
(S'MPI_Init_thread()'
p5242
S'26'
p5243
tp5244
a(S'MPI_Abort()'
p5245
S'31'
p5246
tp5247
a(S'MPI_Iscatter()'
p5248
S'44'
p5249
tp5250
a(S'MPI_Wait()'
p5251
S'49'
p5252
tp5253
a(S'MPI_Finalize()'
p5254
S'52'
p5255
tp5256
asS'generic-vector-clocks-hips22-supplemental/source/tests/CommChecks/IntercommWarning.cpp'
p5257
(lp5258
(S'MPI_Finalize()'
p5259
S'42'
p5260
tp5261
a(S'MPI_Comm_split()'
p5262
S'52'
p5263
tp5264
a(S'MPI_Intercomm_create()'
p5265
S'55'
p5266
tp5267
a(S'MPI_Topo_test()'
p5268
S'58'
p5269
tp5270
a(S'MPI_Comm_free()'
p5271
S'60'
p5272
tp5273
a(S'MPI_Comm_free()'
p5274
S'61'
p5275
tp5276
asS'generic-vector-clocks-hips22-supplemental/source/tests/CommChecks/MaxDimsGreaterNDimsWarning.cpp'
p5277
(lp5278
(S'MPI_Finalize()'
p5279
S'42'
p5280
tp5281
a(S'MPI_Cart_create()'
p5282
S'58'
p5283
tp5284
a(S'MPI_Cart_get()'
p5285
S'59'
p5286
tp5287
a(S'MPI_Comm_free()'
p5288
S'62'
p5289
tp5290
asS'generic-vector-clocks-hips22-supplemental/source/tests/BufferChecks/BufferReuseNoError.cpp'
p5291
(lp5292
(S'MPI_Finalize()'
p5293
S'40'
p5294
tp5295
a(S'MPI_Pack_size()'
p5296
S'52'
p5297
tp5298
a(S'MPI_Buffer_attach()'
p5299
S'55'
p5300
tp5301
a(S'MPI_Bsend()'
p5302
S'56'
p5303
tp5304
a(S'MPI_Barrier()'
p5305
S'57'
p5306
tp5307
a(S'MPI_Buffer_detach()'
p5308
S'58'
p5309
tp5310
a(S'MPI_Barrier()'
p5311
S'67'
p5312
tp5313
a(S'MPI_Recv()'
p5314
S'68'
p5315
tp5316
asS'generic-vector-clocks-hips22-supplemental/source/tests/TypeMatch/MatchIndexedBlockNoError.c'
p5317
(lp5318
(S'MPI_Init()'
p5319
S'42'
p5320
tp5321
a(S'MPI_Finalize()'
p5322
S'50'
p5323
tp5324
a(S'MPI_Type_free()'
p5325
S'67'
p5326
tp5327
asS'generic-vector-clocks-hips22-supplemental/source/tests/LeakChecks/LeakRequestError.c'
p5328
(lp5329
(S'MPI_Finalize()'
p5330
S'47'
p5331
tp5332
asS'generic-vector-clocks-hips22-supplemental/source/tests/DeadlockDetection/CollectiveMatch/simpleCollNoError.c'
p5333
(lp5334
(S'MPI_Init()'
p5335
S'35'
p5336
tp5337
a(S'MPI_Finalize()'
p5338
S'43'
p5339
tp5340
asS'generic-vector-clocks-hips22-supplemental/source/tests/VectorClock/RMA/VCRMAFence.cpp'
p5341
(lp5342
(S'MPI_Finalize()'
p5343
S'50'
p5344
tp5345
a(S'MPI_Info_create()'
p5346
S'54'
p5347
tp5348
a(S'MPI_Win_create()'
p5349
S'58'
p5350
tp5351
a(S'MPI_Win_fence()'
p5352
S'59'
p5353
tp5354
a(S'MPI_Win_fence()'
p5355
S'61'
p5356
tp5357
a(S'MPI_Win_create()'
p5358
S'65'
p5359
tp5360
a(S'MPI_Win_fence()'
p5361
S'66'
p5362
tp5363
a(S'MPI_Put()'
p5364
S'67'
p5365
tp5366
a(S'MPI_Win_fence()'
p5367
S'68'
p5368
tp5369
a(S'MPI_Win_free()'
p5370
S'71'
p5371
tp5372
asS'generic-vector-clocks-hips22-supplemental/source/tests/DeadlockDetection/P2PMatch/startAllNoLoss.c'
p5373
(lp5374
(S'MPI_Init()'
p5375
S'35'
p5376
tp5377
a(S'MPI_Finalize()'
p5378
S'43'
p5379
tp5380
a(S'MPI_Request_free()'
p5381
S'68'
p5382
tp5383
a(S'MPI_Request_free()'
p5384
S'70'
p5385
tp5386
asS'generic-vector-clocks-hips22-supplemental/source/tests/DeadlockDetection/CollectiveMatch/collRootMissmatchReduceError.c'
p5387
(lp5388
(S'MPI_Init()'
p5389
S'38'
p5390
tp5391
a(S'MPI_Finalize()'
p5392
S'46'
p5393
tp5394
asS'generic-vector-clocks-hips22-supplemental/source/tests/GroupChecks/GroupNullWarning.cpp'
p5395
(lp5396
(S'MPI_Finalize()'
p5397
S'42'
p5398
tp5399
a(S'MPI_Comm_group()'
p5400
S'52'
p5401
tp5402
a(S'MPI_Group_compare()'
p5403
S'56'
p5404
tp5405
a(S'MPI_Group_free()'
p5406
S'60'
p5407
tp5408
asS'generic-vector-clocks-hips22-supplemental/source/tests/GroupChecks/RankFromRangesNotInGroupNoError.cpp'
p5409
(lp5410
(S'MPI_Finalize()'
p5411
S'40'
p5412
tp5413
a(S'MPI_Comm_group()'
p5414
S'48'
p5415
tp5416
a(S'MPI_Group_range_excl()'
p5417
S'52'
p5418
tp5419
a(S'MPI_Group_free()'
p5420
S'59'
p5421
tp5422
a(S'MPI_Group_free()'
p5423
S'64'
p5424
tp5425
asS'generic-vector-clocks-hips22-supplemental/source/tests/IntegrityChecks/IntegrityIfNullNoError.cpp'
p5426
(lp5427
(S'MPI_Finalize()'
p5428
S'40'
p5429
tp5430
a(S'MPI_Pack()'
p5431
S'57'
p5432
tp5433
a(S'MPI_Send()'
p5434
S'58'
p5435
tp5436
a(S'MPI_Recv()'
p5437
S'64'
p5438
tp5439
a(S'MPI_Unpack()'
p5440
S'65'
p5441
tp5442
asS'generic-vector-clocks-hips22-supplemental/source/tests/ErrorFilter/errors_with_different_ids.c'
p5443
(lp5444
(S'MPI_Init()'
p5445
S'81'
p5446
tp5447
a(S'MPI_Comm_size()'
p5448
S'82'
p5449
tp5450
a(S'MPI_Comm_rank()'
p5451
S'83'
p5452
tp5453
a(S'MPI_Abort()'
p5454
S'86'
p5455
tp5456
a(S'MPI_Send()'
p5457
S'95'
p5458
tp5459
a(S'MPI_Recv()'
p5460
S'96'
p5461
tp5462
a(S'MPI_Recv()'
p5463
S'98'
p5464
tp5465
a(S'MPI_Send()'
p5466
S'99'
p5467
tp5468
a(S'MPI_Send()'
p5469
S'103'
p5470
tp5471
a(S'MPI_Recv()'
p5472
S'104'
p5473
tp5474
a(S'MPI_Recv()'
p5475
S'106'
p5476
tp5477
a(S'MPI_Send()'
p5478
S'107'
p5479
tp5480
a(S'MPI_Finalize()'
p5481
S'110'
p5482
tp5483
asS'generic-vector-clocks-hips22-supplemental/source/externals/GTI/cmakemodules/FeatureTests/ft_mpi_comm_spawn.cpp'
p5484
(lp5485
(S'MPI_Comm_spawn()'
p5486
S'17'
p5487
tp5488
asS'generic-vector-clocks-hips22-supplemental/source/tests/RequestChecks/RequestNotKnownArrayError.cpp'
p5489
(lp5490
(S'MPI_Finalize()'
p5491
S'46'
p5492
tp5493
a(S'MPI_Wait()'
p5494
S'59'
p5495
tp5496
a(S'MPI_Waitall()'
p5497
S'60'
p5498
tp5499
asS'generic-vector-clocks-hips22-supplemental/source/tests/DeadlockDetection/DeadlockDetection/bsendNoDl.c'
p5500
(lp5501
(S'MPI_Init()'
p5502
S'37'
p5503
tp5504
a(S'MPI_Finalize()'
p5505
S'45'
p5506
tp5507
asS'generic-vector-clocks-hips22-supplemental/source/tests/CommChecks/CommNullError.cpp'
p5508
(lp5509
(S'MPI_Finalize()'
p5510
S'42'
p5511
tp5512
asS'generic-vector-clocks-hips22-supplemental/source/tests/RequestChecks/RequestNotKnownError.cpp'
p5513
(lp5514
(S'MPI_Finalize()'
p5515
S'41'
p5516
tp5517
a(S'MPI_Wait()'
p5518
S'57'
p5519
tp5520
a(S'MPI_Test()'
p5521
S'58'
p5522
tp5523
asS'generic-vector-clocks-hips22-supplemental/source/tests/CommChecks/IntegerArrayProductGreaterCommSizeNoError.cpp'
p5524
(lp5525
(S'MPI_Finalize()'
p5526
S'39'
p5527
tp5528
a(S'MPI_Cart_create()'
p5529
S'55'
p5530
tp5531
a(S'MPI_Comm_free()'
p5532
S'57'
p5533
tp5534
asS'generic-vector-clocks-hips22-supplemental/source/tests/OverlapChecks/commOverlapWaitall.c'
p5535
(lp5536
(S'MPI_Finalize()'
p5537
S'41'
p5538
tp5539
a(S'MPI_Type_extent()'
p5540
S'56'
p5541
tp5542
a(S'MPI_Type_commit()'
p5543
S'65'
p5544
tp5545
a(S'MPI_Waitall()'
p5546
S'78'
p5547
tp5548
a(S'MPI_Waitall()'
p5549
S'90'
p5550
tp5551
a(S'MPI_Type_free()'
p5552
S'94'
p5553
tp5554
a(S'MPI_Type_free()'
p5555
S'95'
p5556
tp5557
asS'generic-vector-clocks-hips22-supplemental/source/tests/DeadlockDetection/CollectiveMatch/collReduceScatterBlockTypeLenError.cpp'
p5558
(lp5559
(S'MPI_Type_contiguous()'
p5560
S'56'
p5561
tp5562
a(S'MPI_Type_commit()'
p5563
S'57'
p5564
tp5565
a(S'MPI_Reduce_scatter_block()'
p5566
S'62'
p5567
tp5568
a(S'MPI_Type_free()'
p5569
S'64'
p5570
tp5571
asS'generic-vector-clocks-hips22-supplemental/source/externals/GTI/externals/PnMPI/src/modules/shm_metrics/counter.c.w'
p5572
(lp5573
(S'X_MPI_COMM_WORLD()'
p5574
S'167'
p5575
tp5576
asS'generic-vector-clocks-hips22-supplemental/source/externals/GTI/externals/PnMPI/src/pnshmem/pnmpimod.h'
p5577
(lp5578
(S'X_MPI_ERROR_MEM()'
p5579
S'53'
p5580
tp5581
a(S'X_MPI_ERROR_PNMPI()'
p5582
S'54'
p5583
tp5584
asS'generic-vector-clocks-hips22-supplemental/source/tests/RequestChecks/RequestActiveRecvWarning.cpp'
p5585
(lp5586
(S'MPI_Finalize()'
p5587
S'42'
p5588
tp5589
a(S'MPI_Start()'
p5590
S'52'
p5591
tp5592
a(S'MPI_Start()'
p5593
S'58'
p5594
tp5595
asS'generic-vector-clocks-hips22-supplemental/source/externals/GTI/externals/PnMPI/tests/src/test-mpi-sendrecv.f'
p5596
(lp5597
(S'MPI_INIT()'
p5598
S'38'
p5599
tp5600
a(S'MPI_COMM_SIZE()'
p5601
S'39'
p5602
tp5603
a(S'MPI_COMM_RANK()'
p5604
S'40'
p5605
tp5606
a(S'MPI_RECV()'
p5607
S'49'
p5608
tp5609
a(S'MPI_SEND()'
p5610
S'51'
p5611
tp5612
a(S'MPI_SEND()'
p5613
S'57'
p5614
tp5615
a(S'MPI_RECV()'
p5616
S'59'
p5617
tp5618
a(S'MPI_FINALIZE()'
p5619
S'65'
p5620
tp5621
asS'generic-vector-clocks-hips22-supplemental/source/tests/DatatypeImplementation/datatypetest.c'
p5622
(lp5623
(S'MPI_Type_extent()'
p5624
S'21'
p5625
tp5626
a(S'MPI_Type_lb()'
p5627
S'22'
p5628
tp5629
a(S'MPI_Type_ub()'
p5630
S'23'
p5631
tp5632
a(S'MPI_Type_size()'
p5633
S'26'
p5634
tp5635
a(S'MPI_Type_get_extent()'
p5636
S'27'
p5637
tp5638
a(S'MPI_Type_get_true_extent()'
p5639
S'28'
p5640
tp5641
a(S'MPI_Type_size()'
p5642
S'42'
p5643
tp5644
a(S'MPI_Type_size()'
p5645
S'43'
p5646
tp5647
a(S'MPI_Type_get_true_extent()'
p5648
S'44'
p5649
tp5650
a(S'MPI_Type_get_extent()'
p5651
S'45'
p5652
tp5653
a(S'MPI_Pack_size()'
p5654
S'46'
p5655
tp5656
a(S'MPI_Type_contiguous()'
p5657
S'49'
p5658
tp5659
a(S'MPI_Type_commit()'
p5660
S'50'
p5661
tp5662
a(S'MPI_Pack()'
p5663
S'58'
p5664
tp5665
a(S'MPI_Unpack()'
p5666
S'60'
p5667
tp5668
a(S'MPI_Type_free()'
p5669
S'66'
p5670
tp5671
asS'generic-vector-clocks-hips22-supplemental/source/externals/GTI/externals/wrap/README.md'
p5672
(lp5673
(S'MPI_Abort()'
p5674
S'281'
p5675
tp5676
a(S'MPI_Abort()'
p5677
S'284'
p5678
tp5679
asS'generic-vector-clocks-hips22-supplemental/source/tests/LeakChecks/LeakKeyvalError.c'
p5680
(lp5681
(S'MPI_Finalize()'
p5682
S'48'
p5683
tp5684
asS'generic-vector-clocks-hips22-supplemental/source/tests/DeadlockDetection/NbcCollectiveMatch/nbcCollAlltoallvTypeMatchError.c'
p5685
(lp5686
(S'MPI_Init()'
p5687
S'50'
p5688
tp5689
a(S'MPI_Finalize()'
p5690
S'58'
p5691
tp5692
asS'generic-vector-clocks-hips22-supplemental/source/tests/DeadlockDetection/CollectiveMatch/collScatterTypeLenError.cpp'
p5693
(lp5694
(S'MPI_Type_contiguous()'
p5695
S'54'
p5696
tp5697
a(S'MPI_Type_commit()'
p5698
S'55'
p5699
tp5700
a(S'MPI_Scatter()'
p5701
S'61'
p5702
tp5703
a(S'MPI_Scatter()'
p5704
S'63'
p5705
tp5706
a(S'MPI_Type_free()'
p5707
S'65'
p5708
tp5709
asS'generic-vector-clocks-hips22-supplemental/source/tests/KeyvalTrack/testKeyvalTrack.c'
p5710
(lp5711
(S'MPI_Init()'
p5712
S'47'
p5713
tp5714
asS'generic-vector-clocks-hips22-supplemental/source/tests/CommChecks/IntercommNoWarning.cpp'
p5715
(lp5716
(S'MPI_Finalize()'
p5717
S'41'
p5718
tp5719
a(S'MPI_Topo_test()'
p5720
S'48'
p5721
tp5722
asS'generic-vector-clocks-hips22-supplemental/source/tests/DeadlockDetection/P2PMatch/wcIrecvExNoLoss.c'
p5723
(lp5724
(S'MPI_Init()'
p5725
S'38'
p5726
tp5727
a(S'MPI_Finalize()'
p5728
S'46'
p5729
tp5730
asS'generic-vector-clocks-hips22-supplemental/source/tests/DeadlockDetection/CollectiveMatch/collAlltoallvTypeMatchError.c'
p5731
(lp5732
(S'MPI_Init()'
p5733
S'63'
p5734
tp5735
a(S'MPI_Finalize()'
p5736
S'71'
p5737
tp5738
asS'generic-vector-clocks-hips22-supplemental/source/tests/OverlapChecks/commSelfOverlap.c'
p5739
(lp5740
(S'MPI_Init()'
p5741
S'31'
p5742
tp5743
a(S'MPI_Type_extent()'
p5744
S'40'
p5745
tp5746
a(S'MPI_Type_commit()'
p5747
S'49'
p5748
tp5749
a(S'MPI_Pack_size()'
p5750
S'53'
p5751
tp5752
a(S'MPI_Pack()'
p5753
S'56'
p5754
tp5755
a(S'MPI_Unpack()'
p5756
S'58'
p5757
tp5758
a(S'MPI_Type_free()'
p5759
S'61'
p5760
tp5761
a(S'MPI_Type_free()'
p5762
S'62'
p5763
tp5764
asS'generic-vector-clocks-hips22-supplemental/source/tests/DeadlockDetection/P2PMatch/commNoLoss.c'
p5765
(lp5766
(S'MPI_Init()'
p5767
S'42'
p5768
tp5769
a(S'MPI_Finalize()'
p5770
S'50'
p5771
tp5772
asS'generic-vector-clocks-hips22-supplemental/source/tests/DatatypeTrack/example_4_4.c'
p5773
(lp5774
(S'MPI_Init()'
p5775
S'29'
p5776
tp5777
asS'generic-vector-clocks-hips22-supplemental/source/tests/FortranTests/fortran_calls_c.f'
p5778
(lp5779
(S'MPI_INIT()'
p5780
S'40'
p5781
tp5782
a(S'MPI_COMM_RANK()'
p5783
S'42'
p5784
tp5785
a(S'MPI_COMM_SIZE()'
p5786
S'43'
p5787
tp5788
a(S'MPI_SEND()'
p5789
S'56'
p5790
tp5791
a(S'MPI_FINALIZE()'
p5792
S'72'
p5793
tp5794
asS'generic-vector-clocks-hips22-supplemental/source/tests/VectorClock/OpenSHMEM/VCAllocFree.cpp'
p5795
(lp5796
(S'MPI_Init()'
p5797
S'29'
p5798
tp5799
a(S'MPI_Finalize()'
p5800
S'45'
p5801
tp5802
asS'generic-vector-clocks-hips22-supplemental/source/tests/CommGroupTrack/testCommTrack.c'
p5803
(lp5804
(S'MPI_Init()'
p5805
S'54'
p5806
tp5807
a(S'MPI_Group_free()'
p5808
S'138'
p5809
tp5810
a(S'MPI_Group_free()'
p5811
S'140'
p5812
tp5813
asS'generic-vector-clocks-hips22-supplemental/source/tests/CommChecks/CommNotKnownNoError.cpp'
p5814
(lp5815
(S'MPI_Finalize()'
p5816
S'39'
p5817
tp5818
asS'generic-vector-clocks-hips22-supplemental/source/tests/BasicChecks/NoDuplicatedRanksTripletArrayNoError.cpp'
p5819
(lp5820
(S'MPI_Finalize()'
p5821
S'40'
p5822
tp5823
a(S'MPI_Comm_group()'
p5824
S'48'
p5825
tp5826
a(S'MPI_Group_range_excl()'
p5827
S'52'
p5828
tp5829
a(S'MPI_Group_free()'
p5830
S'59'
p5831
tp5832
a(S'MPI_Group_free()'
p5833
S'64'
p5834
tp5835
asS'generic-vector-clocks-hips22-supplemental/source/externals/GTI/externals/PnMPI/externals/wrap/README.md'
p5836
(lp5837
(S'MPI_Abort()'
p5838
S'281'
p5839
tp5840
a(S'MPI_Abort()'
p5841
S'284'
p5842
tp5843
asS'generic-vector-clocks-hips22-supplemental/source/tests/TypeMatch/MatchContiNoError.c'
p5844
(lp5845
(S'MPI_Init()'
p5846
S'39'
p5847
tp5848
a(S'MPI_Finalize()'
p5849
S'47'
p5850
tp5851
a(S'MPI_Type_free()'
p5852
S'64'
p5853
tp5854
asS'generic-vector-clocks-hips22-supplemental/source/tests/IntegrityChecks/IntegrityIfNullNoAtIndexMpiBottomNoError.cpp'
p5855
(lp5856
(S'MPI_Finalize()'
p5857
S'38'
p5858
tp5859
a(S'MPI_Reduce_scatter()'
p5860
S'52'
p5861
tp5862
a(S'MPI_Reduce_scatter()'
p5863
S'56'
p5864
tp5865
asS'generic-vector-clocks-hips22-supplemental/source/tests/VectorClock/Collective/VCCollNonblockingAllToAll.cpp'
p5866
(lp5867
(S'MPI_Finalize()'
p5868
S'50'
p5869
tp5870
a(S'MPI_Comm_group()'
p5871
S'57'
p5872
tp5873
a(S'MPI_Group_incl()'
p5874
S'58'
p5875
tp5876
a(S'MPI_Comm_create()'
p5877
S'59'
p5878
tp5879
a(S'MPI_Ibarrier()'
p5880
S'63'
p5881
tp5882
a(S'MPI_Barrier()'
p5883
S'64'
p5884
tp5885
a(S'MPI_Wait()'
p5886
S'65'
p5887
tp5888
a(S'MPI_Barrier()'
p5889
S'67'
p5890
tp5891
a(S'MPI_Send()'
p5892
S'70'
p5893
tp5894
a(S'MPI_Recv()'
p5895
S'72'
p5896
tp5897
a(S'MPI_Ibarrier()'
p5898
S'74'
p5899
tp5900
a(S'MPI_Ibarrier()'
p5901
S'75'
p5902
tp5903
a(S'MPI_Send()'
p5904
S'78'
p5905
tp5906
a(S'MPI_Recv()'
p5907
S'80'
p5908
tp5909
a(S'MPI_Wait()'
p5910
S'82'
p5911
tp5912
a(S'MPI_Wait()'
p5913
S'83'
p5914
tp5915
asS'generic-vector-clocks-hips22-supplemental/source/tests/IntegrityChecks/IntegrityIfNullNoWarning.cpp'
p5916
(lp5917
(S'MPI_Finalize()'
p5918
S'39'
p5919
tp5920
a(S'MPI_Buffer_attach()'
p5921
S'48'
p5922
tp5923
a(S'MPI_Buffer_detach()'
p5924
S'51'
p5925
tp5926
asS'generic-vector-clocks-hips22-supplemental/source/tests/TypeMatch/MatchSimpleTypeMissmatchError.c'
p5927
(lp5928
(S'MPI_Init()'
p5929
S'40'
p5930
tp5931
a(S'MPI_Finalize()'
p5932
S'48'
p5933
tp5934
as.