ccollections
defaultdict
p0
(c__builtin__
list
p1
tp2
Rp3
S'deann-askit-wrapper/rkdtsrc/lsh/test_alltoall.cpp'
p4
(lp5
(S'MPI_Init()'
p6
S'41'
p7
tp8
a(S'MPI_Comm_rank()'
p9
S'48'
p10
tp11
a(S'MPI_Comm_size()'
p12
S'49'
p13
tp14
a(S'MPI_Allreduce()'
p15
S'56'
p16
tp17
a(S'MPI_Scan()'
p18
S'57'
p19
tp20
a(S'MPI_Barrier()'
p21
S'128'
p22
tp23
a(S'MPI_Barrier()'
p24
S'161'
p25
tp26
a(S'MPI_Finalize()'
p27
S'181'
p28
tp29
a(S'MPI_Comm_rank()'
p30
S'193'
p31
tp32
asS'deann-askit-wrapper/rkdtsrc/repartition/clustering.cpp'
p33
(lp34
(S'MPI_Comm_size()'
p35
S'208'
p36
tp37
a(S'MPI_Comm_rank()'
p38
S'209'
p39
tp40
a(S'MPI_Allreduce()'
p41
S'218'
p42
tp43
a(S'MPI_Allreduce()'
p44
S'243'
p45
tp46
a(S'MPI_Allreduce()'
p47
S'245'
p48
tp49
a(S'MPI_Allreduce()'
p50
S'247'
p51
tp52
a(S'MPI_Allreduce()'
p53
S'278'
p54
tp55
a(S'MPI_Allreduce()'
p56
S'279'
p57
tp58
a(S'MPI_Allreduce()'
p59
S'296'
p60
tp61
a(S'MPI_Allreduce()'
p62
S'308'
p63
tp64
a(S'MPI_Comm_rank()'
p65
S'330'
p66
tp67
a(S'MPI_Comm_size()'
p68
S'331'
p69
tp70
a(S'MPI_Allreduce()'
p71
S'334'
p72
tp73
a(S'MPI_Bcast()'
p74
S'340'
p75
tp76
a(S'MPI_Scan()'
p77
S'343'
p78
tp79
a(S'MPI_Allgather()'
p80
S'362'
p81
tp82
a(S'MPI_Alltoallv()'
p83
S'382'
p84
tp85
a(S'MPI_Allreduce()'
p86
S'429'
p87
tp88
a(S'MPI_Allreduce()'
p89
S'447'
p90
tp91
a(S'MPI_Allreduce()'
p92
S'459'
p93
tp94
a(S'MPI_Allreduce()'
p95
S'475'
p96
tp97
a(S'MPI_Comm_rank()'
p98
S'502'
p99
tp100
a(S'MPI_Comm_size()'
p101
S'503'
p102
tp103
a(S'MPI_Scan()'
p104
S'510'
p105
tp106
a(S'MPI_Bcast()'
p107
S'526'
p108
tp109
a(S'MPI_Allgather()'
p110
S'536'
p111
tp112
a(S'MPI_Bcast()'
p113
S'546'
p114
tp115
a(S'MPI_Allreduce()'
p116
S'591'
p117
tp118
a(S'MPI_Comm_rank()'
p119
S'693'
p120
tp121
a(S'MPI_Allreduce()'
p122
S'707'
p123
tp124
a(S'MPI_Allreduce()'
p125
S'731'
p126
tp127
a(S'MPI_Allreduce()'
p128
S'732'
p129
tp130
a(S'MPI_Comm_size()'
p131
S'751'
p132
tp133
a(S'MPI_Comm_rank()'
p134
S'752'
p135
tp136
a(S'MPI_Allgather()'
p137
S'763'
p138
tp139
a(S'MPI_Bcast()'
p140
S'768'
p141
tp142
a(S'MPI_Comm_rank()'
p143
S'782'
p144
tp145
a(S'MPI_Allreduce()'
p146
S'788'
p147
tp148
a(S'MPI_Barrier()'
p149
S'791'
p150
tp151
a(S'MPI_Allreduce()'
p152
S'824'
p153
tp154
a(S'MPI_Allreduce()'
p155
S'838'
p156
tp157
a(S'MPI_Allreduce()'
p158
S'839'
p159
tp160
asS'deann-askit-wrapper/rkdtsrc/direct_knn/distance_bench.cpp'
p161
(lp162
(S'MPI_Init()'
p163
S'38'
p164
tp165
a(S'MPI_Finalize()'
p166
S'159'
p167
tp168
asS'deann-askit-wrapper/rkdtsrc/parallelIO/test_display_file.cpp'
p169
(lp170
(S'MPI_Comm_size()'
p171
S'19'
p172
tp173
a(S'MPI_Comm_rank()'
p174
S'20'
p175
tp176
a(S'MPI_Scan()'
p177
S'24'
p178
tp179
a(S'MPI_Barrier()'
p180
S'37'
p181
tp182
a(S'MPI_Init()'
p183
S'63'
p184
tp185
a(S'MPI_Comm_rank()'
p186
S'65'
p187
tp188
a(S'MPI_Comm_size()'
p189
S'66'
p190
tp191
a(S'MPI_Finalize()'
p192
S'86'
p193
tp194
asS'deann-askit-wrapper/rkdtsrc/binTree/ex1a2a.cpp'
p195
(lp196
(S'MPI_Init()'
p197
S'32'
p198
tp199
a(S'MPI_Comm_rank()'
p200
S'35'
p201
tp202
a(S'MPI_Comm_size()'
p203
S'36'
p204
tp205
a(S'MPI_Allreduce()'
p206
S'123'
p207
tp208
a(S'MPI_Scan()'
p209
S'124'
p210
tp211
a(S'MPI_Wtime()'
p212
S'168'
p213
tp214
a(S'MPI_Wtime()'
p215
S'173'
p216
tp217
a(S'MPI_Finalize()'
p218
S'180'
p219
tp220
asS'deann-askit-wrapper/rkdtsrc/examples/lsh_allnearest.cpp'
p221
(lp222
(S'MPI_Init()'
p223
S'22'
p224
tp225
a(S'MPI_Comm_rank()'
p226
S'39'
p227
tp228
a(S'MPI_Comm_size()'
p229
S'40'
p230
tp231
a(S'MPI_Allreduce()'
p232
S'55'
p233
tp234
a(S'MPI_Scan()'
p235
S'56'
p236
tp237
a(S'MPI_Barrier()'
p238
S'86'
p239
tp240
a(S'MPI_Barrier()'
p241
S'92'
p242
tp243
a(S'MPI_Finalize()'
p244
S'98'
p245
tp246
asS'deann-askit-wrapper/rkdtsrc/lsh/test_replicated.cpp'
p247
(lp248
(S'MPI_Init()'
p249
S'39'
p250
tp251
a(S'MPI_Comm_rank()'
p252
S'47'
p253
tp254
a(S'MPI_Comm_size()'
p255
S'48'
p256
tp257
a(S'MPI_Allreduce()'
p258
S'55'
p259
tp260
a(S'MPI_Scan()'
p261
S'56'
p262
tp263
a(S'MPI_Bcast()'
p264
S'130'
p265
tp266
a(S'MPI_Bcast()'
p267
S'131'
p268
tp269
a(S'MPI_Barrier()'
p270
S'160'
p271
tp272
a(S'MPI_Barrier()'
p273
S'173'
p274
tp275
a(S'MPI_Finalize()'
p276
S'198'
p277
tp278
a(S'MPI_Comm_rank()'
p279
S'212'
p280
tp281
asS'deann-askit-wrapper/rkdtsrc/parallelIO/test_generate_data.cpp'
p282
(lp283
(S'MPI_Comm_size()'
p284
S'19'
p285
tp286
a(S'MPI_Comm_rank()'
p287
S'20'
p288
tp289
a(S'MPI_Barrier()'
p290
S'32'
p291
tp292
a(S'MPI_Init()'
p293
S'62'
p294
tp295
a(S'MPI_Comm_rank()'
p296
S'64'
p297
tp298
a(S'MPI_Comm_size()'
p299
S'65'
p300
tp301
a(S'MPI_Allreduce()'
p302
S'117'
p303
tp304
a(S'MPI_Finalize()'
p305
S'144'
p306
tp307
asS'deann-askit-wrapper/askit_release/treecode/deprecated/fkstree/fksTree.cpp'
p308
(lp309
(S'MPI_Comm_rank()'
p310
S'28'
p311
tp312
a(S'MPI_Comm_size()'
p313
S'29'
p314
tp315
a(S'MPI_Barrier()'
p316
S'30'
p317
tp318
a(S'MPI_Barrier()'
p319
S'44'
p320
tp321
a(S'MPI_Comm_rank()'
p322
S'54'
p323
tp324
a(S'MPI_Comm_size()'
p325
S'55'
p326
tp327
a(S'MPI_Comm_size()'
p328
S'64'
p329
tp330
a(S'MPI_Comm_rank()'
p331
S'65'
p332
tp333
a(S'MPI_Allreduce()'
p334
S'67'
p335
tp336
a(S'MPI_Barrier()'
p337
S'90'
p338
tp339
a(S'MPI_Barrier()'
p340
S'155'
p341
tp342
a(S'MPI_Comm_free()'
p343
S'156'
p344
tp345
a(S'MPI_Comm_size()'
p346
S'205'
p347
tp348
a(S'MPI_Comm_rank()'
p349
S'206'
p350
tp351
a(S'MPI_Barrier()'
p352
S'252'
p353
tp354
a(S'MPI_Comm_size()'
p355
S'291'
p356
tp357
a(S'MPI_Barrier()'
p358
S'318'
p359
tp360
a(S'MPI_Barrier()'
p361
S'332'
p362
tp363
a(S'MPI_Comm_size()'
p364
S'390'
p365
tp366
a(S'MPI_Comm_rank()'
p367
S'391'
p368
tp369
a(S'MPI_Scan()'
p370
S'405'
p371
tp372
a(S'MPI_Comm_rank()'
p373
S'476'
p374
tp375
a(S'MPI_Comm_rank()'
p376
S'537'
p377
tp378
a(S'MPI_Comm_size()'
p379
S'595'
p380
tp381
a(S'MPI_Comm_rank()'
p382
S'596'
p383
tp384
a(S'MPI_Comm_rank()'
p385
S'616'
p386
tp387
a(S'MPI_Gather()'
p388
S'632'
p389
tp390
a(S'MPI_Gatherv()'
p391
S'637'
p392
tp393
a(S'MPI_Barrier()'
p394
S'641'
p395
tp396
a(S'MPI_Bcast()'
p397
S'654'
p398
tp399
a(S'MPI_Comm_rank()'
p400
S'762'
p401
tp402
asS'deann-askit-wrapper/askit_release/treecode/deprecated/fkstree/fks_ompNode.cpp'
p403
(lp404
(S'MPI_Comm_rank()'
p405
S'20'
p406
tp407
a(S'MPI_Comm_size()'
p408
S'21'
p409
tp410
a(S'MPI_Barrier()'
p411
S'22'
p412
tp413
a(S'MPI_Barrier()'
p414
S'37'
p415
tp416
a(S'MPI_Barrier()'
p417
S'51'
p418
tp419
a(S'MPI_Barrier()'
p420
S'66'
p421
tp422
a(S'MPI_Barrier()'
p423
S'80'
p424
tp425
asS'deann-askit-wrapper/rkdtsrc/pcltree/test_queryKGreedy.cpp'
p426
(lp427
(S'MPI_Init()'
p428
S'43'
p429
tp430
a(S'MPI_Comm_rank()'
p431
S'51'
p432
tp433
a(S'MPI_Comm_size()'
p434
S'52'
p435
tp436
a(S'MPI_Allreduce()'
p437
S'56'
p438
tp439
a(S'MPI_Scan()'
p440
S'57'
p441
tp442
a(S'MPI_Bcast()'
p443
S'120'
p444
tp445
a(S'MPI_Allgather()'
p446
S'148'
p447
tp448
a(S'MPI_Allgatherv()'
p449
S'151'
p450
tp451
a(S'MPI_Bcast()'
p452
S'163'
p453
tp454
a(S'X_MPI_COMM_WORLD()'
p455
S'206'
p456
tp457
a(S'MPI_Barrier()'
p458
S'209'
p459
tp460
a(S'MPI_Barrier()'
p461
S'233'
p462
tp463
a(S'MPI_Reduce()'
p464
S'252'
p465
tp466
a(S'MPI_Finalize()'
p467
S'260'
p468
tp469
a(S'MPI_Comm_rank()'
p470
S'277'
p471
tp472
asS'deann-askit-wrapper/rkdtsrc/include/parUtils.txx'
p473
(lp474
(S'MPI_Isend()'
p475
S'31'
p476
tp477
a(S'MPI_Issend()'
p478
S'42'
p479
tp480
a(S'MPI_Recv()'
p481
S'53'
p482
tp483
a(S'MPI_Irecv()'
p484
S'64'
p485
tp486
a(S'MPI_Sendrecv()'
p487
S'77'
p488
tp489
a(S'MPI_Barrier()'
p490
S'86'
p491
tp492
a(S'MPI_Scan()'
p493
S'90'
p494
tp495
a(S'MPI_Barrier()'
p496
S'98'
p497
tp498
a(S'MPI_Allreduce()'
p499
S'102'
p500
tp501
a(S'MPI_Barrier()'
p502
S'110'
p503
tp504
a(S'MPI_Alltoall()'
p505
S'114'
p506
tp507
a(S'MPI_Barrier()'
p508
S'123'
p509
tp510
a(S'MPI_Gather()'
p511
S'127'
p512
tp513
a(S'MPI_Barrier()'
p514
S'136'
p515
tp516
a(S'MPI_Bcast()'
p517
S'140'
p518
tp519
a(S'MPI_Barrier()'
p520
S'148'
p521
tp522
a(S'MPI_Reduce()'
p523
S'152'
p524
tp525
a(S'MPI_Barrier()'
p526
S'161'
p527
tp528
a(S'MPI_Comm_size()'
p529
S'170'
p530
tp531
a(S'MPI_Comm_rank()'
p532
S'171'
p533
tp534
a(S'MPI_Allgatherv()'
p535
S'200'
p536
tp537
a(S'MPI_Barrier()'
p538
S'211'
p539
tp540
a(S'MPI_Comm_size()'
p541
S'218'
p542
tp543
a(S'MPI_Allgather()'
p544
S'231'
p545
tp546
a(S'MPI_Barrier()'
p547
S'243'
p548
tp549
a(S'MPI_Comm_size()'
p550
S'248'
p551
tp552
a(S'MPI_Comm_rank()'
p553
S'249'
p554
tp555
a(S'MPI_Waitall()'
p556
S'324'
p557
tp558
a(S'MPI_Barrier()'
p559
S'338'
p560
tp561
a(S'MPI_Comm_size()'
p562
S'343'
p563
tp564
a(S'MPI_Comm_rank()'
p565
S'344'
p566
tp567
a(S'MPI_Barrier()'
p568
S'421'
p569
tp570
a(S'MPI_Comm_size()'
p571
S'427'
p572
tp573
a(S'MPI_Comm_rank()'
p574
S'428'
p575
tp576
a(S'MPI_Wait()'
p577
S'478'
p578
tp579
a(S'MPI_Barrier()'
p580
S'579'
p581
tp582
a(S'MPI_Comm_rank()'
p583
S'586'
p584
tp585
a(S'MPI_Comm_size()'
p586
S'587'
p587
tp588
a(S'MPI_Comm_size()'
p589
S'799'
p590
tp591
a(S'MPI_Comm_rank()'
p592
S'800'
p593
tp594
a(S'MPI_Barrier()'
p595
S'978'
p596
tp597
a(S'MPI_Comm_size()'
p598
S'984'
p599
tp600
a(S'MPI_Comm_rank()'
p601
S'996'
p602
tp603
a(S'MPI_Barrier()'
p604
S'1022'
p605
tp606
a(S'MPI_Barrier()'
p607
S'1026'
p608
tp609
a(S'MPI_Barrier()'
p610
S'1062'
p611
tp612
a(S'MPI_Barrier()'
p613
S'1066'
p614
tp615
a(S'MPI_Barrier()'
p616
S'1117'
p617
tp618
a(S'MPI_Barrier()'
p619
S'1121'
p620
tp621
a(S'MPI_Wait()'
p622
S'1126'
p623
tp624
a(S'MPI_Barrier()'
p625
S'1156'
p626
tp627
a(S'MPI_Barrier()'
p628
S'1160'
p629
tp630
a(S'MPI_Barrier()'
p631
S'1165'
p632
tp633
a(S'MPI_Barrier()'
p634
S'1172'
p635
tp636
a(S'MPI_Barrier()'
p637
S'1176'
p638
tp639
a(S'MPI_Barrier()'
p640
S'1192'
p641
tp642
a(S'MPI_Barrier()'
p643
S'1196'
p644
tp645
a(S'MPI_Barrier()'
p646
S'1221'
p647
tp648
a(S'MPI_Barrier()'
p649
S'1225'
p650
tp651
a(S'MPI_Barrier()'
p652
S'1234'
p653
tp654
a(S'MPI_Comm_size()'
p655
S'1238'
p656
tp657
a(S'MPI_Comm_rank()'
p658
S'1239'
p659
tp660
a(S'MPI_Barrier()'
p661
S'1250'
p662
tp663
a(S'MPI_Barrier()'
p664
S'1254'
p665
tp666
a(S'MPI_Barrier()'
p667
S'1261'
p668
tp669
a(S'MPI_Barrier()'
p670
S'1265'
p671
tp672
a(S'MPI_Barrier()'
p673
S'1272'
p674
tp675
a(S'MPI_Barrier()'
p676
S'1276'
p677
tp678
a(S'MPI_Barrier()'
p679
S'1289'
p680
tp681
a(S'MPI_Barrier()'
p682
S'1293'
p683
tp684
a(S'MPI_Barrier()'
p685
S'1317'
p686
tp687
a(S'MPI_Barrier()'
p688
S'1321'
p689
tp690
a(S'MPI_Barrier()'
p691
S'1329'
p692
tp693
a(S'MPI_Barrier()'
p694
S'1333'
p695
tp696
a(S'MPI_Barrier()'
p697
S'1342'
p698
tp699
a(S'MPI_Comm_size()'
p700
S'1348'
p701
tp702
a(S'MPI_Comm_rank()'
p703
S'1362'
p704
tp705
a(S'MPI_Barrier()'
p706
S'1380'
p707
tp708
a(S'MPI_Barrier()'
p709
S'1384'
p710
tp711
a(S'MPI_Barrier()'
p712
S'1400'
p713
tp714
a(S'MPI_Barrier()'
p715
S'1404'
p716
tp717
a(S'MPI_Barrier()'
p718
S'1412'
p719
tp720
a(S'MPI_Barrier()'
p721
S'1416'
p722
tp723
a(S'MPI_Comm_rank()'
p724
S'1579'
p725
tp726
a(S'MPI_Comm_rank()'
p727
S'1611'
p728
tp729
a(S'MPI_Comm_rank()'
p730
S'1640'
p731
tp732
a(S'MPI_Comm_size()'
p733
S'1641'
p734
tp735
a(S'MPI_Comm_size()'
p736
S'1664'
p737
tp738
a(S'MPI_Comm_rank()'
p739
S'1672'
p740
tp741
a(S'MPI_Comm_size()'
p742
S'1692'
p743
tp744
a(S'MPI_Comm_rank()'
p745
S'1693'
p746
tp747
asS'deann-askit-wrapper/rkdtsrc/lsh/test_fromFile.cpp'
p748
(lp749
(S'MPI_Init()'
p750
S'41'
p751
tp752
a(S'MPI_Comm_rank()'
p753
S'48'
p754
tp755
a(S'MPI_Comm_size()'
p756
S'49'
p757
tp758
a(S'MPI_Allreduce()'
p759
S'62'
p760
tp761
a(S'MPI_Scan()'
p762
S'63'
p763
tp764
a(S'MPI_Barrier()'
p765
S'116'
p766
tp767
a(S'MPI_Barrier()'
p768
S'122'
p769
tp770
a(S'MPI_Finalize()'
p771
S'137'
p772
tp773
a(S'MPI_Comm_rank()'
p774
S'149'
p775
tp776
asS'deann-askit-wrapper/rkdtsrc/binTree/binQuery.cpp'
p777
(lp778
(S'MPI_Comm_size()'
p779
S'50'
p780
tp781
a(S'MPI_Comm_rank()'
p782
S'51'
p783
tp784
a(S'MPI_Comm_size()'
p785
S'52'
p786
tp787
a(S'MPI_Comm_rank()'
p788
S'53'
p789
tp790
a(S'MPI_Barrier()'
p791
S'112'
p792
tp793
a(S'MPI_CALL()'
p794
S'113'
p795
tp796
a(S'MPI_Type_contiguous()'
p797
S'119'
p798
tp799
a(S'MPI_Type_commit()'
p800
S'120'
p801
tp802
a(S'MPI_Barrier()'
p803
S'121'
p804
tp805
a(S'MPI_CALL()'
p806
S'122'
p807
tp808
a(S'MPI_Comm_size()'
p809
S'163'
p810
tp811
a(S'MPI_Comm_rank()'
p812
S'164'
p813
tp814
a(S'MPI_CALL()'
p815
S'171'
p816
tp817
a(S'MPI_Barrier()'
p818
S'175'
p819
tp820
a(S'MPI_Barrier()'
p821
S'232'
p822
tp823
a(S'MPI_Barrier()'
p824
S'251'
p825
tp826
a(S'MPI_Barrier()'
p827
S'264'
p828
tp829
a(S'MPI_Barrier()'
p830
S'283'
p831
tp832
a(S'MPI_Barrier()'
p833
S'327'
p834
tp835
a(S'MPI_Barrier()'
p836
S'349'
p837
tp838
a(S'MPI_CALL()'
p839
S'350'
p840
tp841
a(S'MPI_Barrier()'
p842
S'356'
p843
tp844
a(S'MPI_Type_contiguous()'
p845
S'371'
p846
tp847
a(S'MPI_Type_commit()'
p848
S'372'
p849
tp850
a(S'MPI_Barrier()'
p851
S'373'
p852
tp853
a(S'MPI_CALL()'
p854
S'374'
p855
tp856
a(S'MPI_Type_free()'
p857
S'378'
p858
tp859
a(S'MPI_Barrier()'
p860
S'395'
p861
tp862
a(S'MPI_Barrier()'
p863
S'419'
p864
tp865
a(S'MPI_Barrier()'
p866
S'457'
p867
tp868
a(S'MPI_Comm_rank()'
p869
S'483'
p870
tp871
a(S'MPI_Comm_size()'
p872
S'484'
p873
tp874
a(S'MPI_CALL()'
p875
S'495'
p876
tp877
a(S'MPI_Comm_size()'
p878
S'510'
p879
tp880
a(S'MPI_Comm_rank()'
p881
S'511'
p882
tp883
a(S'MPI_CALL()'
p884
S'520'
p885
tp886
a(S'MPI_Reduce()'
p887
S'549'
p888
tp889
a(S'MPI_Reduce()'
p890
S'550'
p891
tp892
a(S'MPI_Reduce()'
p893
S'551'
p894
tp895
a(S'MPI_Reduce()'
p896
S'555'
p897
tp898
a(S'MPI_Reduce()'
p899
S'556'
p900
tp901
a(S'MPI_Reduce()'
p902
S'557'
p903
tp904
a(S'MPI_Reduce()'
p905
S'562'
p906
tp907
a(S'MPI_Reduce()'
p908
S'563'
p909
tp910
a(S'MPI_Reduce()'
p911
S'564'
p912
tp913
a(S'MPI_Gather()'
p914
S'569'
p915
tp916
a(S'MPI_Gather()'
p917
S'570'
p918
tp919
a(S'MPI_Barrier()'
p920
S'598'
p921
tp922
a(S'MPI_Comm_size()'
p923
S'636'
p924
tp925
a(S'MPI_Comm_rank()'
p926
S'637'
p927
tp928
a(S'MPI_Barrier()'
p929
S'661'
p930
tp931
a(S'MPI_Barrier()'
p932
S'671'
p933
tp934
a(S'MPI_Comm_size()'
p935
S'688'
p936
tp937
a(S'MPI_Barrier()'
p938
S'691'
p939
tp940
a(S'MPI_Barrier()'
p941
S'738'
p942
tp943
a(S'MPI_Barrier()'
p944
S'760'
p945
tp946
a(S'MPI_Barrier()'
p947
S'775'
p948
tp949
a(S'MPI_Barrier()'
p950
S'780'
p951
tp952
a(S'MPI_Barrier()'
p953
S'799'
p954
tp955
a(S'MPI_CALL()'
p956
S'800'
p957
tp958
a(S'MPI_Barrier()'
p959
S'813'
p960
tp961
a(S'MPI_Type_contiguous()'
p962
S'820'
p963
tp964
a(S'MPI_Type_commit()'
p965
S'821'
p966
tp967
a(S'MPI_Barrier()'
p968
S'822'
p969
tp970
a(S'MPI_CALL()'
p971
S'823'
p972
tp973
a(S'MPI_Barrier()'
p974
S'828'
p975
tp976
a(S'MPI_Barrier()'
p977
S'850'
p978
tp979
a(S'MPI_Barrier()'
p980
S'864'
p981
tp982
a(S'MPI_Barrier()'
p983
S'876'
p984
tp985
a(S'MPI_Barrier()'
p986
S'891'
p987
tp988
a(S'MPI_Type_free()'
p989
S'895'
p990
tp991
a(S'MPI_Barrier()'
p992
S'904'
p993
tp994
a(S'MPI_Comm_size()'
p995
S'925'
p996
tp997
a(S'MPI_Comm_rank()'
p998
S'926'
p999
tp1000
a(S'MPI_Barrier()'
p1001
S'953'
p1002
tp1003
a(S'MPI_Comm_size()'
p1004
S'971'
p1005
tp1006
a(S'MPI_Barrier()'
p1007
S'974'
p1008
tp1009
a(S'MPI_Barrier()'
p1010
S'1033'
p1011
tp1012
a(S'MPI_Barrier()'
p1013
S'1038'
p1014
tp1015
a(S'MPI_Barrier()'
p1016
S'1062'
p1017
tp1018
a(S'MPI_Barrier()'
p1019
S'1067'
p1020
tp1021
a(S'MPI_Barrier()'
p1022
S'1081'
p1023
tp1024
a(S'MPI_CALL()'
p1025
S'1082'
p1026
tp1027
a(S'MPI_Barrier()'
p1028
S'1095'
p1029
tp1030
a(S'MPI_Barrier()'
p1031
S'1117'
p1032
tp1033
a(S'MPI_Type_contiguous()'
p1034
S'1124'
p1035
tp1036
a(S'MPI_Type_commit()'
p1037
S'1125'
p1038
tp1039
a(S'MPI_Barrier()'
p1040
S'1126'
p1041
tp1042
a(S'MPI_CALL()'
p1043
S'1127'
p1044
tp1045
a(S'MPI_Barrier()'
p1046
S'1132'
p1047
tp1048
a(S'MPI_Barrier()'
p1049
S'1143'
p1050
tp1051
a(S'MPI_Barrier()'
p1052
S'1157'
p1053
tp1054
a(S'MPI_Barrier()'
p1055
S'1164'
p1056
tp1057
a(S'MPI_Barrier()'
p1058
S'1172'
p1059
tp1060
a(S'MPI_Barrier()'
p1061
S'1187'
p1062
tp1063
a(S'MPI_Type_free()'
p1064
S'1191'
p1065
tp1066
a(S'MPI_Barrier()'
p1067
S'1200'
p1068
tp1069
a(S'MPI_Comm_size()'
p1070
S'1220'
p1071
tp1072
a(S'MPI_Comm_rank()'
p1073
S'1221'
p1074
tp1075
a(S'MPI_Barrier()'
p1076
S'1245'
p1077
tp1078
a(S'MPI_Comm_size()'
p1079
S'1261'
p1080
tp1081
a(S'MPI_Barrier()'
p1082
S'1321'
p1083
tp1084
a(S'MPI_Barrier()'
p1085
S'1335'
p1086
tp1087
a(S'MPI_Barrier()'
p1088
S'1348'
p1089
tp1090
a(S'MPI_CALL()'
p1091
S'1349'
p1092
tp1093
a(S'MPI_Type_contiguous()'
p1094
S'1356'
p1095
tp1096
a(S'MPI_Type_commit()'
p1097
S'1357'
p1098
tp1099
a(S'MPI_Barrier()'
p1100
S'1358'
p1101
tp1102
a(S'MPI_CALL()'
p1103
S'1359'
p1104
tp1105
a(S'MPI_Type_free()'
p1106
S'1401'
p1107
tp1108
a(S'MPI_Comm_size()'
p1109
S'1435'
p1110
tp1111
a(S'MPI_Comm_rank()'
p1112
S'1436'
p1113
tp1114
a(S'MPI_CALL()'
p1115
S'1446'
p1116
tp1117
a(S'MPI_Barrier()'
p1118
S'1525'
p1119
tp1120
a(S'MPI_Barrier()'
p1121
S'1540'
p1122
tp1123
a(S'MPI_Reduce()'
p1124
S'1550'
p1125
tp1126
a(S'MPI_Reduce()'
p1127
S'1551'
p1128
tp1129
a(S'MPI_Reduce()'
p1130
S'1552'
p1131
tp1132
a(S'MPI_Comm_size()'
p1133
S'1574'
p1134
tp1135
a(S'MPI_Barrier()'
p1136
S'1650'
p1137
tp1138
a(S'MPI_Barrier()'
p1139
S'1666'
p1140
tp1141
a(S'MPI_CALL()'
p1142
S'1667'
p1143
tp1144
a(S'MPI_Type_contiguous()'
p1145
S'1691'
p1146
tp1147
a(S'MPI_Type_commit()'
p1148
S'1692'
p1149
tp1150
a(S'MPI_Barrier()'
p1151
S'1693'
p1152
tp1153
a(S'MPI_CALL()'
p1154
S'1694'
p1155
tp1156
a(S'MPI_Type_free()'
p1157
S'1697'
p1158
tp1159
a(S'MPI_Comm_size()'
p1160
S'1756'
p1161
tp1162
a(S'MPI_Comm_rank()'
p1163
S'1757'
p1164
tp1165
a(S'MPI_CALL()'
p1166
S'1765'
p1167
tp1168
a(S'MPI_Allgather()'
p1169
S'1776'
p1170
tp1171
a(S'MPI_Barrier()'
p1172
S'1797'
p1173
tp1174
a(S'MPI_Barrier()'
p1175
S'1848'
p1176
tp1177
a(S'X_MPI_COMM_WORLD()'
p1178
S'1874'
p1179
tp1180
a(S'MPI_Barrier()'
p1181
S'1882'
p1182
tp1183
a(S'MPI_Barrier()'
p1184
S'1888'
p1185
tp1186
a(S'MPI_Barrier()'
p1187
S'1897'
p1188
tp1189
a(S'MPI_Barrier()'
p1190
S'1914'
p1191
tp1192
a(S'MPI_Barrier()'
p1193
S'1931'
p1194
tp1195
a(S'MPI_Barrier()'
p1196
S'1948'
p1197
tp1198
a(S'MPI_Barrier()'
p1199
S'1965'
p1200
tp1201
a(S'MPI_Barrier()'
p1202
S'1988'
p1203
tp1204
a(S'MPI_Barrier()'
p1205
S'2002'
p1206
tp1207
a(S'MPI_Barrier()'
p1208
S'2012'
p1209
tp1210
a(S'MPI_Reduce()'
p1211
S'2024'
p1212
tp1213
a(S'MPI_Reduce()'
p1214
S'2025'
p1215
tp1216
a(S'MPI_Reduce()'
p1217
S'2026'
p1218
tp1219
a(S'MPI_Comm_size()'
p1220
S'2080'
p1221
tp1222
a(S'MPI_Comm_rank()'
p1223
S'2081'
p1224
tp1225
a(S'MPI_CALL()'
p1226
S'2090'
p1227
tp1228
a(S'MPI_CALL()'
p1229
S'2091'
p1230
tp1231
a(S'MPI_Barrier()'
p1232
S'2146'
p1233
tp1234
a(S'MPI_Barrier()'
p1235
S'2182'
p1236
tp1237
a(S'MPI_Reduce()'
p1238
S'2266'
p1239
tp1240
a(S'MPI_Reduce()'
p1241
S'2267'
p1242
tp1243
a(S'MPI_Reduce()'
p1244
S'2268'
p1245
tp1246
a(S'MPI_Comm_size()'
p1247
S'2389'
p1248
tp1249
a(S'MPI_Comm_rank()'
p1250
S'2390'
p1251
tp1252
a(S'MPI_CALL()'
p1253
S'2399'
p1254
tp1255
a(S'MPI_CALL()'
p1256
S'2400'
p1257
tp1258
a(S'X_MPI_COMM_WORLD()'
p1259
S'2414'
p1260
tp1261
a(S'MPI_Reduce()'
p1262
S'2447'
p1263
tp1264
a(S'MPI_Reduce()'
p1265
S'2448'
p1266
tp1267
a(S'MPI_Reduce()'
p1268
S'2449'
p1269
tp1270
a(S'MPI_Reduce()'
p1271
S'2506'
p1272
tp1273
a(S'MPI_Reduce()'
p1274
S'2507'
p1275
tp1276
a(S'MPI_Reduce()'
p1277
S'2508'
p1278
tp1279
a(S'MPI_Comm_size()'
p1280
S'2550'
p1281
tp1282
a(S'MPI_Comm_rank()'
p1283
S'2551'
p1284
tp1285
a(S'MPI_CALL()'
p1286
S'2554'
p1287
tp1288
a(S'MPI_CALL()'
p1289
S'2555'
p1290
tp1291
a(S'MPI_Barrier()'
p1292
S'2597'
p1293
tp1294
a(S'MPI_CALL()'
p1295
S'2598'
p1296
tp1297
a(S'MPI_Barrier()'
p1298
S'2605'
p1299
tp1300
a(S'MPI_CALL()'
p1301
S'2606'
p1302
tp1303
a(S'MPI_Barrier()'
p1304
S'2651'
p1305
tp1306
a(S'MPI_CALL()'
p1307
S'2652'
p1308
tp1309
a(S'MPI_Barrier()'
p1310
S'2657'
p1311
tp1312
a(S'MPI_CALL()'
p1313
S'2658'
p1314
tp1315
a(S'MPI_Barrier()'
p1316
S'2699'
p1317
tp1318
a(S'MPI_CALL()'
p1319
S'2700'
p1320
tp1321
a(S'MPI_Barrier()'
p1322
S'2708'
p1323
tp1324
a(S'MPI_CALL()'
p1325
S'2709'
p1326
tp1327
a(S'MPI_Barrier()'
p1328
S'2752'
p1329
tp1330
a(S'MPI_CALL()'
p1331
S'2753'
p1332
tp1333
a(S'MPI_Barrier()'
p1334
S'2758'
p1335
tp1336
a(S'MPI_CALL()'
p1337
S'2759'
p1338
tp1339
a(S'MPI_Comm_size()'
p1340
S'2837'
p1341
tp1342
a(S'MPI_Comm_rank()'
p1343
S'2838'
p1344
tp1345
a(S'MPI_CALL()'
p1346
S'2844'
p1347
tp1348
a(S'MPI_CALL()'
p1349
S'2845'
p1350
tp1351
a(S'MPI_Barrier()'
p1352
S'2960'
p1353
tp1354
a(S'MPI_CALL()'
p1355
S'2961'
p1356
tp1357
a(S'MPI_Barrier()'
p1358
S'2969'
p1359
tp1360
a(S'MPI_CALL()'
p1361
S'2970'
p1362
tp1363
a(S'MPI_Barrier()'
p1364
S'2977'
p1365
tp1366
a(S'MPI_Barrier()'
p1367
S'3025'
p1368
tp1369
a(S'MPI_CALL()'
p1370
S'3026'
p1371
tp1372
a(S'MPI_Barrier()'
p1373
S'3031'
p1374
tp1375
a(S'MPI_CALL()'
p1376
S'3032'
p1377
tp1378
a(S'MPI_Barrier()'
p1379
S'3108'
p1380
tp1381
a(S'MPI_CALL()'
p1382
S'3109'
p1383
tp1384
a(S'MPI_Barrier()'
p1385
S'3117'
p1386
tp1387
a(S'MPI_CALL()'
p1388
S'3118'
p1389
tp1390
a(S'MPI_Barrier()'
p1391
S'3164'
p1392
tp1393
a(S'MPI_CALL()'
p1394
S'3165'
p1395
tp1396
a(S'MPI_Barrier()'
p1397
S'3170'
p1398
tp1399
a(S'MPI_CALL()'
p1400
S'3171'
p1401
tp1402
a(S'MPI_Comm_size()'
p1403
S'3426'
p1404
tp1405
a(S'MPI_Comm_rank()'
p1406
S'3427'
p1407
tp1408
a(S'MPI_CALL()'
p1409
S'3435'
p1410
tp1411
a(S'MPI_Comm_size()'
p1412
S'3447'
p1413
tp1414
a(S'MPI_Comm_rank()'
p1415
S'3448'
p1416
tp1417
a(S'MPI_CALL()'
p1418
S'3455'
p1419
tp1420
a(S'MPI_Comm_size()'
p1421
S'3480'
p1422
tp1423
a(S'MPI_Comm_rank()'
p1424
S'3481'
p1425
tp1426
a(S'MPI_Reduce()'
p1427
S'3483'
p1428
tp1429
a(S'MPI_Reduce()'
p1430
S'3484'
p1431
tp1432
a(S'MPI_Reduce()'
p1433
S'3485'
p1434
tp1435
a(S'MPI_Reduce()'
p1436
S'3489'
p1437
tp1438
a(S'MPI_Reduce()'
p1439
S'3490'
p1440
tp1441
a(S'MPI_Reduce()'
p1442
S'3491'
p1443
tp1444
a(S'MPI_Barrier()'
p1445
S'3504'
p1446
tp1447
a(S'MPI_CALL()'
p1448
S'3543'
p1449
tp1450
a(S'MPI_Comm_size()'
p1451
S'3553'
p1452
tp1453
a(S'MPI_Comm_rank()'
p1454
S'3554'
p1455
tp1456
a(S'MPI_CALL()'
p1457
S'3561'
p1458
tp1459
a(S'MPI_Comm_size()'
p1460
S'3586'
p1461
tp1462
a(S'MPI_Comm_rank()'
p1463
S'3587'
p1464
tp1465
a(S'MPI_Reduce()'
p1466
S'3589'
p1467
tp1468
a(S'MPI_Reduce()'
p1469
S'3590'
p1470
tp1471
a(S'MPI_Reduce()'
p1472
S'3591'
p1473
tp1474
a(S'MPI_Reduce()'
p1475
S'3595'
p1476
tp1477
a(S'MPI_Reduce()'
p1478
S'3596'
p1479
tp1480
a(S'MPI_Reduce()'
p1481
S'3597'
p1482
tp1483
a(S'MPI_Barrier()'
p1484
S'3610'
p1485
tp1486
a(S'MPI_Comm_size()'
p1487
S'3646'
p1488
tp1489
a(S'MPI_Comm_rank()'
p1490
S'3647'
p1491
tp1492
a(S'MPI_CALL()'
p1493
S'3650'
p1494
tp1495
a(S'MPI_CALL()'
p1496
S'3651'
p1497
tp1498
a(S'MPI_Barrier()'
p1499
S'3680'
p1500
tp1501
a(S'MPI_Barrier()'
p1502
S'3685'
p1503
tp1504
a(S'MPI_Barrier()'
p1505
S'3705'
p1506
tp1507
a(S'MPI_Barrier()'
p1508
S'3710'
p1509
tp1510
a(S'MPI_Barrier()'
p1511
S'3731'
p1512
tp1513
a(S'MPI_Barrier()'
p1514
S'3736'
p1515
tp1516
a(S'MPI_Barrier()'
p1517
S'3751'
p1518
tp1519
a(S'MPI_CALL()'
p1520
S'3757'
p1521
tp1522
a(S'MPI_Barrier()'
p1523
S'3777'
p1524
tp1525
a(S'MPI_CALL()'
p1526
S'3781'
p1527
tp1528
a(S'MPI_Barrier()'
p1529
S'3785'
p1530
tp1531
a(S'MPI_Barrier()'
p1532
S'3797'
p1533
tp1534
a(S'MPI_Barrier()'
p1535
S'3815'
p1536
tp1537
a(S'MPI_Barrier()'
p1538
S'3827'
p1539
tp1540
a(S'MPI_Barrier()'
p1541
S'3844'
p1542
tp1543
a(S'MPI_CALL()'
p1544
S'3851'
p1545
tp1546
a(S'MPI_CALL()'
p1547
S'3856'
p1548
tp1549
a(S'MPI_Barrier()'
p1550
S'3869'
p1551
tp1552
a(S'MPI_Barrier()'
p1553
S'3874'
p1554
tp1555
a(S'MPI_Barrier()'
p1556
S'3889'
p1557
tp1558
asS'deann-askit-wrapper/rkdtsrc/parallelIO/parallelIO.cpp'
p1559
(lp1560
(S'MPI_Comm_rank()'
p1561
S'140'
p1562
tp1563
a(S'MPI_Comm_size()'
p1564
S'141'
p1565
tp1566
a(S'MPI_Barrier()'
p1567
S'145'
p1568
tp1569
a(S'MPI_Barrier()'
p1570
S'161'
p1571
tp1572
a(S'MPI_Comm_rank()'
p1573
S'202'
p1574
tp1575
a(S'MPI_Comm_size()'
p1576
S'203'
p1577
tp1578
a(S'MPI_Barrier()'
p1579
S'216'
p1580
tp1581
a(S'MPI_Barrier()'
p1582
S'257'
p1583
tp1584
asS'deann-askit-wrapper/rkdtsrc/oldtree/gatherTree_ot.cpp'
p1585
(lp1586
(S'MPI_Comm_size()'
p1587
S'18'
p1588
tp1589
a(S'MPI_Comm_rank()'
p1590
S'19'
p1591
tp1592
a(S'MPI_Comm_rank()'
p1593
S'36'
p1594
tp1595
a(S'MPI_Gather()'
p1596
S'55'
p1597
tp1598
a(S'MPI_Gatherv()'
p1599
S'60'
p1600
tp1601
a(S'MPI_Barrier()'
p1602
S'63'
p1603
tp1604
a(S'MPI_Bcast()'
p1605
S'72'
p1606
tp1607
a(S'MPI_Comm_rank()'
p1608
S'157'
p1609
tp1610
a(S'MPI_Comm_size()'
p1611
S'227'
p1612
tp1613
a(S'MPI_Comm_rank()'
p1614
S'228'
p1615
tp1616
a(S'MPI_Barrier()'
p1617
S'274'
p1618
tp1619
asS'deann-askit-wrapper/rkdtsrc/oldtree/test_oldtree.cpp'
p1620
(lp1621
(S'MPI_Init()'
p1622
S'33'
p1623
tp1624
a(S'MPI_Comm_rank()'
p1625
S'36'
p1626
tp1627
a(S'MPI_Comm_size()'
p1628
S'37'
p1629
tp1630
a(S'MPI_Allreduce()'
p1631
S'294'
p1632
tp1633
a(S'MPI_Scan()'
p1634
S'295'
p1635
tp1636
a(S'MPI_Allreduce()'
p1637
S'301'
p1638
tp1639
a(S'MPI_Scan()'
p1640
S'302'
p1641
tp1642
a(S'MPI_Barrier()'
p1643
S'309'
p1644
tp1645
a(S'MPI_Barrier()'
p1646
S'316'
p1647
tp1648
a(S'MPI_Reduce()'
p1649
S'413'
p1650
tp1651
a(S'MPI_Reduce()'
p1652
S'414'
p1653
tp1654
a(S'MPI_Reduce()'
p1655
S'415'
p1656
tp1657
a(S'MPI_Reduce()'
p1658
S'428'
p1659
tp1660
a(S'MPI_Reduce()'
p1661
S'429'
p1662
tp1663
a(S'MPI_Reduce()'
p1664
S'430'
p1665
tp1666
a(S'MPI_Reduce()'
p1667
S'443'
p1668
tp1669
a(S'MPI_Reduce()'
p1670
S'444'
p1671
tp1672
a(S'MPI_Reduce()'
p1673
S'445'
p1674
tp1675
a(S'MPI_Reduce()'
p1676
S'459'
p1677
tp1678
a(S'MPI_Reduce()'
p1679
S'460'
p1680
tp1681
a(S'MPI_Reduce()'
p1682
S'461'
p1683
tp1684
a(S'MPI_Reduce()'
p1685
S'471'
p1686
tp1687
a(S'MPI_Reduce()'
p1688
S'472'
p1689
tp1690
a(S'MPI_Reduce()'
p1691
S'473'
p1692
tp1693
a(S'MPI_Reduce()'
p1694
S'484'
p1695
tp1696
a(S'MPI_Reduce()'
p1697
S'485'
p1698
tp1699
a(S'MPI_Reduce()'
p1700
S'486'
p1701
tp1702
a(S'MPI_Reduce()'
p1703
S'496'
p1704
tp1705
a(S'MPI_Reduce()'
p1706
S'497'
p1707
tp1708
a(S'MPI_Reduce()'
p1709
S'498'
p1710
tp1711
a(S'MPI_Reduce()'
p1712
S'508'
p1713
tp1714
a(S'MPI_Reduce()'
p1715
S'509'
p1716
tp1717
a(S'MPI_Reduce()'
p1718
S'510'
p1719
tp1720
a(S'MPI_Reduce()'
p1721
S'521'
p1722
tp1723
a(S'MPI_Reduce()'
p1724
S'522'
p1725
tp1726
a(S'MPI_Reduce()'
p1727
S'523'
p1728
tp1729
a(S'MPI_Reduce()'
p1730
S'533'
p1731
tp1732
a(S'MPI_Reduce()'
p1733
S'534'
p1734
tp1735
a(S'MPI_Reduce()'
p1736
S'535'
p1737
tp1738
a(S'MPI_Reduce()'
p1739
S'545'
p1740
tp1741
a(S'MPI_Reduce()'
p1742
S'546'
p1743
tp1744
a(S'MPI_Reduce()'
p1745
S'547'
p1746
tp1747
a(S'MPI_Reduce()'
p1748
S'558'
p1749
tp1750
a(S'MPI_Reduce()'
p1751
S'559'
p1752
tp1753
a(S'MPI_Reduce()'
p1754
S'560'
p1755
tp1756
a(S'MPI_Reduce()'
p1757
S'570'
p1758
tp1759
a(S'MPI_Reduce()'
p1760
S'571'
p1761
tp1762
a(S'MPI_Reduce()'
p1763
S'572'
p1764
tp1765
a(S'MPI_Finalize()'
p1766
S'595'
p1767
tp1768
asS'deann-askit-wrapper/rkdtsrc/pcltree/groupdistribute.cpp'
p1769
(lp1770
(S'X_MPI_INT()'
p1771
S'87'
p1772
tp1773
a(S'X_MPI_INT()'
p1774
S'92'
p1775
tp1776
asS'deann-askit-wrapper/rkdtsrc/include/parallelIO/parallelIO.txx'
p1777
(lp1778
(S'MPI_Comm_rank()'
p1779
S'89'
p1780
tp1781
a(S'MPI_Comm_size()'
p1782
S'90'
p1783
tp1784
a(S'MPI_Bcast()'
p1785
S'111'
p1786
tp1787
a(S'MPI_Bcast()'
p1788
S'112'
p1789
tp1790
a(S'MPI_Scan()'
p1791
S'140'
p1792
tp1793
a(S'MPI_Barrier()'
p1794
S'160'
p1795
tp1796
a(S'MPI_Comm_rank()'
p1797
S'170'
p1798
tp1799
a(S'MPI_Comm_size()'
p1800
S'171'
p1801
tp1802
a(S'MPI_Bcast()'
p1803
S'192'
p1804
tp1805
a(S'MPI_Bcast()'
p1806
S'193'
p1807
tp1808
a(S'MPI_Scan()'
p1809
S'221'
p1810
tp1811
a(S'MPI_Barrier()'
p1812
S'241'
p1813
tp1814
a(S'MPI_Comm_size()'
p1815
S'291'
p1816
tp1817
a(S'MPI_Comm_rank()'
p1818
S'292'
p1819
tp1820
a(S'MPI_Scan()'
p1821
S'307'
p1822
tp1823
a(S'MPI_Comm_size()'
p1824
S'334'
p1825
tp1826
a(S'MPI_Comm_rank()'
p1827
S'335'
p1828
tp1829
a(S'MPI_Scan()'
p1830
S'350'
p1831
tp1832
a(S'MPI_Comm_rank()'
p1833
S'419'
p1834
tp1835
a(S'MPI_Comm_size()'
p1836
S'420'
p1837
tp1838
a(S'MPI_Barrier()'
p1839
S'423'
p1840
tp1841
a(S'MPI_Barrier()'
p1842
S'437'
p1843
tp1844
a(S'MPI_Comm_rank()'
p1845
S'448'
p1846
tp1847
a(S'MPI_Comm_size()'
p1848
S'449'
p1849
tp1850
a(S'MPI_Barrier()'
p1851
S'454'
p1852
tp1853
a(S'MPI_Scan()'
p1854
S'458'
p1855
tp1856
a(S'MPI_Barrier()'
p1857
S'472'
p1858
tp1859
asS'deann-askit-wrapper/rkdtsrc/binTree/distributeToLeaf.cpp'
p1860
(lp1861
(S'MPI_Comm_size()'
p1862
S'34'
p1863
tp1864
a(S'MPI_Comm_rank()'
p1865
S'35'
p1866
tp1867
a(S'MPI_Comm_size()'
p1868
S'42'
p1869
tp1870
a(S'MPI_Comm_rank()'
p1871
S'43'
p1872
tp1873
a(S'MPI_CALL()'
p1874
S'44'
p1875
tp1876
a(S'MPI_Barrier()'
p1877
S'171'
p1878
tp1879
a(S'MPI_Comm_size()'
p1880
S'192'
p1881
tp1882
a(S'MPI_Comm_rank()'
p1883
S'193'
p1884
tp1885
a(S'MPI_Comm_size()'
p1886
S'202'
p1887
tp1888
a(S'MPI_Comm_rank()'
p1889
S'203'
p1890
tp1891
a(S'MPI_CALL()'
p1892
S'204'
p1893
tp1894
a(S'MPI_Barrier()'
p1895
S'244'
p1896
tp1897
a(S'MPI_Barrier()'
p1898
S'288'
p1899
tp1900
a(S'MPI_Barrier()'
p1901
S'310'
p1902
tp1903
a(S'MPI_Barrier()'
p1904
S'343'
p1905
tp1906
a(S'MPI_Barrier()'
p1907
S'363'
p1908
tp1909
a(S'MPI_Barrier()'
p1910
S'399'
p1911
tp1912
a(S'MPI_Barrier()'
p1913
S'408'
p1914
tp1915
a(S'MPI_Comm_size()'
p1916
S'431'
p1917
tp1918
a(S'MPI_Comm_rank()'
p1919
S'432'
p1920
tp1921
a(S'MPI_Comm_size()'
p1922
S'434'
p1923
tp1924
a(S'MPI_Comm_rank()'
p1925
S'435'
p1926
tp1927
a(S'MPI_Barrier()'
p1928
S'438'
p1929
tp1930
a(S'MPI_Barrier()'
p1931
S'451'
p1932
tp1933
a(S'MPI_Barrier()'
p1934
S'479'
p1935
tp1936
a(S'MPI_Barrier()'
p1937
S'511'
p1938
tp1939
a(S'MPI_Barrier()'
p1940
S'554'
p1941
tp1942
a(S'MPI_Barrier()'
p1943
S'565'
p1944
tp1945
a(S'MPI_Barrier()'
p1946
S'573'
p1947
tp1948
a(S'MPI_Barrier()'
p1949
S'589'
p1950
tp1951
a(S'MPI_Barrier()'
p1952
S'602'
p1953
tp1954
a(S'MPI_Comm_size()'
p1955
S'615'
p1956
tp1957
a(S'MPI_Comm_rank()'
p1958
S'616'
p1959
tp1960
a(S'MPI_Comm_size()'
p1961
S'618'
p1962
tp1963
a(S'MPI_Comm_rank()'
p1964
S'619'
p1965
tp1966
a(S'MPI_Barrier()'
p1967
S'686'
p1968
tp1969
a(S'MPI_Barrier()'
p1970
S'700'
p1971
tp1972
a(S'MPI_Comm_rank()'
p1973
S'745'
p1974
tp1975
a(S'MPI_Comm_size()'
p1976
S'746'
p1977
tp1978
a(S'MPI_Scan()'
p1979
S'751'
p1980
tp1981
a(S'MPI_CALL()'
p1982
S'760'
p1983
tp1984
a(S'MPI_Bcast()'
p1985
S'764'
p1986
tp1987
a(S'MPI_CALL()'
p1988
S'788'
p1989
tp1990
a(S'MPI_CALL()'
p1991
S'791'
p1992
tp1993
a(S'MPI_Comm_rank()'
p1994
S'806'
p1995
tp1996
a(S'MPI_Comm_size()'
p1997
S'807'
p1998
tp1999
a(S'MPI_Comm_rank()'
p2000
S'816'
p2001
tp2002
a(S'MPI_Comm_size()'
p2003
S'817'
p2004
tp2005
a(S'MPI_Send()'
p2006
S'841'
p2007
tp2008
a(S'MPI_Recv()'
p2009
S'843'
p2010
tp2011
a(S'MPI_Barrier()'
p2012
S'844'
p2013
tp2014
a(S'MPI_Bcast()'
p2015
S'845'
p2016
tp2017
a(S'MPI_Bcast()'
p2018
S'846'
p2019
tp2020
a(S'MPI_Comm_size()'
p2021
S'877'
p2022
tp2023
a(S'MPI_Comm_rank()'
p2024
S'878'
p2025
tp2026
a(S'MPI_Comm_size()'
p2027
S'881'
p2028
tp2029
a(S'MPI_Comm_rank()'
p2030
S'882'
p2031
tp2032
a(S'MPI_Barrier()'
p2033
S'992'
p2034
tp2035
asS'deann-askit-wrapper/askit_release/treecode/deprecated/driver/test_main.cpp'
p2036
(lp2037
(S'MPI_Init()'
p2038
S'16'
p2039
tp2040
a(S'MPI_Comm_rank()'
p2041
S'19'
p2042
tp2043
a(S'MPI_Comm_size()'
p2044
S'20'
p2045
tp2046
a(S'MPI_Finalize()'
p2047
S'199'
p2048
tp2049
asS'deann-askit-wrapper/rkdtsrc/stTree/stTree.cpp'
p2050
(lp2051
(S'MPI_Comm_rank()'
p2052
S'94'
p2053
tp2054
a(S'MPI_Comm_size()'
p2055
S'95'
p2056
tp2057
a(S'MPI_Comm_rank()'
p2058
S'444'
p2059
tp2060
a(S'MPI_Comm_rank()'
p2061
S'738'
p2062
tp2063
a(S'MPI_Comm_size()'
p2064
S'739'
p2065
tp2066
a(S'MPI_Comm_rank()'
p2067
S'754'
p2068
tp2069
a(S'MPI_Comm_size()'
p2070
S'755'
p2071
tp2072
a(S'MPI_Reduce()'
p2073
S'765'
p2074
tp2075
a(S'MPI_Reduce()'
p2076
S'766'
p2077
tp2078
a(S'MPI_Reduce()'
p2079
S'767'
p2080
tp2081
a(S'MPI_Comm_rank()'
p2082
S'862'
p2083
tp2084
a(S'MPI_Comm_size()'
p2085
S'863'
p2086
tp2087
a(S'MPI_Comm_rank()'
p2088
S'970'
p2089
tp2090
a(S'MPI_Comm_size()'
p2091
S'971'
p2092
tp2093
a(S'MPI_Reduce()'
p2094
S'984'
p2095
tp2096
a(S'MPI_Reduce()'
p2097
S'985'
p2098
tp2099
a(S'MPI_Reduce()'
p2100
S'986'
p2101
tp2102
a(S'MPI_Reduce()'
p2103
S'995'
p2104
tp2105
a(S'MPI_Reduce()'
p2106
S'996'
p2107
tp2108
a(S'MPI_Reduce()'
p2109
S'997'
p2110
tp2111
asS'deann-askit-wrapper/rkdtsrc/metricTree/metrictree.cpp'
p2112
(lp2113
(S'MPI_Comm_rank()'
p2114
S'28'
p2115
tp2116
a(S'MPI_Comm_size()'
p2117
S'29'
p2118
tp2119
a(S'MPI_Allreduce()'
p2120
S'51'
p2121
tp2122
a(S'MPI_Barrier()'
p2123
S'65'
p2124
tp2125
a(S'MPI_Comm_size()'
p2126
S'67'
p2127
tp2128
a(S'MPI_Comm_rank()'
p2129
S'68'
p2130
tp2131
a(S'MPI_Allgather()'
p2132
S'136'
p2133
tp2134
a(S'MPI_Comm_size()'
p2135
S'184'
p2136
tp2137
a(S'MPI_Comm_rank()'
p2138
S'221'
p2139
tp2140
a(S'MPI_Allreduce()'
p2141
S'232'
p2142
tp2143
a(S'MPI_Allreduce()'
p2144
S'256'
p2145
tp2146
a(S'MPI_Comm_size()'
p2147
S'274'
p2148
tp2149
a(S'MPI_Comm_rank()'
p2150
S'275'
p2151
tp2152
a(S'MPI_Allgather()'
p2153
S'293'
p2154
tp2155
a(S'MPI_Bcast()'
p2156
S'303'
p2157
tp2158
a(S'MPI_Comm_rank()'
p2159
S'317'
p2160
tp2161
a(S'MPI_Allreduce()'
p2162
S'323'
p2163
tp2164
a(S'MPI_Barrier()'
p2165
S'326'
p2166
tp2167
a(S'MPI_Allreduce()'
p2168
S'374'
p2169
tp2170
a(S'MPI_Allreduce()'
p2171
S'388'
p2172
tp2173
a(S'MPI_Allreduce()'
p2174
S'389'
p2175
tp2176
a(S'MPI_Comm_size()'
p2177
S'412'
p2178
tp2179
a(S'MPI_Comm_rank()'
p2180
S'413'
p2181
tp2182
a(S'MPI_Comm_size()'
p2183
S'420'
p2184
tp2185
a(S'MPI_Comm_rank()'
p2186
S'421'
p2187
tp2188
a(S'MPI_Allreduce()'
p2189
S'422'
p2190
tp2191
a(S'MPI_Barrier()'
p2192
S'534'
p2193
tp2194
a(S'MPI_Comm_size()'
p2195
S'554'
p2196
tp2197
a(S'MPI_Comm_rank()'
p2198
S'555'
p2199
tp2200
a(S'MPI_Comm_size()'
p2201
S'564'
p2202
tp2203
a(S'MPI_Comm_rank()'
p2204
S'565'
p2205
tp2206
a(S'MPI_Allreduce()'
p2207
S'566'
p2208
tp2209
a(S'MPI_Barrier()'
p2210
S'707'
p2211
tp2212
a(S'MPI_Comm_size()'
p2213
S'724'
p2214
tp2215
a(S'MPI_Comm_rank()'
p2216
S'725'
p2217
tp2218
a(S'MPI_Comm_size()'
p2219
S'728'
p2220
tp2221
a(S'MPI_Comm_rank()'
p2222
S'729'
p2223
tp2224
a(S'MPI_Barrier()'
p2225
S'825'
p2226
tp2227
asS'deann-askit-wrapper/rkdtsrc/binTree/test_coll_tree.cpp'
p2228
(lp2229
(S'MPI_Init()'
p2230
S'33'
p2231
tp2232
a(S'MPI_Comm_rank()'
p2233
S'36'
p2234
tp2235
a(S'MPI_Comm_size()'
p2236
S'37'
p2237
tp2238
a(S'MPI_Allreduce()'
p2239
S'295'
p2240
tp2241
a(S'MPI_Scan()'
p2242
S'296'
p2243
tp2244
a(S'MPI_Allreduce()'
p2245
S'302'
p2246
tp2247
a(S'MPI_Scan()'
p2248
S'303'
p2249
tp2250
a(S'MPI_Barrier()'
p2251
S'310'
p2252
tp2253
a(S'MPI_Barrier()'
p2254
S'321'
p2255
tp2256
a(S'MPI_Barrier()'
p2257
S'384'
p2258
tp2259
a(S'MPI_Barrier()'
p2260
S'396'
p2261
tp2262
a(S'MPI_Barrier()'
p2263
S'405'
p2264
tp2265
a(S'MPI_Barrier()'
p2266
S'413'
p2267
tp2268
a(S'MPI_Barrier()'
p2269
S'452'
p2270
tp2271
a(S'MPI_Barrier()'
p2272
S'468'
p2273
tp2274
a(S'MPI_Barrier()'
p2275
S'479'
p2276
tp2277
a(S'MPI_Reduce()'
p2278
S'490'
p2279
tp2280
a(S'MPI_Reduce()'
p2281
S'491'
p2282
tp2283
a(S'MPI_Reduce()'
p2284
S'492'
p2285
tp2286
a(S'MPI_Reduce()'
p2287
S'505'
p2288
tp2289
a(S'MPI_Reduce()'
p2290
S'506'
p2291
tp2292
a(S'MPI_Reduce()'
p2293
S'507'
p2294
tp2295
a(S'MPI_Reduce()'
p2296
S'520'
p2297
tp2298
a(S'MPI_Reduce()'
p2299
S'521'
p2300
tp2301
a(S'MPI_Reduce()'
p2302
S'522'
p2303
tp2304
a(S'MPI_Reduce()'
p2305
S'537'
p2306
tp2307
a(S'MPI_Reduce()'
p2308
S'538'
p2309
tp2310
a(S'MPI_Reduce()'
p2311
S'539'
p2312
tp2313
a(S'MPI_Reduce()'
p2314
S'549'
p2315
tp2316
a(S'MPI_Reduce()'
p2317
S'550'
p2318
tp2319
a(S'MPI_Reduce()'
p2320
S'551'
p2321
tp2322
a(S'MPI_Reduce()'
p2323
S'561'
p2324
tp2325
a(S'MPI_Reduce()'
p2326
S'562'
p2327
tp2328
a(S'MPI_Reduce()'
p2329
S'563'
p2330
tp2331
a(S'MPI_Reduce()'
p2332
S'574'
p2333
tp2334
a(S'MPI_Reduce()'
p2335
S'575'
p2336
tp2337
a(S'MPI_Reduce()'
p2338
S'576'
p2339
tp2340
a(S'MPI_Reduce()'
p2341
S'586'
p2342
tp2343
a(S'MPI_Reduce()'
p2344
S'587'
p2345
tp2346
a(S'MPI_Reduce()'
p2347
S'588'
p2348
tp2349
a(S'MPI_Reduce()'
p2350
S'598'
p2351
tp2352
a(S'MPI_Reduce()'
p2353
S'599'
p2354
tp2355
a(S'MPI_Reduce()'
p2356
S'600'
p2357
tp2358
a(S'MPI_Reduce()'
p2359
S'611'
p2360
tp2361
a(S'MPI_Reduce()'
p2362
S'612'
p2363
tp2364
a(S'MPI_Reduce()'
p2365
S'613'
p2366
tp2367
a(S'MPI_Reduce()'
p2368
S'623'
p2369
tp2370
a(S'MPI_Reduce()'
p2371
S'624'
p2372
tp2373
a(S'MPI_Reduce()'
p2374
S'625'
p2375
tp2376
a(S'MPI_Finalize()'
p2377
S'637'
p2378
tp2379
asS'deann-askit-wrapper/rkdtsrc/lsh/test_partitionedK.cpp'
p2380
(lp2381
(S'MPI_Init()'
p2382
S'39'
p2383
tp2384
a(S'MPI_Comm_rank()'
p2385
S'47'
p2386
tp2387
a(S'MPI_Comm_size()'
p2388
S'48'
p2389
tp2390
a(S'MPI_Allreduce()'
p2391
S'54'
p2392
tp2393
a(S'MPI_Scan()'
p2394
S'55'
p2395
tp2396
a(S'MPI_Barrier()'
p2397
S'133'
p2398
tp2399
a(S'MPI_Barrier()'
p2400
S'166'
p2401
tp2402
a(S'MPI_Finalize()'
p2403
S'186'
p2404
tp2405
a(S'MPI_Comm_rank()'
p2406
S'200'
p2407
tp2408
asS'deann-askit-wrapper/rkdtsrc/direct_knn/lowmem_perf.cpp'
p2409
(lp2410
(S'MPI_Init()'
p2411
S'41'
p2412
tp2413
a(S'MPI_Finalize()'
p2414
S'74'
p2415
tp2416
asS'deann-askit-wrapper/rkdtsrc/generator/mixOfGaussian.cpp'
p2417
(lp2418
(S'MPI_Comm_rank()'
p2419
S'143'
p2420
tp2421
a(S'MPI_Comm_size()'
p2422
S'144'
p2423
tp2424
a(S'MPI_Bcast()'
p2425
S'154'
p2426
tp2427
a(S'MPI_Comm_rank()'
p2428
S'191'
p2429
tp2430
a(S'MPI_Comm_size()'
p2431
S'192'
p2432
tp2433
a(S'MPI_Bcast()'
p2434
S'202'
p2435
tp2436
a(S'MPI_Comm_rank()'
p2437
S'237'
p2438
tp2439
a(S'MPI_Comm_size()'
p2440
S'238'
p2441
tp2442
a(S'MPI_Bcast()'
p2443
S'247'
p2444
tp2445
a(S'MPI_Bcast()'
p2446
S'266'
p2447
tp2448
a(S'MPI_Comm_rank()'
p2449
S'295'
p2450
tp2451
a(S'MPI_Comm_size()'
p2452
S'296'
p2453
tp2454
a(S'MPI_Bcast()'
p2455
S'305'
p2456
tp2457
a(S'MPI_Bcast()'
p2458
S'320'
p2459
tp2460
asS'deann-askit-wrapper/rkdtsrc/metricTree/test.cpp'
p2461
(lp2462
(S'MPI_Init()'
p2463
S'61'
p2464
tp2465
a(S'MPI_Comm_rank()'
p2466
S'72'
p2467
tp2468
a(S'MPI_Comm_size()'
p2469
S'73'
p2470
tp2471
a(S'MPI_Allreduce()'
p2472
S'145'
p2473
tp2474
a(S'MPI_Allreduce()'
p2475
S'146'
p2476
tp2477
a(S'MPI_Scan()'
p2478
S'148'
p2479
tp2480
a(S'MPI_Scan()'
p2481
S'149'
p2482
tp2483
a(S'MPI_Bcast()'
p2484
S'179'
p2485
tp2486
a(S'MPI_Allgather()'
p2487
S'201'
p2488
tp2489
a(S'MPI_Allgatherv()'
p2490
S'204'
p2491
tp2492
a(S'MPI_Allreduce()'
p2493
S'215'
p2494
tp2495
a(S'MPI_Reduce()'
p2496
S'231'
p2497
tp2498
a(S'MPI_Bcast()'
p2499
S'242'
p2500
tp2501
a(S'MPI_Bcast()'
p2502
S'243'
p2503
tp2504
a(S'MPI_Barrier()'
p2505
S'254'
p2506
tp2507
a(S'MPI_Barrier()'
p2508
S'298'
p2509
tp2510
a(S'MPI_Wtime()'
p2511
S'321'
p2512
tp2513
a(S'X_MPI_COMM_WORLD()'
p2514
S'324'
p2515
tp2516
a(S'MPI_Barrier()'
p2517
S'325'
p2518
tp2519
a(S'MPI_Barrier()'
p2520
S'329'
p2521
tp2522
a(S'MPI_Barrier()'
p2523
S'331'
p2524
tp2525
a(S'MPI_Wtime()'
p2526
S'337'
p2527
tp2528
a(S'MPI_Reduce()'
p2529
S'375'
p2530
tp2531
a(S'MPI_Reduce()'
p2532
S'376'
p2533
tp2534
a(S'MPI_Reduce()'
p2535
S'377'
p2536
tp2537
a(S'MPI_Barrier()'
p2538
S'387'
p2539
tp2540
a(S'MPI_Finalize()'
p2541
S'389'
p2542
tp2543
a(S'MPI_Comm_rank()'
p2544
S'408'
p2545
tp2546
a(S'MPI_Comm_rank()'
p2547
S'459'
p2548
tp2549
a(S'MPI_Comm_rank()'
p2550
S'481'
p2551
tp2552
a(S'MPI_Comm_size()'
p2553
S'482'
p2554
tp2555
asS'deann-askit-wrapper/askit_release/treecode/deprecated/test_fkstree.cpp'
p2556
(lp2557
(S'MPI_Init()'
p2558
S'65'
p2559
tp2560
a(S'MPI_Comm_rank()'
p2561
S'68'
p2562
tp2563
a(S'MPI_Comm_size()'
p2564
S'69'
p2565
tp2566
a(S'MPI_Allreduce()'
p2567
S'111'
p2568
tp2569
a(S'MPI_Allreduce()'
p2570
S'130'
p2571
tp2572
a(S'MPI_Scan()'
p2573
S'133'
p2574
tp2575
a(S'MPI_Barrier()'
p2576
S'145'
p2577
tp2578
a(S'MPI_Barrier()'
p2579
S'160'
p2580
tp2581
a(S'MPI_Barrier()'
p2582
S'175'
p2583
tp2584
a(S'MPI_Barrier()'
p2585
S'180'
p2586
tp2587
a(S'MPI_Barrier()'
p2588
S'184'
p2589
tp2590
a(S'MPI_Barrier()'
p2591
S'199'
p2592
tp2593
a(S'MPI_Barrier()'
p2594
S'204'
p2595
tp2596
a(S'MPI_Barrier()'
p2597
S'213'
p2598
tp2599
a(S'MPI_Barrier()'
p2600
S'222'
p2601
tp2602
a(S'MPI_Barrier()'
p2603
S'229'
p2604
tp2605
a(S'MPI_Barrier()'
p2606
S'233'
p2607
tp2608
a(S'MPI_Barrier()'
p2609
S'242'
p2610
tp2611
a(S'MPI_Barrier()'
p2612
S'247'
p2613
tp2614
a(S'MPI_Barrier()'
p2615
S'254'
p2616
tp2617
a(S'MPI_Barrier()'
p2618
S'259'
p2619
tp2620
a(S'MPI_Barrier()'
p2621
S'263'
p2622
tp2623
a(S'MPI_Barrier()'
p2624
S'288'
p2625
tp2626
a(S'MPI_Barrier()'
p2627
S'295'
p2628
tp2629
a(S'MPI_Barrier()'
p2630
S'307'
p2631
tp2632
a(S'MPI_Barrier()'
p2633
S'321'
p2634
tp2635
a(S'MPI_Barrier()'
p2636
S'329'
p2637
tp2638
a(S'MPI_Barrier()'
p2639
S'337'
p2640
tp2641
a(S'MPI_Barrier()'
p2642
S'346'
p2643
tp2644
a(S'MPI_Barrier()'
p2645
S'354'
p2646
tp2647
a(S'MPI_Barrier()'
p2648
S'370'
p2649
tp2650
a(S'MPI_Barrier()'
p2651
S'392'
p2652
tp2653
a(S'MPI_Finalize()'
p2654
S'428'
p2655
tp2656
asS'deann-askit-wrapper/rkdtsrc/direct_knn/test_dist_directRQuery.cpp'
p2657
(lp2658
(S'MPI_Init()'
p2659
S'27'
p2660
tp2661
a(S'MPI_Comm_rank()'
p2662
S'34'
p2663
tp2664
a(S'MPI_Comm_size()'
p2665
S'35'
p2666
tp2667
a(S'MPI_Allreduce()'
p2668
S'44'
p2669
tp2670
a(S'MPI_Scan()'
p2671
S'45'
p2672
tp2673
a(S'MPI_Gather()'
p2674
S'83'
p2675
tp2676
a(S'MPI_Gatherv()'
p2677
S'91'
p2678
tp2679
a(S'MPI_Gatherv()'
p2680
S'92'
p2681
tp2682
a(S'MPI_Scatter()'
p2683
S'127'
p2684
tp2685
a(S'MPI_Scatterv()'
p2686
S'130'
p2687
tp2688
a(S'MPI_Type_contiguous()'
p2689
S'139'
p2690
tp2691
a(S'MPI_Type_commit()'
p2692
S'140'
p2693
tp2694
a(S'MPI_Scatterv()'
p2695
S'143'
p2696
tp2697
a(S'MPI_Reduce()'
p2698
S'172'
p2699
tp2700
a(S'MPI_Reduce()'
p2701
S'173'
p2702
tp2703
a(S'MPI_Finalize()'
p2704
S'178'
p2705
tp2706
a(S'MPI_Comm_rank()'
p2707
S'187'
p2708
tp2709
asS'deann-askit-wrapper/rkdtsrc/generator/genDataSet.cpp'
p2710
(lp2711
(S'MPI_Init()'
p2712
S'10'
p2713
tp2714
a(S'MPI_Comm_rank()'
p2715
S'13'
p2716
tp2717
a(S'MPI_Comm_size()'
p2718
S'14'
p2719
tp2720
a(S'MPI_Barrier()'
p2721
S'40'
p2722
tp2723
a(S'MPI_Finalize()'
p2724
S'44'
p2725
tp2726
asS'deann-askit-wrapper/rkdtsrc/lsh/dist_lsh.cpp'
p2727
(lp2728
(S'MPI_Comm_size()'
p2729
S'68'
p2730
tp2731
a(S'MPI_Comm_rank()'
p2732
S'69'
p2733
tp2734
a(S'MPI_Scan()'
p2735
S'74'
p2736
tp2737
a(S'MPI_Bcast()'
p2738
S'84'
p2739
tp2740
a(S'MPI_Allgather()'
p2741
S'112'
p2742
tp2743
a(S'MPI_Allgatherv()'
p2744
S'114'
p2745
tp2746
a(S'MPI_Bcast()'
p2747
S'129'
p2748
tp2749
a(S'MPI_Comm_size()'
p2750
S'184'
p2751
tp2752
a(S'MPI_Comm_rank()'
p2753
S'185'
p2754
tp2755
a(S'MPI_Bcast()'
p2756
S'190'
p2757
tp2758
a(S'MPI_Bcast()'
p2759
S'191'
p2760
tp2761
a(S'MPI_Bcast()'
p2762
S'192'
p2763
tp2764
a(S'MPI_Reduce()'
p2765
S'215'
p2766
tp2767
a(S'MPI_Reduce()'
p2768
S'233'
p2769
tp2770
a(S'MPI_Bcast()'
p2771
S'290'
p2772
tp2773
a(S'MPI_Bcast()'
p2774
S'291'
p2775
tp2776
a(S'MPI_Comm_size()'
p2777
S'304'
p2778
tp2779
a(S'MPI_Comm_rank()'
p2780
S'305'
p2781
tp2782
a(S'MPI_Bcast()'
p2783
S'388'
p2784
tp2785
a(S'MPI_Comm_size()'
p2786
S'411'
p2787
tp2788
a(S'MPI_Comm_rank()'
p2789
S'412'
p2790
tp2791
a(S'MPI_Bcast()'
p2792
S'452'
p2793
tp2794
a(S'MPI_Bcast()'
p2795
S'458'
p2796
tp2797
a(S'MPI_Comm_size()'
p2798
S'519'
p2799
tp2800
a(S'MPI_Comm_rank()'
p2801
S'520'
p2802
tp2803
a(S'MPI_Comm_split()'
p2804
S'580'
p2805
tp2806
a(S'MPI_Comm_size()'
p2807
S'644'
p2808
tp2809
a(S'MPI_Comm_rank()'
p2810
S'645'
p2811
tp2812
a(S'MPI_Scan()'
p2813
S'686'
p2814
tp2815
a(S'MPI_Type_contiguous()'
p2816
S'711'
p2817
tp2818
a(S'MPI_Type_commit()'
p2819
S'712'
p2820
tp2821
a(S'MPI_Alltoall()'
p2822
S'721'
p2823
tp2824
a(S'MPI_Alltoallv()'
p2825
S'725'
p2826
tp2827
a(S'MPI_Type_free()'
p2828
S'732'
p2829
tp2830
a(S'MPI_Type_contiguous()'
p2831
S'779'
p2832
tp2833
a(S'MPI_Type_commit()'
p2834
S'780'
p2835
tp2836
a(S'MPI_Bcast()'
p2837
S'807'
p2838
tp2839
a(S'MPI_Bcast()'
p2840
S'808'
p2841
tp2842
a(S'MPI_Bcast()'
p2843
S'809'
p2844
tp2845
a(S'MPI_Barrier()'
p2846
S'836'
p2847
tp2848
a(S'MPI_Barrier()'
p2849
S'847'
p2850
tp2851
a(S'MPI_Barrier()'
p2852
S'852'
p2853
tp2854
a(S'MPI_Barrier()'
p2855
S'864'
p2856
tp2857
a(S'MPI_Allreduce()'
p2858
S'874'
p2859
tp2860
a(S'MPI_Allreduce()'
p2861
S'879'
p2862
tp2863
a(S'MPI_Barrier()'
p2864
S'918'
p2865
tp2866
a(S'MPI_Barrier()'
p2867
S'927'
p2868
tp2869
a(S'MPI_Barrier()'
p2870
S'929'
p2871
tp2872
a(S'MPI_Comm_rank()'
p2873
S'999'
p2874
tp2875
a(S'MPI_Comm_size()'
p2876
S'1000'
p2877
tp2878
a(S'MPI_Bcast()'
p2879
S'1001'
p2880
tp2881
a(S'MPI_Bcast()'
p2882
S'1010'
p2883
tp2884
a(S'MPI_Bcast()'
p2885
S'1011'
p2886
tp2887
a(S'MPI_Bcast()'
p2888
S'1012'
p2889
tp2890
a(S'MPI_Scatter()'
p2891
S'1022'
p2892
tp2893
a(S'MPI_Scatterv()'
p2894
S'1027'
p2895
tp2896
a(S'X_MPI_LONG()'
p2897
S'1028'
p2898
tp2899
a(S'MPI_Scatterv()'
p2900
S'1029'
p2901
tp2902
a(S'X_MPI_UNSIGNED()'
p2903
S'1030'
p2904
tp2905
a(S'MPI_Scatterv()'
p2906
S'1035'
p2907
tp2908
a(S'X_MPI_DOUBLE()'
p2909
S'1036'
p2910
tp2911
a(S'MPI_Comm_free()'
p2912
S'1045'
p2913
tp2914
a(S'MPI_Barrier()'
p2915
S'1054'
p2916
tp2917
a(S'MPI_Barrier()'
p2918
S'1088'
p2919
tp2920
a(S'MPI_Barrier()'
p2921
S'1094'
p2922
tp2923
a(S'MPI_Barrier()'
p2924
S'1203'
p2925
tp2926
a(S'MPI_Barrier()'
p2927
S'1226'
p2928
tp2929
a(S'MPI_Alltoall()'
p2930
S'1227'
p2931
tp2932
a(S'MPI_Barrier()'
p2933
S'1233'
p2934
tp2935
a(S'MPI_Alltoallv()'
p2936
S'1234'
p2937
tp2938
a(S'MPI_Barrier()'
p2939
S'1284'
p2940
tp2941
a(S'MPI_Barrier()'
p2942
S'1297'
p2943
tp2944
a(S'MPI_Type_free()'
p2945
S'1335'
p2946
tp2947
a(S'MPI_Reduce()'
p2948
S'1339'
p2949
tp2950
a(S'MPI_Reduce()'
p2951
S'1340'
p2952
tp2953
a(S'MPI_Comm_size()'
p2954
S'1385'
p2955
tp2956
a(S'MPI_Comm_rank()'
p2957
S'1386'
p2958
tp2959
a(S'MPI_Scan()'
p2960
S'1432'
p2961
tp2962
a(S'MPI_Type_contiguous()'
p2963
S'1490'
p2964
tp2965
a(S'MPI_Type_commit()'
p2966
S'1491'
p2967
tp2968
a(S'MPI_Bcast()'
p2969
S'1521'
p2970
tp2971
a(S'MPI_Bcast()'
p2972
S'1522'
p2973
tp2974
a(S'MPI_Bcast()'
p2975
S'1523'
p2976
tp2977
a(S'MPI_Allreduce()'
p2978
S'1565'
p2979
tp2980
a(S'MPI_Barrier()'
p2981
S'1615'
p2982
tp2983
a(S'MPI_Barrier()'
p2984
S'1629'
p2985
tp2986
a(S'MPI_Comm_rank()'
p2987
S'1665'
p2988
tp2989
a(S'MPI_Comm_size()'
p2990
S'1666'
p2991
tp2992
a(S'MPI_Barrier()'
p2993
S'1676'
p2994
tp2995
a(S'MPI_Bcast()'
p2996
S'1677'
p2997
tp2998
a(S'MPI_Barrier()'
p2999
S'1686'
p3000
tp3001
a(S'MPI_Bcast()'
p3002
S'1687'
p3003
tp3004
a(S'MPI_Bcast()'
p3005
S'1688'
p3006
tp3007
a(S'MPI_Bcast()'
p3008
S'1689'
p3009
tp3010
a(S'MPI_Barrier()'
p3011
S'1798'
p3012
tp3013
a(S'MPI_Barrier()'
p3014
S'1851'
p3015
tp3016
a(S'MPI_Barrier()'
p3017
S'1869'
p3018
tp3019
a(S'MPI_Alltoall()'
p3020
S'1870'
p3021
tp3022
a(S'MPI_Barrier()'
p3023
S'1876'
p3024
tp3025
a(S'MPI_Alltoallv()'
p3026
S'1877'
p3027
tp3028
a(S'MPI_Barrier()'
p3029
S'1929'
p3030
tp3031
a(S'MPI_Type_free()'
p3032
S'1963'
p3033
tp3034
a(S'MPI_Reduce()'
p3035
S'1967'
p3036
tp3037
a(S'MPI_Reduce()'
p3038
S'1968'
p3039
tp3040
a(S'MPI_Comm_rank()'
p3041
S'2008'
p3042
tp3043
a(S'MPI_Comm_size()'
p3044
S'2009'
p3045
tp3046
a(S'MPI_Barrier()'
p3047
S'2023'
p3048
tp3049
a(S'MPI_Wtime()'
p3050
S'2024'
p3051
tp3052
a(S'MPI_Barrier()'
p3053
S'2032'
p3054
tp3055
asS'deann-askit-wrapper/rkdtsrc/generator/generator.cpp'
p3056
(lp3057
(S'MPI_Comm_rank()'
p3058
S'15'
p3059
tp3060
a(S'MPI_Comm_size()'
p3061
S'16'
p3062
tp3063
a(S'MPI_Bcast()'
p3064
S'35'
p3065
tp3066
asS'deann-askit-wrapper/rkdtsrc/binTree/rotation.cpp'
p3067
(lp3068
(S'MPI_Bcast()'
p3069
S'26'
p3070
tp3071
a(S'MPI_Bcast()'
p3072
S'118'
p3073
tp3074
asS'deann-askit-wrapper/rkdtsrc/oldtree/oldQuery.cpp'
p3075
(lp3076
(S'MPI_Comm_size()'
p3077
S'45'
p3078
tp3079
a(S'MPI_Comm_rank()'
p3080
S'46'
p3081
tp3082
a(S'MPI_Comm_size()'
p3083
S'47'
p3084
tp3085
a(S'MPI_Comm_rank()'
p3086
S'48'
p3087
tp3088
a(S'MPI_Barrier()'
p3089
S'96'
p3090
tp3091
a(S'MPI_CALL()'
p3092
S'97'
p3093
tp3094
a(S'MPI_Type_contiguous()'
p3095
S'103'
p3096
tp3097
a(S'MPI_Type_commit()'
p3098
S'104'
p3099
tp3100
a(S'MPI_Barrier()'
p3101
S'105'
p3102
tp3103
a(S'MPI_CALL()'
p3104
S'106'
p3105
tp3106
a(S'MPI_Comm_size()'
p3107
S'147'
p3108
tp3109
a(S'MPI_Comm_rank()'
p3110
S'148'
p3111
tp3112
a(S'MPI_CALL()'
p3113
S'155'
p3114
tp3115
a(S'MPI_Barrier()'
p3116
S'159'
p3117
tp3118
a(S'MPI_Barrier()'
p3119
S'207'
p3120
tp3121
a(S'MPI_Barrier()'
p3122
S'226'
p3123
tp3124
a(S'MPI_Barrier()'
p3125
S'239'
p3126
tp3127
a(S'MPI_Barrier()'
p3128
S'258'
p3129
tp3130
a(S'MPI_Barrier()'
p3131
S'301'
p3132
tp3133
a(S'MPI_Barrier()'
p3134
S'321'
p3135
tp3136
a(S'MPI_CALL()'
p3137
S'322'
p3138
tp3139
a(S'MPI_Barrier()'
p3140
S'328'
p3141
tp3142
a(S'MPI_Type_contiguous()'
p3143
S'343'
p3144
tp3145
a(S'MPI_Type_commit()'
p3146
S'344'
p3147
tp3148
a(S'MPI_Barrier()'
p3149
S'345'
p3150
tp3151
a(S'MPI_CALL()'
p3152
S'346'
p3153
tp3154
a(S'MPI_Type_free()'
p3155
S'350'
p3156
tp3157
a(S'MPI_Comm_rank()'
p3158
S'427'
p3159
tp3160
a(S'MPI_Comm_size()'
p3161
S'428'
p3162
tp3163
a(S'MPI_CALL()'
p3164
S'439'
p3165
tp3166
a(S'MPI_Comm_size()'
p3167
S'454'
p3168
tp3169
a(S'MPI_Comm_rank()'
p3170
S'455'
p3171
tp3172
a(S'MPI_CALL()'
p3173
S'464'
p3174
tp3175
a(S'MPI_Reduce()'
p3176
S'493'
p3177
tp3178
a(S'MPI_Reduce()'
p3179
S'494'
p3180
tp3181
a(S'MPI_Reduce()'
p3182
S'495'
p3183
tp3184
a(S'MPI_Reduce()'
p3185
S'499'
p3186
tp3187
a(S'MPI_Reduce()'
p3188
S'500'
p3189
tp3190
a(S'MPI_Reduce()'
p3191
S'501'
p3192
tp3193
a(S'MPI_Reduce()'
p3194
S'506'
p3195
tp3196
a(S'MPI_Reduce()'
p3197
S'507'
p3198
tp3199
a(S'MPI_Reduce()'
p3200
S'508'
p3201
tp3202
a(S'MPI_Gather()'
p3203
S'513'
p3204
tp3205
a(S'MPI_Gather()'
p3206
S'514'
p3207
tp3208
a(S'MPI_Barrier()'
p3209
S'542'
p3210
tp3211
a(S'MPI_Comm_size()'
p3212
S'578'
p3213
tp3214
a(S'MPI_Comm_rank()'
p3215
S'579'
p3216
tp3217
a(S'MPI_Barrier()'
p3218
S'603'
p3219
tp3220
a(S'MPI_Comm_size()'
p3221
S'620'
p3222
tp3223
a(S'MPI_Barrier()'
p3224
S'681'
p3225
tp3226
a(S'MPI_Barrier()'
p3227
S'696'
p3228
tp3229
a(S'MPI_Barrier()'
p3230
S'708'
p3231
tp3232
a(S'MPI_CALL()'
p3233
S'709'
p3234
tp3235
a(S'MPI_Type_contiguous()'
p3236
S'716'
p3237
tp3238
a(S'MPI_Type_commit()'
p3239
S'717'
p3240
tp3241
a(S'MPI_Barrier()'
p3242
S'718'
p3243
tp3244
a(S'MPI_CALL()'
p3245
S'719'
p3246
tp3247
a(S'MPI_Type_free()'
p3248
S'761'
p3249
tp3250
a(S'MPI_Comm_size()'
p3251
S'794'
p3252
tp3253
a(S'MPI_Comm_rank()'
p3254
S'795'
p3255
tp3256
a(S'MPI_CALL()'
p3257
S'800'
p3258
tp3259
a(S'MPI_Barrier()'
p3260
S'837'
p3261
tp3262
a(S'MPI_Reduce()'
p3263
S'848'
p3264
tp3265
a(S'MPI_Reduce()'
p3266
S'849'
p3267
tp3268
a(S'MPI_Reduce()'
p3269
S'850'
p3270
tp3271
a(S'MPI_Comm_size()'
p3272
S'873'
p3273
tp3274
a(S'MPI_Barrier()'
p3275
S'954'
p3276
tp3277
a(S'MPI_Barrier()'
p3278
S'965'
p3279
tp3280
a(S'MPI_CALL()'
p3281
S'966'
p3282
tp3283
a(S'MPI_Type_contiguous()'
p3284
S'974'
p3285
tp3286
a(S'MPI_Type_commit()'
p3287
S'975'
p3288
tp3289
a(S'MPI_Barrier()'
p3290
S'976'
p3291
tp3292
a(S'MPI_CALL()'
p3293
S'977'
p3294
tp3295
a(S'MPI_Type_free()'
p3296
S'980'
p3297
tp3298
a(S'MPI_Reduce()'
p3299
S'1027'
p3300
tp3301
a(S'MPI_Reduce()'
p3302
S'1028'
p3303
tp3304
a(S'MPI_Reduce()'
p3305
S'1029'
p3306
tp3307
a(S'MPI_Comm_size()'
p3308
S'1055'
p3309
tp3310
a(S'MPI_Comm_rank()'
p3311
S'1056'
p3312
tp3313
a(S'MPI_CALL()'
p3314
S'1064'
p3315
tp3316
a(S'MPI_Barrier()'
p3317
S'1083'
p3318
tp3319
a(S'X_MPI_COMM_WORLD()'
p3320
S'1105'
p3321
tp3322
a(S'MPI_Barrier()'
p3323
S'1113'
p3324
tp3325
a(S'MPI_Barrier()'
p3326
S'1124'
p3327
tp3328
a(S'MPI_Reduce()'
p3329
S'1169'
p3330
tp3331
a(S'MPI_Reduce()'
p3332
S'1170'
p3333
tp3334
a(S'MPI_Reduce()'
p3335
S'1171'
p3336
tp3337
a(S'MPI_Comm_size()'
p3338
S'1221'
p3339
tp3340
a(S'MPI_Comm_rank()'
p3341
S'1222'
p3342
tp3343
a(S'MPI_CALL()'
p3344
S'1231'
p3345
tp3346
a(S'MPI_CALL()'
p3347
S'1232'
p3348
tp3349
a(S'MPI_Barrier()'
p3350
S'1254'
p3351
tp3352
a(S'X_MPI_COMM_WORLD()'
p3353
S'1273'
p3354
tp3355
a(S'MPI_Barrier()'
p3356
S'1293'
p3357
tp3358
a(S'MPI_Reduce()'
p3359
S'1383'
p3360
tp3361
a(S'MPI_Reduce()'
p3362
S'1384'
p3363
tp3364
a(S'MPI_Reduce()'
p3365
S'1385'
p3366
tp3367
asS'deann-askit-wrapper/rkdtsrc/pcltree/test_queryK.cpp'
p3368
(lp3369
(S'MPI_Comm_rank()'
p3370
S'77'
p3371
tp3372
a(S'MPI_Comm_size()'
p3373
S'78'
p3374
tp3375
a(S'MPI_Init()'
p3376
S'116'
p3377
tp3378
a(S'MPI_Comm_rank()'
p3379
S'118'
p3380
tp3381
a(S'MPI_Comm_size()'
p3382
S'119'
p3383
tp3384
a(S'MPI_Get_processor_name()'
p3385
S'120'
p3386
tp3387
a(S'MPI_Barrier()'
p3388
S'121'
p3389
tp3390
a(S'MPI_Barrier()'
p3391
S'177'
p3392
tp3393
a(S'MPI_Finalize()'
p3394
S'189'
p3395
tp3396
asS'deann-askit-wrapper/rkdtsrc/binTree/binTree.cpp'
p3397
(lp3398
(S'MPI_Barrier()'
p3399
S'36'
p3400
tp3401
a(S'MPI_Comm_free()'
p3402
S'37'
p3403
tp3404
a(S'MPI_Comm_rank()'
p3405
S'49'
p3406
tp3407
a(S'MPI_Comm_size()'
p3408
S'50'
p3409
tp3410
a(S'MPI_CALL()'
p3411
S'61'
p3412
tp3413
a(S'MPI_Barrier()'
p3414
S'90'
p3415
tp3416
a(S'MPI_Barrier()'
p3417
S'108'
p3418
tp3419
a(S'MPI_Barrier()'
p3420
S'221'
p3421
tp3422
a(S'MPI_Barrier()'
p3423
S'249'
p3424
tp3425
a(S'MPI_Barrier()'
p3426
S'259'
p3427
tp3428
a(S'MPI_Barrier()'
p3429
S'272'
p3430
tp3431
a(S'MPI_Barrier()'
p3432
S'282'
p3433
tp3434
a(S'MPI_Comm_size()'
p3435
S'313'
p3436
tp3437
a(S'MPI_Comm_rank()'
p3438
S'314'
p3439
tp3440
a(S'MPI_Comm_rank()'
p3441
S'316'
p3442
tp3443
a(S'MPI_Comm_size()'
p3444
S'317'
p3445
tp3446
a(S'MPI_Allreduce()'
p3447
S'323'
p3448
tp3449
a(S'MPI_Comm_rank()'
p3450
S'460'
p3451
tp3452
a(S'MPI_Comm_size()'
p3453
S'461'
p3454
tp3455
a(S'MPI_CALL()'
p3456
S'472'
p3457
tp3458
a(S'MPI_Barrier()'
p3459
S'487'
p3460
tp3461
a(S'MPI_Barrier()'
p3462
S'504'
p3463
tp3464
a(S'MPI_Barrier()'
p3465
S'541'
p3466
tp3467
a(S'MPI_Barrier()'
p3468
S'589'
p3469
tp3470
a(S'MPI_CALL()'
p3471
S'620'
p3472
tp3473
a(S'MPI_Barrier()'
p3474
S'624'
p3475
tp3476
a(S'MPI_Barrier()'
p3477
S'635'
p3478
tp3479
a(S'MPI_Barrier()'
p3480
S'649'
p3481
tp3482
a(S'MPI_Barrier()'
p3483
S'661'
p3484
tp3485
a(S'MPI_Barrier()'
p3486
S'681'
p3487
tp3488
a(S'MPI_Barrier()'
p3489
S'689'
p3490
tp3491
a(S'MPI_Barrier()'
p3492
S'701'
p3493
tp3494
a(S'MPI_Comm_rank()'
p3495
S'725'
p3496
tp3497
a(S'MPI_Barrier()'
p3498
S'727'
p3499
tp3500
a(S'MPI_Barrier()'
p3501
S'760'
p3502
tp3503
a(S'MPI_Comm_rank()'
p3504
S'776'
p3505
tp3506
a(S'MPI_Comm_size()'
p3507
S'777'
p3508
tp3509
a(S'MPI_Comm_rank()'
p3510
S'780'
p3511
tp3512
a(S'MPI_CALL()'
p3513
S'784'
p3514
tp3515
a(S'MPI_CALL()'
p3516
S'820'
p3517
tp3518
a(S'MPI_CALL()'
p3519
S'825'
p3520
tp3521
a(S'MPI_Scan()'
p3522
S'830'
p3523
tp3524
a(S'MPI_CALL()'
p3525
S'865'
p3526
tp3527
a(S'MPI_Comm_rank()'
p3528
S'885'
p3529
tp3530
a(S'MPI_Comm_size()'
p3531
S'886'
p3532
tp3533
a(S'MPI_Comm_rank()'
p3534
S'889'
p3535
tp3536
a(S'MPI_CALL()'
p3537
S'898'
p3538
tp3539
a(S'MPI_CALL()'
p3540
S'904'
p3541
tp3542
a(S'MPI_CALL()'
p3543
S'915'
p3544
tp3545
a(S'MPI_CALL()'
p3546
S'962'
p3547
tp3548
a(S'MPI_CALL()'
p3549
S'967'
p3550
tp3551
a(S'MPI_Scan()'
p3552
S'972'
p3553
tp3554
a(S'MPI_CALL()'
p3555
S'1007'
p3556
tp3557
a(S'MPI_Barrier()'
p3558
S'1011'
p3559
tp3560
a(S'MPI_Comm_rank()'
p3561
S'1035'
p3562
tp3563
a(S'MPI_Comm_rank()'
p3564
S'1037'
p3565
tp3566
a(S'MPI_CALL()'
p3567
S'1053'
p3568
tp3569
a(S'MPI_CALL()'
p3570
S'1088'
p3571
tp3572
a(S'MPI_CALL()'
p3573
S'1092'
p3574
tp3575
a(S'MPI_Scan()'
p3576
S'1097'
p3577
tp3578
a(S'MPI_CALL()'
p3579
S'1132'
p3580
tp3581
a(S'MPI_CALL()'
p3582
S'1183'
p3583
tp3584
a(S'MPI_CALL()'
p3585
S'1187'
p3586
tp3587
a(S'MPI_Scan()'
p3588
S'1191'
p3589
tp3590
a(S'MPI_CALL()'
p3591
S'1226'
p3592
tp3593
a(S'MPI_Comm_size()'
p3594
S'1241'
p3595
tp3596
a(S'MPI_Comm_rank()'
p3597
S'1242'
p3598
tp3599
a(S'MPI_CALL()'
p3600
S'1253'
p3601
tp3602
a(S'MPI_Bcast()'
p3603
S'1257'
p3604
tp3605
a(S'MPI_Comm_rank()'
p3606
S'1271'
p3607
tp3608
a(S'MPI_Comm_rank()'
p3609
S'1274'
p3610
tp3611
a(S'MPI_Barrier()'
p3612
S'1276'
p3613
tp3614
a(S'MPI_CALL()'
p3615
S'1284'
p3616
tp3617
a(S'MPI_Barrier()'
p3618
S'1287'
p3619
tp3620
a(S'MPI_Barrier()'
p3621
S'1320'
p3622
tp3623
a(S'MPI_Comm_rank()'
p3624
S'1333'
p3625
tp3626
a(S'MPI_CALL()'
p3627
S'1343'
p3628
tp3629
a(S'MPI_CALL()'
p3630
S'1364'
p3631
tp3632
a(S'MPI_CALL()'
p3633
S'1365'
p3634
tp3635
a(S'MPI_Comm_rank()'
p3636
S'1405'
p3637
tp3638
a(S'MPI_Comm_size()'
p3639
S'1406'
p3640
tp3641
a(S'MPI_Comm_rank()'
p3642
S'1408'
p3643
tp3644
a(S'MPI_Comm_size()'
p3645
S'1409'
p3646
tp3647
a(S'MPI_Bcast()'
p3648
S'1423'
p3649
tp3650
a(S'MPI_CALL()'
p3651
S'1497'
p3652
tp3653
a(S'MPI_CALL()'
p3654
S'1502'
p3655
tp3656
a(S'MPI_CALL()'
p3657
S'1550'
p3658
tp3659
a(S'MPI_Bcast()'
p3660
S'1572'
p3661
tp3662
asS'deann-askit-wrapper/rkdtsrc/direct_knn/direct_bench.cpp'
p3663
(lp3664
(S'MPI_Init()'
p3665
S'38'
p3666
tp3667
a(S'MPI_Finalize()'
p3668
S'98'
p3669
tp3670
asS'deann-askit-wrapper/rkdtsrc/pcltree/queryR.cpp'
p3671
(lp3672
(S'MPI_Comm_size()'
p3673
S'28'
p3674
tp3675
a(S'MPI_Comm_rank()'
p3676
S'29'
p3677
tp3678
a(S'MPI_Allreduce()'
p3679
S'37'
p3680
tp3681
a(S'MPI_Comm_size()'
p3682
S'49'
p3683
tp3684
a(S'MPI_Comm_rank()'
p3685
S'50'
p3686
tp3687
a(S'MPI_Allreduce()'
p3688
S'57'
p3689
tp3690
a(S'MPI_Comm_size()'
p3691
S'82'
p3692
tp3693
a(S'MPI_Comm_rank()'
p3694
S'83'
p3695
tp3696
a(S'MPI_Reduce()'
p3697
S'85'
p3698
tp3699
a(S'MPI_Reduce()'
p3700
S'86'
p3701
tp3702
a(S'MPI_Reduce()'
p3703
S'87'
p3704
tp3705
a(S'MPI_Reduce()'
p3706
S'91'
p3707
tp3708
a(S'MPI_Reduce()'
p3709
S'92'
p3710
tp3711
a(S'MPI_Reduce()'
p3712
S'93'
p3713
tp3714
a(S'MPI_Reduce()'
p3715
S'97'
p3716
tp3717
a(S'MPI_Reduce()'
p3718
S'98'
p3719
tp3720
a(S'MPI_Reduce()'
p3721
S'99'
p3722
tp3723
a(S'MPI_Barrier()'
p3724
S'117'
p3725
tp3726
a(S'MPI_Comm_size()'
p3727
S'146'
p3728
tp3729
a(S'MPI_Comm_rank()'
p3730
S'147'
p3731
tp3732
a(S'MPI_Allreduce()'
p3733
S'155'
p3734
tp3735
a(S'MPI_Comm_size()'
p3736
S'167'
p3737
tp3738
a(S'MPI_Comm_rank()'
p3739
S'168'
p3740
tp3741
a(S'MPI_Allreduce()'
p3742
S'177'
p3743
tp3744
a(S'MPI_Comm_size()'
p3745
S'200'
p3746
tp3747
a(S'MPI_Comm_rank()'
p3748
S'201'
p3749
tp3750
a(S'MPI_Reduce()'
p3751
S'203'
p3752
tp3753
a(S'MPI_Reduce()'
p3754
S'204'
p3755
tp3756
a(S'MPI_Reduce()'
p3757
S'205'
p3758
tp3759
a(S'MPI_Reduce()'
p3760
S'209'
p3761
tp3762
a(S'MPI_Reduce()'
p3763
S'210'
p3764
tp3765
a(S'MPI_Reduce()'
p3766
S'211'
p3767
tp3768
a(S'MPI_Reduce()'
p3769
S'215'
p3770
tp3771
a(S'MPI_Reduce()'
p3772
S'216'
p3773
tp3774
a(S'MPI_Reduce()'
p3775
S'217'
p3776
tp3777
a(S'MPI_Barrier()'
p3778
S'235'
p3779
tp3780
a(S'MPI_Comm_size()'
p3781
S'265'
p3782
tp3783
a(S'MPI_Comm_rank()'
p3784
S'266'
p3785
tp3786
a(S'MPI_Comm_size()'
p3787
S'268'
p3788
tp3789
a(S'MPI_Comm_rank()'
p3790
S'269'
p3791
tp3792
a(S'MPI_Allreduce()'
p3793
S'277'
p3794
tp3795
a(S'MPI_Comm_size()'
p3796
S'290'
p3797
tp3798
a(S'MPI_Comm_rank()'
p3799
S'291'
p3800
tp3801
a(S'MPI_Allreduce()'
p3802
S'298'
p3803
tp3804
a(S'MPI_Reduce()'
p3805
S'308'
p3806
tp3807
a(S'MPI_Reduce()'
p3808
S'309'
p3809
tp3810
a(S'MPI_Reduce()'
p3811
S'310'
p3812
tp3813
a(S'MPI_Reduce()'
p3814
S'314'
p3815
tp3816
a(S'MPI_Reduce()'
p3817
S'315'
p3818
tp3819
a(S'MPI_Reduce()'
p3820
S'316'
p3821
tp3822
a(S'MPI_Reduce()'
p3823
S'320'
p3824
tp3825
a(S'MPI_Reduce()'
p3826
S'321'
p3827
tp3828
a(S'MPI_Reduce()'
p3829
S'322'
p3830
tp3831
a(S'MPI_Barrier()'
p3832
S'340'
p3833
tp3834
a(S'MPI_Allreduce()'
p3835
S'392'
p3836
tp3837
a(S'MPI_Comm_size()'
p3838
S'403'
p3839
tp3840
a(S'MPI_Comm_rank()'
p3841
S'404'
p3842
tp3843
a(S'MPI_Allreduce()'
p3844
S'413'
p3845
tp3846
a(S'MPI_Comm_size()'
p3847
S'439'
p3848
tp3849
a(S'MPI_Comm_rank()'
p3850
S'440'
p3851
tp3852
a(S'MPI_Reduce()'
p3853
S'442'
p3854
tp3855
a(S'MPI_Reduce()'
p3856
S'443'
p3857
tp3858
a(S'MPI_Reduce()'
p3859
S'444'
p3860
tp3861
a(S'MPI_Reduce()'
p3862
S'448'
p3863
tp3864
a(S'MPI_Reduce()'
p3865
S'449'
p3866
tp3867
a(S'MPI_Reduce()'
p3868
S'450'
p3869
tp3870
a(S'MPI_Reduce()'
p3871
S'454'
p3872
tp3873
a(S'MPI_Reduce()'
p3874
S'455'
p3875
tp3876
a(S'MPI_Reduce()'
p3877
S'456'
p3878
tp3879
a(S'MPI_Barrier()'
p3880
S'474'
p3881
tp3882
a(S'MPI_Allreduce()'
p3883
S'513'
p3884
tp3885
a(S'MPI_Comm_size()'
p3886
S'526'
p3887
tp3888
a(S'MPI_Comm_rank()'
p3889
S'527'
p3890
tp3891
a(S'MPI_Allreduce()'
p3892
S'534'
p3893
tp3894
a(S'MPI_Comm_size()'
p3895
S'556'
p3896
tp3897
a(S'MPI_Comm_rank()'
p3898
S'557'
p3899
tp3900
a(S'MPI_Reduce()'
p3901
S'565'
p3902
tp3903
a(S'MPI_Reduce()'
p3904
S'566'
p3905
tp3906
a(S'MPI_Reduce()'
p3907
S'567'
p3908
tp3909
a(S'MPI_Reduce()'
p3910
S'571'
p3911
tp3912
a(S'MPI_Reduce()'
p3913
S'572'
p3914
tp3915
a(S'MPI_Reduce()'
p3916
S'573'
p3917
tp3918
a(S'MPI_Reduce()'
p3919
S'577'
p3920
tp3921
a(S'MPI_Reduce()'
p3922
S'578'
p3923
tp3924
a(S'MPI_Reduce()'
p3925
S'579'
p3926
tp3927
a(S'MPI_Gather()'
p3928
S'584'
p3929
tp3930
a(S'MPI_Gather()'
p3931
S'585'
p3932
tp3933
a(S'MPI_Barrier()'
p3934
S'614'
p3935
tp3936
asS'deann-askit-wrapper/rkdtsrc/lsh/test_distinct.cpp'
p3937
(lp3938
(S'MPI_Init()'
p3939
S'39'
p3940
tp3941
a(S'MPI_Comm_rank()'
p3942
S'47'
p3943
tp3944
a(S'MPI_Comm_size()'
p3945
S'48'
p3946
tp3947
a(S'MPI_Allreduce()'
p3948
S'55'
p3949
tp3950
a(S'MPI_Scan()'
p3951
S'56'
p3952
tp3953
a(S'MPI_Barrier()'
p3954
S'153'
p3955
tp3956
a(S'MPI_Barrier()'
p3957
S'184'
p3958
tp3959
a(S'MPI_Finalize()'
p3960
S'204'
p3961
tp3962
a(S'MPI_Comm_rank()'
p3963
S'218'
p3964
tp3965
asS'deann-askit-wrapper/rkdtsrc/pcltree/queryK.cpp'
p3966
(lp3967
(S'MPI_Comm_size()'
p3968
S'41'
p3969
tp3970
a(S'MPI_Comm_rank()'
p3971
S'42'
p3972
tp3973
a(S'MPI_Comm_size()'
p3974
S'43'
p3975
tp3976
a(S'MPI_Comm_rank()'
p3977
S'44'
p3978
tp3979
a(S'MPI_Alltoall()'
p3980
S'94'
p3981
tp3982
a(S'MPI_Type_contiguous()'
p3983
S'100'
p3984
tp3985
a(S'MPI_Type_commit()'
p3986
S'101'
p3987
tp3988
a(S'MPI_Alltoallv()'
p3989
S'102'
p3990
tp3991
a(S'MPI_Comm_size()'
p3992
S'148'
p3993
tp3994
a(S'MPI_Comm_rank()'
p3995
S'149'
p3996
tp3997
a(S'MPI_Allreduce()'
p3998
S'153'
p3999
tp4000
a(S'MPI_Barrier()'
p4001
S'178'
p4002
tp4003
a(S'MPI_Alltoall()'
p4004
S'261'
p4005
tp4006
a(S'MPI_Barrier()'
p4007
S'267'
p4008
tp4009
a(S'MPI_Type_contiguous()'
p4010
S'271'
p4011
tp4012
a(S'MPI_Type_commit()'
p4013
S'272'
p4014
tp4015
a(S'MPI_Alltoallv()'
p4016
S'273'
p4017
tp4018
a(S'MPI_Comm_size()'
p4019
S'348'
p4020
tp4021
a(S'MPI_Comm_rank()'
p4022
S'349'
p4023
tp4024
a(S'MPI_Comm_size()'
p4025
S'351'
p4026
tp4027
a(S'MPI_Comm_rank()'
p4028
S'352'
p4029
tp4030
a(S'MPI_Allreduce()'
p4031
S'359'
p4032
tp4033
a(S'MPI_Type_contiguous()'
p4034
S'370'
p4035
tp4036
a(S'MPI_Type_commit()'
p4037
S'371'
p4038
tp4039
a(S'MPI_Alltoall()'
p4040
S'403'
p4041
tp4042
a(S'MPI_Alltoallv()'
p4043
S'409'
p4044
tp4045
a(S'MPI_Type_free()'
p4046
S'443'
p4047
tp4048
a(S'MPI_Comm_size()'
p4049
S'468'
p4050
tp4051
a(S'MPI_Comm_rank()'
p4052
S'469'
p4053
tp4054
a(S'MPI_Allreduce()'
p4055
S'473'
p4056
tp4057
a(S'MPI_Alltoall()'
p4058
S'536'
p4059
tp4060
a(S'MPI_Type_contiguous()'
p4061
S'543'
p4062
tp4063
a(S'MPI_Type_commit()'
p4064
S'544'
p4065
tp4066
a(S'MPI_Alltoallv()'
p4067
S'545'
p4068
tp4069
asS'deann-askit-wrapper/rkdtsrc/forest/forest.cpp'
p4070
(lp4071
(S'MPI_Comm_rank()'
p4072
S'21'
p4073
tp4074
a(S'MPI_Comm_size()'
p4075
S'22'
p4076
tp4077
a(S'MPI_Allreduce()'
p4078
S'34'
p4079
tp4080
a(S'MPI_Comm_rank()'
p4081
S'72'
p4082
tp4083
a(S'MPI_Comm_size()'
p4084
S'73'
p4085
tp4086
a(S'MPI_Comm_rank()'
p4087
S'174'
p4088
tp4089
a(S'MPI_Comm_size()'
p4090
S'175'
p4091
tp4092
a(S'MPI_Barrier()'
p4093
S'242'
p4094
tp4095
a(S'MPI_Barrier()'
p4096
S'268'
p4097
tp4098
a(S'MPI_Barrier()'
p4099
S'317'
p4100
tp4101
a(S'MPI_Comm_rank()'
p4102
S'329'
p4103
tp4104
a(S'MPI_Comm_size()'
p4105
S'330'
p4106
tp4107
a(S'MPI_Barrier()'
p4108
S'399'
p4109
tp4110
a(S'MPI_Op_create()'
p4111
S'411'
p4112
tp4113
a(S'MPI_Type_contiguous()'
p4114
S'413'
p4115
tp4116
a(S'MPI_Type_commit()'
p4117
S'414'
p4118
tp4119
a(S'MPI_Allreduce()'
p4120
S'415'
p4121
tp4122
asS'deann-askit-wrapper/rkdtsrc/pcltree/test_hs.cpp'
p4123
(lp4124
(S'MPI_Comm_rank()'
p4125
S'76'
p4126
tp4127
a(S'MPI_Comm_size()'
p4128
S'77'
p4129
tp4130
a(S'MPI_Init()'
p4131
S'114'
p4132
tp4133
a(S'MPI_Comm_rank()'
p4134
S'116'
p4135
tp4136
a(S'MPI_Comm_size()'
p4137
S'117'
p4138
tp4139
a(S'MPI_Get_processor_name()'
p4140
S'118'
p4141
tp4142
a(S'MPI_Barrier()'
p4143
S'119'
p4144
tp4145
a(S'MPI_Barrier()'
p4146
S'166'
p4147
tp4148
a(S'MPI_Barrier()'
p4149
S'178'
p4150
tp4151
a(S'MPI_Barrier()'
p4152
S'194'
p4153
tp4154
a(S'MPI_Barrier()'
p4155
S'200'
p4156
tp4157
a(S'MPI_Barrier()'
p4158
S'203'
p4159
tp4160
a(S'MPI_Barrier()'
p4161
S'213'
p4162
tp4163
a(S'MPI_Barrier()'
p4164
S'221'
p4165
tp4166
a(S'MPI_Barrier()'
p4167
S'246'
p4168
tp4169
a(S'MPI_Barrier()'
p4170
S'253'
p4171
tp4172
a(S'MPI_Barrier()'
p4173
S'267'
p4174
tp4175
a(S'MPI_Finalize()'
p4176
S'276'
p4177
tp4178
asS'deann-askit-wrapper/rkdtsrc/direct_knn/test_partition.cpp'
p4179
(lp4180
(S'MPI_Comm_rank()'
p4181
S'53'
p4182
tp4183
a(S'MPI_Comm_size()'
p4184
S'54'
p4185
tp4186
a(S'MPI_Barrier()'
p4187
S'74'
p4188
tp4189
a(S'MPI_Comm_rank()'
p4190
S'82'
p4191
tp4192
a(S'MPI_Comm_size()'
p4193
S'83'
p4194
tp4195
a(S'MPI_Allreduce()'
p4196
S'86'
p4197
tp4198
a(S'MPI_Barrier()'
p4199
S'107'
p4200
tp4201
a(S'MPI_Init()'
p4202
S'127'
p4203
tp4204
a(S'MPI_Comm_rank()'
p4205
S'128'
p4206
tp4207
a(S'MPI_Comm_size()'
p4208
S'129'
p4209
tp4210
a(S'MPI_Finalize()'
p4211
S'204'
p4212
tp4213
a(S'MPI_Comm_rank()'
p4214
S'215'
p4215
tp4216
a(S'MPI_Finalize()'
p4217
S'252'
p4218
tp4219
a(S'MPI_Finalize()'
p4220
S'271'
p4221
tp4222
a(S'MPI_Finalize()'
p4223
S'290'
p4224
tp4225
asS'deann-askit-wrapper/rkdtsrc/generator/uniform.cpp'
p4226
(lp4227
(S'MPI_Comm_rank()'
p4228
S'13'
p4229
tp4230
a(S'MPI_Comm_size()'
p4231
S'14'
p4232
tp4233
a(S'MPI_Comm_rank()'
p4234
S'47'
p4235
tp4236
a(S'MPI_Comm_size()'
p4237
S'48'
p4238
tp4239
asS'deann-askit-wrapper/rkdtsrc/repartition/test.cpp'
p4240
(lp4241
(S'MPI_Allreduce()'
p4242
S'50'
p4243
tp4244
a(S'X_MPI_INT()'
p4245
S'51'
p4246
tp4247
a(S'MPI_Allreduce()'
p4248
S'66'
p4249
tp4250
a(S'MPI_Allreduce()'
p4251
S'67'
p4252
tp4253
a(S'MPI_Init()'
p4254
S'129'
p4255
tp4256
a(S'MPI_Comm_rank()'
p4257
S'131'
p4258
tp4259
a(S'MPI_Comm_size()'
p4260
S'132'
p4261
tp4262
a(S'MPI_Barrier()'
p4263
S'196'
p4264
tp4265
a(S'MPI_Barrier()'
p4266
S'243'
p4267
tp4268
a(S'MPI_Wtime()'
p4269
S'245'
p4270
tp4271
a(S'MPI_Wtime()'
p4272
S'248'
p4273
tp4274
a(S'MPI_Wtime()'
p4275
S'253'
p4276
tp4277
a(S'MPI_Wtime()'
p4278
S'258'
p4279
tp4280
a(S'MPI_Barrier()'
p4281
S'287'
p4282
tp4283
a(S'MPI_Wtime()'
p4284
S'290'
p4285
tp4286
a(S'MPI_Wtime()'
p4287
S'300'
p4288
tp4289
a(S'MPI_Wtime()'
p4290
S'305'
p4291
tp4292
a(S'MPI_Wtime()'
p4293
S'310'
p4294
tp4295
a(S'MPI_Barrier()'
p4296
S'338'
p4297
tp4298
a(S'MPI_Wtime()'
p4299
S'340'
p4300
tp4301
a(S'MPI_Wtime()'
p4302
S'342'
p4303
tp4304
a(S'MPI_Wtime()'
p4305
S'347'
p4306
tp4307
a(S'MPI_Wtime()'
p4308
S'352'
p4309
tp4310
a(S'MPI_Finalize()'
p4311
S'422'
p4312
tp4313
asS'deann-askit-wrapper/rkdtsrc/direct_knn/test_directRQuery.cpp'
p4314
(lp4315
(S'MPI_Init()'
p4316
S'28'
p4317
tp4318
a(S'MPI_Comm_rank()'
p4319
S'33'
p4320
tp4321
a(S'MPI_Comm_size()'
p4322
S'34'
p4323
tp4324
a(S'MPI_Finalize()'
p4325
S'97'
p4326
tp4327
a(S'MPI_Comm_rank()'
p4328
S'106'
p4329
tp4330
asS'deann-askit-wrapper/rkdtsrc/generator/gaussian.cpp'
p4331
(lp4332
(S'MPI_Comm_size()'
p4333
S'75'
p4334
tp4335
a(S'MPI_Comm_rank()'
p4336
S'76'
p4337
tp4338
asS'deann-askit-wrapper/askit_release/treecode/src/test_askit_main.cpp'
p4339
(lp4340
(S'MPI_Init()'
p4341
S'1136'
p4342
tp4343
a(S'MPI_Comm_rank()'
p4344
S'1139'
p4345
tp4346
a(S'MPI_Comm_size()'
p4347
S'1140'
p4348
tp4349
a(S'MPI_Finalize()'
p4350
S'1230'
p4351
tp4352
asS'deann-askit-wrapper/rkdtsrc/metricTree/MTqueryK.cpp'
p4353
(lp4354
(S'MPI_Comm_size()'
p4355
S'41'
p4356
tp4357
a(S'MPI_Comm_rank()'
p4358
S'42'
p4359
tp4360
a(S'MPI_Comm_size()'
p4361
S'43'
p4362
tp4363
a(S'MPI_Comm_rank()'
p4364
S'44'
p4365
tp4366
a(S'MPI_Alltoall()'
p4367
S'100'
p4368
tp4369
a(S'MPI_Type_contiguous()'
p4370
S'106'
p4371
tp4372
a(S'MPI_Type_commit()'
p4373
S'107'
p4374
tp4375
a(S'MPI_Alltoallv()'
p4376
S'108'
p4377
tp4378
a(S'MPI_Barrier()'
p4379
S'159'
p4380
tp4381
a(S'MPI_Comm_size()'
p4382
S'187'
p4383
tp4384
a(S'MPI_Comm_rank()'
p4385
S'188'
p4386
tp4387
a(S'MPI_Allreduce()'
p4388
S'192'
p4389
tp4390
a(S'MPI_Alltoall()'
p4391
S'307'
p4392
tp4393
a(S'MPI_Type_contiguous()'
p4394
S'314'
p4395
tp4396
a(S'MPI_Type_commit()'
p4397
S'315'
p4398
tp4399
a(S'MPI_Alltoallv()'
p4400
S'316'
p4401
tp4402
a(S'MPI_Barrier()'
p4403
S'378'
p4404
tp4405
a(S'MPI_Barrier()'
p4406
S'384'
p4407
tp4408
a(S'MPI_Barrier()'
p4409
S'396'
p4410
tp4411
a(S'MPI_Barrier()'
p4412
S'398'
p4413
tp4414
a(S'MPI_Barrier()'
p4415
S'421'
p4416
tp4417
asS'deann-askit-wrapper/rkdtsrc/stTree/test_debug_tree.cpp'
p4418
(lp4419
(S'MPI_Init()'
p4420
S'77'
p4421
tp4422
a(S'MPI_Comm_rank()'
p4423
S'80'
p4424
tp4425
a(S'MPI_Comm_size()'
p4426
S'81'
p4427
tp4428
a(S'MPI_Allreduce()'
p4429
S'127'
p4430
tp4431
a(S'MPI_Allreduce()'
p4432
S'128'
p4433
tp4434
a(S'MPI_Scan()'
p4435
S'129'
p4436
tp4437
a(S'MPI_Scan()'
p4438
S'130'
p4439
tp4440
a(S'MPI_Finalize()'
p4441
S'252'
p4442
tp4443
asS'deann-askit-wrapper/rkdtsrc/parTree/parTreeQuery.cpp'
p4444
(lp4445
(S'MPI_Comm_rank()'
p4446
S'53'
p4447
tp4448
a(S'MPI_Comm_size()'
p4449
S'54'
p4450
tp4451
a(S'MPI_CALL()'
p4452
S'59'
p4453
tp4454
a(S'MPI_Barrier()'
p4455
S'79'
p4456
tp4457
a(S'MPI_Barrier()'
p4458
S'105'
p4459
tp4460
a(S'MPI_Barrier()'
p4461
S'121'
p4462
tp4463
a(S'MPI_CALL()'
p4464
S'122'
p4465
tp4466
a(S'MPI_Type_contiguous()'
p4467
S'129'
p4468
tp4469
a(S'MPI_Type_commit()'
p4470
S'130'
p4471
tp4472
a(S'MPI_Barrier()'
p4473
S'131'
p4474
tp4475
a(S'MPI_CALL()'
p4476
S'132'
p4477
tp4478
a(S'MPI_Type_free()'
p4479
S'159'
p4480
tp4481
a(S'MPI_Comm_rank()'
p4482
S'182'
p4483
tp4484
a(S'MPI_Comm_size()'
p4485
S'183'
p4486
tp4487
a(S'MPI_CALL()'
p4488
S'190'
p4489
tp4490
a(S'MPI_Barrier()'
p4491
S'227'
p4492
tp4493
a(S'MPI_Barrier()'
p4494
S'239'
p4495
tp4496
a(S'MPI_CALL()'
p4497
S'240'
p4498
tp4499
a(S'MPI_Type_contiguous()'
p4500
S'247'
p4501
tp4502
a(S'MPI_Type_commit()'
p4503
S'248'
p4504
tp4505
a(S'MPI_Barrier()'
p4506
S'249'
p4507
tp4508
a(S'MPI_CALL()'
p4509
S'250'
p4510
tp4511
a(S'MPI_Type_free()'
p4512
S'274'
p4513
tp4514
a(S'MPI_Comm_rank()'
p4515
S'301'
p4516
tp4517
a(S'MPI_Barrier()'
p4518
S'329'
p4519
tp4520
a(S'MPI_Barrier()'
p4521
S'348'
p4522
tp4523
a(S'MPI_Barrier()'
p4524
S'362'
p4525
tp4526
a(S'MPI_Barrier()'
p4527
S'368'
p4528
tp4529
a(S'MPI_Barrier()'
p4530
S'400'
p4531
tp4532
a(S'MPI_Comm_rank()'
p4533
S'437'
p4534
tp4535
a(S'MPI_Barrier()'
p4536
S'467'
p4537
tp4538
a(S'MPI_Barrier()'
p4539
S'499'
p4540
tp4541
asS'deann-askit-wrapper/rkdtsrc/oldtree/oldTree.cpp'
p4542
(lp4543
(S'MPI_Barrier()'
p4544
S'34'
p4545
tp4546
a(S'MPI_Comm_free()'
p4547
S'35'
p4548
tp4549
a(S'MPI_Comm_rank()'
p4550
S'48'
p4551
tp4552
a(S'MPI_Comm_size()'
p4553
S'49'
p4554
tp4555
a(S'MPI_CALL()'
p4556
S'60'
p4557
tp4558
a(S'MPI_Barrier()'
p4559
S'74'
p4560
tp4561
a(S'MPI_Barrier()'
p4562
S'91'
p4563
tp4564
a(S'MPI_Barrier()'
p4565
S'128'
p4566
tp4567
a(S'MPI_Barrier()'
p4568
S'176'
p4569
tp4570
a(S'MPI_CALL()'
p4571
S'207'
p4572
tp4573
a(S'MPI_Barrier()'
p4574
S'211'
p4575
tp4576
a(S'MPI_Barrier()'
p4577
S'222'
p4578
tp4579
a(S'MPI_Barrier()'
p4580
S'236'
p4581
tp4582
a(S'MPI_Barrier()'
p4583
S'248'
p4584
tp4585
a(S'MPI_Barrier()'
p4586
S'268'
p4587
tp4588
a(S'MPI_Barrier()'
p4589
S'276'
p4590
tp4591
a(S'MPI_Barrier()'
p4592
S'288'
p4593
tp4594
a(S'MPI_Comm_rank()'
p4595
S'311'
p4596
tp4597
a(S'MPI_Comm_rank()'
p4598
S'358'
p4599
tp4600
a(S'MPI_Comm_size()'
p4601
S'359'
p4602
tp4603
a(S'MPI_Comm_rank()'
p4604
S'362'
p4605
tp4606
a(S'MPI_Barrier()'
p4607
S'366'
p4608
tp4609
a(S'MPI_CALL()'
p4610
S'371'
p4611
tp4612
a(S'MPI_CALL()'
p4613
S'377'
p4614
tp4615
a(S'MPI_CALL()'
p4616
S'388'
p4617
tp4618
a(S'MPI_CALL()'
p4619
S'436'
p4620
tp4621
a(S'MPI_CALL()'
p4622
S'441'
p4623
tp4624
a(S'MPI_Scan()'
p4625
S'446'
p4626
tp4627
a(S'MPI_CALL()'
p4628
S'481'
p4629
tp4630
a(S'MPI_Barrier()'
p4631
S'485'
p4632
tp4633
a(S'MPI_Comm_rank()'
p4634
S'507'
p4635
tp4636
a(S'MPI_CALL()'
p4637
S'523'
p4638
tp4639
a(S'MPI_CALL()'
p4640
S'545'
p4641
tp4642
a(S'MPI_Comm_size()'
p4643
S'557'
p4644
tp4645
a(S'MPI_Comm_rank()'
p4646
S'558'
p4647
tp4648
a(S'MPI_CALL()'
p4649
S'569'
p4650
tp4651
a(S'MPI_Bcast()'
p4652
S'573'
p4653
tp4654
a(S'MPI_Comm_rank()'
p4655
S'587'
p4656
tp4657
a(S'MPI_Comm_rank()'
p4658
S'589'
p4659
tp4660
a(S'MPI_CALL()'
p4661
S'595'
p4662
tp4663
a(S'MPI_Barrier()'
p4664
S'598'
p4665
tp4666
a(S'MPI_Comm_rank()'
p4667
S'622'
p4668
tp4669
a(S'MPI_CALL()'
p4670
S'631'
p4671
tp4672
a(S'MPI_CALL()'
p4673
S'647'
p4674
tp4675
a(S'MPI_CALL()'
p4676
S'648'
p4677
tp4678
asS'deann-askit-wrapper/rkdtsrc/oldtree/distributeToLeaf_ot.cpp'
p4679
(lp4680
(S'MPI_Comm_size()'
p4681
S'34'
p4682
tp4683
a(S'MPI_Comm_rank()'
p4684
S'35'
p4685
tp4686
a(S'MPI_Comm_size()'
p4687
S'42'
p4688
tp4689
a(S'MPI_Comm_rank()'
p4690
S'43'
p4691
tp4692
a(S'MPI_CALL()'
p4693
S'44'
p4694
tp4695
a(S'MPI_Barrier()'
p4696
S'171'
p4697
tp4698
a(S'MPI_Comm_size()'
p4699
S'192'
p4700
tp4701
a(S'MPI_Comm_rank()'
p4702
S'193'
p4703
tp4704
a(S'MPI_Comm_size()'
p4705
S'202'
p4706
tp4707
a(S'MPI_Comm_rank()'
p4708
S'203'
p4709
tp4710
a(S'MPI_CALL()'
p4711
S'204'
p4712
tp4713
a(S'MPI_Barrier()'
p4714
S'244'
p4715
tp4716
a(S'MPI_Barrier()'
p4717
S'280'
p4718
tp4719
a(S'MPI_Barrier()'
p4720
S'323'
p4721
tp4722
a(S'MPI_Barrier()'
p4723
S'371'
p4724
tp4725
a(S'MPI_Barrier()'
p4726
S'377'
p4727
tp4728
a(S'MPI_Comm_size()'
p4729
S'400'
p4730
tp4731
a(S'MPI_Comm_rank()'
p4732
S'401'
p4733
tp4734
a(S'MPI_Comm_size()'
p4735
S'403'
p4736
tp4737
a(S'MPI_Comm_rank()'
p4738
S'404'
p4739
tp4740
a(S'MPI_Barrier()'
p4741
S'419'
p4742
tp4743
a(S'MPI_Barrier()'
p4744
S'451'
p4745
tp4746
a(S'MPI_Barrier()'
p4747
S'494'
p4748
tp4749
a(S'MPI_Barrier()'
p4750
S'504'
p4751
tp4752
a(S'MPI_Barrier()'
p4753
S'518'
p4754
tp4755
a(S'MPI_Barrier()'
p4756
S'530'
p4757
tp4758
a(S'MPI_Barrier()'
p4759
S'558'
p4760
tp4761
a(S'MPI_Barrier()'
p4762
S'564'
p4763
tp4764
asS'deann-askit-wrapper/askit_release/treecode/deprecated/fkstree/test.cpp'
p4765
(lp4766
(S'MPI_Init()'
p4767
S'22'
p4768
tp4769
a(S'MPI_Comm_rank()'
p4770
S'25'
p4771
tp4772
a(S'MPI_Comm_size()'
p4773
S'26'
p4774
tp4775
a(S'MPI_Allreduce()'
p4776
S'137'
p4777
tp4778
a(S'MPI_Scan()'
p4779
S'138'
p4780
tp4781
a(S'MPI_Allreduce()'
p4782
S'148'
p4783
tp4784
a(S'MPI_Scan()'
p4785
S'149'
p4786
tp4787
a(S'MPI_Finalize()'
p4788
S'181'
p4789
tp4790
asS'deann-askit-wrapper/rkdtsrc/binTree/test_hypertree.cpp'
p4791
(lp4792
(S'MPI_Init()'
p4793
S'34'
p4794
tp4795
a(S'MPI_Comm_rank()'
p4796
S'37'
p4797
tp4798
a(S'MPI_Comm_size()'
p4799
S'38'
p4800
tp4801
a(S'MPI_Allreduce()'
p4802
S'302'
p4803
tp4804
a(S'MPI_Scan()'
p4805
S'303'
p4806
tp4807
a(S'MPI_Allreduce()'
p4808
S'309'
p4809
tp4810
a(S'MPI_Scan()'
p4811
S'310'
p4812
tp4813
a(S'MPI_Barrier()'
p4814
S'317'
p4815
tp4816
a(S'MPI_Barrier()'
p4817
S'324'
p4818
tp4819
a(S'MPI_Reduce()'
p4820
S'421'
p4821
tp4822
a(S'MPI_Reduce()'
p4823
S'422'
p4824
tp4825
a(S'MPI_Reduce()'
p4826
S'423'
p4827
tp4828
a(S'MPI_Reduce()'
p4829
S'436'
p4830
tp4831
a(S'MPI_Reduce()'
p4832
S'437'
p4833
tp4834
a(S'MPI_Reduce()'
p4835
S'438'
p4836
tp4837
a(S'MPI_Reduce()'
p4838
S'451'
p4839
tp4840
a(S'MPI_Reduce()'
p4841
S'452'
p4842
tp4843
a(S'MPI_Reduce()'
p4844
S'453'
p4845
tp4846
a(S'MPI_Reduce()'
p4847
S'467'
p4848
tp4849
a(S'MPI_Reduce()'
p4850
S'468'
p4851
tp4852
a(S'MPI_Reduce()'
p4853
S'469'
p4854
tp4855
a(S'MPI_Reduce()'
p4856
S'479'
p4857
tp4858
a(S'MPI_Reduce()'
p4859
S'480'
p4860
tp4861
a(S'MPI_Reduce()'
p4862
S'481'
p4863
tp4864
a(S'MPI_Reduce()'
p4865
S'492'
p4866
tp4867
a(S'MPI_Reduce()'
p4868
S'493'
p4869
tp4870
a(S'MPI_Reduce()'
p4871
S'494'
p4872
tp4873
a(S'MPI_Reduce()'
p4874
S'504'
p4875
tp4876
a(S'MPI_Reduce()'
p4877
S'505'
p4878
tp4879
a(S'MPI_Reduce()'
p4880
S'506'
p4881
tp4882
a(S'MPI_Reduce()'
p4883
S'516'
p4884
tp4885
a(S'MPI_Reduce()'
p4886
S'517'
p4887
tp4888
a(S'MPI_Reduce()'
p4889
S'518'
p4890
tp4891
a(S'MPI_Reduce()'
p4892
S'529'
p4893
tp4894
a(S'MPI_Reduce()'
p4895
S'530'
p4896
tp4897
a(S'MPI_Reduce()'
p4898
S'531'
p4899
tp4900
a(S'MPI_Reduce()'
p4901
S'541'
p4902
tp4903
a(S'MPI_Reduce()'
p4904
S'542'
p4905
tp4906
a(S'MPI_Reduce()'
p4907
S'543'
p4908
tp4909
a(S'MPI_Reduce()'
p4910
S'553'
p4911
tp4912
a(S'MPI_Reduce()'
p4913
S'554'
p4914
tp4915
a(S'MPI_Reduce()'
p4916
S'555'
p4917
tp4918
a(S'MPI_Reduce()'
p4919
S'566'
p4920
tp4921
a(S'MPI_Reduce()'
p4922
S'567'
p4923
tp4924
a(S'MPI_Reduce()'
p4925
S'568'
p4926
tp4927
a(S'MPI_Reduce()'
p4928
S'578'
p4929
tp4930
a(S'MPI_Reduce()'
p4931
S'579'
p4932
tp4933
a(S'MPI_Reduce()'
p4934
S'580'
p4935
tp4936
a(S'MPI_Wtime()'
p4937
S'604'
p4938
tp4939
a(S'MPI_Reduce()'
p4940
S'613'
p4941
tp4942
a(S'MPI_Reduce()'
p4943
S'614'
p4944
tp4945
a(S'MPI_Reduce()'
p4946
S'615'
p4947
tp4948
a(S'MPI_Finalize()'
p4949
S'638'
p4950
tp4951
asS'deann-askit-wrapper/rkdtsrc/generator/embedding.cpp'
p4952
(lp4953
(S'MPI_Comm_rank()'
p4954
S'17'
p4955
tp4956
a(S'MPI_Comm_size()'
p4957
S'18'
p4958
tp4959
a(S'MPI_Comm_rank()'
p4960
S'59'
p4961
tp4962
a(S'MPI_Comm_size()'
p4963
S'60'
p4964
tp4965
a(S'MPI_Barrier()'
p4966
S'80'
p4967
tp4968
a(S'MPI_Barrier()'
p4969
S'105'
p4970
tp4971
asS'deann-askit-wrapper/askit_release/treecode/deprecated/test_distributed_main.cpp'
p4972
(lp4973
(S'MPI_Init()'
p4974
S'24'
p4975
tp4976
a(S'MPI_Comm_rank()'
p4977
S'27'
p4978
tp4979
a(S'MPI_Comm_size()'
p4980
S'28'
p4981
tp4982
a(S'MPI_Allreduce()'
p4983
S'78'
p4984
tp4985
a(S'MPI_Barrier()'
p4986
S'80'
p4987
tp4988
a(S'MPI_Scan()'
p4989
S'86'
p4990
tp4991
a(S'MPI_Barrier()'
p4992
S'90'
p4993
tp4994
a(S'MPI_Allreduce()'
p4995
S'120'
p4996
tp4997
a(S'MPI_Scan()'
p4998
S'122'
p4999
tp5000
a(S'MPI_Finalize()'
p5001
S'388'
p5002
tp5003
asS'deann-askit-wrapper/rkdtsrc/parallelIO/test_read_knn.cpp'
p5004
(lp5005
(S'MPI_Comm_size()'
p5006
S'20'
p5007
tp5008
a(S'MPI_Comm_rank()'
p5009
S'21'
p5010
tp5011
a(S'MPI_Barrier()'
p5012
S'35'
p5013
tp5014
a(S'MPI_Init()'
p5015
S'64'
p5016
tp5017
a(S'MPI_Comm_rank()'
p5018
S'66'
p5019
tp5020
a(S'MPI_Comm_size()'
p5021
S'67'
p5022
tp5023
a(S'MPI_Scan()'
p5024
S'70'
p5025
tp5026
a(S'MPI_Finalize()'
p5027
S'104'
p5028
tp5029
asS'deann-askit-wrapper/rkdtsrc/generator/hyperSphereSurface.cpp'
p5030
(lp5031
(S'MPI_Comm_rank()'
p5032
S'12'
p5033
tp5034
a(S'MPI_Comm_size()'
p5035
S'13'
p5036
tp5037
a(S'MPI_Comm_rank()'
p5038
S'64'
p5039
tp5040
a(S'MPI_Comm_size()'
p5041
S'65'
p5042
tp5043
a(S'MPI_Comm_rank()'
p5044
S'134'
p5045
tp5046
a(S'MPI_Comm_size()'
p5047
S'135'
p5048
tp5049
a(S'MPI_Comm_rank()'
p5050
S'164'
p5051
tp5052
a(S'MPI_Comm_size()'
p5053
S'165'
p5054
tp5055
asS'deann-askit-wrapper/rkdtsrc/stTree/stTreeSearch.cpp'
p5056
(lp5057
(S'MPI_Comm_rank()'
p5058
S'142'
p5059
tp5060
a(S'MPI_Comm_size()'
p5061
S'143'
p5062
tp5063
a(S'MPI_Reduce()'
p5064
S'146'
p5065
tp5066
a(S'MPI_Reduce()'
p5067
S'147'
p5068
tp5069
a(S'MPI_Reduce()'
p5070
S'148'
p5071
tp5072
a(S'MPI_Reduce()'
p5073
S'150'
p5074
tp5075
a(S'MPI_Reduce()'
p5076
S'151'
p5077
tp5078
a(S'MPI_Reduce()'
p5079
S'152'
p5080
tp5081
a(S'MPI_Comm_rank()'
p5082
S'232'
p5083
tp5084
a(S'MPI_Comm_size()'
p5085
S'233'
p5086
tp5087
a(S'MPI_Reduce()'
p5088
S'236'
p5089
tp5090
a(S'MPI_Reduce()'
p5091
S'237'
p5092
tp5093
a(S'MPI_Reduce()'
p5094
S'238'
p5095
tp5096
a(S'MPI_Reduce()'
p5097
S'240'
p5098
tp5099
a(S'MPI_Reduce()'
p5100
S'241'
p5101
tp5102
a(S'MPI_Reduce()'
p5103
S'242'
p5104
tp5105
a(S'MPI_Comm_rank()'
p5106
S'351'
p5107
tp5108
a(S'MPI_Comm_size()'
p5109
S'352'
p5110
tp5111
a(S'MPI_Reduce()'
p5112
S'355'
p5113
tp5114
a(S'MPI_Reduce()'
p5115
S'356'
p5116
tp5117
a(S'MPI_Reduce()'
p5118
S'357'
p5119
tp5120
a(S'MPI_Reduce()'
p5121
S'359'
p5122
tp5123
a(S'MPI_Reduce()'
p5124
S'360'
p5125
tp5126
a(S'MPI_Reduce()'
p5127
S'361'
p5128
tp5129
asS'deann-askit-wrapper/rkdtsrc/metricTree/test_old.cpp'
p5130
(lp5131
(S'MPI_Init()'
p5132
S'66'
p5133
tp5134
a(S'MPI_Comm_rank()'
p5135
S'67'
p5136
tp5137
a(S'MPI_Comm_size()'
p5138
S'68'
p5139
tp5140
a(S'MPI_Barrier()'
p5141
S'114'
p5142
tp5143
a(S'MPI_Finalize()'
p5144
S'122'
p5145
tp5146
asS'deann-askit-wrapper/rkdtsrc/pcltree/treeprint.cpp'
p5147
(lp5148
(S'MPI_Comm_rank()'
p5149
S'17'
p5150
tp5151
a(S'MPI_Comm_size()'
p5152
S'18'
p5153
tp5154
a(S'MPI_Comm_rank()'
p5155
S'60'
p5156
tp5157
a(S'MPI_Comm_size()'
p5158
S'61'
p5159
tp5160
a(S'MPI_Comm_rank()'
p5161
S'95'
p5162
tp5163
a(S'MPI_Comm_size()'
p5164
S'96'
p5165
tp5166
asS'deann-askit-wrapper/rkdtsrc/examples/direct_largeQ.cpp'
p5167
(lp5168
(S'MPI_Init()'
p5169
S'28'
p5170
tp5171
a(S'MPI_Comm_rank()'
p5172
S'43'
p5173
tp5174
a(S'MPI_Comm_size()'
p5175
S'44'
p5176
tp5177
a(S'MPI_Allreduce()'
p5178
S'64'
p5179
tp5180
a(S'MPI_Scan()'
p5181
S'65'
p5182
tp5183
a(S'MPI_Allreduce()'
p5184
S'66'
p5185
tp5186
a(S'MPI_Barrier()'
p5187
S'87'
p5188
tp5189
a(S'MPI_Barrier()'
p5190
S'93'
p5191
tp5192
a(S'MPI_Finalize()'
p5193
S'99'
p5194
tp5195
asS'deann-askit-wrapper/rkdtsrc/forest/test.cpp'
p5196
(lp5197
(S'MPI_Init()'
p5198
S'33'
p5199
tp5200
a(S'MPI_Comm_rank()'
p5201
S'36'
p5202
tp5203
a(S'MPI_Comm_size()'
p5204
S'37'
p5205
tp5206
a(S'MPI_Bcast()'
p5207
S'99'
p5208
tp5209
a(S'MPI_Allreduce()'
p5210
S'112'
p5211
tp5212
a(S'MPI_Scan()'
p5213
S'113'
p5214
tp5215
a(S'MPI_Barrier()'
p5216
S'135'
p5217
tp5218
a(S'MPI_Barrier()'
p5219
S'148'
p5220
tp5221
a(S'MPI_Barrier()'
p5222
S'216'
p5223
tp5224
a(S'MPI_Barrier()'
p5225
S'246'
p5226
tp5227
a(S'MPI_Barrier()'
p5228
S'292'
p5229
tp5230
a(S'MPI_Finalize()'
p5231
S'304'
p5232
tp5233
asS'deann-askit-wrapper/rkdtsrc/binTree/eval.cpp'
p5234
(lp5235
(S'MPI_Comm_rank()'
p5236
S'39'
p5237
tp5238
a(S'MPI_Comm_rank()'
p5239
S'61'
p5240
tp5241
a(S'MPI_Comm_size()'
p5242
S'62'
p5243
tp5244
a(S'MPI_Comm_rank()'
p5245
S'98'
p5246
tp5247
a(S'MPI_Allreduce()'
p5248
S'104'
p5249
tp5250
a(S'MPI_Reduce()'
p5251
S'134'
p5252
tp5253
a(S'MPI_Bcast()'
p5254
S'149'
p5255
tp5256
a(S'MPI_Bcast()'
p5257
S'150'
p5258
tp5259
a(S'MPI_Comm_rank()'
p5260
S'172'
p5261
tp5262
a(S'MPI_Allreduce()'
p5263
S'247'
p5264
tp5265
a(S'MPI_Allreduce()'
p5266
S'248'
p5267
tp5268
a(S'MPI_Allreduce()'
p5269
S'249'
p5270
tp5271
a(S'MPI_Allreduce()'
p5272
S'254'
p5273
tp5274
a(S'MPI_Allreduce()'
p5275
S'255'
p5276
tp5277
a(S'MPI_Comm_rank()'
p5278
S'281'
p5279
tp5280
a(S'MPI_Allreduce()'
p5281
S'357'
p5282
tp5283
a(S'MPI_Allreduce()'
p5284
S'358'
p5285
tp5286
a(S'MPI_Allreduce()'
p5287
S'359'
p5288
tp5289
a(S'MPI_Allreduce()'
p5290
S'364'
p5291
tp5292
a(S'MPI_Allreduce()'
p5293
S'365'
p5294
tp5295
a(S'MPI_Allreduce()'
p5296
S'428'
p5297
tp5298
a(S'MPI_Allreduce()'
p5299
S'429'
p5300
tp5301
a(S'MPI_Allreduce()'
p5302
S'430'
p5303
tp5304
a(S'MPI_Comm_rank()'
p5305
S'447'
p5306
tp5307
a(S'MPI_Comm_rank()'
p5308
S'478'
p5309
tp5310
a(S'MPI_Allreduce()'
p5311
S'481'
p5312
tp5313
a(S'MPI_Allreduce()'
p5314
S'527'
p5315
tp5316
a(S'MPI_Allreduce()'
p5317
S'528'
p5318
tp5319
asS'deann-askit-wrapper/rkdtsrc/binTree/test_ht_arbitraryN.cpp'
p5320
(lp5321
(S'MPI_Init()'
p5322
S'34'
p5323
tp5324
a(S'MPI_Comm_rank()'
p5325
S'37'
p5326
tp5327
a(S'MPI_Comm_size()'
p5328
S'38'
p5329
tp5330
a(S'MPI_Allreduce()'
p5331
S'329'
p5332
tp5333
a(S'MPI_Scan()'
p5334
S'330'
p5335
tp5336
a(S'MPI_Allreduce()'
p5337
S'338'
p5338
tp5339
a(S'MPI_Scan()'
p5340
S'339'
p5341
tp5342
a(S'MPI_Barrier()'
p5343
S'346'
p5344
tp5345
a(S'MPI_Barrier()'
p5346
S'353'
p5347
tp5348
a(S'MPI_Barrier()'
p5349
S'436'
p5350
tp5351
a(S'MPI_Barrier()'
p5352
S'448'
p5353
tp5354
a(S'MPI_Reduce()'
p5355
S'454'
p5356
tp5357
a(S'MPI_Reduce()'
p5358
S'455'
p5359
tp5360
a(S'MPI_Reduce()'
p5361
S'456'
p5362
tp5363
a(S'MPI_Reduce()'
p5364
S'469'
p5365
tp5366
a(S'MPI_Reduce()'
p5367
S'470'
p5368
tp5369
a(S'MPI_Reduce()'
p5370
S'471'
p5371
tp5372
a(S'MPI_Reduce()'
p5373
S'484'
p5374
tp5375
a(S'MPI_Reduce()'
p5376
S'485'
p5377
tp5378
a(S'MPI_Reduce()'
p5379
S'486'
p5380
tp5381
a(S'MPI_Reduce()'
p5382
S'498'
p5383
tp5384
a(S'MPI_Reduce()'
p5385
S'499'
p5386
tp5387
a(S'MPI_Reduce()'
p5388
S'500'
p5389
tp5390
a(S'MPI_Reduce()'
p5391
S'511'
p5392
tp5393
a(S'MPI_Reduce()'
p5394
S'512'
p5395
tp5396
a(S'MPI_Reduce()'
p5397
S'513'
p5398
tp5399
a(S'MPI_Reduce()'
p5400
S'527'
p5401
tp5402
a(S'MPI_Reduce()'
p5403
S'528'
p5404
tp5405
a(S'MPI_Reduce()'
p5406
S'529'
p5407
tp5408
a(S'MPI_Reduce()'
p5409
S'539'
p5410
tp5411
a(S'MPI_Reduce()'
p5412
S'540'
p5413
tp5414
a(S'MPI_Reduce()'
p5415
S'541'
p5416
tp5417
a(S'MPI_Reduce()'
p5418
S'552'
p5419
tp5420
a(S'MPI_Reduce()'
p5421
S'553'
p5422
tp5423
a(S'MPI_Reduce()'
p5424
S'554'
p5425
tp5426
a(S'MPI_Reduce()'
p5427
S'564'
p5428
tp5429
a(S'MPI_Reduce()'
p5430
S'565'
p5431
tp5432
a(S'MPI_Reduce()'
p5433
S'566'
p5434
tp5435
a(S'MPI_Reduce()'
p5436
S'576'
p5437
tp5438
a(S'MPI_Reduce()'
p5439
S'577'
p5440
tp5441
a(S'MPI_Reduce()'
p5442
S'578'
p5443
tp5444
a(S'MPI_Reduce()'
p5445
S'589'
p5446
tp5447
a(S'MPI_Reduce()'
p5448
S'590'
p5449
tp5450
a(S'MPI_Reduce()'
p5451
S'591'
p5452
tp5453
a(S'MPI_Reduce()'
p5454
S'601'
p5455
tp5456
a(S'MPI_Reduce()'
p5457
S'602'
p5458
tp5459
a(S'MPI_Reduce()'
p5460
S'603'
p5461
tp5462
a(S'MPI_Reduce()'
p5463
S'613'
p5464
tp5465
a(S'MPI_Reduce()'
p5466
S'614'
p5467
tp5468
a(S'MPI_Reduce()'
p5469
S'615'
p5470
tp5471
a(S'MPI_Reduce()'
p5472
S'626'
p5473
tp5474
a(S'MPI_Reduce()'
p5475
S'627'
p5476
tp5477
a(S'MPI_Reduce()'
p5478
S'628'
p5479
tp5480
a(S'MPI_Reduce()'
p5481
S'638'
p5482
tp5483
a(S'MPI_Reduce()'
p5484
S'639'
p5485
tp5486
a(S'MPI_Reduce()'
p5487
S'640'
p5488
tp5489
a(S'MPI_Wtime()'
p5490
S'664'
p5491
tp5492
a(S'MPI_Reduce()'
p5493
S'673'
p5494
tp5495
a(S'MPI_Reduce()'
p5496
S'674'
p5497
tp5498
a(S'MPI_Reduce()'
p5499
S'675'
p5500
tp5501
a(S'MPI_Finalize()'
p5502
S'698'
p5503
tp5504
asS'deann-askit-wrapper/rkdtsrc/oldtree/test_ot_mtree.cpp'
p5505
(lp5506
(S'MPI_Init()'
p5507
S'34'
p5508
tp5509
a(S'MPI_Comm_rank()'
p5510
S'37'
p5511
tp5512
a(S'MPI_Comm_size()'
p5513
S'38'
p5514
tp5515
a(S'MPI_Allreduce()'
p5516
S'277'
p5517
tp5518
a(S'MPI_Scan()'
p5519
S'278'
p5520
tp5521
a(S'MPI_Allreduce()'
p5522
S'284'
p5523
tp5524
a(S'MPI_Scan()'
p5525
S'285'
p5526
tp5527
a(S'MPI_Barrier()'
p5528
S'292'
p5529
tp5530
a(S'MPI_Barrier()'
p5531
S'299'
p5532
tp5533
a(S'MPI_Barrier()'
p5534
S'383'
p5535
tp5536
a(S'MPI_Barrier()'
p5537
S'391'
p5538
tp5539
a(S'MPI_Barrier()'
p5540
S'425'
p5541
tp5542
a(S'MPI_Reduce()'
p5543
S'445'
p5544
tp5545
a(S'MPI_Reduce()'
p5546
S'446'
p5547
tp5548
a(S'MPI_Reduce()'
p5549
S'447'
p5550
tp5551
a(S'MPI_Reduce()'
p5552
S'460'
p5553
tp5554
a(S'MPI_Reduce()'
p5555
S'461'
p5556
tp5557
a(S'MPI_Reduce()'
p5558
S'462'
p5559
tp5560
a(S'MPI_Reduce()'
p5561
S'475'
p5562
tp5563
a(S'MPI_Reduce()'
p5564
S'476'
p5565
tp5566
a(S'MPI_Reduce()'
p5567
S'477'
p5568
tp5569
a(S'MPI_Reduce()'
p5570
S'492'
p5571
tp5572
a(S'MPI_Reduce()'
p5573
S'493'
p5574
tp5575
a(S'MPI_Reduce()'
p5576
S'494'
p5577
tp5578
a(S'MPI_Reduce()'
p5579
S'504'
p5580
tp5581
a(S'MPI_Reduce()'
p5582
S'505'
p5583
tp5584
a(S'MPI_Reduce()'
p5585
S'506'
p5586
tp5587
a(S'MPI_Reduce()'
p5588
S'516'
p5589
tp5590
a(S'MPI_Reduce()'
p5591
S'517'
p5592
tp5593
a(S'MPI_Reduce()'
p5594
S'518'
p5595
tp5596
a(S'MPI_Reduce()'
p5597
S'529'
p5598
tp5599
a(S'MPI_Reduce()'
p5600
S'530'
p5601
tp5602
a(S'MPI_Reduce()'
p5603
S'531'
p5604
tp5605
a(S'MPI_Reduce()'
p5606
S'541'
p5607
tp5608
a(S'MPI_Reduce()'
p5609
S'542'
p5610
tp5611
a(S'MPI_Reduce()'
p5612
S'543'
p5613
tp5614
a(S'MPI_Reduce()'
p5615
S'553'
p5616
tp5617
a(S'MPI_Reduce()'
p5618
S'554'
p5619
tp5620
a(S'MPI_Reduce()'
p5621
S'555'
p5622
tp5623
a(S'MPI_Reduce()'
p5624
S'566'
p5625
tp5626
a(S'MPI_Reduce()'
p5627
S'567'
p5628
tp5629
a(S'MPI_Reduce()'
p5630
S'568'
p5631
tp5632
a(S'MPI_Reduce()'
p5633
S'578'
p5634
tp5635
a(S'MPI_Reduce()'
p5636
S'579'
p5637
tp5638
a(S'MPI_Reduce()'
p5639
S'580'
p5640
tp5641
a(S'MPI_Finalize()'
p5642
S'592'
p5643
tp5644
asS'deann-askit-wrapper/rkdtsrc/include/papi_perf.h'
p5645
(lp5646
(S'MPI_Barrier()'
p5647
S'74'
p5648
tp5649
a(S'MPI_Barrier()'
p5650
S'89'
p5651
tp5652
a(S'MPI_Allreduce()'
p5653
S'97'
p5654
tp5655
asS'deann-askit-wrapper/rkdtsrc/direct_knn/knnreduce.cpp'
p5656
(lp5657
(S'MPI_Op_create()'
p5658
S'91'
p5659
tp5660
a(S'MPI_Type_contiguous()'
p5661
S'111'
p5662
tp5663
a(S'MPI_Type_commit()'
p5664
S'113'
p5665
tp5666
a(S'MPI_Reduce()'
p5667
S'114'
p5668
tp5669
a(S'MPI_Op_free()'
p5670
S'115'
p5671
tp5672
a(S'MPI_Type_free()'
p5673
S'116'
p5674
tp5675
asS'deann-askit-wrapper/rkdtsrc/repartition/repartition.cpp'
p5676
(lp5677
(S'MPI_Comm_rank()'
p5678
S'28'
p5679
tp5680
a(S'MPI_Comm_size()'
p5681
S'29'
p5682
tp5683
a(S'MPI_Gather()'
p5684
S'34'
p5685
tp5686
a(S'MPI_Gatherv()'
p5687
S'52'
p5688
tp5689
a(S'MPI_Gatherv()'
p5690
S'56'
p5691
tp5692
a(S'MPI_Gather()'
p5693
S'65'
p5694
tp5695
a(S'MPI_Gatherv()'
p5696
S'83'
p5697
tp5698
a(S'MPI_Comm_size()'
p5699
S'163'
p5700
tp5701
a(S'MPI_Comm_rank()'
p5702
S'164'
p5703
tp5704
a(S'MPI_Comm_rank()'
p5705
S'226'
p5706
tp5707
a(S'MPI_Comm_size()'
p5708
S'227'
p5709
tp5710
a(S'MPI_CALL()'
p5711
S'249'
p5712
tp5713
a(S'MPI_Comm_rank()'
p5714
S'266'
p5715
tp5716
a(S'MPI_Comm_size()'
p5717
S'267'
p5718
tp5719
a(S'MPI_CALL()'
p5720
S'273'
p5721
tp5722
a(S'MPI_Barrier()'
p5723
S'297'
p5724
tp5725
a(S'MPI_Barrier()'
p5726
S'313'
p5727
tp5728
a(S'MPI_CALL()'
p5729
S'314'
p5730
tp5731
a(S'MPI_CALL()'
p5732
S'330'
p5733
tp5734
a(S'MPI_CALL()'
p5735
S'351'
p5736
tp5737
a(S'MPI_Comm_rank()'
p5738
S'377'
p5739
tp5740
a(S'MPI_Comm_size()'
p5741
S'378'
p5742
tp5743
a(S'MPI_Barrier()'
p5744
S'381'
p5745
tp5746
a(S'MPI_CALL()'
p5747
S'382'
p5748
tp5749
a(S'MPI_Barrier()'
p5750
S'405'
p5751
tp5752
a(S'MPI_CALL()'
p5753
S'406'
p5754
tp5755
a(S'MPI_CALL()'
p5756
S'408'
p5757
tp5758
a(S'MPI_Barrier()'
p5759
S'425'
p5760
tp5761
a(S'MPI_CALL()'
p5762
S'426'
p5763
tp5764
a(S'MPI_Comm_rank()'
p5765
S'455'
p5766
tp5767
a(S'MPI_Comm_size()'
p5768
S'456'
p5769
tp5770
a(S'MPI_Barrier()'
p5771
S'459'
p5772
tp5773
a(S'MPI_Alltoall()'
p5774
S'460'
p5775
tp5776
a(S'MPI_Barrier()'
p5777
S'483'
p5778
tp5779
a(S'MPI_Alltoallv()'
p5780
S'484'
p5781
tp5782
a(S'MPI_Alltoallv()'
p5783
S'487'
p5784
tp5785
a(S'MPI_Barrier()'
p5786
S'504'
p5787
tp5788
a(S'MPI_Alltoallv()'
p5789
S'505'
p5790
tp5791
a(S'MPI_Comm_rank()'
p5792
S'724'
p5793
tp5794
a(S'MPI_Comm_size()'
p5795
S'725'
p5796
tp5797
a(S'MPI_Comm_size()'
p5798
S'828'
p5799
tp5800
a(S'MPI_Comm_rank()'
p5801
S'829'
p5802
tp5803
a(S'MPI_Comm_rank()'
p5804
S'832'
p5805
tp5806
a(S'MPI_Barrier()'
p5807
S'833'
p5808
tp5809
a(S'MPI_Allgather()'
p5810
S'838'
p5811
tp5812
a(S'MPI_Barrier()'
p5813
S'841'
p5814
tp5815
a(S'MPI_Bcast()'
p5816
S'858'
p5817
tp5818
a(S'MPI_Allgather()'
p5819
S'904'
p5820
tp5821
a(S'MPI_Barrier()'
p5822
S'926'
p5823
tp5824
a(S'MPI_Comm_rank()'
p5825
S'946'
p5826
tp5827
a(S'MPI_Irecv()'
p5828
S'952'
p5829
tp5830
a(S'MPI_Irecv()'
p5831
S'953'
p5832
tp5833
a(S'MPI_Isend()'
p5834
S'955'
p5835
tp5836
a(S'MPI_Isend()'
p5837
S'956'
p5838
tp5839
a(S'MPI_Sendrecv()'
p5840
S'961'
p5841
tp5842
a(S'MPI_Sendrecv()'
p5843
S'963'
p5844
tp5845
a(S'MPI_Get_count()'
p5846
S'969'
p5847
tp5848
a(S'MPI_Get_count()'
p5849
S'970'
p5850
tp5851
a(S'MPI_Comm_rank()'
p5852
S'995'
p5853
tp5854
a(S'MPI_Comm_size()'
p5855
S'996'
p5856
tp5857
a(S'MPI_Comm_rank()'
p5858
S'999'
p5859
tp5860
a(S'MPI_Barrier()'
p5861
S'1000'
p5862
tp5863
a(S'MPI_Barrier()'
p5864
S'1049'
p5865
tp5866
a(S'MPI_Barrier()'
p5867
S'1051'
p5868
tp5869
a(S'MPI_Comm_rank()'
p5870
S'1087'
p5871
tp5872
a(S'MPI_Comm_size()'
p5873
S'1088'
p5874
tp5875
a(S'MPI_Comm_rank()'
p5876
S'1091'
p5877
tp5878
a(S'MPI_Barrier()'
p5879
S'1093'
p5880
tp5881
a(S'MPI_Sendrecv()'
p5882
S'1150'
p5883
tp5884
a(S'MPI_Get_count()'
p5885
S'1151'
p5886
tp5887
a(S'MPI_Barrier()'
p5888
S'1189'
p5889
tp5890
a(S'MPI_Sendrecv()'
p5891
S'1205'
p5892
tp5893
a(S'MPI_Get_count()'
p5894
S'1206'
p5895
tp5896
a(S'MPI_Barrier()'
p5897
S'1242'
p5898
tp5899
a(S'MPI_Barrier()'
p5900
S'1248'
p5901
tp5902
a(S'MPI_Comm_size()'
p5903
S'1266'
p5904
tp5905
a(S'MPI_Comm_rank()'
p5906
S'1267'
p5907
tp5908
a(S'MPI_Comm_rank()'
p5909
S'1270'
p5910
tp5911
a(S'MPI_Barrier()'
p5912
S'1272'
p5913
tp5914
a(S'MPI_Allgather()'
p5915
S'1277'
p5916
tp5917
a(S'MPI_Barrier()'
p5918
S'1281'
p5919
tp5920
a(S'MPI_Bcast()'
p5921
S'1299'
p5922
tp5923
a(S'MPI_Sendrecv()'
p5924
S'1333'
p5925
tp5926
a(S'MPI_Get_count()'
p5927
S'1334'
p5928
tp5929
a(S'MPI_Allgather()'
p5930
S'1354'
p5931
tp5932
a(S'MPI_Barrier()'
p5933
S'1373'
p5934
tp5935
asS'deann-askit-wrapper/rkdtsrc/parTree/parTree.cpp'
p5936
(lp5937
(S'MPI_Comm_size()'
p5938
S'52'
p5939
tp5940
a(S'MPI_CALL()'
p5941
S'71'
p5942
tp5943
a(S'MPI_Comm_size()'
p5944
S'99'
p5945
tp5946
a(S'MPI_Comm_rank()'
p5947
S'100'
p5948
tp5949
a(S'MPI_Barrier()'
p5950
S'139'
p5951
tp5952
a(S'MPI_Barrier()'
p5953
S'163'
p5954
tp5955
a(S'MPI_Barrier()'
p5956
S'187'
p5957
tp5958
a(S'MPI_Comm_rank()'
p5959
S'200'
p5960
tp5961
a(S'MPI_Comm_size()'
p5962
S'201'
p5963
tp5964
a(S'MPI_CALL()'
p5965
S'225'
p5966
tp5967
a(S'MPI_Barrier()'
p5968
S'234'
p5969
tp5970
a(S'MPI_Barrier()'
p5971
S'251'
p5972
tp5973
a(S'MPI_Barrier()'
p5974
S'285'
p5975
tp5976
a(S'MPI_Barrier()'
p5977
S'314'
p5978
tp5979
a(S'MPI_Barrier()'
p5980
S'323'
p5981
tp5982
a(S'MPI_Barrier()'
p5983
S'341'
p5984
tp5985
a(S'MPI_Barrier()'
p5986
S'355'
p5987
tp5988
a(S'MPI_Barrier()'
p5989
S'390'
p5990
tp5991
a(S'MPI_CALL()'
p5992
S'448'
p5993
tp5994
a(S'MPI_Scan()'
p5995
S'453'
p5996
tp5997
a(S'MPI_CALL()'
p5998
S'504'
p5999
tp6000
a(S'MPI_CALL()'
p6001
S'533'
p6002
tp6003
a(S'MPI_CALL()'
p6004
S'622'
p6005
tp6006
a(S'MPI_CALL()'
p6007
S'643'
p6008
tp6009
a(S'MPI_CALL()'
p6010
S'662'
p6011
tp6012
a(S'MPI_Comm_size()'
p6013
S'765'
p6014
tp6015
a(S'MPI_Comm_rank()'
p6016
S'766'
p6017
tp6018
a(S'MPI_Barrier()'
p6019
S'871'
p6020
tp6021
asS'deann-askit-wrapper/askit_release/treecode/deprecated/fileio.txx'
p6022
(lp6023
(S'MPI_Comm_rank()'
p6024
S'81'
p6025
tp6026
a(S'MPI_Comm_size()'
p6027
S'82'
p6028
tp6029
a(S'MPI_Barrier()'
p6030
S'85'
p6031
tp6032
a(S'MPI_Barrier()'
p6033
S'99'
p6034
tp6035
asS'deann-askit-wrapper/askit_release/treecode/src/fksTree.cpp'
p6036
(lp6037
(S'MPI_Comm_rank()'
p6038
S'46'
p6039
tp6040
a(S'MPI_Comm_size()'
p6041
S'47'
p6042
tp6043
a(S'MPI_Barrier()'
p6044
S'48'
p6045
tp6046
a(S'MPI_Barrier()'
p6047
S'63'
p6048
tp6049
a(S'MPI_Barrier()'
p6050
S'77'
p6051
tp6052
a(S'MPI_Barrier()'
p6053
S'92'
p6054
tp6055
a(S'MPI_Barrier()'
p6056
S'106'
p6057
tp6058
a(S'MPI_Comm_rank()'
p6059
S'115'
p6060
tp6061
a(S'MPI_Comm_size()'
p6062
S'116'
p6063
tp6064
a(S'MPI_Barrier()'
p6065
S'117'
p6066
tp6067
a(S'MPI_Barrier()'
p6068
S'132'
p6069
tp6070
a(S'MPI_Barrier()'
p6071
S'146'
p6072
tp6073
a(S'MPI_Barrier()'
p6074
S'161'
p6075
tp6076
a(S'MPI_Barrier()'
p6077
S'175'
p6078
tp6079
a(S'MPI_Barrier()'
p6080
S'186'
p6081
tp6082
a(S'MPI_Comm_rank()'
p6083
S'195'
p6084
tp6085
a(S'MPI_Comm_size()'
p6086
S'196'
p6087
tp6088
a(S'MPI_Barrier()'
p6089
S'197'
p6090
tp6091
a(S'MPI_Barrier()'
p6092
S'211'
p6093
tp6094
a(S'MPI_Comm_rank()'
p6095
S'219'
p6096
tp6097
a(S'MPI_Comm_size()'
p6098
S'220'
p6099
tp6100
a(S'MPI_Barrier()'
p6101
S'221'
p6102
tp6103
a(S'MPI_Barrier()'
p6104
S'235'
p6105
tp6106
a(S'MPI_Comm_rank()'
p6107
S'243'
p6108
tp6109
a(S'MPI_Comm_size()'
p6110
S'244'
p6111
tp6112
a(S'MPI_Barrier()'
p6113
S'245'
p6114
tp6115
a(S'MPI_Barrier()'
p6116
S'254'
p6117
tp6118
a(S'MPI_Comm_size()'
p6119
S'297'
p6120
tp6121
a(S'MPI_Comm_rank()'
p6122
S'298'
p6123
tp6124
a(S'MPI_Barrier()'
p6125
S'306'
p6126
tp6127
a(S'MPI_Comm_size()'
p6128
S'316'
p6129
tp6130
a(S'MPI_Comm_rank()'
p6131
S'317'
p6132
tp6133
a(S'MPI_Barrier()'
p6134
S'325'
p6135
tp6136
a(S'MPI_Comm_rank()'
p6137
S'373'
p6138
tp6139
a(S'MPI_Comm_size()'
p6140
S'374'
p6141
tp6142
a(S'MPI_Comm_size()'
p6143
S'383'
p6144
tp6145
a(S'MPI_Comm_rank()'
p6146
S'384'
p6147
tp6148
a(S'MPI_Allreduce()'
p6149
S'386'
p6150
tp6151
a(S'MPI_Barrier()'
p6152
S'404'
p6153
tp6154
a(S'MPI_Barrier()'
p6155
S'423'
p6156
tp6157
a(S'MPI_Barrier()'
p6158
S'430'
p6159
tp6160
a(S'MPI_Barrier()'
p6161
S'452'
p6162
tp6163
a(S'MPI_Barrier()'
p6164
S'475'
p6165
tp6166
a(S'MPI_Barrier()'
p6167
S'487'
p6168
tp6169
a(S'MPI_Barrier()'
p6170
S'493'
p6171
tp6172
a(S'MPI_Barrier()'
p6173
S'526'
p6174
tp6175
a(S'MPI_Comm_free()'
p6176
S'527'
p6177
tp6178
a(S'MPI_Comm_size()'
p6179
S'615'
p6180
tp6181
a(S'MPI_Comm_rank()'
p6182
S'616'
p6183
tp6184
a(S'MPI_Allreduce()'
p6185
S'620'
p6186
tp6187
a(S'MPI_Allreduce()'
p6188
S'621'
p6189
tp6190
a(S'MPI_Barrier()'
p6191
S'637'
p6192
tp6193
a(S'MPI_Barrier()'
p6194
S'659'
p6195
tp6196
a(S'MPI_Alltoall()'
p6197
S'669'
p6198
tp6199
a(S'MPI_Alltoallv()'
p6200
S'682'
p6201
tp6202
a(S'MPI_Barrier()'
p6203
S'694'
p6204
tp6205
a(S'MPI_Scan()'
p6206
S'701'
p6207
tp6208
a(S'MPI_Barrier()'
p6209
S'721'
p6210
tp6211
a(S'MPI_Alltoallv()'
p6212
S'738'
p6213
tp6214
a(S'MPI_Barrier()'
p6215
S'750'
p6216
tp6217
a(S'MPI_Barrier()'
p6218
S'769'
p6219
tp6220
a(S'MPI_Comm_rank()'
p6221
S'796'
p6222
tp6223
a(S'MPI_Comm_size()'
p6224
S'797'
p6225
tp6226
a(S'MPI_Allreduce()'
p6227
S'800'
p6228
tp6229
a(S'MPI_Barrier()'
p6230
S'818'
p6231
tp6232
a(S'MPI_Alltoall()'
p6233
S'834'
p6234
tp6235
a(S'MPI_Type_contiguous()'
p6236
S'854'
p6237
tp6238
a(S'MPI_Type_commit()'
p6239
S'855'
p6240
tp6241
a(S'MPI_Alltoallv()'
p6242
S'856'
p6243
tp6244
a(S'MPI_Barrier()'
p6245
S'862'
p6246
tp6247
a(S'MPI_Barrier()'
p6248
S'875'
p6249
tp6250
a(S'MPI_Barrier()'
p6251
S'880'
p6252
tp6253
a(S'MPI_Barrier()'
p6254
S'891'
p6255
tp6256
a(S'MPI_Comm_rank()'
p6257
S'915'
p6258
tp6259
a(S'MPI_Comm_size()'
p6260
S'916'
p6261
tp6262
a(S'MPI_Allreduce()'
p6263
S'919'
p6264
tp6265
a(S'MPI_Barrier()'
p6266
S'937'
p6267
tp6268
a(S'MPI_Alltoall()'
p6269
S'952'
p6270
tp6271
a(S'MPI_Type_contiguous()'
p6272
S'972'
p6273
tp6274
a(S'MPI_Type_commit()'
p6275
S'973'
p6276
tp6277
a(S'MPI_Alltoallv()'
p6278
S'974'
p6279
tp6280
a(S'MPI_Alltoallv()'
p6281
S'992'
p6282
tp6283
a(S'MPI_Comm_size()'
p6284
S'1029'
p6285
tp6286
a(S'MPI_Comm_rank()'
p6287
S'1030'
p6288
tp6289
a(S'MPI_Allreduce()'
p6290
S'1033'
p6291
tp6292
a(S'MPI_Barrier()'
p6293
S'1038'
p6294
tp6295
a(S'MPI_Barrier()'
p6296
S'1059'
p6297
tp6298
a(S'MPI_Barrier()'
p6299
S'1065'
p6300
tp6301
a(S'MPI_Barrier()'
p6302
S'1091'
p6303
tp6304
a(S'MPI_Barrier()'
p6305
S'1102'
p6306
tp6307
a(S'MPI_Barrier()'
p6308
S'1108'
p6309
tp6310
a(S'MPI_Barrier()'
p6311
S'1112'
p6312
tp6313
a(S'MPI_Barrier()'
p6314
S'1136'
p6315
tp6316
a(S'MPI_Barrier()'
p6317
S'1142'
p6318
tp6319
a(S'MPI_Alltoall()'
p6320
S'1168'
p6321
tp6322
a(S'MPI_Type_contiguous()'
p6323
S'1182'
p6324
tp6325
a(S'MPI_Type_commit()'
p6326
S'1183'
p6327
tp6328
a(S'MPI_Alltoallv()'
p6329
S'1184'
p6330
tp6331
a(S'MPI_Scan()'
p6332
S'1187'
p6333
tp6334
a(S'MPI_Barrier()'
p6335
S'1203'
p6336
tp6337
a(S'MPI_Barrier()'
p6338
S'1209'
p6339
tp6340
a(S'MPI_Allreduce()'
p6341
S'1215'
p6342
tp6343
a(S'MPI_Allreduce()'
p6344
S'1216'
p6345
tp6346
a(S'MPI_Allreduce()'
p6347
S'1217'
p6348
tp6349
a(S'MPI_Comm_rank()'
p6350
S'1230'
p6351
tp6352
a(S'MPI_Comm_size()'
p6353
S'1231'
p6354
tp6355
a(S'MPI_Allreduce()'
p6356
S'1247'
p6357
tp6358
a(S'MPI_Allreduce()'
p6359
S'1248'
p6360
tp6361
a(S'MPI_Allreduce()'
p6362
S'1249'
p6363
tp6364
a(S'MPI_Comm_size()'
p6365
S'1262'
p6366
tp6367
a(S'MPI_Comm_rank()'
p6368
S'1263'
p6369
tp6370
a(S'MPI_Allreduce()'
p6371
S'1267'
p6372
tp6373
a(S'MPI_Alltoall()'
p6374
S'1289'
p6375
tp6376
a(S'MPI_Alltoallv()'
p6377
S'1302'
p6378
tp6379
a(S'MPI_Scan()'
p6380
S'1308'
p6381
tp6382
a(S'MPI_Type_contiguous()'
p6383
S'1335'
p6384
tp6385
a(S'MPI_Type_commit()'
p6386
S'1336'
p6387
tp6388
a(S'MPI_Alltoallv()'
p6389
S'1337'
p6390
tp6391
a(S'MPI_Comm_size()'
p6392
S'1365'
p6393
tp6394
a(S'MPI_Comm_rank()'
p6395
S'1366'
p6396
tp6397
a(S'MPI_Allreduce()'
p6398
S'1370'
p6399
tp6400
a(S'MPI_Barrier()'
p6401
S'1407'
p6402
tp6403
a(S'MPI_Alltoall()'
p6404
S'1417'
p6405
tp6406
a(S'MPI_Alltoallv()'
p6407
S'1427'
p6408
tp6409
a(S'MPI_Barrier()'
p6410
S'1441'
p6411
tp6412
a(S'MPI_Scan()'
p6413
S'1448'
p6414
tp6415
a(S'MPI_Alltoallv()'
p6416
S'1474'
p6417
tp6418
a(S'MPI_Comm_rank()'
p6419
S'1513'
p6420
tp6421
a(S'MPI_Comm_size()'
p6422
S'1514'
p6423
tp6424
a(S'MPI_Comm_rank()'
p6425
S'1552'
p6426
tp6427
a(S'MPI_Comm_rank()'
p6428
S'1724'
p6429
tp6430
a(S'MPI_Comm_size()'
p6431
S'1725'
p6432
tp6433
a(S'MPI_Comm_rank()'
p6434
S'1733'
p6435
tp6436
a(S'MPI_Comm_size()'
p6437
S'1734'
p6438
tp6439
a(S'MPI_Comm_size()'
p6440
S'1750'
p6441
tp6442
a(S'MPI_Barrier()'
p6443
S'1783'
p6444
tp6445
a(S'MPI_Send()'
p6446
S'1788'
p6447
tp6448
a(S'MPI_Recv()'
p6449
S'1791'
p6450
tp6451
a(S'MPI_Send()'
p6452
S'1795'
p6453
tp6454
a(S'MPI_Recv()'
p6455
S'1798'
p6456
tp6457
a(S'MPI_Barrier()'
p6458
S'1812'
p6459
tp6460
a(S'MPI_Type_contiguous()'
p6461
S'1818'
p6462
tp6463
a(S'MPI_Type_commit()'
p6464
S'1819'
p6465
tp6466
a(S'MPI_Send()'
p6467
S'1823'
p6468
tp6469
a(S'MPI_Recv()'
p6470
S'1827'
p6471
tp6472
a(S'MPI_Send()'
p6473
S'1832'
p6474
tp6475
a(S'MPI_Recv()'
p6476
S'1836'
p6477
tp6478
a(S'MPI_Barrier()'
p6479
S'1840'
p6480
tp6481
a(S'MPI_Barrier()'
p6482
S'1854'
p6483
tp6484
a(S'MPI_Barrier()'
p6485
S'1909'
p6486
tp6487
a(S'MPI_Send()'
p6488
S'1950'
p6489
tp6490
a(S'MPI_Recv()'
p6491
S'1953'
p6492
tp6493
a(S'MPI_Send()'
p6494
S'1958'
p6495
tp6496
a(S'MPI_Recv()'
p6497
S'1962'
p6498
tp6499
a(S'MPI_Send()'
p6500
S'1988'
p6501
tp6502
a(S'MPI_Recv()'
p6503
S'1991'
p6504
tp6505
a(S'MPI_Barrier()'
p6506
S'2008'
p6507
tp6508
a(S'MPI_Barrier()'
p6509
S'2040'
p6510
tp6511
a(S'MPI_Barrier()'
p6512
S'2047'
p6513
tp6514
a(S'MPI_Comm_rank()'
p6515
S'2086'
p6516
tp6517
a(S'MPI_Comm_size()'
p6518
S'2087'
p6519
tp6520
a(S'MPI_Comm_rank()'
p6521
S'2093'
p6522
tp6523
a(S'MPI_Comm_size()'
p6524
S'2094'
p6525
tp6526
a(S'MPI_Comm_rank()'
p6527
S'2095'
p6528
tp6529
a(S'MPI_Comm_size()'
p6530
S'2096'
p6531
tp6532
a(S'MPI_Send()'
p6533
S'2108'
p6534
tp6535
a(S'MPI_Recv()'
p6536
S'2109'
p6537
tp6538
a(S'MPI_Send()'
p6539
S'2113'
p6540
tp6541
a(S'MPI_Recv()'
p6542
S'2114'
p6543
tp6544
a(S'MPI_Send()'
p6545
S'2121'
p6546
tp6547
a(S'MPI_Recv()'
p6548
S'2125'
p6549
tp6550
a(S'MPI_Recv()'
p6551
S'2130'
p6552
tp6553
a(S'MPI_Send()'
p6554
S'2134'
p6555
tp6556
a(S'MPI_Send()'
p6557
S'2145'
p6558
tp6559
a(S'MPI_Recv()'
p6560
S'2146'
p6561
tp6562
a(S'MPI_Send()'
p6563
S'2150'
p6564
tp6565
a(S'MPI_Recv()'
p6566
S'2151'
p6567
tp6568
a(S'MPI_Send()'
p6569
S'2157'
p6570
tp6571
a(S'MPI_Recv()'
p6572
S'2161'
p6573
tp6574
a(S'MPI_Recv()'
p6575
S'2166'
p6576
tp6577
a(S'MPI_Send()'
p6578
S'2170'
p6579
tp6580
a(S'MPI_Bcast()'
p6581
S'2173'
p6582
tp6583
a(S'MPI_Barrier()'
p6584
S'2192'
p6585
tp6586
a(S'MPI_Bcast()'
p6587
S'2198'
p6588
tp6589
a(S'MPI_Barrier()'
p6590
S'2219'
p6591
tp6592
a(S'MPI_Send()'
p6593
S'2227'
p6594
tp6595
a(S'MPI_Recv()'
p6596
S'2228'
p6597
tp6598
a(S'MPI_Send()'
p6599
S'2232'
p6600
tp6601
a(S'MPI_Recv()'
p6602
S'2233'
p6603
tp6604
a(S'MPI_Send()'
p6605
S'2240'
p6606
tp6607
a(S'MPI_Recv()'
p6608
S'2244'
p6609
tp6610
a(S'MPI_Send()'
p6611
S'2249'
p6612
tp6613
a(S'MPI_Recv()'
p6614
S'2253'
p6615
tp6616
a(S'MPI_Bcast()'
p6617
S'2256'
p6618
tp6619
a(S'MPI_Barrier()'
p6620
S'2268'
p6621
tp6622
a(S'MPI_Barrier()'
p6623
S'2307'
p6624
tp6625
a(S'MPI_Alltoallv()'
p6626
S'2350'
p6627
tp6628
a(S'MPI_Barrier()'
p6629
S'2368'
p6630
tp6631
a(S'MPI_Barrier()'
p6632
S'2389'
p6633
tp6634
a(S'MPI_Comm_rank()'
p6635
S'2407'
p6636
tp6637
a(S'MPI_Comm_size()'
p6638
S'2408'
p6639
tp6640
a(S'MPI_Comm_rank()'
p6641
S'2441'
p6642
tp6643
a(S'MPI_Comm_size()'
p6644
S'2443'
p6645
tp6646
a(S'MPI_Allreduce()'
p6647
S'2477'
p6648
tp6649
a(S'MPI_Recv()'
p6650
S'2518'
p6651
tp6652
a(S'MPI_Send()'
p6653
S'2522'
p6654
tp6655
a(S'MPI_Recv()'
p6656
S'2529'
p6657
tp6658
a(S'MPI_Send()'
p6659
S'2539'
p6660
tp6661
a(S'MPI_Send()'
p6662
S'2589'
p6663
tp6664
a(S'MPI_Recv()'
p6665
S'2593'
p6666
tp6667
a(S'MPI_Send()'
p6668
S'2600'
p6669
tp6670
a(S'MPI_Recv()'
p6671
S'2604'
p6672
tp6673
a(S'MPI_Recv()'
p6674
S'2618'
p6675
tp6676
a(S'MPI_Send()'
p6677
S'2665'
p6678
tp6679
a(S'MPI_Comm_rank()'
p6680
S'2697'
p6681
tp6682
a(S'MPI_Comm_size()'
p6683
S'2698'
p6684
tp6685
a(S'MPI_Barrier()'
p6686
S'2716'
p6687
tp6688
a(S'MPI_Type_contiguous()'
p6689
S'2725'
p6690
tp6691
a(S'MPI_Type_commit()'
p6692
S'2726'
p6693
tp6694
a(S'MPI_Allgather()'
p6695
S'2731'
p6696
tp6697
a(S'MPI_Allgatherv()'
p6698
S'2744'
p6699
tp6700
a(S'MPI_Barrier()'
p6701
S'2822'
p6702
tp6703
a(S'MPI_Barrier()'
p6704
S'2826'
p6705
tp6706
a(S'MPI_Barrier()'
p6707
S'2842'
p6708
tp6709
a(S'MPI_Barrier()'
p6710
S'2845'
p6711
tp6712
a(S'MPI_Barrier()'
p6713
S'2868'
p6714
tp6715
a(S'MPI_Barrier()'
p6716
S'2885'
p6717
tp6718
a(S'MPI_Barrier()'
p6719
S'2888'
p6720
tp6721
a(S'MPI_Barrier()'
p6722
S'2896'
p6723
tp6724
a(S'MPI_Barrier()'
p6725
S'2911'
p6726
tp6727
a(S'MPI_Comm_rank()'
p6728
S'2961'
p6729
tp6730
a(S'MPI_Barrier()'
p6731
S'2970'
p6732
tp6733
a(S'MPI_Barrier()'
p6734
S'2986'
p6735
tp6736
a(S'MPI_Comm_size()'
p6737
S'3040'
p6738
tp6739
a(S'MPI_Comm_rank()'
p6740
S'3041'
p6741
tp6742
a(S'MPI_Allreduce()'
p6743
S'3044'
p6744
tp6745
a(S'MPI_Allreduce()'
p6746
S'3045'
p6747
tp6748
a(S'MPI_Allreduce()'
p6749
S'3046'
p6750
tp6751
a(S'MPI_Allreduce()'
p6752
S'3050'
p6753
tp6754
a(S'MPI_Allreduce()'
p6755
S'3051'
p6756
tp6757
a(S'MPI_Allreduce()'
p6758
S'3052'
p6759
tp6760
a(S'MPI_Allreduce()'
p6761
S'3056'
p6762
tp6763
a(S'MPI_Allreduce()'
p6764
S'3057'
p6765
tp6766
a(S'MPI_Allreduce()'
p6767
S'3058'
p6768
tp6769
a(S'MPI_Alltoall()'
p6770
S'3145'
p6771
tp6772
a(S'MPI_Type_contiguous()'
p6773
S'3162'
p6774
tp6775
a(S'MPI_Type_commit()'
p6776
S'3163'
p6777
tp6778
a(S'MPI_Alltoallv()'
p6779
S'3166'
p6780
tp6781
a(S'MPI_Barrier()'
p6782
S'3171'
p6783
tp6784
a(S'MPI_Barrier()'
p6785
S'3182'
p6786
tp6787
a(S'MPI_Barrier()'
p6788
S'3196'
p6789
tp6790
a(S'MPI_Barrier()'
p6791
S'3208'
p6792
tp6793
a(S'MPI_Barrier()'
p6794
S'3222'
p6795
tp6796
a(S'MPI_Barrier()'
p6797
S'3251'
p6798
tp6799
a(S'MPI_Barrier()'
p6800
S'3304'
p6801
tp6802
a(S'MPI_Barrier()'
p6803
S'3315'
p6804
tp6805
a(S'MPI_Barrier()'
p6806
S'3327'
p6807
tp6808
a(S'MPI_Alltoall()'
p6809
S'3332'
p6810
tp6811
a(S'MPI_Alltoallv()'
p6812
S'3346'
p6813
tp6814
a(S'MPI_Barrier()'
p6815
S'3360'
p6816
tp6817
a(S'MPI_Barrier()'
p6818
S'3447'
p6819
tp6820
a(S'MPI_Alltoall()'
p6821
S'3504'
p6822
tp6823
a(S'MPI_Alltoallv()'
p6824
S'3518'
p6825
tp6826
a(S'MPI_Barrier()'
p6827
S'3527'
p6828
tp6829
a(S'MPI_Alltoall()'
p6830
S'3544'
p6831
tp6832
a(S'MPI_Alltoallv()'
p6833
S'3554'
p6834
tp6835
a(S'MPI_Barrier()'
p6836
S'3558'
p6837
tp6838
a(S'MPI_Barrier()'
p6839
S'3572'
p6840
tp6841
a(S'MPI_Allreduce()'
p6842
S'3597'
p6843
tp6844
a(S'MPI_Allreduce()'
p6845
S'3598'
p6846
tp6847
a(S'MPI_Allreduce()'
p6848
S'3599'
p6849
tp6850
a(S'MPI_Comm_size()'
p6851
S'3615'
p6852
tp6853
a(S'MPI_Comm_rank()'
p6854
S'3616'
p6855
tp6856
a(S'MPI_Alltoall()'
p6857
S'3655'
p6858
tp6859
a(S'MPI_Type_contiguous()'
p6860
S'3672'
p6861
tp6862
a(S'MPI_Type_commit()'
p6863
S'3673'
p6864
tp6865
a(S'MPI_Alltoallv()'
p6866
S'3676'
p6867
tp6868
a(S'MPI_Alltoall()'
p6869
S'3743'
p6870
tp6871
a(S'MPI_Barrier()'
p6872
S'3780'
p6873
tp6874
a(S'MPI_Alltoallv()'
p6875
S'3794'
p6876
tp6877
a(S'MPI_Comm_rank()'
p6878
S'4214'
p6879
tp6880
a(S'MPI_Comm_size()'
p6881
S'4215'
p6882
tp6883
a(S'MPI_Barrier()'
p6884
S'4239'
p6885
tp6886
a(S'MPI_Barrier()'
p6887
S'4259'
p6888
tp6889
a(S'MPI_Scan()'
p6890
S'4302'
p6891
tp6892
a(S'MPI_Barrier()'
p6893
S'4335'
p6894
tp6895
a(S'MPI_Barrier()'
p6896
S'4348'
p6897
tp6898
a(S'MPI_Allreduce()'
p6899
S'4361'
p6900
tp6901
a(S'MPI_Barrier()'
p6902
S'4383'
p6903
tp6904
a(S'MPI_Barrier()'
p6905
S'4401'
p6906
tp6907
a(S'MPI_Alltoall()'
p6908
S'4410'
p6909
tp6910
a(S'MPI_Type_contiguous()'
p6911
S'4421'
p6912
tp6913
a(S'MPI_Type_commit()'
p6914
S'4422'
p6915
tp6916
a(S'MPI_Alltoallv()'
p6917
S'4423'
p6918
tp6919
a(S'MPI_Barrier()'
p6920
S'4438'
p6921
tp6922
a(S'MPI_Alltoallv()'
p6923
S'4449'
p6924
tp6925
a(S'MPI_Barrier()'
p6926
S'4464'
p6927
tp6928
a(S'MPI_Barrier()'
p6929
S'4487'
p6930
tp6931
a(S'MPI_Alltoall()'
p6932
S'4509'
p6933
tp6934
a(S'MPI_Alltoallv()'
p6935
S'4525'
p6936
tp6937
a(S'MPI_Barrier()'
p6938
S'4569'
p6939
tp6940
a(S'MPI_Alltoall()'
p6941
S'4590'
p6942
tp6943
a(S'MPI_Alltoallv()'
p6944
S'4600'
p6945
tp6946
a(S'MPI_Alltoallv()'
p6947
S'4608'
p6948
tp6949
a(S'MPI_Barrier()'
p6950
S'4636'
p6951
tp6952
a(S'MPI_Comm_rank()'
p6953
S'4651'
p6954
tp6955
a(S'MPI_Comm_size()'
p6956
S'4652'
p6957
tp6958
a(S'MPI_Barrier()'
p6959
S'4740'
p6960
tp6961
a(S'MPI_Barrier()'
p6962
S'4743'
p6963
tp6964
a(S'MPI_Barrier()'
p6965
S'4814'
p6966
tp6967
a(S'MPI_Barrier()'
p6968
S'4822'
p6969
tp6970
a(S'MPI_Barrier()'
p6971
S'4840'
p6972
tp6973
a(S'MPI_Barrier()'
p6974
S'4849'
p6975
tp6976
a(S'MPI_Barrier()'
p6977
S'4862'
p6978
tp6979
a(S'MPI_Barrier()'
p6980
S'4887'
p6981
tp6982
a(S'MPI_Barrier()'
p6983
S'4892'
p6984
tp6985
asS'deann-askit-wrapper/rkdtsrc/pcltree/test.cpp'
p6986
(lp6987
(S'MPI_Comm_rank()'
p6988
S'81'
p6989
tp6990
a(S'MPI_Comm_size()'
p6991
S'82'
p6992
tp6993
a(S'MPI_Init()'
p6994
S'216'
p6995
tp6996
a(S'MPI_Comm_rank()'
p6997
S'218'
p6998
tp6999
a(S'MPI_Comm_size()'
p7000
S'219'
p7001
tp7002
a(S'MPI_Get_processor_name()'
p7003
S'220'
p7004
tp7005
a(S'MPI_Barrier()'
p7006
S'221'
p7007
tp7008
a(S'MPI_Barrier()'
p7009
S'273'
p7010
tp7011
a(S'MPI_Barrier()'
p7012
S'285'
p7013
tp7014
a(S'MPI_Barrier()'
p7015
S'299'
p7016
tp7017
a(S'MPI_Barrier()'
p7018
S'306'
p7019
tp7020
a(S'MPI_Barrier()'
p7021
S'321'
p7022
tp7023
a(S'MPI_Barrier()'
p7024
S'343'
p7025
tp7026
a(S'MPI_Barrier()'
p7027
S'349'
p7028
tp7029
a(S'MPI_Barrier()'
p7030
S'351'
p7031
tp7032
a(S'MPI_Barrier()'
p7033
S'361'
p7034
tp7035
a(S'MPI_Barrier()'
p7036
S'369'
p7037
tp7038
a(S'MPI_Barrier()'
p7039
S'382'
p7040
tp7041
a(S'MPI_Barrier()'
p7042
S'389'
p7043
tp7044
a(S'MPI_Barrier()'
p7045
S'402'
p7046
tp7047
a(S'MPI_Finalize()'
p7048
S'434'
p7049
tp7050
asS'deann-askit-wrapper/rkdtsrc/include/repartition/repartition.h'
p7051
(lp7052
(S'MPI_Comm_size()'
p7053
S'44'
p7054
tp7055
a(S'MPI_Comm_rank()'
p7056
S'45'
p7057
tp7058
asS'deann-askit-wrapper/askit_release/treecode/src/askit_utils.cpp'
p7059
(lp7060
(S'MPI_Comm_rank()'
p7061
S'222'
p7062
tp7063
a(S'MPI_Scan()'
p7064
S'257'
p7065
tp7066
a(S'MPI_Allreduce()'
p7067
S'294'
p7068
tp7069
a(S'MPI_Comm_size()'
p7070
S'361'
p7071
tp7072
a(S'MPI_Comm_rank()'
p7073
S'362'
p7074
tp7075
a(S'MPI_Scan()'
p7076
S'372'
p7077
tp7078
a(S'MPI_Allgatherv()'
p7079
S'427'
p7080
tp7081
asS'deann-askit-wrapper/rkdtsrc/examples/lsh_qNEr.cpp'
p7082
(lp7083
(S'MPI_Init()'
p7084
S'24'
p7085
tp7086
a(S'MPI_Comm_rank()'
p7087
S'42'
p7088
tp7089
a(S'MPI_Comm_size()'
p7090
S'43'
p7091
tp7092
a(S'MPI_Allreduce()'
p7093
S'63'
p7094
tp7095
a(S'MPI_Scan()'
p7096
S'64'
p7097
tp7098
a(S'MPI_Allreduce()'
p7099
S'65'
p7100
tp7101
a(S'MPI_Barrier()'
p7102
S'99'
p7103
tp7104
a(S'MPI_Barrier()'
p7105
S'105'
p7106
tp7107
a(S'MPI_Finalize()'
p7108
S'111'
p7109
tp7110
asS'deann-askit-wrapper/rkdtsrc/binTree/gatherTree.cpp'
p7111
(lp7112
(S'MPI_Comm_size()'
p7113
S'23'
p7114
tp7115
a(S'MPI_Comm_rank()'
p7116
S'24'
p7117
tp7118
a(S'MPI_Comm_rank()'
p7119
S'40'
p7120
tp7121
a(S'MPI_Gather()'
p7122
S'57'
p7123
tp7124
a(S'MPI_Gatherv()'
p7125
S'62'
p7126
tp7127
a(S'MPI_Barrier()'
p7128
S'65'
p7129
tp7130
a(S'MPI_Bcast()'
p7131
S'74'
p7132
tp7133
a(S'MPI_Comm_rank()'
p7134
S'159'
p7135
tp7136
a(S'MPI_Comm_size()'
p7137
S'231'
p7138
tp7139
a(S'MPI_Comm_rank()'
p7140
S'232'
p7141
tp7142
a(S'MPI_Barrier()'
p7143
S'311'
p7144
tp7145
asS'deann-askit-wrapper/rkdtsrc/direct_knn/test_lowmem.cpp'
p7146
(lp7147
(S'MPI_Init()'
p7148
S'41'
p7149
tp7150
a(S'MPI_Finalize()'
p7151
S'82'
p7152
tp7153
asS'deann-askit-wrapper/rkdtsrc/direct_knn/test_distance.cpp'
p7154
(lp7155
(S'MPI_Init()'
p7156
S'43'
p7157
tp7158
a(S'MPI_Finalize()'
p7159
S'81'
p7160
tp7161
asS'deann-askit-wrapper/rkdtsrc/generator/sphere.cpp'
p7162
(lp7163
(S'MPI_Comm_rank()'
p7164
S'38'
p7165
tp7166
a(S'MPI_Comm_size()'
p7167
S'39'
p7168
tp7169
a(S'MPI_Send()'
p7170
S'78'
p7171
tp7172
a(S'MPI_Recv()'
p7173
S'82'
p7174
tp7175
asS'deann-askit-wrapper/askit_release/treecode/deprecated/test_let_treecode.cpp'
p7176
(lp7177
(S'MPI_Init()'
p7178
S'23'
p7179
tp7180
a(S'MPI_Comm_rank()'
p7181
S'26'
p7182
tp7183
a(S'MPI_Comm_size()'
p7184
S'27'
p7185
tp7186
a(S'MPI_Allreduce()'
p7187
S'51'
p7188
tp7189
a(S'MPI_Scan()'
p7190
S'52'
p7191
tp7192
a(S'MPI_Finalize()'
p7193
S'130'
p7194
tp7195
asS'deann-askit-wrapper/rkdtsrc/generator/normal.cpp'
p7196
(lp7197
(S'MPI_Comm_rank()'
p7198
S'13'
p7199
tp7200
a(S'MPI_Comm_size()'
p7201
S'14'
p7202
tp7203
a(S'MPI_Comm_rank()'
p7204
S'54'
p7205
tp7206
a(S'MPI_Comm_size()'
p7207
S'55'
p7208
tp7209
asS'deann-askit-wrapper/askit_release/treecode/src/askit_alg_impl.hpp'
p7210
(lp7211
(S'MPI_Comm_rank()'
p7212
S'88'
p7213
tp7214
a(S'MPI_Barrier()'
p7215
S'156'
p7216
tp7217
a(S'MPI_Comm_size()'
p7218
S'193'
p7219
tp7220
a(S'MPI_Barrier()'
p7221
S'195'
p7222
tp7223
a(S'MPI_Barrier()'
p7224
S'254'
p7225
tp7226
a(S'MPI_Barrier()'
p7227
S'298'
p7228
tp7229
a(S'MPI_Barrier()'
p7230
S'307'
p7231
tp7232
a(S'MPI_Barrier()'
p7233
S'321'
p7234
tp7235
a(S'MPI_Barrier()'
p7236
S'330'
p7237
tp7238
a(S'MPI_Barrier()'
p7239
S'369'
p7240
tp7241
a(S'MPI_Barrier()'
p7242
S'587'
p7243
tp7244
a(S'MPI_Comm_rank()'
p7245
S'606'
p7246
tp7247
a(S'MPI_Comm_size()'
p7248
S'607'
p7249
tp7250
a(S'MPI_Barrier()'
p7251
S'634'
p7252
tp7253
a(S'MPI_Barrier()'
p7254
S'704'
p7255
tp7256
a(S'MPI_Comm_rank()'
p7257
S'742'
p7258
tp7259
a(S'MPI_Comm_rank()'
p7260
S'900'
p7261
tp7262
a(S'MPI_Comm_rank()'
p7263
S'1413'
p7264
tp7265
a(S'MPI_Comm_size()'
p7266
S'1415'
p7267
tp7268
a(S'MPI_Allreduce()'
p7269
S'1810'
p7270
tp7271
a(S'MPI_Comm_rank()'
p7272
S'2024'
p7273
tp7274
a(S'MPI_Comm_size()'
p7275
S'2026'
p7276
tp7277
a(S'MPI_Comm_size()'
p7278
S'2235'
p7279
tp7280
a(S'MPI_Comm_size()'
p7281
S'2256'
p7282
tp7283
a(S'MPI_Comm_rank()'
p7284
S'2276'
p7285
tp7286
a(S'MPI_Comm_size()'
p7287
S'2277'
p7288
tp7289
a(S'MPI_Bcast()'
p7290
S'2537'
p7291
tp7292
a(S'MPI_Comm_rank()'
p7293
S'2703'
p7294
tp7295
a(S'MPI_Comm_size()'
p7296
S'2704'
p7297
tp7298
a(S'MPI_Comm_rank()'
p7299
S'3028'
p7300
tp7301
a(S'MPI_Comm_size()'
p7302
S'3141'
p7303
tp7304
a(S'MPI_Barrier()'
p7305
S'3177'
p7306
tp7307
a(S'MPI_Barrier()'
p7308
S'3224'
p7309
tp7310
a(S'MPI_Barrier()'
p7311
S'3240'
p7312
tp7313
a(S'MPI_Barrier()'
p7314
S'3271'
p7315
tp7316
a(S'MPI_Barrier()'
p7317
S'3338'
p7318
tp7319
a(S'MPI_Comm_size()'
p7320
S'3384'
p7321
tp7322
a(S'MPI_Barrier()'
p7323
S'3387'
p7324
tp7325
a(S'MPI_Barrier()'
p7326
S'3561'
p7327
tp7328
a(S'MPI_Barrier()'
p7329
S'3632'
p7330
tp7331
a(S'MPI_Reduce()'
p7332
S'3635'
p7333
tp7334
a(S'X_MPI_DOUBLE()'
p7335
S'3636'
p7336
tp7337
a(S'MPI_Barrier()'
p7338
S'3638'
p7339
tp7340
a(S'MPI_Comm_size()'
p7341
S'3663'
p7342
tp7343
a(S'MPI_Barrier()'
p7344
S'3670'
p7345
tp7346
a(S'MPI_Barrier()'
p7347
S'3726'
p7348
tp7349
a(S'MPI_Type_contiguous()'
p7350
S'3729'
p7351
tp7352
a(S'MPI_Type_commit()'
p7353
S'3730'
p7354
tp7355
a(S'MPI_Gatherv()'
p7356
S'3731'
p7357
tp7358
a(S'MPI_Barrier()'
p7359
S'3735'
p7360
tp7361
a(S'MPI_Comm_size()'
p7362
S'3766'
p7363
tp7364
a(S'MPI_Barrier()'
p7365
S'3859'
p7366
tp7367
a(S'MPI_Type_contiguous()'
p7368
S'3862'
p7369
tp7370
a(S'MPI_Type_commit()'
p7371
S'3863'
p7372
tp7373
a(S'MPI_Gatherv()'
p7374
S'3864'
p7375
tp7376
a(S'MPI_Barrier()'
p7377
S'3868'
p7378
tp7379
a(S'MPI_Comm_size()'
p7380
S'3894'
p7381
tp7382
a(S'MPI_Barrier()'
p7383
S'3917'
p7384
tp7385
a(S'MPI_Type_contiguous()'
p7386
S'3920'
p7387
tp7388
a(S'MPI_Type_commit()'
p7389
S'3921'
p7390
tp7391
a(S'MPI_Gatherv()'
p7392
S'3923'
p7393
tp7394
a(S'MPI_Barrier()'
p7395
S'3927'
p7396
tp7397
asS'deann-askit-wrapper/askit_release/treecode/src/askit_distributed_main.cpp'
p7398
(lp7399
(S'MPI_Comm_rank()'
p7400
S'131'
p7401
tp7402
a(S'MPI_Comm_size()'
p7403
S'132'
p7404
tp7405
a(S'MPI_Reduce()'
p7406
S'189'
p7407
tp7408
a(S'X_MPI_DOUBLE()'
p7409
S'190'
p7410
tp7411
a(S'MPI_Reduce()'
p7412
S'193'
p7413
tp7414
a(S'X_MPI_DOUBLE()'
p7415
S'194'
p7416
tp7417
a(S'MPI_Barrier()'
p7418
S'304'
p7419
tp7420
a(S'MPI_Comm_rank()'
p7421
S'340'
p7422
tp7423
a(S'MPI_Comm_size()'
p7424
S'341'
p7425
tp7426
a(S'MPI_Reduce()'
p7427
S'447'
p7428
tp7429
a(S'X_MPI_INT()'
p7430
S'448'
p7431
tp7432
a(S'MPI_Reduce()'
p7433
S'450'
p7434
tp7435
a(S'X_MPI_DOUBLE()'
p7436
S'451'
p7437
tp7438
a(S'MPI_Reduce()'
p7439
S'453'
p7440
tp7441
a(S'X_MPI_INT()'
p7442
S'454'
p7443
tp7444
a(S'MPI_Reduce()'
p7445
S'456'
p7446
tp7447
a(S'X_MPI_INT()'
p7448
S'457'
p7449
tp7450
a(S'MPI_Reduce()'
p7451
S'459'
p7452
tp7453
a(S'X_MPI_INT()'
p7454
S'460'
p7455
tp7456
a(S'MPI_Barrier()'
p7457
S'477'
p7458
tp7459
a(S'MPI_Reduce()'
p7460
S'479'
p7461
tp7462
a(S'X_MPI_LONG()'
p7463
S'480'
p7464
tp7465
a(S'MPI_Reduce()'
p7466
S'482'
p7467
tp7468
a(S'X_MPI_LONG()'
p7469
S'483'
p7470
tp7471
a(S'MPI_Reduce()'
p7472
S'485'
p7473
tp7474
a(S'X_MPI_LONG()'
p7475
S'486'
p7476
tp7477
a(S'MPI_Reduce()'
p7478
S'488'
p7479
tp7480
a(S'X_MPI_MAX()'
p7481
S'489'
p7482
tp7483
a(S'MPI_Reduce()'
p7484
S'491'
p7485
tp7486
a(S'X_MPI_MIN()'
p7487
S'492'
p7488
tp7489
a(S'MPI_Reduce()'
p7490
S'494'
p7491
tp7492
a(S'X_MPI_LONG()'
p7493
S'495'
p7494
tp7495
a(S'MPI_Reduce()'
p7496
S'497'
p7497
tp7498
a(S'X_MPI_LONG()'
p7499
S'498'
p7500
tp7501
a(S'MPI_Barrier()'
p7502
S'500'
p7503
tp7504
a(S'MPI_Reduce()'
p7505
S'553'
p7506
tp7507
a(S'MPI_Reduce()'
p7508
S'555'
p7509
tp7510
a(S'MPI_Reduce()'
p7511
S'557'
p7512
tp7513
a(S'MPI_Reduce()'
p7514
S'559'
p7515
tp7516
a(S'MPI_Reduce()'
p7517
S'561'
p7518
tp7519
a(S'MPI_Reduce()'
p7520
S'563'
p7521
tp7522
a(S'MPI_Reduce()'
p7523
S'565'
p7524
tp7525
a(S'MPI_Reduce()'
p7526
S'567'
p7527
tp7528
a(S'MPI_Reduce()'
p7529
S'569'
p7530
tp7531
a(S'MPI_Reduce()'
p7532
S'571'
p7533
tp7534
a(S'MPI_Reduce()'
p7535
S'573'
p7536
tp7537
a(S'MPI_Reduce()'
p7538
S'575'
p7539
tp7540
a(S'MPI_Reduce()'
p7541
S'577'
p7542
tp7543
a(S'MPI_Reduce()'
p7544
S'579'
p7545
tp7546
a(S'MPI_Reduce()'
p7547
S'581'
p7548
tp7549
a(S'MPI_Reduce()'
p7550
S'583'
p7551
tp7552
a(S'MPI_Reduce()'
p7553
S'585'
p7554
tp7555
a(S'MPI_Reduce()'
p7556
S'587'
p7557
tp7558
a(S'MPI_Reduce()'
p7559
S'589'
p7560
tp7561
a(S'MPI_Reduce()'
p7562
S'591'
p7563
tp7564
a(S'MPI_Reduce()'
p7565
S'593'
p7566
tp7567
a(S'MPI_Reduce()'
p7568
S'596'
p7569
tp7570
a(S'MPI_Reduce()'
p7571
S'598'
p7572
tp7573
a(S'MPI_Reduce()'
p7574
S'600'
p7575
tp7576
a(S'MPI_Reduce()'
p7577
S'602'
p7578
tp7579
a(S'MPI_Reduce()'
p7580
S'605'
p7581
tp7582
a(S'MPI_Reduce()'
p7583
S'607'
p7584
tp7585
a(S'MPI_Reduce()'
p7586
S'609'
p7587
tp7588
a(S'MPI_Reduce()'
p7589
S'611'
p7590
tp7591
a(S'MPI_Reduce()'
p7592
S'613'
p7593
tp7594
a(S'MPI_Reduce()'
p7595
S'616'
p7596
tp7597
a(S'MPI_Reduce()'
p7598
S'619'
p7599
tp7600
a(S'X_MPI_DOUBLE()'
p7601
S'620'
p7602
tp7603
a(S'MPI_Reduce()'
p7604
S'621'
p7605
tp7606
a(S'X_MPI_DOUBLE()'
p7607
S'622'
p7608
tp7609
a(S'MPI_Comm_rank()'
p7610
S'916'
p7611
tp7612
a(S'MPI_Comm_size()'
p7613
S'917'
p7614
tp7615
a(S'MPI_Allgather()'
p7616
S'960'
p7617
tp7618
a(S'X_MPI_INT()'
p7619
S'961'
p7620
tp7621
a(S'MPI_Barrier()'
p7622
S'1007'
p7623
tp7624
a(S'MPI_Barrier()'
p7625
S'1013'
p7626
tp7627
a(S'MPI_Barrier()'
p7628
S'1024'
p7629
tp7630
a(S'MPI_Barrier()'
p7631
S'1030'
p7632
tp7633
a(S'MPI_Barrier()'
p7634
S'1035'
p7635
tp7636
a(S'MPI_Comm_rank()'
p7637
S'1065'
p7638
tp7639
a(S'MPI_Comm_size()'
p7640
S'1066'
p7641
tp7642
a(S'MPI_Allgather()'
p7643
S'1469'
p7644
tp7645
a(S'MPI_Allgather()'
p7646
S'1559'
p7647
tp7648
a(S'X_MPI_INT()'
p7649
S'1560'
p7650
tp7651
a(S'MPI_Barrier()'
p7652
S'1573'
p7653
tp7654
a(S'MPI_Allgather()'
p7655
S'1649'
p7656
tp7657
a(S'X_MPI_INT()'
p7658
S'1650'
p7659
tp7660
a(S'MPI_Barrier()'
p7661
S'1663'
p7662
tp7663
asS'deann-askit-wrapper/rkdtsrc/pcltree/mpitree.cpp'
p7664
(lp7665
(S'MPI_Comm_rank()'
p7666
S'28'
p7667
tp7668
a(S'MPI_Comm_size()'
p7669
S'29'
p7670
tp7671
a(S'MPI_Allreduce()'
p7672
S'52'
p7673
tp7674
a(S'MPI_Barrier()'
p7675
S'71'
p7676
tp7677
a(S'MPI_Barrier()'
p7678
S'76'
p7679
tp7680
a(S'MPI_Comm_size()'
p7681
S'78'
p7682
tp7683
a(S'MPI_Comm_rank()'
p7684
S'79'
p7685
tp7686
a(S'MPI_Allgather()'
p7687
S'175'
p7688
tp7689
a(S'MPI_Comm_size()'
p7690
S'226'
p7691
tp7692
a(S'MPI_Comm_size()'
p7693
S'268'
p7694
tp7695
a(S'MPI_Comm_rank()'
p7696
S'269'
p7697
tp7698
a(S'MPI_Comm_size()'
p7699
S'278'
p7700
tp7701
a(S'MPI_Comm_rank()'
p7702
S'279'
p7703
tp7704
a(S'MPI_Allreduce()'
p7705
S'280'
p7706
tp7707
a(S'MPI_Barrier()'
p7708
S'382'
p7709
tp7710
a(S'MPI_Comm_size()'
p7711
S'402'
p7712
tp7713
a(S'MPI_Comm_rank()'
p7714
S'403'
p7715
tp7716
a(S'MPI_Comm_size()'
p7717
S'414'
p7718
tp7719
a(S'MPI_Comm_rank()'
p7720
S'415'
p7721
tp7722
a(S'MPI_Allreduce()'
p7723
S'416'
p7724
tp7725
a(S'MPI_Barrier()'
p7726
S'531'
p7727
tp7728
a(S'MPI_Comm_size()'
p7729
S'547'
p7730
tp7731
a(S'MPI_Comm_rank()'
p7732
S'548'
p7733
tp7734
a(S'MPI_Comm_size()'
p7735
S'551'
p7736
tp7737
a(S'MPI_Comm_rank()'
p7738
S'552'
p7739
tp7740
a(S'MPI_Barrier()'
p7741
S'648'
p7742
tp7743
asS'deann-askit-wrapper/rkdtsrc/direct_knn/direct_knn.cpp'
p7744
(lp7745
(S'MPI_Comm_size()'
p7746
S'991'
p7747
tp7748
a(S'MPI_Comm_rank()'
p7749
S'992'
p7750
tp7751
a(S'MPI_Allreduce()'
p7752
S'998'
p7753
tp7754
a(S'MPI_Isend()'
p7755
S'1010'
p7756
tp7757
a(S'MPI_Irecv()'
p7758
S'1011'
p7759
tp7760
a(S'MPI_Isend()'
p7761
S'1012'
p7762
tp7763
a(S'MPI_Irecv()'
p7764
S'1013'
p7765
tp7766
a(S'MPI_Wait()'
p7767
S'1043'
p7768
tp7769
a(S'MPI_Wait()'
p7770
S'1044'
p7771
tp7772
a(S'MPI_Wait()'
p7773
S'1045'
p7774
tp7775
a(S'MPI_Wait()'
p7776
S'1046'
p7777
tp7778
a(S'MPI_Get_count()'
p7779
S'1048'
p7780
tp7781
a(S'MPI_Get_count()'
p7782
S'1049'
p7783
tp7784
a(S'MPI_Comm_size()'
p7785
S'1116'
p7786
tp7787
a(S'MPI_Comm_rank()'
p7788
S'1117'
p7789
tp7790
a(S'MPI_Allreduce()'
p7791
S'1123'
p7792
tp7793
a(S'MPI_Isend()'
p7794
S'1135'
p7795
tp7796
a(S'MPI_Irecv()'
p7797
S'1136'
p7798
tp7799
a(S'MPI_Isend()'
p7800
S'1137'
p7801
tp7802
a(S'MPI_Irecv()'
p7803
S'1138'
p7804
tp7805
a(S'MPI_Wait()'
p7806
S'1158'
p7807
tp7808
a(S'MPI_Wait()'
p7809
S'1159'
p7810
tp7811
a(S'MPI_Wait()'
p7812
S'1160'
p7813
tp7814
a(S'MPI_Wait()'
p7815
S'1161'
p7816
tp7817
a(S'MPI_Get_count()'
p7818
S'1163'
p7819
tp7820
a(S'MPI_Get_count()'
p7821
S'1164'
p7822
tp7823
a(S'MPI_Comm_size()'
p7824
S'1206'
p7825
tp7826
a(S'MPI_Comm_rank()'
p7827
S'1207'
p7828
tp7829
a(S'MPI_Allreduce()'
p7830
S'1213'
p7831
tp7832
a(S'MPI_Isend()'
p7833
S'1225'
p7834
tp7835
a(S'MPI_Irecv()'
p7836
S'1226'
p7837
tp7838
a(S'MPI_Isend()'
p7839
S'1227'
p7840
tp7841
a(S'MPI_Irecv()'
p7842
S'1228'
p7843
tp7844
a(S'MPI_Wait()'
p7845
S'1248'
p7846
tp7847
a(S'MPI_Wait()'
p7848
S'1249'
p7849
tp7850
a(S'MPI_Wait()'
p7851
S'1250'
p7852
tp7853
a(S'MPI_Wait()'
p7854
S'1251'
p7855
tp7856
a(S'MPI_Get_count()'
p7857
S'1253'
p7858
tp7859
a(S'MPI_Get_count()'
p7860
S'1254'
p7861
tp7862
a(S'MPI_Comm_size()'
p7863
S'1298'
p7864
tp7865
a(S'MPI_Comm_rank()'
p7866
S'1299'
p7867
tp7868
a(S'MPI_Allreduce()'
p7869
S'1305'
p7870
tp7871
a(S'MPI_Isend()'
p7872
S'1317'
p7873
tp7874
a(S'MPI_Irecv()'
p7875
S'1318'
p7876
tp7877
a(S'MPI_Isend()'
p7878
S'1319'
p7879
tp7880
a(S'MPI_Irecv()'
p7881
S'1320'
p7882
tp7883
a(S'MPI_Wait()'
p7884
S'1342'
p7885
tp7886
a(S'MPI_Wait()'
p7887
S'1343'
p7888
tp7889
a(S'MPI_Wait()'
p7890
S'1344'
p7891
tp7892
a(S'MPI_Wait()'
p7893
S'1345'
p7894
tp7895
a(S'MPI_Get_count()'
p7896
S'1347'
p7897
tp7898
a(S'MPI_Get_count()'
p7899
S'1348'
p7900
tp7901
a(S'MPI_Comm_size()'
p7902
S'1393'
p7903
tp7904
a(S'MPI_Comm_rank()'
p7905
S'1394'
p7906
tp7907
a(S'MPI_Allreduce()'
p7908
S'1400'
p7909
tp7910
a(S'MPI_Isend()'
p7911
S'1412'
p7912
tp7913
a(S'MPI_Irecv()'
p7914
S'1413'
p7915
tp7916
a(S'MPI_Isend()'
p7917
S'1414'
p7918
tp7919
a(S'MPI_Irecv()'
p7920
S'1415'
p7921
tp7922
a(S'MPI_Wait()'
p7923
S'1435'
p7924
tp7925
a(S'MPI_Wait()'
p7926
S'1436'
p7927
tp7928
a(S'MPI_Wait()'
p7929
S'1437'
p7930
tp7931
a(S'MPI_Wait()'
p7932
S'1438'
p7933
tp7934
a(S'MPI_Get_count()'
p7935
S'1440'
p7936
tp7937
a(S'MPI_Get_count()'
p7938
S'1441'
p7939
tp7940
a(S'MPI_Comm_size()'
p7941
S'1482'
p7942
tp7943
a(S'MPI_Comm_rank()'
p7944
S'1483'
p7945
tp7946
a(S'MPI_Allreduce()'
p7947
S'1489'
p7948
tp7949
a(S'MPI_Isend()'
p7950
S'1501'
p7951
tp7952
a(S'MPI_Irecv()'
p7953
S'1502'
p7954
tp7955
a(S'MPI_Isend()'
p7956
S'1503'
p7957
tp7958
a(S'MPI_Irecv()'
p7959
S'1504'
p7960
tp7961
a(S'MPI_Wait()'
p7962
S'1524'
p7963
tp7964
a(S'MPI_Wait()'
p7965
S'1525'
p7966
tp7967
a(S'MPI_Wait()'
p7968
S'1526'
p7969
tp7970
a(S'MPI_Wait()'
p7971
S'1527'
p7972
tp7973
a(S'MPI_Get_count()'
p7974
S'1529'
p7975
tp7976
a(S'MPI_Get_count()'
p7977
S'1530'
p7978
tp7979
a(S'MPI_Comm_rank()'
p7980
S'1558'
p7981
tp7982
a(S'MPI_Comm_group()'
p7983
S'1567'
p7984
tp7985
a(S'MPI_Group_incl()'
p7986
S'1569'
p7987
tp7988
a(S'MPI_Comm_create()'
p7989
S'1571'
p7990
tp7991
a(S'MPI_Group_incl()'
p7992
S'1582'
p7993
tp7994
a(S'MPI_Comm_create()'
p7995
S'1584'
p7996
tp7997
a(S'MPI_Comm_rank()'
p7998
S'1597'
p7999
tp8000
a(S'MPI_Comm_size()'
p8001
S'1598'
p8002
tp8003
a(S'MPI_Comm_group()'
p8004
S'1645'
p8005
tp8006
a(S'MPI_Group_incl()'
p8007
S'1648'
p8008
tp8009
a(S'MPI_Comm_create()'
p8010
S'1649'
p8011
tp8012
a(S'MPI_Comm_rank()'
p8013
S'1653'
p8014
tp8015
a(S'MPI_Gather()'
p8016
S'1662'
p8017
tp8018
a(S'MPI_Gatherv()'
p8019
S'1699'
p8020
tp8021
a(S'MPI_Gatherv()'
p8022
S'1700'
p8023
tp8024
a(S'MPI_Comm_free()'
p8025
S'1709'
p8026
tp8027
a(S'MPI_Comm_rank()'
p8028
S'1730'
p8029
tp8030
a(S'MPI_Comm_size()'
p8031
S'1731'
p8032
tp8033
a(S'MPI_Allreduce()'
p8034
S'1733'
p8035
tp8036
a(S'MPI_Allreduce()'
p8037
S'1750'
p8038
tp8039
a(S'MPI_Comm_size()'
p8040
S'1773'
p8041
tp8042
a(S'MPI_Comm_rank()'
p8043
S'1774'
p8044
tp8045
a(S'MPI_Allreduce()'
p8046
S'1783'
p8047
tp8048
a(S'MPI_Allreduce()'
p8049
S'1807'
p8050
tp8051
a(S'MPI_Gather()'
p8052
S'1834'
p8053
tp8054
a(S'MPI_Gatherv()'
p8055
S'1837'
p8056
tp8057
a(S'MPI_Gatherv()'
p8058
S'1838'
p8059
tp8060
a(S'MPI_Comm_rank()'
p8061
S'1870'
p8062
tp8063
a(S'MPI_Comm_size()'
p8064
S'1871'
p8065
tp8066
a(S'MPI_Comm_group()'
p8067
S'1878'
p8068
tp8069
a(S'MPI_Group_incl()'
p8070
S'1890'
p8071
tp8072
a(S'MPI_Comm_create()'
p8073
S'1891'
p8074
tp8075
a(S'MPI_Group_incl()'
p8076
S'1902'
p8077
tp8078
a(S'MPI_Comm_create()'
p8079
S'1903'
p8080
tp8081
a(S'MPI_Comm_free()'
p8082
S'1927'
p8083
tp8084
a(S'MPI_Comm_free()'
p8085
S'1928'
p8086
tp8087
asS'deann-askit-wrapper/rkdtsrc/examples/lsh_smallQ.cpp'
p8088
(lp8089
(S'MPI_Init()'
p8090
S'28'
p8091
tp8092
a(S'MPI_Comm_rank()'
p8093
S'43'
p8094
tp8095
a(S'MPI_Comm_size()'
p8096
S'44'
p8097
tp8098
a(S'MPI_Allreduce()'
p8099
S'65'
p8100
tp8101
a(S'MPI_Scan()'
p8102
S'66'
p8103
tp8104
a(S'MPI_Barrier()'
p8105
S'84'
p8106
tp8107
a(S'MPI_Barrier()'
p8108
S'95'
p8109
tp8110
a(S'MPI_Finalize()'
p8111
S'101'
p8112
tp8113
asS'deann-askit-wrapper/rkdtsrc/direct_knn/test_direct.cpp'
p8114
(lp8115
(S'MPI_Comm_rank()'
p8116
S'53'
p8117
tp8118
a(S'MPI_Comm_size()'
p8119
S'54'
p8120
tp8121
a(S'MPI_Bcast()'
p8122
S'74'
p8123
tp8124
a(S'MPI_Bcast()'
p8125
S'78'
p8126
tp8127
a(S'MPI_Comm_rank()'
p8128
S'86'
p8129
tp8130
a(S'MPI_Bcast()'
p8131
S'105'
p8132
tp8133
a(S'MPI_Bcast()'
p8134
S'109'
p8135
tp8136
a(S'MPI_Comm_rank()'
p8137
S'118'
p8138
tp8139
a(S'MPI_Comm_size()'
p8140
S'119'
p8141
tp8142
a(S'MPI_Bcast()'
p8143
S'143'
p8144
tp8145
a(S'MPI_Bcast()'
p8146
S'147'
p8147
tp8148
a(S'MPI_Comm_rank()'
p8149
S'156'
p8150
tp8151
a(S'MPI_Comm_size()'
p8152
S'157'
p8153
tp8154
a(S'MPI_Bcast()'
p8155
S'176'
p8156
tp8157
a(S'MPI_Bcast()'
p8158
S'180'
p8159
tp8160
a(S'MPI_Init()'
p8161
S'188'
p8162
tp8163
a(S'MPI_Comm_rank()'
p8164
S'201'
p8165
tp8166
a(S'MPI_Comm_size()'
p8167
S'202'
p8168
tp8169
a(S'MPI_Finalize()'
p8170
S'214'
p8171
tp8172
a(S'MPI_Comm_group()'
p8173
S'230'
p8174
tp8175
a(S'MPI_Group_incl()'
p8176
S'232'
p8177
tp8178
a(S'MPI_Comm_create()'
p8179
S'234'
p8180
tp8181
a(S'MPI_Group_incl()'
p8182
S'242'
p8183
tp8184
a(S'MPI_Comm_create()'
p8185
S'245'
p8186
tp8187
a(S'MPI_Bcast()'
p8188
S'270'
p8189
tp8190
a(S'MPI_Bcast()'
p8191
S'282'
p8192
tp8193
a(S'MPI_Comm_free()'
p8194
S'287'
p8195
tp8196
a(S'MPI_Comm_free()'
p8197
S'288'
p8198
tp8199
a(S'MPI_Wtime()'
p8200
S'316'
p8201
tp8202
a(S'MPI_Wtime()'
p8203
S'321'
p8204
tp8205
a(S'MPI_Wtime()'
p8206
S'341'
p8207
tp8208
a(S'MPI_Wtime()'
p8209
S'351'
p8210
tp8211
a(S'MPI_Wtime()'
p8212
S'358'
p8213
tp8214
a(S'MPI_Comm_group()'
p8215
S'370'
p8216
tp8217
a(S'MPI_Group_incl()'
p8218
S'372'
p8219
tp8220
a(S'MPI_Comm_create()'
p8221
S'375'
p8222
tp8223
a(S'MPI_Comm_free()'
p8224
S'380'
p8225
tp8226
a(S'MPI_Comm_group()'
p8227
S'400'
p8228
tp8229
a(S'MPI_Group_incl()'
p8230
S'402'
p8231
tp8232
a(S'MPI_Comm_create()'
p8233
S'405'
p8234
tp8235
a(S'MPI_Comm_rank()'
p8236
S'409'
p8237
tp8238
a(S'MPI_Comm_size()'
p8239
S'410'
p8240
tp8241
a(S'MPI_Allreduce()'
p8242
S'414'
p8243
tp8244
a(S'MPI_Gather()'
p8245
S'444'
p8246
tp8247
a(S'MPI_Gatherv()'
p8248
S'448'
p8249
tp8250
a(S'MPI_Gatherv()'
p8251
S'449'
p8252
tp8253
a(S'MPI_Comm_free()'
p8254
S'470'
p8255
tp8256
a(S'MPI_Wtime()'
p8257
S'485'
p8258
tp8259
a(S'MPI_Finalize()'
p8260
S'550'
p8261
tp8262
a(S'MPI_Comm_rank()'
p8263
S'559'
p8264
tp8265
a(S'MPI_Finalize()'
p8266
S'596'
p8267
tp8268
a(S'MPI_Finalize()'
p8269
S'615'
p8270
tp8271
a(S'MPI_Finalize()'
p8272
S'634'
p8273
tp8274
asS'deann-askit-wrapper/rkdtsrc/metricTree/MTqueryR.cpp'
p8275
(lp8276
(S'MPI_Comm_size()'
p8277
S'26'
p8278
tp8279
a(S'MPI_Comm_rank()'
p8280
S'27'
p8281
tp8282
a(S'MPI_Allreduce()'
p8283
S'35'
p8284
tp8285
a(S'MPI_Comm_size()'
p8286
S'47'
p8287
tp8288
a(S'MPI_Comm_rank()'
p8289
S'48'
p8290
tp8291
a(S'MPI_Allreduce()'
p8292
S'55'
p8293
tp8294
a(S'MPI_Comm_size()'
p8295
S'80'
p8296
tp8297
a(S'MPI_Comm_rank()'
p8298
S'81'
p8299
tp8300
a(S'MPI_Reduce()'
p8301
S'83'
p8302
tp8303
a(S'MPI_Reduce()'
p8304
S'84'
p8305
tp8306
a(S'MPI_Reduce()'
p8307
S'85'
p8308
tp8309
a(S'MPI_Reduce()'
p8310
S'89'
p8311
tp8312
a(S'MPI_Reduce()'
p8313
S'90'
p8314
tp8315
a(S'MPI_Reduce()'
p8316
S'91'
p8317
tp8318
a(S'MPI_Barrier()'
p8319
S'104'
p8320
tp8321
a(S'MPI_Allreduce()'
p8322
S'143'
p8323
tp8324
a(S'MPI_Comm_size()'
p8325
S'154'
p8326
tp8327
a(S'MPI_Comm_rank()'
p8328
S'155'
p8329
tp8330
a(S'MPI_Allreduce()'
p8331
S'162'
p8332
tp8333
a(S'MPI_Comm_size()'
p8334
S'187'
p8335
tp8336
a(S'MPI_Comm_rank()'
p8337
S'188'
p8338
tp8339
a(S'MPI_Reduce()'
p8340
S'190'
p8341
tp8342
a(S'MPI_Reduce()'
p8343
S'191'
p8344
tp8345
a(S'MPI_Reduce()'
p8346
S'192'
p8347
tp8348
a(S'MPI_Reduce()'
p8349
S'196'
p8350
tp8351
a(S'MPI_Reduce()'
p8352
S'197'
p8353
tp8354
a(S'MPI_Reduce()'
p8355
S'198'
p8356
tp8357
a(S'MPI_Barrier()'
p8358
S'211'
p8359
tp8360
a(S'MPI_Allreduce()'
p8361
S'250'
p8362
tp8363
a(S'MPI_Comm_size()'
p8364
S'268'
p8365
tp8366
a(S'MPI_Comm_rank()'
p8367
S'269'
p8368
tp8369
a(S'MPI_Allreduce()'
p8370
S'282'
p8371
tp8372
a(S'MPI_Comm_size()'
p8373
S'310'
p8374
tp8375
a(S'MPI_Comm_rank()'
p8376
S'311'
p8377
tp8378
a(S'MPI_Reduce()'
p8379
S'313'
p8380
tp8381
a(S'MPI_Reduce()'
p8382
S'314'
p8383
tp8384
a(S'MPI_Reduce()'
p8385
S'315'
p8386
tp8387
a(S'MPI_Reduce()'
p8388
S'319'
p8389
tp8390
a(S'MPI_Reduce()'
p8391
S'320'
p8392
tp8393
a(S'MPI_Reduce()'
p8394
S'321'
p8395
tp8396
a(S'MPI_Barrier()'
p8397
S'333'
p8398
tp8399
a(S'MPI_Comm_size()'
p8400
S'351'
p8401
tp8402
a(S'MPI_Comm_rank()'
p8403
S'352'
p8404
tp8405
a(S'MPI_Barrier()'
p8406
S'354'
p8407
tp8408
a(S'MPI_Barrier()'
p8409
S'362'
p8410
tp8411
a(S'MPI_Barrier()'
p8412
S'372'
p8413
tp8414
a(S'MPI_Barrier()'
p8415
S'374'
p8416
tp8417
a(S'MPI_Comm_size()'
p8418
S'380'
p8419
tp8420
a(S'MPI_Comm_rank()'
p8421
S'381'
p8422
tp8423
a(S'MPI_Barrier()'
p8424
S'396'
p8425
tp8426
asS'deann-askit-wrapper/rkdtsrc/binTree/test_mtree.cpp'
p8427
(lp8428
(S'MPI_Init()'
p8429
S'33'
p8430
tp8431
a(S'MPI_Comm_rank()'
p8432
S'36'
p8433
tp8434
a(S'MPI_Comm_size()'
p8435
S'37'
p8436
tp8437
a(S'MPI_Allreduce()'
p8438
S'281'
p8439
tp8440
a(S'MPI_Scan()'
p8441
S'282'
p8442
tp8443
a(S'MPI_Allreduce()'
p8444
S'288'
p8445
tp8446
a(S'MPI_Scan()'
p8447
S'289'
p8448
tp8449
a(S'MPI_Barrier()'
p8450
S'296'
p8451
tp8452
a(S'MPI_Barrier()'
p8453
S'303'
p8454
tp8455
a(S'MPI_Barrier()'
p8456
S'401'
p8457
tp8458
a(S'MPI_Barrier()'
p8459
S'412'
p8460
tp8461
a(S'MPI_Barrier()'
p8462
S'421'
p8463
tp8464
a(S'MPI_Barrier()'
p8465
S'427'
p8466
tp8467
a(S'MPI_Barrier()'
p8468
S'452'
p8469
tp8470
a(S'MPI_Barrier()'
p8471
S'454'
p8472
tp8473
a(S'MPI_Barrier()'
p8474
S'465'
p8475
tp8476
a(S'MPI_Reduce()'
p8477
S'479'
p8478
tp8479
a(S'MPI_Reduce()'
p8480
S'480'
p8481
tp8482
a(S'MPI_Reduce()'
p8483
S'481'
p8484
tp8485
a(S'MPI_Reduce()'
p8486
S'504'
p8487
tp8488
a(S'MPI_Reduce()'
p8489
S'505'
p8490
tp8491
a(S'MPI_Reduce()'
p8492
S'506'
p8493
tp8494
a(S'MPI_Reduce()'
p8495
S'519'
p8496
tp8497
a(S'MPI_Reduce()'
p8498
S'520'
p8499
tp8500
a(S'MPI_Reduce()'
p8501
S'521'
p8502
tp8503
a(S'MPI_Reduce()'
p8504
S'536'
p8505
tp8506
a(S'MPI_Reduce()'
p8507
S'537'
p8508
tp8509
a(S'MPI_Reduce()'
p8510
S'538'
p8511
tp8512
a(S'MPI_Reduce()'
p8513
S'548'
p8514
tp8515
a(S'MPI_Reduce()'
p8516
S'549'
p8517
tp8518
a(S'MPI_Reduce()'
p8519
S'550'
p8520
tp8521
a(S'MPI_Reduce()'
p8522
S'560'
p8523
tp8524
a(S'MPI_Reduce()'
p8525
S'561'
p8526
tp8527
a(S'MPI_Reduce()'
p8528
S'562'
p8529
tp8530
a(S'MPI_Reduce()'
p8531
S'573'
p8532
tp8533
a(S'MPI_Reduce()'
p8534
S'574'
p8535
tp8536
a(S'MPI_Reduce()'
p8537
S'575'
p8538
tp8539
a(S'MPI_Reduce()'
p8540
S'585'
p8541
tp8542
a(S'MPI_Reduce()'
p8543
S'586'
p8544
tp8545
a(S'MPI_Reduce()'
p8546
S'587'
p8547
tp8548
a(S'MPI_Reduce()'
p8549
S'597'
p8550
tp8551
a(S'MPI_Reduce()'
p8552
S'598'
p8553
tp8554
a(S'MPI_Reduce()'
p8555
S'599'
p8556
tp8557
a(S'MPI_Reduce()'
p8558
S'610'
p8559
tp8560
a(S'MPI_Reduce()'
p8561
S'611'
p8562
tp8563
a(S'MPI_Reduce()'
p8564
S'612'
p8565
tp8566
a(S'MPI_Reduce()'
p8567
S'622'
p8568
tp8569
a(S'MPI_Reduce()'
p8570
S'623'
p8571
tp8572
a(S'MPI_Reduce()'
p8573
S'624'
p8574
tp8575
a(S'MPI_Finalize()'
p8576
S'636'
p8577
tp8578
asS'deann-askit-wrapper/rkdtsrc/binTree/test_find_knn_cmd.cpp'
p8579
(lp8580
(S'MPI_Init()'
p8581
S'33'
p8582
tp8583
a(S'MPI_Comm_rank()'
p8584
S'36'
p8585
tp8586
a(S'MPI_Comm_size()'
p8587
S'37'
p8588
tp8589
a(S'MPI_Allreduce()'
p8590
S'128'
p8591
tp8592
a(S'MPI_Scan()'
p8593
S'129'
p8594
tp8595
a(S'MPI_Allreduce()'
p8596
S'154'
p8597
tp8598
a(S'MPI_Scan()'
p8599
S'155'
p8600
tp8601
a(S'MPI_Barrier()'
p8602
S'227'
p8603
tp8604
a(S'MPI_Barrier()'
p8605
S'243'
p8606
tp8607
a(S'MPI_Reduce()'
p8608
S'250'
p8609
tp8610
a(S'MPI_Reduce()'
p8611
S'251'
p8612
tp8613
a(S'MPI_Reduce()'
p8614
S'252'
p8615
tp8616
a(S'MPI_Reduce()'
p8617
S'265'
p8618
tp8619
a(S'MPI_Reduce()'
p8620
S'266'
p8621
tp8622
a(S'MPI_Reduce()'
p8623
S'267'
p8624
tp8625
a(S'MPI_Reduce()'
p8626
S'280'
p8627
tp8628
a(S'MPI_Reduce()'
p8629
S'281'
p8630
tp8631
a(S'MPI_Reduce()'
p8632
S'282'
p8633
tp8634
a(S'MPI_Reduce()'
p8635
S'296'
p8636
tp8637
a(S'MPI_Reduce()'
p8638
S'297'
p8639
tp8640
a(S'MPI_Reduce()'
p8641
S'298'
p8642
tp8643
a(S'MPI_Reduce()'
p8644
S'308'
p8645
tp8646
a(S'MPI_Reduce()'
p8647
S'309'
p8648
tp8649
a(S'MPI_Reduce()'
p8650
S'310'
p8651
tp8652
a(S'MPI_Reduce()'
p8653
S'321'
p8654
tp8655
a(S'MPI_Reduce()'
p8656
S'322'
p8657
tp8658
a(S'MPI_Reduce()'
p8659
S'323'
p8660
tp8661
a(S'MPI_Reduce()'
p8662
S'333'
p8663
tp8664
a(S'MPI_Reduce()'
p8665
S'334'
p8666
tp8667
a(S'MPI_Reduce()'
p8668
S'335'
p8669
tp8670
a(S'MPI_Reduce()'
p8671
S'345'
p8672
tp8673
a(S'MPI_Reduce()'
p8674
S'346'
p8675
tp8676
a(S'MPI_Reduce()'
p8677
S'347'
p8678
tp8679
a(S'MPI_Reduce()'
p8680
S'358'
p8681
tp8682
a(S'MPI_Reduce()'
p8683
S'359'
p8684
tp8685
a(S'MPI_Reduce()'
p8686
S'360'
p8687
tp8688
a(S'MPI_Reduce()'
p8689
S'370'
p8690
tp8691
a(S'MPI_Reduce()'
p8692
S'371'
p8693
tp8694
a(S'MPI_Reduce()'
p8695
S'372'
p8696
tp8697
a(S'MPI_Reduce()'
p8698
S'382'
p8699
tp8700
a(S'MPI_Reduce()'
p8701
S'383'
p8702
tp8703
a(S'MPI_Reduce()'
p8704
S'384'
p8705
tp8706
a(S'MPI_Reduce()'
p8707
S'395'
p8708
tp8709
a(S'MPI_Reduce()'
p8710
S'396'
p8711
tp8712
a(S'MPI_Reduce()'
p8713
S'397'
p8714
tp8715
a(S'MPI_Reduce()'
p8716
S'407'
p8717
tp8718
a(S'MPI_Reduce()'
p8719
S'408'
p8720
tp8721
a(S'MPI_Reduce()'
p8722
S'409'
p8723
tp8724
a(S'MPI_Wtime()'
p8725
S'433'
p8726
tp8727
a(S'MPI_Reduce()'
p8728
S'442'
p8729
tp8730
a(S'MPI_Reduce()'
p8731
S'443'
p8732
tp8733
a(S'MPI_Reduce()'
p8734
S'444'
p8735
tp8736
a(S'MPI_Finalize()'
p8737
S'467'
p8738
tp8739
asS'deann-askit-wrapper/rkdtsrc/parallelIO/test_find_knn.cpp'
p8740
(lp8741
(S'MPI_Comm_rank()'
p8742
S'34'
p8743
tp8744
a(S'MPI_Comm_size()'
p8745
S'35'
p8746
tp8747
a(S'MPI_Barrier()'
p8748
S'49'
p8749
tp8750
a(S'MPI_Init()'
p8751
S'57'
p8752
tp8753
a(S'MPI_Comm_rank()'
p8754
S'60'
p8755
tp8756
a(S'MPI_Comm_size()'
p8757
S'61'
p8758
tp8759
a(S'MPI_Allreduce()'
p8760
S'174'
p8761
tp8762
a(S'MPI_Scan()'
p8763
S'175'
p8764
tp8765
a(S'MPI_Allreduce()'
p8766
S'207'
p8767
tp8768
a(S'MPI_Scan()'
p8769
S'208'
p8770
tp8771
a(S'MPI_Barrier()'
p8772
S'238'
p8773
tp8774
a(S'MPI_Barrier()'
p8775
S'242'
p8776
tp8777
a(S'MPI_Finalize()'
p8778
S'286'
p8779
tp8780
asS'deann-askit-wrapper/rkdtsrc/stTree/test_tree.cpp'
p8781
(lp8782
(S'MPI_Init()'
p8783
S'80'
p8784
tp8785
a(S'MPI_Comm_rank()'
p8786
S'83'
p8787
tp8788
a(S'MPI_Comm_size()'
p8789
S'84'
p8790
tp8791
a(S'MPI_Allreduce()'
p8792
S'164'
p8793
tp8794
a(S'MPI_Allreduce()'
p8795
S'165'
p8796
tp8797
a(S'MPI_Scan()'
p8798
S'166'
p8799
tp8800
a(S'MPI_Scan()'
p8801
S'167'
p8802
tp8803
a(S'MPI_Finalize()'
p8804
S'254'
p8805
tp8806
asS'deann-askit-wrapper/rkdtsrc/parTree/test_newtree.cpp'
p8807
(lp8808
(S'MPI_Init()'
p8809
S'34'
p8810
tp8811
a(S'MPI_Comm_rank()'
p8812
S'37'
p8813
tp8814
a(S'MPI_Comm_size()'
p8815
S'38'
p8816
tp8817
a(S'MPI_Allreduce()'
p8818
S'260'
p8819
tp8820
a(S'MPI_Scan()'
p8821
S'261'
p8822
tp8823
a(S'MPI_Allreduce()'
p8824
S'267'
p8825
tp8826
a(S'MPI_Scan()'
p8827
S'268'
p8828
tp8829
a(S'MPI_Barrier()'
p8830
S'319'
p8831
tp8832
a(S'MPI_Reduce()'
p8833
S'378'
p8834
tp8835
a(S'MPI_Reduce()'
p8836
S'379'
p8837
tp8838
a(S'MPI_Reduce()'
p8839
S'380'
p8840
tp8841
a(S'MPI_Reduce()'
p8842
S'393'
p8843
tp8844
a(S'MPI_Reduce()'
p8845
S'394'
p8846
tp8847
a(S'MPI_Reduce()'
p8848
S'395'
p8849
tp8850
a(S'MPI_Reduce()'
p8851
S'408'
p8852
tp8853
a(S'MPI_Reduce()'
p8854
S'409'
p8855
tp8856
a(S'MPI_Reduce()'
p8857
S'410'
p8858
tp8859
a(S'MPI_Reduce()'
p8860
S'425'
p8861
tp8862
a(S'MPI_Reduce()'
p8863
S'426'
p8864
tp8865
a(S'MPI_Reduce()'
p8866
S'427'
p8867
tp8868
a(S'MPI_Reduce()'
p8869
S'437'
p8870
tp8871
a(S'MPI_Reduce()'
p8872
S'438'
p8873
tp8874
a(S'MPI_Reduce()'
p8875
S'439'
p8876
tp8877
a(S'MPI_Reduce()'
p8878
S'450'
p8879
tp8880
a(S'MPI_Reduce()'
p8881
S'451'
p8882
tp8883
a(S'MPI_Reduce()'
p8884
S'452'
p8885
tp8886
a(S'MPI_Reduce()'
p8887
S'462'
p8888
tp8889
a(S'MPI_Reduce()'
p8890
S'463'
p8891
tp8892
a(S'MPI_Reduce()'
p8893
S'464'
p8894
tp8895
a(S'MPI_Reduce()'
p8896
S'474'
p8897
tp8898
a(S'MPI_Reduce()'
p8899
S'475'
p8900
tp8901
a(S'MPI_Reduce()'
p8902
S'476'
p8903
tp8904
a(S'MPI_Reduce()'
p8905
S'487'
p8906
tp8907
a(S'MPI_Reduce()'
p8908
S'488'
p8909
tp8910
a(S'MPI_Reduce()'
p8911
S'489'
p8912
tp8913
a(S'MPI_Reduce()'
p8914
S'499'
p8915
tp8916
a(S'MPI_Reduce()'
p8917
S'500'
p8918
tp8919
a(S'MPI_Reduce()'
p8920
S'501'
p8921
tp8922
a(S'MPI_Reduce()'
p8923
S'511'
p8924
tp8925
a(S'MPI_Reduce()'
p8926
S'512'
p8927
tp8928
a(S'MPI_Reduce()'
p8929
S'513'
p8930
tp8931
a(S'MPI_Reduce()'
p8932
S'525'
p8933
tp8934
a(S'MPI_Reduce()'
p8935
S'526'
p8936
tp8937
a(S'MPI_Reduce()'
p8938
S'527'
p8939
tp8940
a(S'MPI_Finalize()'
p8941
S'559'
p8942
tp8943
asS'deann-askit-wrapper/rkdtsrc/pcltree/test_pcltree.cpp'
p8944
(lp8945
(S'MPI_Init()'
p8946
S'30'
p8947
tp8948
a(S'MPI_Comm_rank()'
p8949
S'33'
p8950
tp8951
a(S'MPI_Comm_size()'
p8952
S'34'
p8953
tp8954
a(S'MPI_Allreduce()'
p8955
S'246'
p8956
tp8957
a(S'MPI_Scan()'
p8958
S'247'
p8959
tp8960
a(S'MPI_Allreduce()'
p8961
S'253'
p8962
tp8963
a(S'MPI_Scan()'
p8964
S'254'
p8965
tp8966
a(S'MPI_Barrier()'
p8967
S'340'
p8968
tp8969
a(S'MPI_Barrier()'
p8970
S'348'
p8971
tp8972
a(S'MPI_Reduce()'
p8973
S'376'
p8974
tp8975
a(S'MPI_Reduce()'
p8976
S'377'
p8977
tp8978
a(S'MPI_Reduce()'
p8979
S'378'
p8980
tp8981
a(S'MPI_Reduce()'
p8982
S'391'
p8983
tp8984
a(S'MPI_Reduce()'
p8985
S'392'
p8986
tp8987
a(S'MPI_Reduce()'
p8988
S'393'
p8989
tp8990
a(S'MPI_Reduce()'
p8991
S'406'
p8992
tp8993
a(S'MPI_Reduce()'
p8994
S'407'
p8995
tp8996
a(S'MPI_Reduce()'
p8997
S'408'
p8998
tp8999
a(S'MPI_Reduce()'
p9000
S'423'
p9001
tp9002
a(S'MPI_Reduce()'
p9003
S'424'
p9004
tp9005
a(S'MPI_Reduce()'
p9006
S'425'
p9007
tp9008
a(S'MPI_Reduce()'
p9009
S'435'
p9010
tp9011
a(S'MPI_Reduce()'
p9012
S'436'
p9013
tp9014
a(S'MPI_Reduce()'
p9015
S'437'
p9016
tp9017
a(S'MPI_Reduce()'
p9018
S'447'
p9019
tp9020
a(S'MPI_Reduce()'
p9021
S'448'
p9022
tp9023
a(S'MPI_Reduce()'
p9024
S'449'
p9025
tp9026
a(S'MPI_Reduce()'
p9027
S'460'
p9028
tp9029
a(S'MPI_Reduce()'
p9030
S'461'
p9031
tp9032
a(S'MPI_Reduce()'
p9033
S'462'
p9034
tp9035
a(S'MPI_Reduce()'
p9036
S'472'
p9037
tp9038
a(S'MPI_Reduce()'
p9039
S'473'
p9040
tp9041
a(S'MPI_Reduce()'
p9042
S'474'
p9043
tp9044
a(S'MPI_Reduce()'
p9045
S'484'
p9046
tp9047
a(S'MPI_Reduce()'
p9048
S'485'
p9049
tp9050
a(S'MPI_Reduce()'
p9051
S'486'
p9052
tp9053
a(S'MPI_Reduce()'
p9054
S'497'
p9055
tp9056
a(S'MPI_Reduce()'
p9057
S'498'
p9058
tp9059
a(S'MPI_Reduce()'
p9060
S'499'
p9061
tp9062
a(S'MPI_Reduce()'
p9063
S'509'
p9064
tp9065
a(S'MPI_Reduce()'
p9066
S'510'
p9067
tp9068
a(S'MPI_Reduce()'
p9069
S'511'
p9070
tp9071
a(S'MPI_Finalize()'
p9072
S'523'
p9073
tp9074
asS'deann-askit-wrapper/rkdtsrc/parallelIO/test_separate_file.cpp'
p9075
(lp9076
(S'MPI_Comm_size()'
p9077
S'19'
p9078
tp9079
a(S'MPI_Comm_rank()'
p9080
S'20'
p9081
tp9082
a(S'MPI_Scan()'
p9083
S'24'
p9084
tp9085
a(S'MPI_Barrier()'
p9086
S'37'
p9087
tp9088
a(S'MPI_Init()'
p9089
S'62'
p9090
tp9091
a(S'MPI_Comm_rank()'
p9092
S'64'
p9093
tp9094
a(S'MPI_Comm_size()'
p9095
S'65'
p9096
tp9097
a(S'MPI_Finalize()'
p9098
S'125'
p9099
tp9100
asS'deann-askit-wrapper/askit_release/treecode/src/askit_kde_main.cpp'
p9101
(lp9102
(S'MPI_Comm_rank()'
p9103
S'29'
p9104
tp9105
a(S'MPI_Comm_size()'
p9106
S'30'
p9107
tp9108
asS'deann-askit-wrapper/rkdtsrc/repartition/file_io.cpp'
p9109
(lp9110
(S'MPI_Comm_rank()'
p9111
S'174'
p9112
tp9113
a(S'MPI_Comm_size()'
p9114
S'175'
p9115
tp9116
a(S'MPI_Bcast()'
p9117
S'192'
p9118
tp9119
a(S'MPI_Bcast()'
p9120
S'193'
p9121
tp9122
a(S'MPI_Finalize()'
p9123
S'196'
p9124
tp9125
a(S'MPI_Send()'
p9126
S'209'
p9127
tp9128
a(S'MPI_Send()'
p9129
S'210'
p9130
tp9131
a(S'MPI_Recv()'
p9132
S'225'
p9133
tp9134
a(S'MPI_Recv()'
p9135
S'226'
p9136
tp9137
a(S'MPI_Comm_rank()'
p9138
S'241'
p9139
tp9140
a(S'MPI_Comm_size()'
p9141
S'242'
p9142
tp9143
a(S'MPI_File_open()'
p9144
S'249'
p9145
tp9146
a(S'MPI_Error_string()'
p9147
S'253'
p9148
tp9149
a(S'MPI_Finalize()'
p9150
S'255'
p9151
tp9152
a(S'MPI_File_write()'
p9153
S'260'
p9154
tp9155
a(S'MPI_File_write()'
p9156
S'263'
p9157
tp9158
a(S'MPI_File_write()'
p9159
S'265'
p9160
tp9161
a(S'MPI_File_close()'
p9162
S'267'
p9163
tp9164
a(S'MPI_File_open()'
p9165
S'277'
p9166
tp9167
a(S'MPI_Error_string()'
p9168
S'281'
p9169
tp9170
a(S'MPI_Finalize()'
p9171
S'283'
p9172
tp9173
a(S'MPI_File_write()'
p9174
S'290'
p9175
tp9176
a(S'MPI_Recv()'
p9177
S'296'
p9178
tp9179
a(S'MPI_File_write()'
p9180
S'300'
p9181
tp9182
a(S'MPI_File_close()'
p9183
S'303'
p9184
tp9185
a(S'MPI_Send()'
p9186
S'306'
p9187
tp9188
asS'deann-askit-wrapper/askit_release/treecode/src/askit_deann_wrapper.cpp'
p9189
(lp9190
(S'MPI_Comm_rank()'
p9191
S'30'
p9192
tp9193
a(S'MPI_Comm_size()'
p9194
S'31'
p9195
tp9196
as.