ccollections
defaultdict
p0
(c__builtin__
list
p1
tp2
Rp3
S'async-multigrid/src/DMEM_Comm.cpp'
p4
(lp5
(S'MPI_Wtime()'
p6
S'41'
p7
tp8
a(S'MPI_Comm_rank()'
p9
S'88'
p10
tp11
a(S'MPI_Wtime()'
p12
S'105'
p13
tp14
a(S'MPI_Wtime()'
p15
S'116'
p16
tp17
a(S'X_MPI_COMM_WORLD()'
p18
S'122'
p19
tp20
a(S'MPI_Wtime()'
p21
S'130'
p22
tp23
a(S'X_MPI_COMM_WORLD()'
p24
S'136'
p25
tp26
a(S'MPI_Wtime()'
p27
S'148'
p28
tp29
a(S'MPI_Wtime()'
p30
S'175'
p31
tp32
a(S'MPI_Wtime()'
p33
S'222'
p34
tp35
a(S'X_MPI_COMM_WORLD()'
p36
S'228'
p37
tp38
a(S'MPI_Wtime()'
p39
S'241'
p40
tp41
a(S'MPI_Wtime()'
p42
S'252'
p43
tp44
a(S'X_MPI_COMM_WORLD()'
p45
S'258'
p46
tp47
a(S'MPI_Wtime()'
p48
S'276'
p49
tp50
a(S'MPI_Wtime()'
p51
S'309'
p52
tp53
a(S'X_MPI_COMM_WORLD()'
p54
S'315'
p55
tp56
a(S'MPI_Wtime()'
p57
S'333'
p58
tp59
a(S'X_MPI_COMM_WORLD()'
p60
S'339'
p61
tp62
a(S'MPI_Wtime()'
p63
S'357'
p64
tp65
a(S'MPI_Wtime()'
p66
S'370'
p67
tp68
asS'async-multigrid/src/DMEM_Main.cpp'
p69
(lp70
(S'MPI_Wtime()'
p71
S'767'
p72
tp73
a(S'MPI_Finalize()'
p74
S'771'
p75
tp76
a(S'MPI_Wtime()'
p77
S'792'
p78
tp79
a(S'MPI_Wtime()'
p80
S'820'
p81
tp82
a(S'MPI_Finalize()'
p83
S'946'
p84
tp85
asS'async-multigrid/src/DMEM_Smooth.cpp'
p86
(lp87
(S'MPI_Comm_rank()'
p88
S'19'
p89
tp90
a(S'MPI_Comm_size()'
p91
S'20'
p92
tp93
a(S'MPI_Wtime()'
p94
S'58'
p95
tp96
a(S'MPI_Wtime()'
p97
S'79'
p98
tp99
a(S'MPI_Wtime()'
p100
S'100'
p101
tp102
a(S'MPI_Wtime()'
p103
S'170'
p104
tp105
a(S'MPI_Wtime()'
p106
S'174'
p107
tp108
a(S'MPI_Wtime()'
p109
S'181'
p110
tp111
a(S'MPI_Wtime()'
p112
S'188'
p113
tp114
a(S'MPI_Wtime()'
p115
S'197'
p116
tp117
a(S'MPI_Wtime()'
p118
S'208'
p119
tp120
a(S'MPI_Wtime()'
p121
S'224'
p122
tp123
a(S'MPI_Wtime()'
p124
S'228'
p125
tp126
a(S'MPI_Wtime()'
p127
S'234'
p128
tp129
a(S'MPI_Wtime()'
p130
S'237'
p131
tp132
a(S'MPI_Wtime()'
p133
S'253'
p134
tp135
a(S'MPI_Wtime()'
p136
S'265'
p137
tp138
a(S'MPI_Wtime()'
p139
S'275'
p140
tp141
a(S'MPI_Wtime()'
p142
S'281'
p143
tp144
a(S'MPI_Comm_size()'
p145
S'355'
p146
tp147
a(S'MPI_Comm_rank()'
p148
S'356'
p149
tp150
a(S'MPI_Wtime()'
p151
S'383'
p152
tp153
a(S'MPI_Wtime()'
p154
S'394'
p155
tp156
a(S'MPI_Wtime()'
p157
S'429'
p158
tp159
a(S'MPI_Wtime()'
p160
S'438'
p161
tp162
a(S'MPI_Comm_rank()'
p163
S'452'
p164
tp165
a(S'MPI_Wtime()'
p166
S'498'
p167
tp168
a(S'MPI_Wtime()'
p169
S'508'
p170
tp171
a(S'MPI_Wtime()'
p172
S'514'
p173
tp174
a(S'MPI_Comm_rank()'
p175
S'577'
p176
tp177
a(S'MPI_Comm_size()'
p178
S'578'
p179
tp180
a(S'MPI_Wtime()'
p181
S'609'
p182
tp183
a(S'MPI_Wtime()'
p184
S'620'
p185
tp186
a(S'MPI_Wtime()'
p187
S'628'
p188
tp189
asS'async-multigrid/src/SMEM_Main.cpp'
p190
(lp191
(S'MPI_Init()'
p192
S'23'
p193
tp194
a(S'MPI_Comm_rank()'
p195
S'24'
p196
tp197
a(S'MPI_Comm_size()'
p198
S'25'
p199
tp200
a(S'MPI_Finalize()'
p201
S'684'
p202
tp203
a(S'MPI_Finalize()'
p204
S'765'
p205
tp206
asS'async-multigrid/src/DMEM_BuildMatrix.cpp'
p207
(lp208
(S'MPI_Comm_rank()'
p209
S'64'
p210
tp211
a(S'MPI_Comm_size()'
p212
S'65'
p213
tp214
a(S'MPI_Comm_size()'
p215
S'448'
p216
tp217
a(S'MPI_Comm_rank()'
p218
S'449'
p219
tp220
a(S'MPI_Comm_rank()'
p221
S'726'
p222
tp223
a(S'MPI_Comm_size()'
p224
S'727'
p225
tp226
a(S'MPI_Comm_rank()'
p227
S'732'
p228
tp229
a(S'MPI_Comm_size()'
p230
S'733'
p231
tp232
a(S'MPI_Alltoall()'
p233
S'806'
p234
tp235
a(S'X_MPI_INT()'
p236
S'808'
p237
tp238
a(S'X_MPI_INT()'
p239
S'811'
p240
tp241
a(S'MPI_Alltoall()'
p242
S'832'
p243
tp244
a(S'X_MPI_INT()'
p245
S'834'
p246
tp247
a(S'X_MPI_INT()'
p248
S'837'
p249
tp250
a(S'MPI_Alltoallv()'
p251
S'902'
p252
tp253
a(S'X_MPI_INT()'
p254
S'905'
p255
tp256
a(S'X_MPI_INT()'
p257
S'909'
p258
tp259
a(S'MPI_Alltoallv()'
p260
S'912'
p261
tp262
a(S'X_MPI_INT()'
p263
S'915'
p264
tp265
a(S'X_MPI_INT()'
p266
S'919'
p267
tp268
a(S'MPI_Alltoallv()'
p269
S'922'
p270
tp271
a(S'X_MPI_DOUBLE()'
p272
S'925'
p273
tp274
a(S'X_MPI_DOUBLE()'
p275
S'929'
p276
tp277
a(S'MPI_Alltoall()'
p278
S'958'
p279
tp280
a(S'X_MPI_INT()'
p281
S'960'
p282
tp283
a(S'X_MPI_INT()'
p284
S'963'
p285
tp286
a(S'MPI_Comm_rank()'
p287
S'1057'
p288
tp289
a(S'MPI_Comm_size()'
p290
S'1058'
p291
tp292
a(S'MPI_Bcast()'
p293
S'1083'
p294
tp295
a(S'MPI_Finalize()'
p296
S'1086'
p297
tp298
a(S'MPI_Bcast()'
p299
S'1135'
p300
tp301
a(S'MPI_Finalize()'
p302
S'1138'
p303
tp304
a(S'MPI_Comm_rank()'
p305
S'1160'
p306
tp307
a(S'MPI_Comm_size()'
p308
S'1161'
p309
tp310
a(S'MPI_Bcast()'
p311
S'1163'
p312
tp313
a(S'MPI_Bcast()'
p314
S'1179'
p315
tp316
a(S'MPI_Bcast()'
p317
S'1180'
p318
tp319
a(S'MPI_Bcast()'
p320
S'1181'
p321
tp322
a(S'MPI_Scatterv()'
p323
S'1186'
p324
tp325
a(S'X_MPI_INT()'
p326
S'1189'
p327
tp328
a(S'X_MPI_INT()'
p329
S'1192'
p330
tp331
a(S'MPI_Scatter()'
p332
S'1195'
p333
tp334
a(S'X_MPI_INT()'
p335
S'1197'
p336
tp337
a(S'X_MPI_INT()'
p338
S'1200'
p339
tp340
a(S'MPI_Bcast()'
p341
S'1224'
p342
tp343
a(S'MPI_Bcast()'
p344
S'1225'
p345
tp346
a(S'MPI_Scatterv()'
p347
S'1231'
p348
tp349
a(S'MPI_Scatterv()'
p350
S'1233'
p351
tp352
a(S'MPI_Comm_rank()'
p353
S'1457'
p354
tp355
a(S'MPI_Comm_size()'
p356
S'1458'
p357
tp358
a(S'MPI_Comm_rank()'
p359
S'1494'
p360
tp361
a(S'MPI_Comm_size()'
p362
S'1495'
p363
tp364
asS'async-multigrid/src/DMEM_Misc.cpp'
p365
(lp366
(S'MPI_Comm_rank()'
p367
S'10'
p368
tp369
a(S'MPI_Comm_size()'
p370
S'11'
p371
tp372
a(S'MPI_Comm_rank()'
p373
S'56'
p374
tp375
a(S'MPI_Comm_size()'
p376
S'57'
p377
tp378
a(S'MPI_Reduce()'
p379
S'78'
p380
tp381
a(S'MPI_Reduce()'
p382
S'79'
p383
tp384
a(S'MPI_Reduce()'
p385
S'80'
p386
tp387
a(S'MPI_Reduce()'
p388
S'81'
p389
tp390
a(S'MPI_Reduce()'
p391
S'82'
p392
tp393
a(S'MPI_Reduce()'
p394
S'83'
p395
tp396
a(S'MPI_Reduce()'
p397
S'84'
p398
tp399
a(S'MPI_Reduce()'
p400
S'85'
p401
tp402
a(S'MPI_Reduce()'
p403
S'87'
p404
tp405
a(S'MPI_Reduce()'
p406
S'88'
p407
tp408
a(S'MPI_Reduce()'
p409
S'89'
p410
tp411
a(S'MPI_Reduce()'
p412
S'90'
p413
tp414
a(S'MPI_Reduce()'
p415
S'91'
p416
tp417
a(S'MPI_Reduce()'
p418
S'92'
p419
tp420
a(S'MPI_Reduce()'
p421
S'93'
p422
tp423
a(S'MPI_Reduce()'
p424
S'94'
p425
tp426
a(S'MPI_Reduce()'
p427
S'95'
p428
tp429
a(S'MPI_Reduce()'
p430
S'96'
p431
tp432
a(S'MPI_Reduce()'
p433
S'140'
p434
tp435
a(S'MPI_Reduce()'
p436
S'141'
p437
tp438
a(S'MPI_Reduce()'
p439
S'142'
p440
tp441
a(S'MPI_Reduce()'
p442
S'143'
p443
tp444
a(S'MPI_Reduce()'
p445
S'144'
p446
tp447
a(S'MPI_Reduce()'
p448
S'145'
p449
tp450
a(S'MPI_Reduce()'
p451
S'146'
p452
tp453
a(S'MPI_Reduce()'
p454
S'147'
p455
tp456
a(S'MPI_Reduce()'
p457
S'149'
p458
tp459
a(S'MPI_Reduce()'
p460
S'150'
p461
tp462
a(S'MPI_Reduce()'
p463
S'151'
p464
tp465
a(S'MPI_Reduce()'
p466
S'152'
p467
tp468
a(S'MPI_Reduce()'
p469
S'153'
p470
tp471
a(S'MPI_Reduce()'
p472
S'154'
p473
tp474
a(S'MPI_Reduce()'
p475
S'155'
p476
tp477
a(S'MPI_Reduce()'
p478
S'156'
p479
tp480
a(S'MPI_Reduce()'
p481
S'157'
p482
tp483
a(S'MPI_Reduce()'
p484
S'166'
p485
tp486
a(S'MPI_Reduce()'
p487
S'167'
p488
tp489
a(S'MPI_Reduce()'
p490
S'168'
p491
tp492
a(S'MPI_Reduce()'
p493
S'169'
p494
tp495
a(S'MPI_Reduce()'
p496
S'170'
p497
tp498
a(S'MPI_Reduce()'
p499
S'171'
p500
tp501
a(S'MPI_Reduce()'
p502
S'172'
p503
tp504
a(S'MPI_Reduce()'
p505
S'173'
p506
tp507
a(S'MPI_Reduce()'
p508
S'174'
p509
tp510
a(S'MPI_Reduce()'
p511
S'175'
p512
tp513
a(S'MPI_Reduce()'
p514
S'176'
p515
tp516
a(S'MPI_Reduce()'
p517
S'177'
p518
tp519
a(S'MPI_Reduce()'
p520
S'178'
p521
tp522
a(S'MPI_Reduce()'
p523
S'179'
p524
tp525
a(S'MPI_Reduce()'
p526
S'180'
p527
tp528
a(S'MPI_Reduce()'
p529
S'181'
p530
tp531
a(S'MPI_Reduce()'
p532
S'182'
p533
tp534
a(S'MPI_Comm_rank()'
p535
S'285'
p536
tp537
a(S'MPI_Comm_size()'
p538
S'286'
p539
tp540
a(S'MPI_Barrier()'
p541
S'393'
p542
tp543
a(S'MPI_Comm_rank()'
p544
S'587'
p545
tp546
a(S'MPI_Comm_size()'
p547
S'588'
p548
tp549
a(S'MPI_Barrier()'
p550
S'608'
p551
tp552
a(S'MPI_Comm_rank()'
p553
S'618'
p554
tp555
a(S'MPI_Wtime()'
p556
S'628'
p557
tp558
a(S'MPI_Wtime()'
p559
S'644'
p560
tp561
asS'async-multigrid/src/SMEM_Setup.cpp'
p562
(lp563
(S'MPI_Finalize()'
p564
S'1614'
p565
tp566
a(S'MPI_Finalize()'
p567
S'1653'
p568
tp569
a(S'X_MPI_COMM_WORLD()'
p570
S'1661'
p571
tp572
asS'async-multigrid/src/DMEM_ParMfem.cpp'
p573
(lp574
(S'MPI_Comm_size()'
p575
S'13'
p576
tp577
a(S'MPI_Comm_rank()'
p578
S'14'
p579
tp580
asS'async-multigrid/src/DMEM_Test.cpp'
p581
(lp582
(S'MPI_Comm_rank()'
p583
S'10'
p584
tp585
a(S'MPI_Comm_size()'
p586
S'11'
p587
tp588
a(S'MPI_Barrier()'
p589
S'48'
p590
tp591
a(S'MPI_Barrier()'
p592
S'50'
p593
tp594
a(S'MPI_Barrier()'
p595
S'56'
p596
tp597
a(S'MPI_Comm_rank()'
p598
S'63'
p599
tp600
a(S'MPI_Comm_size()'
p601
S'64'
p602
tp603
a(S'X_MPI_COMM_WORLD()'
p604
S'84'
p605
tp606
a(S'MPI_Barrier()'
p607
S'88'
p608
tp609
a(S'X_MPI_COMM_WORLD()'
p610
S'101'
p611
tp612
a(S'X_MPI_COMM_WORLD()'
p613
S'114'
p614
tp615
asS'async-multigrid/src/DMEM_Eig.cpp'
p616
(lp617
(S'MPI_Comm_rank()'
p618
S'16'
p619
tp620
asS'async-multigrid/src/DMEM_Mult.cpp'
p621
(lp622
(S'MPI_Comm_rank()'
p623
S'18'
p624
tp625
a(S'MPI_Wtime()'
p626
S'53'
p627
tp628
a(S'MPI_Wtime()'
p629
S'68'
p630
tp631
a(S'MPI_Wtime()'
p632
S'75'
p633
tp634
a(S'MPI_Wtime()'
p635
S'80'
p636
tp637
a(S'MPI_Comm_rank()'
p638
S'101'
p639
tp640
a(S'MPI_Wtime()'
p641
S'151'
p642
tp643
a(S'MPI_Wtime()'
p644
S'210'
p645
tp646
a(S'MPI_Comm_rank()'
p647
S'266'
p648
tp649
a(S'MPI_Comm_size()'
p650
S'267'
p651
tp652
a(S'MPI_Comm_rank()'
p653
S'328'
p654
tp655
a(S'MPI_Comm_size()'
p656
S'329'
p657
tp658
a(S'MPI_Comm_rank()'
p659
S'459'
p660
tp661
a(S'MPI_Comm_size()'
p662
S'460'
p663
tp664
asS'async-multigrid/src/DMEM_Add.cpp'
p665
(lp666
(S'MPI_Comm_rank()'
p667
S'23'
p668
tp669
a(S'MPI_Comm_size()'
p670
S'24'
p671
tp672
a(S'MPI_Comm_rank()'
p673
S'27'
p674
tp675
a(S'MPI_Comm_size()'
p676
S'28'
p677
tp678
a(S'MPI_Comm_rank()'
p679
S'183'
p680
tp681
a(S'MPI_Comm_size()'
p682
S'184'
p683
tp684
a(S'MPI_Comm_rank()'
p685
S'191'
p686
tp687
a(S'MPI_Comm_size()'
p688
S'192'
p689
tp690
a(S'MPI_Wtime()'
p691
S'239'
p692
tp693
a(S'MPI_Wtime()'
p694
S'261'
p695
tp696
a(S'MPI_Wtime()'
p697
S'295'
p698
tp699
a(S'MPI_Comm_size()'
p700
S'341'
p701
tp702
a(S'MPI_Wtime()'
p703
S'347'
p704
tp705
a(S'MPI_Wtime()'
p706
S'377'
p707
tp708
a(S'MPI_Comm_size()'
p709
S'394'
p710
tp711
a(S'MPI_Comm_rank()'
p712
S'395'
p713
tp714
a(S'MPI_Wtime()'
p715
S'429'
p716
tp717
a(S'MPI_Wtime()'
p718
S'434'
p719
tp720
a(S'MPI_Wtime()'
p721
S'446'
p722
tp723
a(S'MPI_Wtime()'
p724
S'451'
p725
tp726
a(S'MPI_Wtime()'
p727
S'487'
p728
tp729
a(S'MPI_Wtime()'
p730
S'492'
p731
tp732
a(S'MPI_Wtime()'
p733
S'512'
p734
tp735
a(S'MPI_Wtime()'
p736
S'522'
p737
tp738
a(S'MPI_Comm_rank()'
p739
S'533'
p740
tp741
a(S'MPI_Comm_size()'
p742
S'534'
p743
tp744
a(S'MPI_Comm_size()'
p745
S'563'
p746
tp747
a(S'MPI_Comm_rank()'
p748
S'564'
p749
tp750
a(S'MPI_Comm_size()'
p751
S'604'
p752
tp753
a(S'MPI_Comm_rank()'
p754
S'605'
p755
tp756
a(S'MPI_Comm_size()'
p757
S'650'
p758
tp759
a(S'MPI_Comm_rank()'
p760
S'651'
p761
tp762
a(S'MPI_Wtime()'
p763
S'680'
p764
tp765
a(S'MPI_Wtime()'
p766
S'707'
p767
tp768
a(S'MPI_Comm_rank()'
p769
S'741'
p770
tp771
a(S'MPI_Comm_rank()'
p772
S'785'
p773
tp774
a(S'MPI_Comm_size()'
p775
S'786'
p776
tp777
a(S'X_MPI_COMM_WORLD()'
p778
S'817'
p779
tp780
a(S'MPI_Comm_rank()'
p781
S'830'
p782
tp783
a(S'MPI_Wtime()'
p784
S'883'
p785
tp786
a(S'MPI_Comm_rank()'
p787
S'912'
p788
tp789
asS'async-multigrid/src/DMEM_Setup.cpp'
p790
(lp791
(S'MPI_Comm_rank()'
p792
S'48'
p793
tp794
a(S'MPI_Comm_size()'
p795
S'49'
p796
tp797
a(S'MPI_Wtime()'
p798
S'54'
p799
tp800
a(S'MPI_Comm_size()'
p801
S'669'
p802
tp803
a(S'MPI_Comm_rank()'
p804
S'670'
p805
tp806
a(S'MPI_Allgather()'
p807
S'685'
p808
tp809
a(S'MPI_Allgather()'
p810
S'691'
p811
tp812
a(S'MPI_Comm_size()'
p813
S'1642'
p814
tp815
a(S'MPI_Comm_rank()'
p816
S'1643'
p817
tp818
a(S'MPI_Comm_size()'
p819
S'1738'
p820
tp821
a(S'MPI_Barrier()'
p822
S'1753'
p823
tp824
a(S'MPI_Comm_split()'
p825
S'1754'
p826
tp827
a(S'MPI_Comm_size()'
p828
S'1767'
p829
tp830
a(S'MPI_Comm_rank()'
p831
S'1768'
p832
tp833
as.