ccollections
defaultdict
p0
(c__builtin__
list
p1
tp2
Rp3
S'ga/global/testing/unit-tests/ga_copypatch.c'
p4
(lp5
(S'MPI_Init()'
p6
S'26'
p7
tp8
a(S'MPI_Comm_rank()'
p9
S'28'
p10
tp11
a(S'MPI_Comm_size()'
p12
S'29'
p13
tp14
a(S'MPI_Finalize()'
p15
S'76'
p16
tp17
asS'ga/armci/src/collectives/message.c'
p18
(lp19
(S'MPI_Barrier()'
p20
S'468'
p21
tp22
a(S'MPI_Initialized()'
p23
S'499'
p24
tp25
a(S'MPI_Init_thread()'
p26
S'503'
p27
tp28
a(S'MPI_Init()'
p29
S'505'
p30
tp31
a(S'MPI_Comm_dup()'
p32
S'509'
p33
tp34
a(S'MPI_Comm_rank()'
p35
S'525'
p36
tp37
a(S'MPI_Comm_size()'
p38
S'549'
p39
tp40
a(S'MPI_Abort()'
p41
S'590'
p42
tp43
a(S'MPI_Finalize()'
p44
S'609'
p45
tp46
a(S'MPI_Bcast()'
p47
S'857'
p48
tp49
a(S'MPI_Send()'
p50
S'872'
p51
tp52
a(S'MPI_Recv()'
p53
S'896'
p54
tp55
a(S'MPI_Recv()'
p56
S'919'
p57
tp58
a(S'MPI_Barrier()'
p59
S'2102'
p60
tp61
a(S'MPI_Comm_group()'
p62
S'2134'
p63
tp64
a(S'MPI_Group_incl()'
p65
S'2135'
p66
tp67
a(S'MPI_Comm_create()'
p68
S'2137'
p69
tp70
a(S'MPI_Comm_free()'
p71
S'2144'
p72
tp73
a(S'MPI_Group_free()'
p74
S'2145'
p75
tp76
asS'ga/armci/src/common/groups.c'
p77
(lp78
(S'MPI_Comm_compare()'
p79
S'87'
p80
tp81
a(S'MPI_Group_size()'
p82
S'111'
p83
tp84
a(S'MPI_Comm_group()'
p85
S'124'
p86
tp87
a(S'MPI_Group_translate_ranks()'
p88
S'126'
p89
tp90
a(S'MPI_Comm_group()'
p91
S'165'
p92
tp93
a(S'MPI_Group_translate_ranks()'
p94
S'166'
p95
tp96
a(S'MPI_Comm_free()'
p97
S'364'
p98
tp99
a(S'MPI_Group_rank()'
p100
S'467'
p101
tp102
a(S'MPI_Comm_dup()'
p103
S'473'
p104
tp105
a(S'MPI_Intercomm_create()'
p106
S'482'
p107
tp108
a(S'MPI_Comm_free()'
p109
S'483'
p110
tp111
a(S'MPI_Intercomm_merge()'
p112
S'484'
p113
tp114
a(S'MPI_Comm_free()'
p115
S'485'
p116
tp117
a(S'MPI_Group_free()'
p118
S'492'
p119
tp120
a(S'MPI_Comm_group()'
p121
S'493'
p122
tp123
a(S'MPI_Comm_group()'
p124
S'540'
p125
tp126
a(S'MPI_Group_rank()'
p127
S'543'
p128
tp129
asS'ga/global/testing/unit-tests/ga_create2.c'
p130
(lp131
(S'MPI_Init()'
p132
S'37'
p133
tp134
a(S'MPI_Comm_rank()'
p135
S'39'
p136
tp137
a(S'MPI_Comm_size()'
p138
S'40'
p139
tp140
a(S'MPI_Finalize()'
p141
S'51'
p142
tp143
asS'ga/comex/tools/armci_prof.c'
p144
(lp145
(S'MPI_Wtime()'
p146
S'146'
p147
tp148
a(S'MPI_Wtime()'
p149
S'148'
p150
tp151
a(S'MPI_Wtime()'
p152
S'160'
p153
tp154
a(S'MPI_Wtime()'
p155
S'162'
p156
tp157
a(S'MPI_Wtime()'
p158
S'174'
p159
tp160
a(S'MPI_Wtime()'
p161
S'176'
p162
tp163
a(S'MPI_Wtime()'
p164
S'188'
p165
tp166
a(S'MPI_Wtime()'
p167
S'190'
p168
tp169
a(S'MPI_Wtime()'
p170
S'202'
p171
tp172
a(S'MPI_Wtime()'
p173
S'204'
p174
tp175
a(S'MPI_Wtime()'
p176
S'216'
p177
tp178
a(S'MPI_Wtime()'
p179
S'218'
p180
tp181
a(S'MPI_Wtime()'
p182
S'230'
p183
tp184
a(S'MPI_Wtime()'
p185
S'232'
p186
tp187
a(S'MPI_Wtime()'
p188
S'244'
p189
tp190
a(S'MPI_Wtime()'
p191
S'246'
p192
tp193
a(S'MPI_Wtime()'
p194
S'257'
p195
tp196
a(S'MPI_Wtime()'
p197
S'259'
p198
tp199
a(S'MPI_Wtime()'
p200
S'271'
p201
tp202
a(S'MPI_Wtime()'
p203
S'273'
p204
tp205
a(S'MPI_Wtime()'
p206
S'285'
p207
tp208
a(S'MPI_Wtime()'
p209
S'287'
p210
tp211
a(S'MPI_Wtime()'
p212
S'299'
p213
tp214
a(S'MPI_Wtime()'
p215
S'301'
p216
tp217
a(S'MPI_Wtime()'
p218
S'313'
p219
tp220
a(S'MPI_Wtime()'
p221
S'315'
p222
tp223
a(S'MPI_Wtime()'
p224
S'327'
p225
tp226
a(S'MPI_Wtime()'
p227
S'329'
p228
tp229
a(S'MPI_Wtime()'
p230
S'341'
p231
tp232
a(S'MPI_Wtime()'
p233
S'343'
p234
tp235
a(S'MPI_Wtime()'
p236
S'355'
p237
tp238
a(S'MPI_Wtime()'
p239
S'357'
p240
tp241
a(S'MPI_Wtime()'
p242
S'369'
p243
tp244
a(S'MPI_Wtime()'
p245
S'371'
p246
tp247
a(S'MPI_Wtime()'
p248
S'383'
p249
tp250
a(S'MPI_Wtime()'
p251
S'385'
p252
tp253
a(S'MPI_Comm_dup()'
p254
S'397'
p255
tp256
a(S'MPI_Comm_rank()'
p257
S'398'
p258
tp259
a(S'MPI_Comm_size()'
p260
S'399'
p261
tp262
a(S'MPI_Wtime()'
p263
S'402'
p264
tp265
a(S'MPI_Wtime()'
p266
S'403'
p267
tp268
a(S'MPI_Wtime()'
p269
S'405'
p270
tp271
a(S'MPI_Comm_dup()'
p272
S'417'
p273
tp274
a(S'MPI_Comm_rank()'
p275
S'418'
p276
tp277
a(S'MPI_Comm_size()'
p278
S'419'
p279
tp280
a(S'MPI_Wtime()'
p281
S'422'
p282
tp283
a(S'MPI_Wtime()'
p284
S'423'
p285
tp286
a(S'MPI_Wtime()'
p287
S'425'
p288
tp289
a(S'MPI_Wtime()'
p290
S'437'
p291
tp292
a(S'MPI_Wtime()'
p293
S'439'
p294
tp295
a(S'MPI_Wtime()'
p296
S'451'
p297
tp298
a(S'MPI_Wtime()'
p299
S'453'
p300
tp301
a(S'MPI_Wtime()'
p302
S'465'
p303
tp304
a(S'MPI_Wtime()'
p305
S'467'
p306
tp307
a(S'MPI_Wtime()'
p308
S'479'
p309
tp310
a(S'MPI_Wtime()'
p311
S'481'
p312
tp313
a(S'MPI_Wtime()'
p314
S'493'
p315
tp316
a(S'MPI_Wtime()'
p317
S'495'
p318
tp319
a(S'MPI_Wtime()'
p320
S'507'
p321
tp322
a(S'MPI_Wtime()'
p323
S'509'
p324
tp325
a(S'MPI_Wtime()'
p326
S'521'
p327
tp328
a(S'MPI_Wtime()'
p329
S'523'
p330
tp331
a(S'MPI_Wtime()'
p332
S'535'
p333
tp334
a(S'MPI_Wtime()'
p335
S'537'
p336
tp337
a(S'MPI_Wtime()'
p338
S'549'
p339
tp340
a(S'MPI_Wtime()'
p341
S'551'
p342
tp343
a(S'MPI_Wtime()'
p344
S'563'
p345
tp346
a(S'MPI_Wtime()'
p347
S'565'
p348
tp349
a(S'MPI_Wtime()'
p350
S'577'
p351
tp352
a(S'MPI_Wtime()'
p353
S'579'
p354
tp355
a(S'MPI_Wtime()'
p356
S'591'
p357
tp358
a(S'MPI_Wtime()'
p359
S'593'
p360
tp361
a(S'MPI_Wtime()'
p362
S'605'
p363
tp364
a(S'MPI_Wtime()'
p365
S'607'
p366
tp367
a(S'MPI_Wtime()'
p368
S'619'
p369
tp370
a(S'MPI_Wtime()'
p371
S'621'
p372
tp373
a(S'MPI_Wtime()'
p374
S'633'
p375
tp376
a(S'MPI_Wtime()'
p377
S'635'
p378
tp379
a(S'MPI_Wtime()'
p380
S'647'
p381
tp382
a(S'MPI_Wtime()'
p383
S'649'
p384
tp385
a(S'MPI_Wtime()'
p386
S'661'
p387
tp388
a(S'MPI_Wtime()'
p389
S'663'
p390
tp391
a(S'MPI_Wtime()'
p392
S'675'
p393
tp394
a(S'MPI_Wtime()'
p395
S'677'
p396
tp397
a(S'MPI_Wtime()'
p398
S'689'
p399
tp400
a(S'MPI_Wtime()'
p401
S'691'
p402
tp403
a(S'MPI_Wtime()'
p404
S'703'
p405
tp406
a(S'MPI_Wtime()'
p407
S'705'
p408
tp409
a(S'MPI_Wtime()'
p410
S'717'
p411
tp412
a(S'MPI_Wtime()'
p413
S'719'
p414
tp415
a(S'MPI_Wtime()'
p416
S'731'
p417
tp418
a(S'MPI_Wtime()'
p419
S'733'
p420
tp421
a(S'MPI_Wtime()'
p422
S'745'
p423
tp424
a(S'MPI_Wtime()'
p425
S'747'
p426
tp427
a(S'MPI_Wtime()'
p428
S'759'
p429
tp430
a(S'MPI_Wtime()'
p431
S'761'
p432
tp433
a(S'MPI_Wtime()'
p434
S'773'
p435
tp436
a(S'MPI_Wtime()'
p437
S'775'
p438
tp439
a(S'MPI_Wtime()'
p440
S'787'
p441
tp442
a(S'MPI_Wtime()'
p443
S'789'
p444
tp445
a(S'MPI_Wtime()'
p446
S'801'
p447
tp448
a(S'MPI_Wtime()'
p449
S'803'
p450
tp451
a(S'MPI_Wtime()'
p452
S'815'
p453
tp454
a(S'MPI_Wtime()'
p455
S'817'
p456
tp457
a(S'MPI_Wtime()'
p458
S'829'
p459
tp460
a(S'MPI_Wtime()'
p461
S'831'
p462
tp463
a(S'MPI_Wtime()'
p464
S'843'
p465
tp466
a(S'MPI_Wtime()'
p467
S'845'
p468
tp469
a(S'MPI_Wtime()'
p470
S'857'
p471
tp472
a(S'MPI_Wtime()'
p473
S'859'
p474
tp475
a(S'MPI_Wtime()'
p476
S'871'
p477
tp478
a(S'MPI_Wtime()'
p479
S'873'
p480
tp481
a(S'MPI_Wtime()'
p482
S'885'
p483
tp484
a(S'MPI_Wtime()'
p485
S'887'
p486
tp487
a(S'MPI_Wtime()'
p488
S'899'
p489
tp490
a(S'MPI_Wtime()'
p491
S'901'
p492
tp493
a(S'MPI_Wtime()'
p494
S'913'
p495
tp496
a(S'MPI_Wtime()'
p497
S'915'
p498
tp499
a(S'MPI_Wtime()'
p500
S'927'
p501
tp502
a(S'MPI_Wtime()'
p503
S'929'
p504
tp505
a(S'MPI_Wtime()'
p506
S'941'
p507
tp508
a(S'MPI_Wtime()'
p509
S'943'
p510
tp511
a(S'MPI_Wtime()'
p512
S'955'
p513
tp514
a(S'MPI_Wtime()'
p515
S'957'
p516
tp517
a(S'MPI_Wtime()'
p518
S'967'
p519
tp520
a(S'MPI_Reduce()'
p521
S'973'
p522
tp523
a(S'MPI_Reduce()'
p524
S'978'
p525
tp526
a(S'MPI_Reduce()'
p527
S'983'
p528
tp529
a(S'MPI_Reduce()'
p530
S'988'
p531
tp532
a(S'MPI_Reduce()'
p533
S'993'
p534
tp535
a(S'MPI_Reduce()'
p536
S'998'
p537
tp538
a(S'MPI_Reduce()'
p539
S'1003'
p540
tp541
a(S'MPI_Reduce()'
p542
S'1008'
p543
tp544
a(S'MPI_Reduce()'
p545
S'1013'
p546
tp547
a(S'MPI_Reduce()'
p548
S'1018'
p549
tp550
a(S'MPI_Reduce()'
p551
S'1023'
p552
tp553
a(S'MPI_Reduce()'
p554
S'1028'
p555
tp556
a(S'MPI_Reduce()'
p557
S'1033'
p558
tp559
a(S'MPI_Reduce()'
p560
S'1038'
p561
tp562
a(S'MPI_Reduce()'
p563
S'1043'
p564
tp565
a(S'MPI_Reduce()'
p566
S'1048'
p567
tp568
a(S'MPI_Reduce()'
p569
S'1053'
p570
tp571
a(S'MPI_Reduce()'
p572
S'1058'
p573
tp574
a(S'MPI_Reduce()'
p575
S'1063'
p576
tp577
a(S'MPI_Reduce()'
p578
S'1068'
p579
tp580
a(S'MPI_Reduce()'
p581
S'1073'
p582
tp583
a(S'MPI_Reduce()'
p584
S'1078'
p585
tp586
a(S'MPI_Reduce()'
p587
S'1083'
p588
tp589
a(S'MPI_Reduce()'
p590
S'1088'
p591
tp592
a(S'MPI_Reduce()'
p593
S'1093'
p594
tp595
a(S'MPI_Reduce()'
p596
S'1098'
p597
tp598
a(S'MPI_Reduce()'
p599
S'1103'
p600
tp601
a(S'MPI_Reduce()'
p602
S'1108'
p603
tp604
a(S'MPI_Reduce()'
p605
S'1113'
p606
tp607
a(S'MPI_Reduce()'
p608
S'1118'
p609
tp610
a(S'MPI_Reduce()'
p611
S'1123'
p612
tp613
a(S'MPI_Reduce()'
p614
S'1128'
p615
tp616
a(S'MPI_Reduce()'
p617
S'1133'
p618
tp619
a(S'MPI_Reduce()'
p620
S'1138'
p621
tp622
a(S'MPI_Reduce()'
p623
S'1143'
p624
tp625
a(S'MPI_Reduce()'
p626
S'1148'
p627
tp628
a(S'MPI_Reduce()'
p629
S'1153'
p630
tp631
a(S'MPI_Reduce()'
p632
S'1158'
p633
tp634
a(S'MPI_Reduce()'
p635
S'1163'
p636
tp637
a(S'MPI_Reduce()'
p638
S'1168'
p639
tp640
a(S'MPI_Reduce()'
p641
S'1173'
p642
tp643
a(S'MPI_Reduce()'
p644
S'1178'
p645
tp646
a(S'MPI_Reduce()'
p647
S'1183'
p648
tp649
a(S'MPI_Reduce()'
p650
S'1188'
p651
tp652
a(S'MPI_Reduce()'
p653
S'1193'
p654
tp655
a(S'MPI_Reduce()'
p656
S'1198'
p657
tp658
a(S'MPI_Reduce()'
p659
S'1203'
p660
tp661
a(S'MPI_Reduce()'
p662
S'1208'
p663
tp664
a(S'MPI_Reduce()'
p665
S'1213'
p666
tp667
a(S'MPI_Reduce()'
p668
S'1218'
p669
tp670
a(S'MPI_Reduce()'
p671
S'1223'
p672
tp673
a(S'MPI_Reduce()'
p674
S'1228'
p675
tp676
a(S'MPI_Reduce()'
p677
S'1233'
p678
tp679
a(S'MPI_Reduce()'
p680
S'1238'
p681
tp682
a(S'MPI_Reduce()'
p683
S'1243'
p684
tp685
a(S'MPI_Reduce()'
p686
S'1248'
p687
tp688
a(S'MPI_Reduce()'
p689
S'1253'
p690
tp691
a(S'MPI_Reduce()'
p692
S'1258'
p693
tp694
a(S'MPI_Comm_free()'
p695
S'1268'
p696
tp697
asS'ga/ga++/testing/thread-safe.cc'
p698
(lp699
(S'MPI_Init_thread()'
p700
S'31'
p701
tp702
a(S'MPI_Finalize()'
p703
S'389'
p704
tp705
asS'ga/global/testing/unit-tests/ga_zeropatch2.c'
p706
(lp707
(S'MPI_Init()'
p708
S'27'
p709
tp710
a(S'MPI_Comm_rank()'
p711
S'29'
p712
tp713
a(S'MPI_Comm_size()'
p714
S'30'
p715
tp716
a(S'MPI_Finalize()'
p717
S'84'
p718
tp719
asS'ga/armci/src-portals/portals_ds.c'
p720
(lp721
(S'MPI_Comm_size()'
p722
S'55'
p723
tp724
a(S'MPI_Comm_rank()'
p725
S'56'
p726
tp727
asS'ga/tcgmsg/tcgmsg-mpi/nxtval.c'
p728
(lp729
(S'MPI_Recv()'
p730
S'33'
p731
tp732
a(S'MPI_Get_count()'
p733
S'34'
p734
tp735
a(S'MPI_Send()'
p736
S'61'
p737
tp738
a(S'MPI_Barrier()'
p739
S'63'
p740
tp741
a(S'MPI_Finalize()'
p742
S'64'
p743
tp744
a(S'MPI_Send()'
p745
S'73'
p746
tp747
a(S'MPI_Send()'
p748
S'86'
p749
tp750
a(S'MPI_Send()'
p751
S'126'
p752
tp753
a(S'MPI_Recv()'
p754
S'127'
p755
tp756
a(S'MPI_Comm_size()'
p757
S'157'
p758
tp759
a(S'MPI_Comm_rank()'
p760
S'158'
p761
tp762
asS'ga/armci/src-portals/armci.c'
p763
(lp764
(S'MPI_Comm_free()'
p765
S'431'
p766
tp767
asS'ga/comex/src-mpi-mt/comex.c'
p768
(lp769
(S'MPI_Initialized()'
p770
S'257'
p771
tp772
a(S'MPI_Query_thread()'
p773
S'262'
p774
tp775
a(S'MPI_Barrier()'
p776
S'310'
p777
tp778
a(S'MPI_Barrier()'
p779
S'345'
p780
tp781
a(S'MPI_Initialized()'
p782
S'360'
p783
tp784
a(S'MPI_Init_thread()'
p785
S'365'
p786
tp787
a(S'MPI_Barrier()'
p788
S'427'
p789
tp790
a(S'MPI_Abort()'
p791
S'458'
p792
tp793
a(S'MPI_Barrier()'
p794
S'850'
p795
tp796
a(S'MPI_Allgather()'
p797
S'1316'
p798
tp799
a(S'MPI_Barrier()'
p800
S'1337'
p801
tp802
a(S'MPI_Comm_rank()'
p803
S'1468'
p804
tp805
a(S'MPI_Comm_size()'
p806
S'1469'
p807
tp808
a(S'MPI_Allgather()'
p809
S'1475'
p810
tp811
a(S'MPI_Barrier()'
p812
S'1478'
p813
tp814
a(S'MPI_Comm_rank()'
p815
S'1509'
p816
tp817
a(S'MPI_Comm_size()'
p818
S'1510'
p819
tp820
a(S'MPI_Allgather()'
p821
S'1517'
p822
tp823
a(S'MPI_Barrier()'
p824
S'1527'
p825
tp826
a(S'MPI_Recv()'
p827
S'1566'
p828
tp829
a(S'X_MPI_ANY_SOURCE()'
p830
S'1567'
p831
tp832
a(S'MPI_Get_count()'
p833
S'1568'
p834
tp835
a(S'MPI_Group_translate_ranks()'
p836
S'2471'
p837
tp838
a(S'MPI_Group_translate_ranks()'
p839
S'2493'
p840
tp841
a(S'MPI_Abort()'
p842
S'2541'
p843
tp844
a(S'MPI_Send()'
p845
S'2588'
p846
tp847
a(S'MPI_Recv()'
p848
S'2606'
p849
tp850
a(S'MPI_Get_count()'
p851
S'2613'
p852
tp853
a(S'MPI_Isend()'
p854
S'2645'
p855
tp856
a(S'MPI_Irecv()'
p857
S'2704'
p858
tp859
a(S'MPI_Irecv()'
p860
S'2742'
p861
tp862
a(S'MPI_Irecv()'
p863
S'2779'
p864
tp865
a(S'MPI_Abort()'
p866
S'2822'
p867
tp868
a(S'MPI_Wait()'
p869
S'2863'
p870
tp871
a(S'MPI_Wait()'
p872
S'2914'
p873
tp874
asS'ga/global/testing/unit-tests/ga_solve.c'
p875
(lp876
(S'MPI_Init()'
p877
S'26'
p878
tp879
a(S'MPI_Comm_rank()'
p880
S'28'
p881
tp882
a(S'MPI_Comm_size()'
p883
S'29'
p884
tp885
a(S'MPI_Finalize()'
p886
S'66'
p887
tp888
asS'ga/cmx/testing/perf_contig.c'
p889
(lp890
(S'MPI_Finalize()'
p891
S'63'
p892
tp893
asS'ga/global/testing/unit-tests/ga_get.c'
p894
(lp895
(S'MPI_Init()'
p896
S'23'
p897
tp898
a(S'MPI_Comm_rank()'
p899
S'24'
p900
tp901
a(S'MPI_Comm_size()'
p902
S'25'
p903
tp904
a(S'MPI_Finalize()'
p905
S'65'
p906
tp907
asS'ga/comex/src-mpi-pt/hello.c'
p908
(lp909
(S'MPI_Init()'
p910
S'14'
p911
tp912
a(S'MPI_Finalize()'
p913
S'27'
p914
tp915
asS'ga/global/testing/unit-tests/ga_pgroup_create3.c'
p916
(lp917
(S'MPI_Init()'
p918
S'21'
p919
tp920
a(S'MPI_Comm_rank()'
p921
S'23'
p922
tp923
a(S'MPI_Comm_size()'
p924
S'24'
p925
tp926
a(S'MPI_Finalize()'
p927
S'71'
p928
tp929
asS'ga/armci/examples/features/non-blocking/overlap/overlap.c'
p930
(lp931
(S'MPI_Bcast()'
p932
S'651'
p933
tp934
a(S'MPI_Gather()'
p935
S'713'
p936
tp937
asS'ga/cca/ga_cca_classic/TestComponent/TestComponent.cxx'
p938
(lp939
(S'MPI_Get_processor_name()'
p940
S'135'
p941
tp942
asS'ga/cmx/src-armci/reg_entry.c'
p943
(lp944
(S'MPI_Comm_rank()'
p945
S'314'
p946
tp947
asS'ga/global/testing/simple_groups_comm.F'
p948
(lp949
(S'mpi_allreduce()'
p950
S'55'
p951
tp952
asS'ga/armci/src-gemini/armci-onesided.c'
p953
(lp954
(S'MPI_Allreduce()'
p955
S'596'
p956
tp957
asS'ga/global/testing/simple_groups_commc.c'
p958
(lp959
(S'MPI_Allreduce()'
p960
S'63'
p961
tp962
asS'ga/cmx/testing/perf_strided.c'
p963
(lp964
(S'MPI_Finalize()'
p965
S'66'
p966
tp967
asS'ga/global/testing/unit-tests/ga_pgroup_create.c'
p968
(lp969
(S'MPI_Init()'
p970
S'21'
p971
tp972
a(S'MPI_Comm_rank()'
p973
S'23'
p974
tp975
a(S'MPI_Comm_size()'
p976
S'24'
p977
tp978
a(S'MPI_Finalize()'
p979
S'121'
p980
tp981
asS'ga/comex/src-mpi-mt/groups.c'
p982
(lp983
(S'X_MPI_COMM_NULL()'
p984
S'29'
p985
tp986
a(S'X_MPI_GROUP_NULL()'
p987
S'30'
p988
tp989
a(S'X_MPI_COMM_NULL()'
p990
S'34'
p991
tp992
a(S'MPI_Group_translate_ranks()'
p993
S'180'
p994
tp995
a(S'MPI_Group_free()'
p996
S'203'
p997
tp998
a(S'MPI_Comm_free()'
p999
S'213'
p1000
tp1001
a(S'MPI_Group_incl()'
p1002
S'293'
p1003
tp1004
a(S'MPI_Group_rank()'
p1005
S'302'
p1006
tp1007
a(S'MPI_Comm_dup()'
p1008
S'314'
p1009
tp1010
a(S'MPI_Intercomm_create()'
p1011
S'324'
p1012
tp1013
a(S'MPI_Comm_free()'
p1014
S'327'
p1015
tp1016
a(S'MPI_Intercomm_merge()'
p1017
S'329'
p1018
tp1019
a(S'MPI_Comm_free()'
p1020
S'331'
p1021
tp1022
a(S'MPI_Group_free()'
p1023
S'340'
p1024
tp1025
a(S'MPI_Comm_group()'
p1026
S'343'
p1027
tp1028
a(S'MPI_Comm_size()'
p1029
S'346'
p1030
tp1031
a(S'MPI_Comm_rank()'
p1032
S'348'
p1033
tp1034
a(S'MPI_Comm_dup()'
p1035
S'380'
p1036
tp1037
a(S'MPI_Comm_group()'
p1038
S'382'
p1039
tp1040
a(S'MPI_Comm_rank()'
p1041
S'384'
p1042
tp1043
a(S'MPI_Comm_size()'
p1044
S'386'
p1045
tp1046
a(S'MPI_Allgather()'
p1047
S'402'
p1048
tp1049
a(S'MPI_Comm_dup()'
p1050
S'411'
p1051
tp1052
a(S'MPI_Comm_group()'
p1053
S'413'
p1054
tp1055
a(S'MPI_Comm_rank()'
p1056
S'415'
p1057
tp1058
a(S'MPI_Comm_size()'
p1059
S'417'
p1060
tp1061
a(S'MPI_Comm_split()'
p1062
S'435'
p1063
tp1064
a(S'MPI_Comm_rank()'
p1065
S'439'
p1066
tp1067
a(S'MPI_Comm_size()'
p1068
S'442'
p1069
tp1070
a(S'MPI_Comm_free()'
p1071
S'464'
p1072
tp1073
a(S'MPI_Group_free()'
p1074
S'466'
p1075
tp1076
a(S'MPI_Comm_free()'
p1077
S'468'
p1078
tp1079
asS'ga/armci/src/devices/mpi-mt/mpi2.h'
p1080
(lp1081
(S'X_MPI_SPAWN_DEBUG()'
p1082
S'6'
p1083
tp1084
asS'ga/tcgmsg/tcgmsg-mpi/tcgmsgP.h'
p1085
(lp1086
(S'MPI_Error_string()'
p1087
S'66'
p1088
tp1089
asS'ga/armci/testing/rpl_armci_msg_finalize.c'
p1090
(lp1091
(S'MPI_Finalize()'
p1092
S'9'
p1093
tp1094
asS'ga/comex/src-mpi3/reg_win.c'
p1095
(lp1096
(S'MPI_Comm_rank()'
p1097
S'317'
p1098
tp1099
asS'ga/comex/src-ofi/groups.c'
p1100
(lp1101
(S'MPI_Group_rank()'
p1102
S'79'
p1103
tp1104
a(S'MPI_Group_size()'
p1105
S'92'
p1106
tp1107
a(S'MPI_Group_translate_ranks()'
p1108
S'118'
p1109
tp1110
a(S'MPI_Group_free()'
p1111
S'138'
p1112
tp1113
a(S'MPI_Comm_free()'
p1114
S'145'
p1115
tp1116
a(S'MPI_Group_incl()'
p1117
S'201'
p1118
tp1119
a(S'MPI_Group_rank()'
p1120
S'209'
p1121
tp1122
a(S'MPI_Comm_dup()'
p1123
S'216'
p1124
tp1125
a(S'MPI_Intercomm_create()'
p1126
S'225'
p1127
tp1128
a(S'MPI_Comm_free()'
p1129
S'227'
p1130
tp1131
a(S'MPI_Intercomm_merge()'
p1132
S'228'
p1133
tp1134
a(S'MPI_Comm_free()'
p1135
S'229'
p1136
tp1137
a(S'MPI_Group_free()'
p1138
S'237'
p1139
tp1140
a(S'MPI_Comm_group()'
p1141
S'239'
p1142
tp1143
a(S'MPI_Comm_group()'
p1144
S'258'
p1145
tp1146
a(S'MPI_Group_free()'
p1147
S'277'
p1148
tp1149
asS'ga/global/testing/unit-tests/ga_scale_rows.c'
p1150
(lp1151
(S'MPI_Init()'
p1152
S'25'
p1153
tp1154
a(S'MPI_Comm_rank()'
p1155
S'27'
p1156
tp1157
a(S'MPI_Comm_size()'
p1158
S'28'
p1159
tp1160
a(S'MPI_Finalize()'
p1161
S'59'
p1162
tp1163
asS'ga/global/testing/unit-tests/ga_pgroup_setdefault.c'
p1164
(lp1165
(S'MPI_Init()'
p1166
S'20'
p1167
tp1168
a(S'MPI_Comm_rank()'
p1169
S'22'
p1170
tp1171
a(S'MPI_Comm_size()'
p1172
S'23'
p1173
tp1174
a(S'MPI_Finalize()'
p1175
S'68'
p1176
tp1177
asS'ga/global/testing/unit-tests/ga_nodeid.c'
p1178
(lp1179
(S'MPI_Init()'
p1180
S'20'
p1181
tp1182
a(S'MPI_Comm_rank()'
p1183
S'22'
p1184
tp1185
a(S'MPI_Comm_size()'
p1186
S'23'
p1187
tp1188
a(S'MPI_Finalize()'
p1189
S'37'
p1190
tp1191
asS'ga/global/testing/unit-tests/ga_pgroup_destroy.c'
p1192
(lp1193
(S'MPI_Init()'
p1194
S'22'
p1195
tp1196
a(S'MPI_Comm_rank()'
p1197
S'24'
p1198
tp1199
a(S'MPI_Comm_size()'
p1200
S'25'
p1201
tp1202
a(S'MPI_Finalize()'
p1203
S'75'
p1204
tp1205
asS'ga/comex/tools/prof_gen.py'
p1206
(lp1207
(S'MPI_Comm_dup()'
p1208
S'170'
p1209
tp1210
a(S'MPI_Comm_rank()'
p1211
S'171'
p1212
tp1213
a(S'MPI_Comm_size()'
p1214
S'172'
p1215
tp1216
a(S'MPI_Wtime()'
p1217
S'175'
p1218
tp1219
a(S'MPI_Wtime()'
p1220
S'176'
p1221
tp1222
a(S'MPI_Wtime()'
p1223
S'178'
p1224
tp1225
a(S'MPI_Wtime()'
p1226
S'196'
p1227
tp1228
a(S'MPI_Wtime()'
p1229
S'198'
p1230
tp1231
a(S'MPI_Reduce()'
p1232
S'221'
p1233
tp1234
a(S'MPI_Wtime()'
p1235
S'232'
p1236
tp1237
a(S'MPI_Comm_free()'
p1238
S'241'
p1239
tp1240
asS'ga/cmx/testing/perf.c'
p1241
(lp1242
(S'MPI_Finalize()'
p1243
S'60'
p1244
tp1245
asS'ga/armci/src-portals/armci_portals.c'
p1246
(lp1247
(S'MPI_Comm_size()'
p1248
S'506'
p1249
tp1250
a(S'MPI_Comm_rank()'
p1251
S'507'
p1252
tp1253
a(S'MPI_Barrier()'
p1254
S'516'
p1255
tp1256
a(S'MPI_Barrier()'
p1257
S'523'
p1258
tp1259
a(S'MPI_Barrier()'
p1260
S'541'
p1261
tp1262
a(S'MPI_Barrier()'
p1263
S'543'
p1264
tp1265
asS'ga/global/testing/threadsafec.c'
p1266
(lp1267
(S'MPI_Init_thread()'
p1268
S'163'
p1269
tp1270
a(S'MPI_Finalize()'
p1271
S'1058'
p1272
tp1273
asS'ga//README.md'
p1274
(lp1275
(S'mpi_init()'
p1276
S'146'
p1277
tp1278
a(S'mpi_finalize()'
p1279
S'151'
p1280
tp1281
a(S'MPI_Init()'
p1282
S'161'
p1283
tp1284
a(S'MPI_Finalize()'
p1285
S'165'
p1286
tp1287
asS'ga/global/testing/unit-tests/ga_sync.c'
p1288
(lp1289
(S'MPI_Init()'
p1290
S'21'
p1291
tp1292
a(S'MPI_Comm_rank()'
p1293
S'23'
p1294
tp1295
a(S'MPI_Comm_size()'
p1296
S'24'
p1297
tp1298
a(S'MPI_Finalize()'
p1299
S'44'
p1300
tp1301
asS'ga/global/testing/unit-tests/ga_transpose3.c'
p1302
(lp1303
(S'MPI_Init()'
p1304
S'62'
p1305
tp1306
a(S'MPI_Comm_rank()'
p1307
S'64'
p1308
tp1309
a(S'MPI_Comm_size()'
p1310
S'65'
p1311
tp1312
a(S'MPI_Finalize()'
p1313
S'86'
p1314
tp1315
asS'ga/tcgmsg/tcgmsg-mpi/p2p.c'
p1316
(lp1317
(S'MPI_Send()'
p1318
S'36'
p1319
tp1320
a(S'MPI_Isend()'
p1321
S'43'
p1322
tp1323
a(S'MPI_Irecv()'
p1324
S'79'
p1325
tp1326
a(S'MPI_Recv()'
p1327
S'92'
p1328
tp1329
a(S'MPI_Get_count()'
p1330
S'95'
p1331
tp1332
a(S'MPI_Wait()'
p1333
S'114'
p1334
tp1335
a(S'MPI_Iprobe()'
p1336
S'127'
p1337
tp1338
asS'ga/comex/src-dmapp/groups.c'
p1339
(lp1340
(S'MPI_Group_rank()'
p1341
S'83'
p1342
tp1343
a(S'MPI_Group_size()'
p1344
S'97'
p1345
tp1346
a(S'MPI_Group_translate_ranks()'
p1347
S'125'
p1348
tp1349
a(S'MPI_Group_free()'
p1350
S'146'
p1351
tp1352
a(S'MPI_Comm_free()'
p1353
S'153'
p1354
tp1355
a(S'MPI_Group_incl()'
p1356
S'211'
p1357
tp1358
a(S'MPI_Group_rank()'
p1359
S'219'
p1360
tp1361
a(S'MPI_Comm_dup()'
p1362
S'226'
p1363
tp1364
a(S'MPI_Intercomm_create()'
p1365
S'235'
p1366
tp1367
a(S'MPI_Comm_free()'
p1368
S'237'
p1369
tp1370
a(S'MPI_Intercomm_merge()'
p1371
S'238'
p1372
tp1373
a(S'MPI_Comm_free()'
p1374
S'239'
p1375
tp1376
a(S'MPI_Group_free()'
p1377
S'247'
p1378
tp1379
a(S'MPI_Comm_group()'
p1380
S'249'
p1381
tp1382
a(S'MPI_Comm_group()'
p1383
S'269'
p1384
tp1385
a(S'MPI_Group_free()'
p1386
S'289'
p1387
tp1388
asS'ga/global/testing/unit-tests/ga_set_diagonal.c'
p1389
(lp1390
(S'MPI_Init()'
p1391
S'26'
p1392
tp1393
a(S'MPI_Comm_rank()'
p1394
S'28'
p1395
tp1396
a(S'MPI_Comm_size()'
p1397
S'29'
p1398
tp1399
a(S'MPI_Finalize()'
p1400
S'55'
p1401
tp1402
asS'ga/global/testing/unit-tests/ga_elem_multiplypatch.c'
p1403
(lp1404
(S'MPI_Init()'
p1405
S'25'
p1406
tp1407
a(S'MPI_Comm_rank()'
p1408
S'27'
p1409
tp1410
a(S'MPI_Comm_size()'
p1411
S'28'
p1412
tp1413
a(S'MPI_Finalize()'
p1414
S'69'
p1415
tp1416
asS'ga/tools/wapigen_timers.py'
p1417
(lp1418
(S'MPI_Wtime()'
p1419
S'155'
p1420
tp1421
a(S'MPI_Wtime()'
p1422
S'157'
p1423
tp1424
a(S'MPI_Wtime()'
p1425
S'169'
p1426
tp1427
a(S'MPI_Wtime()'
p1428
S'171'
p1429
tp1430
a(S'MPI_Wtime()'
p1431
S'184'
p1432
tp1433
a(S'MPI_Comm_dup()'
p1434
S'186'
p1435
tp1436
a(S'MPI_Comm_rank()'
p1437
S'187'
p1438
tp1439
a(S'MPI_Comm_size()'
p1440
S'188'
p1441
tp1442
a(S'MPI_Wtime()'
p1443
S'200'
p1444
tp1445
a(S'MPI_Comm_dup()'
p1446
S'202'
p1447
tp1448
a(S'MPI_Comm_rank()'
p1449
S'203'
p1450
tp1451
a(S'MPI_Comm_size()'
p1452
S'204'
p1453
tp1454
a(S'MPI_Reduce()'
p1455
S'220'
p1456
tp1457
a(S'MPI_Wtime()'
p1458
S'230'
p1459
tp1460
a(S'MPI_Comm_free()'
p1461
S'239'
p1462
tp1463
asS'ga/armci/testing/fttest.c'
p1464
(lp1465
(S'MPI_Wtime()'
p1466
S'66'
p1467
tp1468
a(S'MPI_Wtime()'
p1469
S'89'
p1470
tp1471
asS'ga/global/testing/unit-tests/ga_add_diagonal.c'
p1472
(lp1473
(S'MPI_Init()'
p1474
S'25'
p1475
tp1476
a(S'MPI_Comm_rank()'
p1477
S'27'
p1478
tp1479
a(S'MPI_Comm_size()'
p1480
S'28'
p1481
tp1482
a(S'MPI_Finalize()'
p1483
S'57'
p1484
tp1485
asS'ga/tools/ga-wprof.c'
p1486
(lp1487
(S'MPI_Reduce()'
p1488
S'385'
p1489
tp1490
a(S'MPI_Reduce()'
p1491
S'386'
p1492
tp1493
a(S'MPI_Reduce()'
p1494
S'387'
p1495
tp1496
a(S'MPI_Reduce()'
p1497
S'389'
p1498
tp1499
a(S'MPI_Reduce()'
p1500
S'390'
p1501
tp1502
a(S'MPI_Reduce()'
p1503
S'391'
p1504
tp1505
a(S'MPI_Reduce()'
p1506
S'393'
p1507
tp1508
a(S'MPI_Reduce()'
p1509
S'394'
p1510
tp1511
a(S'MPI_Reduce()'
p1512
S'395'
p1513
tp1514
a(S'MPI_Comm_rank()'
p1515
S'404'
p1516
tp1517
a(S'MPI_Comm_size()'
p1518
S'405'
p1519
tp1520
a(S'MPI_Barrier()'
p1521
S'439'
p1522
tp1523
asS'ga/global/testing/unit-tests/ga_gather.c'
p1524
(lp1525
(S'MPI_Init()'
p1526
S'26'
p1527
tp1528
a(S'MPI_Comm_rank()'
p1529
S'30'
p1530
tp1531
a(S'MPI_Comm_size()'
p1532
S'31'
p1533
tp1534
a(S'MPI_Finalize()'
p1535
S'85'
p1536
tp1537
asS'ga/cmx/src-mpi-pr/groups.c'
p1538
(lp1539
(S'X_MPI_COMM_NULL()'
p1540
S'26'
p1541
tp1542
a(S'X_MPI_GROUP_NULL()'
p1543
S'27'
p1544
tp1545
a(S'X_MPI_COMM_NULL()'
p1546
S'32'
p1547
tp1548
a(S'MPI_Group_translate_ranks()'
p1549
S'136'
p1550
tp1551
a(S'MPI_Group_translate_ranks()'
p1552
S'161'
p1553
tp1554
a(S'MPI_Group_free()'
p1555
S'184'
p1556
tp1557
a(S'MPI_Comm_free()'
p1558
S'194'
p1559
tp1560
a(S'MPI_Allgather()'
p1561
S'251'
p1562
tp1563
a(S'MPI_Group_incl()'
p1564
S'294'
p1565
tp1566
a(S'MPI_Group_rank()'
p1567
S'303'
p1568
tp1569
a(S'MPI_Comm_dup()'
p1570
S'315'
p1571
tp1572
a(S'MPI_Intercomm_create()'
p1573
S'325'
p1574
tp1575
a(S'MPI_Comm_free()'
p1576
S'328'
p1577
tp1578
a(S'MPI_Intercomm_merge()'
p1579
S'330'
p1580
tp1581
a(S'MPI_Comm_free()'
p1582
S'332'
p1583
tp1584
a(S'MPI_Group_free()'
p1585
S'341'
p1586
tp1587
a(S'MPI_Comm_group()'
p1588
S'344'
p1589
tp1590
a(S'MPI_Comm_size()'
p1591
S'347'
p1592
tp1593
a(S'MPI_Comm_rank()'
p1594
S'349'
p1595
tp1596
a(S'MPI_Comm_dup()'
p1597
S'383'
p1598
tp1599
a(S'MPI_Comm_group()'
p1600
S'385'
p1601
tp1602
a(S'MPI_Comm_rank()'
p1603
S'387'
p1604
tp1605
a(S'MPI_Comm_size()'
p1606
S'389'
p1607
tp1608
a(S'MPI_Allgather()'
p1609
S'406'
p1610
tp1611
a(S'MPI_Comm_split()'
p1612
S'432'
p1613
tp1614
a(S'MPI_Comm_size()'
p1615
S'435'
p1616
tp1617
a(S'MPI_Comm_rank()'
p1618
S'436'
p1619
tp1620
a(S'MPI_Allreduce()'
p1621
S'439'
p1622
tp1623
a(S'MPI_Comm_free()'
p1624
S'468'
p1625
tp1626
a(S'MPI_Allgather()'
p1627
S'478'
p1628
tp1629
a(S'MPI_Comm_split()'
p1630
S'516'
p1631
tp1632
a(S'MPI_Comm_free()'
p1633
S'520'
p1634
tp1635
a(S'MPI_Comm_split()'
p1636
S'530'
p1637
tp1638
a(S'MPI_Comm_group()'
p1639
S'533'
p1640
tp1641
a(S'MPI_Comm_rank()'
p1642
S'535'
p1643
tp1644
a(S'MPI_Comm_size()'
p1645
S'537'
p1646
tp1647
a(S'MPI_Comm_split()'
p1648
S'548'
p1649
tp1650
a(S'MPI_Comm_rank()'
p1651
S'552'
p1652
tp1653
a(S'MPI_Comm_size()'
p1654
S'555'
p1655
tp1656
a(S'MPI_Comm_free()'
p1657
S'591'
p1658
tp1659
a(S'MPI_Group_free()'
p1660
S'593'
p1661
tp1662
a(S'MPI_Comm_free()'
p1663
S'595'
p1664
tp1665
asS'ga/gparrays/testing/transpose.c'
p1666
(lp1667
(S'MPI_Init()'
p1668
S'997'
p1669
tp1670
a(S'MPI_Finalize()'
p1671
S'1723'
p1672
tp1673
asS'ga/global/testing/unit-tests/ga_pgroup_destroy2.c'
p1674
(lp1675
(S'MPI_Init()'
p1676
S'22'
p1677
tp1678
a(S'MPI_Comm_rank()'
p1679
S'24'
p1680
tp1681
a(S'MPI_Comm_size()'
p1682
S'25'
p1683
tp1684
a(S'MPI_Finalize()'
p1685
S'75'
p1686
tp1687
asS'ga/armci/src-gemini/memory.c'
p1688
(lp1689
(S'MPI_Allreduce()'
p1690
S'696'
p1691
tp1692
a(S'MPI_Allgather()'
p1693
S'697'
p1694
tp1695
a(S'MPI_Bcast()'
p1696
S'711'
p1697
tp1698
a(S'MPI_Bcast()'
p1699
S'712'
p1700
tp1701
a(S'MPI_Allgather()'
p1702
S'725'
p1703
tp1704
asS'ga/global/testing/unit-tests/ga_igop2.c'
p1705
(lp1706
(S'MPI_Init()'
p1707
S'73'
p1708
tp1709
a(S'MPI_Comm_rank()'
p1710
S'77'
p1711
tp1712
a(S'MPI_Comm_size()'
p1713
S'78'
p1714
tp1715
a(S'MPI_Finalize()'
p1716
S'89'
p1717
tp1718
asS'ga/global/testing/thread_perf_strided.c'
p1719
(lp1720
(S'MPI_Init_thread()'
p1721
S'195'
p1722
tp1723
a(S'MPI_Finalize()'
p1724
S'598'
p1725
tp1726
asS'ga/armci/src/devices/mpi-spawn/mpi2_client.c'
p1727
(lp1728
(S'MPI_Send()'
p1729
S'136'
p1730
tp1731
a(S'MPI_Recv()'
p1732
S'143'
p1733
tp1734
a(S'MPI_Send()'
p1735
S'209'
p1736
tp1737
a(S'MPI_Send()'
p1738
S'219'
p1739
tp1740
a(S'MPI_Recv()'
p1741
S'285'
p1742
tp1743
a(S'MPI_Get_count()'
p1744
S'296'
p1745
tp1746
a(S'MPI_Get_processor_name()'
p1747
S'363'
p1748
tp1749
a(S'MPI_Allgather()'
p1750
S'365'
p1751
tp1752
a(S'MPI_Info_create()'
p1753
S'463'
p1754
tp1755
a(S'MPI_Info_set()'
p1756
S'466'
p1757
tp1758
a(S'MPI_Info_set()'
p1759
S'468'
p1760
tp1761
a(S'MPI_Comm_spawn_multiple()'
p1762
S'479'
p1763
tp1764
a(S'MPI_Initialized()'
p1765
S'506'
p1766
tp1767
a(S'MPI_Comm_rank()'
p1768
S'510'
p1769
tp1770
a(S'MPI_Comm_size()'
p1771
S'511'
p1772
tp1773
a(S'MPI_Send()'
p1774
S'535'
p1775
tp1776
a(S'MPI_Send()'
p1777
S'539'
p1778
tp1779
a(S'MPI_Send()'
p1780
S'552'
p1781
tp1782
a(S'MPI_Barrier()'
p1783
S'563'
p1784
tp1785
asS'ga/comex/src-template/comex.c'
p1786
(lp1787
(S'MPI_Initialized()'
p1788
S'61'
p1789
tp1790
a(S'MPI_Comm_dup()'
p1791
S'66'
p1792
tp1793
a(S'MPI_Comm_rank()'
p1794
S'71'
p1795
tp1796
a(S'MPI_Comm_size()'
p1797
S'75'
p1798
tp1799
a(S'MPI_Barrier()'
p1800
S'82'
p1801
tp1802
a(S'MPI_Initialized()'
p1803
S'92'
p1804
tp1805
a(S'MPI_Init()'
p1806
S'95'
p1807
tp1808
a(S'MPI_Abort()'
p1809
S'113'
p1810
tp1811
a(S'MPI_Barrier()'
p1812
S'452'
p1813
tp1814
a(S'MPI_Barrier()'
p1815
S'489'
p1816
tp1817
a(S'MPI_Comm_free()'
p1818
S'492'
p1819
tp1820
a(S'MPI_Comm_rank()'
p1821
S'722'
p1822
tp1823
a(S'MPI_Comm_size()'
p1824
S'723'
p1825
tp1826
a(S'MPI_Allgather()'
p1827
S'731'
p1828
tp1829
a(S'MPI_Barrier()'
p1830
S'734'
p1831
tp1832
a(S'MPI_Comm_rank()'
p1833
S'759'
p1834
tp1835
a(S'MPI_Comm_size()'
p1836
S'760'
p1837
tp1838
a(S'MPI_Allgather()'
p1839
S'767'
p1840
tp1841
a(S'MPI_Barrier()'
p1842
S'777'
p1843
tp1844
asS'ga/comex/src-ofa/comex.c'
p1845
(lp1846
(S'MPI_Abort()'
p1847
S'41'
p1848
tp1849
a(S'MPI_Comm_rank()'
p1850
S'65'
p1851
tp1852
a(S'MPI_Comm_size()'
p1853
S'67'
p1854
tp1855
a(S'MPI_Allreduce()'
p1856
S'71'
p1857
tp1858
a(S'MPI_Allgather()'
p1859
S'87'
p1860
tp1861
a(S'MPI_Allgather()'
p1862
S'100'
p1863
tp1864
a(S'MPI_Barrier()'
p1865
S'116'
p1866
tp1867
a(S'MPI_Comm_rank()'
p1868
S'143'
p1869
tp1870
a(S'MPI_Comm_size()'
p1871
S'145'
p1872
tp1873
a(S'MPI_Allgather()'
p1874
S'153'
p1875
tp1876
a(S'MPI_Barrier()'
p1877
S'172'
p1878
tp1879
a(S'MPI_Initialized()'
p1880
S'251'
p1881
tp1882
a(S'MPI_Comm_dup()'
p1883
S'255'
p1884
tp1885
a(S'MPI_Comm_rank()'
p1886
S'258'
p1887
tp1888
a(S'MPI_Comm_size()'
p1889
S'261'
p1890
tp1891
a(S'MPI_Barrier()'
p1892
S'276'
p1893
tp1894
a(S'MPI_Initialized()'
p1895
S'287'
p1896
tp1897
a(S'MPI_Init()'
p1898
S'290'
p1899
tp1900
a(S'MPI_Barrier()'
p1901
S'308'
p1902
tp1903
a(S'MPI_Comm_free()'
p1904
S'314'
p1905
tp1906
asS'ga/global/src/collect.c'
p1907
(lp1908
(S'MPI_Bcast()'
p1909
S'69'
p1910
tp1911
asS'ga/cmx/src-armci/armci.c'
p1912
(lp1913
(S'MPI_Allgather()'
p1914
S'351'
p1915
tp1916
a(S'MPI_Allgather()'
p1917
S'388'
p1918
tp1919
a(S'MPI_Comm_rank()'
p1920
S'561'
p1921
tp1922
a(S'MPI_Comm_size()'
p1923
S'562'
p1924
tp1925
a(S'MPI_Allgather()'
p1926
S'575'
p1927
tp1928
asS'ga/cmx/testing/test.c'
p1929
(lp1930
(S'MPI_Allreduce()'
p1931
S'85'
p1932
tp1933
a(S'MPI_Allreduce()'
p1934
S'107'
p1935
tp1936
a(S'MPI_Finalize()'
p1937
S'1991'
p1938
tp1939
asS'ga/comex/src-portals4/groups.c'
p1940
(lp1941
(S'MPI_Group_rank()'
p1942
S'83'
p1943
tp1944
a(S'MPI_Group_size()'
p1945
S'97'
p1946
tp1947
a(S'MPI_Group_translate_ranks()'
p1948
S'125'
p1949
tp1950
a(S'MPI_Group_free()'
p1951
S'146'
p1952
tp1953
a(S'MPI_Comm_free()'
p1954
S'153'
p1955
tp1956
a(S'MPI_Group_incl()'
p1957
S'211'
p1958
tp1959
a(S'MPI_Group_rank()'
p1960
S'219'
p1961
tp1962
a(S'MPI_Comm_dup()'
p1963
S'226'
p1964
tp1965
a(S'MPI_Intercomm_create()'
p1966
S'235'
p1967
tp1968
a(S'MPI_Comm_free()'
p1969
S'237'
p1970
tp1971
a(S'MPI_Intercomm_merge()'
p1972
S'238'
p1973
tp1974
a(S'MPI_Comm_free()'
p1975
S'239'
p1976
tp1977
a(S'MPI_Group_free()'
p1978
S'247'
p1979
tp1980
a(S'MPI_Comm_group()'
p1981
S'249'
p1982
tp1983
a(S'MPI_Comm_group()'
p1984
S'269'
p1985
tp1986
a(S'MPI_Group_free()'
p1987
S'289'
p1988
tp1989
asS'ga/comex/src-armci/message.c'
p1990
(lp1991
(S'MPI_Comm_rank()'
p1992
S'183'
p1993
tp1994
a(S'MPI_Type_size()'
p1995
S'204'
p1996
tp1997
a(S'MPI_Allreduce()'
p1998
S'220'
p1999
tp2000
a(S'MPI_Bcast()'
p2001
S'232'
p2002
tp2003
a(S'MPI_Type_create_struct()'
p2004
S'284'
p2005
tp2006
a(S'MPI_Type_struct()'
p2007
S'286'
p2008
tp2009
a(S'MPI_Allreduce()'
p2010
S'311'
p2011
tp2012
a(S'MPI_Bcast()'
p2013
S'336'
p2014
tp2015
a(S'MPI_Comm_rank()'
p2016
S'363'
p2017
tp2018
a(S'MPI_Isend()'
p2019
S'368'
p2020
tp2021
a(S'MPI_Test()'
p2022
S'379'
p2023
tp2024
a(S'MPI_Comm_rank()'
p2025
S'398'
p2026
tp2027
a(S'MPI_Irecv()'
p2028
S'403'
p2029
tp2030
a(S'MPI_Test()'
p2031
S'407'
p2032
tp2033
a(S'MPI_Test()'
p2034
S'417'
p2035
tp2036
a(S'MPI_Get_count()'
p2037
S'425'
p2038
tp2039
a(S'MPI_Comm_rank()'
p2040
S'440'
p2041
tp2042
a(S'MPI_Irecv()'
p2043
S'445'
p2044
tp2045
a(S'MPI_Test()'
p2046
S'448'
p2047
tp2048
a(S'MPI_Get_count()'
p2049
S'456'
p2050
tp2051
a(S'MPI_Barrier()'
p2052
S'539'
p2053
tp2054
a(S'MPI_Comm_rank()'
p2055
S'569'
p2056
tp2057
a(S'MPI_Comm_size()'
p2058
S'579'
p2059
tp2060
a(S'MPI_Abort()'
p2061
S'587'
p2062
tp2063
a(S'MPI_Initialized()'
p2064
S'594'
p2065
tp2066
a(S'MPI_Init()'
p2067
S'596'
p2068
tp2069
a(S'MPI_Initialized()'
p2070
S'604'
p2071
tp2072
a(S'MPI_Finalize()'
p2073
S'606'
p2074
tp2075
a(S'MPI_Allgather()'
p2076
S'711'
p2077
tp2078
a(S'MPI_Barrier()'
p2079
S'720'
p2080
tp2081
a(S'MPI_Bcast()'
p2082
S'730'
p2083
tp2084
a(S'MPI_Bcast()'
p2085
S'732'
p2086
tp2087
a(S'MPI_Comm_group()'
p2088
S'744'
p2089
tp2090
a(S'MPI_Comm_group()'
p2091
S'746'
p2092
tp2093
a(S'MPI_Group_translate_ranks()'
p2094
S'748'
p2095
tp2096
a(S'MPI_Bcast()'
p2097
S'751'
p2098
tp2099
asS'ga/global/testing/read_only.c'
p2100
(lp2101
(S'MPI_Init()'
p2102
S'105'
p2103
tp2104
a(S'MPI_Finalize()'
p2105
S'265'
p2106
tp2107
asS'ga/comex/testing/perf.c'
p2108
(lp2109
(S'MPI_Finalize()'
p2110
S'64'
p2111
tp2112
asS'ga/tcgmsg/tcgmsg-mpi/clustercheck.c'
p2113
(lp2114
(S'MPI_Comm_rank()'
p2115
S'34'
p2116
tp2117
a(S'MPI_Bcast()'
p2118
S'36'
p2119
tp2120
a(S'MPI_Bcast()'
p2121
S'38'
p2122
tp2123
a(S'MPI_Abort()'
p2124
S'43'
p2125
tp2126
a(S'MPI_Allreduce()'
p2127
S'53'
p2128
tp2129
a(S'MPI_Abort()'
p2130
S'57'
p2131
tp2132
asS'ga/armci/src-gemini/portals_cp.c'
p2133
(lp2134
(S'MPI_Comm_rank()'
p2135
S'69'
p2136
tp2137
a(S'MPI_Comm_split()'
p2138
S'70'
p2139
tp2140
a(S'MPI_Comm_size()'
p2141
S'82'
p2142
tp2143
a(S'MPI_Comm_rank()'
p2144
S'83'
p2145
tp2146
a(S'MPI_Bcast()'
p2147
S'110'
p2148
tp2149
a(S'MPI_Barrier()'
p2150
S'157'
p2151
tp2152
a(S'MPI_Finalize()'
p2153
S'158'
p2154
tp2155
a(S'MPI_Comm_size()'
p2156
S'880'
p2157
tp2158
a(S'MPI_Comm_rank()'
p2159
S'881'
p2160
tp2161
a(S'MPI_Bcast()'
p2162
S'902'
p2163
tp2164
a(S'MPI_Bcast()'
p2165
S'903'
p2166
tp2167
a(S'MPI_Barrier()'
p2168
S'910'
p2169
tp2170
asS'ga/armci/src/devices/mpi-mt/mpi2_client.c'
p2171
(lp2172
(S'MPI_Send()'
p2173
S'143'
p2174
tp2175
a(S'MPI_Recv()'
p2176
S'150'
p2177
tp2178
a(S'MPI_Send()'
p2179
S'179'
p2180
tp2181
a(S'MPI_Recv()'
p2182
S'237'
p2183
tp2184
a(S'MPI_Get_count()'
p2185
S'247'
p2186
tp2187
asS'ga/global/testing/unit-tests/ga_scatter.c'
p2188
(lp2189
(S'MPI_Init()'
p2190
S'23'
p2191
tp2192
a(S'MPI_Comm_rank()'
p2193
S'27'
p2194
tp2195
a(S'MPI_Comm_size()'
p2196
S'28'
p2197
tp2198
a(S'MPI_Finalize()'
p2199
S'77'
p2200
tp2201
asS'ga/comex/src-mpi-pt/comex.c'
p2202
(lp2203
(S'MPI_Initialized()'
p2204
S'279'
p2205
tp2206
a(S'MPI_Query_thread()'
p2207
S'284'
p2208
tp2209
a(S'MPI_Barrier()'
p2210
S'345'
p2211
tp2212
a(S'MPI_Barrier()'
p2213
S'374'
p2214
tp2215
a(S'MPI_Initialized()'
p2216
S'389'
p2217
tp2218
a(S'MPI_Init_thread()'
p2219
S'394'
p2220
tp2221
a(S'MPI_Barrier()'
p2222
S'459'
p2223
tp2224
a(S'MPI_Abort()'
p2225
S'493'
p2226
tp2227
a(S'MPI_Barrier()'
p2228
S'838'
p2229
tp2230
a(S'MPI_Allgather()'
p2231
S'1564'
p2232
tp2233
a(S'MPI_Barrier()'
p2234
S'1585'
p2235
tp2236
a(S'MPI_Allgather()'
p2237
S'1766'
p2238
tp2239
a(S'MPI_Type_contiguous()'
p2240
S'1896'
p2241
tp2242
a(S'MPI_Type_commit()'
p2243
S'1898'
p2244
tp2245
a(S'MPI_Allgather()'
p2246
S'1945'
p2247
tp2248
a(S'MPI_Allgather()'
p2249
S'2092'
p2250
tp2251
a(S'MPI_Recv()'
p2252
S'2250'
p2253
tp2254
a(S'X_MPI_ANY_SOURCE()'
p2255
S'2251'
p2256
tp2257
a(S'MPI_Get_count()'
p2258
S'2252'
p2259
tp2260
a(S'MPI_Recv()'
p2261
S'2369'
p2262
tp2263
a(S'MPI_Recv()'
p2264
S'2724'
p2265
tp2266
a(S'MPI_Group_translate_ranks()'
p2267
S'3395'
p2268
tp2269
a(S'MPI_Group_translate_ranks()'
p2270
S'3417'
p2271
tp2272
a(S'MPI_Abort()'
p2273
S'3610'
p2274
tp2275
a(S'MPI_Send()'
p2276
S'3657'
p2277
tp2278
a(S'MPI_Recv()'
p2279
S'3670'
p2280
tp2281
a(S'MPI_Get_count()'
p2282
S'3677'
p2283
tp2284
a(S'MPI_Isend()'
p2285
S'3709'
p2286
tp2287
a(S'MPI_Irecv()'
p2288
S'3760'
p2289
tp2290
a(S'MPI_Irecv()'
p2291
S'3798'
p2292
tp2293
a(S'MPI_Irecv()'
p2294
S'3835'
p2295
tp2296
a(S'MPI_Abort()'
p2297
S'3872'
p2298
tp2299
a(S'MPI_Wait()'
p2300
S'3913'
p2301
tp2302
a(S'MPI_Wait()'
p2303
S'3964'
p2304
tp2305
asS'ga/armci/src-portals/fence.c'
p2306
(lp2307
(S'MPI_Barrier()'
p2308
S'84'
p2309
tp2310
asS'ga/global/testing/unit-tests/ga_fillpatch.c'
p2311
(lp2312
(S'MPI_Init()'
p2313
S'69'
p2314
tp2315
a(S'MPI_Comm_rank()'
p2316
S'71'
p2317
tp2318
a(S'MPI_Comm_size()'
p2319
S'72'
p2320
tp2321
a(S'MPI_Finalize()'
p2322
S'85'
p2323
tp2324
asS'ga/armci/src/common/armci.c'
p2325
(lp2326
(S'MPI_Comm_get_parent()'
p2327
S'345'
p2328
tp2329
a(S'MPI_Query_thread()'
p2330
S'411'
p2331
tp2332
a(S'MPI_Comm_free()'
p2333
S'657'
p2334
tp2335
asS'ga/global/testing/unit-tests/ga_put2.c'
p2336
(lp2337
(S'MPI_Init()'
p2338
S'23'
p2339
tp2340
a(S'MPI_Comm_rank()'
p2341
S'24'
p2342
tp2343
a(S'MPI_Comm_size()'
p2344
S'25'
p2345
tp2346
a(S'MPI_Finalize()'
p2347
S'65'
p2348
tp2349
asS'ga/comex/src-armci/armci.c'
p2350
(lp2351
(S'MPI_Comm_rank()'
p2352
S'33'
p2353
tp2354
a(S'MPI_Comm_size()'
p2355
S'35'
p2356
tp2357
a(S'MPI_Get_processor_name()'
p2358
S'42'
p2359
tp2360
a(S'MPI_Allgather()'
p2361
S'43'
p2362
tp2363
a(S'X_MPI_MAX_PROCESSOR_NAME()'
p2364
S'44'
p2365
tp2366
a(S'MPI_Barrier()'
p2367
S'85'
p2368
tp2369
asS'ga/cmx/testing/perf_amo.c'
p2370
(lp2371
(S'MPI_Finalize()'
p2372
S'88'
p2373
tp2374
asS'ga/global/testing/unit-tests/ga_destroy.c'
p2375
(lp2376
(S'MPI_Init()'
p2377
S'22'
p2378
tp2379
a(S'MPI_Comm_rank()'
p2380
S'24'
p2381
tp2382
a(S'MPI_Comm_size()'
p2383
S'25'
p2384
tp2385
a(S'MPI_Finalize()'
p2386
S'44'
p2387
tp2388
asS'ga/armci/src-portals/groups.c'
p2389
(lp2390
(S'MPI_Comm_compare()'
p2391
S'87'
p2392
tp2393
a(S'MPI_Group_size()'
p2394
S'111'
p2395
tp2396
a(S'MPI_Comm_group()'
p2397
S'124'
p2398
tp2399
a(S'MPI_Group_translate_ranks()'
p2400
S'125'
p2401
tp2402
a(S'MPI_Comm_group()'
p2403
S'164'
p2404
tp2405
a(S'MPI_Group_translate_ranks()'
p2406
S'165'
p2407
tp2408
a(S'MPI_Comm_free()'
p2409
S'363'
p2410
tp2411
a(S'MPI_Group_rank()'
p2412
S'466'
p2413
tp2414
a(S'MPI_Comm_dup()'
p2415
S'472'
p2416
tp2417
a(S'MPI_Intercomm_create()'
p2418
S'481'
p2419
tp2420
a(S'MPI_Comm_free()'
p2421
S'482'
p2422
tp2423
a(S'MPI_Intercomm_merge()'
p2424
S'483'
p2425
tp2426
a(S'MPI_Comm_free()'
p2427
S'484'
p2428
tp2429
a(S'MPI_Group_free()'
p2430
S'491'
p2431
tp2432
a(S'MPI_Comm_group()'
p2433
S'492'
p2434
tp2435
a(S'MPI_Comm_group()'
p2436
S'539'
p2437
tp2438
a(S'MPI_Group_rank()'
p2439
S'542'
p2440
tp2441
asS'ga/comex/testing/perf_contig.c'
p2442
(lp2443
(S'MPI_Finalize()'
p2444
S'70'
p2445
tp2446
asS'ga/global/testing/unit-tests/ga_lgop.c'
p2447
(lp2448
(S'MPI_Init()'
p2449
S'170'
p2450
tp2451
a(S'MPI_Comm_rank()'
p2452
S'174'
p2453
tp2454
a(S'MPI_Comm_size()'
p2455
S'175'
p2456
tp2457
a(S'MPI_Finalize()'
p2458
S'192'
p2459
tp2460
asS'ga/cmx/src-mpi-rma/cmx.c'
p2461
(lp2462
(S'MPI_Error_string()'
p2463
S'106'
p2464
tp2465
a(S'MPI_Win_get_group()'
p2466
S'117'
p2467
tp2468
a(S'MPI_Group_translate_ranks()'
p2469
S'119'
p2470
tp2471
a(S'MPI_Initialized()'
p2472
S'140'
p2473
tp2474
a(S'MPI_Comm_dup()'
p2475
S'145'
p2476
tp2477
a(S'MPI_Comm_rank()'
p2478
S'151'
p2479
tp2480
a(S'MPI_Comm_size()'
p2481
S'155'
p2482
tp2483
a(S'MPI_Barrier()'
p2484
S'180'
p2485
tp2486
a(S'MPI_Initialized()'
p2487
S'190'
p2488
tp2489
a(S'MPI_Init()'
p2490
S'193'
p2491
tp2492
a(S'MPI_Abort()'
p2493
S'211'
p2494
tp2495
a(S'MPI_Win_flush()'
p2496
S'264'
p2497
tp2498
a(S'MPI_Put()'
p2499
S'274'
p2500
tp2501
a(S'MPI_Win_flush_local()'
p2502
S'284'
p2503
tp2504
a(S'MPI_Rput()'
p2505
S'296'
p2506
tp2507
a(S'MPI_Wait()'
p2508
S'305'
p2509
tp2510
a(S'MPI_Win_lock()'
p2511
S'309'
p2512
tp2513
a(S'MPI_Put()'
p2514
S'311'
p2515
tp2516
a(S'MPI_Win_unlock()'
p2517
S'314'
p2518
tp2519
a(S'MPI_Win_flush()'
p2520
S'342'
p2521
tp2522
a(S'MPI_Get()'
p2523
S'347'
p2524
tp2525
a(S'MPI_Win_flush_local()'
p2526
S'350'
p2527
tp2528
a(S'MPI_Rget()'
p2529
S'353'
p2530
tp2531
a(S'MPI_Wait()'
p2532
S'356'
p2533
tp2534
a(S'MPI_Win_lock()'
p2535
S'360'
p2536
tp2537
a(S'MPI_Get()'
p2538
S'362'
p2539
tp2540
a(S'MPI_Win_unlock()'
p2541
S'365'
p2542
tp2543
a(S'MPI_Win_flush()'
p2544
S'474'
p2545
tp2546
a(S'MPI_Accumulate()'
p2547
S'479'
p2548
tp2549
a(S'MPI_Win_flush_local()'
p2550
S'482'
p2551
tp2552
a(S'MPI_Raccumulate()'
p2553
S'485'
p2554
tp2555
a(S'MPI_Wait()'
p2556
S'488'
p2557
tp2558
a(S'MPI_Win_lock()'
p2559
S'492'
p2560
tp2561
a(S'MPI_Accumulate()'
p2562
S'494'
p2563
tp2564
a(S'MPI_Win_unlock()'
p2565
S'497'
p2566
tp2567
a(S'MPI_Type_size()'
p2568
S'520'
p2569
tp2570
a(S'MPI_Type_create_subarray()'
p2571
S'543'
p2572
tp2573
a(S'X_MPI_BYTE()'
p2574
S'592'
p2575
tp2576
a(S'X_MPI_BYTE()'
p2577
S'594'
p2578
tp2579
a(S'MPI_Type_commit()'
p2580
S'595'
p2581
tp2582
a(S'MPI_Type_commit()'
p2583
S'597'
p2584
tp2585
a(S'MPI_Win_flush()'
p2586
S'600'
p2587
tp2588
a(S'MPI_Put()'
p2589
S'605'
p2590
tp2591
a(S'MPI_Win_flush_local()'
p2592
S'608'
p2593
tp2594
a(S'MPI_Rput()'
p2595
S'611'
p2596
tp2597
a(S'MPI_Wait()'
p2598
S'614'
p2599
tp2600
a(S'MPI_Win_lock()'
p2601
S'618'
p2602
tp2603
a(S'MPI_Put()'
p2604
S'620'
p2605
tp2606
a(S'MPI_Win_unlock()'
p2607
S'623'
p2608
tp2609
a(S'MPI_Type_free()'
p2610
S'626'
p2611
tp2612
a(S'MPI_Type_free()'
p2613
S'628'
p2614
tp2615
a(S'X_MPI_BYTE()'
p2616
S'668'
p2617
tp2618
a(S'X_MPI_BYTE()'
p2619
S'670'
p2620
tp2621
a(S'MPI_Type_commit()'
p2622
S'671'
p2623
tp2624
a(S'MPI_Type_commit()'
p2625
S'673'
p2626
tp2627
a(S'MPI_Win_flush()'
p2628
S'676'
p2629
tp2630
a(S'MPI_Get()'
p2631
S'681'
p2632
tp2633
a(S'MPI_Win_flush_local()'
p2634
S'684'
p2635
tp2636
a(S'MPI_Rget()'
p2637
S'687'
p2638
tp2639
a(S'MPI_Wait()'
p2640
S'690'
p2641
tp2642
a(S'MPI_Win_lock()'
p2643
S'694'
p2644
tp2645
a(S'MPI_Get()'
p2646
S'696'
p2647
tp2648
a(S'MPI_Win_unlock()'
p2649
S'699'
p2650
tp2651
a(S'MPI_Type_free()'
p2652
S'702'
p2653
tp2654
a(S'MPI_Type_free()'
p2655
S'704'
p2656
tp2657
a(S'X_MPI_INT()'
p2658
S'821'
p2659
tp2660
a(S'X_MPI_INT()'
p2661
S'823'
p2662
tp2663
a(S'X_MPI_LONG()'
p2664
S'832'
p2665
tp2666
a(S'X_MPI_LONG()'
p2667
S'834'
p2668
tp2669
a(S'X_MPI_FLOAT()'
p2670
S'843'
p2671
tp2672
a(S'X_MPI_FLOAT()'
p2673
S'845'
p2674
tp2675
a(S'X_MPI_DOUBLE()'
p2676
S'854'
p2677
tp2678
a(S'X_MPI_DOUBLE()'
p2679
S'856'
p2680
tp2681
a(S'X_MPI_FLOAT()'
p2682
S'871'
p2683
tp2684
a(S'X_MPI_FLOAT()'
p2685
S'873'
p2686
tp2687
a(S'X_MPI_DOUBLE()'
p2688
S'888'
p2689
tp2690
a(S'X_MPI_DOUBLE()'
p2691
S'890'
p2692
tp2693
a(S'MPI_Type_commit()'
p2694
S'894'
p2695
tp2696
a(S'MPI_Type_commit()'
p2697
S'896'
p2698
tp2699
a(S'MPI_Win_flush()'
p2700
S'899'
p2701
tp2702
a(S'MPI_Accumulate()'
p2703
S'904'
p2704
tp2705
a(S'X_MPI_SUM()'
p2706
S'905'
p2707
tp2708
a(S'MPI_Win_flush_local()'
p2709
S'907'
p2710
tp2711
a(S'MPI_Raccumulate()'
p2712
S'910'
p2713
tp2714
a(S'X_MPI_SUM()'
p2715
S'911'
p2716
tp2717
a(S'MPI_Wait()'
p2718
S'913'
p2719
tp2720
a(S'MPI_Win_lock()'
p2721
S'917'
p2722
tp2723
a(S'MPI_Accumulate()'
p2724
S'919'
p2725
tp2726
a(S'X_MPI_SUM()'
p2727
S'920'
p2728
tp2729
a(S'MPI_Win_unlock()'
p2730
S'922'
p2731
tp2732
a(S'MPI_Type_free()'
p2733
S'925'
p2734
tp2735
a(S'MPI_Type_free()'
p2736
S'927'
p2737
tp2738
a(S'MPI_Type_size()'
p2739
S'954'
p2740
tp2741
a(S'MPI_Type_create_struct()'
p2742
S'974'
p2743
tp2744
a(S'MPI_Type_create_struct()'
p2745
S'985'
p2746
tp2747
a(S'X_MPI_BYTE()'
p2748
S'1013'
p2749
tp2750
a(S'MPI_Type_commit()'
p2751
S'1014'
p2752
tp2753
a(S'MPI_Type_commit()'
p2754
S'1016'
p2755
tp2756
a(S'MPI_Win_flush()'
p2757
S'1019'
p2758
tp2759
a(S'MPI_Put()'
p2760
S'1024'
p2761
tp2762
a(S'MPI_Win_flush_local()'
p2763
S'1027'
p2764
tp2765
a(S'MPI_Rput()'
p2766
S'1030'
p2767
tp2768
a(S'MPI_Wait()'
p2769
S'1033'
p2770
tp2771
a(S'MPI_Win_lock()'
p2772
S'1037'
p2773
tp2774
a(S'MPI_Put()'
p2775
S'1039'
p2776
tp2777
a(S'MPI_Win_unlock()'
p2778
S'1042'
p2779
tp2780
a(S'MPI_Type_free()'
p2781
S'1045'
p2782
tp2783
a(S'MPI_Type_free()'
p2784
S'1047'
p2785
tp2786
a(S'X_MPI_BYTE()'
p2787
S'1075'
p2788
tp2789
a(S'MPI_Type_commit()'
p2790
S'1076'
p2791
tp2792
a(S'MPI_Type_commit()'
p2793
S'1078'
p2794
tp2795
a(S'MPI_Win_flush()'
p2796
S'1081'
p2797
tp2798
a(S'MPI_Get()'
p2799
S'1086'
p2800
tp2801
a(S'MPI_Win_flush_local()'
p2802
S'1089'
p2803
tp2804
a(S'MPI_Rget()'
p2805
S'1092'
p2806
tp2807
a(S'MPI_Wait()'
p2808
S'1095'
p2809
tp2810
a(S'MPI_Win_lock()'
p2811
S'1099'
p2812
tp2813
a(S'MPI_Get()'
p2814
S'1101'
p2815
tp2816
a(S'MPI_Win_unlock()'
p2817
S'1104'
p2818
tp2819
a(S'MPI_Type_free()'
p2820
S'1107'
p2821
tp2822
a(S'MPI_Type_free()'
p2823
S'1109'
p2824
tp2825
a(S'MPI_Type_size()'
p2826
S'1139'
p2827
tp2828
a(S'MPI_Type_size()'
p2829
S'1146'
p2830
tp2831
a(S'MPI_Type_create_struct()'
p2832
S'1312'
p2833
tp2834
a(S'MPI_Type_create_struct()'
p2835
S'1323'
p2836
tp2837
a(S'MPI_Type_commit()'
p2838
S'1377'
p2839
tp2840
a(S'MPI_Type_commit()'
p2841
S'1379'
p2842
tp2843
a(S'MPI_Win_flush()'
p2844
S'1382'
p2845
tp2846
a(S'MPI_Accumulate()'
p2847
S'1387'
p2848
tp2849
a(S'X_MPI_SUM()'
p2850
S'1388'
p2851
tp2852
a(S'MPI_Win_flush_local()'
p2853
S'1390'
p2854
tp2855
a(S'MPI_Raccumulate()'
p2856
S'1393'
p2857
tp2858
a(S'X_MPI_SUM()'
p2859
S'1394'
p2860
tp2861
a(S'MPI_Wait()'
p2862
S'1396'
p2863
tp2864
a(S'MPI_Win_lock()'
p2865
S'1400'
p2866
tp2867
a(S'MPI_Accumulate()'
p2868
S'1402'
p2869
tp2870
a(S'X_MPI_SUM()'
p2871
S'1403'
p2872
tp2873
a(S'MPI_Win_unlock()'
p2874
S'1405'
p2875
tp2876
a(S'MPI_Type_free()'
p2877
S'1408'
p2878
tp2879
a(S'MPI_Type_free()'
p2880
S'1410'
p2881
tp2882
a(S'MPI_Win_flush()'
p2883
S'1440'
p2884
tp2885
a(S'MPI_Barrier()'
p2886
S'1457'
p2887
tp2888
a(S'MPI_Alloc_mem()'
p2889
S'1475'
p2890
tp2891
a(S'MPI_Free_mem()'
p2892
S'1490'
p2893
tp2894
a(S'MPI_Barrier()'
p2895
S'1516'
p2896
tp2897
a(S'MPI_Comm_free()'
p2898
S'1520'
p2899
tp2900
a(S'MPI_Win_flush_local()'
p2901
S'1559'
p2902
tp2903
a(S'MPI_Wait()'
p2904
S'1563'
p2905
tp2906
a(S'MPI_Test()'
p2907
S'1585'
p2908
tp2909
a(S'MPI_Win_flush_all()'
p2910
S'1611'
p2911
tp2912
a(S'MPI_Win_fence()'
p2913
S'1613'
p2914
tp2915
a(S'MPI_Put()'
p2916
S'1649'
p2917
tp2918
a(S'MPI_Rput()'
p2919
S'1655'
p2920
tp2921
a(S'MPI_Get()'
p2922
S'1695'
p2923
tp2924
a(S'MPI_Rget()'
p2925
S'1701'
p2926
tp2927
a(S'MPI_Accumulate()'
p2928
S'1755'
p2929
tp2930
a(S'X_MPI_INT()'
p2931
S'1756'
p2932
tp2933
a(S'MPI_Raccumulate()'
p2934
S'1761'
p2935
tp2936
a(S'X_MPI_INT()'
p2937
S'1762'
p2938
tp2939
a(S'MPI_Accumulate()'
p2940
S'1778'
p2941
tp2942
a(S'X_MPI_LONG()'
p2943
S'1779'
p2944
tp2945
a(S'MPI_Raccumulate()'
p2946
S'1784'
p2947
tp2948
a(S'X_MPI_LONG()'
p2949
S'1785'
p2950
tp2951
a(S'MPI_Accumulate()'
p2952
S'1801'
p2953
tp2954
a(S'X_MPI_FLOAT()'
p2955
S'1802'
p2956
tp2957
a(S'MPI_Raccumulate()'
p2958
S'1807'
p2959
tp2960
a(S'X_MPI_FLOAT()'
p2961
S'1808'
p2962
tp2963
a(S'MPI_Accumulate()'
p2964
S'1824'
p2965
tp2966
a(S'X_MPI_DOUBLE()'
p2967
S'1825'
p2968
tp2969
a(S'MPI_Raccumulate()'
p2970
S'1830'
p2971
tp2972
a(S'X_MPI_DOUBLE()'
p2973
S'1831'
p2974
tp2975
a(S'MPI_Accumulate()'
p2976
S'1851'
p2977
tp2978
a(S'X_MPI_FLOAT()'
p2979
S'1852'
p2980
tp2981
a(S'MPI_Raccumulate()'
p2982
S'1857'
p2983
tp2984
a(S'X_MPI_FLOAT()'
p2985
S'1858'
p2986
tp2987
a(S'MPI_Accumulate()'
p2988
S'1878'
p2989
tp2990
a(S'X_MPI_DOUBLE()'
p2991
S'1879'
p2992
tp2993
a(S'MPI_Raccumulate()'
p2994
S'1884'
p2995
tp2996
a(S'X_MPI_DOUBLE()'
p2997
S'1885'
p2998
tp2999
a(S'X_MPI_BYTE()'
p3000
S'1939'
p3001
tp3002
a(S'X_MPI_BYTE()'
p3003
S'1941'
p3004
tp3005
a(S'MPI_Type_commit()'
p3006
S'1942'
p3007
tp3008
a(S'MPI_Type_commit()'
p3009
S'1943'
p3010
tp3011
a(S'MPI_Put()'
p3012
S'1945'
p3013
tp3014
a(S'MPI_Rput()'
p3015
S'1951'
p3016
tp3017
a(S'MPI_Type_free()'
p3018
S'1957'
p3019
tp3020
a(S'MPI_Type_free()'
p3021
S'1958'
p3022
tp3023
a(S'X_MPI_BYTE()'
p3024
S'2004'
p3025
tp3026
a(S'X_MPI_BYTE()'
p3027
S'2006'
p3028
tp3029
a(S'MPI_Type_commit()'
p3030
S'2007'
p3031
tp3032
a(S'MPI_Type_commit()'
p3033
S'2008'
p3034
tp3035
a(S'MPI_Get()'
p3036
S'2010'
p3037
tp3038
a(S'MPI_Rget()'
p3039
S'2016'
p3040
tp3041
a(S'MPI_Type_free()'
p3042
S'2022'
p3043
tp3044
a(S'MPI_Type_free()'
p3045
S'2023'
p3046
tp3047
a(S'X_MPI_INT()'
p3048
S'2084'
p3049
tp3050
a(S'X_MPI_INT()'
p3051
S'2086'
p3052
tp3053
a(S'X_MPI_LONG()'
p3054
S'2094'
p3055
tp3056
a(S'X_MPI_LONG()'
p3057
S'2096'
p3058
tp3059
a(S'X_MPI_FLOAT()'
p3060
S'2104'
p3061
tp3062
a(S'X_MPI_FLOAT()'
p3063
S'2106'
p3064
tp3065
a(S'X_MPI_DOUBLE()'
p3066
S'2114'
p3067
tp3068
a(S'X_MPI_DOUBLE()'
p3069
S'2116'
p3070
tp3071
a(S'X_MPI_FLOAT()'
p3072
S'2128'
p3073
tp3074
a(S'X_MPI_FLOAT()'
p3075
S'2130'
p3076
tp3077
a(S'X_MPI_DOUBLE()'
p3078
S'2142'
p3079
tp3080
a(S'X_MPI_DOUBLE()'
p3081
S'2144'
p3082
tp3083
a(S'MPI_Type_commit()'
p3084
S'2148'
p3085
tp3086
a(S'MPI_Type_commit()'
p3087
S'2149'
p3088
tp3089
a(S'MPI_Accumulate()'
p3090
S'2151'
p3091
tp3092
a(S'X_MPI_SUM()'
p3093
S'2152'
p3094
tp3095
a(S'MPI_Raccumulate()'
p3096
S'2157'
p3097
tp3098
a(S'X_MPI_SUM()'
p3099
S'2158'
p3100
tp3101
a(S'MPI_Type_free()'
p3102
S'2163'
p3103
tp3104
a(S'MPI_Type_free()'
p3105
S'2164'
p3106
tp3107
a(S'X_MPI_BYTE()'
p3108
S'2204'
p3109
tp3110
a(S'MPI_Type_commit()'
p3111
S'2205'
p3112
tp3113
a(S'MPI_Type_commit()'
p3114
S'2206'
p3115
tp3116
a(S'MPI_Put()'
p3117
S'2208'
p3118
tp3119
a(S'MPI_Rput()'
p3120
S'2214'
p3121
tp3122
a(S'MPI_Type_free()'
p3123
S'2220'
p3124
tp3125
a(S'MPI_Type_free()'
p3126
S'2221'
p3127
tp3128
a(S'X_MPI_BYTE()'
p3129
S'2256'
p3130
tp3131
a(S'MPI_Type_commit()'
p3132
S'2257'
p3133
tp3134
a(S'MPI_Type_commit()'
p3135
S'2258'
p3136
tp3137
a(S'MPI_Get()'
p3138
S'2260'
p3139
tp3140
a(S'MPI_Rget()'
p3141
S'2266'
p3142
tp3143
a(S'MPI_Type_free()'
p3144
S'2272'
p3145
tp3146
a(S'MPI_Type_free()'
p3147
S'2273'
p3148
tp3149
a(S'MPI_Type_commit()'
p3150
S'2332'
p3151
tp3152
a(S'MPI_Type_commit()'
p3153
S'2333'
p3154
tp3155
a(S'MPI_Accumulate()'
p3156
S'2335'
p3157
tp3158
a(S'X_MPI_SUM()'
p3159
S'2336'
p3160
tp3161
a(S'MPI_Raccumulate()'
p3162
S'2341'
p3163
tp3164
a(S'X_MPI_SUM()'
p3165
S'2342'
p3166
tp3167
a(S'MPI_Type_free()'
p3168
S'2347'
p3169
tp3170
a(S'MPI_Type_free()'
p3171
S'2348'
p3172
tp3173
a(S'MPI_Fetch_and_op()'
p3174
S'2380'
p3175
tp3176
a(S'X_MPI_SUM()'
p3177
S'2381'
p3178
tp3179
a(S'MPI_Win_flush()'
p3180
S'2383'
p3181
tp3182
a(S'MPI_Win_lock()'
p3183
S'2386'
p3184
tp3185
a(S'MPI_Fetch_and_op()'
p3186
S'2388'
p3187
tp3188
a(S'X_MPI_SUM()'
p3189
S'2389'
p3190
tp3191
a(S'MPI_Win_unlock()'
p3192
S'2391'
p3193
tp3194
a(S'MPI_Fetch_and_op()'
p3195
S'2397'
p3196
tp3197
a(S'X_MPI_SUM()'
p3198
S'2398'
p3199
tp3200
a(S'MPI_Win_flush()'
p3201
S'2400'
p3202
tp3203
a(S'MPI_Win_lock()'
p3204
S'2403'
p3205
tp3206
a(S'MPI_Fetch_and_op()'
p3207
S'2405'
p3208
tp3209
a(S'X_MPI_SUM()'
p3210
S'2406'
p3211
tp3212
a(S'MPI_Win_unlock()'
p3213
S'2408'
p3214
tp3215
a(S'MPI_Fetch_and_op()'
p3216
S'2414'
p3217
tp3218
a(S'X_MPI_REPLACE()'
p3219
S'2415'
p3220
tp3221
a(S'MPI_Win_flush()'
p3222
S'2417'
p3223
tp3224
a(S'MPI_Win_lock()'
p3225
S'2420'
p3226
tp3227
a(S'MPI_Fetch_and_op()'
p3228
S'2422'
p3229
tp3230
a(S'X_MPI_REPLACE()'
p3231
S'2423'
p3232
tp3233
a(S'MPI_Win_unlock()'
p3234
S'2425'
p3235
tp3236
a(S'MPI_Fetch_and_op()'
p3237
S'2431'
p3238
tp3239
a(S'X_MPI_REPLACE()'
p3240
S'2432'
p3241
tp3242
a(S'MPI_Win_flush()'
p3243
S'2434'
p3244
tp3245
a(S'MPI_Win_lock()'
p3246
S'2437'
p3247
tp3248
a(S'MPI_Fetch_and_op()'
p3249
S'2439'
p3250
tp3251
a(S'X_MPI_REPLACE()'
p3252
S'2440'
p3253
tp3254
a(S'MPI_Win_unlock()'
p3255
S'2442'
p3256
tp3257
a(S'MPI_Allreduce()'
p3258
S'2483'
p3259
tp3260
a(S'MPI_Alloc_mem()'
p3261
S'2500'
p3262
tp3263
a(S'MPI_Win_create()'
p3264
S'2507'
p3265
tp3266
a(S'MPI_Win_free()'
p3267
S'2525'
p3268
tp3269
a(S'MPI_Win_lock()'
p3270
S'2563'
p3271
tp3272
a(S'MPI_Get()'
p3273
S'2564'
p3274
tp3275
a(S'MPI_Put()'
p3276
S'2565'
p3277
tp3278
a(S'MPI_Win_unlock()'
p3279
S'2566'
p3280
tp3281
a(S'MPI_Recv()'
p3282
S'2576'
p3283
tp3284
a(S'MPI_Win_lock()'
p3285
S'2608'
p3286
tp3287
a(S'MPI_Get()'
p3288
S'2609'
p3289
tp3290
a(S'MPI_Put()'
p3291
S'2610'
p3292
tp3293
a(S'MPI_Win_unlock()'
p3294
S'2611'
p3295
tp3296
a(S'MPI_Send()'
p3297
S'2623'
p3298
tp3299
a(S'MPI_Comm_rank()'
p3300
S'2642'
p3301
tp3302
a(S'MPI_Comm_size()'
p3303
S'2643'
p3304
tp3305
a(S'MPI_Win_allocate()'
p3306
S'2668'
p3307
tp3308
a(S'MPI_Alloc_mem()'
p3309
S'2671'
p3310
tp3311
a(S'MPI_Win_create()'
p3312
S'2672'
p3313
tp3314
a(S'MPI_Win_lock_all()'
p3315
S'2676'
p3316
tp3317
a(S'MPI_Barrier()'
p3318
S'2682'
p3319
tp3320
a(S'MPI_Comm_rank()'
p3321
S'2725'
p3322
tp3323
a(S'MPI_Comm_size()'
p3324
S'2726'
p3325
tp3326
a(S'MPI_Win_unlock_all()'
p3327
S'2735'
p3328
tp3329
a(S'MPI_Win_free()'
p3330
S'2737'
p3331
tp3332
a(S'MPI_Free_mem()'
p3333
S'2740'
p3334
tp3335
a(S'MPI_Barrier()'
p3336
S'2744'
p3337
tp3338
asS'ga/comex/src-ofi/comex.c'
p3339
(lp3340
(S'MPI_CHKANDJUMP()'
p3341
S'399'
p3342
tp3343
a(S'MPI_Initialized()'
p3344
S'1186'
p3345
tp3346
a(S'MPI_Comm_dup()'
p3347
S'1191'
p3348
tp3349
a(S'MPI_Comm_rank()'
p3350
S'1196'
p3351
tp3352
a(S'MPI_Comm_size()'
p3353
S'1200'
p3354
tp3355
a(S'MPI_Comm_split_type()'
p3356
S'1205'
p3357
tp3358
a(S'MPI_Comm_rank()'
p3359
S'1210'
p3360
tp3361
a(S'MPI_Comm_size()'
p3362
S'1214'
p3363
tp3364
a(S'MPI_Comm_free()'
p3365
S'1216'
p3366
tp3367
a(S'MPI_Barrier()'
p3368
S'1234'
p3369
tp3370
a(S'MPI_Initialized()'
p3371
S'1247'
p3372
tp3373
a(S'MPI_CHKANDJUMP()'
p3374
S'1249'
p3375
tp3376
a(S'MPI_Abort()'
p3377
S'1269'
p3378
tp3379
a(S'MPI_CHKANDJUMP()'
p3380
S'1596'
p3381
tp3382
a(S'MPI_CHKANDJUMP()'
p3383
S'1725'
p3384
tp3385
a(S'MPI_CHKANDJUMP()'
p3386
S'1731'
p3387
tp3388
asS'ga/global/testing/unit-tests/ga_zerodiagonal.c'
p3389
(lp3390
(S'MPI_Init()'
p3391
S'25'
p3392
tp3393
a(S'MPI_Comm_rank()'
p3394
S'27'
p3395
tp3396
a(S'MPI_Comm_size()'
p3397
S'28'
p3398
tp3399
a(S'MPI_Finalize()'
p3400
S'63'
p3401
tp3402
asS'ga/global/testing/unit-tests/ga_duplicate.c'
p3403
(lp3404
(S'MPI_Init()'
p3405
S'24'
p3406
tp3407
a(S'MPI_Comm_rank()'
p3408
S'26'
p3409
tp3410
a(S'MPI_Comm_size()'
p3411
S'27'
p3412
tp3413
a(S'MPI_Finalize()'
p3414
S'64'
p3415
tp3416
asS'ga/global/testing/unit-tests/ga_add_constantpatch.c'
p3417
(lp3418
(S'MPI_Init()'
p3419
S'24'
p3420
tp3421
a(S'MPI_Comm_rank()'
p3422
S'26'
p3423
tp3424
a(S'MPI_Comm_size()'
p3425
S'27'
p3426
tp3427
a(S'MPI_Finalize()'
p3428
S'61'
p3429
tp3430
asS'ga/armci/testing/fork.c'
p3431
(lp3432
(S'MPI_Init()'
p3433
S'79'
p3434
tp3435
a(S'MPI_Finalize()'
p3436
S'80'
p3437
tp3438
asS'ga/armci/src-gemini/fence.c'
p3439
(lp3440
(S'MPI_Barrier()'
p3441
S'83'
p3442
tp3443
asS'ga/armci/testing/ipctest.c'
p3444
(lp3445
(S'MPI_Bcast()'
p3446
S'37'
p3447
tp3448
a(S'MPI_Barrier()'
p3449
S'52'
p3450
tp3451
a(S'MPI_Bcast()'
p3452
S'60'
p3453
tp3454
a(S'MPI_Barrier()'
p3455
S'71'
p3456
tp3457
a(S'MPI_Barrier()'
p3458
S'79'
p3459
tp3460
a(S'MPI_Barrier()'
p3461
S'97'
p3462
tp3463
a(S'MPI_Comm_size()'
p3464
S'106'
p3465
tp3466
a(S'MPI_Comm_rank()'
p3467
S'107'
p3468
tp3469
asS'ga/global/testing/unit-tests/ga_igop.c'
p3470
(lp3471
(S'MPI_Init()'
p3472
S'205'
p3473
tp3474
a(S'MPI_Comm_rank()'
p3475
S'209'
p3476
tp3477
a(S'MPI_Comm_size()'
p3478
S'210'
p3479
tp3480
a(S'MPI_Finalize()'
p3481
S'228'
p3482
tp3483
asS'ga/armci/src/devices/openib/openib.c'
p3484
(lp3485
(S'MPI_Alltoall()'
p3486
S'1288'
p3487
tp3488
a(S'MPI_Alltoall()'
p3489
S'1371'
p3490
tp3491
a(S'MPI_Wtime()'
p3492
S'1587'
p3493
tp3494
a(S'MPI_Allgather()'
p3495
S'4666'
p3496
tp3497
a(S'MPI_Alltoall()'
p3498
S'4668'
p3499
tp3500
a(S'MPI_Barrier()'
p3501
S'4876'
p3502
tp3503
a(S'MPI_Barrier()'
p3504
S'4881'
p3505
tp3506
asS'ga/armci/f90/testanb.f90'
p3507
(lp3508
(S'mpi_init()'
p3509
S'18'
p3510
tp3511
a(S'mpi_comm_rank()'
p3512
S'19'
p3513
tp3514
a(S'mpi_comm_size()'
p3515
S'20'
p3516
tp3517
a(S'mpi_finalize()'
p3518
S'44'
p3519
tp3520
asS'ga/comex/src-ofa/openib.c'
p3521
(lp3522
(S'MPI_Alltoall()'
p3523
S'201'
p3524
tp3525
a(S'MPI_Alltoall()'
p3526
S'205'
p3527
tp3528
a(S'MPI_Barrier()'
p3529
S'690'
p3530
tp3531
a(S'MPI_Barrier()'
p3532
S'784'
p3533
tp3534
asS'ga/global/testing/unit-tests/ga_add_patch.c'
p3535
(lp3536
(S'MPI_Init()'
p3537
S'25'
p3538
tp3539
a(S'MPI_Comm_rank()'
p3540
S'27'
p3541
tp3542
a(S'MPI_Comm_size()'
p3543
S'28'
p3544
tp3545
a(S'MPI_Finalize()'
p3546
S'89'
p3547
tp3548
asS'ga/global/testing/unit-tests/ga_add.c'
p3549
(lp3550
(S'MPI_Init()'
p3551
S'27'
p3552
tp3553
a(S'MPI_Comm_rank()'
p3554
S'29'
p3555
tp3556
a(S'MPI_Comm_size()'
p3557
S'30'
p3558
tp3559
a(S'MPI_Finalize()'
p3560
S'114'
p3561
tp3562
asS'ga/global/src/scalapack.F'
p3563
(lp3564
(S'MPI_Comm_group()'
p3565
S'3714'
p3566
tp3567
a(S'MPI_Group_incl()'
p3568
S'3718'
p3569
tp3570
a(S'mpi_comm_create()'
p3571
S'3722'
p3572
tp3573
a(S'MPI_comm_free()'
p3574
S'3958'
p3575
tp3576
a(S'MPI_Group_free()'
p3577
S'3962'
p3578
tp3579
asS'ga/global/testing/unit-tests/ga_create_irreg.c'
p3580
(lp3581
(S'MPI_Init()'
p3582
S'177'
p3583
tp3584
a(S'MPI_Comm_rank()'
p3585
S'179'
p3586
tp3587
a(S'MPI_Comm_size()'
p3588
S'180'
p3589
tp3590
a(S'MPI_Finalize()'
p3591
S'196'
p3592
tp3593
asS'ga/cmake/linalg-modules/util/get_mpi_vendor.c'
p3594
(lp3595
(S'MPI_Get_library_version()'
p3596
S'7'
p3597
tp3598
asS'ga/tcgmsg/tcgmsg-mpi/collect.c'
p3599
(lp3600
(S'MPI_Allreduce()'
p3601
S'80'
p3602
tp3603
a(S'MPI_Allreduce()'
p3604
S'150'
p3605
tp3606
a(S'MPI_Barrier()'
p3607
S'173'
p3608
tp3609
a(S'MPI_Bcast()'
p3610
S'186'
p3611
tp3612
asS'ga/global/testing/unit-tests/ga_create3.c'
p3613
(lp3614
(S'MPI_Init()'
p3615
S'39'
p3616
tp3617
a(S'MPI_Comm_rank()'
p3618
S'41'
p3619
tp3620
a(S'MPI_Comm_size()'
p3621
S'42'
p3622
tp3623
a(S'MPI_Finalize()'
p3624
S'56'
p3625
tp3626
asS'ga/comex/src-mpi-pr/comex.c'
p3627
(lp3628
(S'MPI_Initialized()'
p3629
S'370'
p3630
tp3631
a(S'MPI_Barrier()'
p3632
S'631'
p3633
tp3634
a(S'MPI_Barrier()'
p3635
S'646'
p3636
tp3637
a(S'MPI_Initialized()'
p3638
S'661'
p3639
tp3640
a(S'MPI_Init()'
p3641
S'665'
p3642
tp3643
a(S'MPI_Barrier()'
p3644
S'751'
p3645
tp3646
a(S'MPI_Abort()'
p3647
S'789'
p3648
tp3649
a(S'MPI_Barrier()'
p3650
S'1149'
p3651
tp3652
a(S'MPI_Allgather()'
p3653
S'1981'
p3654
tp3655
a(S'MPI_Allgather()'
p3656
S'2226'
p3657
tp3658
a(S'MPI_Allgather()'
p3659
S'2453'
p3660
tp3661
a(S'MPI_Type_contiguous()'
p3662
S'2582'
p3663
tp3664
a(S'MPI_Type_commit()'
p3665
S'2584'
p3666
tp3667
a(S'MPI_Allgather()'
p3668
S'2631'
p3669
tp3670
a(S'MPI_Type_free()'
p3671
S'2663'
p3672
tp3673
a(S'MPI_Allgather()'
p3674
S'2801'
p3675
tp3676
a(S'MPI_Allgather()'
p3677
S'3002'
p3678
tp3679
a(S'MPI_Recv()'
p3680
S'3179'
p3681
tp3682
a(S'X_MPI_ANY_SOURCE()'
p3683
S'3180'
p3684
tp3685
a(S'MPI_Get_count()'
p3686
S'3181'
p3687
tp3688
a(S'MPI_Barrier()'
p3689
S'3286'
p3690
tp3691
a(S'MPI_Finalize()'
p3692
S'3305'
p3693
tp3694
a(S'MPI_Type_commit()'
p3695
S'3464'
p3696
tp3697
a(S'MPI_Type_free()'
p3698
S'3469'
p3699
tp3700
a(S'MPI_Type_commit()'
p3701
S'3691'
p3702
tp3703
a(S'MPI_Type_free()'
p3704
S'3696'
p3705
tp3706
a(S'MPI_Group_translate_ranks()'
p3707
S'4567'
p3708
tp3709
a(S'MPI_Group_translate_ranks()'
p3710
S'4593'
p3711
tp3712
a(S'MPI_Allgather()'
p3713
S'4617'
p3714
tp3715
a(S'MPI_Abort()'
p3716
S'4924'
p3717
tp3718
a(S'MPI_Send()'
p3719
S'4971'
p3720
tp3721
a(S'MPI_Send()'
p3722
S'4987'
p3723
tp3724
a(S'MPI_Recv()'
p3725
S'4999'
p3726
tp3727
a(S'MPI_Get_count()'
p3728
S'5006'
p3729
tp3730
a(S'MPI_Recv()'
p3731
S'5017'
p3732
tp3733
a(S'MPI_Isend()'
p3734
S'5053'
p3735
tp3736
a(S'MPI_Isend()'
p3737
S'5086'
p3738
tp3739
a(S'MPI_Irecv()'
p3740
S'5138'
p3741
tp3742
a(S'MPI_Irecv()'
p3743
S'5177'
p3744
tp3745
a(S'MPI_Irecv()'
p3746
S'5216'
p3747
tp3748
a(S'MPI_Irecv()'
p3749
S'5254'
p3750
tp3751
a(S'MPI_Abort()'
p3752
S'5298'
p3753
tp3754
a(S'MPI_Wait()'
p3755
S'5350'
p3756
tp3757
a(S'MPI_Type_free()'
p3758
S'5358'
p3759
tp3760
a(S'MPI_Test()'
p3761
S'5395'
p3762
tp3763
a(S'MPI_Type_free()'
p3764
S'5404'
p3765
tp3766
a(S'MPI_Wait()'
p3767
S'5446'
p3768
tp3769
a(S'MPI_Type_free()'
p3770
S'5481'
p3771
tp3772
a(S'MPI_Test()'
p3773
S'5518'
p3774
tp3775
a(S'MPI_Type_free()'
p3776
S'5554'
p3777
tp3778
a(S'X_MPI_BYTE()'
p3779
S'6195'
p3780
tp3781
a(S'MPI_Type_commit()'
p3782
S'6196'
p3783
tp3784
a(S'MPI_Type_commit()'
p3785
S'6487'
p3786
tp3787
a(S'MPI_Error_string()'
p3788
S'7087'
p3789
tp3790
a(S'MPI_Type_size()'
p3791
S'7110'
p3792
tp3793
a(S'MPI_Type_create_subarray()'
p3794
S'7148'
p3795
tp3796
asS'ga/global/testing/unit-tests/ga_transpose2.c'
p3797
(lp3798
(S'MPI_Init()'
p3799
S'55'
p3800
tp3801
a(S'MPI_Comm_rank()'
p3802
S'57'
p3803
tp3804
a(S'MPI_Comm_size()'
p3805
S'58'
p3806
tp3807
a(S'MPI_Finalize()'
p3808
S'87'
p3809
tp3810
asS'ga/global/testing/unit-tests/ga_ndim2.c'
p3811
(lp3812
(S'MPI_Init()'
p3813
S'34'
p3814
tp3815
a(S'MPI_Comm_rank()'
p3816
S'36'
p3817
tp3818
a(S'MPI_Comm_size()'
p3819
S'37'
p3820
tp3821
a(S'MPI_Finalize()'
p3822
S'53'
p3823
tp3824
asS'ga/armci/examples/features/proc_affinity/computation_impact/computation_impact.c'
p3825
(lp3826
(S'MPI_Init()'
p3827
S'182'
p3828
tp3829
a(S'MPI_Comm_rank()'
p3830
S'183'
p3831
tp3832
a(S'MPI_Comm_size()'
p3833
S'184'
p3834
tp3835
a(S'MPI_Finalize()'
p3836
S'187'
p3837
tp3838
a(S'MPI_Barrier()'
p3839
S'201'
p3840
tp3841
a(S'MPI_Barrier()'
p3842
S'207'
p3843
tp3844
a(S'MPI_Barrier()'
p3845
S'208'
p3846
tp3847
a(S'MPI_Barrier()'
p3848
S'246'
p3849
tp3850
a(S'MPI_Barrier()'
p3851
S'247'
p3852
tp3853
a(S'MPI_Barrier()'
p3854
S'283'
p3855
tp3856
a(S'MPI_Barrier()'
p3857
S'284'
p3858
tp3859
a(S'MPI_Barrier()'
p3860
S'320'
p3861
tp3862
a(S'MPI_Barrier()'
p3863
S'356'
p3864
tp3865
a(S'MPI_Finalize()'
p3866
S'361'
p3867
tp3868
asS'ga/global/testing/unit-tests/ga_inquire.c'
p3869
(lp3870
(S'MPI_Init()'
p3871
S'24'
p3872
tp3873
a(S'MPI_Comm_rank()'
p3874
S'26'
p3875
tp3876
a(S'MPI_Comm_size()'
p3877
S'27'
p3878
tp3879
a(S'MPI_Finalize()'
p3880
S'51'
p3881
tp3882
asS'ga/armci/src-gemini/portals_ds.c'
p3883
(lp3884
(S'MPI_Comm_size()'
p3885
S'55'
p3886
tp3887
a(S'MPI_Comm_rank()'
p3888
S'56'
p3889
tp3890
asS'ga/comex/src-mpi-pr/groups.c'
p3891
(lp3892
(S'X_MPI_COMM_NULL()'
p3893
S'30'
p3894
tp3895
a(S'X_MPI_GROUP_NULL()'
p3896
S'31'
p3897
tp3898
a(S'X_MPI_COMM_NULL()'
p3899
S'36'
p3900
tp3901
a(S'MPI_Group_translate_ranks()'
p3902
S'183'
p3903
tp3904
a(S'MPI_Group_free()'
p3905
S'206'
p3906
tp3907
a(S'MPI_Comm_free()'
p3908
S'216'
p3909
tp3910
a(S'MPI_Allgather()'
p3911
S'272'
p3912
tp3913
a(S'MPI_Group_incl()'
p3914
S'318'
p3915
tp3916
a(S'MPI_Group_rank()'
p3917
S'327'
p3918
tp3919
a(S'MPI_Comm_dup()'
p3920
S'339'
p3921
tp3922
a(S'MPI_Intercomm_create()'
p3923
S'349'
p3924
tp3925
a(S'MPI_Comm_free()'
p3926
S'352'
p3927
tp3928
a(S'MPI_Intercomm_merge()'
p3929
S'354'
p3930
tp3931
a(S'MPI_Comm_free()'
p3932
S'356'
p3933
tp3934
a(S'MPI_Group_free()'
p3935
S'365'
p3936
tp3937
a(S'MPI_Comm_group()'
p3938
S'368'
p3939
tp3940
a(S'MPI_Comm_size()'
p3941
S'371'
p3942
tp3943
a(S'MPI_Comm_rank()'
p3944
S'373'
p3945
tp3946
a(S'MPI_Comm_dup()'
p3947
S'408'
p3948
tp3949
a(S'MPI_Comm_group()'
p3950
S'410'
p3951
tp3952
a(S'MPI_Comm_rank()'
p3953
S'412'
p3954
tp3955
a(S'MPI_Comm_size()'
p3956
S'414'
p3957
tp3958
a(S'MPI_Allgather()'
p3959
S'431'
p3960
tp3961
a(S'MPI_Comm_split()'
p3962
S'457'
p3963
tp3964
a(S'MPI_Comm_size()'
p3965
S'460'
p3966
tp3967
a(S'MPI_Comm_rank()'
p3968
S'461'
p3969
tp3970
a(S'MPI_Allreduce()'
p3971
S'464'
p3972
tp3973
a(S'MPI_Comm_free()'
p3974
S'493'
p3975
tp3976
a(S'MPI_Allgather()'
p3977
S'503'
p3978
tp3979
a(S'MPI_Comm_split()'
p3980
S'541'
p3981
tp3982
a(S'MPI_Comm_free()'
p3983
S'545'
p3984
tp3985
a(S'MPI_Comm_split()'
p3986
S'555'
p3987
tp3988
a(S'MPI_Comm_group()'
p3989
S'558'
p3990
tp3991
a(S'MPI_Comm_rank()'
p3992
S'560'
p3993
tp3994
a(S'MPI_Comm_size()'
p3995
S'562'
p3996
tp3997
a(S'MPI_Comm_split()'
p3998
S'570'
p3999
tp4000
a(S'MPI_Comm_rank()'
p4001
S'574'
p4002
tp4003
a(S'MPI_Comm_size()'
p4004
S'577'
p4005
tp4006
a(S'MPI_Comm_free()'
p4007
S'612'
p4008
tp4009
a(S'MPI_Group_free()'
p4010
S'614'
p4011
tp4012
a(S'MPI_Comm_free()'
p4013
S'616'
p4014
tp4015
asS'ga/armci/src/devices/mpi-spawn/mpi2_server.c'
p4016
(lp4017
(S'MPI_Finalize()'
p4018
S'169'
p4019
tp4020
a(S'MPI_Recv()'
p4021
S'226'
p4022
tp4023
a(S'MPI_Get_count()'
p4024
S'279'
p4025
tp4026
a(S'MPI_Send()'
p4027
S'330'
p4028
tp4029
a(S'MPI_Probe()'
p4030
S'373'
p4031
tp4032
a(S'MPI_Irecv()'
p4033
S'400'
p4034
tp4035
a(S'MPI_Waitany()'
p4036
S'419'
p4037
tp4038
a(S'MPI_Irecv()'
p4039
S'444'
p4040
tp4041
a(S'MPI_Comm_remote_size()'
p4042
S'460'
p4043
tp4044
a(S'MPI_Comm_rank()'
p4045
S'505'
p4046
tp4047
a(S'MPI_Comm_size()'
p4048
S'506'
p4049
tp4050
a(S'MPI_Get_processor_name()'
p4051
S'507'
p4052
tp4053
a(S'MPI_Get_version()'
p4054
S'508'
p4055
tp4056
a(S'MPI_Comm_get_parent()'
p4057
S'516'
p4058
tp4059
a(S'MPI_Recv()'
p4060
S'525'
p4061
tp4062
a(S'MPI_Recv()'
p4063
S'552'
p4064
tp4065
a(S'MPI_Recv()'
p4066
S'556'
p4067
tp4068
a(S'MPI_Barrier()'
p4069
S'572'
p4070
tp4071
asS'ga/armci/src-gemini/armci_portals.c'
p4072
(lp4073
(S'MPI_Comm_size()'
p4074
S'502'
p4075
tp4076
a(S'MPI_Comm_rank()'
p4077
S'503'
p4078
tp4079
a(S'MPI_Barrier()'
p4080
S'512'
p4081
tp4082
a(S'MPI_Barrier()'
p4083
S'519'
p4084
tp4085
a(S'MPI_Barrier()'
p4086
S'537'
p4087
tp4088
a(S'MPI_Barrier()'
p4089
S'539'
p4090
tp4091
asS'ga/global/testing/unit-tests/ga_scale_cols.c'
p4092
(lp4093
(S'MPI_Init()'
p4094
S'26'
p4095
tp4096
a(S'MPI_Comm_rank()'
p4097
S'28'
p4098
tp4099
a(S'MPI_Comm_size()'
p4100
S'29'
p4101
tp4102
a(S'MPI_Finalize()'
p4103
S'78'
p4104
tp4105
asS'ga/comex/testing/shift.c'
p4106
(lp4107
(S'MPI_Finalize()'
p4108
S'79'
p4109
tp4110
a(S'MPI_Allreduce()'
p4111
S'175'
p4112
tp4113
asS'ga/global/examples/scf/ft-scf.F'
p4114
(lp4115
(S'mpi_init()'
p4116
S'21'
p4117
tp4118
asS'ga/global/testing/thread_perf_contig.c'
p4119
(lp4120
(S'MPI_Init_thread()'
p4121
S'121'
p4122
tp4123
a(S'MPI_Finalize()'
p4124
S'448'
p4125
tp4126
asS'ga/global/testing/unit-tests/ga_gather2.c'
p4127
(lp4128
(S'MPI_Init()'
p4129
S'25'
p4130
tp4131
a(S'MPI_Comm_rank()'
p4132
S'29'
p4133
tp4134
a(S'MPI_Comm_size()'
p4135
S'30'
p4136
tp4137
a(S'MPI_Finalize()'
p4138
S'96'
p4139
tp4140
asS'ga/global/testing/unit-tests/ga_create_handle.c'
p4141
(lp4142
(S'MPI_Init()'
p4143
S'19'
p4144
tp4145
a(S'MPI_Comm_rank()'
p4146
S'21'
p4147
tp4148
a(S'MPI_Comm_size()'
p4149
S'22'
p4150
tp4151
a(S'MPI_Finalize()'
p4152
S'40'
p4153
tp4154
asS'ga/global/src/global.util.c'
p4155
(lp4156
(S'MPI_Wtime()'
p4157
S'1155'
p4158
tp4159
asS'ga/global/testing/cache_test.c'
p4160
(lp4161
(S'MPI_Init()'
p4162
S'105'
p4163
tp4164
a(S'MPI_Comm_rank()'
p4165
S'107'
p4166
tp4167
a(S'MPI_Comm_size()'
p4168
S'108'
p4169
tp4170
a(S'MPI_Finalize()'
p4171
S'371'
p4172
tp4173
asS'ga/cmx/src-mpi-pr/cmx.c'
p4174
(lp4175
(S'MPI_Initialized()'
p4176
S'360'
p4177
tp4178
a(S'MPI_Barrier()'
p4179
S'606'
p4180
tp4181
a(S'MPI_Barrier()'
p4182
S'622'
p4183
tp4184
a(S'MPI_Initialized()'
p4185
S'638'
p4186
tp4187
a(S'MPI_Init()'
p4188
S'642'
p4189
tp4190
a(S'MPI_Barrier()'
p4191
S'738'
p4192
tp4193
a(S'MPI_Abort()'
p4194
S'777'
p4195
tp4196
a(S'MPI_Barrier()'
p4197
S'1233'
p4198
tp4199
a(S'MPI_Allgather()'
p4200
S'2141'
p4201
tp4202
a(S'MPI_Allgather()'
p4203
S'2385'
p4204
tp4205
a(S'MPI_Allgather()'
p4206
S'2622'
p4207
tp4208
a(S'MPI_Type_contiguous()'
p4209
S'2763'
p4210
tp4211
a(S'MPI_Type_commit()'
p4212
S'2766'
p4213
tp4214
a(S'MPI_Allgather()'
p4215
S'2814'
p4216
tp4217
a(S'MPI_Type_free()'
p4218
S'2847'
p4219
tp4220
a(S'MPI_Allgather()'
p4221
S'3001'
p4222
tp4223
a(S'MPI_Allgather()'
p4224
S'3211'
p4225
tp4226
a(S'MPI_Recv()'
p4227
S'3398'
p4228
tp4229
a(S'X_MPI_ANY_SOURCE()'
p4230
S'3399'
p4231
tp4232
a(S'MPI_Get_count()'
p4233
S'3401'
p4234
tp4235
a(S'MPI_Barrier()'
p4236
S'3507'
p4237
tp4238
a(S'MPI_Finalize()'
p4239
S'3527'
p4240
tp4241
a(S'MPI_Type_commit()'
p4242
S'3686'
p4243
tp4244
a(S'MPI_Type_free()'
p4245
S'3691'
p4246
tp4247
a(S'MPI_Type_commit()'
p4248
S'3913'
p4249
tp4250
a(S'MPI_Type_free()'
p4251
S'3918'
p4252
tp4253
a(S'MPI_Group_translate_ranks()'
p4254
S'4789'
p4255
tp4256
a(S'MPI_Group_translate_ranks()'
p4257
S'4815'
p4258
tp4259
a(S'MPI_Allgather()'
p4260
S'4839'
p4261
tp4262
a(S'MPI_Abort()'
p4263
S'5146'
p4264
tp4265
a(S'MPI_Send()'
p4266
S'5193'
p4267
tp4268
a(S'MPI_Send()'
p4269
S'5210'
p4270
tp4271
a(S'MPI_Recv()'
p4272
S'5223'
p4273
tp4274
a(S'MPI_Get_count()'
p4275
S'5231'
p4276
tp4277
a(S'MPI_Recv()'
p4278
S'5243'
p4279
tp4280
a(S'MPI_Isend()'
p4281
S'5280'
p4282
tp4283
a(S'MPI_Isend()'
p4284
S'5314'
p4285
tp4286
a(S'MPI_Irecv()'
p4287
S'5367'
p4288
tp4289
a(S'MPI_Irecv()'
p4290
S'5407'
p4291
tp4292
a(S'MPI_Irecv()'
p4293
S'5447'
p4294
tp4295
a(S'MPI_Irecv()'
p4296
S'5486'
p4297
tp4298
a(S'MPI_Abort()'
p4299
S'5531'
p4300
tp4301
a(S'MPI_Wait()'
p4302
S'5584'
p4303
tp4304
a(S'MPI_Type_free()'
p4305
S'5593'
p4306
tp4307
a(S'MPI_Test()'
p4308
S'5631'
p4309
tp4310
a(S'MPI_Type_free()'
p4311
S'5641'
p4312
tp4313
a(S'MPI_Wait()'
p4314
S'5684'
p4315
tp4316
a(S'MPI_Type_free()'
p4317
S'5720'
p4318
tp4319
a(S'MPI_Test()'
p4320
S'5758'
p4321
tp4322
a(S'MPI_Type_free()'
p4323
S'5795'
p4324
tp4325
a(S'X_MPI_BYTE()'
p4326
S'6429'
p4327
tp4328
a(S'MPI_Type_commit()'
p4329
S'6430'
p4330
tp4331
a(S'MPI_Type_commit()'
p4332
S'6723'
p4333
tp4334
a(S'MPI_Error_string()'
p4335
S'7327'
p4336
tp4337
a(S'MPI_Type_size()'
p4338
S'7350'
p4339
tp4340
a(S'MPI_Type_create_subarray()'
p4341
S'7388'
p4342
tp4343
asS'ga/global/testing/unit-tests/ga_elem_maximumpatch.c'
p4344
(lp4345
(S'MPI_Init()'
p4346
S'24'
p4347
tp4348
a(S'MPI_Comm_rank()'
p4349
S'26'
p4350
tp4351
a(S'MPI_Comm_size()'
p4352
S'27'
p4353
tp4354
a(S'MPI_Finalize()'
p4355
S'70'
p4356
tp4357
asS'ga/comex/testing/test.c'
p4358
(lp4359
(S'MPI_Allreduce()'
p4360
S'87'
p4361
tp4362
a(S'MPI_Allreduce()'
p4363
S'109'
p4364
tp4365
a(S'MPI_Finalize()'
p4366
S'1987'
p4367
tp4368
asS'ga/tools/ga-wapi.c'
p4369
(lp4370
(S'MPI_Comm_rank()'
p4371
S'2709'
p4372
tp4373
a(S'MPI_Comm_size()'
p4374
S'2710'
p4375
tp4376
a(S'MPI_Comm_rank()'
p4377
S'2719'
p4378
tp4379
a(S'MPI_Comm_size()'
p4380
S'2720'
p4381
tp4382
asS'ga/armci/tools/armci_trace.c'
p4383
(lp4384
(S'MPI_Comm_rank()'
p4385
S'111'
p4386
tp4387
a(S'MPI_Reduce()'
p4388
S'113'
p4389
tp4390
a(S'MPI_Reduce()'
p4391
S'114'
p4392
tp4393
a(S'MPI_Reduce()'
p4394
S'119'
p4395
tp4396
a(S'MPI_Reduce()'
p4397
S'121'
p4398
tp4399
a(S'MPI_Reduce()'
p4400
S'127'
p4401
tp4402
a(S'MPI_Reduce()'
p4403
S'128'
p4404
tp4405
a(S'MPI_Reduce()'
p4406
S'133'
p4407
tp4408
a(S'MPI_Reduce()'
p4409
S'134'
p4410
tp4411
a(S'MPI_Reduce()'
p4412
S'139'
p4413
tp4414
a(S'MPI_Reduce()'
p4415
S'141'
p4416
tp4417
a(S'MPI_Reduce()'
p4418
S'148'
p4419
tp4420
a(S'MPI_Reduce()'
p4421
S'150'
p4422
tp4423
a(S'MPI_Reduce()'
p4424
S'157'
p4425
tp4426
a(S'MPI_Reduce()'
p4427
S'159'
p4428
tp4429
a(S'MPI_Reduce()'
p4430
S'165'
p4431
tp4432
a(S'MPI_Reduce()'
p4433
S'167'
p4434
tp4435
a(S'MPI_Reduce()'
p4436
S'174'
p4437
tp4438
a(S'MPI_Reduce()'
p4439
S'176'
p4440
tp4441
a(S'MPI_Reduce()'
p4442
S'183'
p4443
tp4444
a(S'MPI_Reduce()'
p4445
S'184'
p4446
tp4447
a(S'MPI_Reduce()'
p4448
S'189'
p4449
tp4450
a(S'MPI_Reduce()'
p4451
S'190'
p4452
tp4453
a(S'MPI_Reduce()'
p4454
S'195'
p4455
tp4456
a(S'MPI_Reduce()'
p4457
S'197'
p4458
tp4459
a(S'MPI_Reduce()'
p4460
S'204'
p4461
tp4462
a(S'MPI_Reduce()'
p4463
S'205'
p4464
tp4465
a(S'MPI_Reduce()'
p4466
S'210'
p4467
tp4468
a(S'MPI_Reduce()'
p4469
S'212'
p4470
tp4471
a(S'MPI_Reduce()'
p4472
S'218'
p4473
tp4474
a(S'MPI_Reduce()'
p4475
S'220'
p4476
tp4477
a(S'MPI_Reduce()'
p4478
S'227'
p4479
tp4480
a(S'MPI_Reduce()'
p4481
S'229'
p4482
tp4483
a(S'MPI_Reduce()'
p4484
S'235'
p4485
tp4486
a(S'MPI_Reduce()'
p4487
S'237'
p4488
tp4489
a(S'MPI_Reduce()'
p4490
S'243'
p4491
tp4492
a(S'MPI_Reduce()'
p4493
S'244'
p4494
tp4495
a(S'MPI_Reduce()'
p4496
S'249'
p4497
tp4498
a(S'MPI_Reduce()'
p4499
S'250'
p4500
tp4501
a(S'MPI_Reduce()'
p4502
S'255'
p4503
tp4504
a(S'MPI_Reduce()'
p4505
S'256'
p4506
tp4507
a(S'MPI_Reduce()'
p4508
S'261'
p4509
tp4510
a(S'MPI_Reduce()'
p4511
S'263'
p4512
tp4513
a(S'MPI_Reduce()'
p4514
S'270'
p4515
tp4516
a(S'MPI_Reduce()'
p4517
S'272'
p4518
tp4519
a(S'MPI_Reduce()'
p4520
S'279'
p4521
tp4522
a(S'MPI_Reduce()'
p4523
S'281'
p4524
tp4525
a(S'MPI_Reduce()'
p4526
S'287'
p4527
tp4528
a(S'MPI_Reduce()'
p4529
S'289'
p4530
tp4531
a(S'MPI_Reduce()'
p4532
S'296'
p4533
tp4534
a(S'MPI_Reduce()'
p4535
S'298'
p4536
tp4537
a(S'MPI_Reduce()'
p4538
S'304'
p4539
tp4540
a(S'MPI_Reduce()'
p4541
S'306'
p4542
tp4543
a(S'MPI_Reduce()'
p4544
S'313'
p4545
tp4546
a(S'MPI_Reduce()'
p4547
S'314'
p4548
tp4549
a(S'MPI_Reduce()'
p4550
S'319'
p4551
tp4552
a(S'MPI_Reduce()'
p4553
S'320'
p4554
tp4555
a(S'MPI_Reduce()'
p4556
S'325'
p4557
tp4558
a(S'MPI_Reduce()'
p4559
S'327'
p4560
tp4561
a(S'MPI_Reduce()'
p4562
S'333'
p4563
tp4564
a(S'MPI_Reduce()'
p4565
S'334'
p4566
tp4567
a(S'MPI_Reduce()'
p4568
S'339'
p4569
tp4570
a(S'MPI_Reduce()'
p4571
S'341'
p4572
tp4573
a(S'MPI_Reduce()'
p4574
S'348'
p4575
tp4576
a(S'MPI_Reduce()'
p4577
S'350'
p4578
tp4579
a(S'MPI_Reduce()'
p4580
S'357'
p4581
tp4582
a(S'MPI_Reduce()'
p4583
S'359'
p4584
tp4585
a(S'MPI_Reduce()'
p4586
S'366'
p4587
tp4588
a(S'MPI_Reduce()'
p4589
S'367'
p4590
tp4591
a(S'MPI_Reduce()'
p4592
S'372'
p4593
tp4594
a(S'MPI_Reduce()'
p4595
S'374'
p4596
tp4597
a(S'MPI_Reduce()'
p4598
S'381'
p4599
tp4600
a(S'MPI_Reduce()'
p4601
S'383'
p4602
tp4603
a(S'MPI_Reduce()'
p4604
S'389'
p4605
tp4606
a(S'MPI_Reduce()'
p4607
S'390'
p4608
tp4609
a(S'MPI_Reduce()'
p4610
S'395'
p4611
tp4612
a(S'MPI_Reduce()'
p4613
S'396'
p4614
tp4615
a(S'MPI_Reduce()'
p4616
S'401'
p4617
tp4618
a(S'MPI_Reduce()'
p4619
S'403'
p4620
tp4621
a(S'MPI_Reduce()'
p4622
S'409'
p4623
tp4624
a(S'MPI_Reduce()'
p4625
S'410'
p4626
tp4627
a(S'MPI_Reduce()'
p4628
S'415'
p4629
tp4630
a(S'MPI_Reduce()'
p4631
S'417'
p4632
tp4633
a(S'MPI_Reduce()'
p4634
S'424'
p4635
tp4636
a(S'MPI_Reduce()'
p4637
S'426'
p4638
tp4639
a(S'MPI_Reduce()'
p4640
S'432'
p4641
tp4642
a(S'MPI_Reduce()'
p4643
S'434'
p4644
tp4645
a(S'MPI_Reduce()'
p4646
S'441'
p4647
tp4648
a(S'MPI_Reduce()'
p4649
S'443'
p4650
tp4651
a(S'MPI_Reduce()'
p4652
S'450'
p4653
tp4654
a(S'MPI_Reduce()'
p4655
S'451'
p4656
tp4657
a(S'MPI_Reduce()'
p4658
S'456'
p4659
tp4660
a(S'MPI_Reduce()'
p4661
S'458'
p4662
tp4663
asS'ga/global/testing/unit-tests/ga_pgroup_create4.c'
p4664
(lp4665
(S'MPI_Init()'
p4666
S'21'
p4667
tp4668
a(S'MPI_Comm_rank()'
p4669
S'23'
p4670
tp4671
a(S'MPI_Comm_size()'
p4672
S'24'
p4673
tp4674
a(S'MPI_Finalize()'
p4675
S'68'
p4676
tp4677
asS'ga/global/testing/unit-tests/ga_set_data.c'
p4678
(lp4679
(S'MPI_Init()'
p4680
S'23'
p4681
tp4682
a(S'MPI_Comm_rank()'
p4683
S'25'
p4684
tp4685
a(S'MPI_Comm_size()'
p4686
S'26'
p4687
tp4688
a(S'MPI_Finalize()'
p4689
S'53'
p4690
tp4691
asS'ga/global/testing/unit-tests/ga_dgop.c'
p4692
(lp4693
(S'MPI_Init()'
p4694
S'174'
p4695
tp4696
a(S'MPI_Comm_rank()'
p4697
S'178'
p4698
tp4699
a(S'MPI_Comm_size()'
p4700
S'179'
p4701
tp4702
a(S'MPI_Finalize()'
p4703
S'196'
p4704
tp4705
asS'ga/comex/src-ofa/fence.c'
p4706
(lp4707
(S'MPI_Barrier()'
p4708
S'35'
p4709
tp4710
asS'ga/comex/src-template/groups.c'
p4711
(lp4712
(S'MPI_Group_rank()'
p4713
S'83'
p4714
tp4715
a(S'MPI_Group_size()'
p4716
S'97'
p4717
tp4718
a(S'MPI_Group_translate_ranks()'
p4719
S'125'
p4720
tp4721
a(S'MPI_Group_free()'
p4722
S'146'
p4723
tp4724
a(S'MPI_Comm_free()'
p4725
S'153'
p4726
tp4727
a(S'MPI_Group_incl()'
p4728
S'211'
p4729
tp4730
a(S'MPI_Group_rank()'
p4731
S'219'
p4732
tp4733
a(S'MPI_Comm_dup()'
p4734
S'226'
p4735
tp4736
a(S'MPI_Intercomm_create()'
p4737
S'235'
p4738
tp4739
a(S'MPI_Comm_free()'
p4740
S'237'
p4741
tp4742
a(S'MPI_Intercomm_merge()'
p4743
S'238'
p4744
tp4745
a(S'MPI_Comm_free()'
p4746
S'239'
p4747
tp4748
a(S'MPI_Group_free()'
p4749
S'247'
p4750
tp4751
a(S'MPI_Comm_group()'
p4752
S'249'
p4753
tp4754
a(S'MPI_Comm_group()'
p4755
S'269'
p4756
tp4757
a(S'MPI_Group_free()'
p4758
S'289'
p4759
tp4760
asS'ga/armci/src-portals/message.c'
p4761
(lp4762
(S'MPI_Barrier()'
p4763
S'431'
p4764
tp4765
a(S'MPI_Initialized()'
p4766
S'462'
p4767
tp4768
a(S'MPI_Init_thread()'
p4769
S'466'
p4770
tp4771
a(S'MPI_Init()'
p4772
S'468'
p4773
tp4774
a(S'MPI_Comm_dup()'
p4775
S'472'
p4776
tp4777
a(S'MPI_Comm_rank()'
p4778
S'488'
p4779
tp4780
a(S'MPI_Comm_size()'
p4781
S'512'
p4782
tp4783
a(S'MPI_Abort()'
p4784
S'553'
p4785
tp4786
a(S'MPI_Finalize()'
p4787
S'572'
p4788
tp4789
a(S'MPI_Bcast()'
p4790
S'820'
p4791
tp4792
a(S'MPI_Send()'
p4793
S'835'
p4794
tp4795
a(S'MPI_Recv()'
p4796
S'859'
p4797
tp4798
a(S'MPI_Recv()'
p4799
S'882'
p4800
tp4801
a(S'MPI_Barrier()'
p4802
S'1940'
p4803
tp4804
a(S'MPI_Comm_group()'
p4805
S'1972'
p4806
tp4807
a(S'MPI_Group_incl()'
p4808
S'1973'
p4809
tp4810
a(S'MPI_Comm_create()'
p4811
S'1975'
p4812
tp4813
a(S'MPI_Comm_free()'
p4814
S'1982'
p4815
tp4816
a(S'MPI_Group_free()'
p4817
S'1983'
p4818
tp4819
asS'ga/comex/src-portals4/comex.c'
p4820
(lp4821
(S'MPI_Initialized()'
p4822
S'119'
p4823
tp4824
a(S'MPI_Comm_dup()'
p4825
S'124'
p4826
tp4827
a(S'MPI_Comm_rank()'
p4828
S'129'
p4829
tp4830
a(S'MPI_Comm_size()'
p4831
S'133'
p4832
tp4833
a(S'MPI_Allgather()'
p4834
S'253'
p4835
tp4836
a(S'X_MPI_CHAR()'
p4837
S'255'
p4838
tp4839
a(S'MPI_Allgather()'
p4840
S'307'
p4841
tp4842
a(S'X_MPI_CHAR()'
p4843
S'309'
p4844
tp4845
a(S'MPI_Barrier()'
p4846
S'332'
p4847
tp4848
a(S'MPI_Initialized()'
p4849
S'342'
p4850
tp4851
a(S'MPI_Init()'
p4852
S'345'
p4853
tp4854
a(S'MPI_Abort()'
p4855
S'363'
p4856
tp4857
a(S'MPI_Barrier()'
p4858
S'581'
p4859
tp4860
a(S'MPI_Abort()'
p4861
S'596'
p4862
tp4863
a(S'MPI_Barrier()'
p4864
S'629'
p4865
tp4866
a(S'MPI_Comm_free()'
p4867
S'632'
p4868
tp4869
a(S'MPI_Allgather()'
p4870
S'1100'
p4871
tp4872
a(S'MPI_Barrier()'
p4873
S'1108'
p4874
tp4875
a(S'MPI_Barrier()'
p4876
S'1119'
p4877
tp4878
a(S'MPI_Barrier()'
p4879
S'1131'
p4880
tp4881
a(S'MPI_Barrier()'
p4882
S'1158'
p4883
tp4884
a(S'MPI_Comm_rank()'
p4885
S'1300'
p4886
tp4887
a(S'MPI_Comm_size()'
p4888
S'1302'
p4889
tp4890
a(S'MPI_Allgather()'
p4891
S'1309'
p4892
tp4893
a(S'MPI_Barrier()'
p4894
S'1313'
p4895
tp4896
a(S'MPI_Comm_rank()'
p4897
S'1340'
p4898
tp4899
a(S'MPI_Comm_size()'
p4900
S'1342'
p4901
tp4902
a(S'MPI_Allgather()'
p4903
S'1350'
p4904
tp4905
a(S'MPI_Barrier()'
p4906
S'1361'
p4907
tp4908
a(S'MPI_Abort()'
p4909
S'1390'
p4910
tp4911
a(S'MPI_Abort()'
p4912
S'1429'
p4913
tp4914
a(S'MPI_Abort()'
p4915
S'1523'
p4916
tp4917
a(S'MPI_Abort()'
p4918
S'1554'
p4919
tp4920
a(S'MPI_Abort()'
p4921
S'1604'
p4922
tp4923
asS'ga/armci/src/progress/fence.c'
p4924
(lp4925
(S'MPI_Barrier()'
p4926
S'117'
p4927
tp4928
asS'ga/cmx/testing/shift.c'
p4929
(lp4930
(S'MPI_Finalize()'
p4931
S'63'
p4932
tp4933
a(S'MPI_Allreduce()'
p4934
S'141'
p4935
tp4936
asS'ga/global/testing/unit-tests/ga_median.c'
p4937
(lp4938
(S'MPI_Init()'
p4939
S'19'
p4940
tp4941
a(S'MPI_Comm_rank()'
p4942
S'21'
p4943
tp4944
a(S'MPI_Comm_size()'
p4945
S'22'
p4946
tp4947
a(S'MPI_Finalize()'
p4948
S'91'
p4949
tp4950
asS'ga/global/src/base.c'
p4951
(lp4952
(S'MPI_Comm_dup()'
p4953
S'498'
p4954
tp4955
asS'ga/global/testing/unit-tests/ga_create_irreg3.c'
p4956
(lp4957
(S'MPI_Init()'
p4958
S'36'
p4959
tp4960
a(S'MPI_Comm_rank()'
p4961
S'38'
p4962
tp4963
a(S'MPI_Comm_size()'
p4964
S'39'
p4965
tp4966
a(S'MPI_Finalize()'
p4967
S'53'
p4968
tp4969
asS'ga/comex/src-mpi3/groups.c'
p4970
(lp4971
(S'MPI_Group_rank()'
p4972
S'88'
p4973
tp4974
a(S'MPI_Group_size()'
p4975
S'102'
p4976
tp4977
a(S'MPI_Group_translate_ranks()'
p4978
S'132'
p4979
tp4980
a(S'MPI_Group_free()'
p4981
S'155'
p4982
tp4983
a(S'MPI_Comm_free()'
p4984
S'162'
p4985
tp4986
a(S'MPI_Win_free()'
p4987
S'172'
p4988
tp4989
a(S'MPI_Group_incl()'
p4990
S'231'
p4991
tp4992
a(S'MPI_Group_rank()'
p4993
S'239'
p4994
tp4995
a(S'MPI_Comm_dup()'
p4996
S'246'
p4997
tp4998
a(S'MPI_Intercomm_create()'
p4999
S'255'
p5000
tp5001
a(S'MPI_Comm_free()'
p5002
S'257'
p5003
tp5004
a(S'MPI_Intercomm_merge()'
p5005
S'258'
p5006
tp5007
a(S'MPI_Comm_free()'
p5008
S'259'
p5009
tp5010
a(S'MPI_Comm_set_errhandler()'
p5011
S'267'
p5012
tp5013
a(S'MPI_Group_free()'
p5014
S'270'
p5015
tp5016
a(S'MPI_Comm_group()'
p5017
S'272'
p5018
tp5019
a(S'MPI_Comm_set_errhandler()'
p5020
S'291'
p5021
tp5022
a(S'MPI_Comm_group()'
p5023
S'296'
p5024
tp5025
a(S'MPI_Group_free()'
p5026
S'316'
p5027
tp5028
asS'ga/armci/examples/benchmarks/lu/armci_blocking/lu.c'
p5029
(lp5030
(S'MPI_Alloc_mem()'
p5031
S'156'
p5032
tp5033
a(S'MPI_Win_create()'
p5034
S'157'
p5035
tp5036
a(S'X_MPI_COMM_WORLD()'
p5037
S'158'
p5038
tp5039
a(S'MPI_Barrier()'
p5040
S'160'
p5041
tp5042
a(S'MPI_Win_free()'
p5043
S'231'
p5044
tp5045
a(S'MPI_Free_mem()'
p5046
S'232'
p5047
tp5048
a(S'MPI_Abort()'
p5049
S'383'
p5050
tp5051
a(S'MPI_Win_lock()'
p5052
S'385'
p5053
tp5054
a(S'MPI_Get()'
p5055
S'386'
p5056
tp5057
a(S'X_MPI_CHAR()'
p5058
S'387'
p5059
tp5060
a(S'MPI_Win_unlock()'
p5061
S'388'
p5062
tp5063
asS'ga/armci/testing/simple.c'
p5064
(lp5065
(S'MPI_Comm_rank()'
p5066
S'25'
p5067
tp5068
a(S'MPI_Comm_size()'
p5069
S'26'
p5070
tp5071
a(S'MPI_Barrier()'
p5072
S'33'
p5073
tp5074
a(S'MPI_Wtime()'
p5075
S'39'
p5076
tp5077
a(S'MPI_Wtime()'
p5078
S'43'
p5079
tp5080
a(S'MPI_Wtime()'
p5081
S'50'
p5082
tp5083
a(S'MPI_Wtime()'
p5084
S'52'
p5085
tp5086
a(S'MPI_Wtime()'
p5087
S'54'
p5088
tp5089
a(S'MPI_Barrier()'
p5090
S'60'
p5091
tp5092
a(S'MPI_Barrier()'
p5093
S'65'
p5094
tp5095
asS'ga/global/testing/lock.c'
p5096
(lp5097
(S'MPI_Finalize()'
p5098
S'142'
p5099
tp5100
asS'ga/global/examples/petsc.F'
p5101
(lp5102
(S'mpi_finalize()'
p5103
S'33'
p5104
tp5105
asS'ga/armci/examples/features/concurrency/multidma/multidma.c'
p5106
(lp5107
(S'MPI_Abort()'
p5108
S'59'
p5109
tp5110
a(S'MPI_Bcast()'
p5111
S'367'
p5112
tp5113
a(S'MPI_Gather()'
p5114
S'412'
p5115
tp5116
a(S'MPI_Gather()'
p5117
S'414'
p5118
tp5119
asS'ga/armci/src/devices/mpi-spawn/mpi2.h'
p5120
(lp5121
(S'X_MPI_SPAWN_DEBUG()'
p5122
g1083
tp5123
a(S'X_MPI_SPAWN_ZEROCOPY()'
p5124
S'8'
p5125
tp5126
asS'ga/armci/testing/clone.c'
p5127
(lp5128
(S'MPI_Init()'
p5129
S'85'
p5130
tp5131
a(S'MPI_Barrier()'
p5132
S'86'
p5133
tp5134
a(S'MPI_Finalize()'
p5135
S'87'
p5136
tp5137
asS'ga/armci/src-portals/portals_cp.c'
p5138
(lp5139
(S'MPI_Comm_rank()'
p5140
S'69'
p5141
tp5142
a(S'MPI_Comm_split()'
p5143
S'70'
p5144
tp5145
a(S'MPI_Comm_size()'
p5146
S'82'
p5147
tp5148
a(S'MPI_Comm_rank()'
p5149
S'83'
p5150
tp5151
a(S'MPI_Bcast()'
p5152
S'110'
p5153
tp5154
a(S'MPI_Barrier()'
p5155
S'157'
p5156
tp5157
a(S'MPI_Finalize()'
p5158
S'158'
p5159
tp5160
a(S'MPI_Comm_size()'
p5161
S'880'
p5162
tp5163
a(S'MPI_Comm_rank()'
p5164
S'881'
p5165
tp5166
a(S'MPI_Bcast()'
p5167
S'902'
p5168
tp5169
a(S'MPI_Bcast()'
p5170
S'903'
p5171
tp5172
a(S'MPI_Barrier()'
p5173
S'910'
p5174
tp5175
asS'ga/cmx/src-mpi-rma/groups.c'
p5176
(lp5177
(S'MPI_Group_rank()'
p5178
S'54'
p5179
tp5180
a(S'MPI_Group_size()'
p5181
S'67'
p5182
tp5183
a(S'MPI_Group_translate_ranks()'
p5184
S'98'
p5185
tp5186
a(S'MPI_Group_translate_ranks()'
p5187
S'113'
p5188
tp5189
a(S'MPI_Group_free()'
p5190
S'136'
p5191
tp5192
a(S'MPI_Comm_free()'
p5193
S'143'
p5194
tp5195
a(S'MPI_Win_free()'
p5196
S'153'
p5197
tp5198
a(S'MPI_Group_incl()'
p5199
S'210'
p5200
tp5201
a(S'MPI_Group_rank()'
p5202
S'218'
p5203
tp5204
a(S'MPI_Comm_dup()'
p5205
S'225'
p5206
tp5207
a(S'MPI_Intercomm_create()'
p5208
S'234'
p5209
tp5210
a(S'MPI_Comm_free()'
p5211
S'236'
p5212
tp5213
a(S'MPI_Intercomm_merge()'
p5214
S'237'
p5215
tp5216
a(S'MPI_Comm_free()'
p5217
S'238'
p5218
tp5219
a(S'MPI_Comm_set_errhandler()'
p5220
S'246'
p5221
tp5222
a(S'MPI_Group_free()'
p5223
S'249'
p5224
tp5225
a(S'MPI_Comm_group()'
p5226
S'251'
p5227
tp5228
a(S'MPI_Group_rank()'
p5229
S'254'
p5230
tp5231
a(S'MPI_Comm_rank()'
p5232
S'264'
p5233
tp5234
a(S'MPI_Comm_set_errhandler()'
p5235
S'272'
p5236
tp5237
a(S'MPI_Comm_group()'
p5238
S'277'
p5239
tp5240
a(S'MPI_Group_free()'
p5241
S'298'
p5242
tp5243
a(S'MPI_Comm_rank()'
p5244
S'319'
p5245
tp5246
asS'ga/tcgmsg/tcgmsg-mpi/misc.c'
p5247
(lp5248
(S'MPI_Comm_size()'
p5249
S'40'
p5250
tp5251
a(S'MPI_Comm_rank()'
p5252
S'57'
p5253
tp5254
a(S'MPI_Abort()'
p5255
S'71'
p5256
tp5257
a(S'MPI_Comm_size()'
p5258
S'88'
p5259
tp5260
a(S'MPI_Comm_group()'
p5261
S'90'
p5262
tp5263
a(S'MPI_Group_excl()'
p5264
S'91'
p5265
tp5266
a(S'MPI_Comm_create()'
p5267
S'92'
p5268
tp5269
a(S'MPI_Initialized()'
p5270
S'135'
p5271
tp5272
a(S'MPI_Init_thread()'
p5273
S'141'
p5274
tp5275
a(S'MPI_Init()'
p5276
S'143'
p5277
tp5278
a(S'MPI_Comm_set_errhandler()'
p5279
S'146'
p5280
tp5281
a(S'MPI_Errhandler_set()'
p5282
S'148'
p5283
tp5284
a(S'MPI_Comm_size()'
p5285
S'152'
p5286
tp5287
a(S'MPI_Comm_rank()'
p5288
S'153'
p5289
tp5290
a(S'MPI_Barrier()'
p5291
S'167'
p5292
tp5293
a(S'MPI_Barrier()'
p5294
S'192'
p5295
tp5296
a(S'MPI_Finalize()'
p5297
S'195'
p5298
tp5299
a(S'MPI_Wtime()'
p5300
S'207'
p5301
tp5302
a(S'MPI_Wtime()'
p5303
S'212'
p5304
tp5305
asS'ga/global/testing/unit-tests/ga_scale2.c'
p5306
(lp5307
(S'MPI_Init()'
p5308
S'86'
p5309
tp5310
a(S'MPI_Comm_rank()'
p5311
S'88'
p5312
tp5313
a(S'MPI_Comm_size()'
p5314
S'89'
p5315
tp5316
a(S'MPI_Finalize()'
p5317
S'103'
p5318
tp5319
asS'ga/comex/testing/perf_strided.c'
p5320
(lp5321
(S'MPI_Finalize()'
p5322
S'68'
p5323
tp5324
asS'ga/global/testing/unit-tests/ga_zeropatch.c'
p5325
(lp5326
(S'MPI_Init()'
p5327
S'27'
p5328
tp5329
a(S'MPI_Comm_rank()'
p5330
S'29'
p5331
tp5332
a(S'MPI_Comm_size()'
p5333
S'30'
p5334
tp5335
a(S'MPI_Finalize()'
p5336
S'84'
p5337
tp5338
asS'ga/cmx/src-armci/message.c'
p5339
(lp5340
(S'MPI_Comm_rank()'
p5341
S'187'
p5342
tp5343
a(S'MPI_Type_size()'
p5344
S'208'
p5345
tp5346
a(S'MPI_Allreduce()'
p5347
S'225'
p5348
tp5349
a(S'MPI_Bcast()'
p5350
S'238'
p5351
tp5352
a(S'MPI_Type_create_struct()'
p5353
S'285'
p5354
tp5355
a(S'MPI_Allreduce()'
p5356
S'311'
p5357
tp5358
a(S'MPI_Bcast()'
p5359
S'334'
p5360
tp5361
a(S'MPI_Comm_rank()'
p5362
S'361'
p5363
tp5364
a(S'MPI_Isend()'
p5365
S'366'
p5366
tp5367
a(S'MPI_Test()'
p5368
S'377'
p5369
tp5370
a(S'MPI_Comm_rank()'
p5371
S'396'
p5372
tp5373
a(S'MPI_Irecv()'
p5374
S'401'
p5375
tp5376
a(S'MPI_Test()'
p5377
S'405'
p5378
tp5379
a(S'MPI_Test()'
p5380
S'415'
p5381
tp5382
a(S'MPI_Get_count()'
p5383
S'423'
p5384
tp5385
a(S'MPI_Comm_rank()'
p5386
S'438'
p5387
tp5388
a(S'MPI_Irecv()'
p5389
S'443'
p5390
tp5391
a(S'MPI_Test()'
p5392
S'446'
p5393
tp5394
a(S'MPI_Get_count()'
p5395
S'454'
p5396
tp5397
a(S'MPI_Barrier()'
p5398
S'530'
p5399
tp5400
a(S'MPI_Comm_rank()'
p5401
S'560'
p5402
tp5403
a(S'MPI_Comm_size()'
p5404
S'570'
p5405
tp5406
a(S'MPI_Abort()'
p5407
S'578'
p5408
tp5409
a(S'MPI_Initialized()'
p5410
S'585'
p5411
tp5412
a(S'MPI_Init()'
p5413
S'587'
p5414
tp5415
a(S'MPI_Initialized()'
p5416
S'595'
p5417
tp5418
a(S'MPI_Finalize()'
p5419
S'597'
p5420
tp5421
a(S'MPI_Allgather()'
p5422
S'702'
p5423
tp5424
a(S'MPI_Barrier()'
p5425
S'712'
p5426
tp5427
a(S'MPI_Bcast()'
p5428
S'719'
p5429
tp5430
a(S'MPI_Comm_group()'
p5431
S'731'
p5432
tp5433
a(S'MPI_Comm_group()'
p5434
S'733'
p5435
tp5436
a(S'MPI_Group_translate_ranks()'
p5437
S'735'
p5438
tp5439
a(S'MPI_Bcast()'
p5440
S'738'
p5441
tp5442
asS'ga/armci/testing/origptl.c'
p5443
(lp5444
(S'MPI_Init()'
p5445
S'54'
p5446
tp5447
a(S'MPI_Finalize()'
p5448
S'55'
p5449
tp5450
asS'ga/global/testing/unit-tests/ga_acc.c'
p5451
(lp5452
(S'MPI_Init()'
p5453
S'24'
p5454
tp5455
a(S'MPI_Comm_rank()'
p5456
S'25'
p5457
tp5458
a(S'MPI_Comm_size()'
p5459
S'26'
p5460
tp5461
a(S'MPI_Finalize()'
p5462
S'64'
p5463
tp5464
asS'ga/global/testing/unit-tests/ga_intialize.c'
p5465
(lp5466
(S'MPI_Init()'
p5467
S'21'
p5468
tp5469
a(S'MPI_Comm_rank()'
p5470
S'23'
p5471
tp5472
a(S'MPI_Comm_size()'
p5473
S'24'
p5474
tp5475
a(S'MPI_Finalize()'
p5476
S'41'
p5477
tp5478
asS'ga/comex/src-mpi-pt/groups.c'
p5479
(lp5480
(S'X_MPI_COMM_NULL()'
p5481
S'29'
p5482
tp5483
a(S'X_MPI_GROUP_NULL()'
p5484
S'30'
p5485
tp5486
a(S'MPI_Group_translate_ranks()'
p5487
S'178'
p5488
tp5489
a(S'MPI_Group_free()'
p5490
S'201'
p5491
tp5492
a(S'MPI_Comm_free()'
p5493
S'211'
p5494
tp5495
a(S'MPI_Group_incl()'
p5496
S'291'
p5497
tp5498
a(S'MPI_Group_rank()'
p5499
S'300'
p5500
tp5501
a(S'MPI_Comm_dup()'
p5502
S'312'
p5503
tp5504
a(S'MPI_Intercomm_create()'
p5505
S'322'
p5506
tp5507
a(S'MPI_Comm_free()'
p5508
S'325'
p5509
tp5510
a(S'MPI_Intercomm_merge()'
p5511
S'327'
p5512
tp5513
a(S'MPI_Comm_free()'
p5514
S'329'
p5515
tp5516
a(S'MPI_Group_free()'
p5517
S'338'
p5518
tp5519
a(S'MPI_Comm_group()'
p5520
S'341'
p5521
tp5522
a(S'MPI_Comm_size()'
p5523
S'344'
p5524
tp5525
a(S'MPI_Comm_rank()'
p5526
S'346'
p5527
tp5528
a(S'MPI_Comm_dup()'
p5529
S'380'
p5530
tp5531
a(S'MPI_Comm_group()'
p5532
S'382'
p5533
tp5534
a(S'MPI_Comm_rank()'
p5535
S'384'
p5536
tp5537
a(S'MPI_Comm_size()'
p5538
S'386'
p5539
tp5540
a(S'MPI_Allgather()'
p5541
S'403'
p5542
tp5543
a(S'MPI_Allgather()'
p5544
S'426'
p5545
tp5546
a(S'MPI_Comm_dup()'
p5547
S'435'
p5548
tp5549
a(S'MPI_Comm_group()'
p5550
S'437'
p5551
tp5552
a(S'MPI_Comm_rank()'
p5553
S'439'
p5554
tp5555
a(S'MPI_Comm_size()'
p5556
S'441'
p5557
tp5558
a(S'MPI_Comm_split()'
p5559
S'459'
p5560
tp5561
a(S'MPI_Comm_rank()'
p5562
S'463'
p5563
tp5564
a(S'MPI_Comm_size()'
p5565
S'466'
p5566
tp5567
a(S'MPI_Comm_free()'
p5568
S'500'
p5569
tp5570
a(S'MPI_Group_free()'
p5571
S'502'
p5572
tp5573
a(S'MPI_Comm_free()'
p5574
S'504'
p5575
tp5576
asS'ga/global/testing/unit-tests/ga_create1.c'
p5577
(lp5578
(S'MPI_Init()'
p5579
S'35'
p5580
tp5581
a(S'MPI_Comm_rank()'
p5582
S'37'
p5583
tp5584
a(S'MPI_Comm_size()'
p5585
S'38'
p5586
tp5587
a(S'MPI_Finalize()'
p5588
S'51'
p5589
tp5590
asS'ga/tools/wapigen_trace.py'
p5591
(lp5592
(S'MPI_Wtime()'
p5593
S'443'
p5594
tp5595
a(S'MPI_Abort()'
p5596
S'457'
p5597
tp5598
a(S'MPI_Abort()'
p5599
S'464'
p5600
tp5601
a(S'MPI_Abort()'
p5602
S'476'
p5603
tp5604
asS'ga/global/testing/unit-tests/ga_create.c'
p5605
(lp5606
(S'MPI_Init()'
p5607
S'100'
p5608
tp5609
a(S'MPI_Comm_rank()'
p5610
S'102'
p5611
tp5612
a(S'MPI_Comm_size()'
p5613
S'103'
p5614
tp5615
a(S'MPI_Finalize()'
p5616
S'123'
p5617
tp5618
asS'ga/armci/src/devices/mpi-mt/mpi2_server.c'
p5619
(lp5620
(S'MPI_Send()'
p5621
S'108'
p5622
tp5623
a(S'MPI_Recv()'
p5624
S'115'
p5625
tp5626
a(S'MPI_Finalize()'
p5627
S'150'
p5628
tp5629
a(S'MPI_Recv()'
p5630
S'202'
p5631
tp5632
a(S'MPI_Send()'
p5633
S'272'
p5634
tp5635
a(S'MPI_Iprobe()'
p5636
S'313'
p5637
tp5638
a(S'MPI_Probe()'
p5639
S'320'
p5640
tp5641
asS'ga/global/examples/lennard-jones/lennard.c'
p5642
(lp5643
(S'MPI_Finalize()'
p5644
S'766'
p5645
tp5646
asS'ga/global/testing/mp3.h'
p5647
(lp5648
(S'MPI_Init_thread()'
p5649
S'44'
p5650
tp5651
a(S'MPI_Abort()'
p5652
S'56'
p5653
tp5654
asS'ga/armci/src-gemini/armci.c'
p5655
(lp5656
(S'MPI_Comm_free()'
p5657
S'439'
p5658
tp5659
asS'ga/global/testing/ga-mpi.c'
p5660
(lp5661
(S'MPI_Barrier()'
p5662
S'110'
p5663
tp5664
a(S'MPI_Comm_split()'
p5665
S'112'
p5666
tp5667
a(S'MPI_Comm_split()'
p5668
S'114'
p5669
tp5670
a(S'MPI_Comm_rank()'
p5671
S'118'
p5672
tp5673
a(S'MPI_Reduce()'
p5674
S'130'
p5675
tp5676
a(S'MPI_Finalize()'
p5677
S'182'
p5678
tp5679
asS'ga/global/testing/unit-tests/ga_create_irreg2.c'
p5680
(lp5681
(S'MPI_Init()'
p5682
S'180'
p5683
tp5684
a(S'MPI_Comm_rank()'
p5685
S'182'
p5686
tp5687
a(S'MPI_Comm_size()'
p5688
S'183'
p5689
tp5690
a(S'MPI_Finalize()'
p5691
S'199'
p5692
tp5693
asS'ga/m4/ga_mpif77_test.m4'
p5694
(lp5695
(S'MPI_Init()'
p5696
g1093
tp5697
a(S'MPI_Finalize()'
p5698
S'10'
p5699
tp5700
asS'ga/global/testing/unit-tests/ga_put.c'
p5701
(lp5702
(S'MPI_Init()'
p5703
S'24'
p5704
tp5705
a(S'MPI_Comm_rank()'
p5706
S'26'
p5707
tp5708
a(S'MPI_Comm_size()'
p5709
S'27'
p5710
tp5711
a(S'MPI_Finalize()'
p5712
S'99'
p5713
tp5714
asS'ga/armci/src-gemini/message.c'
p5715
(lp5716
(S'MPI_Barrier()'
p5717
S'431'
p5718
tp5719
a(S'MPI_Initialized()'
p5720
S'462'
p5721
tp5722
a(S'MPI_Init_thread()'
p5723
S'466'
p5724
tp5725
a(S'MPI_Init()'
p5726
S'468'
p5727
tp5728
a(S'MPI_Comm_dup()'
p5729
S'472'
p5730
tp5731
a(S'MPI_Comm_rank()'
p5732
S'488'
p5733
tp5734
a(S'MPI_Comm_size()'
p5735
S'512'
p5736
tp5737
a(S'MPI_Abort()'
p5738
S'553'
p5739
tp5740
a(S'MPI_Finalize()'
p5741
S'572'
p5742
tp5743
a(S'MPI_Bcast()'
p5744
S'820'
p5745
tp5746
a(S'MPI_Send()'
p5747
S'835'
p5748
tp5749
a(S'MPI_Recv()'
p5750
S'859'
p5751
tp5752
a(S'MPI_Recv()'
p5753
S'882'
p5754
tp5755
a(S'MPI_Barrier()'
p5756
S'1940'
p5757
tp5758
a(S'MPI_Comm_group()'
p5759
S'1972'
p5760
tp5761
a(S'MPI_Group_incl()'
p5762
S'1973'
p5763
tp5764
a(S'MPI_Comm_create()'
p5765
S'1975'
p5766
tp5767
a(S'MPI_Comm_free()'
p5768
S'1982'
p5769
tp5770
a(S'MPI_Group_free()'
p5771
S'1983'
p5772
tp5773
asS'ga/comex/src-mpi/groups.c'
p5774
(lp5775
(S'MPI_Group_rank()'
p5776
S'83'
p5777
tp5778
a(S'MPI_Group_size()'
p5779
S'97'
p5780
tp5781
a(S'MPI_Group_translate_ranks()'
p5782
S'125'
p5783
tp5784
a(S'MPI_Group_free()'
p5785
S'146'
p5786
tp5787
a(S'MPI_Comm_free()'
p5788
S'153'
p5789
tp5790
a(S'MPI_Group_incl()'
p5791
S'211'
p5792
tp5793
a(S'MPI_Group_rank()'
p5794
S'219'
p5795
tp5796
a(S'MPI_Comm_dup()'
p5797
S'226'
p5798
tp5799
a(S'MPI_Intercomm_create()'
p5800
S'235'
p5801
tp5802
a(S'MPI_Comm_free()'
p5803
S'237'
p5804
tp5805
a(S'MPI_Intercomm_merge()'
p5806
S'238'
p5807
tp5808
a(S'MPI_Comm_free()'
p5809
S'239'
p5810
tp5811
a(S'MPI_Group_free()'
p5812
S'247'
p5813
tp5814
a(S'MPI_Comm_group()'
p5815
S'249'
p5816
tp5817
a(S'MPI_Comm_group()'
p5818
S'269'
p5819
tp5820
a(S'MPI_Group_free()'
p5821
S'289'
p5822
tp5823
asS'ga/global/testing/unit-tests/ga_nnodes.c'
p5824
(lp5825
(S'MPI_Init()'
p5826
S'23'
p5827
tp5828
a(S'MPI_Comm_rank()'
p5829
S'25'
p5830
tp5831
a(S'MPI_Comm_size()'
p5832
S'26'
p5833
tp5834
a(S'MPI_Finalize()'
p5835
S'38'
p5836
tp5837
asS'ga/comex/src-dmapp/comex.c'
p5838
(lp5839
(S'MPI_Barrier()'
p5840
S'864'
p5841
tp5842
a(S'MPI_Abort()'
p5843
S'875'
p5844
tp5845
a(S'MPI_Barrier()'
p5846
S'967'
p5847
tp5848
a(S'MPI_Initialized()'
p5849
S'1022'
p5850
tp5851
a(S'MPI_Comm_dup()'
p5852
S'1027'
p5853
tp5854
a(S'MPI_Comm_rank()'
p5855
S'1032'
p5856
tp5857
a(S'MPI_Comm_size()'
p5858
S'1037'
p5859
tp5860
a(S'MPI_Barrier()'
p5861
S'1061'
p5862
tp5863
a(S'MPI_Initialized()'
p5864
S'1072'
p5865
tp5866
a(S'MPI_Init()'
p5867
S'1075'
p5868
tp5869
a(S'MPI_Barrier()'
p5870
S'1099'
p5871
tp5872
a(S'MPI_Comm_free()'
p5873
S'1102'
p5874
tp5875
a(S'MPI_Allgather()'
p5876
S'1371'
p5877
tp5878
a(S'MPI_Barrier()'
p5879
S'1379'
p5880
tp5881
a(S'MPI_Barrier()'
p5882
S'1390'
p5883
tp5884
a(S'MPI_Barrier()'
p5885
S'1398'
p5886
tp5887
a(S'MPI_Barrier()'
p5888
S'1426'
p5889
tp5890
a(S'MPI_Comm_rank()'
p5891
S'1502'
p5892
tp5893
a(S'MPI_Comm_size()'
p5894
S'1503'
p5895
tp5896
a(S'MPI_Allreduce()'
p5897
S'1506'
p5898
tp5899
a(S'MPI_Allgather()'
p5900
S'1517'
p5901
tp5902
a(S'MPI_Allgather()'
p5903
S'1526'
p5904
tp5905
a(S'MPI_Barrier()'
p5906
S'1542'
p5907
tp5908
a(S'MPI_Comm_rank()'
p5909
S'1569'
p5910
tp5911
a(S'MPI_Comm_size()'
p5912
S'1570'
p5913
tp5914
a(S'MPI_Allgather()'
p5915
S'1577'
p5916
tp5917
a(S'MPI_Barrier()'
p5918
S'1595'
p5919
tp5920
a(S'MPI_Barrier()'
p5921
S'1834'
p5922
tp5923
a(S'MPI_Barrier()'
p5924
S'1851'
p5925
tp5926
asS'ga/global/testing/unit-tests/ga_dot.c'
p5927
(lp5928
(S'MPI_Init()'
p5929
S'64'
p5930
tp5931
a(S'MPI_Comm_rank()'
p5932
S'66'
p5933
tp5934
a(S'MPI_Comm_size()'
p5935
S'67'
p5936
tp5937
a(S'MPI_Finalize()'
p5938
S'78'
p5939
tp5940
asS'ga/global/testing/unit-tests/ga_pgroup_create2.c'
p5941
(lp5942
(S'MPI_Init()'
p5943
S'21'
p5944
tp5945
a(S'MPI_Comm_rank()'
p5946
S'23'
p5947
tp5948
a(S'MPI_Comm_size()'
p5949
S'24'
p5950
tp5951
a(S'MPI_Finalize()'
p5952
S'77'
p5953
tp5954
asS'ga/global/testing/unit-tests/ga_fillpatch1.c'
p5955
(lp5956
(S'MPI_Init()'
p5957
S'24'
p5958
tp5959
a(S'MPI_Comm_rank()'
p5960
S'26'
p5961
tp5962
a(S'MPI_Comm_size()'
p5963
S'27'
p5964
tp5965
a(S'MPI_Finalize()'
p5966
S'81'
p5967
tp5968
asS'ga/global/testing/mp3.fh'
p5969
(lp5970
(S'mpi_init_thread()'
p5971
S'18'
p5972
tp5973
a(S'mpi_init()'
p5974
S'20'
p5975
tp5976
asS'ga/comex/src-mpi-pr/hello.c'
p5977
(lp5978
(S'MPI_Init()'
p5979
S'14'
p5980
tp5981
a(S'MPI_Finalize()'
p5982
S'27'
p5983
tp5984
asS'ga/comex/src-ofa/groups.c'
p5985
(lp5986
(S'MPI_Group_rank()'
p5987
S'85'
p5988
tp5989
a(S'MPI_Group_size()'
p5990
S'102'
p5991
tp5992
a(S'MPI_Comm_group()'
p5993
S'129'
p5994
tp5995
a(S'MPI_Group_translate_ranks()'
p5996
S'133'
p5997
tp5998
a(S'MPI_Group_free()'
p5999
S'182'
p6000
tp6001
a(S'MPI_Comm_free()'
p6002
S'188'
p6003
tp6004
a(S'MPI_Group_incl()'
p6005
S'257'
p6006
tp6007
a(S'MPI_Group_rank()'
p6008
S'265'
p6009
tp6010
a(S'MPI_Comm_dup()'
p6011
S'273'
p6012
tp6013
a(S'MPI_Intercomm_create()'
p6014
S'282'
p6015
tp6016
a(S'MPI_Comm_free()'
p6017
S'284'
p6018
tp6019
a(S'MPI_Intercomm_merge()'
p6020
S'285'
p6021
tp6022
a(S'MPI_Comm_free()'
p6023
S'286'
p6024
tp6025
a(S'MPI_Group_free()'
p6026
S'294'
p6027
tp6028
a(S'MPI_Comm_group()'
p6029
S'296'
p6030
tp6031
a(S'MPI_Comm_group()'
p6032
S'320'
p6033
tp6034
asS'ga/global/testing/unit-tests/ga_pgroup_create5.c'
p6035
(lp6036
(S'MPI_Init()'
p6037
S'21'
p6038
tp6039
a(S'MPI_Comm_rank()'
p6040
S'23'
p6041
tp6042
a(S'MPI_Comm_size()'
p6043
S'24'
p6044
tp6045
a(S'MPI_Finalize()'
p6046
S'79'
p6047
tp6048
asS'ga/global/testing/unit-tests/ga_gather3.c'
p6049
(lp6050
(S'MPI_Init()'
p6051
S'26'
p6052
tp6053
a(S'MPI_Comm_rank()'
p6054
S'30'
p6055
tp6056
a(S'MPI_Comm_size()'
p6057
S'31'
p6058
tp6059
a(S'MPI_Finalize()'
p6060
S'70'
p6061
tp6062
asS'ga/armci/testing/rpl_armci_msg_init.c'
p6063
(lp6064
(S'MPI_Initialized()'
p6065
S'10'
p6066
tp6067
a(S'MPI_Init_thread()'
p6068
S'14'
p6069
tp6070
a(S'MPI_Init()'
p6071
S'16'
p6072
tp6073
asS'ga/armci/testing/ptltest.c'
p6074
(lp6075
(S'MPI_Init()'
p6076
S'67'
p6077
tp6078
a(S'MPI_Finalize()'
p6079
S'98'
p6080
tp6081
asS'ga/tcgmsg/tests/test_asyn.c'
p6082
(lp6083
(S'MPI_Init()'
p6084
S'20'
p6085
tp6086
a(S'MPI_Comm_size()'
p6087
S'22'
p6088
tp6089
a(S'MPI_Comm_rank()'
p6090
S'23'
p6091
tp6092
a(S'MPI_Irecv()'
p6093
S'28'
p6094
tp6095
a(S'MPI_Send()'
p6096
S'30'
p6097
tp6098
a(S'MPI_Wait()'
p6099
S'32'
p6100
tp6101
a(S'MPI_Recv()'
p6102
S'38'
p6103
tp6104
a(S'MPI_Send()'
p6105
S'40'
p6106
tp6107
a(S'MPI_Finalize()'
p6108
S'43'
p6109
tp6110
asS'ga/comex/src-mpi/comex.c'
p6111
(lp6112
(S'MPI_Test()'
p6113
S'214'
p6114
tp6115
a(S'MPI_Iprobe()'
p6116
S'337'
p6117
tp6118
a(S'MPI_Get_count()'
p6119
S'347'
p6120
tp6121
a(S'MPI_Recv()'
p6122
S'354'
p6123
tp6124
a(S'MPI_Comm_size()'
p6125
S'1156'
p6126
tp6127
a(S'MPI_Comm_rank()'
p6128
S'1158'
p6129
tp6130
a(S'MPI_Comm_group()'
p6131
S'1162'
p6132
tp6133
a(S'MPI_Group_translate_ranks()'
p6134
S'1191'
p6135
tp6136
a(S'MPI_Group_free()'
p6137
S'1219'
p6138
tp6139
a(S'MPI_Abort()'
p6140
S'1334'
p6141
tp6142
a(S'MPI_Initialized()'
p6143
S'1371'
p6144
tp6145
a(S'MPI_Comm_dup()'
p6146
S'1376'
p6147
tp6148
a(S'MPI_Comm_rank()'
p6149
S'1381'
p6150
tp6151
a(S'MPI_Comm_size()'
p6152
S'1386'
p6153
tp6154
a(S'MPI_Initialized()'
p6155
S'1424'
p6156
tp6157
a(S'MPI_Init()'
p6158
S'1427'
p6159
tp6160
a(S'MPI_Comm_free()'
p6161
S'1458'
p6162
tp6163
a(S'MPI_Comm_rank()'
p6164
S'2145'
p6165
tp6166
a(S'MPI_Allgather()'
p6167
S'2152'
p6168
tp6169
a(S'MPI_Comm_size()'
p6170
S'2158'
p6171
tp6172
asS'ga/global/testing/unit-tests/ga_copy2.c'
p6173
(lp6174
(S'MPI_Init()'
p6175
S'28'
p6176
tp6177
a(S'MPI_Comm_rank()'
p6178
S'30'
p6179
tp6180
a(S'MPI_Comm_size()'
p6181
S'31'
p6182
tp6183
a(S'MPI_Finalize()'
p6184
S'86'
p6185
tp6186
asS'ga/global/testing/unit-tests/ga_get_diagonal.c'
p6187
(lp6188
(S'MPI_Init()'
p6189
S'26'
p6190
tp6191
a(S'MPI_Comm_rank()'
p6192
S'28'
p6193
tp6194
a(S'MPI_Comm_size()'
p6195
S'29'
p6196
tp6197
a(S'MPI_Finalize()'
p6198
S'66'
p6199
tp6200
asS'ga/comex/testing/perf_amo.c'
p6201
(lp6202
(S'MPI_Finalize()'
p6203
S'88'
p6204
tp6205
asS'ga/global/testing/unit-tests/ga_transpose.c'
p6206
(lp6207
(S'MPI_Init()'
p6208
S'25'
p6209
tp6210
a(S'MPI_Comm_rank()'
p6211
S'27'
p6212
tp6213
a(S'MPI_Comm_size()'
p6214
S'28'
p6215
tp6216
a(S'MPI_Finalize()'
p6217
S'80'
p6218
tp6219
asS'ga/global/testing/unit-tests/ga_copy3.c'
p6220
(lp6221
(S'MPI_Init()'
p6222
S'27'
p6223
tp6224
a(S'MPI_Comm_rank()'
p6225
S'29'
p6226
tp6227
a(S'MPI_Comm_size()'
p6228
S'30'
p6229
tp6230
a(S'MPI_Finalize()'
p6231
S'85'
p6232
tp6233
asS'ga/global/testing/unit-tests/ga_get_blockinfo.c'
p6234
(lp6235
(S'MPI_Init()'
p6236
S'25'
p6237
tp6238
a(S'MPI_Comm_rank()'
p6239
S'27'
p6240
tp6241
a(S'MPI_Comm_size()'
p6242
S'28'
p6243
tp6244
a(S'MPI_Finalize()'
p6245
S'51'
p6246
tp6247
asS'ga/armci/f90/testa.F90'
p6248
(lp6249
(S'mpi_init()'
p6250
S'29'
p6251
tp6252
a(S'mpi_comm_rank()'
p6253
S'30'
p6254
tp6255
a(S'mpi_comm_size()'
p6256
S'31'
p6257
tp6258
a(S'mpi_barrier()'
p6259
S'95'
p6260
tp6261
a(S'mpi_finalize()'
p6262
S'99'
p6263
tp6264
asS'ga/global/testing/unit-tests/ga_scale_patch.c'
p6265
(lp6266
(S'MPI_Init()'
p6267
S'22'
p6268
tp6269
a(S'MPI_Comm_rank()'
p6270
S'24'
p6271
tp6272
a(S'MPI_Comm_size()'
p6273
S'25'
p6274
tp6275
a(S'MPI_Finalize()'
p6276
S'59'
p6277
tp6278
asS'ga/global/testing/unit-tests/ga_copypatch2.c'
p6279
(lp6280
(S'MPI_Init()'
p6281
S'27'
p6282
tp6283
a(S'MPI_Comm_rank()'
p6284
S'29'
p6285
tp6286
a(S'MPI_Comm_size()'
p6287
S'30'
p6288
tp6289
a(S'MPI_Finalize()'
p6290
S'75'
p6291
tp6292
asS'ga/global/testing/unit-tests/ga_ndim.c'
p6293
(lp6294
(S'MPI_Init()'
p6295
S'58'
p6296
tp6297
a(S'MPI_Comm_rank()'
p6298
S'60'
p6299
tp6300
a(S'MPI_Comm_size()'
p6301
S'61'
p6302
tp6303
a(S'MPI_Finalize()'
p6304
S'76'
p6305
tp6306
asS'ga/global/testing/unit-tests/ga_elem_dividepatch.c'
p6307
(lp6308
(S'MPI_Init()'
p6309
S'25'
p6310
tp6311
a(S'MPI_Comm_rank()'
p6312
S'27'
p6313
tp6314
a(S'MPI_Comm_size()'
p6315
S'28'
p6316
tp6317
a(S'MPI_Finalize()'
p6318
S'69'
p6319
tp6320
asS'ga/global/testing/unit-tests/ga_set_restricted.c'
p6321
(lp6322
(S'MPI_Init()'
p6323
S'74'
p6324
tp6325
a(S'MPI_Comm_rank()'
p6326
S'76'
p6327
tp6328
a(S'MPI_Comm_size()'
p6329
S'77'
p6330
tp6331
a(S'MPI_Finalize()'
p6332
S'148'
p6333
tp6334
asS'ga/comex/src-mpi3/comex.c'
p6335
(lp6336
(S'MPI_Error_string()'
p6337
S'154'
p6338
tp6339
a(S'MPI_Win_get_group()'
p6340
S'166'
p6341
tp6342
a(S'MPI_Group_translate_ranks()'
p6343
S'168'
p6344
tp6345
a(S'MPI_Initialized()'
p6346
S'189'
p6347
tp6348
a(S'MPI_Comm_size()'
p6349
S'192'
p6350
tp6351
a(S'MPI_Comm_dup()'
p6352
S'195'
p6353
tp6354
a(S'MPI_Comm_rank()'
p6355
S'201'
p6356
tp6357
a(S'MPI_Comm_size()'
p6358
S'205'
p6359
tp6360
a(S'MPI_Barrier()'
p6361
S'287'
p6362
tp6363
a(S'MPI_Initialized()'
p6364
S'297'
p6365
tp6366
a(S'MPI_Init()'
p6367
S'300'
p6368
tp6369
a(S'MPI_Abort()'
p6370
S'318'
p6371
tp6372
a(S'MPI_Win_flush()'
p6373
S'377'
p6374
tp6375
a(S'MPI_Put()'
p6376
S'387'
p6377
tp6378
a(S'MPI_Win_flush_local()'
p6379
S'397'
p6380
tp6381
a(S'MPI_Rput()'
p6382
S'409'
p6383
tp6384
a(S'MPI_Wait()'
p6385
S'418'
p6386
tp6387
a(S'MPI_Win_flush()'
p6388
S'421'
p6389
tp6390
a(S'MPI_Win_lock()'
p6391
S'426'
p6392
tp6393
a(S'MPI_Put()'
p6394
S'428'
p6395
tp6396
a(S'MPI_Win_unlock()'
p6397
S'431'
p6398
tp6399
a(S'MPI_Win_flush()'
p6400
S'465'
p6401
tp6402
a(S'MPI_Get()'
p6403
S'470'
p6404
tp6405
a(S'MPI_Win_flush_local()'
p6406
S'473'
p6407
tp6408
a(S'MPI_Rget()'
p6409
S'476'
p6410
tp6411
a(S'MPI_Wait()'
p6412
S'479'
p6413
tp6414
a(S'MPI_Win_flush()'
p6415
S'482'
p6416
tp6417
a(S'MPI_Win_lock()'
p6418
S'487'
p6419
tp6420
a(S'MPI_Get()'
p6421
S'489'
p6422
tp6423
a(S'MPI_Win_unlock()'
p6424
S'492'
p6425
tp6426
a(S'MPI_Win_flush()'
p6427
S'606'
p6428
tp6429
a(S'MPI_Accumulate()'
p6430
S'611'
p6431
tp6432
a(S'MPI_Win_flush_local()'
p6433
S'614'
p6434
tp6435
a(S'MPI_Raccumulate()'
p6436
S'617'
p6437
tp6438
a(S'MPI_Wait()'
p6439
S'620'
p6440
tp6441
a(S'MPI_Win_flush()'
p6442
S'623'
p6443
tp6444
a(S'MPI_Win_lock()'
p6445
S'628'
p6446
tp6447
a(S'MPI_Accumulate()'
p6448
S'630'
p6449
tp6450
a(S'MPI_Win_unlock()'
p6451
S'633'
p6452
tp6453
a(S'MPI_Type_size()'
p6454
S'656'
p6455
tp6456
a(S'MPI_Type_create_subarray()'
p6457
S'685'
p6458
tp6459
a(S'X_MPI_BYTE()'
p6460
S'792'
p6461
tp6462
a(S'X_MPI_BYTE()'
p6463
S'794'
p6464
tp6465
a(S'MPI_Type_commit()'
p6466
S'799'
p6467
tp6468
a(S'MPI_Type_commit()'
p6469
S'801'
p6470
tp6471
a(S'MPI_Win_flush()'
p6472
S'804'
p6473
tp6474
a(S'MPI_Put()'
p6475
S'809'
p6476
tp6477
a(S'MPI_Win_flush_local()'
p6478
S'812'
p6479
tp6480
a(S'MPI_Rput()'
p6481
S'815'
p6482
tp6483
a(S'MPI_Wait()'
p6484
S'818'
p6485
tp6486
a(S'MPI_Win_flush()'
p6487
S'821'
p6488
tp6489
a(S'MPI_Win_lock()'
p6490
S'826'
p6491
tp6492
a(S'MPI_Put()'
p6493
S'828'
p6494
tp6495
a(S'MPI_Win_unlock()'
p6496
S'831'
p6497
tp6498
a(S'MPI_Type_free()'
p6499
S'834'
p6500
tp6501
a(S'MPI_Type_free()'
p6502
S'836'
p6503
tp6504
a(S'X_MPI_BYTE()'
p6505
S'935'
p6506
tp6507
a(S'X_MPI_BYTE()'
p6508
S'937'
p6509
tp6510
a(S'MPI_Type_commit()'
p6511
S'942'
p6512
tp6513
a(S'MPI_Type_commit()'
p6514
S'944'
p6515
tp6516
a(S'MPI_Win_flush()'
p6517
S'947'
p6518
tp6519
a(S'MPI_Get()'
p6520
S'952'
p6521
tp6522
a(S'MPI_Win_flush_local()'
p6523
S'955'
p6524
tp6525
a(S'MPI_Rget()'
p6526
S'958'
p6527
tp6528
a(S'MPI_Wait()'
p6529
S'961'
p6530
tp6531
a(S'MPI_Win_flush()'
p6532
S'964'
p6533
tp6534
a(S'MPI_Win_lock()'
p6535
S'969'
p6536
tp6537
a(S'MPI_Get()'
p6538
S'971'
p6539
tp6540
a(S'MPI_Win_unlock()'
p6541
S'974'
p6542
tp6543
a(S'MPI_Type_free()'
p6544
S'977'
p6545
tp6546
a(S'MPI_Type_free()'
p6547
S'979'
p6548
tp6549
a(S'X_MPI_INT()'
p6550
S'1208'
p6551
tp6552
a(S'X_MPI_INT()'
p6553
S'1210'
p6554
tp6555
a(S'X_MPI_LONG()'
p6556
S'1219'
p6557
tp6558
a(S'X_MPI_LONG()'
p6559
S'1221'
p6560
tp6561
a(S'X_MPI_FLOAT()'
p6562
S'1230'
p6563
tp6564
a(S'X_MPI_FLOAT()'
p6565
S'1232'
p6566
tp6567
a(S'X_MPI_DOUBLE()'
p6568
S'1241'
p6569
tp6570
a(S'X_MPI_DOUBLE()'
p6571
S'1243'
p6572
tp6573
a(S'X_MPI_FLOAT()'
p6574
S'1258'
p6575
tp6576
a(S'X_MPI_FLOAT()'
p6577
S'1260'
p6578
tp6579
a(S'X_MPI_DOUBLE()'
p6580
S'1275'
p6581
tp6582
a(S'X_MPI_DOUBLE()'
p6583
S'1277'
p6584
tp6585
a(S'MPI_Type_commit()'
p6586
S'1281'
p6587
tp6588
a(S'MPI_Type_commit()'
p6589
S'1283'
p6590
tp6591
a(S'MPI_Win_flush()'
p6592
S'1286'
p6593
tp6594
a(S'MPI_Accumulate()'
p6595
S'1291'
p6596
tp6597
a(S'X_MPI_SUM()'
p6598
S'1292'
p6599
tp6600
a(S'MPI_Win_flush_local()'
p6601
S'1294'
p6602
tp6603
a(S'MPI_Raccumulate()'
p6604
S'1297'
p6605
tp6606
a(S'X_MPI_SUM()'
p6607
S'1298'
p6608
tp6609
a(S'MPI_Wait()'
p6610
S'1300'
p6611
tp6612
a(S'MPI_Win_flush()'
p6613
S'1303'
p6614
tp6615
a(S'MPI_Win_lock()'
p6616
S'1308'
p6617
tp6618
a(S'MPI_Accumulate()'
p6619
S'1310'
p6620
tp6621
a(S'X_MPI_SUM()'
p6622
S'1311'
p6623
tp6624
a(S'MPI_Win_unlock()'
p6625
S'1313'
p6626
tp6627
a(S'MPI_Type_free()'
p6628
S'1316'
p6629
tp6630
a(S'MPI_Type_free()'
p6631
S'1318'
p6632
tp6633
a(S'MPI_Type_create_struct()'
p6634
S'1357'
p6635
tp6636
a(S'MPI_Type_create_struct()'
p6637
S'1363'
p6638
tp6639
a(S'MPI_Type_size()'
p6640
S'1377'
p6641
tp6642
a(S'MPI_Type_create_struct()'
p6643
S'1392'
p6644
tp6645
a(S'MPI_Type_create_struct()'
p6646
S'1403'
p6647
tp6648
a(S'X_MPI_BYTE()'
p6649
S'1446'
p6650
tp6651
a(S'MPI_Type_commit()'
p6652
S'1451'
p6653
tp6654
a(S'MPI_Type_commit()'
p6655
S'1453'
p6656
tp6657
a(S'MPI_Win_flush()'
p6658
S'1456'
p6659
tp6660
a(S'MPI_Put()'
p6661
S'1461'
p6662
tp6663
a(S'MPI_Win_flush_local()'
p6664
S'1464'
p6665
tp6666
a(S'MPI_Rput()'
p6667
S'1467'
p6668
tp6669
a(S'MPI_Wait()'
p6670
S'1470'
p6671
tp6672
a(S'MPI_Win_flush()'
p6673
S'1473'
p6674
tp6675
a(S'MPI_Win_lock()'
p6676
S'1478'
p6677
tp6678
a(S'MPI_Put()'
p6679
S'1480'
p6680
tp6681
a(S'MPI_Win_unlock()'
p6682
S'1483'
p6683
tp6684
a(S'MPI_Type_free()'
p6685
S'1486'
p6686
tp6687
a(S'MPI_Type_free()'
p6688
S'1488'
p6689
tp6690
a(S'X_MPI_BYTE()'
p6691
S'1531'
p6692
tp6693
a(S'MPI_Type_commit()'
p6694
S'1536'
p6695
tp6696
a(S'MPI_Type_commit()'
p6697
S'1538'
p6698
tp6699
a(S'MPI_Win_flush()'
p6700
S'1541'
p6701
tp6702
a(S'MPI_Get()'
p6703
S'1546'
p6704
tp6705
a(S'MPI_Win_flush_local()'
p6706
S'1549'
p6707
tp6708
a(S'MPI_Rget()'
p6709
S'1552'
p6710
tp6711
a(S'MPI_Wait()'
p6712
S'1555'
p6713
tp6714
a(S'MPI_Win_flush()'
p6715
S'1558'
p6716
tp6717
a(S'MPI_Win_lock()'
p6718
S'1563'
p6719
tp6720
a(S'MPI_Get()'
p6721
S'1565'
p6722
tp6723
a(S'MPI_Win_unlock()'
p6724
S'1568'
p6725
tp6726
a(S'MPI_Type_free()'
p6727
S'1571'
p6728
tp6729
a(S'MPI_Type_free()'
p6730
S'1573'
p6731
tp6732
a(S'MPI_Type_size()'
p6733
S'1603'
p6734
tp6735
a(S'MPI_Type_size()'
p6736
S'1610'
p6737
tp6738
a(S'MPI_Type_create_struct()'
p6739
S'1787'
p6740
tp6741
a(S'MPI_Type_commit()'
p6742
S'1854'
p6743
tp6744
a(S'MPI_Type_commit()'
p6745
S'1856'
p6746
tp6747
a(S'MPI_Win_flush()'
p6748
S'1859'
p6749
tp6750
a(S'MPI_Accumulate()'
p6751
S'1864'
p6752
tp6753
a(S'X_MPI_SUM()'
p6754
S'1865'
p6755
tp6756
a(S'MPI_Win_flush_local()'
p6757
S'1867'
p6758
tp6759
a(S'MPI_Raccumulate()'
p6760
S'1870'
p6761
tp6762
a(S'X_MPI_SUM()'
p6763
S'1871'
p6764
tp6765
a(S'MPI_Wait()'
p6766
S'1873'
p6767
tp6768
a(S'MPI_Win_flush()'
p6769
S'1876'
p6770
tp6771
a(S'MPI_Win_lock()'
p6772
S'1881'
p6773
tp6774
a(S'MPI_Accumulate()'
p6775
S'1883'
p6776
tp6777
a(S'X_MPI_SUM()'
p6778
S'1884'
p6779
tp6780
a(S'MPI_Win_unlock()'
p6781
S'1886'
p6782
tp6783
a(S'MPI_Type_free()'
p6784
S'1889'
p6785
tp6786
a(S'MPI_Type_free()'
p6787
S'1891'
p6788
tp6789
a(S'MPI_Win_flush()'
p6790
S'1914'
p6791
tp6792
a(S'MPI_Barrier()'
p6793
S'1932'
p6794
tp6795
a(S'MPI_Alloc_mem()'
p6796
S'1969'
p6797
tp6798
a(S'MPI_Free_mem()'
p6799
S'1984'
p6800
tp6801
a(S'MPI_Barrier()'
p6802
S'2009'
p6803
tp6804
a(S'MPI_Comm_free()'
p6805
S'2013'
p6806
tp6807
a(S'MPI_Win_flush_local()'
p6808
S'2049'
p6809
tp6810
a(S'MPI_Wait()'
p6811
S'2053'
p6812
tp6813
a(S'MPI_Win_flush()'
p6814
S'2056'
p6815
tp6816
a(S'MPI_Type_free()'
p6817
S'2065'
p6818
tp6819
a(S'MPI_Type_free()'
p6820
S'2067'
p6821
tp6822
a(S'MPI_Test()'
p6823
S'2091'
p6824
tp6825
a(S'MPI_Type_free()'
p6826
S'2101'
p6827
tp6828
a(S'MPI_Type_free()'
p6829
S'2103'
p6830
tp6831
a(S'MPI_Win_flush_all()'
p6832
S'2129'
p6833
tp6834
a(S'MPI_Win_fence()'
p6835
S'2132'
p6836
tp6837
a(S'MPI_Win_flush()'
p6838
S'2169'
p6839
tp6840
a(S'MPI_Put()'
p6841
S'2173'
p6842
tp6843
a(S'MPI_Rput()'
p6844
S'2179'
p6845
tp6846
a(S'MPI_Win_flush()'
p6847
S'2220'
p6848
tp6849
a(S'MPI_Get()'
p6850
S'2224'
p6851
tp6852
a(S'MPI_Rget()'
p6853
S'2230'
p6854
tp6855
a(S'MPI_Win_flush()'
p6856
S'2275'
p6857
tp6858
a(S'MPI_Accumulate()'
p6859
S'2288'
p6860
tp6861
a(S'X_MPI_INT()'
p6862
S'2289'
p6863
tp6864
a(S'MPI_Raccumulate()'
p6865
S'2294'
p6866
tp6867
a(S'X_MPI_INT()'
p6868
S'2295'
p6869
tp6870
a(S'MPI_Accumulate()'
p6871
S'2312'
p6872
tp6873
a(S'X_MPI_LONG()'
p6874
S'2313'
p6875
tp6876
a(S'MPI_Raccumulate()'
p6877
S'2318'
p6878
tp6879
a(S'X_MPI_LONG()'
p6880
S'2319'
p6881
tp6882
a(S'MPI_Accumulate()'
p6883
S'2336'
p6884
tp6885
a(S'X_MPI_FLOAT()'
p6886
S'2337'
p6887
tp6888
a(S'MPI_Raccumulate()'
p6889
S'2342'
p6890
tp6891
a(S'X_MPI_FLOAT()'
p6892
S'2343'
p6893
tp6894
a(S'MPI_Accumulate()'
p6895
S'2360'
p6896
tp6897
a(S'X_MPI_DOUBLE()'
p6898
S'2361'
p6899
tp6900
a(S'MPI_Raccumulate()'
p6901
S'2366'
p6902
tp6903
a(S'X_MPI_DOUBLE()'
p6904
S'2367'
p6905
tp6906
a(S'MPI_Accumulate()'
p6907
S'2388'
p6908
tp6909
a(S'X_MPI_FLOAT()'
p6910
S'2389'
p6911
tp6912
a(S'MPI_Raccumulate()'
p6913
S'2394'
p6914
tp6915
a(S'X_MPI_FLOAT()'
p6916
S'2395'
p6917
tp6918
a(S'MPI_Accumulate()'
p6919
S'2416'
p6920
tp6921
a(S'X_MPI_DOUBLE()'
p6922
S'2417'
p6923
tp6924
a(S'MPI_Raccumulate()'
p6925
S'2422'
p6926
tp6927
a(S'X_MPI_DOUBLE()'
p6928
S'2423'
p6929
tp6930
a(S'X_MPI_BYTE()'
p6931
S'2471'
p6932
tp6933
a(S'X_MPI_BYTE()'
p6934
S'2473'
p6935
tp6936
a(S'MPI_Type_commit()'
p6937
S'2479'
p6938
tp6939
a(S'MPI_Type_commit()'
p6940
S'2481'
p6941
tp6942
a(S'MPI_Win_flush()'
p6943
S'2484'
p6944
tp6945
a(S'MPI_Put()'
p6946
S'2488'
p6947
tp6948
a(S'MPI_Rput()'
p6949
S'2494'
p6950
tp6951
a(S'X_MPI_BYTE()'
p6952
S'2544'
p6953
tp6954
a(S'X_MPI_BYTE()'
p6955
S'2546'
p6956
tp6957
a(S'MPI_Type_commit()'
p6958
S'2552'
p6959
tp6960
a(S'MPI_Type_commit()'
p6961
S'2554'
p6962
tp6963
a(S'MPI_Win_flush()'
p6964
S'2557'
p6965
tp6966
a(S'MPI_Get()'
p6967
S'2561'
p6968
tp6969
a(S'MPI_Rget()'
p6970
S'2567'
p6971
tp6972
a(S'X_MPI_INT()'
p6973
S'2642'
p6974
tp6975
a(S'X_MPI_INT()'
p6976
S'2644'
p6977
tp6978
a(S'X_MPI_LONG()'
p6979
S'2653'
p6980
tp6981
a(S'X_MPI_LONG()'
p6982
S'2655'
p6983
tp6984
a(S'X_MPI_FLOAT()'
p6985
S'2664'
p6986
tp6987
a(S'X_MPI_FLOAT()'
p6988
S'2666'
p6989
tp6990
a(S'X_MPI_DOUBLE()'
p6991
S'2675'
p6992
tp6993
a(S'X_MPI_DOUBLE()'
p6994
S'2677'
p6995
tp6996
a(S'X_MPI_FLOAT()'
p6997
S'2690'
p6998
tp6999
a(S'X_MPI_FLOAT()'
p7000
S'2692'
p7001
tp7002
a(S'X_MPI_DOUBLE()'
p7003
S'2705'
p7004
tp7005
a(S'X_MPI_DOUBLE()'
p7006
S'2707'
p7007
tp7008
a(S'MPI_Type_commit()'
p7009
S'2712'
p7010
tp7011
a(S'MPI_Type_commit()'
p7012
S'2714'
p7013
tp7014
a(S'MPI_Win_flush()'
p7015
S'2717'
p7016
tp7017
a(S'MPI_Accumulate()'
p7018
S'2721'
p7019
tp7020
a(S'X_MPI_SUM()'
p7021
S'2722'
p7022
tp7023
a(S'MPI_Raccumulate()'
p7024
S'2727'
p7025
tp7026
a(S'X_MPI_SUM()'
p7027
S'2728'
p7028
tp7029
a(S'X_MPI_BYTE()'
p7030
S'2776'
p7031
tp7032
a(S'MPI_Type_commit()'
p7033
S'2782'
p7034
tp7035
a(S'MPI_Type_commit()'
p7036
S'2784'
p7037
tp7038
a(S'MPI_Win_flush()'
p7039
S'2787'
p7040
tp7041
a(S'MPI_Put()'
p7042
S'2791'
p7043
tp7044
a(S'MPI_Rput()'
p7045
S'2797'
p7046
tp7047
a(S'X_MPI_BYTE()'
p7048
S'2842'
p7049
tp7050
a(S'MPI_Type_commit()'
p7051
S'2848'
p7052
tp7053
a(S'MPI_Type_commit()'
p7054
S'2850'
p7055
tp7056
a(S'MPI_Win_flush()'
p7057
S'2853'
p7058
tp7059
a(S'MPI_Get()'
p7060
S'2857'
p7061
tp7062
a(S'MPI_Rget()'
p7063
S'2863'
p7064
tp7065
a(S'MPI_Type_commit()'
p7066
S'2934'
p7067
tp7068
a(S'MPI_Type_commit()'
p7069
S'2936'
p7070
tp7071
a(S'MPI_Win_flush()'
p7072
S'2939'
p7073
tp7074
a(S'MPI_Accumulate()'
p7075
S'2943'
p7076
tp7077
a(S'X_MPI_SUM()'
p7078
S'2944'
p7079
tp7080
a(S'MPI_Raccumulate()'
p7081
S'2949'
p7082
tp7083
a(S'X_MPI_SUM()'
p7084
S'2950'
p7085
tp7086
a(S'MPI_Win_flush()'
p7087
S'2986'
p7088
tp7089
a(S'MPI_Fetch_and_op()'
p7090
S'2992'
p7091
tp7092
a(S'X_MPI_SUM()'
p7093
S'2993'
p7094
tp7095
a(S'MPI_Win_flush()'
p7096
S'2995'
p7097
tp7098
a(S'MPI_Win_lock()'
p7099
S'2998'
p7100
tp7101
a(S'MPI_Fetch_and_op()'
p7102
S'3000'
p7103
tp7104
a(S'X_MPI_SUM()'
p7105
S'3001'
p7106
tp7107
a(S'MPI_Win_unlock()'
p7108
S'3003'
p7109
tp7110
a(S'MPI_Fetch_and_op()'
p7111
S'3009'
p7112
tp7113
a(S'X_MPI_SUM()'
p7114
S'3010'
p7115
tp7116
a(S'MPI_Win_flush()'
p7117
S'3012'
p7118
tp7119
a(S'MPI_Win_lock()'
p7120
S'3015'
p7121
tp7122
a(S'MPI_Fetch_and_op()'
p7123
S'3017'
p7124
tp7125
a(S'X_MPI_SUM()'
p7126
S'3018'
p7127
tp7128
a(S'MPI_Win_unlock()'
p7129
S'3020'
p7130
tp7131
a(S'MPI_Fetch_and_op()'
p7132
S'3026'
p7133
tp7134
a(S'X_MPI_REPLACE()'
p7135
S'3027'
p7136
tp7137
a(S'MPI_Win_flush()'
p7138
S'3029'
p7139
tp7140
a(S'MPI_Win_lock()'
p7141
S'3032'
p7142
tp7143
a(S'MPI_Fetch_and_op()'
p7144
S'3034'
p7145
tp7146
a(S'X_MPI_REPLACE()'
p7147
S'3035'
p7148
tp7149
a(S'MPI_Win_unlock()'
p7150
S'3037'
p7151
tp7152
a(S'MPI_Fetch_and_op()'
p7153
S'3043'
p7154
tp7155
a(S'X_MPI_REPLACE()'
p7156
S'3044'
p7157
tp7158
a(S'MPI_Win_flush()'
p7159
S'3046'
p7160
tp7161
a(S'MPI_Win_lock()'
p7162
S'3049'
p7163
tp7164
a(S'MPI_Fetch_and_op()'
p7165
S'3051'
p7166
tp7167
a(S'X_MPI_REPLACE()'
p7168
S'3052'
p7169
tp7170
a(S'MPI_Win_unlock()'
p7171
S'3054'
p7172
tp7173
a(S'MPI_Allreduce()'
p7174
S'3095'
p7175
tp7176
a(S'MPI_Alloc_mem()'
p7177
S'3113'
p7178
tp7179
a(S'MPI_Win_create()'
p7180
S'3121'
p7181
tp7182
a(S'MPI_Win_free()'
p7183
S'3140'
p7184
tp7185
a(S'MPI_Win_lock()'
p7186
S'3179'
p7187
tp7188
a(S'MPI_Get()'
p7189
S'3181'
p7190
tp7191
a(S'MPI_Put()'
p7192
S'3183'
p7193
tp7194
a(S'MPI_Win_unlock()'
p7195
S'3185'
p7196
tp7197
a(S'MPI_Recv()'
p7198
S'3196'
p7199
tp7200
a(S'MPI_Win_lock()'
p7201
S'3229'
p7202
tp7203
a(S'MPI_Get()'
p7204
S'3230'
p7205
tp7206
a(S'MPI_Put()'
p7207
S'3231'
p7208
tp7209
a(S'MPI_Win_unlock()'
p7210
S'3232'
p7211
tp7212
a(S'MPI_Send()'
p7213
S'3244'
p7214
tp7215
a(S'MPI_Comm_rank()'
p7216
S'3279'
p7217
tp7218
a(S'MPI_Comm_size()'
p7219
S'3280'
p7220
tp7221
a(S'MPI_Win_allocate()'
p7222
S'3305'
p7223
tp7224
a(S'MPI_Alloc_mem()'
p7225
S'3308'
p7226
tp7227
a(S'MPI_Win_create()'
p7228
S'3310'
p7229
tp7230
a(S'MPI_Win_lock_all()'
p7231
S'3314'
p7232
tp7233
a(S'MPI_Allgather()'
p7234
S'3322'
p7235
tp7236
a(S'MPI_Barrier()'
p7237
S'3342'
p7238
tp7239
a(S'MPI_Comm_rank()'
p7240
S'3381'
p7241
tp7242
a(S'MPI_Comm_size()'
p7243
S'3382'
p7244
tp7245
a(S'MPI_Win_create()'
p7246
S'3412'
p7247
tp7248
a(S'MPI_Win_lock_all()'
p7249
S'3416'
p7250
tp7251
a(S'MPI_Allgather()'
p7252
S'3424'
p7253
tp7254
a(S'MPI_Barrier()'
p7255
S'3444'
p7256
tp7257
a(S'MPI_Comm_rank()'
p7258
S'3471'
p7259
tp7260
a(S'MPI_Comm_size()'
p7261
S'3472'
p7262
tp7263
a(S'MPI_Allgather()'
p7264
S'3489'
p7265
tp7266
a(S'MPI_Win_unlock_all()'
p7267
S'3510'
p7268
tp7269
a(S'MPI_Win_free()'
p7270
S'3512'
p7271
tp7272
a(S'MPI_Free_mem()'
p7273
S'3515'
p7274
tp7275
a(S'MPI_Barrier()'
p7276
S'3519'
p7277
tp7278
a(S'MPI_Comm_rank()'
p7279
S'3545'
p7280
tp7281
a(S'MPI_Comm_size()'
p7282
S'3546'
p7283
tp7284
a(S'MPI_Allgather()'
p7285
S'3563'
p7286
tp7287
a(S'MPI_Win_unlock_all()'
p7288
S'3584'
p7289
tp7290
a(S'MPI_Win_free()'
p7291
S'3586'
p7292
tp7293
a(S'MPI_Barrier()'
p7294
S'3591'
p7295
tp7296
asS'ga/armci/src-gemini/groups.c'
p7297
(lp7298
(S'MPI_Comm_compare()'
p7299
S'87'
p7300
tp7301
a(S'MPI_Group_size()'
p7302
S'111'
p7303
tp7304
a(S'MPI_Comm_group()'
p7305
S'124'
p7306
tp7307
a(S'MPI_Group_translate_ranks()'
p7308
S'125'
p7309
tp7310
a(S'MPI_Comm_group()'
p7311
S'164'
p7312
tp7313
a(S'MPI_Group_translate_ranks()'
p7314
S'165'
p7315
tp7316
a(S'MPI_Comm_free()'
p7317
S'363'
p7318
tp7319
a(S'MPI_Group_rank()'
p7320
S'466'
p7321
tp7322
a(S'MPI_Comm_dup()'
p7323
S'472'
p7324
tp7325
a(S'MPI_Intercomm_create()'
p7326
S'481'
p7327
tp7328
a(S'MPI_Comm_free()'
p7329
S'482'
p7330
tp7331
a(S'MPI_Intercomm_merge()'
p7332
S'483'
p7333
tp7334
a(S'MPI_Comm_free()'
p7335
S'484'
p7336
tp7337
a(S'MPI_Group_free()'
p7338
S'491'
p7339
tp7340
a(S'MPI_Comm_group()'
p7341
S'492'
p7342
tp7343
a(S'MPI_Comm_group()'
p7344
S'539'
p7345
tp7346
a(S'MPI_Group_rank()'
p7347
S'542'
p7348
tp7349
asS'ga/global/examples/md_cluster/grp_sim.F'
p7350
(lp7351
(S'mpi_init()'
p7352
S'28'
p7353
tp7354
a(S'mpi_finalize()'
p7355
S'172'
p7356
tp7357
asS'ga/global/testing/unit-tests/ga_pgroup_nnodes_nodeid.c'
p7358
(lp7359
(S'MPI_Init()'
p7360
S'97'
p7361
tp7362
a(S'MPI_Comm_rank()'
p7363
S'99'
p7364
tp7365
a(S'MPI_Comm_size()'
p7366
S'100'
p7367
tp7368
a(S'MPI_Finalize()'
p7369
S'116'
p7370
tp7371
as.