ccollections
defaultdict
p0
(c__builtin__
list
p1
tp2
Rp3
S'pub-prototyping/cpp/testmpib.cpp'
p4
(lp5
(S'MPI_Init()'
p6
S'8'
p7
tp8
a(S'MPI_Comm_rank()'
p9
S'11'
p10
tp11
a(S'MPI_Comm_size()'
p12
S'12'
p13
tp14
a(S'MPI_Barrier()'
p15
S'21'
p16
tp17
a(S'MPI_Allreduce()'
p18
S'28'
p19
tp20
a(S'MPI_Finalize()'
p21
S'31'
p22
tp23
asS'pub-prototyping/cpp/mpiwrapper/mpiwrapper.c'
p24
(lp25
(S'MPI_Init()'
p26
S'10'
p27
tp28
a(S'MPI_Finalize()'
p29
S'14'
p30
tp31
a(S'MPI_Comm_rank()'
p32
S'19'
p33
tp34
a(S'MPI_Comm_size()'
p35
S'25'
p36
tp37
a(S'MPI_Allreduce()'
p38
S'40'
p39
tp40
a(S'MPI_Allreduce()'
p41
S'50'
p42
tp43
a(S'MPI_Reduce()'
p44
S'60'
p45
tp46
a(S'MPI_Reduce()'
p47
S'70'
p48
tp49
a(S'MPI_Bcast()'
p50
S'79'
p51
tp52
a(S'MPI_Bcast()'
p53
S'84'
p54
tp55
asS'pub-prototyping/cpp/mpi1.cpp'
p56
(lp57
(S'MPI_Send()'
p58
S'15'
p59
tp60
a(S'MPI_Send()'
p61
S'20'
p62
tp63
a(S'MPI_Recv()'
p64
S'25'
p65
tp66
a(S'MPI_Recv()'
p67
S'32'
p68
tp69
a(S'MPI_Init()'
p70
S'37'
p71
tp72
a(S'MPI_Comm_size()'
p73
S'39'
p74
tp75
a(S'MPI_Comm_rank()'
p76
S'40'
p77
tp78
a(S'MPI_Finalize()'
p79
S'61'
p80
tp81
asS'pub-prototyping/cpp/mpi/example/utils/mpi/mpi_bcast.cpp'
p82
(lp83
(S'MPI_Comm_rank()'
p84
S'7'
p85
tp86
a(S'MPI_Bcast()'
p87
g7
tp88
a(S'MPI_Bcast()'
p89
S'12'
p90
tp91
a(S'MPI_Comm_rank()'
p92
S'17'
p93
tp94
a(S'MPI_Bcast()'
p95
S'18'
p96
tp97
a(S'MPI_Bcast()'
p98
S'22'
p99
tp100
a(S'MPI_Comm_rank()'
p101
S'27'
p102
tp103
a(S'MPI_Bcast()'
p104
S'28'
p105
tp106
a(S'MPI_Bcast()'
p107
S'32'
p108
tp109
a(S'MPI_Comm_rank()'
p110
S'37'
p111
tp112
a(S'MPI_Bcast()'
p113
S'38'
p114
tp115
a(S'MPI_Bcast()'
p116
S'42'
p117
tp118
a(S'MPI_Comm_rank()'
p119
S'47'
p120
tp121
a(S'MPI_Bcast()'
p122
S'49'
p123
tp124
a(S'MPI_Bcast()'
p125
S'53'
p126
tp127
asS'pub-prototyping/cpp/testmpi.cpp'
p128
(lp129
(S'MPI_Init()'
p130
g7
tp131
a(S'MPI_Finalize()'
p132
S'34'
p133
tp134
asS'pub-prototyping/cpp/testmpi_boostserialization.cpp'
p135
(lp136
(S'MPI_Isend()'
p137
S'55'
p138
tp139
a(S'MPI_Comm_rank()'
p140
S'62'
p141
tp142
a(S'MPI_Bcast()'
p143
S'68'
p144
tp145
a(S'MPI_Bcast()'
p146
S'69'
p147
tp148
a(S'MPI_Bcast()'
p149
S'76'
p150
tp151
a(S'MPI_Bcast()'
p152
S'79'
p153
tp154
a(S'MPI_Comm_rank()'
p155
S'88'
p156
tp157
a(S'MPI_Bcast()'
p158
S'89'
p159
tp160
a(S'MPI_Bcast()'
p161
S'93'
p162
tp163
a(S'MPI_Probe()'
p164
S'100'
p165
tp166
a(S'MPI_Get_count()'
p167
S'101'
p168
tp169
a(S'MPI_Recv()'
p170
S'107'
p171
tp172
a(S'MPI_Isend()'
p173
S'118'
p174
tp175
a(S'MPI_Recv()'
p176
S'124'
p177
tp178
a(S'MPI_Reduce()'
p179
S'145'
p180
tp181
a(S'MPI_Comm_rank()'
p182
S'159'
p183
tp184
a(S'MPI_Reduce()'
p185
S'160'
p186
tp187
a(S'MPI_Reduce()'
p188
S'169'
p189
tp190
a(S'MPI_Comm_rank()'
p191
S'174'
p192
tp193
a(S'MPI_Reduce()'
p194
S'176'
p195
tp196
a(S'MPI_Init()'
p197
S'196'
p198
tp199
a(S'MPI_Comm_rank()'
p200
S'197'
p201
tp202
a(S'MPI_Comm_size()'
p203
S'198'
p204
tp205
a(S'MPI_Finalize()'
p206
S'255'
p207
tp208
asS'pub-prototyping/cpp/mpi/example/testmpi.cpp'
p209
(lp210
(S'MPI_Init()'
p211
S'9'
p212
tp213
a(S'MPI_Comm_rank()'
p214
S'15'
p215
tp216
a(S'MPI_Comm_size()'
p217
S'16'
p218
tp219
a(S'MPI_Bcast()'
p220
S'25'
p221
tp222
a(S'MPI_Allreduce()'
p223
S'32'
p224
tp225
a(S'MPI_Barrier()'
p226
S'36'
p227
tp228
a(S'MPI_Barrier()'
p229
S'41'
p230
tp231
a(S'MPI_Reduce()'
p232
S'67'
p233
tp234
a(S'MPI_Finalize()'
p235
S'78'
p236
tp237
asS'pub-prototyping/cpp/mpiparent.cpp'
p238
(lp239
(S'MPI_Init()'
p240
S'55'
p241
tp242
a(S'MPI_Comm_rank()'
p243
S'58'
p244
tp245
a(S'MPI_Comm_size()'
p246
S'59'
p247
tp248
a(S'MPI_Finalize()'
p249
S'69'
p250
tp251
asS'pub-prototyping/cpp/mpi/example/testmpi2.cpp'
p252
(lp253
(S'MPI_Init()'
p254
g212
tp255
a(S'MPI_Comm_rank()'
p256
S'12'
p257
tp258
a(S'MPI_Comm_size()'
p259
S'13'
p260
tp261
a(S'MPI_Bcast()'
p262
S'23'
p263
tp264
a(S'MPI_Allreduce()'
p265
S'29'
p266
tp267
a(S'MPI_Barrier()'
p268
S'33'
p269
tp270
a(S'MPI_Allreduce()'
p271
S'64'
p272
tp273
a(S'MPI_Finalize()'
p274
S'75'
p275
tp276
asS'pub-prototyping/cpp/mpichild.cpp'
p277
(lp278
(S'MPI_Initialized()'
p279
S'29'
p280
tp281
a(S'MPI_Init()'
p282
S'33'
p283
tp284
a(S'MPI_Comm_rank()'
p285
S'37'
p286
tp287
a(S'MPI_Comm_size()'
p288
S'38'
p289
tp290
a(S'MPI_Finalize()'
p291
S'50'
p292
tp293
asS'pub-prototyping/cpp/mpi/example/utils/mpi/mpi_reduce.cpp'
p294
(lp295
(S'MPI_Reduce()'
p296
S'33'
p297
tp298
a(S'MPI_Comm_rank()'
p299
S'46'
p300
tp301
a(S'MPI_Reduce()'
p302
S'47'
p303
tp304
a(S'MPI_Reduce()'
p305
S'56'
p306
tp307
a(S'MPI_Comm_rank()'
p308
S'62'
p309
tp310
a(S'MPI_Reduce()'
p311
S'63'
p312
tp313
a(S'MPI_Reduce()'
p314
S'71'
p315
tp316
a(S'MPI_Reduce()'
p317
S'76'
p318
tp319
a(S'MPI_Reduce()'
p320
S'80'
p321
tp322
a(S'MPI_Allreduce()'
p323
S'85'
p324
tp325
a(S'MPI_Allreduce()'
p326
S'90'
p327
tp328
a(S'MPI_Allreduce()'
p329
S'94'
p330
tp331
asS'pub-prototyping/cpp/testmpilong.cpp'
p332
(lp333
(S'MPI_Init()'
p334
g85
tp335
a(S'MPI_Allreduce()'
p336
S'10'
p337
tp338
a(S'MPI_Finalize()'
p339
S'12'
p340
tp341
asS'pub-prototyping/cpp/mpi/example/utils/mpi/mpi_helper.cpp'
p342
(lp343
(S'MPI_Isend()'
p344
S'28'
p345
tp346
a(S'MPI_Recv()'
p347
S'33'
p348
tp349
a(S'MPI_Isend()'
p350
S'38'
p351
tp352
a(S'MPI_Recv()'
p353
S'43'
p354
tp355
a(S'MPI_Isend()'
p356
S'48'
p357
tp358
a(S'MPI_Recv()'
p359
S'53'
p360
tp361
a(S'MPI_Comm_rank()'
p362
S'58'
p363
tp364
a(S'MPI_Comm_size()'
p365
S'59'
p366
tp367
a(S'MPI_Barrier()'
p368
S'60'
p369
tp370
a(S'MPI_Barrier()'
p371
S'65'
p372
tp373
a(S'MPI_Comm_rank()'
p374
S'70'
p375
tp376
a(S'MPI_Comm_rank()'
p377
S'71'
p378
tp379
as.