ccollections
defaultdict
p0
(c__builtin__
list
p1
tp2
Rp3
S'COVID_Paral/metricas/metricas.c'
p4
(lp5
(S'MPI_Bcast()'
p6
S'26'
p7
tp8
a(S'MPI_File_open()'
p9
S'29'
p10
tp11
a(S'MPI_File_seek()'
p12
S'30'
p13
tp14
a(S'MPI_File_write()'
p15
S'32'
p16
tp17
a(S'MPI_File_write()'
p18
S'38'
p19
tp20
a(S'MPI_File_write()'
p21
S'46'
p22
tp23
a(S'MPI_File_close()'
p24
S'50'
p25
tp26
a(S'MPI_Reduce()'
p27
S'98'
p28
tp29
a(S'MPI_Reduce()'
p30
S'100'
p31
tp32
a(S'MPI_Reduce()'
p33
S'103'
p34
tp35
a(S'MPI_Reduce()'
p36
S'105'
p37
tp38
a(S'MPI_Reduce()'
p39
S'108'
p40
tp41
a(S'MPI_Reduce()'
p42
S'110'
p43
tp44
a(S'MPI_Reduce()'
p45
S'113'
p46
tp47
a(S'MPI_Reduce()'
p48
S'115'
p49
tp50
a(S'MPI_Reduce()'
p51
S'118'
p52
tp53
a(S'MPI_Reduce()'
p54
S'120'
p55
tp56
asS'COVID_Paral/metricas/metricas.c.save'
p57
(lp58
(S'MPI_Bcast()'
p59
S'27'
p60
tp61
a(S'MPI_File_open()'
p62
S'30'
p63
tp64
a(S'MPI_File_set_view()'
p65
S'31'
p66
tp67
a(S'MPI_File_write()'
p68
S'39'
p69
tp70
a(S'MPI_File_write()'
p71
S'47'
p72
tp73
a(S'MPI_File_close()'
p74
S'51'
p75
tp76
a(S'MPI_Reduce()'
p77
S'119'
p78
tp79
a(S'MPI_Reduce()'
p80
S'121'
p81
tp82
a(S'MPI_Reduce()'
p83
S'124'
p84
tp85
a(S'MPI_Reduce()'
p86
S'126'
p87
tp88
a(S'MPI_Reduce()'
p89
S'129'
p90
tp91
a(S'MPI_Reduce()'
p92
S'131'
p93
tp94
a(S'MPI_Reduce()'
p95
S'134'
p96
tp97
a(S'MPI_Reduce()'
p98
S'136'
p99
tp100
a(S'MPI_Reduce()'
p101
S'139'
p102
tp103
a(S'MPI_Reduce()'
p104
S'141'
p105
tp106
asS'COVID_Paral//main.c'
p107
(lp108
(S'MPI_Init()'
p109
S'40'
p110
tp111
a(S'MPI_Comm_rank()'
p112
S'41'
p113
tp114
a(S'MPI_Comm_size()'
p115
S'42'
p116
tp117
a(S'MPI_Barrier()'
p118
S'78'
p119
tp120
a(S'MPI_Finalize()'
p121
S'95'
p122
tp123
a(S'MPI_Barrier()'
p124
S'134'
p125
tp126
a(S'MPI_Bcast()'
p127
S'135'
p128
tp129
a(S'MPI_Bcast()'
p130
S'153'
p131
tp132
a(S'MPI_Barrier()'
p133
S'175'
p134
tp135
a(S'MPI_Barrier()'
p136
S'199'
p137
tp138
asS'COVID_Paral/propagacion/propagacion.c'
p139
(lp140
(S'MPI_Bcast()'
p141
S'128'
p142
tp143
a(S'MPI_Bcast()'
p144
S'131'
p145
tp146
a(S'MPI_Recv()'
p147
S'136'
p148
tp149
a(S'MPI_Recv()'
p150
S'138'
p151
tp152
a(S'MPI_Bcast()'
p153
S'166'
p154
tp155
a(S'MPI_Bcast()'
p156
S'169'
p157
tp158
a(S'MPI_Bcast()'
p159
S'172'
p160
tp161
a(S'MPI_Send()'
p162
S'189'
p163
tp164
a(S'MPI_Send()'
p165
S'190'
p166
tp167
a(S'MPI_Bcast()'
p168
S'192'
p169
tp170
as.