ccollections
defaultdict
p0
(c__builtin__
list
p1
tp2
Rp3
S'action-classif/framework/common/libs/fastcluster/mpi_queue.cpp'
p4
(lp5
(S'MPI_Comm_rank()'
p6
S'25'
p7
tp8
a(S'MPI_Comm_size()'
p9
S'26'
p10
tp11
a(S'MPI_Allgather()'
p12
S'36'
p13
tp14
a(S'MPI_Recv()'
p15
S'66'
p16
tp17
a(S'MPI_Recv()'
p18
S'70'
p19
tp20
a(S'MPI_Send()'
p21
S'89'
p22
tp23
a(S'MPI_Send()'
p24
S'90'
p25
tp26
a(S'MPI_Send()'
p27
S'96'
p28
tp29
a(S'MPI_Comm_rank()'
p30
S'116'
p31
tp32
a(S'MPI_Comm_size()'
p33
S'117'
p34
tp35
a(S'MPI_Send()'
p36
S'134'
p37
tp38
a(S'MPI_Send()'
p39
S'138'
p40
tp41
a(S'MPI_Recv()'
p42
S'147'
p43
tp44
a(S'MPI_Recv()'
p45
S'151'
p46
tp47
a(S'MPI_Recv()'
p48
S'153'
p49
tp50
a(S'MPI_Send()'
p51
S'164'
p52
tp53
a(S'MPI_Send()'
p54
S'168'
p55
tp56
a(S'MPI_Recv()'
p57
S'176'
p58
tp59
a(S'MPI_Send()'
p60
S'181'
p61
tp62
a(S'MPI_Send()'
p63
S'192'
p64
tp65
a(S'MPI_Send()'
p66
S'193'
p67
tp68
a(S'MPI_Barrier()'
p69
S'199'
p70
tp71
asS'action-classif/framework/common/libs/fastcluster/mpi_utils.cpp'
p72
(lp73
(S'MPI_Initialized()'
p74
S'13'
p75
tp76
a(S'MPI_Init()'
p77
S'20'
p78
tp79
a(S'MPI_Comm_rank()'
p80
S'33'
p81
tp82
a(S'MPI_Comm_size()'
p83
S'42'
p84
tp85
a(S'MPI_Barrier()'
p86
S'50'
p87
tp88
asS'action-classif/framework/common/libs/fastcluster/test_mpi_queue.cpp'
p89
(lp90
(S'MPI_Comm_rank()'
p91
S'124'
p92
tp93
a(S'MPI_Comm_size()'
p94
S'125'
p95
tp96
a(S'MPI_Comm_rank()'
p97
S'162'
p98
tp99
a(S'MPI_Comm_size()'
p100
S'163'
p101
tp102
a(S'MPI_Allreduce()'
p103
S'177'
p104
tp105
a(S'MPI_Init()'
p106
S'187'
p107
tp108
a(S'MPI_Finalize()'
p109
S'205'
p110
tp111
asS'action-classif/framework/common/libs/fastcluster/kmeans.cpp'
p112
(lp113
(S'MPI_Wtime()'
p114
S'85'
p115
tp116
a(S'MPI_Wtime()'
p117
S'87'
p118
tp119
a(S'MPI_Wtime()'
p120
S'89'
p121
tp122
a(S'MPI_Wtime()'
p123
S'91'
p124
tp125
a(S'MPI_Initialized()'
p126
S'170'
p127
tp128
a(S'MPI_Comm_rank()'
p129
S'179'
p130
tp131
a(S'MPI_Comm_size()'
p132
S'180'
p133
tp134
a(S'MPI_Bcast()'
p135
S'221'
p136
tp137
a(S'MPI_Wtime()'
p138
S'225'
p139
tp140
a(S'MPI_Wtime()'
p141
S'226'
p142
tp143
a(S'MPI_Bcast()'
p144
S'227'
p145
tp146
a(S'MPI_Wtime()'
p147
S'228'
p148
tp149
a(S'MPI_Wtime()'
p150
S'243'
p151
tp152
a(S'MPI_Wtime()'
p153
S'245'
p154
tp155
a(S'MPI_Wtime()'
p156
S'257'
p157
tp158
a(S'MPI_Wtime()'
p159
S'264'
p160
tp161
a(S'MPI_Wtime()'
p162
S'267'
p163
tp164
a(S'MPI_Reduce()'
p165
S'269'
p166
tp167
a(S'MPI_Reduce()'
p168
S'270'
p169
tp170
a(S'MPI_Reduce()'
p171
S'271'
p172
tp173
a(S'MPI_Reduce()'
p174
S'274'
p175
tp176
a(S'MPI_Reduce()'
p177
S'275'
p178
tp179
a(S'MPI_Reduce()'
p180
S'276'
p181
tp182
a(S'MPI_Wtime()'
p183
S'278'
p184
tp185
a(S'MPI_Wtime()'
p186
S'279'
p187
tp188
a(S'MPI_Reduce()'
p189
S'285'
p190
tp191
a(S'MPI_Reduce()'
p192
S'286'
p193
tp194
a(S'MPI_Reduce()'
p195
S'287'
p196
tp197
a(S'MPI_Reduce()'
p198
S'288'
p199
tp200
a(S'MPI_Reduce()'
p201
S'289'
p202
tp203
a(S'MPI_Reduce()'
p204
S'290'
p205
tp206
a(S'MPI_Reduce()'
p207
S'291'
p208
tp209
a(S'MPI_Wtime()'
p210
S'338'
p211
tp212
as.