ccollections
defaultdict
p0
(c__builtin__
list
p1
tp2
Rp3
S'P1.9_Collaborative_Project/src/ljmd.c'
p4
(lp5
(S'MPI_Init()'
p6
S'29'
p7
tp8
a(S'MPI_Comm_rank()'
p9
S'31'
p10
tp11
a(S'MPI_Comm_size()'
p12
S'32'
p13
tp14
a(S'MPI_Bcast()'
p15
S'80'
p16
tp17
a(S'MPI_Bcast()'
p18
S'81'
p19
tp20
a(S'MPI_Bcast()'
p21
S'83'
p22
tp23
a(S'MPI_Bcast()'
p24
S'84'
p25
tp26
a(S'MPI_Bcast()'
p27
S'86'
p28
tp29
a(S'MPI_Bcast()'
p30
S'87'
p31
tp32
a(S'MPI_Bcast()'
p33
S'88'
p34
tp35
a(S'MPI_Bcast()'
p36
S'90'
p37
tp38
a(S'MPI_Bcast()'
p39
S'91'
p40
tp41
a(S'MPI_Bcast()'
p42
S'92'
p43
tp44
a(S'MPI_Bcast()'
p45
S'93'
p46
tp47
a(S'MPI_Bcast()'
p48
S'94'
p49
tp50
a(S'MPI_Bcast()'
p51
S'95'
p52
tp53
a(S'MPI_Bcast()'
p54
S'96'
p55
tp56
a(S'MPI_Bcast()'
p57
S'97'
p58
tp59
a(S'MPI_Finalize()'
p60
S'184'
p61
tp62
asS'P1.9_Collaborative_Project/src/force.c'
p63
(lp64
(S'MPI_Bcast()'
p65
S'79'
p66
tp67
a(S'MPI_Bcast()'
p68
S'80'
p69
tp70
a(S'MPI_Bcast()'
p71
S'81'
p72
tp73
a(S'MPI_Reduce()'
p74
S'162'
p75
tp76
a(S'MPI_Reduce()'
p77
S'164'
p78
tp79
a(S'MPI_Reduce()'
p80
S'166'
p81
tp82
a(S'MPI_Reduce()'
p83
S'169'
p84
tp85
a(S'MPI_Reduce()'
p86
S'171'
p87
tp88
a(S'MPI_Reduce()'
p89
S'173'
p90
tp91
a(S'MPI_Reduce()'
p92
S'176'
p93
tp94
as.