ccollections
defaultdict
p0
(c__builtin__
list
p1
tp2
Rp3
S'NWChem-Json/src/tools/ga-5-4/armci/src/devices/dcmf/dcmf-0.3.0/armcix_impl.c'
p4
(lp5
(S'MPI_Initialized()'
p6
S'318'
p7
tp8
a(S'MPI_Query_thread()'
p9
S'322'
p10
tp11
asS'NWChem-Json/src/nwpw/nwpwlib/D3dB/D3dB-mpi.F'
p12
(lp13
(S'MPI_IRECV()'
p14
S'116'
p15
tp16
a(S'MPI_IRECV()'
p17
S'124'
p18
tp19
a(S'MPI_SEND()'
p20
S'148'
p21
tp22
a(S'MPI_SEND()'
p23
S'153'
p24
tp25
a(S'MPI_IRECV()'
p26
S'291'
p27
tp28
a(S'MPI_IRECV()'
p29
S'299'
p30
tp31
a(S'MPI_SEND()'
p32
S'324'
p33
tp34
a(S'MPI_SEND()'
p35
S'329'
p36
tp37
a(S'MPI_IRECV()'
p38
S'507'
p39
tp40
a(S'MPI_IRECV()'
p41
S'515'
p42
tp43
a(S'MPI_SEND()'
p44
S'539'
p45
tp46
a(S'MPI_SEND()'
p47
S'544'
p48
tp49
a(S'MPI_IRECV()'
p50
S'714'
p51
tp52
a(S'MPI_IRECV()'
p53
S'722'
p54
tp55
a(S'MPI_SEND()'
p56
S'746'
p57
tp58
a(S'MPI_SEND()'
p59
S'751'
p60
tp61
a(S'MPI_Allreduce()'
p62
S'816'
p63
tp64
a(S'MPI_Allreduce()'
p65
S'819'
p66
tp67
a(S'MPI_Allreduce()'
p68
S'859'
p69
tp70
a(S'MPI_Allreduce()'
p71
S'865'
p72
tp73
a(S'MPI_Allreduce()'
p74
S'922'
p75
tp76
a(S'MPI_Allreduce()'
p77
S'927'
p78
tp79
a(S'MPI_Allreduce()'
p80
S'989'
p81
tp82
a(S'MPI_Allreduce()'
p83
S'998'
p84
tp85
a(S'MPI_IRECV()'
p86
S'1119'
p87
tp88
a(S'MPI_IRECV()'
p89
S'1127'
p90
tp91
a(S'MPI_SEND()'
p92
S'1151'
p93
tp94
a(S'MPI_SEND()'
p95
S'1156'
p96
tp97
a(S'MPI_IRECV()'
p98
S'1284'
p99
tp100
a(S'MPI_IRECV()'
p101
S'1292'
p102
tp103
a(S'MPI_SEND()'
p104
S'1316'
p105
tp106
a(S'MPI_SEND()'
p107
S'1321'
p108
tp109
a(S'MPI_IRECV()'
p110
S'1461'
p111
tp112
a(S'MPI_IRECV()'
p113
S'1469'
p114
tp115
a(S'MPI_SEND()'
p116
S'1493'
p117
tp118
a(S'MPI_SEND()'
p119
S'1498'
p120
tp121
a(S'MPI_ISEND()'
p122
S'1573'
p123
tp124
a(S'MPI_ISEND()'
p125
S'1581'
p126
tp127
a(S'MPI_IRECV()'
p128
S'1606'
p129
tp130
a(S'MPI_IRECV()'
p131
S'1614'
p132
tp133
a(S'MPI_IRECV()'
p134
S'1696'
p135
tp136
a(S'MPI_IRECV()'
p137
S'1704'
p138
tp139
a(S'MPI_ISEND()'
p140
S'1728'
p141
tp142
a(S'MPI_ISEND()'
p143
S'1736'
p144
tp145
a(S'MPI_IRECV()'
p146
S'1868'
p147
tp148
a(S'MPI_IRECV()'
p149
S'1876'
p150
tp151
a(S'MPI_ISEND()'
p152
S'1901'
p153
tp154
a(S'MPI_ISEND()'
p155
S'1909'
p156
tp157
a(S'MPI_IRECV()'
p158
S'2071'
p159
tp160
a(S'MPI_IRECV()'
p161
S'2079'
p162
tp163
a(S'MPI_ISEND()'
p164
S'2104'
p165
tp166
a(S'MPI_ISEND()'
p167
S'2112'
p168
tp169
a(S'MPI_IRECV()'
p170
S'2283'
p171
tp172
a(S'MPI_IRECV()'
p173
S'2291'
p174
tp175
a(S'MPI_ISEND()'
p176
S'2316'
p177
tp178
a(S'MPI_ISEND()'
p179
S'2324'
p180
tp181
a(S'MPI_IRECV()'
p182
S'2502'
p183
tp184
a(S'MPI_IRECV()'
p185
S'2510'
p186
tp187
a(S'MPI_ISEND()'
p188
S'2536'
p189
tp190
a(S'MPI_ISEND()'
p191
S'2544'
p192
tp193
a(S'MPI_SEND()'
p194
S'2704'
p195
tp196
a(S'MPI_SEND()'
p197
S'2709'
p198
tp199
a(S'MPI_RECV()'
p200
S'2735'
p201
tp202
a(S'MPI_RECV()'
p203
S'2741'
p204
tp205
a(S'MPI_SEND()'
p206
S'2783'
p207
tp208
a(S'MPI_SEND()'
p209
S'2788'
p210
tp211
a(S'MPI_RECV()'
p212
S'2817'
p213
tp214
a(S'MPI_RECV()'
p215
S'2823'
p216
tp217
a(S'MPI_SEND()'
p218
S'2952'
p219
tp220
a(S'MPI_SEND()'
p221
S'2957'
p222
tp223
a(S'MPI_RECV()'
p224
S'2982'
p225
tp226
a(S'MPI_RECV()'
p227
S'2988'
p228
tp229
a(S'MPI_SEND()'
p230
S'3029'
p231
tp232
a(S'MPI_SEND()'
p233
S'3034'
p234
tp235
a(S'MPI_RECV()'
p236
S'3062'
p237
tp238
a(S'MPI_RECV()'
p239
S'3068'
p240
tp241
a(S'MPI_SEND()'
p242
S'3201'
p243
tp244
a(S'MPI_SEND()'
p245
S'3206'
p246
tp247
a(S'MPI_RECV()'
p248
S'3233'
p249
tp250
a(S'MPI_RECV()'
p251
S'3239'
p252
tp253
a(S'MPI_SEND()'
p254
S'3288'
p255
tp256
a(S'MPI_SEND()'
p257
S'3293'
p258
tp259
a(S'MPI_RECV()'
p260
S'3323'
p261
tp262
a(S'MPI_RECV()'
p263
S'3329'
p264
tp265
a(S'MPI_SEND()'
p266
S'3443'
p267
tp268
a(S'MPI_SEND()'
p269
S'3448'
p270
tp271
a(S'MPI_RECV()'
p272
S'3474'
p273
tp274
a(S'MPI_RECV()'
p275
S'3480'
p276
tp277
a(S'MPI_SEND()'
p278
S'3528'
p279
tp280
a(S'MPI_SEND()'
p281
S'3533'
p282
tp283
a(S'MPI_RECV()'
p284
S'3562'
p285
tp286
a(S'MPI_RECV()'
p287
S'3568'
p288
tp289
a(S'MPI_SEND()'
p290
S'3680'
p291
tp292
a(S'MPI_SEND()'
p293
S'3685'
p294
tp295
a(S'MPI_RECV()'
p296
S'3711'
p297
tp298
a(S'MPI_RECV()'
p299
S'3717'
p300
tp301
a(S'MPI_SEND()'
p302
S'3759'
p303
tp304
a(S'MPI_SEND()'
p305
S'3764'
p306
tp307
a(S'MPI_RECV()'
p308
S'3793'
p309
tp310
a(S'MPI_RECV()'
p311
S'3799'
p312
tp313
a(S'MPI_SEND()'
p314
S'3923'
p315
tp316
a(S'MPI_SEND()'
p317
S'3928'
p318
tp319
a(S'MPI_RECV()'
p320
S'3953'
p321
tp322
a(S'MPI_RECV()'
p323
S'3959'
p324
tp325
a(S'MPI_SEND()'
p326
S'4000'
p327
tp328
a(S'MPI_SEND()'
p329
S'4005'
p330
tp331
a(S'MPI_RECV()'
p332
S'4033'
p333
tp334
a(S'MPI_RECV()'
p335
S'4039'
p336
tp337
a(S'MPI_SEND()'
p338
S'4168'
p339
tp340
a(S'MPI_RECV()'
p341
S'4174'
p342
tp343
a(S'MPI_SEND()'
p344
S'4180'
p345
tp346
a(S'MPI_RECV()'
p347
S'4184'
p348
tp349
a(S'MPI_RECV()'
p350
S'4219'
p351
tp352
a(S'MPI_SEND()'
p353
S'4226'
p354
tp355
a(S'MPI_RECV()'
p356
S'4231'
p357
tp358
a(S'MPI_SEND()'
p359
S'4236'
p360
tp361
a(S'MPI_SEND()'
p362
S'4302'
p363
tp364
a(S'MPI_RECV()'
p365
S'4308'
p366
tp367
a(S'MPI_SEND()'
p368
S'4314'
p369
tp370
a(S'MPI_RECV()'
p371
S'4318'
p372
tp373
a(S'MPI_RECV()'
p374
S'4355'
p375
tp376
a(S'MPI_SEND()'
p377
S'4362'
p378
tp379
a(S'MPI_RECV()'
p380
S'4367'
p381
tp382
a(S'MPI_SEND()'
p383
S'4372'
p384
tp385
a(S'MPI_SEND()'
p386
S'4473'
p387
tp388
a(S'MPI_RECV()'
p389
S'4479'
p390
tp391
a(S'MPI_SEND()'
p392
S'4485'
p393
tp394
a(S'MPI_RECV()'
p395
S'4489'
p396
tp397
a(S'MPI_RECV()'
p398
S'4523'
p399
tp400
a(S'MPI_SEND()'
p401
S'4530'
p402
tp403
a(S'MPI_RECV()'
p404
S'4535'
p405
tp406
a(S'MPI_SEND()'
p407
S'4540'
p408
tp409
a(S'MPI_SEND()'
p410
S'4605'
p411
tp412
a(S'MPI_RECV()'
p413
S'4611'
p414
tp415
a(S'MPI_SEND()'
p416
S'4617'
p417
tp418
a(S'MPI_RECV()'
p419
S'4621'
p420
tp421
a(S'MPI_RECV()'
p422
S'4657'
p423
tp424
a(S'MPI_SEND()'
p425
S'4664'
p426
tp427
a(S'MPI_RECV()'
p428
S'4669'
p429
tp430
a(S'MPI_SEND()'
p431
S'4674'
p432
tp433
a(S'MPI_RECV()'
p434
S'4765'
p435
tp436
a(S'MPI_RECV()'
p437
S'4771'
p438
tp439
a(S'MPI_SEND()'
p440
S'4805'
p441
tp442
a(S'MPI_SEND()'
p443
S'4810'
p444
tp445
a(S'MPI_RECV()'
p446
S'4847'
p447
tp448
a(S'MPI_RECV()'
p449
S'4853'
p450
tp451
a(S'MPI_SEND()'
p452
S'4889'
p453
tp454
a(S'MPI_SEND()'
p455
S'4894'
p456
tp457
a(S'MPI_SEND()'
p458
S'4987'
p459
tp460
a(S'MPI_RECV()'
p461
S'4993'
p462
tp463
a(S'MPI_SEND()'
p464
S'4999'
p465
tp466
a(S'MPI_RECV()'
p467
S'5003'
p468
tp469
a(S'MPI_RECV()'
p470
S'5039'
p471
tp472
a(S'MPI_SEND()'
p473
S'5046'
p474
tp475
a(S'MPI_RECV()'
p476
S'5051'
p477
tp478
a(S'MPI_SEND()'
p479
S'5056'
p480
tp481
a(S'MPI_SEND()'
p482
S'5121'
p483
tp484
a(S'MPI_RECV()'
p485
S'5127'
p486
tp487
a(S'MPI_SEND()'
p488
S'5133'
p489
tp490
a(S'MPI_RECV()'
p491
S'5137'
p492
tp493
a(S'MPI_RECV()'
p494
S'5176'
p495
tp496
a(S'MPI_SEND()'
p497
S'5183'
p498
tp499
a(S'MPI_RECV()'
p500
S'5188'
p501
tp502
a(S'MPI_SEND()'
p503
S'5193'
p504
tp505
a(S'MPI_RECV()'
p506
S'5284'
p507
tp508
a(S'MPI_RECV()'
p509
S'5290'
p510
tp511
a(S'MPI_SEND()'
p512
S'5327'
p513
tp514
a(S'MPI_SEND()'
p515
S'5332'
p516
tp517
a(S'MPI_RECV()'
p518
S'5373'
p519
tp520
a(S'MPI_RECV()'
p521
S'5379'
p522
tp523
a(S'MPI_SEND()'
p524
S'5416'
p525
tp526
a(S'MPI_SEND()'
p527
S'5421'
p528
tp529
a(S'MPI_SEND()'
p530
S'5509'
p531
tp532
a(S'MPI_RECV()'
p533
S'5513'
p534
tp535
a(S'MPI_SEND()'
p536
S'5519'
p537
tp538
a(S'MPI_RECV()'
p539
S'5523'
p540
tp541
a(S'MPI_RECV()'
p542
S'5561'
p543
tp544
a(S'MPI_SEND()'
p545
S'5566'
p546
tp547
a(S'MPI_RECV()'
p548
S'5571'
p549
tp550
a(S'MPI_SEND()'
p551
S'5576'
p552
tp553
a(S'MPI_SEND()'
p554
S'5614'
p555
tp556
a(S'MPI_RECV()'
p557
S'5618'
p558
tp559
a(S'MPI_SEND()'
p560
S'5624'
p561
tp562
a(S'MPI_RECV()'
p563
S'5628'
p564
tp565
a(S'MPI_RECV()'
p566
S'5662'
p567
tp568
a(S'MPI_SEND()'
p569
S'5667'
p570
tp571
a(S'MPI_RECV()'
p572
S'5672'
p573
tp574
a(S'MPI_SEND()'
p575
S'5677'
p576
tp577
a(S'MPI_RECV()'
p578
S'5765'
p579
tp580
a(S'MPI_RECV()'
p581
S'5771'
p582
tp583
a(S'MPI_SEND()'
p584
S'5808'
p585
tp586
a(S'MPI_SEND()'
p587
S'5813'
p588
tp589
asS'NWChem-Json/src/tools/ga-5-4/armci/src/devices/mpi-mt/mpi2_server.c'
p590
(lp591
(S'MPI_Check()'
p592
S'107'
p593
tp594
a(S'MPI_Send()'
p595
S'108'
p596
tp597
a(S'MPI_Check()'
p598
S'114'
p599
tp600
a(S'MPI_Recv()'
p601
S'115'
p602
tp603
a(S'MPI_Finalize()'
p604
S'150'
p605
tp606
a(S'MPI_Check()'
p607
S'201'
p608
tp609
a(S'MPI_Recv()'
p610
S'202'
p611
tp612
a(S'MPI_Check()'
p613
S'271'
p614
tp615
a(S'MPI_Send()'
p616
S'272'
p617
tp618
a(S'MPI_Check()'
p619
S'312'
p620
tp621
a(S'MPI_Iprobe()'
p622
S'313'
p623
tp624
a(S'MPI_Check()'
p625
S'319'
p626
tp627
a(S'MPI_Probe()'
p628
S'320'
p629
tp630
a(S'MPI_Check()'
p631
S'358'
p632
tp633
a(S'MPI_Check()'
p634
S'360'
p635
tp636
a(S'MPI_Check()'
p637
S'361'
p638
tp639
asS'NWChem-Json/src/tools/ga-5-4/armci/examples/features/non-blocking/overlap/overlap.c'
p640
(lp641
(S'MPI_Bcast()'
p642
S'684'
p643
tp644
a(S'MPI_Gather()'
p645
S'744'
p646
tp647
asS'NWChem-Json/src/tools/ga-5-4/m4/ga_mpif77_test.m4'
p648
(lp649
(S'MPI_Init()'
p650
S'9'
p651
tp652
a(S'MPI_Finalize()'
p653
S'10'
p654
tp655
asS'NWChem-Json/src/tools/ga-5-4/global/testing/unit-tests/ga_get_diagonal.c'
p656
(lp657
(S'MPI_Init()'
p658
S'26'
p659
tp660
a(S'MPI_Comm_rank()'
p661
S'28'
p662
tp663
a(S'MPI_Comm_size()'
p664
S'29'
p665
tp666
a(S'MPI_Finalize()'
p667
S'66'
p668
tp669
asS'NWChem-Json/src/tools/ga-5-4/global/testing/unit-tests/ga_create2.c'
p670
(lp671
(S'MPI_Init()'
p672
S'38'
p673
tp674
a(S'MPI_Comm_rank()'
p675
S'40'
p676
tp677
a(S'MPI_Comm_size()'
p678
S'41'
p679
tp680
a(S'MPI_Finalize()'
p681
S'52'
p682
tp683
asS'NWChem-Json/src/tools/ga-5-4/armci/testing/origptl.c'
p684
(lp685
(S'MPI_Init()'
p686
S'54'
p687
tp688
a(S'MPI_Finalize()'
p689
S'55'
p690
tp691
asS'NWChem-Json/src/tools/ga-5-4/global/testing/unit-tests/ga_dot.c'
p692
(lp693
(S'MPI_Init()'
p694
S'64'
p695
tp696
a(S'MPI_Comm_rank()'
p697
S'66'
p698
tp699
a(S'MPI_Comm_size()'
p700
S'67'
p701
tp702
a(S'MPI_Finalize()'
p703
S'78'
p704
tp705
asS'NWChem-Json/src/tools/ga-5-4/comex/testing/perf_strided.c'
p706
(lp707
(S'MPI_Finalize()'
p708
S'71'
p709
tp710
asS'NWChem-Json/src/tools/ga-5-4/global/testing/mp3.h'
p711
(lp712
(S'MPI_Init_thread()'
p713
S'44'
p714
tp715
a(S'MPI_Abort()'
p716
S'56'
p717
tp718
asS'NWChem-Json/src/smd/graveyard/smd-subgroups/task_smd_energy.F'
p719
(lp720
(S'mpi_barrier()'
p721
S'72'
p722
tp723
a(S'mpi_barrier()'
p724
S'93'
p725
tp726
asS'NWChem-Json/src/tools/ga-5-4/armci/src-portals/groups.c'
p727
(lp728
(S'MPI_Comm_compare()'
p729
S'87'
p730
tp731
a(S'MPI_Group_size()'
p732
S'111'
p733
tp734
a(S'MPI_Comm_group()'
p735
S'124'
p736
tp737
a(S'MPI_Group_translate_ranks()'
p738
S'125'
p739
tp740
a(S'MPI_Comm_group()'
p741
S'164'
p742
tp743
a(S'MPI_Group_translate_ranks()'
p744
S'165'
p745
tp746
a(S'MPI_Comm_free()'
p747
S'363'
p748
tp749
a(S'MPI_Group_rank()'
p750
S'466'
p751
tp752
a(S'MPI_Comm_dup()'
p753
S'472'
p754
tp755
a(S'MPI_Intercomm_create()'
p756
S'481'
p757
tp758
a(S'MPI_Comm_free()'
p759
S'482'
p760
tp761
a(S'MPI_Intercomm_merge()'
p762
S'483'
p763
tp764
a(S'MPI_Comm_free()'
p765
S'484'
p766
tp767
a(S'MPI_Group_free()'
p768
S'491'
p769
tp770
a(S'MPI_Comm_group()'
p771
S'492'
p772
tp773
a(S'MPI_Comm_group()'
p774
S'539'
p775
tp776
a(S'MPI_Group_rank()'
p777
S'542'
p778
tp779
asS'NWChem-Json/src/util/linux_printaff.c'
p780
(lp781
(S'MPI_Comm_rank()'
p782
S'27'
p783
tp784
a(S'MPI_Comm_rank()'
p785
S'54'
p786
tp787
asS'NWChem-Json/src/tools/ga-5-4/tcgmsg/tcgmsg-mpi/collect.c'
p788
(lp789
(S'MPI_Reduce()'
p790
S'49'
p791
tp792
a(S'MPI_Reduce()'
p793
S'51'
p794
tp795
a(S'MPI_Reduce()'
p796
S'53'
p797
tp798
a(S'MPI_Reduce()'
p799
S'56'
p800
tp801
a(S'MPI_Reduce()'
p802
S'59'
p803
tp804
a(S'MPI_Bcast()'
p805
S'65'
p806
tp807
a(S'MPI_Reduce()'
p808
S'105'
p809
tp810
a(S'MPI_Reduce()'
p811
S'107'
p812
tp813
a(S'MPI_Reduce()'
p814
S'109'
p815
tp816
a(S'MPI_Reduce()'
p817
S'111'
p818
tp819
a(S'MPI_Bcast()'
p820
S'117'
p821
tp822
a(S'MPI_Barrier()'
p823
S'140'
p824
tp825
a(S'MPI_Bcast()'
p826
S'153'
p827
tp828
asS'NWChem-Json/src/tools/ga-5-4/tools/wapigen_timers.py'
p829
(lp830
(S'MPI_Wtime()'
p831
S'155'
p832
tp833
a(S'MPI_Wtime()'
p834
S'157'
p835
tp836
a(S'MPI_Wtime()'
p837
S'169'
p838
tp839
a(S'MPI_Wtime()'
p840
S'171'
p841
tp842
a(S'MPI_Wtime()'
p843
S'184'
p844
tp845
a(S'MPI_Comm_dup()'
p846
S'186'
p847
tp848
a(S'MPI_Comm_rank()'
p849
S'187'
p850
tp851
a(S'MPI_Comm_size()'
p852
S'188'
p853
tp854
a(S'MPI_Wtime()'
p855
S'200'
p856
tp857
a(S'MPI_Comm_dup()'
p858
S'202'
p859
tp860
a(S'MPI_Comm_rank()'
p861
S'203'
p862
tp863
a(S'MPI_Comm_size()'
p864
S'204'
p865
tp866
a(S'MPI_Reduce()'
p867
S'220'
p868
tp869
a(S'MPI_Wtime()'
p870
S'230'
p871
tp872
a(S'MPI_Comm_free()'
p873
S'239'
p874
tp875
asS'NWChem-Json/src/tools/ga-5-4/global/testing/unit-tests/ga_pgroup_create.c'
p876
(lp877
(S'MPI_Init()'
p878
S'20'
p879
tp880
a(S'MPI_Comm_rank()'
p881
S'22'
p882
tp883
a(S'MPI_Comm_size()'
p884
S'23'
p885
tp886
a(S'MPI_Finalize()'
p887
S'120'
p888
tp889
asS'NWChem-Json/src/tools/ga-5-4/tcgmsg/tcgmsg-mpi/misc.c'
p890
(lp891
(S'MPI_Comm_size()'
p892
S'40'
p893
tp894
a(S'MPI_Comm_rank()'
p895
S'57'
p896
tp897
a(S'MPI_Abort()'
p898
S'71'
p899
tp900
a(S'MPI_Comm_size()'
p901
S'88'
p902
tp903
a(S'MPI_Comm_group()'
p904
S'90'
p905
tp906
a(S'MPI_Group_excl()'
p907
S'91'
p908
tp909
a(S'MPI_Comm_create()'
p910
S'92'
p911
tp912
a(S'MPI_Initialized()'
p913
S'135'
p914
tp915
a(S'MPI_Init_thread()'
p916
S'141'
p917
tp918
a(S'MPI_Init()'
p919
S'143'
p920
tp921
a(S'MPI_Errhandler_set()'
p922
S'145'
p923
tp924
a(S'MPI_Comm_size()'
p925
S'148'
p926
tp927
a(S'MPI_Comm_rank()'
p928
S'149'
p929
tp930
a(S'MPI_Barrier()'
p931
S'163'
p932
tp933
a(S'MPI_Barrier()'
p934
S'188'
p935
tp936
a(S'MPI_Finalize()'
p937
S'191'
p938
tp939
a(S'MPI_Wtime()'
p940
S'203'
p941
tp942
a(S'MPI_Wtime()'
p943
S'208'
p944
tp945
asS'NWChem-Json/src/tools/ga-5-4/configure'
p946
(lp947
(S'MPI_Init()'
p948
S'19342'
p949
tp950
a(S'MPI_Finalize()'
p951
S'19343'
p952
tp953
a(S'MPI_Init()'
p954
S'19525'
p955
tp956
a(S'MPI_Finalize()'
p957
S'19526'
p958
tp959
asS'NWChem-Json/src/tools/ga-5-4/global/testing/unit-tests/ga_gather3.c'
p960
(lp961
(S'MPI_Init()'
p962
S'26'
p963
tp964
a(S'MPI_Comm_rank()'
p965
S'30'
p966
tp967
a(S'MPI_Comm_size()'
p968
S'31'
p969
tp970
a(S'MPI_Finalize()'
p971
S'70'
p972
tp973
asS'NWChem-Json/src/peigs/comm/mxsubs.F'
p974
(lp975
(S'MPI_INITIALIZED()'
p976
S'126'
p977
tp978
a(S'MPI_INIT()'
p979
S'135'
p980
tp981
a(S'MPI_COMM_RANK()'
p982
S'206'
p983
tp984
a(S'MPI_COMM_SIZE()'
p985
S'213'
p986
tp987
a(S'MPI_RECV()'
p988
S'344'
p989
tp990
a(S'MPI_SEND()'
p991
S'432'
p992
tp993
a(S'MPI_BARRIER()'
p994
S'485'
p995
tp996
a(S'MPI_FINALIZE()'
p997
S'596'
p998
tp999
a(S'MPI_FINALIZE()'
p1000
S'688'
p1001
tp1002
asS'NWChem-Json/src/tools/ga-5-4/global/testing/mp3.fh'
p1003
(lp1004
(S'mpi_init_thread()'
p1005
S'18'
p1006
tp1007
a(S'mpi_init()'
p1008
S'20'
p1009
tp1010
asS'NWChem-Json/src/tools/ga-5-4/global/testing/unit-tests/ga_fillpatch1.c'
p1011
(lp1012
(S'MPI_Init()'
p1013
S'24'
p1014
tp1015
a(S'MPI_Comm_rank()'
p1016
S'26'
p1017
tp1018
a(S'MPI_Comm_size()'
p1019
S'27'
p1020
tp1021
a(S'MPI_Finalize()'
p1022
S'81'
p1023
tp1024
asS'NWChem-Json/src/tools/ga-5-4/global/testing/unit-tests/ga_gather2.c'
p1025
(lp1026
(S'MPI_Init()'
p1027
S'25'
p1028
tp1029
a(S'MPI_Comm_rank()'
p1030
S'29'
p1031
tp1032
a(S'MPI_Comm_size()'
p1033
S'30'
p1034
tp1035
a(S'MPI_Finalize()'
p1036
S'96'
p1037
tp1038
asS'NWChem-Json/src/tools/ga-5-4/comex/src-mpi-pr/groups.c'
p1039
(lp1040
(S'X_MPI_COMM_NULL()'
p1041
S'30'
p1042
tp1043
a(S'X_MPI_GROUP_NULL()'
p1044
S'31'
p1045
tp1046
a(S'X_MPI_COMM_NULL()'
p1047
S'36'
p1048
tp1049
a(S'MPI_Group_translate_ranks()'
p1050
S'182'
p1051
tp1052
a(S'MPI_Group_free()'
p1053
S'205'
p1054
tp1055
a(S'MPI_Comm_free()'
p1056
S'215'
p1057
tp1058
a(S'MPI_Group_incl()'
p1059
S'295'
p1060
tp1061
a(S'MPI_Group_rank()'
p1062
S'304'
p1063
tp1064
a(S'MPI_Comm_dup()'
p1065
S'316'
p1066
tp1067
a(S'MPI_Intercomm_create()'
p1068
S'326'
p1069
tp1070
a(S'MPI_Comm_free()'
p1071
S'329'
p1072
tp1073
a(S'MPI_Intercomm_merge()'
p1074
S'331'
p1075
tp1076
a(S'MPI_Comm_free()'
p1077
S'333'
p1078
tp1079
a(S'MPI_Group_free()'
p1080
S'342'
p1081
tp1082
a(S'MPI_Comm_group()'
p1083
S'345'
p1084
tp1085
a(S'MPI_Comm_size()'
p1086
S'348'
p1087
tp1088
a(S'MPI_Comm_rank()'
p1089
S'350'
p1090
tp1091
a(S'MPI_Comm_dup()'
p1092
S'377'
p1093
tp1094
a(S'MPI_Comm_group()'
p1095
S'379'
p1096
tp1097
a(S'MPI_Comm_rank()'
p1098
S'381'
p1099
tp1100
a(S'MPI_Comm_size()'
p1101
S'383'
p1102
tp1103
a(S'MPI_Allgather()'
p1104
S'400'
p1105
tp1106
a(S'MPI_Allgather()'
p1107
S'427'
p1108
tp1109
a(S'MPI_Comm_split()'
p1110
S'437'
p1111
tp1112
a(S'MPI_Comm_free()'
p1113
S'441'
p1114
tp1115
a(S'MPI_Comm_split()'
p1116
S'448'
p1117
tp1118
a(S'MPI_Comm_group()'
p1119
S'451'
p1120
tp1121
a(S'MPI_Comm_rank()'
p1122
S'453'
p1123
tp1124
a(S'MPI_Comm_size()'
p1125
S'455'
p1126
tp1127
a(S'MPI_Comm_split()'
p1128
S'460'
p1129
tp1130
a(S'MPI_Comm_rank()'
p1131
S'464'
p1132
tp1133
a(S'MPI_Comm_size()'
p1134
S'467'
p1135
tp1136
a(S'MPI_Comm_free()'
p1137
S'501'
p1138
tp1139
a(S'MPI_Group_free()'
p1140
S'503'
p1141
tp1142
a(S'MPI_Comm_free()'
p1143
S'505'
p1144
tp1145
asS'NWChem-Json/src/tools/ga-5-4/gfutex/examples/scf/twoel.C.orig'
p1146
(lp1147
(S'MPI_Wtime()'
p1148
S'365'
p1149
tp1150
a(S'MPI_Wtime()'
p1151
S'398'
p1152
tp1153
a(S'MPI_Wtime()'
p1154
S'400'
p1155
tp1156
a(S'MPI_Wtime()'
p1157
S'402'
p1158
tp1159
a(S'MPI_Reduce()'
p1160
S'978'
p1161
tp1162
asS'NWChem-Json/src/tools/ga-5-4/global/testing/unit-tests/ga_solve.c'
p1163
(lp1164
(S'MPI_Init()'
p1165
S'26'
p1166
tp1167
a(S'MPI_Comm_rank()'
p1168
S'28'
p1169
tp1170
a(S'MPI_Comm_size()'
p1171
S'29'
p1172
tp1173
a(S'MPI_Finalize()'
p1174
S'66'
p1175
tp1176
asS'NWChem-Json/src/tools/ga-5-4/global/testing/unit-tests/ga_add_patch.c'
p1177
(lp1178
(S'MPI_Init()'
p1179
S'25'
p1180
tp1181
a(S'MPI_Comm_rank()'
p1182
S'27'
p1183
tp1184
a(S'MPI_Comm_size()'
p1185
S'28'
p1186
tp1187
a(S'MPI_Finalize()'
p1188
S'89'
p1189
tp1190
asS'NWChem-Json/src/tools/ga-5-4/tools/wapigen_trace.py'
p1191
(lp1192
(S'MPI_Wtime()'
p1193
S'443'
p1194
tp1195
a(S'MPI_Abort()'
p1196
S'457'
p1197
tp1198
a(S'MPI_Abort()'
p1199
S'464'
p1200
tp1201
a(S'MPI_Abort()'
p1202
S'476'
p1203
tp1204
asS'NWChem-Json/src/tools/ga-5-4/comex/src-ofa/groups.c'
p1205
(lp1206
(S'MPI_Group_rank()'
p1207
S'85'
p1208
tp1209
a(S'MPI_Group_size()'
p1210
S'102'
p1211
tp1212
a(S'MPI_Comm_group()'
p1213
S'129'
p1214
tp1215
a(S'MPI_Group_translate_ranks()'
p1216
S'133'
p1217
tp1218
a(S'MPI_Group_free()'
p1219
S'182'
p1220
tp1221
a(S'MPI_Comm_free()'
p1222
S'188'
p1223
tp1224
a(S'MPI_Group_incl()'
p1225
S'257'
p1226
tp1227
a(S'MPI_Group_rank()'
p1228
S'265'
p1229
tp1230
a(S'MPI_Comm_dup()'
p1231
S'273'
p1232
tp1233
a(S'MPI_Intercomm_create()'
p1234
S'282'
p1235
tp1236
a(S'MPI_Comm_free()'
p1237
S'284'
p1238
tp1239
a(S'MPI_Intercomm_merge()'
p1240
S'285'
p1241
tp1242
a(S'MPI_Comm_free()'
p1243
S'286'
p1244
tp1245
a(S'MPI_Group_free()'
p1246
S'294'
p1247
tp1248
a(S'MPI_Comm_group()'
p1249
S'296'
p1250
tp1251
a(S'MPI_Comm_group()'
p1252
S'320'
p1253
tp1254
asS'NWChem-Json/src/tools/ga-5-4/armci/src/collectives/message.c'
p1255
(lp1256
(S'MPI_Barrier()'
p1257
S'467'
p1258
tp1259
a(S'MPI_Initialized()'
p1260
S'498'
p1261
tp1262
a(S'MPI_Init_thread()'
p1263
S'502'
p1264
tp1265
a(S'MPI_Init()'
p1266
S'504'
p1267
tp1268
a(S'MPI_Comm_dup()'
p1269
S'508'
p1270
tp1271
a(S'MPI_Comm_rank()'
p1272
S'524'
p1273
tp1274
a(S'MPI_Comm_size()'
p1275
S'548'
p1276
tp1277
a(S'MPI_Abort()'
p1278
S'589'
p1279
tp1280
a(S'MPI_Finalize()'
p1281
S'608'
p1282
tp1283
a(S'MPI_Bcast()'
p1284
S'856'
p1285
tp1286
a(S'MPI_Send()'
p1287
S'871'
p1288
tp1289
a(S'MPI_Recv()'
p1290
S'895'
p1291
tp1292
a(S'MPI_Recv()'
p1293
S'918'
p1294
tp1295
a(S'MPI_Barrier()'
p1296
S'1951'
p1297
tp1298
a(S'MPI_Comm_group()'
p1299
S'1983'
p1300
tp1301
a(S'MPI_Group_incl()'
p1302
S'1984'
p1303
tp1304
a(S'MPI_Comm_create()'
p1305
S'1986'
p1306
tp1307
a(S'MPI_Comm_free()'
p1308
S'1993'
p1309
tp1310
a(S'MPI_Group_free()'
p1311
S'1994'
p1312
tp1313
asS'NWChem-Json/src/tools/ga-5-4/comex/tools/armci_prof.c'
p1314
(lp1315
(S'MPI_Wtime()'
p1316
S'144'
p1317
tp1318
a(S'MPI_Wtime()'
p1319
S'146'
p1320
tp1321
a(S'MPI_Wtime()'
p1322
S'158'
p1323
tp1324
a(S'MPI_Wtime()'
p1325
S'160'
p1326
tp1327
a(S'MPI_Wtime()'
p1328
S'172'
p1329
tp1330
a(S'MPI_Wtime()'
p1331
S'174'
p1332
tp1333
a(S'MPI_Wtime()'
p1334
S'186'
p1335
tp1336
a(S'MPI_Wtime()'
p1337
S'188'
p1338
tp1339
a(S'MPI_Wtime()'
p1340
S'200'
p1341
tp1342
a(S'MPI_Wtime()'
p1343
S'202'
p1344
tp1345
a(S'MPI_Wtime()'
p1346
S'214'
p1347
tp1348
a(S'MPI_Wtime()'
p1349
S'216'
p1350
tp1351
a(S'MPI_Wtime()'
p1352
S'228'
p1353
tp1354
a(S'MPI_Wtime()'
p1355
S'230'
p1356
tp1357
a(S'MPI_Wtime()'
p1358
S'242'
p1359
tp1360
a(S'MPI_Wtime()'
p1361
S'244'
p1362
tp1363
a(S'MPI_Wtime()'
p1364
S'256'
p1365
tp1366
a(S'MPI_Wtime()'
p1367
S'258'
p1368
tp1369
a(S'MPI_Wtime()'
p1370
S'270'
p1371
tp1372
a(S'MPI_Wtime()'
p1373
S'272'
p1374
tp1375
a(S'MPI_Wtime()'
p1376
S'284'
p1377
tp1378
a(S'MPI_Wtime()'
p1379
S'286'
p1380
tp1381
a(S'MPI_Wtime()'
p1382
S'298'
p1383
tp1384
a(S'MPI_Wtime()'
p1385
S'300'
p1386
tp1387
a(S'MPI_Wtime()'
p1388
S'312'
p1389
tp1390
a(S'MPI_Wtime()'
p1391
S'314'
p1392
tp1393
a(S'MPI_Wtime()'
p1394
S'326'
p1395
tp1396
a(S'MPI_Wtime()'
p1397
S'328'
p1398
tp1399
a(S'MPI_Wtime()'
p1400
S'340'
p1401
tp1402
a(S'MPI_Wtime()'
p1403
S'342'
p1404
tp1405
a(S'MPI_Wtime()'
p1406
S'354'
p1407
tp1408
a(S'MPI_Wtime()'
p1409
S'356'
p1410
tp1411
a(S'MPI_Wtime()'
p1412
S'368'
p1413
tp1414
a(S'MPI_Wtime()'
p1415
S'370'
p1416
tp1417
a(S'MPI_Comm_dup()'
p1418
S'382'
p1419
tp1420
a(S'MPI_Comm_rank()'
p1421
S'383'
p1422
tp1423
a(S'MPI_Comm_size()'
p1424
S'384'
p1425
tp1426
a(S'MPI_Wtime()'
p1427
S'387'
p1428
tp1429
a(S'MPI_Wtime()'
p1430
S'388'
p1431
tp1432
a(S'MPI_Wtime()'
p1433
S'390'
p1434
tp1435
a(S'MPI_Comm_dup()'
p1436
S'402'
p1437
tp1438
a(S'MPI_Comm_rank()'
p1439
S'403'
p1440
tp1441
a(S'MPI_Comm_size()'
p1442
S'404'
p1443
tp1444
a(S'MPI_Wtime()'
p1445
S'407'
p1446
tp1447
a(S'MPI_Wtime()'
p1448
S'408'
p1449
tp1450
a(S'MPI_Wtime()'
p1451
S'410'
p1452
tp1453
a(S'MPI_Wtime()'
p1454
S'422'
p1455
tp1456
a(S'MPI_Wtime()'
p1457
S'424'
p1458
tp1459
a(S'MPI_Wtime()'
p1460
S'436'
p1461
tp1462
a(S'MPI_Wtime()'
p1463
S'438'
p1464
tp1465
a(S'MPI_Wtime()'
p1466
S'450'
p1467
tp1468
a(S'MPI_Wtime()'
p1469
S'452'
p1470
tp1471
a(S'MPI_Wtime()'
p1472
S'464'
p1473
tp1474
a(S'MPI_Wtime()'
p1475
S'466'
p1476
tp1477
a(S'MPI_Wtime()'
p1478
S'478'
p1479
tp1480
a(S'MPI_Wtime()'
p1481
S'480'
p1482
tp1483
a(S'MPI_Wtime()'
p1484
S'492'
p1485
tp1486
a(S'MPI_Wtime()'
p1487
S'494'
p1488
tp1489
a(S'MPI_Wtime()'
p1490
S'506'
p1491
tp1492
a(S'MPI_Wtime()'
p1493
S'508'
p1494
tp1495
a(S'MPI_Wtime()'
p1496
S'520'
p1497
tp1498
a(S'MPI_Wtime()'
p1499
S'522'
p1500
tp1501
a(S'MPI_Wtime()'
p1502
S'534'
p1503
tp1504
a(S'MPI_Wtime()'
p1505
S'536'
p1506
tp1507
a(S'MPI_Wtime()'
p1508
S'548'
p1509
tp1510
a(S'MPI_Wtime()'
p1511
S'550'
p1512
tp1513
a(S'MPI_Wtime()'
p1514
S'562'
p1515
tp1516
a(S'MPI_Wtime()'
p1517
S'564'
p1518
tp1519
a(S'MPI_Wtime()'
p1520
S'576'
p1521
tp1522
a(S'MPI_Wtime()'
p1523
S'578'
p1524
tp1525
a(S'MPI_Wtime()'
p1526
S'590'
p1527
tp1528
a(S'MPI_Wtime()'
p1529
S'592'
p1530
tp1531
a(S'MPI_Wtime()'
p1532
S'604'
p1533
tp1534
a(S'MPI_Wtime()'
p1535
S'606'
p1536
tp1537
a(S'MPI_Wtime()'
p1538
S'618'
p1539
tp1540
a(S'MPI_Wtime()'
p1541
S'620'
p1542
tp1543
a(S'MPI_Wtime()'
p1544
S'632'
p1545
tp1546
a(S'MPI_Wtime()'
p1547
S'634'
p1548
tp1549
a(S'MPI_Wtime()'
p1550
S'646'
p1551
tp1552
a(S'MPI_Wtime()'
p1553
S'648'
p1554
tp1555
a(S'MPI_Wtime()'
p1556
S'660'
p1557
tp1558
a(S'MPI_Wtime()'
p1559
S'662'
p1560
tp1561
a(S'MPI_Wtime()'
p1562
S'674'
p1563
tp1564
a(S'MPI_Wtime()'
p1565
S'676'
p1566
tp1567
a(S'MPI_Wtime()'
p1568
S'688'
p1569
tp1570
a(S'MPI_Wtime()'
p1571
S'690'
p1572
tp1573
a(S'MPI_Wtime()'
p1574
S'702'
p1575
tp1576
a(S'MPI_Wtime()'
p1577
S'704'
p1578
tp1579
a(S'MPI_Wtime()'
p1580
S'716'
p1581
tp1582
a(S'MPI_Wtime()'
p1583
S'718'
p1584
tp1585
a(S'MPI_Wtime()'
p1586
S'730'
p1587
tp1588
a(S'MPI_Wtime()'
p1589
S'732'
p1590
tp1591
a(S'MPI_Wtime()'
p1592
S'744'
p1593
tp1594
a(S'MPI_Wtime()'
p1595
S'746'
p1596
tp1597
a(S'MPI_Wtime()'
p1598
S'758'
p1599
tp1600
a(S'MPI_Wtime()'
p1601
S'760'
p1602
tp1603
a(S'MPI_Wtime()'
p1604
S'772'
p1605
tp1606
a(S'MPI_Wtime()'
p1607
S'774'
p1608
tp1609
a(S'MPI_Wtime()'
p1610
S'786'
p1611
tp1612
a(S'MPI_Wtime()'
p1613
S'788'
p1614
tp1615
a(S'MPI_Wtime()'
p1616
S'800'
p1617
tp1618
a(S'MPI_Wtime()'
p1619
S'802'
p1620
tp1621
a(S'MPI_Wtime()'
p1622
S'814'
p1623
tp1624
a(S'MPI_Wtime()'
p1625
S'816'
p1626
tp1627
a(S'MPI_Wtime()'
p1628
S'828'
p1629
tp1630
a(S'MPI_Wtime()'
p1631
S'830'
p1632
tp1633
a(S'MPI_Wtime()'
p1634
S'842'
p1635
tp1636
a(S'MPI_Wtime()'
p1637
S'844'
p1638
tp1639
a(S'MPI_Wtime()'
p1640
S'856'
p1641
tp1642
a(S'MPI_Wtime()'
p1643
S'858'
p1644
tp1645
a(S'MPI_Wtime()'
p1646
S'870'
p1647
tp1648
a(S'MPI_Wtime()'
p1649
S'872'
p1650
tp1651
a(S'MPI_Wtime()'
p1652
S'884'
p1653
tp1654
a(S'MPI_Wtime()'
p1655
S'886'
p1656
tp1657
a(S'MPI_Wtime()'
p1658
S'898'
p1659
tp1660
a(S'MPI_Wtime()'
p1661
S'900'
p1662
tp1663
a(S'MPI_Wtime()'
p1664
S'912'
p1665
tp1666
a(S'MPI_Wtime()'
p1667
S'914'
p1668
tp1669
a(S'MPI_Wtime()'
p1670
S'926'
p1671
tp1672
a(S'MPI_Wtime()'
p1673
S'928'
p1674
tp1675
a(S'MPI_Wtime()'
p1676
S'940'
p1677
tp1678
a(S'MPI_Wtime()'
p1679
S'942'
p1680
tp1681
a(S'MPI_Wtime()'
p1682
S'952'
p1683
tp1684
a(S'MPI_Reduce()'
p1685
S'958'
p1686
tp1687
a(S'MPI_Reduce()'
p1688
S'963'
p1689
tp1690
a(S'MPI_Reduce()'
p1691
S'968'
p1692
tp1693
a(S'MPI_Reduce()'
p1694
S'973'
p1695
tp1696
a(S'MPI_Reduce()'
p1697
S'978'
p1698
tp1699
a(S'MPI_Reduce()'
p1700
S'983'
p1701
tp1702
a(S'MPI_Reduce()'
p1703
S'988'
p1704
tp1705
a(S'MPI_Reduce()'
p1706
S'993'
p1707
tp1708
a(S'MPI_Reduce()'
p1709
S'998'
p1710
tp1711
a(S'MPI_Reduce()'
p1712
S'1003'
p1713
tp1714
a(S'MPI_Reduce()'
p1715
S'1008'
p1716
tp1717
a(S'MPI_Reduce()'
p1718
S'1013'
p1719
tp1720
a(S'MPI_Reduce()'
p1721
S'1018'
p1722
tp1723
a(S'MPI_Reduce()'
p1724
S'1023'
p1725
tp1726
a(S'MPI_Reduce()'
p1727
S'1028'
p1728
tp1729
a(S'MPI_Reduce()'
p1730
S'1033'
p1731
tp1732
a(S'MPI_Reduce()'
p1733
S'1038'
p1734
tp1735
a(S'MPI_Reduce()'
p1736
S'1043'
p1737
tp1738
a(S'MPI_Reduce()'
p1739
S'1048'
p1740
tp1741
a(S'MPI_Reduce()'
p1742
S'1053'
p1743
tp1744
a(S'MPI_Reduce()'
p1745
S'1058'
p1746
tp1747
a(S'MPI_Reduce()'
p1748
S'1063'
p1749
tp1750
a(S'MPI_Reduce()'
p1751
S'1068'
p1752
tp1753
a(S'MPI_Reduce()'
p1754
S'1073'
p1755
tp1756
a(S'MPI_Reduce()'
p1757
S'1078'
p1758
tp1759
a(S'MPI_Reduce()'
p1760
S'1083'
p1761
tp1762
a(S'MPI_Reduce()'
p1763
S'1088'
p1764
tp1765
a(S'MPI_Reduce()'
p1766
S'1093'
p1767
tp1768
a(S'MPI_Reduce()'
p1769
S'1098'
p1770
tp1771
a(S'MPI_Reduce()'
p1772
S'1103'
p1773
tp1774
a(S'MPI_Reduce()'
p1775
S'1108'
p1776
tp1777
a(S'MPI_Reduce()'
p1778
S'1113'
p1779
tp1780
a(S'MPI_Reduce()'
p1781
S'1118'
p1782
tp1783
a(S'MPI_Reduce()'
p1784
S'1123'
p1785
tp1786
a(S'MPI_Reduce()'
p1787
S'1128'
p1788
tp1789
a(S'MPI_Reduce()'
p1790
S'1133'
p1791
tp1792
a(S'MPI_Reduce()'
p1793
S'1138'
p1794
tp1795
a(S'MPI_Reduce()'
p1796
S'1143'
p1797
tp1798
a(S'MPI_Reduce()'
p1799
S'1148'
p1800
tp1801
a(S'MPI_Reduce()'
p1802
S'1153'
p1803
tp1804
a(S'MPI_Reduce()'
p1805
S'1158'
p1806
tp1807
a(S'MPI_Reduce()'
p1808
S'1163'
p1809
tp1810
a(S'MPI_Reduce()'
p1811
S'1168'
p1812
tp1813
a(S'MPI_Reduce()'
p1814
S'1173'
p1815
tp1816
a(S'MPI_Reduce()'
p1817
S'1178'
p1818
tp1819
a(S'MPI_Reduce()'
p1820
S'1183'
p1821
tp1822
a(S'MPI_Reduce()'
p1823
S'1188'
p1824
tp1825
a(S'MPI_Reduce()'
p1826
S'1193'
p1827
tp1828
a(S'MPI_Reduce()'
p1829
S'1198'
p1830
tp1831
a(S'MPI_Reduce()'
p1832
S'1203'
p1833
tp1834
a(S'MPI_Reduce()'
p1835
S'1208'
p1836
tp1837
a(S'MPI_Reduce()'
p1838
S'1213'
p1839
tp1840
a(S'MPI_Reduce()'
p1841
S'1218'
p1842
tp1843
a(S'MPI_Reduce()'
p1844
S'1223'
p1845
tp1846
a(S'MPI_Reduce()'
p1847
S'1228'
p1848
tp1849
a(S'MPI_Reduce()'
p1850
S'1233'
p1851
tp1852
a(S'MPI_Reduce()'
p1853
S'1238'
p1854
tp1855
a(S'MPI_Reduce()'
p1856
S'1243'
p1857
tp1858
a(S'MPI_Comm_free()'
p1859
S'1253'
p1860
tp1861
asS'NWChem-Json/src/tools/ga-5-4/global/testing/unit-tests/ga_elem_dividepatch.c'
p1862
(lp1863
(S'MPI_Init()'
p1864
S'25'
p1865
tp1866
a(S'MPI_Comm_rank()'
p1867
S'27'
p1868
tp1869
a(S'MPI_Comm_size()'
p1870
S'28'
p1871
tp1872
a(S'MPI_Finalize()'
p1873
S'69'
p1874
tp1875
asS'NWChem-Json/src/tools/ga-5-4/armci/src-portals/armci.c'
p1876
(lp1877
(S'MPI_Comm_free()'
p1878
S'431'
p1879
tp1880
asS'NWChem-Json/src/tools/ga-5-4/global/testing/unit-tests/ga_copypatch.c'
p1881
(lp1882
(S'MPI_Init()'
p1883
S'26'
p1884
tp1885
a(S'MPI_Comm_rank()'
p1886
S'28'
p1887
tp1888
a(S'MPI_Comm_size()'
p1889
S'29'
p1890
tp1891
a(S'MPI_Finalize()'
p1892
S'76'
p1893
tp1894
asS'NWChem-Json/src/tools/ga-5-4/armci/src-gemini/groups.c'
p1895
(lp1896
(S'MPI_Comm_compare()'
p1897
S'87'
p1898
tp1899
a(S'MPI_Group_size()'
p1900
S'111'
p1901
tp1902
a(S'MPI_Comm_group()'
p1903
S'124'
p1904
tp1905
a(S'MPI_Group_translate_ranks()'
p1906
S'125'
p1907
tp1908
a(S'MPI_Comm_group()'
p1909
S'164'
p1910
tp1911
a(S'MPI_Group_translate_ranks()'
p1912
S'165'
p1913
tp1914
a(S'MPI_Comm_free()'
p1915
S'363'
p1916
tp1917
a(S'MPI_Group_rank()'
p1918
S'466'
p1919
tp1920
a(S'MPI_Comm_dup()'
p1921
S'472'
p1922
tp1923
a(S'MPI_Intercomm_create()'
p1924
S'481'
p1925
tp1926
a(S'MPI_Comm_free()'
p1927
S'482'
p1928
tp1929
a(S'MPI_Intercomm_merge()'
p1930
S'483'
p1931
tp1932
a(S'MPI_Comm_free()'
p1933
S'484'
p1934
tp1935
a(S'MPI_Group_free()'
p1936
S'491'
p1937
tp1938
a(S'MPI_Comm_group()'
p1939
S'492'
p1940
tp1941
a(S'MPI_Comm_group()'
p1942
S'539'
p1943
tp1944
a(S'MPI_Group_rank()'
p1945
S'542'
p1946
tp1947
asS'NWChem-Json/src/tools/ga-5-4/global/testing/unit-tests/ga_create.c'
p1948
(lp1949
(S'MPI_Init()'
p1950
S'101'
p1951
tp1952
a(S'MPI_Comm_rank()'
p1953
S'103'
p1954
tp1955
a(S'MPI_Comm_size()'
p1956
S'104'
p1957
tp1958
a(S'MPI_Finalize()'
p1959
S'124'
p1960
tp1961
asS'NWChem-Json/src/tools/ga-5-4/tascel/examples/scf/main.c'
p1962
(lp1963
(S'MPI_Wtime()'
p1964
S'21'
p1965
tp1966
a(S'MPI_Wtime()'
p1967
S'26'
p1968
tp1969
a(S'MPI_Init()'
p1970
S'47'
p1971
tp1972
a(S'MPI_Finalize()'
p1973
S'53'
p1974
tp1975
asS'NWChem-Json/src/tools/ga-5-4/global/testing/unit-tests/ga_transpose.c'
p1976
(lp1977
(S'MPI_Init()'
p1978
S'25'
p1979
tp1980
a(S'MPI_Comm_rank()'
p1981
S'27'
p1982
tp1983
a(S'MPI_Comm_size()'
p1984
S'28'
p1985
tp1986
a(S'MPI_Finalize()'
p1987
S'80'
p1988
tp1989
asS'NWChem-Json/src/tools/ga-5-4/global/testing/unit-tests/ga_set_data.c'
p1990
(lp1991
(S'MPI_Init()'
p1992
S'23'
p1993
tp1994
a(S'MPI_Comm_rank()'
p1995
S'25'
p1996
tp1997
a(S'MPI_Comm_size()'
p1998
S'26'
p1999
tp2000
a(S'MPI_Finalize()'
p2001
S'53'
p2002
tp2003
asS'NWChem-Json/src/tools/ga-5-4/global/testing/unit-tests/ga_lgop.c'
p2004
(lp2005
(S'MPI_Init()'
p2006
S'171'
p2007
tp2008
a(S'MPI_Comm_rank()'
p2009
S'175'
p2010
tp2011
a(S'MPI_Comm_size()'
p2012
S'176'
p2013
tp2014
a(S'MPI_Finalize()'
p2015
S'193'
p2016
tp2017
asS'NWChem-Json/src/tools/ga-5-4/global/testing/unit-tests/ga_ndim2.c'
p2018
(lp2019
(S'MPI_Init()'
p2020
S'34'
p2021
tp2022
a(S'MPI_Comm_rank()'
p2023
S'36'
p2024
tp2025
a(S'MPI_Comm_size()'
p2026
S'37'
p2027
tp2028
a(S'MPI_Finalize()'
p2029
S'53'
p2030
tp2031
asS'NWChem-Json/src/tools/ga-5-4/global/testing/unit-tests/ga_pgroup_create5.c'
p2032
(lp2033
(S'MPI_Init()'
p2034
S'21'
p2035
tp2036
a(S'MPI_Comm_rank()'
p2037
S'23'
p2038
tp2039
a(S'MPI_Comm_size()'
p2040
S'24'
p2041
tp2042
a(S'MPI_Finalize()'
p2043
S'79'
p2044
tp2045
asS'NWChem-Json/src/tools/ga-5-4/armci/testing/simple.c'
p2046
(lp2047
(S'MPI_Comm_rank()'
p2048
S'25'
p2049
tp2050
a(S'MPI_Comm_size()'
p2051
S'26'
p2052
tp2053
a(S'MPI_Barrier()'
p2054
S'33'
p2055
tp2056
a(S'MPI_Wtime()'
p2057
S'39'
p2058
tp2059
a(S'MPI_Wtime()'
p2060
S'43'
p2061
tp2062
a(S'MPI_Wtime()'
p2063
S'50'
p2064
tp2065
a(S'MPI_Wtime()'
p2066
S'52'
p2067
tp2068
a(S'MPI_Wtime()'
p2069
S'54'
p2070
tp2071
a(S'MPI_Barrier()'
p2072
S'60'
p2073
tp2074
a(S'MPI_Barrier()'
p2075
S'65'
p2076
tp2077
asS'NWChem-Json/src/tools/ga-5-4/armci/src/devices/mpi-mt/mpi2_client.c'
p2078
(lp2079
(S'MPI_Check()'
p2080
S'84'
p2081
tp2082
a(S'MPI_Check()'
p2083
S'142'
p2084
tp2085
a(S'MPI_Send()'
p2086
S'143'
p2087
tp2088
a(S'MPI_Check()'
p2089
S'149'
p2090
tp2091
a(S'MPI_Recv()'
p2092
S'150'
p2093
tp2094
a(S'MPI_Check()'
p2095
S'178'
p2096
tp2097
a(S'MPI_Send()'
p2098
S'179'
p2099
tp2100
a(S'MPI_Check()'
p2101
S'236'
p2102
tp2103
a(S'MPI_Recv()'
p2104
S'237'
p2105
tp2106
a(S'MPI_Get_count()'
p2107
S'247'
p2108
tp2109
a(S'MPI_Check()'
p2110
S'305'
p2111
tp2112
a(S'MPI_Check()'
p2113
S'309'
p2114
tp2115
a(S'MPI_Check()'
p2116
S'310'
p2117
tp2118
a(S'MPI_Check()'
p2119
S'315'
p2120
tp2121
asS'NWChem-Json/src/tools/ga-5-4/gfutex/test/test_gfutex.C'
p2122
(lp2123
(S'MPI_Init()'
p2124
S'52'
p2125
tp2126
a(S'MPI_Barrier()'
p2127
S'73'
p2128
tp2129
a(S'MPI_Barrier()'
p2130
S'81'
p2131
tp2132
a(S'MPI_Wtime()'
p2133
S'105'
p2134
tp2135
a(S'MPI_Wtime()'
p2136
S'109'
p2137
tp2138
a(S'MPI_Barrier()'
p2139
S'111'
p2140
tp2141
a(S'MPI_Wtime()'
p2142
S'113'
p2143
tp2144
a(S'MPI_Wtime()'
p2145
S'115'
p2146
tp2147
a(S'MPI_Barrier()'
p2148
S'142'
p2149
tp2150
a(S'MPI_Finalize()'
p2151
S'149'
p2152
tp2153
asS'NWChem-Json/src/tools/ga-5-4/gfutex/src/gfutex_instr_comm.C'
p2154
(lp2155
(S'MPI_Comm_dup()'
p2156
S'107'
p2157
tp2158
a(S'MPI_Barrier()'
p2159
S'186'
p2160
tp2161
a(S'MPI_Barrier()'
p2162
S'189'
p2163
tp2164
a(S'MPI_Barrier()'
p2165
S'239'
p2166
tp2167
a(S'MPI_Barrier()'
p2168
S'261'
p2169
tp2170
a(S'MPI_Barrier()'
p2171
S'301'
p2172
tp2173
a(S'MPI_Barrier()'
p2174
S'314'
p2175
tp2176
a(S'MPI_Comm_free()'
p2177
S'316'
p2178
tp2179
a(S'MPI_Barrier()'
p2180
S'331'
p2181
tp2182
a(S'MPI_Allreduce()'
p2183
S'585'
p2184
tp2185
a(S'MPI_Barrier()'
p2186
S'599'
p2187
tp2188
a(S'MPI_Barrier()'
p2189
S'642'
p2190
tp2191
asS'NWChem-Json/src/tools/ga-5-4/armci/testing/fork.c'
p2192
(lp2193
(S'MPI_Init()'
p2194
S'79'
p2195
tp2196
a(S'MPI_Finalize()'
p2197
S'80'
p2198
tp2199
asS'NWChem-Json/src/tools/ga-5-4/global/testing/unit-tests/ga_scatter.c'
p2200
(lp2201
(S'MPI_Init()'
p2202
S'23'
p2203
tp2204
a(S'MPI_Comm_rank()'
p2205
S'27'
p2206
tp2207
a(S'MPI_Comm_size()'
p2208
S'28'
p2209
tp2210
a(S'MPI_Finalize()'
p2211
S'77'
p2212
tp2213
asS'NWChem-Json/src/tools/ga-5-4/armci/src/devices/mpi-spawn/mpi2.h'
p2214
(lp2215
(S'X_MPI_SPAWN_DEBUG()'
p2216
S'6'
p2217
tp2218
a(S'X_MPI_SPAWN_ZEROCOPY()'
p2219
S'8'
p2220
tp2221
asS'NWChem-Json/src/tools/ga-5-4/armci/src-gemini/memory.c'
p2222
(lp2223
(S'MPI_Allreduce()'
p2224
S'696'
p2225
tp2226
a(S'MPI_Allgather()'
p2227
S'697'
p2228
tp2229
a(S'MPI_Bcast()'
p2230
S'711'
p2231
tp2232
a(S'MPI_Bcast()'
p2233
S'712'
p2234
tp2235
a(S'MPI_Allgather()'
p2236
S'725'
p2237
tp2238
asS'NWChem-Json/src/tools/ga-5-4/global/testing/unit-tests/ga_pgroup_create4.c'
p2239
(lp2240
(S'MPI_Init()'
p2241
S'21'
p2242
tp2243
a(S'MPI_Comm_rank()'
p2244
S'23'
p2245
tp2246
a(S'MPI_Comm_size()'
p2247
S'24'
p2248
tp2249
a(S'MPI_Finalize()'
p2250
S'68'
p2251
tp2252
asS'NWChem-Json/src/tools/ga-5-4/global/testing/unit-tests/ga_nodeid.c'
p2253
(lp2254
(S'MPI_Init()'
p2255
S'20'
p2256
tp2257
a(S'MPI_Comm_rank()'
p2258
S'22'
p2259
tp2260
a(S'MPI_Comm_size()'
p2261
S'23'
p2262
tp2263
a(S'MPI_Finalize()'
p2264
S'37'
p2265
tp2266
asS'NWChem-Json/src/nwpw/nwpwlib/CMatrix/CMatrix-mpi.F'
p2267
(lp2268
(S'MPI_IRECV()'
p2269
S'478'
p2270
tp2271
a(S'MPI_ISEND()'
p2272
S'493'
p2273
tp2274
a(S'MPI_IRECV()'
p2275
S'505'
p2276
tp2277
a(S'MPI_ISEND()'
p2278
S'514'
p2279
tp2280
a(S'MPI_Bcast()'
p2281
S'649'
p2282
tp2283
a(S'MPI_Bcast()'
p2284
S'655'
p2285
tp2286
a(S'MPI_Bcast()'
p2287
S'659'
p2288
tp2289
a(S'MPI_Bcast()'
p2290
S'663'
p2291
tp2292
a(S'MPI_Bcast()'
p2293
S'778'
p2294
tp2295
a(S'MPI_Bcast()'
p2296
S'782'
p2297
tp2298
a(S'MPI_Reduce()'
p2299
S'809'
p2300
tp2301
a(S'MPI_Reduce()'
p2302
S'813'
p2303
tp2304
a(S'MPI_Bcast()'
p2305
S'924'
p2306
tp2307
a(S'MPI_Bcast()'
p2308
S'927'
p2309
tp2310
a(S'MPI_Reduce()'
p2311
S'944'
p2312
tp2313
a(S'MPI_Reduce()'
p2314
S'948'
p2315
tp2316
a(S'MPI_Bcast()'
p2317
S'1098'
p2318
tp2319
a(S'MPI_Bcast()'
p2320
S'1100'
p2321
tp2322
a(S'MPI_Bcast()'
p2323
S'1103'
p2324
tp2325
a(S'MPI_Bcast()'
p2326
S'1105'
p2327
tp2328
a(S'MPI_AllReduce()'
p2329
S'1253'
p2330
tp2331
a(S'MPI_AllReduce()'
p2332
S'1257'
p2333
tp2334
a(S'MPI_Bcast()'
p2335
S'1269'
p2336
tp2337
a(S'MPI_Bcast()'
p2338
S'1272'
p2339
tp2340
a(S'MPI_AllReduce()'
p2341
S'1304'
p2342
tp2343
a(S'MPI_AllReduce()'
p2344
S'1308'
p2345
tp2346
a(S'MPI_Bcast()'
p2347
S'1316'
p2348
tp2349
a(S'MPI_Bcast()'
p2350
S'1319'
p2351
tp2352
a(S'MPI_Bcast()'
p2353
S'1420'
p2354
tp2355
a(S'MPI_Bcast()'
p2356
S'1422'
p2357
tp2358
a(S'MPI_Bcast()'
p2359
S'1425'
p2360
tp2361
a(S'MPI_Bcast()'
p2362
S'1427'
p2363
tp2364
a(S'MPI_Bcast()'
p2365
S'1507'
p2366
tp2367
a(S'MPI_Bcast()'
p2368
S'1510'
p2369
tp2370
a(S'MPI_AllReduce()'
p2371
S'1522'
p2372
tp2373
a(S'MPI_AllReduce()'
p2374
S'1526'
p2375
tp2376
a(S'MPI_Bcast()'
p2377
S'1559'
p2378
tp2379
a(S'MPI_Bcast()'
p2380
S'1562'
p2381
tp2382
a(S'MPI_AllReduce()'
p2383
S'1573'
p2384
tp2385
a(S'MPI_AllReduce()'
p2386
S'1577'
p2387
tp2388
a(S'MPI_Allreduce()'
p2389
S'1612'
p2390
tp2391
a(S'MPI_Allreduce()'
p2392
S'1615'
p2393
tp2394
a(S'MPI_Allreduce()'
p2395
S'1653'
p2396
tp2397
a(S'MPI_Allreduce()'
p2398
S'1656'
p2399
tp2400
a(S'MPI_SEND()'
p2401
S'1738'
p2402
tp2403
a(S'MPI_RECV()'
p2404
S'1749'
p2405
tp2406
a(S'MPI_Bcast()'
p2407
S'1900'
p2408
tp2409
a(S'MPI_Bcast()'
p2410
S'1904'
p2411
tp2412
a(S'MPI_Reduce()'
p2413
S'1942'
p2414
tp2415
a(S'MPI_Reduce()'
p2416
S'1946'
p2417
tp2418
asS'NWChem-Json/src/tools/ga-5-4/tascel/test/TestQueue.cc'
p2419
(lp2420
(S'MPI_Init()'
p2421
S'67'
p2422
tp2423
a(S'MPI_Comm_rank()'
p2424
S'68'
p2425
tp2426
a(S'MPI_Finalize()'
p2427
S'72'
p2428
tp2429
asS'NWChem-Json/src/util/util_getppn.c'
p2430
(lp2431
(S'MPI_Comm_split_type()'
p2432
S'46'
p2433
tp2434
a(S'MPI_Comm_size()'
p2435
S'49'
p2436
tp2437
a(S'MPI_Comm_free()'
p2438
S'52'
p2439
tp2440
asS'NWChem-Json/src/tools/ga-5-4/comex/src-template/groups.c'
p2441
(lp2442
(S'MPI_Group_rank()'
p2443
S'83'
p2444
tp2445
a(S'MPI_Group_size()'
p2446
S'97'
p2447
tp2448
a(S'MPI_Group_translate_ranks()'
p2449
S'125'
p2450
tp2451
a(S'MPI_Group_free()'
p2452
S'146'
p2453
tp2454
a(S'MPI_Comm_free()'
p2455
S'153'
p2456
tp2457
a(S'MPI_Group_incl()'
p2458
S'211'
p2459
tp2460
a(S'MPI_Group_rank()'
p2461
S'219'
p2462
tp2463
a(S'MPI_Comm_dup()'
p2464
S'226'
p2465
tp2466
a(S'MPI_Intercomm_create()'
p2467
S'235'
p2468
tp2469
a(S'MPI_Comm_free()'
p2470
S'237'
p2471
tp2472
a(S'MPI_Intercomm_merge()'
p2473
S'238'
p2474
tp2475
a(S'MPI_Comm_free()'
p2476
S'239'
p2477
tp2478
a(S'MPI_Group_free()'
p2479
S'247'
p2480
tp2481
a(S'MPI_Comm_group()'
p2482
S'249'
p2483
tp2484
a(S'MPI_Comm_group()'
p2485
S'269'
p2486
tp2487
a(S'MPI_Group_free()'
p2488
S'289'
p2489
tp2490
asS'NWChem-Json/src/tools/ga-5-4/global/testing/unit-tests/ga_put2.c'
p2491
(lp2492
(S'MPI_Init()'
p2493
S'23'
p2494
tp2495
a(S'MPI_Comm_rank()'
p2496
S'24'
p2497
tp2498
a(S'MPI_Comm_size()'
p2499
S'25'
p2500
tp2501
a(S'MPI_Finalize()'
p2502
S'65'
p2503
tp2504
asS'NWChem-Json/src/tools/ga-5-4/global/testing/unit-tests/ga_scale_patch.c'
p2505
(lp2506
(S'MPI_Init()'
p2507
S'22'
p2508
tp2509
a(S'MPI_Comm_rank()'
p2510
S'24'
p2511
tp2512
a(S'MPI_Comm_size()'
p2513
S'25'
p2514
tp2515
a(S'MPI_Finalize()'
p2516
S'59'
p2517
tp2518
asS'NWChem-Json/src/tools/ga-5-4/global/testing/unit-tests/ga_create3.c'
p2519
(lp2520
(S'MPI_Init()'
p2521
S'39'
p2522
tp2523
a(S'MPI_Comm_rank()'
p2524
S'41'
p2525
tp2526
a(S'MPI_Comm_size()'
p2527
S'42'
p2528
tp2529
a(S'MPI_Finalize()'
p2530
S'56'
p2531
tp2532
asS'NWChem-Json/src/tools/ga-5-4/armci/testing/fttest.c'
p2533
(lp2534
(S'MPI_Wtime()'
p2535
S'66'
p2536
tp2537
a(S'MPI_Wtime()'
p2538
S'89'
p2539
tp2540
asS'NWChem-Json/src/tools/ga-5-4/comex/src-mpi/comex.c'
p2541
(lp2542
(S'MPI_Test()'
p2543
S'196'
p2544
tp2545
a(S'MPI_Iprobe()'
p2546
S'319'
p2547
tp2548
a(S'MPI_Get_count()'
p2549
S'329'
p2550
tp2551
a(S'MPI_Recv()'
p2552
S'336'
p2553
tp2554
a(S'MPI_Comm_size()'
p2555
S'1137'
p2556
tp2557
a(S'MPI_Comm_rank()'
p2558
S'1139'
p2559
tp2560
a(S'MPI_Comm_group()'
p2561
S'1143'
p2562
tp2563
a(S'MPI_Group_translate_ranks()'
p2564
S'1173'
p2565
tp2566
a(S'MPI_Group_free()'
p2567
S'1201'
p2568
tp2569
a(S'MPI_Abort()'
p2570
S'1316'
p2571
tp2572
a(S'MPI_Initialized()'
p2573
S'1353'
p2574
tp2575
a(S'MPI_Comm_dup()'
p2576
S'1358'
p2577
tp2578
a(S'MPI_Comm_rank()'
p2579
S'1363'
p2580
tp2581
a(S'MPI_Comm_size()'
p2582
S'1368'
p2583
tp2584
a(S'MPI_Initialized()'
p2585
S'1406'
p2586
tp2587
a(S'MPI_Init()'
p2588
S'1409'
p2589
tp2590
a(S'MPI_Comm_free()'
p2591
S'1440'
p2592
tp2593
a(S'MPI_Comm_rank()'
p2594
S'2115'
p2595
tp2596
a(S'MPI_Allgather()'
p2597
S'2122'
p2598
tp2599
a(S'MPI_Comm_size()'
p2600
S'2128'
p2601
tp2602
asS'NWChem-Json/src/tools/ga-5-4/gparrays/testing/transpose.c'
p2603
(lp2604
(S'MPI_Init()'
p2605
S'997'
p2606
tp2607
a(S'MPI_Finalize()'
p2608
S'1723'
p2609
tp2610
asS'NWChem-Json/src/tools/ga-5-4/comex/src-dmapp/groups.c'
p2611
(lp2612
(S'MPI_Group_rank()'
p2613
S'83'
p2614
tp2615
a(S'MPI_Group_size()'
p2616
S'97'
p2617
tp2618
a(S'MPI_Group_translate_ranks()'
p2619
S'125'
p2620
tp2621
a(S'MPI_Group_free()'
p2622
S'146'
p2623
tp2624
a(S'MPI_Comm_free()'
p2625
S'153'
p2626
tp2627
a(S'MPI_Group_incl()'
p2628
S'211'
p2629
tp2630
a(S'MPI_Group_rank()'
p2631
S'219'
p2632
tp2633
a(S'MPI_Comm_dup()'
p2634
S'226'
p2635
tp2636
a(S'MPI_Intercomm_create()'
p2637
S'235'
p2638
tp2639
a(S'MPI_Comm_free()'
p2640
S'237'
p2641
tp2642
a(S'MPI_Intercomm_merge()'
p2643
S'238'
p2644
tp2645
a(S'MPI_Comm_free()'
p2646
S'239'
p2647
tp2648
a(S'MPI_Group_free()'
p2649
S'247'
p2650
tp2651
a(S'MPI_Comm_group()'
p2652
S'249'
p2653
tp2654
a(S'MPI_Comm_group()'
p2655
S'269'
p2656
tp2657
a(S'MPI_Group_free()'
p2658
S'289'
p2659
tp2660
asS'NWChem-Json/src/tools/ga-5-4/comex/testing/shift.c'
p2661
(lp2662
(S'MPI_Finalize()'
p2663
S'63'
p2664
tp2665
a(S'MPI_Allreduce()'
p2666
S'144'
p2667
tp2668
asS'NWChem-Json/src/tools/ga-5-4/global/testing/unit-tests/ga_add_diagonal.c'
p2669
(lp2670
(S'MPI_Init()'
p2671
S'25'
p2672
tp2673
a(S'MPI_Comm_rank()'
p2674
S'27'
p2675
tp2676
a(S'MPI_Comm_size()'
p2677
S'28'
p2678
tp2679
a(S'MPI_Finalize()'
p2680
S'57'
p2681
tp2682
asS'NWChem-Json/src/tools/ga-5-4/armci/src-gemini/fence.c'
p2683
(lp2684
(S'MPI_Barrier()'
p2685
S'83'
p2686
tp2687
asS'NWChem-Json/src/tools/ga-5-4/comex/src-portals4/comex.c'
p2688
(lp2689
(S'MPI_Initialized()'
p2690
S'119'
p2691
tp2692
a(S'MPI_Comm_dup()'
p2693
S'124'
p2694
tp2695
a(S'MPI_Comm_rank()'
p2696
S'129'
p2697
tp2698
a(S'MPI_Comm_size()'
p2699
S'133'
p2700
tp2701
a(S'MPI_Allgather()'
p2702
S'253'
p2703
tp2704
a(S'X_MPI_CHAR()'
p2705
S'255'
p2706
tp2707
a(S'MPI_Allgather()'
p2708
S'307'
p2709
tp2710
a(S'X_MPI_CHAR()'
p2711
S'309'
p2712
tp2713
a(S'MPI_Barrier()'
p2714
S'332'
p2715
tp2716
a(S'MPI_Initialized()'
p2717
S'342'
p2718
tp2719
a(S'MPI_Init()'
p2720
S'345'
p2721
tp2722
a(S'MPI_Abort()'
p2723
S'363'
p2724
tp2725
a(S'MPI_Barrier()'
p2726
S'579'
p2727
tp2728
a(S'MPI_Abort()'
p2729
S'594'
p2730
tp2731
a(S'MPI_Barrier()'
p2732
S'627'
p2733
tp2734
a(S'MPI_Comm_free()'
p2735
S'630'
p2736
tp2737
a(S'MPI_Allgather()'
p2738
S'1098'
p2739
tp2740
a(S'MPI_Barrier()'
p2741
S'1106'
p2742
tp2743
a(S'MPI_Barrier()'
p2744
S'1117'
p2745
tp2746
a(S'MPI_Barrier()'
p2747
S'1129'
p2748
tp2749
a(S'MPI_Barrier()'
p2750
S'1156'
p2751
tp2752
a(S'MPI_Comm_rank()'
p2753
S'1298'
p2754
tp2755
a(S'MPI_Comm_size()'
p2756
S'1300'
p2757
tp2758
a(S'MPI_Allgather()'
p2759
S'1307'
p2760
tp2761
a(S'MPI_Barrier()'
p2762
S'1311'
p2763
tp2764
a(S'MPI_Comm_rank()'
p2765
S'1333'
p2766
tp2767
a(S'MPI_Comm_size()'
p2768
S'1335'
p2769
tp2770
a(S'MPI_Allgather()'
p2771
S'1343'
p2772
tp2773
a(S'MPI_Barrier()'
p2774
S'1354'
p2775
tp2776
a(S'MPI_Abort()'
p2777
S'1379'
p2778
tp2779
a(S'MPI_Abort()'
p2780
S'1418'
p2781
tp2782
a(S'MPI_Abort()'
p2783
S'1512'
p2784
tp2785
a(S'MPI_Abort()'
p2786
S'1543'
p2787
tp2788
a(S'MPI_Abort()'
p2789
S'1593'
p2790
tp2791
asS'NWChem-Json/src/tools/ga-5-4/comex/testing/perf_contig.c'
p2792
(lp2793
(S'MPI_Finalize()'
p2794
S'70'
p2795
tp2796
asS'NWChem-Json/src/nwpw/nwpwlib/C3dB/C3dB-mpi.F'
p2797
(lp2798
(S'MPI_IRECV()'
p2799
S'118'
p2800
tp2801
a(S'MPI_IRECV()'
p2802
S'126'
p2803
tp2804
a(S'MPI_SEND()'
p2805
S'150'
p2806
tp2807
a(S'MPI_SEND()'
p2808
S'155'
p2809
tp2810
a(S'MPI_IRECV()'
p2811
S'304'
p2812
tp2813
a(S'MPI_IRECV()'
p2814
S'312'
p2815
tp2816
a(S'MPI_SEND()'
p2817
S'336'
p2818
tp2819
a(S'MPI_SEND()'
p2820
S'341'
p2821
tp2822
a(S'MPI_IRECV()'
p2823
S'494'
p2824
tp2825
a(S'MPI_IRECV()'
p2826
S'502'
p2827
tp2828
a(S'MPI_SEND()'
p2829
S'526'
p2830
tp2831
a(S'MPI_SEND()'
p2832
S'531'
p2833
tp2834
a(S'MPI_IRECV()'
p2835
S'681'
p2836
tp2837
a(S'MPI_IRECV()'
p2838
S'689'
p2839
tp2840
a(S'MPI_SEND()'
p2841
S'713'
p2842
tp2843
a(S'MPI_SEND()'
p2844
S'718'
p2845
tp2846
a(S'MPI_Allreduce()'
p2847
S'783'
p2848
tp2849
a(S'MPI_Allreduce()'
p2850
S'786'
p2851
tp2852
a(S'MPI_Allreduce()'
p2853
S'826'
p2854
tp2855
a(S'MPI_Allreduce()'
p2856
S'832'
p2857
tp2858
a(S'MPI_Allreduce()'
p2859
S'886'
p2860
tp2861
a(S'MPI_Allreduce()'
p2862
S'891'
p2863
tp2864
a(S'MPI_Allreduce()'
p2865
S'952'
p2866
tp2867
a(S'MPI_Allreduce()'
p2868
S'961'
p2869
tp2870
a(S'MPI_IRECV()'
p2871
S'1085'
p2872
tp2873
a(S'MPI_IRECV()'
p2874
S'1093'
p2875
tp2876
a(S'MPI_SEND()'
p2877
S'1117'
p2878
tp2879
a(S'MPI_SEND()'
p2880
S'1122'
p2881
tp2882
a(S'MPI_IRECV()'
p2883
S'1251'
p2884
tp2885
a(S'MPI_IRECV()'
p2886
S'1259'
p2887
tp2888
a(S'MPI_SEND()'
p2889
S'1283'
p2890
tp2891
a(S'MPI_SEND()'
p2892
S'1288'
p2893
tp2894
a(S'MPI_IRECV()'
p2895
S'1431'
p2896
tp2897
a(S'MPI_IRECV()'
p2898
S'1439'
p2899
tp2900
a(S'MPI_SEND()'
p2901
S'1463'
p2902
tp2903
a(S'MPI_SEND()'
p2904
S'1468'
p2905
tp2906
a(S'MPI_ISEND()'
p2907
S'1545'
p2908
tp2909
a(S'MPI_ISEND()'
p2910
S'1553'
p2911
tp2912
a(S'MPI_IRECV()'
p2913
S'1578'
p2914
tp2915
a(S'MPI_IRECV()'
p2916
S'1586'
p2917
tp2918
a(S'MPI_IRECV()'
p2919
S'1672'
p2920
tp2921
a(S'MPI_IRECV()'
p2922
S'1680'
p2923
tp2924
a(S'MPI_ISEND()'
p2925
S'1704'
p2926
tp2927
a(S'MPI_ISEND()'
p2928
S'1712'
p2929
tp2930
a(S'MPI_IRECV()'
p2931
S'1847'
p2932
tp2933
a(S'MPI_IRECV()'
p2934
S'1855'
p2935
tp2936
a(S'MPI_ISEND()'
p2937
S'1880'
p2938
tp2939
a(S'MPI_ISEND()'
p2940
S'1888'
p2941
tp2942
a(S'MPI_IRECV()'
p2943
S'2055'
p2944
tp2945
a(S'MPI_IRECV()'
p2946
S'2063'
p2947
tp2948
a(S'MPI_ISEND()'
p2949
S'2088'
p2950
tp2951
a(S'MPI_ISEND()'
p2952
S'2096'
p2953
tp2954
a(S'MPI_IRECV()'
p2955
S'2267'
p2956
tp2957
a(S'MPI_IRECV()'
p2958
S'2275'
p2959
tp2960
a(S'MPI_ISEND()'
p2961
S'2300'
p2962
tp2963
a(S'MPI_ISEND()'
p2964
S'2308'
p2965
tp2966
a(S'MPI_SEND()'
p2967
S'2488'
p2968
tp2969
a(S'MPI_SEND()'
p2970
S'2493'
p2971
tp2972
a(S'MPI_RECV()'
p2973
S'2519'
p2974
tp2975
a(S'MPI_RECV()'
p2976
S'2525'
p2977
tp2978
a(S'MPI_SEND()'
p2979
S'2568'
p2980
tp2981
a(S'MPI_SEND()'
p2982
S'2573'
p2983
tp2984
a(S'MPI_RECV()'
p2985
S'2603'
p2986
tp2987
a(S'MPI_RECV()'
p2988
S'2609'
p2989
tp2990
a(S'MPI_SEND()'
p2991
S'2753'
p2992
tp2993
a(S'MPI_SEND()'
p2994
S'2758'
p2995
tp2996
a(S'MPI_RECV()'
p2997
S'2784'
p2998
tp2999
a(S'MPI_RECV()'
p3000
S'2790'
p3001
tp3002
a(S'MPI_SEND()'
p3003
S'2830'
p3004
tp3005
a(S'MPI_SEND()'
p3006
S'2835'
p3007
tp3008
a(S'MPI_RECV()'
p3009
S'2864'
p3010
tp3011
a(S'MPI_RECV()'
p3012
S'2870'
p3013
tp3014
a(S'MPI_SEND()'
p3015
S'2996'
p3016
tp3017
a(S'MPI_RECV()'
p3018
S'3002'
p3019
tp3020
a(S'MPI_SEND()'
p3021
S'3008'
p3022
tp3023
a(S'MPI_RECV()'
p3024
S'3012'
p3025
tp3026
a(S'MPI_RECV()'
p3027
S'3046'
p3028
tp3029
a(S'MPI_SEND()'
p3030
S'3053'
p3031
tp3032
a(S'MPI_RECV()'
p3033
S'3058'
p3034
tp3035
a(S'MPI_SEND()'
p3036
S'3063'
p3037
tp3038
a(S'MPI_SEND()'
p3039
S'3126'
p3040
tp3041
a(S'MPI_RECV()'
p3042
S'3132'
p3043
tp3044
a(S'MPI_SEND()'
p3045
S'3138'
p3046
tp3047
a(S'MPI_RECV()'
p3048
S'3142'
p3049
tp3050
a(S'MPI_RECV()'
p3051
S'3179'
p3052
tp3053
a(S'MPI_SEND()'
p3054
S'3186'
p3055
tp3056
a(S'MPI_RECV()'
p3057
S'3191'
p3058
tp3059
a(S'MPI_SEND()'
p3060
S'3196'
p3061
tp3062
a(S'MPI_RECV()'
p3063
S'3287'
p3064
tp3065
a(S'MPI_RECV()'
p3066
S'3293'
p3067
tp3068
a(S'MPI_SEND()'
p3069
S'3323'
p3070
tp3071
a(S'MPI_SEND()'
p3072
S'3328'
p3073
tp3074
a(S'MPI_RECV()'
p3075
S'3365'
p3076
tp3077
a(S'MPI_RECV()'
p3078
S'3371'
p3079
tp3080
a(S'MPI_SEND()'
p3081
S'3405'
p3082
tp3083
a(S'MPI_SEND()'
p3084
S'3410'
p3085
tp3086
asS'NWChem-Json/src/tools/ga-5-4/armci/tools/armci_trace.c'
p3087
(lp3088
(S'MPI_Comm_rank()'
p3089
S'111'
p3090
tp3091
a(S'MPI_Reduce()'
p3092
S'113'
p3093
tp3094
a(S'MPI_Reduce()'
p3095
S'114'
p3096
tp3097
a(S'MPI_Reduce()'
p3098
S'119'
p3099
tp3100
a(S'MPI_Reduce()'
p3101
S'121'
p3102
tp3103
a(S'MPI_Reduce()'
p3104
S'127'
p3105
tp3106
a(S'MPI_Reduce()'
p3107
S'128'
p3108
tp3109
a(S'MPI_Reduce()'
p3110
S'133'
p3111
tp3112
a(S'MPI_Reduce()'
p3113
S'134'
p3114
tp3115
a(S'MPI_Reduce()'
p3116
S'139'
p3117
tp3118
a(S'MPI_Reduce()'
p3119
S'141'
p3120
tp3121
a(S'MPI_Reduce()'
p3122
S'148'
p3123
tp3124
a(S'MPI_Reduce()'
p3125
S'150'
p3126
tp3127
a(S'MPI_Reduce()'
p3128
S'157'
p3129
tp3130
a(S'MPI_Reduce()'
p3131
S'159'
p3132
tp3133
a(S'MPI_Reduce()'
p3134
S'165'
p3135
tp3136
a(S'MPI_Reduce()'
p3137
S'167'
p3138
tp3139
a(S'MPI_Reduce()'
p3140
S'174'
p3141
tp3142
a(S'MPI_Reduce()'
p3143
S'176'
p3144
tp3145
a(S'MPI_Reduce()'
p3146
S'183'
p3147
tp3148
a(S'MPI_Reduce()'
p3149
S'184'
p3150
tp3151
a(S'MPI_Reduce()'
p3152
S'189'
p3153
tp3154
a(S'MPI_Reduce()'
p3155
S'190'
p3156
tp3157
a(S'MPI_Reduce()'
p3158
S'195'
p3159
tp3160
a(S'MPI_Reduce()'
p3161
S'197'
p3162
tp3163
a(S'MPI_Reduce()'
p3164
S'204'
p3165
tp3166
a(S'MPI_Reduce()'
p3167
S'205'
p3168
tp3169
a(S'MPI_Reduce()'
p3170
S'210'
p3171
tp3172
a(S'MPI_Reduce()'
p3173
S'212'
p3174
tp3175
a(S'MPI_Reduce()'
p3176
S'218'
p3177
tp3178
a(S'MPI_Reduce()'
p3179
S'220'
p3180
tp3181
a(S'MPI_Reduce()'
p3182
S'227'
p3183
tp3184
a(S'MPI_Reduce()'
p3185
S'229'
p3186
tp3187
a(S'MPI_Reduce()'
p3188
S'235'
p3189
tp3190
a(S'MPI_Reduce()'
p3191
S'237'
p3192
tp3193
a(S'MPI_Reduce()'
p3194
S'243'
p3195
tp3196
a(S'MPI_Reduce()'
p3197
S'244'
p3198
tp3199
a(S'MPI_Reduce()'
p3200
S'249'
p3201
tp3202
a(S'MPI_Reduce()'
p3203
S'250'
p3204
tp3205
a(S'MPI_Reduce()'
p3206
S'255'
p3207
tp3208
a(S'MPI_Reduce()'
p3209
S'256'
p3210
tp3211
a(S'MPI_Reduce()'
p3212
S'261'
p3213
tp3214
a(S'MPI_Reduce()'
p3215
S'263'
p3216
tp3217
a(S'MPI_Reduce()'
p3218
S'270'
p3219
tp3220
a(S'MPI_Reduce()'
p3221
S'272'
p3222
tp3223
a(S'MPI_Reduce()'
p3224
S'279'
p3225
tp3226
a(S'MPI_Reduce()'
p3227
S'281'
p3228
tp3229
a(S'MPI_Reduce()'
p3230
S'287'
p3231
tp3232
a(S'MPI_Reduce()'
p3233
S'289'
p3234
tp3235
a(S'MPI_Reduce()'
p3236
S'296'
p3237
tp3238
a(S'MPI_Reduce()'
p3239
S'298'
p3240
tp3241
a(S'MPI_Reduce()'
p3242
S'304'
p3243
tp3244
a(S'MPI_Reduce()'
p3245
S'306'
p3246
tp3247
a(S'MPI_Reduce()'
p3248
S'313'
p3249
tp3250
a(S'MPI_Reduce()'
p3251
S'314'
p3252
tp3253
a(S'MPI_Reduce()'
p3254
S'319'
p3255
tp3256
a(S'MPI_Reduce()'
p3257
S'320'
p3258
tp3259
a(S'MPI_Reduce()'
p3260
S'325'
p3261
tp3262
a(S'MPI_Reduce()'
p3263
S'327'
p3264
tp3265
a(S'MPI_Reduce()'
p3266
S'333'
p3267
tp3268
a(S'MPI_Reduce()'
p3269
S'334'
p3270
tp3271
a(S'MPI_Reduce()'
p3272
S'339'
p3273
tp3274
a(S'MPI_Reduce()'
p3275
S'341'
p3276
tp3277
a(S'MPI_Reduce()'
p3278
S'348'
p3279
tp3280
a(S'MPI_Reduce()'
p3281
S'350'
p3282
tp3283
a(S'MPI_Reduce()'
p3284
S'357'
p3285
tp3286
a(S'MPI_Reduce()'
p3287
S'359'
p3288
tp3289
a(S'MPI_Reduce()'
p3290
S'366'
p3291
tp3292
a(S'MPI_Reduce()'
p3293
S'367'
p3294
tp3295
a(S'MPI_Reduce()'
p3296
S'372'
p3297
tp3298
a(S'MPI_Reduce()'
p3299
S'374'
p3300
tp3301
a(S'MPI_Reduce()'
p3302
S'381'
p3303
tp3304
a(S'MPI_Reduce()'
p3305
S'383'
p3306
tp3307
a(S'MPI_Reduce()'
p3308
S'389'
p3309
tp3310
a(S'MPI_Reduce()'
p3311
S'390'
p3312
tp3313
a(S'MPI_Reduce()'
p3314
S'395'
p3315
tp3316
a(S'MPI_Reduce()'
p3317
S'396'
p3318
tp3319
a(S'MPI_Reduce()'
p3320
S'401'
p3321
tp3322
a(S'MPI_Reduce()'
p3323
S'403'
p3324
tp3325
a(S'MPI_Reduce()'
p3326
S'409'
p3327
tp3328
a(S'MPI_Reduce()'
p3329
S'410'
p3330
tp3331
a(S'MPI_Reduce()'
p3332
S'415'
p3333
tp3334
a(S'MPI_Reduce()'
p3335
S'417'
p3336
tp3337
a(S'MPI_Reduce()'
p3338
S'424'
p3339
tp3340
a(S'MPI_Reduce()'
p3341
S'426'
p3342
tp3343
a(S'MPI_Reduce()'
p3344
S'432'
p3345
tp3346
a(S'MPI_Reduce()'
p3347
S'434'
p3348
tp3349
a(S'MPI_Reduce()'
p3350
S'441'
p3351
tp3352
a(S'MPI_Reduce()'
p3353
S'443'
p3354
tp3355
a(S'MPI_Reduce()'
p3356
S'450'
p3357
tp3358
a(S'MPI_Reduce()'
p3359
S'451'
p3360
tp3361
a(S'MPI_Reduce()'
p3362
S'456'
p3363
tp3364
a(S'MPI_Reduce()'
p3365
S'458'
p3366
tp3367
asS'NWChem-Json/src/tools/ga-5-4/armci/examples/benchmarks/lu/armci_blocking/lu.c'
p3368
(lp3369
(S'MPI_Alloc_mem()'
p3370
S'156'
p3371
tp3372
a(S'MPI_Win_create()'
p3373
S'157'
p3374
tp3375
a(S'X_MPI_COMM_WORLD()'
p3376
S'158'
p3377
tp3378
a(S'MPI_Barrier()'
p3379
S'160'
p3380
tp3381
a(S'MPI_Win_free()'
p3382
S'231'
p3383
tp3384
a(S'MPI_Free_mem()'
p3385
S'232'
p3386
tp3387
a(S'MPI_Abort()'
p3388
S'383'
p3389
tp3390
a(S'MPI_Win_lock()'
p3391
S'385'
p3392
tp3393
a(S'MPI_Get()'
p3394
S'386'
p3395
tp3396
a(S'X_MPI_CHAR()'
p3397
S'387'
p3398
tp3399
a(S'MPI_Win_unlock()'
p3400
S'388'
p3401
tp3402
asS'NWChem-Json/src/tools/ga-5-4/comex/src-mpi-pt/hello.c'
p3403
(lp3404
(S'MPI_Init()'
p3405
S'14'
p3406
tp3407
a(S'MPI_Finalize()'
p3408
S'27'
p3409
tp3410
asS'NWChem-Json/src/tools/ga-5-4/global/testing/unit-tests/ga_scale_rows.c'
p3411
(lp3412
(S'MPI_Init()'
p3413
S'25'
p3414
tp3415
a(S'MPI_Comm_rank()'
p3416
S'27'
p3417
tp3418
a(S'MPI_Comm_size()'
p3419
S'28'
p3420
tp3421
a(S'MPI_Finalize()'
p3422
S'59'
p3423
tp3424
asS'NWChem-Json/src/tools/ga-5-4/global/testing/unit-tests/ga_transpose2.c'
p3425
(lp3426
(S'MPI_Init()'
p3427
S'54'
p3428
tp3429
a(S'MPI_Comm_rank()'
p3430
S'56'
p3431
tp3432
a(S'MPI_Comm_size()'
p3433
S'57'
p3434
tp3435
a(S'MPI_Finalize()'
p3436
S'86'
p3437
tp3438
asS'NWChem-Json/src/tools/ga-5-4/armci/src-portals/message.c'
p3439
(lp3440
(S'MPI_Barrier()'
p3441
S'431'
p3442
tp3443
a(S'MPI_Initialized()'
p3444
S'462'
p3445
tp3446
a(S'MPI_Init_thread()'
p3447
S'466'
p3448
tp3449
a(S'MPI_Init()'
p3450
S'468'
p3451
tp3452
a(S'MPI_Comm_dup()'
p3453
S'472'
p3454
tp3455
a(S'MPI_Comm_rank()'
p3456
S'488'
p3457
tp3458
a(S'MPI_Comm_size()'
p3459
S'512'
p3460
tp3461
a(S'MPI_Abort()'
p3462
S'553'
p3463
tp3464
a(S'MPI_Finalize()'
p3465
S'572'
p3466
tp3467
a(S'MPI_Bcast()'
p3468
S'820'
p3469
tp3470
a(S'MPI_Send()'
p3471
S'835'
p3472
tp3473
a(S'MPI_Recv()'
p3474
S'859'
p3475
tp3476
a(S'MPI_Recv()'
p3477
S'882'
p3478
tp3479
a(S'MPI_Barrier()'
p3480
S'1915'
p3481
tp3482
a(S'MPI_Comm_group()'
p3483
S'1947'
p3484
tp3485
a(S'MPI_Group_incl()'
p3486
S'1948'
p3487
tp3488
a(S'MPI_Comm_create()'
p3489
S'1950'
p3490
tp3491
a(S'MPI_Comm_free()'
p3492
S'1957'
p3493
tp3494
a(S'MPI_Group_free()'
p3495
S'1958'
p3496
tp3497
asS'NWChem-Json/src/tools/ga-5-4/comex/src-mpi-pr/hello.c'
p3498
(lp3499
(S'MPI_Init()'
p3500
S'14'
p3501
tp3502
a(S'MPI_Finalize()'
p3503
S'27'
p3504
tp3505
asS'NWChem-Json/src/tools/ga-5-4/global/testing/simple_groups_comm.F'
p3506
(lp3507
(S'mpi_allreduce()'
p3508
S'55'
p3509
tp3510
asS'NWChem-Json/src/tools/ga-5-4/global/testing/unit-tests/ga_set_diagonal.c'
p3511
(lp3512
(S'MPI_Init()'
p3513
S'26'
p3514
tp3515
a(S'MPI_Comm_rank()'
p3516
S'28'
p3517
tp3518
a(S'MPI_Comm_size()'
p3519
S'29'
p3520
tp3521
a(S'MPI_Finalize()'
p3522
S'55'
p3523
tp3524
asS'NWChem-Json/src/tools/ga-5-4/global/testing/unit-tests/ga_pgroup_create3.c'
p3525
(lp3526
(S'MPI_Init()'
p3527
S'21'
p3528
tp3529
a(S'MPI_Comm_rank()'
p3530
S'23'
p3531
tp3532
a(S'MPI_Comm_size()'
p3533
S'24'
p3534
tp3535
a(S'MPI_Finalize()'
p3536
S'71'
p3537
tp3538
asS'NWChem-Json/src/tools/ga-5-4/armci/testing/clone.c'
p3539
(lp3540
(S'MPI_Init()'
p3541
S'85'
p3542
tp3543
a(S'MPI_Barrier()'
p3544
S'86'
p3545
tp3546
a(S'MPI_Finalize()'
p3547
S'87'
p3548
tp3549
asS'NWChem-Json/src/tools/ga-5-4/global/examples/scf/ft-scf.F'
p3550
(lp3551
(S'mpi_init()'
p3552
S'21'
p3553
tp3554
asS'NWChem-Json/src/tools/ga-5-4/global/testing/unit-tests/ga_copy3.c'
p3555
(lp3556
(S'MPI_Init()'
p3557
S'27'
p3558
tp3559
a(S'MPI_Comm_rank()'
p3560
S'29'
p3561
tp3562
a(S'MPI_Comm_size()'
p3563
S'30'
p3564
tp3565
a(S'MPI_Finalize()'
p3566
S'85'
p3567
tp3568
asS'NWChem-Json/src/tools/ga-5-4/global/testing/ga-mpi.c'
p3569
(lp3570
(S'MPI_Barrier()'
p3571
S'109'
p3572
tp3573
a(S'MPI_Comm_split()'
p3574
S'111'
p3575
tp3576
a(S'MPI_Comm_split()'
p3577
S'113'
p3578
tp3579
a(S'MPI_Comm_rank()'
p3580
S'117'
p3581
tp3582
a(S'MPI_Reduce()'
p3583
S'129'
p3584
tp3585
a(S'MPI_Finalize()'
p3586
S'185'
p3587
tp3588
asS'NWChem-Json/src/tools/ga-5-4/armci/src-gemini/message.c'
p3589
(lp3590
(S'MPI_Barrier()'
p3591
S'431'
p3592
tp3593
a(S'MPI_Initialized()'
p3594
S'462'
p3595
tp3596
a(S'MPI_Init_thread()'
p3597
S'466'
p3598
tp3599
a(S'MPI_Init()'
p3600
S'468'
p3601
tp3602
a(S'MPI_Comm_dup()'
p3603
S'472'
p3604
tp3605
a(S'MPI_Comm_rank()'
p3606
S'488'
p3607
tp3608
a(S'MPI_Comm_size()'
p3609
S'512'
p3610
tp3611
a(S'MPI_Abort()'
p3612
S'553'
p3613
tp3614
a(S'MPI_Finalize()'
p3615
S'572'
p3616
tp3617
a(S'MPI_Bcast()'
p3618
S'820'
p3619
tp3620
a(S'MPI_Send()'
p3621
S'835'
p3622
tp3623
a(S'MPI_Recv()'
p3624
S'859'
p3625
tp3626
a(S'MPI_Recv()'
p3627
S'882'
p3628
tp3629
a(S'MPI_Barrier()'
p3630
S'1915'
p3631
tp3632
a(S'MPI_Comm_group()'
p3633
S'1947'
p3634
tp3635
a(S'MPI_Group_incl()'
p3636
S'1948'
p3637
tp3638
a(S'MPI_Comm_create()'
p3639
S'1950'
p3640
tp3641
a(S'MPI_Comm_free()'
p3642
S'1957'
p3643
tp3644
a(S'MPI_Group_free()'
p3645
S'1958'
p3646
tp3647
asS'NWChem-Json/src/tools/ga-5-4/tcgmsg/tests/test_asyn.c'
p3648
(lp3649
(S'MPI_Init()'
p3650
S'20'
p3651
tp3652
a(S'MPI_Comm_size()'
p3653
S'22'
p3654
tp3655
a(S'MPI_Comm_rank()'
p3656
S'23'
p3657
tp3658
a(S'MPI_Irecv()'
p3659
S'28'
p3660
tp3661
a(S'MPI_Send()'
p3662
S'30'
p3663
tp3664
a(S'MPI_Wait()'
p3665
S'32'
p3666
tp3667
a(S'MPI_Recv()'
p3668
S'38'
p3669
tp3670
a(S'MPI_Send()'
p3671
S'40'
p3672
tp3673
a(S'MPI_Finalize()'
p3674
S'43'
p3675
tp3676
asS'NWChem-Json/src/tools/ga-5-4/global/testing/unit-tests/ga_elem_maximumpatch.c'
p3677
(lp3678
(S'MPI_Init()'
p3679
S'24'
p3680
tp3681
a(S'MPI_Comm_rank()'
p3682
S'26'
p3683
tp3684
a(S'MPI_Comm_size()'
p3685
S'27'
p3686
tp3687
a(S'MPI_Finalize()'
p3688
S'70'
p3689
tp3690
asS'NWChem-Json/src/tools/ga-5-4/global/testing/simple_groups_commc.c'
p3691
(lp3692
(S'MPI_Allreduce()'
p3693
S'63'
p3694
tp3695
asS'NWChem-Json/src/tools/ga-5-4/gfutex/examples/scf/scf.c'
p3696
(lp3697
(S'MPI_Init()'
p3698
S'108'
p3699
tp3700
a(S'MPI_Finalize()'
p3701
S'351'
p3702
tp3703
asS'NWChem-Json/src/tools/ga-5-4/tascel/examples/scf/scf.F'
p3704
(lp3705
(S'mpi_init()'
p3706
S'41'
p3707
tp3708
asS'NWChem-Json/src/tools/ga-5-4/global/examples/petsc.F'
p3709
(lp3710
(S'mpi_finalize()'
p3711
S'33'
p3712
tp3713
asS'NWChem-Json/src/tools/ga-5-4/global/testing/unit-tests/ga_transpose3.c'
p3714
(lp3715
(S'MPI_Init()'
p3716
S'61'
p3717
tp3718
a(S'MPI_Comm_rank()'
p3719
S'63'
p3720
tp3721
a(S'MPI_Comm_size()'
p3722
S'64'
p3723
tp3724
a(S'MPI_Finalize()'
p3725
S'85'
p3726
tp3727
asS'NWChem-Json/src/tools/ga-5-4/armci/src/progress/fence.c'
p3728
(lp3729
(S'MPI_Barrier()'
p3730
S'112'
p3731
tp3732
asS'NWChem-Json/src/tools/ga-5-4/global/testing/unit-tests/ga_zeropatch2.c'
p3733
(lp3734
(S'MPI_Init()'
p3735
S'26'
p3736
tp3737
a(S'MPI_Comm_rank()'
p3738
S'28'
p3739
tp3740
a(S'MPI_Comm_size()'
p3741
S'29'
p3742
tp3743
a(S'MPI_Finalize()'
p3744
S'83'
p3745
tp3746
asS'NWChem-Json/src/tools/ga-5-4/global/testing/unit-tests/ga_set_restricted.c'
p3747
(lp3748
(S'MPI_Init()'
p3749
S'74'
p3750
tp3751
a(S'MPI_Comm_rank()'
p3752
S'76'
p3753
tp3754
a(S'MPI_Comm_size()'
p3755
S'77'
p3756
tp3757
a(S'MPI_Finalize()'
p3758
S'148'
p3759
tp3760
asS'NWChem-Json/src/tools/ga-5-4/global/testing/unit-tests/ga_scale_cols.c'
p3761
(lp3762
(S'MPI_Init()'
p3763
S'26'
p3764
tp3765
a(S'MPI_Comm_rank()'
p3766
S'28'
p3767
tp3768
a(S'MPI_Comm_size()'
p3769
S'29'
p3770
tp3771
a(S'MPI_Finalize()'
p3772
S'78'
p3773
tp3774
asS'NWChem-Json/src/tools/ga-5-4/comex/testing/perf_amo.c'
p3775
(lp3776
(S'MPI_Finalize()'
p3777
S'88'
p3778
tp3779
asS'NWChem-Json/src/tools/ga-5-4/comex/src-ofa/openib.c'
p3780
(lp3781
(S'MPI_Alltoall()'
p3782
S'201'
p3783
tp3784
a(S'MPI_Alltoall()'
p3785
S'205'
p3786
tp3787
a(S'MPI_Barrier()'
p3788
S'690'
p3789
tp3790
a(S'MPI_Barrier()'
p3791
S'784'
p3792
tp3793
asS'NWChem-Json/src/tools/ga-5-4/armci/src-gemini/armci-onesided.c'
p3794
(lp3795
(S'MPI_Allreduce()'
p3796
S'596'
p3797
tp3798
asS'NWChem-Json/src/tools/ga-5-4/global/testing/unit-tests/ga_zeropatch.c'
p3799
(lp3800
(S'MPI_Init()'
p3801
S'26'
p3802
tp3803
a(S'MPI_Comm_rank()'
p3804
S'28'
p3805
tp3806
a(S'MPI_Comm_size()'
p3807
S'29'
p3808
tp3809
a(S'MPI_Finalize()'
p3810
S'83'
p3811
tp3812
asS'NWChem-Json/src/tools/ga-5-4/armci/src-portals/portals_cp.c'
p3813
(lp3814
(S'MPI_Comm_rank()'
p3815
S'69'
p3816
tp3817
a(S'MPI_Comm_split()'
p3818
S'70'
p3819
tp3820
a(S'MPI_Comm_size()'
p3821
S'82'
p3822
tp3823
a(S'MPI_Comm_rank()'
p3824
S'83'
p3825
tp3826
a(S'MPI_Bcast()'
p3827
S'110'
p3828
tp3829
a(S'MPI_Barrier()'
p3830
S'157'
p3831
tp3832
a(S'MPI_Finalize()'
p3833
S'158'
p3834
tp3835
a(S'MPI_Comm_size()'
p3836
S'880'
p3837
tp3838
a(S'MPI_Comm_rank()'
p3839
S'881'
p3840
tp3841
a(S'MPI_Bcast()'
p3842
S'902'
p3843
tp3844
a(S'MPI_Bcast()'
p3845
S'903'
p3846
tp3847
a(S'MPI_Barrier()'
p3848
S'910'
p3849
tp3850
asS'NWChem-Json/src/tools/ga-5-4/comex/src-template/comex.c'
p3851
(lp3852
(S'MPI_Initialized()'
p3853
S'61'
p3854
tp3855
a(S'MPI_Comm_dup()'
p3856
S'66'
p3857
tp3858
a(S'MPI_Comm_rank()'
p3859
S'71'
p3860
tp3861
a(S'MPI_Comm_size()'
p3862
S'75'
p3863
tp3864
a(S'MPI_Barrier()'
p3865
S'82'
p3866
tp3867
a(S'MPI_Initialized()'
p3868
S'92'
p3869
tp3870
a(S'MPI_Init()'
p3871
S'95'
p3872
tp3873
a(S'MPI_Abort()'
p3874
S'113'
p3875
tp3876
a(S'MPI_Barrier()'
p3877
S'452'
p3878
tp3879
a(S'MPI_Barrier()'
p3880
S'489'
p3881
tp3882
a(S'MPI_Comm_free()'
p3883
S'492'
p3884
tp3885
a(S'MPI_Comm_rank()'
p3886
S'722'
p3887
tp3888
a(S'MPI_Comm_size()'
p3889
S'723'
p3890
tp3891
a(S'MPI_Allgather()'
p3892
S'731'
p3893
tp3894
a(S'MPI_Barrier()'
p3895
S'734'
p3896
tp3897
a(S'MPI_Comm_rank()'
p3898
S'754'
p3899
tp3900
a(S'MPI_Comm_size()'
p3901
S'755'
p3902
tp3903
a(S'MPI_Allgather()'
p3904
S'762'
p3905
tp3906
a(S'MPI_Barrier()'
p3907
S'772'
p3908
tp3909
asS'NWChem-Json/src/tools/ga-5-4/global/testing/unit-tests/ga_elem_multiplypatch.c'
p3910
(lp3911
(S'MPI_Init()'
p3912
S'25'
p3913
tp3914
a(S'MPI_Comm_rank()'
p3915
S'27'
p3916
tp3917
a(S'MPI_Comm_size()'
p3918
S'28'
p3919
tp3920
a(S'MPI_Finalize()'
p3921
S'69'
p3922
tp3923
asS'NWChem-Json/contrib/openmp_tests/dgemm/xerbla.F'
p3924
(lp3925
(S'MPI_Abort()'
p3926
S'45'
p3927
tp3928
asS'NWChem-Json/src/tools/ga-5-4/tcgmsg/tcgmsg-mpi/p2p.c'
p3929
(lp3930
(S'MPI_Send()'
p3931
S'36'
p3932
tp3933
a(S'MPI_Isend()'
p3934
S'43'
p3935
tp3936
a(S'MPI_Irecv()'
p3937
S'79'
p3938
tp3939
a(S'MPI_Recv()'
p3940
S'92'
p3941
tp3942
a(S'MPI_Get_count()'
p3943
S'95'
p3944
tp3945
a(S'MPI_Wait()'
p3946
S'114'
p3947
tp3948
a(S'MPI_Iprobe()'
p3949
S'127'
p3950
tp3951
asS'NWChem-Json/src/tools/ga-5-4/comex/src-ofa/fence.c'
p3952
(lp3953
(S'MPI_Barrier()'
p3954
S'35'
p3955
tp3956
asS'NWChem-Json/src/tools/ga-5-4/global/testing/unit-tests/ga_fillpatch.c'
p3957
(lp3958
(S'MPI_Init()'
p3959
S'69'
p3960
tp3961
a(S'MPI_Comm_rank()'
p3962
S'71'
p3963
tp3964
a(S'MPI_Comm_size()'
p3965
S'72'
p3966
tp3967
a(S'MPI_Finalize()'
p3968
S'85'
p3969
tp3970
asS'NWChem-Json/src/tools/ga-5-4/global/testing/unit-tests/ga_add.c'
p3971
(lp3972
(S'MPI_Init()'
p3973
S'26'
p3974
tp3975
a(S'MPI_Comm_rank()'
p3976
S'28'
p3977
tp3978
a(S'MPI_Comm_size()'
p3979
S'29'
p3980
tp3981
a(S'MPI_Finalize()'
p3982
S'113'
p3983
tp3984
asS'NWChem-Json/src/smd/graveyard/smd-subgroups/sched_groups.c'
p3985
(lp3986
(S'MPI_Comm_rank()'
p3987
S'490'
p3988
tp3989
a(S'MPI_Comm_rank()'
p3990
S'518'
p3991
tp3992
a(S'MPI_Send()'
p3993
S'525'
p3994
tp3995
a(S'MPI_Send()'
p3996
S'527'
p3997
tp3998
a(S'MPI_Recv()'
p3999
S'581'
p4000
tp4001
a(S'MPI_Get_elements()'
p4002
S'586'
p4003
tp4004
a(S'MPI_Wtime()'
p4005
S'620'
p4006
tp4007
a(S'MPI_Wtime()'
p4008
S'626'
p4009
tp4010
a(S'MPI_Send()'
p4011
S'638'
p4012
tp4013
a(S'MPI_Send()'
p4014
S'695'
p4015
tp4016
a(S'MPI_Send()'
p4017
S'733'
p4018
tp4019
a(S'MPI_Send()'
p4020
S'736'
p4021
tp4022
a(S'MPI_Irecv()'
p4023
S'742'
p4024
tp4025
a(S'MPI_Test()'
p4026
S'755'
p4027
tp4028
a(S'MPI_Get_elements()'
p4029
S'759'
p4030
tp4031
a(S'MPI_Waitany()'
p4032
S'778'
p4033
tp4034
a(S'MPI_Get_elements()'
p4035
S'781'
p4036
tp4037
asS'NWChem-Json/src/tools/ga-5-4/gfutex/src/gfutex.C'
p4038
(lp4039
(S'MPI_Comm_dup()'
p4040
S'97'
p4041
tp4042
a(S'MPI_Barrier()'
p4043
S'176'
p4044
tp4045
a(S'MPI_Barrier()'
p4046
S'179'
p4047
tp4048
a(S'MPI_Barrier()'
p4049
S'229'
p4050
tp4051
a(S'MPI_Barrier()'
p4052
S'238'
p4053
tp4054
a(S'MPI_Barrier()'
p4055
S'278'
p4056
tp4057
a(S'MPI_Barrier()'
p4058
S'291'
p4059
tp4060
a(S'MPI_Comm_free()'
p4061
S'293'
p4062
tp4063
a(S'MPI_Barrier()'
p4064
S'308'
p4065
tp4066
a(S'MPI_Allreduce()'
p4067
S'562'
p4068
tp4069
a(S'MPI_Barrier()'
p4070
S'576'
p4071
tp4072
a(S'MPI_Barrier()'
p4073
S'619'
p4074
tp4075
asS'NWChem-Json/src/tools/ga-5-4/global/examples/lennard-jones/lennard.c'
p4076
(lp4077
(S'MPI_Finalize()'
p4078
S'766'
p4079
tp4080
asS'NWChem-Json/src/tools/ga-5-4/armci/examples/features/proc_affinity/computation_impact/computation_impact.c'
p4081
(lp4082
(S'MPI_Init()'
p4083
S'182'
p4084
tp4085
a(S'MPI_Comm_rank()'
p4086
S'183'
p4087
tp4088
a(S'MPI_Comm_size()'
p4089
S'184'
p4090
tp4091
a(S'MPI_Finalize()'
p4092
S'187'
p4093
tp4094
a(S'MPI_Barrier()'
p4095
S'201'
p4096
tp4097
a(S'MPI_Barrier()'
p4098
S'207'
p4099
tp4100
a(S'MPI_Barrier()'
p4101
S'208'
p4102
tp4103
a(S'MPI_Barrier()'
p4104
S'246'
p4105
tp4106
a(S'MPI_Barrier()'
p4107
S'247'
p4108
tp4109
a(S'MPI_Barrier()'
p4110
S'283'
p4111
tp4112
a(S'MPI_Barrier()'
p4113
S'284'
p4114
tp4115
a(S'MPI_Barrier()'
p4116
S'320'
p4117
tp4118
a(S'MPI_Barrier()'
p4119
S'356'
p4120
tp4121
a(S'MPI_Finalize()'
p4122
S'361'
p4123
tp4124
asS'NWChem-Json/src/tools/ga-5-4/global/testing/unit-tests/ga_intialize.c'
p4125
(lp4126
(S'MPI_Init()'
p4127
S'21'
p4128
tp4129
a(S'MPI_Comm_rank()'
p4130
S'23'
p4131
tp4132
a(S'MPI_Comm_size()'
p4133
S'24'
p4134
tp4135
a(S'MPI_Finalize()'
p4136
S'41'
p4137
tp4138
asS'NWChem-Json/src/tools/ga-5-4/armci/testing/ptltest.c'
p4139
(lp4140
(S'MPI_Init()'
p4141
S'67'
p4142
tp4143
a(S'MPI_Finalize()'
p4144
S'98'
p4145
tp4146
asS'NWChem-Json/src/tools/ga-5-4/comex/testing/test.c'
p4147
(lp4148
(S'MPI_Allreduce()'
p4149
S'87'
p4150
tp4151
a(S'MPI_Allreduce()'
p4152
S'109'
p4153
tp4154
a(S'MPI_Finalize()'
p4155
S'1743'
p4156
tp4157
asS'NWChem-Json/src/nwpw/nwpwlib/DMatrix/DMatrix-mpi.F'
p4158
(lp4159
(S'MPI_IRECV()'
p4160
S'478'
p4161
tp4162
a(S'MPI_ISEND()'
p4163
S'493'
p4164
tp4165
a(S'MPI_IRECV()'
p4166
S'505'
p4167
tp4168
a(S'MPI_ISEND()'
p4169
S'514'
p4170
tp4171
a(S'MPI_Bcast()'
p4172
S'649'
p4173
tp4174
a(S'MPI_Bcast()'
p4175
S'655'
p4176
tp4177
a(S'MPI_Bcast()'
p4178
S'659'
p4179
tp4180
a(S'MPI_Bcast()'
p4181
S'663'
p4182
tp4183
a(S'MPI_Bcast()'
p4184
S'778'
p4185
tp4186
a(S'MPI_Bcast()'
p4187
S'782'
p4188
tp4189
a(S'MPI_Reduce()'
p4190
S'809'
p4191
tp4192
a(S'MPI_Reduce()'
p4193
S'813'
p4194
tp4195
a(S'MPI_Bcast()'
p4196
S'924'
p4197
tp4198
a(S'MPI_Bcast()'
p4199
S'927'
p4200
tp4201
a(S'MPI_Reduce()'
p4202
S'944'
p4203
tp4204
a(S'MPI_Reduce()'
p4205
S'948'
p4206
tp4207
a(S'MPI_Bcast()'
p4208
S'1097'
p4209
tp4210
a(S'MPI_Bcast()'
p4211
S'1099'
p4212
tp4213
a(S'MPI_Bcast()'
p4214
S'1102'
p4215
tp4216
a(S'MPI_Bcast()'
p4217
S'1104'
p4218
tp4219
a(S'MPI_AllReduce()'
p4220
S'1253'
p4221
tp4222
a(S'MPI_AllReduce()'
p4223
S'1257'
p4224
tp4225
a(S'MPI_Bcast()'
p4226
S'1269'
p4227
tp4228
a(S'MPI_Bcast()'
p4229
S'1272'
p4230
tp4231
a(S'MPI_AllReduce()'
p4232
S'1303'
p4233
tp4234
a(S'MPI_AllReduce()'
p4235
S'1307'
p4236
tp4237
a(S'MPI_Bcast()'
p4238
S'1315'
p4239
tp4240
a(S'MPI_Bcast()'
p4241
S'1318'
p4242
tp4243
a(S'MPI_AllReduce()'
p4244
S'1365'
p4245
tp4246
a(S'MPI_AllReduce()'
p4247
S'1369'
p4248
tp4249
a(S'MPI_AllReduce()'
p4250
S'1410'
p4251
tp4252
a(S'MPI_AllReduce()'
p4253
S'1414'
p4254
tp4255
a(S'MPI_Bcast()'
p4256
S'1511'
p4257
tp4258
a(S'MPI_Bcast()'
p4259
S'1513'
p4260
tp4261
a(S'MPI_Bcast()'
p4262
S'1516'
p4263
tp4264
a(S'MPI_Bcast()'
p4265
S'1518'
p4266
tp4267
a(S'MPI_Bcast()'
p4268
S'1597'
p4269
tp4270
a(S'MPI_Bcast()'
p4271
S'1600'
p4272
tp4273
a(S'MPI_AllReduce()'
p4274
S'1612'
p4275
tp4276
a(S'MPI_AllReduce()'
p4277
S'1616'
p4278
tp4279
a(S'MPI_Bcast()'
p4280
S'1649'
p4281
tp4282
a(S'MPI_Bcast()'
p4283
S'1652'
p4284
tp4285
a(S'MPI_AllReduce()'
p4286
S'1663'
p4287
tp4288
a(S'MPI_AllReduce()'
p4289
S'1667'
p4290
tp4291
a(S'MPI_Allreduce()'
p4292
S'1702'
p4293
tp4294
a(S'MPI_Allreduce()'
p4295
S'1705'
p4296
tp4297
a(S'MPI_Allreduce()'
p4298
S'1743'
p4299
tp4300
a(S'MPI_Allreduce()'
p4301
S'1746'
p4302
tp4303
a(S'MPI_SEND()'
p4304
S'1828'
p4305
tp4306
a(S'MPI_RECV()'
p4307
S'1839'
p4308
tp4309
a(S'MPI_Bcast()'
p4310
S'1990'
p4311
tp4312
a(S'MPI_Bcast()'
p4313
S'1994'
p4314
tp4315
a(S'MPI_Reduce()'
p4316
S'2032'
p4317
tp4318
a(S'MPI_Reduce()'
p4319
S'2036'
p4320
tp4321
a(S'MPI_AllReduce()'
p4322
S'2182'
p4323
tp4324
a(S'MPI_AllReduce()'
p4325
S'2186'
p4326
tp4327
a(S'MPI_Bcast()'
p4328
S'2196'
p4329
tp4330
a(S'MPI_Bcast()'
p4331
S'2199'
p4332
tp4333
a(S'MPI_AllReduce()'
p4334
S'2229'
p4335
tp4336
a(S'MPI_AllReduce()'
p4337
S'2233'
p4338
tp4339
a(S'MPI_Bcast()'
p4340
S'2241'
p4341
tp4342
a(S'MPI_Bcast()'
p4343
S'2244'
p4344
tp4345
a(S'MPI_Bcast()'
p4346
S'2257'
p4347
tp4348
a(S'MPI_Bcast()'
p4349
S'2260'
p4350
tp4351
a(S'MPI_Bcast()'
p4352
S'2292'
p4353
tp4354
a(S'MPI_Bcast()'
p4355
S'2295'
p4356
tp4357
a(S'MPI_AllReduce()'
p4358
S'2350'
p4359
tp4360
a(S'MPI_AllReduce()'
p4361
S'2354'
p4362
tp4363
a(S'MPI_AllReduce()'
p4364
S'2395'
p4365
tp4366
a(S'MPI_AllReduce()'
p4367
S'2399'
p4368
tp4369
asS'NWChem-Json/src/nwpw/nwpwlib/Parallel/Parallel-mpi.F'
p4370
(lp4371
(S'MPI_COMM_RANK()'
p4372
S'99'
p4373
tp4374
a(S'MPI_COMM_SIZE()'
p4375
S'100'
p4376
tp4377
a(S'MPI_COMM_group()'
p4378
S'196'
p4379
tp4380
a(S'MPI_Group_incl()'
p4381
S'202'
p4382
tp4383
a(S'MPI_Comm_create()'
p4384
S'206'
p4385
tp4386
a(S'MPI_Group_incl()'
p4387
S'213'
p4388
tp4389
a(S'MPI_Comm_create()'
p4390
S'216'
p4391
tp4392
a(S'MPI_COMM_group()'
p4393
S'233'
p4394
tp4395
a(S'MPI_Group_incl()'
p4396
S'238'
p4397
tp4398
a(S'MPI_Comm_create()'
p4399
S'239'
p4400
tp4401
a(S'MPI_Group_incl()'
p4402
S'244'
p4403
tp4404
a(S'MPI_Comm_create()'
p4405
S'245'
p4406
tp4407
a(S'MPI_Comm_free()'
p4408
S'282'
p4409
tp4410
a(S'MPI_Group_free()'
p4411
S'283'
p4412
tp4413
a(S'MPI_Comm_free()'
p4414
S'284'
p4415
tp4416
a(S'MPI_Group_free()'
p4417
S'285'
p4418
tp4419
a(S'MPI_Comm_free()'
p4420
S'297'
p4421
tp4422
a(S'MPI_Group_free()'
p4423
S'298'
p4424
tp4425
a(S'MPI_Comm_free()'
p4426
S'299'
p4427
tp4428
a(S'MPI_Group_free()'
p4429
S'300'
p4430
tp4431
a(S'MPI_COMM_group()'
p4432
S'370'
p4433
tp4434
a(S'MPI_Group_incl()'
p4435
S'379'
p4436
tp4437
a(S'MPI_Comm_create()'
p4438
S'383'
p4439
tp4440
a(S'MPI_Group_incl()'
p4441
S'393'
p4442
tp4443
a(S'MPI_Comm_create()'
p4444
S'396'
p4445
tp4446
a(S'MPI_Group_incl()'
p4447
S'406'
p4448
tp4449
a(S'MPI_Comm_create()'
p4450
S'410'
p4451
tp4452
a(S'MPI_COMM_group()'
p4453
S'426'
p4454
tp4455
a(S'MPI_Group_incl()'
p4456
S'434'
p4457
tp4458
a(S'MPI_Comm_create()'
p4459
S'435'
p4460
tp4461
a(S'MPI_Group_incl()'
p4462
S'443'
p4463
tp4464
a(S'MPI_Comm_create()'
p4465
S'444'
p4466
tp4467
a(S'MPI_Group_incl()'
p4468
S'452'
p4469
tp4470
a(S'MPI_Comm_create()'
p4471
S'453'
p4472
tp4473
a(S'MPI_Comm_free()'
p4474
S'485'
p4475
tp4476
a(S'MPI_Group_free()'
p4477
S'486'
p4478
tp4479
a(S'MPI_Comm_free()'
p4480
S'487'
p4481
tp4482
a(S'MPI_Group_free()'
p4483
S'488'
p4484
tp4485
a(S'MPI_Comm_free()'
p4486
S'489'
p4487
tp4488
a(S'MPI_Group_free()'
p4489
S'490'
p4490
tp4491
a(S'MPI_Comm_free()'
p4492
S'501'
p4493
tp4494
a(S'MPI_Group_free()'
p4495
S'502'
p4496
tp4497
a(S'MPI_Comm_free()'
p4498
S'503'
p4499
tp4500
a(S'MPI_Group_free()'
p4501
S'504'
p4502
tp4503
a(S'MPI_Comm_free()'
p4504
S'505'
p4505
tp4506
a(S'MPI_Group_free()'
p4507
S'506'
p4508
tp4509
a(S'MPI_Allreduce()'
p4510
S'536'
p4511
tp4512
a(S'MPI_Allreduce()'
p4513
S'544'
p4514
tp4515
a(S'MPI_Allreduce()'
p4516
S'575'
p4517
tp4518
a(S'MPI_Allreduce()'
p4519
S'584'
p4520
tp4521
a(S'MPI_Allreduce()'
p4522
S'619'
p4523
tp4524
a(S'MPI_Allreduce()'
p4525
S'628'
p4526
tp4527
a(S'MPI_Allreduce()'
p4528
S'663'
p4529
tp4530
a(S'MPI_Allreduce()'
p4531
S'675'
p4532
tp4533
a(S'MPI_Allreduce()'
p4534
S'722'
p4535
tp4536
a(S'MPI_Allreduce()'
p4537
S'727'
p4538
tp4539
a(S'MPI_Allreduce()'
p4540
S'784'
p4541
tp4542
a(S'MPI_Allreduce()'
p4543
S'793'
p4544
tp4545
a(S'MPI_Bcast()'
p4546
S'836'
p4547
tp4548
a(S'MPI_Bcast()'
p4549
S'843'
p4550
tp4551
a(S'MPI_Bcast()'
p4552
S'880'
p4553
tp4554
a(S'MPI_Bcast()'
p4555
S'887'
p4556
tp4557
a(S'MPI_Bcast()'
p4558
S'921'
p4559
tp4560
a(S'MPI_Bcast()'
p4561
S'929'
p4562
tp4563
a(S'MPI_Bcast()'
p4564
S'974'
p4565
tp4566
a(S'MPI_Bcast()'
p4567
S'985'
p4568
tp4569
a(S'MPI_WAITALL()'
p4570
S'1063'
p4571
tp4572
a(S'MPI_WAITALL()'
p4573
S'1080'
p4574
tp4575
a(S'MPI_Allreduce()'
p4576
S'1167'
p4577
tp4578
a(S'MPI_Allreduce()'
p4579
S'1178'
p4580
tp4581
a(S'MPI_Allreduce()'
p4582
S'1217'
p4583
tp4584
a(S'MPI_Allreduce()'
p4585
S'1228'
p4586
tp4587
a(S'MPI_Allreduce()'
p4588
S'1265'
p4589
tp4590
a(S'MPI_Allreduce()'
p4591
S'1278'
p4592
tp4593
a(S'MPI_Allreduce()'
p4594
S'1333'
p4595
tp4596
a(S'MPI_Allreduce()'
p4597
S'1338'
p4598
tp4599
a(S'MPI_Allreduce()'
p4600
S'1401'
p4601
tp4602
a(S'MPI_Allreduce()'
p4603
S'1410'
p4604
tp4605
a(S'MPI_Bcast()'
p4606
S'1455'
p4607
tp4608
a(S'MPI_Bcast()'
p4609
S'1464'
p4610
tp4611
a(S'MPI_Bcast()'
p4612
S'1502'
p4613
tp4614
a(S'MPI_Bcast()'
p4615
S'1511'
p4616
tp4617
a(S'MPI_Bcast()'
p4618
S'1549'
p4619
tp4620
a(S'MPI_Bcast()'
p4621
S'1559'
p4622
tp4623
a(S'MPI_Bcast()'
p4624
S'1607'
p4625
tp4626
a(S'MPI_Bcast()'
p4627
S'1620'
p4628
tp4629
a(S'MPI_IRECV()'
p4630
S'1692'
p4631
tp4632
a(S'MPI_ISEND()'
p4633
S'1708'
p4634
tp4635
a(S'MPI_IRECV()'
p4636
S'1724'
p4637
tp4638
a(S'MPI_ISEND()'
p4639
S'1736'
p4640
tp4641
a(S'MPI_IRECV()'
p4642
S'1823'
p4643
tp4644
a(S'MPI_ISEND()'
p4645
S'1841'
p4646
tp4647
a(S'MPI_IRECV()'
p4648
S'1857'
p4649
tp4650
a(S'MPI_ISEND()'
p4651
S'1869'
p4652
tp4653
a(S'MPI_SEND()'
p4654
S'1942'
p4655
tp4656
a(S'MPI_SEND()'
p4657
S'1946'
p4658
tp4659
a(S'MPI_SEND()'
p4660
S'1985'
p4661
tp4662
a(S'MPI_SEND()'
p4663
S'1991'
p4664
tp4665
a(S'MPI_SEND()'
p4666
S'2022'
p4667
tp4668
a(S'MPI_SEND()'
p4669
S'2026'
p4670
tp4671
a(S'MPI_RECV()'
p4672
S'2065'
p4673
tp4674
a(S'MPI_RECV()'
p4675
S'2070'
p4676
tp4677
a(S'MPI_RECV()'
p4678
S'2116'
p4679
tp4680
a(S'MPI_RECV()'
p4681
S'2125'
p4682
tp4683
a(S'MPI_RECV()'
p4684
S'2170'
p4685
tp4686
a(S'MPI_RECV()'
p4687
S'2175'
p4688
tp4689
asS'NWChem-Json/src/tools/ga-5-4/armci/f90/testa.F90'
p4690
(lp4691
(S'mpi_init()'
p4692
S'29'
p4693
tp4694
a(S'mpi_comm_rank()'
p4695
S'30'
p4696
tp4697
a(S'mpi_comm_size()'
p4698
S'31'
p4699
tp4700
a(S'mpi_barrier()'
p4701
S'95'
p4702
tp4703
a(S'mpi_finalize()'
p4704
S'99'
p4705
tp4706
asS'NWChem-Json/src/tools/ga-5-4/global/testing/unit-tests/ga_pgroup_setdefault.c'
p4707
(lp4708
(S'MPI_Init()'
p4709
S'20'
p4710
tp4711
a(S'MPI_Comm_rank()'
p4712
S'22'
p4713
tp4714
a(S'MPI_Comm_size()'
p4715
S'23'
p4716
tp4717
a(S'MPI_Finalize()'
p4718
S'68'
p4719
tp4720
asS'NWChem-Json/src/smd/smd-scheduler/sched_groups.c'
p4721
(lp4722
(S'MPI_Comm_rank()'
p4723
S'217'
p4724
tp4725
a(S'MPI_Comm_size()'
p4726
S'218'
p4727
tp4728
a(S'MPI_Barrier()'
p4729
S'281'
p4730
tp4731
a(S'MPI_Wtime()'
p4732
S'734'
p4733
tp4734
a(S'MPI_Wtime()'
p4735
S'789'
p4736
tp4737
a(S'MPI_Wtime()'
p4738
S'806'
p4739
tp4740
a(S'MPI_Barrier()'
p4741
S'824'
p4742
tp4743
a(S'MPI_Comm_rank()'
p4744
S'967'
p4745
tp4746
a(S'MPI_Comm_size()'
p4747
S'968'
p4748
tp4749
a(S'MPI_Barrier()'
p4750
S'1040'
p4751
tp4752
a(S'MPI_Comm_rank()'
p4753
S'1281'
p4754
tp4755
a(S'MPI_Wtime()'
p4756
S'1359'
p4757
tp4758
a(S'MPI_Wtime()'
p4759
S'1364'
p4760
tp4761
a(S'MPI_Wtime()'
p4762
S'1421'
p4763
tp4764
a(S'MPI_Barrier()'
p4765
S'1443'
p4766
tp4767
a(S'MPI_Wait()'
p4768
S'1768'
p4769
tp4770
a(S'MPI_Test()'
p4771
S'1811'
p4772
tp4773
a(S'MPI_Get_elements()'
p4774
S'1817'
p4775
tp4776
a(S'MPI_Probe()'
p4777
S'1907'
p4778
tp4779
a(S'MPI_Wait()'
p4780
S'1916'
p4781
tp4782
asS'NWChem-Json/src/util/util_mygabcast.c'
p4783
(lp4784
(S'MPI_Error_string()'
p4785
S'55'
p4786
tp4787
a(S'MPI_Barrier()'
p4788
S'62'
p4789
tp4790
asS'NWChem-Json/src/tools/ga-5-4/armci/testing/rpl_armci_msg_finalize.c'
p4791
(lp4792
(S'MPI_Finalize()'
p4793
g651
tp4794
asS'NWChem-Json/src/tools/ga-5-4/global/testing/lock.c'
p4795
(lp4796
(S'MPI_Finalize()'
p4797
S'141'
p4798
tp4799
asS'NWChem-Json/src/tools/ga-5-4/comex/testing/perf.c'
p4800
(lp4801
(S'MPI_Finalize()'
p4802
S'64'
p4803
tp4804
asS'NWChem-Json/src/tools/ga-5-4/armci/src/devices/openib/openib.c'
p4805
(lp4806
(S'MPI_Alltoall()'
p4807
S'1287'
p4808
tp4809
a(S'MPI_Alltoall()'
p4810
S'1371'
p4811
tp4812
a(S'MPI_Wtime()'
p4813
S'1591'
p4814
tp4815
a(S'MPI_Wtime()'
p4816
S'4375'
p4817
tp4818
a(S'MPI_Wtime()'
p4819
S'4414'
p4820
tp4821
a(S'MPI_Wtime()'
p4822
S'4454'
p4823
tp4824
a(S'MPI_Allgather()'
p4825
S'4723'
p4826
tp4827
a(S'MPI_Alltoall()'
p4828
S'4725'
p4829
tp4830
a(S'MPI_Barrier()'
p4831
S'4931'
p4832
tp4833
a(S'MPI_Barrier()'
p4834
S'4936'
p4835
tp4836
a(S'MPI_Wtime()'
p4837
S'5087'
p4838
tp4839
a(S'MPI_Wtime()'
p4840
S'5101'
p4841
tp4842
a(S'MPI_Wtime()'
p4843
S'5182'
p4844
tp4845
a(S'MPI_Wtime()'
p4846
S'5217'
p4847
tp4848
asS'NWChem-Json/src/tools/ga-5-4/armci/src/common/groups.c'
p4849
(lp4850
(S'MPI_Comm_compare()'
p4851
S'87'
p4852
tp4853
a(S'MPI_Group_size()'
p4854
S'111'
p4855
tp4856
a(S'MPI_Comm_group()'
p4857
S'124'
p4858
tp4859
a(S'MPI_Group_translate_ranks()'
p4860
S'125'
p4861
tp4862
a(S'MPI_Comm_group()'
p4863
S'164'
p4864
tp4865
a(S'MPI_Group_translate_ranks()'
p4866
S'165'
p4867
tp4868
a(S'MPI_Comm_free()'
p4869
S'363'
p4870
tp4871
a(S'MPI_Group_rank()'
p4872
S'466'
p4873
tp4874
a(S'MPI_Comm_dup()'
p4875
S'472'
p4876
tp4877
a(S'MPI_Intercomm_create()'
p4878
S'481'
p4879
tp4880
a(S'MPI_Comm_free()'
p4881
S'482'
p4882
tp4883
a(S'MPI_Intercomm_merge()'
p4884
S'483'
p4885
tp4886
a(S'MPI_Comm_free()'
p4887
S'484'
p4888
tp4889
a(S'MPI_Group_free()'
p4890
S'491'
p4891
tp4892
a(S'MPI_Comm_group()'
p4893
S'492'
p4894
tp4895
a(S'MPI_Comm_group()'
p4896
S'539'
p4897
tp4898
a(S'MPI_Group_rank()'
p4899
S'542'
p4900
tp4901
asS'NWChem-Json/contrib/openmp_tests/dgemm/dgemm_mpi.F'
p4902
(lp4903
(S'MPI_Init()'
p4904
S'77'
p4905
tp4906
a(S'MPI_Comm_size()'
p4907
S'78'
p4908
tp4909
a(S'MPI_Comm_rank()'
p4910
S'79'
p4911
tp4912
a(S'MPI_Abort()'
p4913
S'88'
p4914
tp4915
a(S'MPI_Abort()'
p4916
S'112'
p4917
tp4918
a(S'MPI_Abort()'
p4919
S'118'
p4920
tp4921
a(S'MPI_Bcast()'
p4922
S'136'
p4923
tp4924
a(S'MPI_Abort()'
p4925
S'141'
p4926
tp4927
a(S'MPI_Send()'
p4928
S'160'
p4929
tp4930
a(S'MPI_Send()'
p4931
S'163'
p4932
tp4933
a(S'MPI_Recv()'
p4934
S'174'
p4935
tp4936
a(S'MPI_Recv()'
p4937
S'178'
p4938
tp4939
a(S'MPI_Barrier()'
p4940
S'184'
p4941
tp4942
a(S'MPI_Recv()'
p4943
S'205'
p4944
tp4945
a(S'MPI_Send()'
p4946
S'214'
p4947
tp4948
a(S'MPI_Finalize()'
p4949
S'232'
p4950
tp4951
a(S'MPI_Comm_size()'
p4952
S'305'
p4953
tp4954
a(S'MPI_Comm_rank()'
p4955
S'306'
p4956
tp4957
a(S'MPI_Comm_split()'
p4958
S'321'
p4959
tp4960
a(S'MPI_Comm_split()'
p4961
S'322'
p4962
tp4963
a(S'MPI_Comm_rank()'
p4964
S'324'
p4965
tp4966
a(S'MPI_Comm_rank()'
p4967
S'330'
p4968
tp4969
a(S'MPI_Comm_rank()'
p4970
S'331'
p4971
tp4972
a(S'MPI_Bcast()'
p4973
S'349'
p4974
tp4975
a(S'MPI_Bcast()'
p4976
S'364'
p4977
tp4978
a(S'MPI_Comm_free()'
p4979
S'373'
p4980
tp4981
a(S'MPI_Comm_free()'
p4982
S'374'
p4983
tp4984
a(S'MPI_Barrier()'
p4985
S'375'
p4986
tp4987
asS'NWChem-Json/src/tools/ga-5-4/gfutex/examples/scf/twoel.C'
p4988
(lp4989
(S'MPI_Wtime()'
p4990
S'207'
p4991
tp4992
a(S'MPI_Wtime()'
p4993
S'313'
p4994
tp4995
a(S'MPI_Wtime()'
p4996
S'444'
p4997
tp4998
a(S'MPI_Wtime()'
p4999
S'465'
p5000
tp5001
a(S'MPI_Wtime()'
p5002
S'467'
p5003
tp5004
a(S'MPI_Wtime()'
p5005
S'471'
p5006
tp5007
a(S'MPI_Wtime()'
p5008
S'479'
p5009
tp5010
a(S'MPI_Wtime()'
p5011
S'483'
p5012
tp5013
a(S'MPI_Allgather()'
p5014
S'493'
p5015
tp5016
a(S'MPI_Wtime()'
p5017
S'513'
p5018
tp5019
a(S'MPI_Wtime()'
p5020
S'515'
p5021
tp5022
a(S'MPI_Wtime()'
p5023
S'516'
p5024
tp5025
a(S'MPI_Wtime()'
p5026
S'519'
p5027
tp5028
a(S'MPI_Wtime()'
p5029
S'558'
p5030
tp5031
a(S'MPI_Wtime()'
p5032
S'561'
p5033
tp5034
a(S'MPI_Allgather()'
p5035
S'1023'
p5036
tp5037
a(S'MPI_Reduce()'
p5038
S'1103'
p5039
tp5040
asS'NWChem-Json/src/tools/ga-5-4/armci/src/common/armci.c'
p5041
(lp5042
(S'MPI_Comm_get_parent()'
p5043
S'345'
p5044
tp5045
a(S'MPI_Query_thread()'
p5046
S'411'
p5047
tp5048
a(S'MPI_Comm_free()'
p5049
S'657'
p5050
tp5051
asS'NWChem-Json/src/tools/ga-5-4/armci/src-portals/portals_ds.c'
p5052
(lp5053
(S'MPI_Comm_size()'
p5054
S'55'
p5055
tp5056
a(S'MPI_Comm_rank()'
p5057
S'56'
p5058
tp5059
asS'NWChem-Json/src/tools/ga-5-4/global/testing/unit-tests/ga_ndim.c'
p5060
(lp5061
(S'MPI_Init()'
p5062
S'58'
p5063
tp5064
a(S'MPI_Comm_rank()'
p5065
S'60'
p5066
tp5067
a(S'MPI_Comm_size()'
p5068
S'61'
p5069
tp5070
a(S'MPI_Finalize()'
p5071
S'76'
p5072
tp5073
asS'NWChem-Json/src/tools/ga-5-4/global/testing/unit-tests/ga_igop.c'
p5074
(lp5075
(S'MPI_Init()'
p5076
S'205'
p5077
tp5078
a(S'MPI_Comm_rank()'
p5079
S'209'
p5080
tp5081
a(S'MPI_Comm_size()'
p5082
S'210'
p5083
tp5084
a(S'MPI_Finalize()'
p5085
S'228'
p5086
tp5087
asS'NWChem-Json/src/fft/test/mympi.F'
p5088
(lp5089
(S'MPI_INIT()'
p5090
S'7'
p5091
tp5092
a(S'MPI_COMM_RANK()'
p5093
g2220
tp5094
a(S'MPI_COMM_SIZE()'
p5095
g651
tp5096
a(S'MPI_FINALIZE()'
p5097
S'16'
p5098
tp5099
a(S'MPI_BARRIER()'
p5100
S'23'
p5101
tp5102
a(S'MPI_BARRIER()'
p5103
S'24'
p5104
tp5105
a(S'MPI_BARRIER()'
p5106
S'25'
p5107
tp5108
a(S'MPI_BARRIER()'
p5109
S'26'
p5110
tp5111
asS'NWChem-Json/src/tools/ga-5-4/global/testing/unit-tests/ga_igop2.c'
p5112
(lp5113
(S'MPI_Init()'
p5114
S'73'
p5115
tp5116
a(S'MPI_Comm_rank()'
p5117
S'77'
p5118
tp5119
a(S'MPI_Comm_size()'
p5120
S'78'
p5121
tp5122
a(S'MPI_Finalize()'
p5123
S'89'
p5124
tp5125
asS'NWChem-Json/src/tools/ga-5-4/global/testing/unit-tests/ga_sync.c'
p5126
(lp5127
(S'MPI_Init()'
p5128
S'21'
p5129
tp5130
a(S'MPI_Comm_rank()'
p5131
S'23'
p5132
tp5133
a(S'MPI_Comm_size()'
p5134
S'24'
p5135
tp5136
a(S'MPI_Finalize()'
p5137
S'44'
p5138
tp5139
asS'NWChem-Json/src/tools/ga-5-4/armci/src/devices/mpi-spawn/mpi2_server.c'
p5140
(lp5141
(S'MPI_Finalize()'
p5142
S'169'
p5143
tp5144
a(S'MPI_Check()'
p5145
S'225'
p5146
tp5147
a(S'MPI_Recv()'
p5148
S'226'
p5149
tp5150
a(S'MPI_Get_count()'
p5151
S'279'
p5152
tp5153
a(S'MPI_Check()'
p5154
S'329'
p5155
tp5156
a(S'MPI_Send()'
p5157
S'330'
p5158
tp5159
a(S'MPI_Check()'
p5160
S'372'
p5161
tp5162
a(S'MPI_Probe()'
p5163
S'373'
p5164
tp5165
a(S'MPI_Check()'
p5166
S'399'
p5167
tp5168
a(S'MPI_Irecv()'
p5169
S'400'
p5170
tp5171
a(S'MPI_Check()'
p5172
S'418'
p5173
tp5174
a(S'MPI_Waitany()'
p5175
S'419'
p5176
tp5177
a(S'MPI_Check()'
p5178
S'443'
p5179
tp5180
a(S'MPI_Irecv()'
p5181
S'444'
p5182
tp5183
a(S'MPI_Comm_remote_size()'
p5184
S'460'
p5185
tp5186
a(S'MPI_Comm_rank()'
p5187
S'505'
p5188
tp5189
a(S'MPI_Comm_size()'
p5190
S'506'
p5191
tp5192
a(S'MPI_Get_processor_name()'
p5193
S'507'
p5194
tp5195
a(S'MPI_Get_version()'
p5196
S'508'
p5197
tp5198
a(S'MPI_Comm_get_parent()'
p5199
S'516'
p5200
tp5201
a(S'MPI_Recv()'
p5202
S'525'
p5203
tp5204
a(S'MPI_Recv()'
p5205
S'552'
p5206
tp5207
a(S'MPI_Recv()'
p5208
S'556'
p5209
tp5210
a(S'MPI_Barrier()'
p5211
S'572'
p5212
tp5213
asS'NWChem-Json/src/tools/ga-5-4/global/testing/unit-tests/ga_copy2.c'
p5214
(lp5215
(S'MPI_Init()'
p5216
S'28'
p5217
tp5218
a(S'MPI_Comm_rank()'
p5219
S'30'
p5220
tp5221
a(S'MPI_Comm_size()'
p5222
S'31'
p5223
tp5224
a(S'MPI_Finalize()'
p5225
S'86'
p5226
tp5227
asS'NWChem-Json/src/tools/ga-5-4/global/testing/unit-tests/ga_create_irreg.c'
p5228
(lp5229
(S'MPI_Init()'
p5230
S'177'
p5231
tp5232
a(S'MPI_Comm_rank()'
p5233
S'179'
p5234
tp5235
a(S'MPI_Comm_size()'
p5236
S'180'
p5237
tp5238
a(S'MPI_Finalize()'
p5239
S'196'
p5240
tp5241
asS'NWChem-Json/src/tools/ga-5-4/tcgmsg/tcgmsg-mpi/clustercheck.c'
p5242
(lp5243
(S'MPI_Comm_rank()'
p5244
S'34'
p5245
tp5246
a(S'MPI_Bcast()'
p5247
S'36'
p5248
tp5249
a(S'MPI_Bcast()'
p5250
S'38'
p5251
tp5252
a(S'MPI_Abort()'
p5253
S'43'
p5254
tp5255
a(S'MPI_Allreduce()'
p5256
S'53'
p5257
tp5258
a(S'MPI_Abort()'
p5259
S'57'
p5260
tp5261
asS'NWChem-Json/src/tools/ga-5-4/global/testing/unit-tests/ga_nnodes.c'
p5262
(lp5263
(S'MPI_Init()'
p5264
S'23'
p5265
tp5266
a(S'MPI_Comm_rank()'
p5267
S'25'
p5268
tp5269
a(S'MPI_Comm_size()'
p5270
S'26'
p5271
tp5272
a(S'MPI_Finalize()'
p5273
S'38'
p5274
tp5275
asS'NWChem-Json/src/tools/ga-5-4/comex/src-portals4/groups.c'
p5276
(lp5277
(S'MPI_Group_rank()'
p5278
S'83'
p5279
tp5280
a(S'MPI_Group_size()'
p5281
S'97'
p5282
tp5283
a(S'MPI_Group_translate_ranks()'
p5284
S'125'
p5285
tp5286
a(S'MPI_Group_free()'
p5287
S'146'
p5288
tp5289
a(S'MPI_Comm_free()'
p5290
S'153'
p5291
tp5292
a(S'MPI_Group_incl()'
p5293
S'211'
p5294
tp5295
a(S'MPI_Group_rank()'
p5296
S'219'
p5297
tp5298
a(S'MPI_Comm_dup()'
p5299
S'226'
p5300
tp5301
a(S'MPI_Intercomm_create()'
p5302
S'235'
p5303
tp5304
a(S'MPI_Comm_free()'
p5305
S'237'
p5306
tp5307
a(S'MPI_Intercomm_merge()'
p5308
S'238'
p5309
tp5310
a(S'MPI_Comm_free()'
p5311
S'239'
p5312
tp5313
a(S'MPI_Group_free()'
p5314
S'247'
p5315
tp5316
a(S'MPI_Comm_group()'
p5317
S'249'
p5318
tp5319
a(S'MPI_Comm_group()'
p5320
S'269'
p5321
tp5322
a(S'MPI_Group_free()'
p5323
S'289'
p5324
tp5325
asS'NWChem-Json/src/tools/ga-5-4/global/testing/unit-tests/ga_pgroup_destroy.c'
p5326
(lp5327
(S'MPI_Init()'
p5328
S'22'
p5329
tp5330
a(S'MPI_Comm_rank()'
p5331
S'24'
p5332
tp5333
a(S'MPI_Comm_size()'
p5334
S'25'
p5335
tp5336
a(S'MPI_Finalize()'
p5337
S'75'
p5338
tp5339
asS'NWChem-Json/src/tools/ga-5-4/global/testing/unit-tests/ga_pgroup_nnodes_nodeid.c'
p5340
(lp5341
(S'MPI_Init()'
p5342
S'97'
p5343
tp5344
a(S'MPI_Comm_rank()'
p5345
S'99'
p5346
tp5347
a(S'MPI_Comm_size()'
p5348
S'100'
p5349
tp5350
a(S'MPI_Finalize()'
p5351
S'116'
p5352
tp5353
asS'NWChem-Json/src/util/util_mpinap.c'
p5354
(lp5355
(S'MPI_Comm_rank()'
p5356
S'18'
p5357
tp5358
asS'NWChem-Json/src/tools/ga-5-4/global/testing/unit-tests/ga_acc.c'
p5359
(lp5360
(S'MPI_Init()'
p5361
S'24'
p5362
tp5363
a(S'MPI_Comm_rank()'
p5364
S'25'
p5365
tp5366
a(S'MPI_Comm_size()'
p5367
S'26'
p5368
tp5369
a(S'MPI_Finalize()'
p5370
S'64'
p5371
tp5372
asS'NWChem-Json/src/tools/ga-5-4/tcgmsg/tcgmsg-mpi/nxtval.c'
p5373
(lp5374
(S'MPI_Recv()'
p5375
S'33'
p5376
tp5377
a(S'MPI_Get_count()'
p5378
S'34'
p5379
tp5380
a(S'MPI_Send()'
p5381
S'61'
p5382
tp5383
a(S'MPI_Barrier()'
p5384
S'63'
p5385
tp5386
a(S'MPI_Finalize()'
p5387
S'64'
p5388
tp5389
a(S'MPI_Send()'
p5390
S'73'
p5391
tp5392
a(S'MPI_Send()'
p5393
S'86'
p5394
tp5395
a(S'MPI_Send()'
p5396
S'126'
p5397
tp5398
a(S'MPI_Recv()'
p5399
S'127'
p5400
tp5401
a(S'MPI_Comm_size()'
p5402
S'157'
p5403
tp5404
a(S'MPI_Comm_rank()'
p5405
S'158'
p5406
tp5407
asS'NWChem-Json/src/tools/ga-5-4/global/testing/unit-tests/ga_create_irreg2.c'
p5408
(lp5409
(S'MPI_Init()'
p5410
S'180'
p5411
tp5412
a(S'MPI_Comm_rank()'
p5413
S'182'
p5414
tp5415
a(S'MPI_Comm_size()'
p5416
S'183'
p5417
tp5418
a(S'MPI_Finalize()'
p5419
S'199'
p5420
tp5421
asS'NWChem-Json/src/tools/ga-5-4/comex/src-dmapp/comex.c'
p5422
(lp5423
(S'MPI_Barrier()'
p5424
S'864'
p5425
tp5426
a(S'MPI_Abort()'
p5427
S'875'
p5428
tp5429
a(S'MPI_Barrier()'
p5430
S'967'
p5431
tp5432
a(S'MPI_Initialized()'
p5433
S'1022'
p5434
tp5435
a(S'MPI_Comm_dup()'
p5436
S'1027'
p5437
tp5438
a(S'MPI_Comm_rank()'
p5439
S'1032'
p5440
tp5441
a(S'MPI_Comm_size()'
p5442
S'1037'
p5443
tp5444
a(S'MPI_Barrier()'
p5445
S'1061'
p5446
tp5447
a(S'MPI_Initialized()'
p5448
S'1072'
p5449
tp5450
a(S'MPI_Init()'
p5451
S'1075'
p5452
tp5453
a(S'MPI_Barrier()'
p5454
S'1099'
p5455
tp5456
a(S'MPI_Comm_free()'
p5457
S'1102'
p5458
tp5459
a(S'MPI_Allgather()'
p5460
S'1371'
p5461
tp5462
a(S'MPI_Barrier()'
p5463
S'1379'
p5464
tp5465
a(S'MPI_Barrier()'
p5466
S'1390'
p5467
tp5468
a(S'MPI_Barrier()'
p5469
S'1398'
p5470
tp5471
a(S'MPI_Barrier()'
p5472
S'1426'
p5473
tp5474
a(S'MPI_Comm_rank()'
p5475
S'1502'
p5476
tp5477
a(S'MPI_Comm_size()'
p5478
S'1503'
p5479
tp5480
a(S'MPI_Allreduce()'
p5481
S'1506'
p5482
tp5483
a(S'MPI_Allgather()'
p5484
S'1517'
p5485
tp5486
a(S'MPI_Allgather()'
p5487
S'1526'
p5488
tp5489
a(S'MPI_Barrier()'
p5490
S'1542'
p5491
tp5492
a(S'MPI_Comm_rank()'
p5493
S'1563'
p5494
tp5495
a(S'MPI_Comm_size()'
p5496
S'1564'
p5497
tp5498
a(S'MPI_Allgather()'
p5499
S'1571'
p5500
tp5501
a(S'MPI_Barrier()'
p5502
S'1589'
p5503
tp5504
a(S'MPI_Barrier()'
p5505
S'1823'
p5506
tp5507
a(S'MPI_Barrier()'
p5508
S'1840'
p5509
tp5510
asS'NWChem-Json/src/tools/ga-5-4/armci/src-gemini/portals_ds.c'
p5511
(lp5512
(S'MPI_Comm_size()'
p5513
S'55'
p5514
tp5515
a(S'MPI_Comm_rank()'
p5516
S'56'
p5517
tp5518
asS'NWChem-Json/src/tools/ga-5-4/global/testing/unit-tests/ga_get.c'
p5519
(lp5520
(S'MPI_Init()'
p5521
S'23'
p5522
tp5523
a(S'MPI_Comm_rank()'
p5524
S'24'
p5525
tp5526
a(S'MPI_Comm_size()'
p5527
S'25'
p5528
tp5529
a(S'MPI_Finalize()'
p5530
S'65'
p5531
tp5532
asS'NWChem-Json/src/tools/ga-5-4/global/src/collect.c'
p5533
(lp5534
(S'MPI_Bcast()'
p5535
S'52'
p5536
tp5537
asS'NWChem-Json/src/tools/ga-5-4/global/testing/unit-tests/ga_scale2.c'
p5538
(lp5539
(S'MPI_Init()'
p5540
S'85'
p5541
tp5542
a(S'MPI_Comm_rank()'
p5543
S'87'
p5544
tp5545
a(S'MPI_Comm_size()'
p5546
S'88'
p5547
tp5548
a(S'MPI_Finalize()'
p5549
S'102'
p5550
tp5551
asS'NWChem-Json/src/tools/ga-5-4/global/testing/unit-tests/ga_put.c'
p5552
(lp5553
(S'MPI_Init()'
p5554
S'24'
p5555
tp5556
a(S'MPI_Comm_rank()'
p5557
S'26'
p5558
tp5559
a(S'MPI_Comm_size()'
p5560
S'27'
p5561
tp5562
a(S'MPI_Finalize()'
p5563
S'99'
p5564
tp5565
asS'NWChem-Json/src/tools/ga-5-4/armci/examples/features/concurrency/multidma/multidma.c'
p5566
(lp5567
(S'MPI_Abort()'
p5568
S'91'
p5569
tp5570
a(S'MPI_Bcast()'
p5571
S'399'
p5572
tp5573
a(S'MPI_Gather()'
p5574
S'442'
p5575
tp5576
a(S'MPI_Gather()'
p5577
S'444'
p5578
tp5579
asS'NWChem-Json/src/tools/ga-5-4/comex/src-mpi-mt/groups.c'
p5580
(lp5581
(S'X_MPI_COMM_NULL()'
p5582
S'29'
p5583
tp5584
a(S'X_MPI_GROUP_NULL()'
p5585
S'30'
p5586
tp5587
a(S'X_MPI_COMM_NULL()'
p5588
S'34'
p5589
tp5590
a(S'MPI_Group_translate_ranks()'
p5591
S'180'
p5592
tp5593
a(S'MPI_Group_free()'
p5594
S'203'
p5595
tp5596
a(S'MPI_Comm_free()'
p5597
S'213'
p5598
tp5599
a(S'MPI_Group_incl()'
p5600
S'293'
p5601
tp5602
a(S'MPI_Group_rank()'
p5603
S'302'
p5604
tp5605
a(S'MPI_Comm_dup()'
p5606
S'314'
p5607
tp5608
a(S'MPI_Intercomm_create()'
p5609
S'324'
p5610
tp5611
a(S'MPI_Comm_free()'
p5612
S'327'
p5613
tp5614
a(S'MPI_Intercomm_merge()'
p5615
S'329'
p5616
tp5617
a(S'MPI_Comm_free()'
p5618
S'331'
p5619
tp5620
a(S'MPI_Group_free()'
p5621
S'340'
p5622
tp5623
a(S'MPI_Comm_group()'
p5624
S'343'
p5625
tp5626
a(S'MPI_Comm_size()'
p5627
S'346'
p5628
tp5629
a(S'MPI_Comm_rank()'
p5630
S'348'
p5631
tp5632
a(S'MPI_Comm_dup()'
p5633
S'374'
p5634
tp5635
a(S'MPI_Comm_group()'
p5636
S'376'
p5637
tp5638
a(S'MPI_Comm_rank()'
p5639
S'378'
p5640
tp5641
a(S'MPI_Comm_size()'
p5642
S'380'
p5643
tp5644
a(S'MPI_Allgather()'
p5645
S'396'
p5646
tp5647
a(S'MPI_Comm_dup()'
p5648
S'405'
p5649
tp5650
a(S'MPI_Comm_group()'
p5651
S'407'
p5652
tp5653
a(S'MPI_Comm_rank()'
p5654
S'409'
p5655
tp5656
a(S'MPI_Comm_size()'
p5657
S'411'
p5658
tp5659
a(S'MPI_Comm_split()'
p5660
S'415'
p5661
tp5662
a(S'MPI_Comm_rank()'
p5663
S'419'
p5664
tp5665
a(S'MPI_Comm_size()'
p5666
S'422'
p5667
tp5668
a(S'MPI_Comm_free()'
p5669
S'444'
p5670
tp5671
a(S'MPI_Group_free()'
p5672
S'446'
p5673
tp5674
a(S'MPI_Comm_free()'
p5675
S'448'
p5676
tp5677
asS'NWChem-Json/src/tools/ga-5-4/global/testing/unit-tests/ga_copypatch2.c'
p5678
(lp5679
(S'MPI_Init()'
p5680
S'27'
p5681
tp5682
a(S'MPI_Comm_rank()'
p5683
S'29'
p5684
tp5685
a(S'MPI_Comm_size()'
p5686
S'30'
p5687
tp5688
a(S'MPI_Finalize()'
p5689
S'75'
p5690
tp5691
asS'NWChem-Json/src/tools/ga-5-4/global/testing/unit-tests/ga_get_blockinfo.c'
p5692
(lp5693
(S'MPI_Init()'
p5694
S'25'
p5695
tp5696
a(S'MPI_Comm_rank()'
p5697
S'27'
p5698
tp5699
a(S'MPI_Comm_size()'
p5700
S'28'
p5701
tp5702
a(S'MPI_Finalize()'
p5703
S'51'
p5704
tp5705
asS'NWChem-Json/src/tools/ga-5-4/comex/src-mpi-pr/comex.c'
p5706
(lp5707
(S'MPI_Initialized()'
p5708
S'277'
p5709
tp5710
a(S'MPI_Barrier()'
p5711
S'352'
p5712
tp5713
a(S'MPI_Barrier()'
p5714
S'367'
p5715
tp5716
a(S'MPI_Initialized()'
p5717
S'382'
p5718
tp5719
a(S'MPI_Init()'
p5720
S'386'
p5721
tp5722
a(S'MPI_Barrier()'
p5723
S'449'
p5724
tp5725
a(S'MPI_Abort()'
p5726
S'483'
p5727
tp5728
a(S'MPI_Barrier()'
p5729
S'796'
p5730
tp5731
a(S'MPI_Allgather()'
p5732
S'1502'
p5733
tp5734
a(S'MPI_Allgather()'
p5735
S'1703'
p5736
tp5737
a(S'MPI_Type_contiguous()'
p5738
S'1825'
p5739
tp5740
a(S'MPI_Type_commit()'
p5741
S'1827'
p5742
tp5743
a(S'MPI_Allgather()'
p5744
S'1874'
p5745
tp5746
a(S'MPI_Allgather()'
p5747
S'2021'
p5748
tp5749
a(S'MPI_Recv()'
p5750
S'2172'
p5751
tp5752
a(S'X_MPI_ANY_SOURCE()'
p5753
S'2173'
p5754
tp5755
a(S'MPI_Get_count()'
p5756
S'2174'
p5757
tp5758
a(S'MPI_Barrier()'
p5759
S'2273'
p5760
tp5761
a(S'MPI_Finalize()'
p5762
S'2292'
p5763
tp5764
a(S'MPI_Group_translate_ranks()'
p5765
S'3331'
p5766
tp5767
a(S'MPI_Group_translate_ranks()'
p5768
S'3353'
p5769
tp5770
a(S'MPI_Abort()'
p5771
S'3546'
p5772
tp5773
a(S'MPI_Send()'
p5774
S'3593'
p5775
tp5776
a(S'MPI_Recv()'
p5777
S'3606'
p5778
tp5779
a(S'MPI_Get_count()'
p5780
S'3613'
p5781
tp5782
a(S'MPI_Isend()'
p5783
S'3645'
p5784
tp5785
a(S'MPI_Irecv()'
p5786
S'3696'
p5787
tp5788
a(S'MPI_Irecv()'
p5789
S'3734'
p5790
tp5791
a(S'MPI_Irecv()'
p5792
S'3771'
p5793
tp5794
a(S'MPI_Abort()'
p5795
S'3808'
p5796
tp5797
a(S'MPI_Wait()'
p5798
S'3849'
p5799
tp5800
a(S'MPI_Wait()'
p5801
S'3900'
p5802
tp5803
asS'NWChem-Json/src/tools/ga-5-4/global/testing/unit-tests/ga_inquire.c'
p5804
(lp5805
(S'MPI_Init()'
p5806
S'24'
p5807
tp5808
a(S'MPI_Comm_rank()'
p5809
S'26'
p5810
tp5811
a(S'MPI_Comm_size()'
p5812
S'27'
p5813
tp5814
a(S'MPI_Finalize()'
p5815
S'51'
p5816
tp5817
asS'NWChem-Json/src/tools/ga-5-4/comex/src-mpi-pt/comex.c'
p5818
(lp5819
(S'MPI_Initialized()'
p5820
S'279'
p5821
tp5822
a(S'MPI_Query_thread()'
p5823
S'284'
p5824
tp5825
a(S'MPI_Barrier()'
p5826
S'345'
p5827
tp5828
a(S'MPI_Barrier()'
p5829
S'374'
p5830
tp5831
a(S'MPI_Initialized()'
p5832
S'389'
p5833
tp5834
a(S'MPI_Init_thread()'
p5835
S'394'
p5836
tp5837
a(S'MPI_Barrier()'
p5838
S'459'
p5839
tp5840
a(S'MPI_Abort()'
p5841
S'493'
p5842
tp5843
a(S'MPI_Barrier()'
p5844
S'806'
p5845
tp5846
a(S'MPI_Allgather()'
p5847
S'1514'
p5848
tp5849
a(S'MPI_Barrier()'
p5850
S'1535'
p5851
tp5852
a(S'MPI_Allgather()'
p5853
S'1715'
p5854
tp5855
a(S'MPI_Type_contiguous()'
p5856
S'1836'
p5857
tp5858
a(S'MPI_Type_commit()'
p5859
S'1838'
p5860
tp5861
a(S'MPI_Allgather()'
p5862
S'1885'
p5863
tp5864
a(S'MPI_Allgather()'
p5865
S'2032'
p5866
tp5867
a(S'MPI_Recv()'
p5868
S'2180'
p5869
tp5870
a(S'X_MPI_ANY_SOURCE()'
p5871
S'2181'
p5872
tp5873
a(S'MPI_Get_count()'
p5874
S'2182'
p5875
tp5876
a(S'MPI_Recv()'
p5877
S'2299'
p5878
tp5879
a(S'MPI_Recv()'
p5880
S'2654'
p5881
tp5882
a(S'MPI_Group_translate_ranks()'
p5883
S'3325'
p5884
tp5885
a(S'MPI_Group_translate_ranks()'
p5886
S'3347'
p5887
tp5888
a(S'MPI_Abort()'
p5889
S'3540'
p5890
tp5891
a(S'MPI_Send()'
p5892
S'3587'
p5893
tp5894
a(S'MPI_Recv()'
p5895
S'3600'
p5896
tp5897
a(S'MPI_Get_count()'
p5898
S'3607'
p5899
tp5900
a(S'MPI_Isend()'
p5901
S'3639'
p5902
tp5903
a(S'MPI_Irecv()'
p5904
S'3690'
p5905
tp5906
a(S'MPI_Irecv()'
p5907
S'3728'
p5908
tp5909
a(S'MPI_Irecv()'
p5910
S'3765'
p5911
tp5912
a(S'MPI_Abort()'
p5913
S'3802'
p5914
tp5915
a(S'MPI_Wait()'
p5916
S'3843'
p5917
tp5918
a(S'MPI_Wait()'
p5919
S'3894'
p5920
tp5921
asS'NWChem-Json/src/tools/ga-5-4/global/testing/unit-tests/ga_add_constantpatch.c'
p5922
(lp5923
(S'MPI_Init()'
p5924
S'24'
p5925
tp5926
a(S'MPI_Comm_rank()'
p5927
S'26'
p5928
tp5929
a(S'MPI_Comm_size()'
p5930
S'27'
p5931
tp5932
a(S'MPI_Finalize()'
p5933
S'61'
p5934
tp5935
asS'NWChem-Json/src/tools/ga-5-4/tascel/src/TerminationDetector.cc'
p5936
(lp5937
(S'MPI_Irecv()'
p5938
S'18'
p5939
tp5940
a(S'MPI_Irecv()'
p5941
S'21'
p5942
tp5943
a(S'MPI_Irecv()'
p5944
S'30'
p5945
tp5946
a(S'MPI_Cancel()'
p5947
S'46'
p5948
tp5949
a(S'MPI_Cancel()'
p5950
S'49'
p5951
tp5952
a(S'MPI_Cancel()'
p5953
S'52'
p5954
tp5955
a(S'MPI_Send()'
p5956
S'75'
p5957
tp5958
a(S'MPI_Send()'
p5959
S'83'
p5960
tp5961
a(S'MPI_Send()'
p5962
S'86'
p5963
tp5964
a(S'MPI_Test()'
p5965
S'101'
p5966
tp5967
a(S'MPI_Test()'
p5968
S'104'
p5969
tp5970
a(S'MPI_Test()'
p5971
S'116'
p5972
tp5973
asS'NWChem-Json/src/tools/ga-5-4/global/examples/md_cluster/grp_sim.F'
p5974
(lp5975
(S'mpi_init()'
p5976
S'40'
p5977
tp5978
a(S'mpi_finalize()'
p5979
S'184'
p5980
tp5981
asS'NWChem-Json/src/tools/ga-5-4/global/testing/unit-tests/ga_pgroup_create2.c'
p5982
(lp5983
(S'MPI_Init()'
p5984
S'21'
p5985
tp5986
a(S'MPI_Comm_rank()'
p5987
S'23'
p5988
tp5989
a(S'MPI_Comm_size()'
p5990
S'24'
p5991
tp5992
a(S'MPI_Finalize()'
p5993
S'77'
p5994
tp5995
asS'NWChem-Json/src/tools/ga-5-4/tools/ga-wapi.c'
p5996
(lp5997
(S'MPI_Wtime()'
p5998
S'523'
p5999
tp6000
a(S'MPI_Wtime()'
p6001
S'525'
p6002
tp6003
a(S'MPI_Wtime()'
p6004
S'534'
p6005
tp6006
a(S'MPI_Wtime()'
p6007
S'536'
p6008
tp6009
a(S'MPI_Wtime()'
p6010
S'545'
p6011
tp6012
a(S'MPI_Wtime()'
p6013
S'547'
p6014
tp6015
a(S'MPI_Wtime()'
p6016
S'556'
p6017
tp6018
a(S'MPI_Wtime()'
p6019
S'558'
p6020
tp6021
a(S'MPI_Wtime()'
p6022
S'567'
p6023
tp6024
a(S'MPI_Wtime()'
p6025
S'569'
p6026
tp6027
a(S'MPI_Wtime()'
p6028
S'578'
p6029
tp6030
a(S'MPI_Wtime()'
p6031
S'580'
p6032
tp6033
a(S'MPI_Wtime()'
p6034
S'589'
p6035
tp6036
a(S'MPI_Wtime()'
p6037
S'591'
p6038
tp6039
a(S'MPI_Wtime()'
p6040
S'600'
p6041
tp6042
a(S'MPI_Wtime()'
p6043
S'602'
p6044
tp6045
a(S'MPI_Wtime()'
p6046
S'611'
p6047
tp6048
a(S'MPI_Wtime()'
p6049
S'613'
p6050
tp6051
a(S'MPI_Wtime()'
p6052
S'622'
p6053
tp6054
a(S'MPI_Wtime()'
p6055
S'624'
p6056
tp6057
a(S'MPI_Wtime()'
p6058
S'633'
p6059
tp6060
a(S'MPI_Wtime()'
p6061
S'635'
p6062
tp6063
a(S'MPI_Wtime()'
p6064
S'644'
p6065
tp6066
a(S'MPI_Wtime()'
p6067
S'646'
p6068
tp6069
a(S'MPI_Wtime()'
p6070
S'655'
p6071
tp6072
a(S'MPI_Wtime()'
p6073
S'657'
p6074
tp6075
a(S'MPI_Wtime()'
p6076
S'666'
p6077
tp6078
a(S'MPI_Wtime()'
p6079
S'668'
p6080
tp6081
a(S'MPI_Wtime()'
p6082
S'677'
p6083
tp6084
a(S'MPI_Wtime()'
p6085
S'679'
p6086
tp6087
a(S'MPI_Wtime()'
p6088
S'688'
p6089
tp6090
a(S'MPI_Wtime()'
p6091
S'690'
p6092
tp6093
a(S'MPI_Wtime()'
p6094
S'699'
p6095
tp6096
a(S'MPI_Wtime()'
p6097
S'701'
p6098
tp6099
a(S'MPI_Wtime()'
p6100
S'710'
p6101
tp6102
a(S'MPI_Wtime()'
p6103
S'712'
p6104
tp6105
a(S'MPI_Wtime()'
p6106
S'721'
p6107
tp6108
a(S'MPI_Wtime()'
p6109
S'723'
p6110
tp6111
a(S'MPI_Wtime()'
p6112
S'732'
p6113
tp6114
a(S'MPI_Wtime()'
p6115
S'734'
p6116
tp6117
a(S'MPI_Wtime()'
p6118
S'744'
p6119
tp6120
a(S'MPI_Wtime()'
p6121
S'746'
p6122
tp6123
a(S'MPI_Wtime()'
p6124
S'756'
p6125
tp6126
a(S'MPI_Wtime()'
p6127
S'758'
p6128
tp6129
a(S'MPI_Wtime()'
p6130
S'767'
p6131
tp6132
a(S'MPI_Wtime()'
p6133
S'769'
p6134
tp6135
a(S'MPI_Wtime()'
p6136
S'778'
p6137
tp6138
a(S'MPI_Wtime()'
p6139
S'780'
p6140
tp6141
a(S'MPI_Wtime()'
p6142
S'789'
p6143
tp6144
a(S'MPI_Wtime()'
p6145
S'791'
p6146
tp6147
a(S'MPI_Wtime()'
p6148
S'801'
p6149
tp6150
a(S'MPI_Wtime()'
p6151
S'803'
p6152
tp6153
a(S'MPI_Wtime()'
p6154
S'814'
p6155
tp6156
a(S'MPI_Wtime()'
p6157
S'816'
p6158
tp6159
a(S'MPI_Wtime()'
p6160
S'827'
p6161
tp6162
a(S'MPI_Wtime()'
p6163
S'829'
p6164
tp6165
a(S'MPI_Wtime()'
p6166
S'840'
p6167
tp6168
a(S'MPI_Wtime()'
p6169
S'842'
p6170
tp6171
a(S'MPI_Wtime()'
p6172
S'853'
p6173
tp6174
a(S'MPI_Wtime()'
p6175
S'855'
p6176
tp6177
a(S'MPI_Wtime()'
p6178
S'866'
p6179
tp6180
a(S'MPI_Wtime()'
p6181
S'868'
p6182
tp6183
a(S'MPI_Wtime()'
p6184
S'879'
p6185
tp6186
a(S'MPI_Wtime()'
p6187
S'881'
p6188
tp6189
a(S'MPI_Wtime()'
p6190
S'891'
p6191
tp6192
a(S'MPI_Wtime()'
p6193
S'893'
p6194
tp6195
a(S'MPI_Wtime()'
p6196
S'902'
p6197
tp6198
a(S'MPI_Wtime()'
p6199
S'904'
p6200
tp6201
a(S'MPI_Wtime()'
p6202
S'913'
p6203
tp6204
a(S'MPI_Wtime()'
p6205
S'915'
p6206
tp6207
a(S'MPI_Wtime()'
p6208
S'925'
p6209
tp6210
a(S'MPI_Wtime()'
p6211
S'927'
p6212
tp6213
a(S'MPI_Wtime()'
p6214
S'938'
p6215
tp6216
a(S'MPI_Wtime()'
p6217
S'940'
p6218
tp6219
a(S'MPI_Wtime()'
p6220
S'951'
p6221
tp6222
a(S'MPI_Wtime()'
p6223
S'953'
p6224
tp6225
a(S'MPI_Wtime()'
p6226
S'964'
p6227
tp6228
a(S'MPI_Wtime()'
p6229
S'966'
p6230
tp6231
a(S'MPI_Wtime()'
p6232
S'977'
p6233
tp6234
a(S'MPI_Wtime()'
p6235
S'979'
p6236
tp6237
a(S'MPI_Wtime()'
p6238
S'990'
p6239
tp6240
a(S'MPI_Wtime()'
p6241
S'992'
p6242
tp6243
a(S'MPI_Wtime()'
p6244
S'1003'
p6245
tp6246
a(S'MPI_Wtime()'
p6247
S'1005'
p6248
tp6249
a(S'MPI_Wtime()'
p6250
S'1016'
p6251
tp6252
a(S'MPI_Wtime()'
p6253
S'1018'
p6254
tp6255
a(S'MPI_Wtime()'
p6256
S'1029'
p6257
tp6258
a(S'MPI_Wtime()'
p6259
S'1031'
p6260
tp6261
a(S'MPI_Wtime()'
p6262
S'1042'
p6263
tp6264
a(S'MPI_Wtime()'
p6265
S'1044'
p6266
tp6267
a(S'MPI_Wtime()'
p6268
S'1055'
p6269
tp6270
a(S'MPI_Wtime()'
p6271
S'1057'
p6272
tp6273
a(S'MPI_Wtime()'
p6274
S'1068'
p6275
tp6276
a(S'MPI_Wtime()'
p6277
S'1070'
p6278
tp6279
a(S'MPI_Wtime()'
p6280
S'1081'
p6281
tp6282
a(S'MPI_Wtime()'
p6283
S'1083'
p6284
tp6285
a(S'MPI_Wtime()'
p6286
S'1094'
p6287
tp6288
a(S'MPI_Wtime()'
p6289
S'1096'
p6290
tp6291
a(S'MPI_Wtime()'
p6292
S'1107'
p6293
tp6294
a(S'MPI_Wtime()'
p6295
S'1109'
p6296
tp6297
a(S'MPI_Wtime()'
p6298
S'1119'
p6299
tp6300
a(S'MPI_Wtime()'
p6301
S'1121'
p6302
tp6303
a(S'MPI_Wtime()'
p6304
S'1130'
p6305
tp6306
a(S'MPI_Wtime()'
p6307
S'1132'
p6308
tp6309
a(S'MPI_Wtime()'
p6310
S'1141'
p6311
tp6312
a(S'MPI_Wtime()'
p6313
S'1143'
p6314
tp6315
a(S'MPI_Wtime()'
p6316
S'1152'
p6317
tp6318
a(S'MPI_Wtime()'
p6319
S'1154'
p6320
tp6321
a(S'MPI_Wtime()'
p6322
S'1163'
p6323
tp6324
a(S'MPI_Wtime()'
p6325
S'1165'
p6326
tp6327
a(S'MPI_Wtime()'
p6328
S'1174'
p6329
tp6330
a(S'MPI_Wtime()'
p6331
S'1176'
p6332
tp6333
a(S'MPI_Wtime()'
p6334
S'1185'
p6335
tp6336
a(S'MPI_Wtime()'
p6337
S'1187'
p6338
tp6339
a(S'MPI_Wtime()'
p6340
S'1196'
p6341
tp6342
a(S'MPI_Wtime()'
p6343
S'1198'
p6344
tp6345
a(S'MPI_Wtime()'
p6346
S'1208'
p6347
tp6348
a(S'MPI_Wtime()'
p6349
S'1210'
p6350
tp6351
a(S'MPI_Wtime()'
p6352
S'1220'
p6353
tp6354
a(S'MPI_Wtime()'
p6355
S'1222'
p6356
tp6357
a(S'MPI_Wtime()'
p6358
S'1231'
p6359
tp6360
a(S'MPI_Wtime()'
p6361
S'1233'
p6362
tp6363
a(S'MPI_Wtime()'
p6364
S'1242'
p6365
tp6366
a(S'MPI_Wtime()'
p6367
S'1244'
p6368
tp6369
a(S'MPI_Wtime()'
p6370
S'1253'
p6371
tp6372
a(S'MPI_Wtime()'
p6373
S'1255'
p6374
tp6375
a(S'MPI_Wtime()'
p6376
S'1264'
p6377
tp6378
a(S'MPI_Wtime()'
p6379
S'1266'
p6380
tp6381
a(S'MPI_Wtime()'
p6382
S'1275'
p6383
tp6384
a(S'MPI_Wtime()'
p6385
S'1277'
p6386
tp6387
a(S'MPI_Wtime()'
p6388
S'1286'
p6389
tp6390
a(S'MPI_Wtime()'
p6391
S'1288'
p6392
tp6393
a(S'MPI_Wtime()'
p6394
S'1297'
p6395
tp6396
a(S'MPI_Wtime()'
p6397
S'1299'
p6398
tp6399
a(S'MPI_Wtime()'
p6400
S'1308'
p6401
tp6402
a(S'MPI_Wtime()'
p6403
S'1310'
p6404
tp6405
a(S'MPI_Wtime()'
p6406
S'1319'
p6407
tp6408
a(S'MPI_Wtime()'
p6409
S'1321'
p6410
tp6411
a(S'MPI_Wtime()'
p6412
S'1330'
p6413
tp6414
a(S'MPI_Wtime()'
p6415
S'1332'
p6416
tp6417
a(S'MPI_Wtime()'
p6418
S'1341'
p6419
tp6420
a(S'MPI_Wtime()'
p6421
S'1343'
p6422
tp6423
a(S'MPI_Wtime()'
p6424
S'1352'
p6425
tp6426
a(S'MPI_Wtime()'
p6427
S'1354'
p6428
tp6429
a(S'MPI_Wtime()'
p6430
S'1363'
p6431
tp6432
a(S'MPI_Wtime()'
p6433
S'1365'
p6434
tp6435
a(S'MPI_Wtime()'
p6436
S'1374'
p6437
tp6438
a(S'MPI_Wtime()'
p6439
S'1376'
p6440
tp6441
a(S'MPI_Wtime()'
p6442
S'1385'
p6443
tp6444
a(S'MPI_Wtime()'
p6445
S'1387'
p6446
tp6447
a(S'MPI_Wtime()'
p6448
S'1396'
p6449
tp6450
a(S'MPI_Wtime()'
p6451
S'1398'
p6452
tp6453
a(S'MPI_Wtime()'
p6454
S'1407'
p6455
tp6456
a(S'MPI_Wtime()'
p6457
S'1409'
p6458
tp6459
a(S'MPI_Wtime()'
p6460
S'1419'
p6461
tp6462
a(S'MPI_Wtime()'
p6463
S'1421'
p6464
tp6465
a(S'MPI_Wtime()'
p6466
S'1431'
p6467
tp6468
a(S'MPI_Wtime()'
p6469
S'1433'
p6470
tp6471
a(S'MPI_Wtime()'
p6472
S'1443'
p6473
tp6474
a(S'MPI_Wtime()'
p6475
S'1445'
p6476
tp6477
a(S'MPI_Wtime()'
p6478
S'1455'
p6479
tp6480
a(S'MPI_Wtime()'
p6481
S'1457'
p6482
tp6483
a(S'MPI_Wtime()'
p6484
S'1466'
p6485
tp6486
a(S'MPI_Wtime()'
p6487
S'1468'
p6488
tp6489
a(S'MPI_Wtime()'
p6490
S'1478'
p6491
tp6492
a(S'MPI_Wtime()'
p6493
S'1480'
p6494
tp6495
a(S'MPI_Wtime()'
p6496
S'1491'
p6497
tp6498
a(S'MPI_Wtime()'
p6499
S'1493'
p6500
tp6501
a(S'MPI_Wtime()'
p6502
S'1503'
p6503
tp6504
a(S'MPI_Wtime()'
p6505
S'1505'
p6506
tp6507
a(S'MPI_Wtime()'
p6508
S'1514'
p6509
tp6510
a(S'MPI_Wtime()'
p6511
S'1516'
p6512
tp6513
a(S'MPI_Wtime()'
p6514
S'1525'
p6515
tp6516
a(S'MPI_Wtime()'
p6517
S'1527'
p6518
tp6519
a(S'MPI_Wtime()'
p6520
S'1536'
p6521
tp6522
a(S'MPI_Wtime()'
p6523
S'1538'
p6524
tp6525
a(S'MPI_Wtime()'
p6526
S'1548'
p6527
tp6528
a(S'MPI_Wtime()'
p6529
S'1550'
p6530
tp6531
a(S'MPI_Wtime()'
p6532
S'1560'
p6533
tp6534
a(S'MPI_Wtime()'
p6535
S'1562'
p6536
tp6537
a(S'MPI_Wtime()'
p6538
S'1571'
p6539
tp6540
a(S'MPI_Wtime()'
p6541
S'1573'
p6542
tp6543
a(S'MPI_Wtime()'
p6544
S'1583'
p6545
tp6546
a(S'MPI_Wtime()'
p6547
S'1585'
p6548
tp6549
a(S'MPI_Wtime()'
p6550
S'1595'
p6551
tp6552
a(S'MPI_Wtime()'
p6553
S'1597'
p6554
tp6555
a(S'MPI_Wtime()'
p6556
S'1606'
p6557
tp6558
a(S'MPI_Wtime()'
p6559
S'1608'
p6560
tp6561
a(S'MPI_Wtime()'
p6562
S'1618'
p6563
tp6564
a(S'MPI_Wtime()'
p6565
S'1620'
p6566
tp6567
a(S'MPI_Wtime()'
p6568
S'1630'
p6569
tp6570
a(S'MPI_Wtime()'
p6571
S'1632'
p6572
tp6573
a(S'MPI_Wtime()'
p6574
S'1642'
p6575
tp6576
a(S'MPI_Wtime()'
p6577
S'1644'
p6578
tp6579
a(S'MPI_Wtime()'
p6580
S'1655'
p6581
tp6582
a(S'MPI_Wtime()'
p6583
S'1657'
p6584
tp6585
a(S'MPI_Wtime()'
p6586
S'1668'
p6587
tp6588
a(S'MPI_Wtime()'
p6589
S'1670'
p6590
tp6591
a(S'MPI_Wtime()'
p6592
S'1681'
p6593
tp6594
a(S'MPI_Wtime()'
p6595
S'1683'
p6596
tp6597
a(S'MPI_Wtime()'
p6598
S'1694'
p6599
tp6600
a(S'MPI_Wtime()'
p6601
S'1696'
p6602
tp6603
a(S'MPI_Wtime()'
p6604
S'1706'
p6605
tp6606
a(S'MPI_Wtime()'
p6607
S'1708'
p6608
tp6609
a(S'MPI_Wtime()'
p6610
S'1717'
p6611
tp6612
a(S'MPI_Wtime()'
p6613
S'1719'
p6614
tp6615
a(S'MPI_Wtime()'
p6616
S'1728'
p6617
tp6618
a(S'MPI_Wtime()'
p6619
S'1730'
p6620
tp6621
a(S'MPI_Wtime()'
p6622
S'1739'
p6623
tp6624
a(S'MPI_Wtime()'
p6625
S'1741'
p6626
tp6627
a(S'MPI_Wtime()'
p6628
S'1750'
p6629
tp6630
a(S'MPI_Wtime()'
p6631
S'1752'
p6632
tp6633
a(S'MPI_Wtime()'
p6634
S'1761'
p6635
tp6636
a(S'MPI_Wtime()'
p6637
S'1763'
p6638
tp6639
a(S'MPI_Wtime()'
p6640
S'1772'
p6641
tp6642
a(S'MPI_Wtime()'
p6643
S'1774'
p6644
tp6645
a(S'MPI_Wtime()'
p6646
S'1783'
p6647
tp6648
a(S'MPI_Wtime()'
p6649
S'1785'
p6650
tp6651
a(S'MPI_Wtime()'
p6652
S'1794'
p6653
tp6654
a(S'MPI_Wtime()'
p6655
S'1796'
p6656
tp6657
a(S'MPI_Wtime()'
p6658
S'1805'
p6659
tp6660
a(S'MPI_Wtime()'
p6661
S'1807'
p6662
tp6663
a(S'MPI_Wtime()'
p6664
S'1817'
p6665
tp6666
a(S'MPI_Wtime()'
p6667
S'1819'
p6668
tp6669
a(S'MPI_Wtime()'
p6670
S'1830'
p6671
tp6672
a(S'MPI_Wtime()'
p6673
S'1832'
p6674
tp6675
a(S'MPI_Wtime()'
p6676
S'1843'
p6677
tp6678
a(S'MPI_Wtime()'
p6679
S'1845'
p6680
tp6681
a(S'MPI_Wtime()'
p6682
S'1855'
p6683
tp6684
a(S'MPI_Wtime()'
p6685
S'1857'
p6686
tp6687
a(S'MPI_Wtime()'
p6688
S'1866'
p6689
tp6690
a(S'MPI_Wtime()'
p6691
S'1868'
p6692
tp6693
a(S'MPI_Wtime()'
p6694
S'1877'
p6695
tp6696
a(S'MPI_Wtime()'
p6697
S'1879'
p6698
tp6699
a(S'MPI_Wtime()'
p6700
S'1888'
p6701
tp6702
a(S'MPI_Wtime()'
p6703
S'1890'
p6704
tp6705
a(S'MPI_Wtime()'
p6706
S'1899'
p6707
tp6708
a(S'MPI_Wtime()'
p6709
S'1901'
p6710
tp6711
a(S'MPI_Wtime()'
p6712
S'1910'
p6713
tp6714
a(S'MPI_Wtime()'
p6715
S'1912'
p6716
tp6717
a(S'MPI_Wtime()'
p6718
S'1921'
p6719
tp6720
a(S'MPI_Wtime()'
p6721
S'1923'
p6722
tp6723
a(S'MPI_Wtime()'
p6724
S'1932'
p6725
tp6726
a(S'MPI_Wtime()'
p6727
S'1934'
p6728
tp6729
a(S'MPI_Wtime()'
p6730
S'1943'
p6731
tp6732
a(S'MPI_Wtime()'
p6733
S'1945'
p6734
tp6735
a(S'MPI_Wtime()'
p6736
S'1954'
p6737
tp6738
a(S'MPI_Wtime()'
p6739
S'1956'
p6740
tp6741
a(S'MPI_Wtime()'
p6742
S'1965'
p6743
tp6744
a(S'MPI_Wtime()'
p6745
S'1967'
p6746
tp6747
a(S'MPI_Wtime()'
p6748
S'1976'
p6749
tp6750
a(S'MPI_Wtime()'
p6751
S'1978'
p6752
tp6753
a(S'MPI_Wtime()'
p6754
S'1988'
p6755
tp6756
a(S'MPI_Wtime()'
p6757
S'1990'
p6758
tp6759
a(S'MPI_Wtime()'
p6760
S'2000'
p6761
tp6762
a(S'MPI_Wtime()'
p6763
S'2002'
p6764
tp6765
a(S'MPI_Wtime()'
p6766
S'2012'
p6767
tp6768
a(S'MPI_Wtime()'
p6769
S'2014'
p6770
tp6771
a(S'MPI_Wtime()'
p6772
S'2025'
p6773
tp6774
a(S'MPI_Wtime()'
p6775
S'2027'
p6776
tp6777
a(S'MPI_Wtime()'
p6778
S'2038'
p6779
tp6780
a(S'MPI_Wtime()'
p6781
S'2040'
p6782
tp6783
a(S'MPI_Wtime()'
p6784
S'2050'
p6785
tp6786
a(S'MPI_Wtime()'
p6787
S'2052'
p6788
tp6789
a(S'MPI_Wtime()'
p6790
S'2061'
p6791
tp6792
a(S'MPI_Wtime()'
p6793
S'2063'
p6794
tp6795
a(S'MPI_Wtime()'
p6796
S'2072'
p6797
tp6798
a(S'MPI_Wtime()'
p6799
S'2074'
p6800
tp6801
a(S'MPI_Wtime()'
p6802
S'2083'
p6803
tp6804
a(S'MPI_Wtime()'
p6805
S'2085'
p6806
tp6807
a(S'MPI_Wtime()'
p6808
S'2095'
p6809
tp6810
a(S'MPI_Wtime()'
p6811
S'2097'
p6812
tp6813
a(S'MPI_Wtime()'
p6814
S'2107'
p6815
tp6816
a(S'MPI_Wtime()'
p6817
S'2109'
p6818
tp6819
a(S'MPI_Wtime()'
p6820
S'2119'
p6821
tp6822
a(S'MPI_Wtime()'
p6823
S'2121'
p6824
tp6825
a(S'MPI_Wtime()'
p6826
S'2131'
p6827
tp6828
a(S'MPI_Wtime()'
p6829
S'2133'
p6830
tp6831
a(S'MPI_Wtime()'
p6832
S'2143'
p6833
tp6834
a(S'MPI_Wtime()'
p6835
S'2145'
p6836
tp6837
a(S'MPI_Wtime()'
p6838
S'2156'
p6839
tp6840
a(S'MPI_Wtime()'
p6841
S'2158'
p6842
tp6843
a(S'MPI_Wtime()'
p6844
S'2169'
p6845
tp6846
a(S'MPI_Wtime()'
p6847
S'2171'
p6848
tp6849
a(S'MPI_Wtime()'
p6850
S'2182'
p6851
tp6852
a(S'MPI_Wtime()'
p6853
S'2184'
p6854
tp6855
a(S'MPI_Wtime()'
p6856
S'2195'
p6857
tp6858
a(S'MPI_Wtime()'
p6859
S'2197'
p6860
tp6861
a(S'MPI_Wtime()'
p6862
S'2207'
p6863
tp6864
a(S'MPI_Wtime()'
p6865
S'2209'
p6866
tp6867
a(S'MPI_Wtime()'
p6868
S'2219'
p6869
tp6870
a(S'MPI_Wtime()'
p6871
S'2221'
p6872
tp6873
a(S'MPI_Wtime()'
p6874
S'2232'
p6875
tp6876
a(S'MPI_Wtime()'
p6877
S'2234'
p6878
tp6879
a(S'MPI_Wtime()'
p6880
S'2244'
p6881
tp6882
a(S'MPI_Wtime()'
p6883
S'2246'
p6884
tp6885
a(S'MPI_Wtime()'
p6886
S'2256'
p6887
tp6888
a(S'MPI_Wtime()'
p6889
S'2258'
p6890
tp6891
a(S'MPI_Wtime()'
p6892
S'2269'
p6893
tp6894
a(S'MPI_Wtime()'
p6895
S'2271'
p6896
tp6897
a(S'MPI_Wtime()'
p6898
S'2281'
p6899
tp6900
a(S'MPI_Wtime()'
p6901
S'2283'
p6902
tp6903
a(S'MPI_Wtime()'
p6904
S'2292'
p6905
tp6906
a(S'MPI_Wtime()'
p6907
S'2294'
p6908
tp6909
a(S'MPI_Wtime()'
p6910
S'2303'
p6911
tp6912
a(S'MPI_Wtime()'
p6913
S'2305'
p6914
tp6915
a(S'MPI_Wtime()'
p6916
S'2314'
p6917
tp6918
a(S'MPI_Wtime()'
p6919
S'2316'
p6920
tp6921
a(S'MPI_Wtime()'
p6922
S'2325'
p6923
tp6924
a(S'MPI_Wtime()'
p6925
S'2327'
p6926
tp6927
a(S'MPI_Wtime()'
p6928
S'2336'
p6929
tp6930
a(S'MPI_Wtime()'
p6931
S'2338'
p6932
tp6933
a(S'MPI_Wtime()'
p6934
S'2347'
p6935
tp6936
a(S'MPI_Wtime()'
p6937
S'2349'
p6938
tp6939
a(S'MPI_Wtime()'
p6940
S'2358'
p6941
tp6942
a(S'MPI_Wtime()'
p6943
S'2360'
p6944
tp6945
a(S'MPI_Wtime()'
p6946
S'2369'
p6947
tp6948
a(S'MPI_Wtime()'
p6949
S'2371'
p6950
tp6951
a(S'MPI_Wtime()'
p6952
S'2380'
p6953
tp6954
a(S'MPI_Wtime()'
p6955
S'2382'
p6956
tp6957
a(S'MPI_Wtime()'
p6958
S'2391'
p6959
tp6960
a(S'MPI_Wtime()'
p6961
S'2393'
p6962
tp6963
a(S'MPI_Wtime()'
p6964
S'2402'
p6965
tp6966
a(S'MPI_Wtime()'
p6967
S'2404'
p6968
tp6969
a(S'MPI_Wtime()'
p6970
S'2413'
p6971
tp6972
a(S'MPI_Wtime()'
p6973
S'2415'
p6974
tp6975
a(S'MPI_Wtime()'
p6976
S'2425'
p6977
tp6978
a(S'MPI_Wtime()'
p6979
S'2427'
p6980
tp6981
a(S'MPI_Wtime()'
p6982
S'2437'
p6983
tp6984
a(S'MPI_Wtime()'
p6985
S'2439'
p6986
tp6987
a(S'MPI_Wtime()'
p6988
S'2448'
p6989
tp6990
a(S'MPI_Wtime()'
p6991
S'2450'
p6992
tp6993
a(S'MPI_Wtime()'
p6994
S'2460'
p6995
tp6996
a(S'MPI_Wtime()'
p6997
S'2462'
p6998
tp6999
a(S'MPI_Wtime()'
p7000
S'2472'
p7001
tp7002
a(S'MPI_Wtime()'
p7003
S'2474'
p7004
tp7005
a(S'MPI_Wtime()'
p7006
S'2483'
p7007
tp7008
a(S'MPI_Wtime()'
p7009
S'2485'
p7010
tp7011
a(S'MPI_Wtime()'
p7012
S'2494'
p7013
tp7014
a(S'MPI_Wtime()'
p7015
S'2496'
p7016
tp7017
a(S'MPI_Wtime()'
p7018
S'2505'
p7019
tp7020
a(S'MPI_Wtime()'
p7021
S'2507'
p7022
tp7023
a(S'MPI_Wtime()'
p7024
S'2516'
p7025
tp7026
a(S'MPI_Wtime()'
p7027
S'2518'
p7028
tp7029
a(S'MPI_Wtime()'
p7030
S'2527'
p7031
tp7032
a(S'MPI_Wtime()'
p7033
S'2529'
p7034
tp7035
a(S'MPI_Wtime()'
p7036
S'2538'
p7037
tp7038
a(S'MPI_Wtime()'
p7039
S'2540'
p7040
tp7041
a(S'MPI_Wtime()'
p7042
S'2549'
p7043
tp7044
a(S'MPI_Wtime()'
p7045
S'2551'
p7046
tp7047
a(S'MPI_Wtime()'
p7048
S'2560'
p7049
tp7050
a(S'MPI_Wtime()'
p7051
S'2562'
p7052
tp7053
a(S'MPI_Wtime()'
p7054
S'2571'
p7055
tp7056
a(S'MPI_Wtime()'
p7057
S'2573'
p7058
tp7059
a(S'MPI_Wtime()'
p7060
S'2582'
p7061
tp7062
a(S'MPI_Wtime()'
p7063
S'2584'
p7064
tp7065
a(S'MPI_Wtime()'
p7066
S'2593'
p7067
tp7068
a(S'MPI_Wtime()'
p7069
S'2595'
p7070
tp7071
a(S'MPI_Wtime()'
p7072
S'2604'
p7073
tp7074
a(S'MPI_Wtime()'
p7075
S'2606'
p7076
tp7077
a(S'MPI_Wtime()'
p7078
S'2615'
p7079
tp7080
a(S'MPI_Wtime()'
p7081
S'2617'
p7082
tp7083
a(S'MPI_Wtime()'
p7084
S'2626'
p7085
tp7086
a(S'MPI_Wtime()'
p7087
S'2628'
p7088
tp7089
a(S'MPI_Wtime()'
p7090
S'2637'
p7091
tp7092
a(S'MPI_Wtime()'
p7093
S'2639'
p7094
tp7095
a(S'MPI_Wtime()'
p7096
S'2648'
p7097
tp7098
a(S'MPI_Wtime()'
p7099
S'2650'
p7100
tp7101
a(S'MPI_Wtime()'
p7102
S'2659'
p7103
tp7104
a(S'MPI_Wtime()'
p7105
S'2661'
p7106
tp7107
a(S'MPI_Wtime()'
p7108
S'2670'
p7109
tp7110
a(S'MPI_Wtime()'
p7111
S'2672'
p7112
tp7113
a(S'MPI_Wtime()'
p7114
S'2681'
p7115
tp7116
a(S'MPI_Wtime()'
p7117
S'2683'
p7118
tp7119
a(S'MPI_Wtime()'
p7120
S'2692'
p7121
tp7122
a(S'MPI_Wtime()'
p7123
S'2694'
p7124
tp7125
a(S'MPI_Wtime()'
p7126
S'2703'
p7127
tp7128
a(S'MPI_Wtime()'
p7129
S'2705'
p7130
tp7131
a(S'MPI_Wtime()'
p7132
S'2714'
p7133
tp7134
a(S'MPI_Wtime()'
p7135
S'2716'
p7136
tp7137
a(S'MPI_Wtime()'
p7138
S'2725'
p7139
tp7140
a(S'MPI_Wtime()'
p7141
S'2727'
p7142
tp7143
a(S'MPI_Wtime()'
p7144
S'2736'
p7145
tp7146
a(S'MPI_Wtime()'
p7147
S'2738'
p7148
tp7149
a(S'MPI_Wtime()'
p7150
S'2747'
p7151
tp7152
a(S'MPI_Wtime()'
p7153
S'2749'
p7154
tp7155
a(S'MPI_Wtime()'
p7156
S'2758'
p7157
tp7158
a(S'MPI_Wtime()'
p7159
S'2760'
p7160
tp7161
a(S'MPI_Wtime()'
p7162
S'2769'
p7163
tp7164
a(S'MPI_Wtime()'
p7165
S'2771'
p7166
tp7167
a(S'MPI_Wtime()'
p7168
S'2780'
p7169
tp7170
a(S'MPI_Wtime()'
p7171
S'2782'
p7172
tp7173
a(S'MPI_Wtime()'
p7174
S'2791'
p7175
tp7176
a(S'MPI_Wtime()'
p7177
S'2793'
p7178
tp7179
a(S'MPI_Wtime()'
p7180
S'2802'
p7181
tp7182
a(S'MPI_Wtime()'
p7183
S'2804'
p7184
tp7185
a(S'MPI_Wtime()'
p7186
S'2814'
p7187
tp7188
a(S'MPI_Wtime()'
p7189
S'2816'
p7190
tp7191
a(S'MPI_Wtime()'
p7192
S'2826'
p7193
tp7194
a(S'MPI_Wtime()'
p7195
S'2828'
p7196
tp7197
a(S'MPI_Wtime()'
p7198
S'2837'
p7199
tp7200
a(S'MPI_Wtime()'
p7201
S'2839'
p7202
tp7203
a(S'MPI_Wtime()'
p7204
S'2848'
p7205
tp7206
a(S'MPI_Wtime()'
p7207
S'2850'
p7208
tp7209
a(S'MPI_Wtime()'
p7210
S'2859'
p7211
tp7212
a(S'MPI_Wtime()'
p7213
S'2861'
p7214
tp7215
a(S'MPI_Wtime()'
p7216
S'2870'
p7217
tp7218
a(S'MPI_Wtime()'
p7219
S'2872'
p7220
tp7221
a(S'MPI_Wtime()'
p7222
S'2881'
p7223
tp7224
a(S'MPI_Wtime()'
p7225
S'2883'
p7226
tp7227
a(S'MPI_Wtime()'
p7228
S'2892'
p7229
tp7230
a(S'MPI_Wtime()'
p7231
S'2894'
p7232
tp7233
a(S'MPI_Wtime()'
p7234
S'2904'
p7235
tp7236
a(S'MPI_Wtime()'
p7237
S'2906'
p7238
tp7239
a(S'MPI_Wtime()'
p7240
S'2917'
p7241
tp7242
a(S'MPI_Wtime()'
p7243
S'2919'
p7244
tp7245
a(S'MPI_Wtime()'
p7246
S'2929'
p7247
tp7248
a(S'MPI_Wtime()'
p7249
S'2931'
p7250
tp7251
a(S'MPI_Wtime()'
p7252
S'2941'
p7253
tp7254
a(S'MPI_Wtime()'
p7255
S'2943'
p7256
tp7257
a(S'MPI_Wtime()'
p7258
S'2954'
p7259
tp7260
a(S'MPI_Wtime()'
p7261
S'2956'
p7262
tp7263
a(S'MPI_Wtime()'
p7264
S'2966'
p7265
tp7266
a(S'MPI_Wtime()'
p7267
S'2968'
p7268
tp7269
a(S'MPI_Wtime()'
p7270
S'2977'
p7271
tp7272
a(S'MPI_Wtime()'
p7273
S'2979'
p7274
tp7275
a(S'MPI_Wtime()'
p7276
S'2988'
p7277
tp7278
a(S'MPI_Wtime()'
p7279
S'2990'
p7280
tp7281
a(S'MPI_Wtime()'
p7282
S'2999'
p7283
tp7284
a(S'MPI_Wtime()'
p7285
S'3001'
p7286
tp7287
a(S'MPI_Wtime()'
p7288
S'3010'
p7289
tp7290
a(S'MPI_Wtime()'
p7291
S'3012'
p7292
tp7293
a(S'MPI_Wtime()'
p7294
S'3021'
p7295
tp7296
a(S'MPI_Wtime()'
p7297
S'3023'
p7298
tp7299
a(S'MPI_Wtime()'
p7300
S'3032'
p7301
tp7302
a(S'MPI_Wtime()'
p7303
S'3034'
p7304
tp7305
a(S'MPI_Wtime()'
p7306
S'3043'
p7307
tp7308
a(S'MPI_Wtime()'
p7309
S'3045'
p7310
tp7311
a(S'MPI_Wtime()'
p7312
S'3054'
p7313
tp7314
a(S'MPI_Wtime()'
p7315
S'3056'
p7316
tp7317
a(S'MPI_Wtime()'
p7318
S'3065'
p7319
tp7320
a(S'MPI_Wtime()'
p7321
S'3067'
p7322
tp7323
a(S'MPI_Wtime()'
p7324
S'3076'
p7325
tp7326
a(S'MPI_Wtime()'
p7327
S'3078'
p7328
tp7329
a(S'MPI_Wtime()'
p7330
S'3088'
p7331
tp7332
a(S'MPI_Wtime()'
p7333
S'3090'
p7334
tp7335
a(S'MPI_Wtime()'
p7336
S'3101'
p7337
tp7338
a(S'MPI_Wtime()'
p7339
S'3103'
p7340
tp7341
a(S'MPI_Wtime()'
p7342
S'3113'
p7343
tp7344
a(S'MPI_Wtime()'
p7345
S'3115'
p7346
tp7347
a(S'MPI_Wtime()'
p7348
S'3125'
p7349
tp7350
a(S'MPI_Wtime()'
p7351
S'3127'
p7352
tp7353
a(S'MPI_Wtime()'
p7354
S'3138'
p7355
tp7356
a(S'MPI_Wtime()'
p7357
S'3140'
p7358
tp7359
a(S'MPI_Wtime()'
p7360
S'3150'
p7361
tp7362
a(S'MPI_Wtime()'
p7363
S'3152'
p7364
tp7365
a(S'MPI_Wtime()'
p7366
S'3161'
p7367
tp7368
a(S'MPI_Wtime()'
p7369
S'3163'
p7370
tp7371
a(S'MPI_Wtime()'
p7372
S'3172'
p7373
tp7374
a(S'MPI_Wtime()'
p7375
S'3174'
p7376
tp7377
a(S'MPI_Wtime()'
p7378
S'3184'
p7379
tp7380
a(S'MPI_Wtime()'
p7381
S'3186'
p7382
tp7383
a(S'MPI_Wtime()'
p7384
S'3197'
p7385
tp7386
a(S'MPI_Wtime()'
p7387
S'3199'
p7388
tp7389
a(S'MPI_Wtime()'
p7390
S'3210'
p7391
tp7392
a(S'MPI_Wtime()'
p7393
S'3212'
p7394
tp7395
a(S'MPI_Wtime()'
p7396
S'3223'
p7397
tp7398
a(S'MPI_Wtime()'
p7399
S'3225'
p7400
tp7401
a(S'MPI_Wtime()'
p7402
S'3236'
p7403
tp7404
a(S'MPI_Wtime()'
p7405
S'3238'
p7406
tp7407
a(S'MPI_Wtime()'
p7408
S'3249'
p7409
tp7410
a(S'MPI_Wtime()'
p7411
S'3251'
p7412
tp7413
a(S'MPI_Wtime()'
p7414
S'3262'
p7415
tp7416
a(S'MPI_Wtime()'
p7417
S'3264'
p7418
tp7419
a(S'MPI_Wtime()'
p7420
S'3275'
p7421
tp7422
a(S'MPI_Wtime()'
p7423
S'3277'
p7424
tp7425
a(S'MPI_Wtime()'
p7426
S'3288'
p7427
tp7428
a(S'MPI_Wtime()'
p7429
S'3290'
p7430
tp7431
a(S'MPI_Wtime()'
p7432
S'3300'
p7433
tp7434
a(S'MPI_Wtime()'
p7435
S'3302'
p7436
tp7437
a(S'MPI_Wtime()'
p7438
S'3312'
p7439
tp7440
a(S'MPI_Wtime()'
p7441
S'3314'
p7442
tp7443
a(S'MPI_Wtime()'
p7444
S'3325'
p7445
tp7446
a(S'MPI_Wtime()'
p7447
S'3327'
p7448
tp7449
a(S'MPI_Wtime()'
p7450
S'3338'
p7451
tp7452
a(S'MPI_Wtime()'
p7453
S'3340'
p7454
tp7455
a(S'MPI_Wtime()'
p7456
S'3351'
p7457
tp7458
a(S'MPI_Wtime()'
p7459
S'3353'
p7460
tp7461
a(S'MPI_Wtime()'
p7462
S'3364'
p7463
tp7464
a(S'MPI_Wtime()'
p7465
S'3366'
p7466
tp7467
a(S'MPI_Wtime()'
p7468
S'3376'
p7469
tp7470
a(S'MPI_Wtime()'
p7471
S'3378'
p7472
tp7473
a(S'MPI_Wtime()'
p7474
S'3387'
p7475
tp7476
a(S'MPI_Wtime()'
p7477
S'3389'
p7478
tp7479
a(S'MPI_Wtime()'
p7480
S'3398'
p7481
tp7482
a(S'MPI_Wtime()'
p7483
S'3400'
p7484
tp7485
a(S'MPI_Comm_rank()'
p7486
S'3408'
p7487
tp7488
a(S'MPI_Comm_size()'
p7489
S'3409'
p7490
tp7491
a(S'MPI_Comm_rank()'
p7492
S'3416'
p7493
tp7494
a(S'MPI_Comm_size()'
p7495
S'3417'
p7496
tp7497
a(S'MPI_Reduce()'
p7498
S'3429'
p7499
tp7500
a(S'MPI_Reduce()'
p7501
S'3434'
p7502
tp7503
a(S'MPI_Reduce()'
p7504
S'3439'
p7505
tp7506
a(S'MPI_Reduce()'
p7507
S'3444'
p7508
tp7509
a(S'MPI_Reduce()'
p7510
S'3449'
p7511
tp7512
a(S'MPI_Reduce()'
p7513
S'3454'
p7514
tp7515
a(S'MPI_Reduce()'
p7516
S'3459'
p7517
tp7518
a(S'MPI_Reduce()'
p7519
S'3464'
p7520
tp7521
a(S'MPI_Reduce()'
p7522
S'3469'
p7523
tp7524
a(S'MPI_Reduce()'
p7525
S'3474'
p7526
tp7527
a(S'MPI_Reduce()'
p7528
S'3479'
p7529
tp7530
a(S'MPI_Reduce()'
p7531
S'3484'
p7532
tp7533
a(S'MPI_Reduce()'
p7534
S'3489'
p7535
tp7536
a(S'MPI_Reduce()'
p7537
S'3494'
p7538
tp7539
a(S'MPI_Reduce()'
p7540
S'3499'
p7541
tp7542
a(S'MPI_Reduce()'
p7543
S'3504'
p7544
tp7545
a(S'MPI_Reduce()'
p7546
S'3509'
p7547
tp7548
a(S'MPI_Reduce()'
p7549
S'3514'
p7550
tp7551
a(S'MPI_Reduce()'
p7552
S'3519'
p7553
tp7554
a(S'MPI_Reduce()'
p7555
S'3524'
p7556
tp7557
a(S'MPI_Reduce()'
p7558
S'3529'
p7559
tp7560
a(S'MPI_Reduce()'
p7561
S'3534'
p7562
tp7563
a(S'MPI_Reduce()'
p7564
S'3539'
p7565
tp7566
a(S'MPI_Reduce()'
p7567
S'3544'
p7568
tp7569
a(S'MPI_Reduce()'
p7570
S'3549'
p7571
tp7572
a(S'MPI_Reduce()'
p7573
S'3554'
p7574
tp7575
a(S'MPI_Reduce()'
p7576
S'3559'
p7577
tp7578
a(S'MPI_Reduce()'
p7579
S'3564'
p7580
tp7581
a(S'MPI_Reduce()'
p7582
S'3569'
p7583
tp7584
a(S'MPI_Reduce()'
p7585
S'3574'
p7586
tp7587
a(S'MPI_Reduce()'
p7588
S'3579'
p7589
tp7590
a(S'MPI_Reduce()'
p7591
S'3584'
p7592
tp7593
a(S'MPI_Reduce()'
p7594
S'3589'
p7595
tp7596
a(S'MPI_Reduce()'
p7597
S'3594'
p7598
tp7599
a(S'MPI_Reduce()'
p7600
S'3599'
p7601
tp7602
a(S'MPI_Reduce()'
p7603
S'3604'
p7604
tp7605
a(S'MPI_Reduce()'
p7606
S'3609'
p7607
tp7608
a(S'MPI_Reduce()'
p7609
S'3614'
p7610
tp7611
a(S'MPI_Reduce()'
p7612
S'3619'
p7613
tp7614
a(S'MPI_Reduce()'
p7615
S'3624'
p7616
tp7617
a(S'MPI_Reduce()'
p7618
S'3629'
p7619
tp7620
a(S'MPI_Reduce()'
p7621
S'3634'
p7622
tp7623
a(S'MPI_Reduce()'
p7624
S'3639'
p7625
tp7626
a(S'MPI_Reduce()'
p7627
S'3644'
p7628
tp7629
a(S'MPI_Reduce()'
p7630
S'3649'
p7631
tp7632
a(S'MPI_Reduce()'
p7633
S'3654'
p7634
tp7635
a(S'MPI_Reduce()'
p7636
S'3659'
p7637
tp7638
a(S'MPI_Reduce()'
p7639
S'3664'
p7640
tp7641
a(S'MPI_Reduce()'
p7642
S'3669'
p7643
tp7644
a(S'MPI_Reduce()'
p7645
S'3674'
p7646
tp7647
a(S'MPI_Reduce()'
p7648
S'3679'
p7649
tp7650
a(S'MPI_Reduce()'
p7651
S'3684'
p7652
tp7653
a(S'MPI_Reduce()'
p7654
S'3689'
p7655
tp7656
a(S'MPI_Reduce()'
p7657
S'3694'
p7658
tp7659
a(S'MPI_Reduce()'
p7660
S'3699'
p7661
tp7662
a(S'MPI_Reduce()'
p7663
S'3704'
p7664
tp7665
a(S'MPI_Reduce()'
p7666
S'3709'
p7667
tp7668
a(S'MPI_Reduce()'
p7669
S'3714'
p7670
tp7671
a(S'MPI_Reduce()'
p7672
S'3719'
p7673
tp7674
a(S'MPI_Reduce()'
p7675
S'3724'
p7676
tp7677
a(S'MPI_Reduce()'
p7678
S'3729'
p7679
tp7680
a(S'MPI_Reduce()'
p7681
S'3734'
p7682
tp7683
a(S'MPI_Reduce()'
p7684
S'3739'
p7685
tp7686
a(S'MPI_Reduce()'
p7687
S'3744'
p7688
tp7689
a(S'MPI_Reduce()'
p7690
S'3749'
p7691
tp7692
a(S'MPI_Reduce()'
p7693
S'3754'
p7694
tp7695
a(S'MPI_Reduce()'
p7696
S'3759'
p7697
tp7698
a(S'MPI_Reduce()'
p7699
S'3764'
p7700
tp7701
a(S'MPI_Reduce()'
p7702
S'3769'
p7703
tp7704
a(S'MPI_Reduce()'
p7705
S'3774'
p7706
tp7707
a(S'MPI_Reduce()'
p7708
S'3779'
p7709
tp7710
a(S'MPI_Reduce()'
p7711
S'3784'
p7712
tp7713
a(S'MPI_Reduce()'
p7714
S'3789'
p7715
tp7716
a(S'MPI_Reduce()'
p7717
S'3794'
p7718
tp7719
a(S'MPI_Reduce()'
p7720
S'3799'
p7721
tp7722
a(S'MPI_Reduce()'
p7723
S'3804'
p7724
tp7725
a(S'MPI_Reduce()'
p7726
S'3809'
p7727
tp7728
a(S'MPI_Reduce()'
p7729
S'3814'
p7730
tp7731
a(S'MPI_Reduce()'
p7732
S'3819'
p7733
tp7734
a(S'MPI_Reduce()'
p7735
S'3824'
p7736
tp7737
a(S'MPI_Reduce()'
p7738
S'3829'
p7739
tp7740
a(S'MPI_Reduce()'
p7741
S'3834'
p7742
tp7743
a(S'MPI_Reduce()'
p7744
S'3839'
p7745
tp7746
a(S'MPI_Reduce()'
p7747
S'3844'
p7748
tp7749
a(S'MPI_Reduce()'
p7750
S'3849'
p7751
tp7752
a(S'MPI_Reduce()'
p7753
S'3854'
p7754
tp7755
a(S'MPI_Reduce()'
p7756
S'3859'
p7757
tp7758
a(S'MPI_Reduce()'
p7759
S'3864'
p7760
tp7761
a(S'MPI_Reduce()'
p7762
S'3869'
p7763
tp7764
a(S'MPI_Reduce()'
p7765
S'3874'
p7766
tp7767
a(S'MPI_Reduce()'
p7768
S'3879'
p7769
tp7770
a(S'MPI_Reduce()'
p7771
S'3884'
p7772
tp7773
a(S'MPI_Reduce()'
p7774
S'3889'
p7775
tp7776
a(S'MPI_Reduce()'
p7777
S'3894'
p7778
tp7779
a(S'MPI_Reduce()'
p7780
S'3899'
p7781
tp7782
a(S'MPI_Reduce()'
p7783
S'3904'
p7784
tp7785
a(S'MPI_Reduce()'
p7786
S'3909'
p7787
tp7788
a(S'MPI_Reduce()'
p7789
S'3914'
p7790
tp7791
a(S'MPI_Reduce()'
p7792
S'3919'
p7793
tp7794
a(S'MPI_Reduce()'
p7795
S'3924'
p7796
tp7797
a(S'MPI_Reduce()'
p7798
S'3929'
p7799
tp7800
a(S'MPI_Reduce()'
p7801
S'3934'
p7802
tp7803
a(S'MPI_Reduce()'
p7804
S'3939'
p7805
tp7806
a(S'MPI_Reduce()'
p7807
S'3944'
p7808
tp7809
a(S'MPI_Reduce()'
p7810
S'3949'
p7811
tp7812
a(S'MPI_Reduce()'
p7813
S'3954'
p7814
tp7815
a(S'MPI_Reduce()'
p7816
S'3959'
p7817
tp7818
a(S'MPI_Reduce()'
p7819
S'3964'
p7820
tp7821
a(S'MPI_Reduce()'
p7822
S'3969'
p7823
tp7824
a(S'MPI_Reduce()'
p7825
S'3974'
p7826
tp7827
a(S'MPI_Reduce()'
p7828
S'3979'
p7829
tp7830
a(S'MPI_Reduce()'
p7831
S'3984'
p7832
tp7833
a(S'MPI_Reduce()'
p7834
S'3989'
p7835
tp7836
a(S'MPI_Reduce()'
p7837
S'3994'
p7838
tp7839
a(S'MPI_Reduce()'
p7840
S'3999'
p7841
tp7842
a(S'MPI_Reduce()'
p7843
S'4004'
p7844
tp7845
a(S'MPI_Reduce()'
p7846
S'4009'
p7847
tp7848
a(S'MPI_Reduce()'
p7849
S'4014'
p7850
tp7851
a(S'MPI_Reduce()'
p7852
S'4019'
p7853
tp7854
a(S'MPI_Reduce()'
p7855
S'4024'
p7856
tp7857
a(S'MPI_Reduce()'
p7858
S'4029'
p7859
tp7860
a(S'MPI_Reduce()'
p7861
S'4034'
p7862
tp7863
a(S'MPI_Reduce()'
p7864
S'4039'
p7865
tp7866
a(S'MPI_Reduce()'
p7867
S'4044'
p7868
tp7869
a(S'MPI_Reduce()'
p7870
S'4049'
p7871
tp7872
a(S'MPI_Reduce()'
p7873
S'4054'
p7874
tp7875
a(S'MPI_Reduce()'
p7876
S'4059'
p7877
tp7878
a(S'MPI_Reduce()'
p7879
S'4064'
p7880
tp7881
a(S'MPI_Reduce()'
p7882
S'4069'
p7883
tp7884
a(S'MPI_Reduce()'
p7885
S'4074'
p7886
tp7887
a(S'MPI_Reduce()'
p7888
S'4079'
p7889
tp7890
a(S'MPI_Reduce()'
p7891
S'4084'
p7892
tp7893
a(S'MPI_Reduce()'
p7894
S'4089'
p7895
tp7896
a(S'MPI_Reduce()'
p7897
S'4094'
p7898
tp7899
a(S'MPI_Reduce()'
p7900
S'4099'
p7901
tp7902
a(S'MPI_Reduce()'
p7903
S'4104'
p7904
tp7905
a(S'MPI_Reduce()'
p7906
S'4109'
p7907
tp7908
a(S'MPI_Reduce()'
p7909
S'4114'
p7910
tp7911
a(S'MPI_Reduce()'
p7912
S'4119'
p7913
tp7914
a(S'MPI_Reduce()'
p7915
S'4124'
p7916
tp7917
a(S'MPI_Reduce()'
p7918
S'4129'
p7919
tp7920
a(S'MPI_Reduce()'
p7921
S'4134'
p7922
tp7923
a(S'MPI_Reduce()'
p7924
S'4139'
p7925
tp7926
a(S'MPI_Reduce()'
p7927
S'4144'
p7928
tp7929
a(S'MPI_Reduce()'
p7930
S'4149'
p7931
tp7932
a(S'MPI_Reduce()'
p7933
S'4154'
p7934
tp7935
a(S'MPI_Reduce()'
p7936
S'4159'
p7937
tp7938
a(S'MPI_Reduce()'
p7939
S'4164'
p7940
tp7941
a(S'MPI_Reduce()'
p7942
S'4169'
p7943
tp7944
a(S'MPI_Reduce()'
p7945
S'4174'
p7946
tp7947
a(S'MPI_Reduce()'
p7948
S'4179'
p7949
tp7950
a(S'MPI_Reduce()'
p7951
S'4184'
p7952
tp7953
a(S'MPI_Reduce()'
p7954
S'4189'
p7955
tp7956
a(S'MPI_Reduce()'
p7957
S'4194'
p7958
tp7959
a(S'MPI_Reduce()'
p7960
S'4199'
p7961
tp7962
a(S'MPI_Reduce()'
p7963
S'4204'
p7964
tp7965
a(S'MPI_Reduce()'
p7966
S'4209'
p7967
tp7968
a(S'MPI_Reduce()'
p7969
S'4214'
p7970
tp7971
a(S'MPI_Reduce()'
p7972
S'4219'
p7973
tp7974
a(S'MPI_Reduce()'
p7975
S'4224'
p7976
tp7977
a(S'MPI_Reduce()'
p7978
S'4229'
p7979
tp7980
a(S'MPI_Reduce()'
p7981
S'4234'
p7982
tp7983
a(S'MPI_Reduce()'
p7984
S'4239'
p7985
tp7986
a(S'MPI_Reduce()'
p7987
S'4244'
p7988
tp7989
a(S'MPI_Reduce()'
p7990
S'4249'
p7991
tp7992
a(S'MPI_Reduce()'
p7993
S'4254'
p7994
tp7995
a(S'MPI_Reduce()'
p7996
S'4259'
p7997
tp7998
a(S'MPI_Reduce()'
p7999
S'4264'
p8000
tp8001
a(S'MPI_Reduce()'
p8002
S'4269'
p8003
tp8004
a(S'MPI_Reduce()'
p8005
S'4274'
p8006
tp8007
a(S'MPI_Reduce()'
p8008
S'4279'
p8009
tp8010
a(S'MPI_Reduce()'
p8011
S'4284'
p8012
tp8013
a(S'MPI_Reduce()'
p8014
S'4289'
p8015
tp8016
a(S'MPI_Reduce()'
p8017
S'4294'
p8018
tp8019
a(S'MPI_Reduce()'
p8020
S'4299'
p8021
tp8022
a(S'MPI_Reduce()'
p8023
S'4304'
p8024
tp8025
a(S'MPI_Reduce()'
p8026
S'4309'
p8027
tp8028
a(S'MPI_Reduce()'
p8029
S'4314'
p8030
tp8031
a(S'MPI_Reduce()'
p8032
S'4319'
p8033
tp8034
a(S'MPI_Reduce()'
p8035
S'4324'
p8036
tp8037
a(S'MPI_Reduce()'
p8038
S'4329'
p8039
tp8040
a(S'MPI_Reduce()'
p8041
S'4334'
p8042
tp8043
a(S'MPI_Reduce()'
p8044
S'4339'
p8045
tp8046
a(S'MPI_Reduce()'
p8047
S'4344'
p8048
tp8049
a(S'MPI_Reduce()'
p8050
S'4349'
p8051
tp8052
a(S'MPI_Reduce()'
p8053
S'4354'
p8054
tp8055
a(S'MPI_Reduce()'
p8056
S'4359'
p8057
tp8058
a(S'MPI_Reduce()'
p8059
S'4364'
p8060
tp8061
a(S'MPI_Reduce()'
p8062
S'4369'
p8063
tp8064
a(S'MPI_Reduce()'
p8065
S'4374'
p8066
tp8067
a(S'MPI_Reduce()'
p8068
S'4379'
p8069
tp8070
a(S'MPI_Reduce()'
p8071
S'4384'
p8072
tp8073
a(S'MPI_Reduce()'
p8074
S'4389'
p8075
tp8076
a(S'MPI_Reduce()'
p8077
S'4394'
p8078
tp8079
a(S'MPI_Reduce()'
p8080
S'4399'
p8081
tp8082
a(S'MPI_Reduce()'
p8083
S'4404'
p8084
tp8085
a(S'MPI_Reduce()'
p8086
S'4409'
p8087
tp8088
a(S'MPI_Reduce()'
p8089
S'4414'
p8090
tp8091
a(S'MPI_Reduce()'
p8092
S'4419'
p8093
tp8094
a(S'MPI_Reduce()'
p8095
S'4424'
p8096
tp8097
a(S'MPI_Reduce()'
p8098
S'4429'
p8099
tp8100
a(S'MPI_Reduce()'
p8101
S'4434'
p8102
tp8103
a(S'MPI_Reduce()'
p8104
S'4439'
p8105
tp8106
a(S'MPI_Reduce()'
p8107
S'4444'
p8108
tp8109
a(S'MPI_Reduce()'
p8110
S'4449'
p8111
tp8112
a(S'MPI_Reduce()'
p8113
S'4454'
p8114
tp8115
a(S'MPI_Reduce()'
p8116
S'4459'
p8117
tp8118
a(S'MPI_Reduce()'
p8119
S'4464'
p8120
tp8121
a(S'MPI_Reduce()'
p8122
S'4469'
p8123
tp8124
a(S'MPI_Reduce()'
p8125
S'4474'
p8126
tp8127
a(S'MPI_Reduce()'
p8128
S'4479'
p8129
tp8130
a(S'MPI_Reduce()'
p8131
S'4484'
p8132
tp8133
a(S'MPI_Reduce()'
p8134
S'4489'
p8135
tp8136
a(S'MPI_Reduce()'
p8137
S'4494'
p8138
tp8139
a(S'MPI_Reduce()'
p8140
S'4499'
p8141
tp8142
a(S'MPI_Reduce()'
p8143
S'4504'
p8144
tp8145
a(S'MPI_Reduce()'
p8146
S'4509'
p8147
tp8148
a(S'MPI_Reduce()'
p8149
S'4514'
p8150
tp8151
a(S'MPI_Reduce()'
p8152
S'4519'
p8153
tp8154
a(S'MPI_Reduce()'
p8155
S'4524'
p8156
tp8157
a(S'MPI_Reduce()'
p8158
S'4529'
p8159
tp8160
a(S'MPI_Reduce()'
p8161
S'4534'
p8162
tp8163
a(S'MPI_Reduce()'
p8164
S'4539'
p8165
tp8166
a(S'MPI_Reduce()'
p8167
S'4544'
p8168
tp8169
a(S'MPI_Reduce()'
p8170
S'4549'
p8171
tp8172
a(S'MPI_Reduce()'
p8173
S'4554'
p8174
tp8175
a(S'MPI_Reduce()'
p8176
S'4559'
p8177
tp8178
a(S'MPI_Reduce()'
p8179
S'4564'
p8180
tp8181
a(S'MPI_Reduce()'
p8182
S'4569'
p8183
tp8184
a(S'MPI_Reduce()'
p8185
S'4574'
p8186
tp8187
a(S'MPI_Reduce()'
p8188
S'4579'
p8189
tp8190
a(S'MPI_Reduce()'
p8191
S'4584'
p8192
tp8193
a(S'MPI_Reduce()'
p8194
S'4589'
p8195
tp8196
a(S'MPI_Reduce()'
p8197
S'4594'
p8198
tp8199
a(S'MPI_Reduce()'
p8200
S'4599'
p8201
tp8202
a(S'MPI_Reduce()'
p8203
S'4604'
p8204
tp8205
a(S'MPI_Reduce()'
p8206
S'4609'
p8207
tp8208
a(S'MPI_Reduce()'
p8209
S'4614'
p8210
tp8211
a(S'MPI_Reduce()'
p8212
S'4619'
p8213
tp8214
a(S'MPI_Reduce()'
p8215
S'4624'
p8216
tp8217
a(S'MPI_Reduce()'
p8218
S'4629'
p8219
tp8220
a(S'MPI_Reduce()'
p8221
S'4634'
p8222
tp8223
a(S'MPI_Reduce()'
p8224
S'4639'
p8225
tp8226
a(S'MPI_Reduce()'
p8227
S'4644'
p8228
tp8229
a(S'MPI_Reduce()'
p8230
S'4649'
p8231
tp8232
a(S'MPI_Reduce()'
p8233
S'4654'
p8234
tp8235
a(S'MPI_Reduce()'
p8236
S'4659'
p8237
tp8238
a(S'MPI_Reduce()'
p8239
S'4664'
p8240
tp8241
a(S'MPI_Reduce()'
p8242
S'4669'
p8243
tp8244
a(S'MPI_Reduce()'
p8245
S'4674'
p8246
tp8247
a(S'MPI_Reduce()'
p8248
S'4679'
p8249
tp8250
asS'NWChem-Json/src/tools/ga-5-4/armci/src-gemini/armci_portals.c'
p8251
(lp8252
(S'MPI_Comm_size()'
p8253
S'502'
p8254
tp8255
a(S'MPI_Comm_rank()'
p8256
S'503'
p8257
tp8258
a(S'MPI_Barrier()'
p8259
S'512'
p8260
tp8261
a(S'MPI_Barrier()'
p8262
S'519'
p8263
tp8264
a(S'MPI_Barrier()'
p8265
S'537'
p8266
tp8267
a(S'MPI_Barrier()'
p8268
S'539'
p8269
tp8270
asS'NWChem-Json/src/tools/ga-5-4/global/testing/unit-tests/ga_gather.c'
p8271
(lp8272
(S'MPI_Init()'
p8273
S'26'
p8274
tp8275
a(S'MPI_Comm_rank()'
p8276
S'30'
p8277
tp8278
a(S'MPI_Comm_size()'
p8279
S'31'
p8280
tp8281
a(S'MPI_Finalize()'
p8282
S'85'
p8283
tp8284
asS'NWChem-Json/src/tools/ga-5-4/armci/src-portals/fence.c'
p8285
(lp8286
(S'MPI_Barrier()'
p8287
S'84'
p8288
tp8289
asS'NWChem-Json/src/tools/ga-5-4/armci/src/devices/mpi-spawn/mpi2_client.c'
p8290
(lp8291
(S'MPI_Check()'
p8292
S'135'
p8293
tp8294
a(S'MPI_Send()'
p8295
S'136'
p8296
tp8297
a(S'MPI_Check()'
p8298
S'142'
p8299
tp8300
a(S'MPI_Recv()'
p8301
S'143'
p8302
tp8303
a(S'MPI_Check()'
p8304
S'170'
p8305
tp8306
a(S'MPI_Check()'
p8307
S'173'
p8308
tp8309
a(S'MPI_Check()'
p8310
S'177'
p8311
tp8312
a(S'MPI_Check()'
p8313
S'182'
p8314
tp8315
a(S'MPI_Check()'
p8316
S'208'
p8317
tp8318
a(S'MPI_Send()'
p8319
S'209'
p8320
tp8321
a(S'MPI_Check()'
p8322
S'218'
p8323
tp8324
a(S'MPI_Send()'
p8325
S'219'
p8326
tp8327
a(S'MPI_Check()'
p8328
S'284'
p8329
tp8330
a(S'MPI_Recv()'
p8331
S'285'
p8332
tp8333
a(S'MPI_Get_count()'
p8334
S'296'
p8335
tp8336
a(S'MPI_Get_processor_name()'
p8337
S'363'
p8338
tp8339
a(S'MPI_Check()'
p8340
S'364'
p8341
tp8342
a(S'MPI_Allgather()'
p8343
S'365'
p8344
tp8345
a(S'MPI_Check()'
p8346
S'379'
p8347
tp8348
a(S'MPI_Info_create()'
p8349
S'463'
p8350
tp8351
a(S'MPI_Info_set()'
p8352
S'466'
p8353
tp8354
a(S'MPI_Info_set()'
p8355
S'468'
p8356
tp8357
a(S'MPI_Check()'
p8358
S'478'
p8359
tp8360
a(S'MPI_Comm_spawn_multiple()'
p8361
S'479'
p8362
tp8363
a(S'MPI_Initialized()'
p8364
S'506'
p8365
tp8366
a(S'MPI_Comm_rank()'
p8367
S'510'
p8368
tp8369
a(S'MPI_Comm_size()'
p8370
S'511'
p8371
tp8372
a(S'MPI_Send()'
p8373
S'535'
p8374
tp8375
a(S'MPI_Send()'
p8376
S'539'
p8377
tp8378
a(S'MPI_Send()'
p8379
S'552'
p8380
tp8381
a(S'MPI_Barrier()'
p8382
S'563'
p8383
tp8384
asS'NWChem-Json/src/tools/ga-5-4/global/testing/unit-tests/ga_zerodiagonal.c'
p8385
(lp8386
(S'MPI_Init()'
p8387
S'25'
p8388
tp8389
a(S'MPI_Comm_rank()'
p8390
S'27'
p8391
tp8392
a(S'MPI_Comm_size()'
p8393
S'28'
p8394
tp8395
a(S'MPI_Finalize()'
p8396
S'63'
p8397
tp8398
asS'NWChem-Json/src/tools/ga-5-4/tascel/configure'
p8399
(lp8400
(S'MPI_Init()'
p8401
S'8248'
p8402
tp8403
a(S'MPI_Finalize()'
p8404
S'8249'
p8405
tp8406
asS'NWChem-Json/src/tools/ga-5-4/comex/tools/prof_gen.py'
p8407
(lp8408
(S'MPI_Comm_dup()'
p8409
S'170'
p8410
tp8411
a(S'MPI_Comm_rank()'
p8412
S'171'
p8413
tp8414
a(S'MPI_Comm_size()'
p8415
S'172'
p8416
tp8417
a(S'MPI_Wtime()'
p8418
S'175'
p8419
tp8420
a(S'MPI_Wtime()'
p8421
S'176'
p8422
tp8423
a(S'MPI_Wtime()'
p8424
S'178'
p8425
tp8426
a(S'MPI_Wtime()'
p8427
S'196'
p8428
tp8429
a(S'MPI_Wtime()'
p8430
S'198'
p8431
tp8432
a(S'MPI_Reduce()'
p8433
S'221'
p8434
tp8435
a(S'MPI_Wtime()'
p8436
S'232'
p8437
tp8438
a(S'MPI_Comm_free()'
p8439
S'241'
p8440
tp8441
asS'NWChem-Json/src/tools/ga-5-4/comex/src-mpi/groups.c'
p8442
(lp8443
(S'MPI_Group_rank()'
p8444
S'83'
p8445
tp8446
a(S'MPI_Group_size()'
p8447
S'97'
p8448
tp8449
a(S'MPI_Group_translate_ranks()'
p8450
S'125'
p8451
tp8452
a(S'MPI_Group_free()'
p8453
S'146'
p8454
tp8455
a(S'MPI_Comm_free()'
p8456
S'153'
p8457
tp8458
a(S'MPI_Group_incl()'
p8459
S'211'
p8460
tp8461
a(S'MPI_Group_rank()'
p8462
S'219'
p8463
tp8464
a(S'MPI_Comm_dup()'
p8465
S'226'
p8466
tp8467
a(S'MPI_Intercomm_create()'
p8468
S'235'
p8469
tp8470
a(S'MPI_Comm_free()'
p8471
S'237'
p8472
tp8473
a(S'MPI_Intercomm_merge()'
p8474
S'238'
p8475
tp8476
a(S'MPI_Comm_free()'
p8477
S'239'
p8478
tp8479
a(S'MPI_Group_free()'
p8480
S'247'
p8481
tp8482
a(S'MPI_Comm_group()'
p8483
S'249'
p8484
tp8485
a(S'MPI_Comm_group()'
p8486
S'269'
p8487
tp8488
a(S'MPI_Group_free()'
p8489
S'289'
p8490
tp8491
asS'NWChem-Json/src/tools/ga-5-4/comex/src-armci/message.c'
p8492
(lp8493
(S'MPI_Comm_rank()'
p8494
S'160'
p8495
tp8496
a(S'MPI_Type_size()'
p8497
S'181'
p8498
tp8499
a(S'MPI_Allreduce()'
p8500
S'197'
p8501
tp8502
a(S'MPI_Bcast()'
p8503
S'209'
p8504
tp8505
a(S'MPI_Type_struct()'
p8506
S'256'
p8507
tp8508
a(S'MPI_Allreduce()'
p8509
S'280'
p8510
tp8511
a(S'MPI_Bcast()'
p8512
S'303'
p8513
tp8514
a(S'MPI_Comm_rank()'
p8515
S'330'
p8516
tp8517
a(S'MPI_Isend()'
p8518
S'335'
p8519
tp8520
a(S'MPI_Test()'
p8521
S'346'
p8522
tp8523
a(S'MPI_Comm_rank()'
p8524
S'365'
p8525
tp8526
a(S'MPI_Irecv()'
p8527
S'370'
p8528
tp8529
a(S'MPI_Test()'
p8530
S'374'
p8531
tp8532
a(S'MPI_Test()'
p8533
S'384'
p8534
tp8535
a(S'MPI_Get_count()'
p8536
S'392'
p8537
tp8538
a(S'MPI_Comm_rank()'
p8539
S'407'
p8540
tp8541
a(S'MPI_Irecv()'
p8542
S'412'
p8543
tp8544
a(S'MPI_Test()'
p8545
S'415'
p8546
tp8547
a(S'MPI_Get_count()'
p8548
S'423'
p8549
tp8550
a(S'MPI_Barrier()'
p8551
S'498'
p8552
tp8553
a(S'MPI_Comm_rank()'
p8554
S'528'
p8555
tp8556
a(S'MPI_Comm_size()'
p8557
S'538'
p8558
tp8559
a(S'MPI_Abort()'
p8560
S'546'
p8561
tp8562
a(S'MPI_Initialized()'
p8563
S'553'
p8564
tp8565
a(S'MPI_Init()'
p8566
S'555'
p8567
tp8568
a(S'MPI_Initialized()'
p8569
S'563'
p8570
tp8571
a(S'MPI_Finalize()'
p8572
S'565'
p8573
tp8574
a(S'MPI_Allgather()'
p8575
S'670'
p8576
tp8577
a(S'MPI_Barrier()'
p8578
S'679'
p8579
tp8580
a(S'MPI_Bcast()'
p8581
S'686'
p8582
tp8583
a(S'MPI_Comm_group()'
p8584
S'697'
p8585
tp8586
a(S'MPI_Comm_group()'
p8587
S'699'
p8588
tp8589
a(S'MPI_Group_translate_ranks()'
p8590
S'701'
p8591
tp8592
a(S'MPI_Bcast()'
p8593
S'704'
p8594
tp8595
asS'NWChem-Json/src/tools/ga-5-4/armci/testing/rpl_armci_msg_init.c'
p8596
(lp8597
(S'MPI_Initialized()'
p8598
S'10'
p8599
tp8600
a(S'MPI_Init_thread()'
p8601
S'14'
p8602
tp8603
a(S'MPI_Init()'
p8604
S'16'
p8605
tp8606
asS'NWChem-Json/src/tools/ga-5-4/armci/testing/ipctest.c'
p8607
(lp8608
(S'MPI_Bcast()'
p8609
S'37'
p8610
tp8611
a(S'MPI_Barrier()'
p8612
S'52'
p8613
tp8614
a(S'MPI_Bcast()'
p8615
S'60'
p8616
tp8617
a(S'MPI_Barrier()'
p8618
S'71'
p8619
tp8620
a(S'MPI_Barrier()'
p8621
S'79'
p8622
tp8623
a(S'MPI_Barrier()'
p8624
S'97'
p8625
tp8626
a(S'MPI_Comm_size()'
p8627
S'106'
p8628
tp8629
a(S'MPI_Comm_rank()'
p8630
S'107'
p8631
tp8632
asS'NWChem-Json/src/tools/ga-5-4/gfutex/src/micro_gf.C'
p8633
(lp8634
(S'MPI_Init()'
p8635
S'30'
p8636
tp8637
a(S'MPI_Barrier()'
p8638
S'43'
p8639
tp8640
a(S'MPI_Wtime()'
p8641
S'56'
p8642
tp8643
a(S'MPI_Wtime()'
p8644
S'60'
p8645
tp8646
a(S'MPI_Barrier()'
p8647
S'62'
p8648
tp8649
a(S'MPI_Wtime()'
p8650
S'64'
p8651
tp8652
a(S'MPI_Wtime()'
p8653
S'66'
p8654
tp8655
a(S'MPI_Barrier()'
p8656
S'71'
p8657
tp8658
a(S'MPI_Wtime()'
p8659
S'73'
p8660
tp8661
a(S'MPI_Wtime()'
p8662
S'77'
p8663
tp8664
a(S'MPI_Barrier()'
p8665
S'79'
p8666
tp8667
a(S'MPI_Wtime()'
p8668
S'81'
p8669
tp8670
a(S'MPI_Wtime()'
p8671
S'83'
p8672
tp8673
a(S'MPI_Barrier()'
p8674
S'88'
p8675
tp8676
a(S'MPI_Finalize()'
p8677
S'95'
p8678
tp8679
asS'NWChem-Json/src/tools/ga-5-4/armci/src-portals/armci_portals.c'
p8680
(lp8681
(S'MPI_Comm_size()'
p8682
S'506'
p8683
tp8684
a(S'MPI_Comm_rank()'
p8685
S'507'
p8686
tp8687
a(S'MPI_Barrier()'
p8688
S'516'
p8689
tp8690
a(S'MPI_Barrier()'
p8691
S'523'
p8692
tp8693
a(S'MPI_Barrier()'
p8694
S'541'
p8695
tp8696
a(S'MPI_Barrier()'
p8697
S'543'
p8698
tp8699
asS'NWChem-Json/src/tools/ga-5-4/global/src/global.util.c'
p8700
(lp8701
(S'MPI_Wtime()'
p8702
S'1050'
p8703
tp8704
asS'NWChem-Json/src/tools/ga-5-4/cca/ga_cca_classic/TestComponent/TestComponent.cxx'
p8705
(lp8706
(S'MPI_Get_processor_name()'
p8707
S'135'
p8708
tp8709
asS'NWChem-Json/src/smd/graveyard/smd-9-10-08/sched_groups.c'
p8710
(lp8711
(S'MPI_Comm_rank()'
p8712
S'217'
p8713
tp8714
a(S'MPI_Comm_size()'
p8715
S'218'
p8716
tp8717
a(S'MPI_Barrier()'
p8718
S'281'
p8719
tp8720
a(S'MPI_Wtime()'
p8721
S'734'
p8722
tp8723
a(S'MPI_Wtime()'
p8724
S'789'
p8725
tp8726
a(S'MPI_Wtime()'
p8727
S'806'
p8728
tp8729
a(S'MPI_Barrier()'
p8730
S'824'
p8731
tp8732
a(S'MPI_Comm_rank()'
p8733
S'967'
p8734
tp8735
a(S'MPI_Comm_size()'
p8736
S'968'
p8737
tp8738
a(S'MPI_Barrier()'
p8739
S'1040'
p8740
tp8741
a(S'MPI_Comm_rank()'
p8742
S'1281'
p8743
tp8744
a(S'MPI_Wtime()'
p8745
S'1359'
p8746
tp8747
a(S'MPI_Wtime()'
p8748
S'1364'
p8749
tp8750
a(S'MPI_Wtime()'
p8751
S'1421'
p8752
tp8753
a(S'MPI_Barrier()'
p8754
S'1443'
p8755
tp8756
a(S'MPI_Wait()'
p8757
S'1768'
p8758
tp8759
a(S'MPI_Test()'
p8760
S'1811'
p8761
tp8762
a(S'MPI_Get_elements()'
p8763
S'1817'
p8764
tp8765
a(S'MPI_Probe()'
p8766
S'1907'
p8767
tp8768
a(S'MPI_Wait()'
p8769
S'1916'
p8770
tp8771
asS'NWChem-Json/src/tools/ga-5-4/tascel/src/Comm.cc'
p8772
(lp8773
(S'MPI_Barrier()'
p8774
S'18'
p8775
tp8776
a(S'MPI_Comm_size()'
p8777
S'24'
p8778
tp8779
a(S'MPI_Comm_rank()'
p8780
S'31'
p8781
tp8782
asS'NWChem-Json/src/tools/ga-5-4/global/testing/unit-tests/ga_create_handle.c'
p8783
(lp8784
(S'MPI_Init()'
p8785
S'19'
p8786
tp8787
a(S'MPI_Comm_rank()'
p8788
S'21'
p8789
tp8790
a(S'MPI_Comm_size()'
p8791
S'22'
p8792
tp8793
a(S'MPI_Finalize()'
p8794
S'40'
p8795
tp8796
asS'NWChem-Json/src/tools/ga-5-4/global/src/scalapack.F'
p8797
(lp8798
(S'MPI_Comm_group()'
p8799
S'3632'
p8800
tp8801
a(S'MPI_Group_incl()'
p8802
S'3636'
p8803
tp8804
a(S'mpi_comm_create()'
p8805
S'3642'
p8806
tp8807
a(S'MPI_Group_free()'
p8808
S'3741'
p8809
tp8810
a(S'MPI_comm_free()'
p8811
S'3744'
p8812
tp8813
asS'NWChem-Json/src/tools/ga-5-4/global/testing/unit-tests/ga_destroy.c'
p8814
(lp8815
(S'MPI_Init()'
p8816
S'22'
p8817
tp8818
a(S'MPI_Comm_rank()'
p8819
S'24'
p8820
tp8821
a(S'MPI_Comm_size()'
p8822
S'25'
p8823
tp8824
a(S'MPI_Finalize()'
p8825
S'44'
p8826
tp8827
asS'NWChem-Json/src/tools/ga-5-4/global/testing/unit-tests/ga_dgop.c'
p8828
(lp8829
(S'MPI_Init()'
p8830
S'175'
p8831
tp8832
a(S'MPI_Comm_rank()'
p8833
S'179'
p8834
tp8835
a(S'MPI_Comm_size()'
p8836
S'180'
p8837
tp8838
a(S'MPI_Finalize()'
p8839
S'197'
p8840
tp8841
asS'NWChem-Json/src/tools/ga-5-4/armci/src-gemini/portals_cp.c'
p8842
(lp8843
(S'MPI_Comm_rank()'
p8844
S'69'
p8845
tp8846
a(S'MPI_Comm_split()'
p8847
S'70'
p8848
tp8849
a(S'MPI_Comm_size()'
p8850
S'82'
p8851
tp8852
a(S'MPI_Comm_rank()'
p8853
S'83'
p8854
tp8855
a(S'MPI_Bcast()'
p8856
S'110'
p8857
tp8858
a(S'MPI_Barrier()'
p8859
S'157'
p8860
tp8861
a(S'MPI_Finalize()'
p8862
S'158'
p8863
tp8864
a(S'MPI_Comm_size()'
p8865
S'880'
p8866
tp8867
a(S'MPI_Comm_rank()'
p8868
S'881'
p8869
tp8870
a(S'MPI_Bcast()'
p8871
S'902'
p8872
tp8873
a(S'MPI_Bcast()'
p8874
S'903'
p8875
tp8876
a(S'MPI_Barrier()'
p8877
S'910'
p8878
tp8879
asS'NWChem-Json/src/tools/ga-5-4/armci/f90/testanb.f90'
p8880
(lp8881
(S'mpi_init()'
p8882
S'18'
p8883
tp8884
a(S'mpi_comm_rank()'
p8885
S'19'
p8886
tp8887
a(S'mpi_comm_size()'
p8888
S'20'
p8889
tp8890
a(S'mpi_finalize()'
p8891
S'44'
p8892
tp8893
asS'NWChem-Json/src/tools/ga-5-4/global/testing/unit-tests/ga_median.c'
p8894
(lp8895
(S'MPI_Init()'
p8896
S'19'
p8897
tp8898
a(S'MPI_Comm_rank()'
p8899
S'21'
p8900
tp8901
a(S'MPI_Comm_size()'
p8902
S'22'
p8903
tp8904
a(S'MPI_Finalize()'
p8905
S'91'
p8906
tp8907
asS'NWChem-Json/src/tools/ga-5-4/comex/src-mpi-mt/comex.c'
p8908
(lp8909
(S'MPI_Initialized()'
p8910
S'257'
p8911
tp8912
a(S'MPI_Query_thread()'
p8913
S'262'
p8914
tp8915
a(S'MPI_Barrier()'
p8916
S'310'
p8917
tp8918
a(S'MPI_Barrier()'
p8919
S'345'
p8920
tp8921
a(S'MPI_Initialized()'
p8922
S'360'
p8923
tp8924
a(S'MPI_Init_thread()'
p8925
S'365'
p8926
tp8927
a(S'MPI_Barrier()'
p8928
S'427'
p8929
tp8930
a(S'MPI_Abort()'
p8931
S'458'
p8932
tp8933
a(S'MPI_Barrier()'
p8934
S'819'
p8935
tp8936
a(S'MPI_Allgather()'
p8937
S'1285'
p8938
tp8939
a(S'MPI_Barrier()'
p8940
S'1306'
p8941
tp8942
a(S'MPI_Comm_rank()'
p8943
S'1436'
p8944
tp8945
a(S'MPI_Comm_size()'
p8946
S'1437'
p8947
tp8948
a(S'MPI_Allgather()'
p8949
S'1443'
p8950
tp8951
a(S'MPI_Barrier()'
p8952
S'1446'
p8953
tp8954
a(S'MPI_Comm_rank()'
p8955
S'1471'
p8956
tp8957
a(S'MPI_Comm_size()'
p8958
S'1472'
p8959
tp8960
a(S'MPI_Allgather()'
p8961
S'1479'
p8962
tp8963
a(S'MPI_Barrier()'
p8964
S'1489'
p8965
tp8966
a(S'MPI_Recv()'
p8967
S'1524'
p8968
tp8969
a(S'X_MPI_ANY_SOURCE()'
p8970
S'1525'
p8971
tp8972
a(S'MPI_Get_count()'
p8973
S'1526'
p8974
tp8975
a(S'MPI_Group_translate_ranks()'
p8976
S'2429'
p8977
tp8978
a(S'MPI_Group_translate_ranks()'
p8979
S'2451'
p8980
tp8981
a(S'MPI_Abort()'
p8982
S'2499'
p8983
tp8984
a(S'MPI_Send()'
p8985
S'2546'
p8986
tp8987
a(S'MPI_Recv()'
p8988
S'2564'
p8989
tp8990
a(S'MPI_Get_count()'
p8991
S'2571'
p8992
tp8993
a(S'MPI_Isend()'
p8994
S'2603'
p8995
tp8996
a(S'MPI_Irecv()'
p8997
S'2662'
p8998
tp8999
a(S'MPI_Irecv()'
p9000
S'2700'
p9001
tp9002
a(S'MPI_Irecv()'
p9003
S'2737'
p9004
tp9005
a(S'MPI_Abort()'
p9006
S'2780'
p9007
tp9008
a(S'MPI_Wait()'
p9009
S'2821'
p9010
tp9011
a(S'MPI_Wait()'
p9012
S'2872'
p9013
tp9014
asS'NWChem-Json/src/tools/ga-5-4/global/testing/unit-tests/ga_create1.c'
p9015
(lp9016
(S'MPI_Init()'
p9017
S'35'
p9018
tp9019
a(S'MPI_Comm_rank()'
p9020
S'37'
p9021
tp9022
a(S'MPI_Comm_size()'
p9023
S'38'
p9024
tp9025
a(S'MPI_Finalize()'
p9026
S'51'
p9027
tp9028
asS'NWChem-Json/src/tools/ga-5-4/comex/src-mpi-pt/groups.c'
p9029
(lp9030
(S'X_MPI_COMM_NULL()'
p9031
S'29'
p9032
tp9033
a(S'X_MPI_GROUP_NULL()'
p9034
S'30'
p9035
tp9036
a(S'MPI_Group_translate_ranks()'
p9037
S'178'
p9038
tp9039
a(S'MPI_Group_free()'
p9040
S'201'
p9041
tp9042
a(S'MPI_Comm_free()'
p9043
S'211'
p9044
tp9045
a(S'MPI_Group_incl()'
p9046
S'291'
p9047
tp9048
a(S'MPI_Group_rank()'
p9049
S'300'
p9050
tp9051
a(S'MPI_Comm_dup()'
p9052
S'312'
p9053
tp9054
a(S'MPI_Intercomm_create()'
p9055
S'322'
p9056
tp9057
a(S'MPI_Comm_free()'
p9058
S'325'
p9059
tp9060
a(S'MPI_Intercomm_merge()'
p9061
S'327'
p9062
tp9063
a(S'MPI_Comm_free()'
p9064
S'329'
p9065
tp9066
a(S'MPI_Group_free()'
p9067
S'338'
p9068
tp9069
a(S'MPI_Comm_group()'
p9070
S'341'
p9071
tp9072
a(S'MPI_Comm_size()'
p9073
S'344'
p9074
tp9075
a(S'MPI_Comm_rank()'
p9076
S'346'
p9077
tp9078
a(S'MPI_Comm_dup()'
p9079
S'372'
p9080
tp9081
a(S'MPI_Comm_group()'
p9082
S'374'
p9083
tp9084
a(S'MPI_Comm_rank()'
p9085
S'376'
p9086
tp9087
a(S'MPI_Comm_size()'
p9088
S'378'
p9089
tp9090
a(S'MPI_Allgather()'
p9091
S'395'
p9092
tp9093
a(S'MPI_Allgather()'
p9094
S'418'
p9095
tp9096
a(S'MPI_Comm_dup()'
p9097
S'427'
p9098
tp9099
a(S'MPI_Comm_group()'
p9100
S'429'
p9101
tp9102
a(S'MPI_Comm_rank()'
p9103
S'431'
p9104
tp9105
a(S'MPI_Comm_size()'
p9106
S'433'
p9107
tp9108
a(S'MPI_Comm_split()'
p9109
S'437'
p9110
tp9111
a(S'MPI_Comm_rank()'
p9112
S'441'
p9113
tp9114
a(S'MPI_Comm_size()'
p9115
S'444'
p9116
tp9117
a(S'MPI_Comm_free()'
p9118
S'478'
p9119
tp9120
a(S'MPI_Group_free()'
p9121
S'480'
p9122
tp9123
a(S'MPI_Comm_free()'
p9124
S'482'
p9125
tp9126
asS'NWChem-Json/src/tools/ga-5-4/armci/src-gemini/armci.c'
p9127
(lp9128
(S'MPI_Comm_free()'
p9129
S'439'
p9130
tp9131
asS'NWChem-Json/src/tools/ga-5-4/global/testing/unit-tests/ga_pgroup_destroy2.c'
p9132
(lp9133
(S'MPI_Init()'
p9134
S'22'
p9135
tp9136
a(S'MPI_Comm_rank()'
p9137
S'24'
p9138
tp9139
a(S'MPI_Comm_size()'
p9140
S'25'
p9141
tp9142
a(S'MPI_Finalize()'
p9143
S'75'
p9144
tp9145
asS'NWChem-Json/src/nwpw/nwpwlib/D1dB/D1dB-mpi.F'
p9146
(lp9147
(S'MPI_Allreduce()'
p9148
S'37'
p9149
tp9150
a(S'MPI_Allreduce()'
p9151
S'41'
p9152
tp9153
a(S'MPI_Allreduce()'
p9154
S'83'
p9155
tp9156
a(S'MPI_Allreduce()'
p9157
S'89'
p9158
tp9159
a(S'MPI_Allreduce()'
p9160
S'128'
p9161
tp9162
a(S'MPI_Allreduce()'
p9163
S'132'
p9164
tp9165
a(S'MPI_Allreduce()'
p9166
S'172'
p9167
tp9168
a(S'MPI_Allreduce()'
p9169
S'177'
p9170
tp9171
a(S'MPI_Allreduce()'
p9172
S'229'
p9173
tp9174
a(S'MPI_Allreduce()'
p9175
S'234'
p9176
tp9177
a(S'MPI_Allreduce()'
p9178
S'292'
p9179
tp9180
a(S'MPI_Allreduce()'
p9181
S'301'
p9182
tp9183
a(S'MPI_Bcast()'
p9184
S'343'
p9185
tp9186
a(S'MPI_Bcast()'
p9187
S'355'
p9188
tp9189
a(S'MPI_IRECV()'
p9190
S'415'
p9191
tp9192
a(S'MPI_ISEND()'
p9193
S'430'
p9194
tp9195
a(S'MPI_IRECV()'
p9196
S'442'
p9197
tp9198
a(S'MPI_ISEND()'
p9199
S'451'
p9200
tp9201
a(S'MPI_IRECV()'
p9202
S'540'
p9203
tp9204
a(S'MPI_ISEND()'
p9205
S'553'
p9206
tp9207
a(S'MPI_IRECV()'
p9208
S'564'
p9209
tp9210
a(S'MPI_ISEND()'
p9211
S'571'
p9212
tp9213
asS'NWChem-Json/src/tools/ga-5-4/global/testing/unit-tests/ga_duplicate.c'
p9214
(lp9215
(S'MPI_Init()'
p9216
S'24'
p9217
tp9218
a(S'MPI_Comm_rank()'
p9219
S'26'
p9220
tp9221
a(S'MPI_Comm_size()'
p9222
S'27'
p9223
tp9224
a(S'MPI_Finalize()'
p9225
S'64'
p9226
tp9227
asS'NWChem-Json/src/tools/ga-5-4/comex/src-ofa/comex.c'
p9228
(lp9229
(S'MPI_Abort()'
p9230
S'41'
p9231
tp9232
a(S'MPI_Comm_rank()'
p9233
S'65'
p9234
tp9235
a(S'MPI_Comm_size()'
p9236
S'67'
p9237
tp9238
a(S'MPI_Allreduce()'
p9239
S'71'
p9240
tp9241
a(S'MPI_Allgather()'
p9242
S'87'
p9243
tp9244
a(S'MPI_Allgather()'
p9245
S'100'
p9246
tp9247
a(S'MPI_Barrier()'
p9248
S'116'
p9249
tp9250
a(S'MPI_Comm_rank()'
p9251
S'138'
p9252
tp9253
a(S'MPI_Comm_size()'
p9254
S'140'
p9255
tp9256
a(S'MPI_Allgather()'
p9257
S'148'
p9258
tp9259
a(S'MPI_Barrier()'
p9260
S'167'
p9261
tp9262
a(S'MPI_Initialized()'
p9263
S'242'
p9264
tp9265
a(S'MPI_Comm_dup()'
p9266
S'246'
p9267
tp9268
a(S'MPI_Comm_rank()'
p9269
S'249'
p9270
tp9271
a(S'MPI_Comm_size()'
p9272
S'252'
p9273
tp9274
a(S'MPI_Barrier()'
p9275
S'267'
p9276
tp9277
a(S'MPI_Initialized()'
p9278
S'278'
p9279
tp9280
a(S'MPI_Init()'
p9281
S'281'
p9282
tp9283
a(S'MPI_Barrier()'
p9284
S'297'
p9285
tp9286
asS'NWChem-Json/src/tools/ga-5-4/global/testing/unit-tests/ga_create_irreg3.c'
p9287
(lp9288
(S'MPI_Init()'
p9289
S'36'
p9290
tp9291
a(S'MPI_Comm_rank()'
p9292
S'38'
p9293
tp9294
a(S'MPI_Comm_size()'
p9295
S'39'
p9296
tp9297
a(S'MPI_Finalize()'
p9298
S'53'
p9299
tp9300
asS'NWChem-Json/src/tools/ga-5-4/armci/src/devices/mpi-mt/mpi2.h'
p9301
(lp9302
(S'X_MPI_SPAWN_DEBUG()'
p9303
g2217
tp9304
asS'NWChem-Json/src/tools/ga-5-4/gfutex/examples/scf/timer.c'
p9305
(lp9306
(S'MPI_Wtime()'
p9307
S'53'
p9308
tp9309
a(S'MPI_Wtime()'
p9310
S'57'
p9311
tp9312
asS'NWChem-Json/src/nwpw/nwpwlib/K1dB/K1dB-mpi.F'
p9313
(lp9314
(S'MPI_Allreduce()'
p9315
S'30'
p9316
tp9317
a(S'MPI_Allreduce()'
p9318
S'34'
p9319
tp9320
a(S'MPI_Allreduce()'
p9321
S'73'
p9322
tp9323
a(S'MPI_Allreduce()'
p9324
S'79'
p9325
tp9326
a(S'MPI_Allreduce()'
p9327
S'115'
p9328
tp9329
a(S'MPI_Allreduce()'
p9330
S'119'
p9331
tp9332
a(S'MPI_Allreduce()'
p9333
S'155'
p9334
tp9335
a(S'MPI_Allreduce()'
p9336
S'159'
p9337
tp9338
a(S'MPI_Allreduce()'
p9339
S'209'
p9340
tp9341
a(S'MPI_Allreduce()'
p9342
S'214'
p9343
tp9344
a(S'MPI_Allreduce()'
p9345
S'270'
p9346
tp9347
a(S'MPI_Allreduce()'
p9348
S'278'
p9349
tp9350
asS'NWChem-Json/src/tools/ga-5-4/tcgmsg/tcgmsg-mpi/tcgmsgP.h'
p9351
(lp9352
(S'MPI_Error_string()'
p9353
S'66'
p9354
tp9355
as.