ccollections
defaultdict
p0
(c__builtin__
list
p1
tp2
Rp3
S'nwchem-6.6-revision27746/src/tools/ga-5-4/global/testing/unit-tests/ga_gather.c'
p4
(lp5
(S'MPI_Init()'
p6
S'26'
p7
tp8
a(S'MPI_Comm_rank()'
p9
S'30'
p10
tp11
a(S'MPI_Comm_size()'
p12
S'31'
p13
tp14
a(S'MPI_Finalize()'
p15
S'85'
p16
tp17
asS'nwchem-6.6-revision27746/src/tools/ga-5-4/armci/src-portals/groups.c'
p18
(lp19
(S'MPI_Comm_compare()'
p20
S'87'
p21
tp22
a(S'MPI_Group_size()'
p23
S'111'
p24
tp25
a(S'MPI_Comm_group()'
p26
S'124'
p27
tp28
a(S'MPI_Group_translate_ranks()'
p29
S'125'
p30
tp31
a(S'MPI_Comm_group()'
p32
S'164'
p33
tp34
a(S'MPI_Group_translate_ranks()'
p35
S'165'
p36
tp37
a(S'MPI_Comm_free()'
p38
S'363'
p39
tp40
a(S'MPI_Group_rank()'
p41
S'466'
p42
tp43
a(S'MPI_Comm_dup()'
p44
S'472'
p45
tp46
a(S'MPI_Intercomm_create()'
p47
S'481'
p48
tp49
a(S'MPI_Comm_free()'
p50
S'482'
p51
tp52
a(S'MPI_Intercomm_merge()'
p53
S'483'
p54
tp55
a(S'MPI_Comm_free()'
p56
S'484'
p57
tp58
a(S'MPI_Group_free()'
p59
S'491'
p60
tp61
a(S'MPI_Comm_group()'
p62
S'492'
p63
tp64
a(S'MPI_Comm_group()'
p65
S'539'
p66
tp67
a(S'MPI_Group_rank()'
p68
S'542'
p69
tp70
asS'nwchem-6.6-revision27746/src/tools/ga-5-4/comex/src-template/comex.c'
p71
(lp72
(S'MPI_Initialized()'
p73
S'61'
p74
tp75
a(S'MPI_Comm_dup()'
p76
S'66'
p77
tp78
a(S'MPI_Comm_rank()'
p79
S'71'
p80
tp81
a(S'MPI_Comm_size()'
p82
S'75'
p83
tp84
a(S'MPI_Barrier()'
p85
S'82'
p86
tp87
a(S'MPI_Initialized()'
p88
S'92'
p89
tp90
a(S'MPI_Init()'
p91
S'95'
p92
tp93
a(S'MPI_Abort()'
p94
S'113'
p95
tp96
a(S'MPI_Barrier()'
p97
S'452'
p98
tp99
a(S'MPI_Barrier()'
p100
S'489'
p101
tp102
a(S'MPI_Comm_free()'
p103
S'492'
p104
tp105
a(S'MPI_Comm_rank()'
p106
S'722'
p107
tp108
a(S'MPI_Comm_size()'
p109
S'723'
p110
tp111
a(S'MPI_Allgather()'
p112
S'731'
p113
tp114
a(S'MPI_Barrier()'
p115
S'734'
p116
tp117
a(S'MPI_Comm_rank()'
p118
S'754'
p119
tp120
a(S'MPI_Comm_size()'
p121
S'755'
p122
tp123
a(S'MPI_Allgather()'
p124
S'762'
p125
tp126
a(S'MPI_Barrier()'
p127
S'772'
p128
tp129
asS'nwchem-6.6-revision27746/src/tools/ga-5-4/global/testing/unit-tests/ga_dot.c'
p130
(lp131
(S'MPI_Init()'
p132
S'64'
p133
tp134
a(S'MPI_Comm_rank()'
p135
S'66'
p136
tp137
a(S'MPI_Comm_size()'
p138
S'67'
p139
tp140
a(S'MPI_Finalize()'
p141
S'78'
p142
tp143
asS'nwchem-6.6-revision27746/src/tools/ga-5-4/global/testing/unit-tests/ga_scale_patch.c'
p144
(lp145
(S'MPI_Init()'
p146
S'22'
p147
tp148
a(S'MPI_Comm_rank()'
p149
S'24'
p150
tp151
a(S'MPI_Comm_size()'
p152
S'25'
p153
tp154
a(S'MPI_Finalize()'
p155
S'59'
p156
tp157
asS'nwchem-6.6-revision27746/src/tools/ga-5-4/global/testing/unit-tests/ga_create_irreg3.c'
p158
(lp159
(S'MPI_Init()'
p160
S'36'
p161
tp162
a(S'MPI_Comm_rank()'
p163
S'38'
p164
tp165
a(S'MPI_Comm_size()'
p166
S'39'
p167
tp168
a(S'MPI_Finalize()'
p169
S'53'
p170
tp171
asS'nwchem-6.6-revision27746/contrib/openmp_tests/dgemm/xerbla.F'
p172
(lp173
(S'MPI_Abort()'
p174
S'45'
p175
tp176
asS'nwchem-6.6-revision27746/src/tools/ga-5-4/tascel/test/TestQueue.cc'
p177
(lp178
(S'MPI_Init()'
p179
S'67'
p180
tp181
a(S'MPI_Comm_rank()'
p182
S'68'
p183
tp184
a(S'MPI_Finalize()'
p185
S'72'
p186
tp187
asS'nwchem-6.6-revision27746/src/tools/ga-5-4/global/testing/unit-tests/ga_zerodiagonal.c'
p188
(lp189
(S'MPI_Init()'
p190
S'25'
p191
tp192
a(S'MPI_Comm_rank()'
p193
S'27'
p194
tp195
a(S'MPI_Comm_size()'
p196
S'28'
p197
tp198
a(S'MPI_Finalize()'
p199
S'63'
p200
tp201
asS'nwchem-6.6-revision27746/src/tools/ga-5-4/comex/src-ofa/fence.c'
p202
(lp203
(S'MPI_Barrier()'
p204
S'35'
p205
tp206
asS'nwchem-6.6-revision27746/src/tools/ga-5-4/gfutex/examples/scf/twoel.C.orig'
p207
(lp208
(S'MPI_Wtime()'
p209
S'365'
p210
tp211
a(S'MPI_Wtime()'
p212
S'398'
p213
tp214
a(S'MPI_Wtime()'
p215
S'400'
p216
tp217
a(S'MPI_Wtime()'
p218
S'402'
p219
tp220
a(S'MPI_Reduce()'
p221
S'978'
p222
tp223
asS'nwchem-6.6-revision27746/src/tools/ga-5-4/global/testing/unit-tests/ga_add.c'
p224
(lp225
(S'MPI_Init()'
p226
S'26'
p227
tp228
a(S'MPI_Comm_rank()'
p229
S'28'
p230
tp231
a(S'MPI_Comm_size()'
p232
S'29'
p233
tp234
a(S'MPI_Finalize()'
p235
S'113'
p236
tp237
asS'nwchem-6.6-revision27746/src/tools/ga-5-4/global/testing/unit-tests/ga_copy3.c'
p238
(lp239
(S'MPI_Init()'
p240
S'27'
p241
tp242
a(S'MPI_Comm_rank()'
p243
S'29'
p244
tp245
a(S'MPI_Comm_size()'
p246
S'30'
p247
tp248
a(S'MPI_Finalize()'
p249
S'85'
p250
tp251
asS'nwchem-6.6-revision27746/src/tools/ga-5-4/armci/src-gemini/portals_ds.c'
p252
(lp253
(S'MPI_Comm_size()'
p254
S'55'
p255
tp256
a(S'MPI_Comm_rank()'
p257
S'56'
p258
tp259
asS'nwchem-6.6-revision27746/src/tools/ga-5-4/global/testing/unit-tests/ga_add_patch.c'
p260
(lp261
(S'MPI_Init()'
p262
S'25'
p263
tp264
a(S'MPI_Comm_rank()'
p265
S'27'
p266
tp267
a(S'MPI_Comm_size()'
p268
S'28'
p269
tp270
a(S'MPI_Finalize()'
p271
S'89'
p272
tp273
asS'nwchem-6.6-revision27746/src/tools/ga-5-4/tcgmsg/tests/test_asyn.c'
p274
(lp275
(S'MPI_Init()'
p276
S'20'
p277
tp278
a(S'MPI_Comm_size()'
p279
S'22'
p280
tp281
a(S'MPI_Comm_rank()'
p282
S'23'
p283
tp284
a(S'MPI_Irecv()'
p285
S'28'
p286
tp287
a(S'MPI_Send()'
p288
S'30'
p289
tp290
a(S'MPI_Wait()'
p291
S'32'
p292
tp293
a(S'MPI_Recv()'
p294
S'38'
p295
tp296
a(S'MPI_Send()'
p297
S'40'
p298
tp299
a(S'MPI_Finalize()'
p300
S'43'
p301
tp302
asS'nwchem-6.6-revision27746/src/tools/ga-5-4/global/testing/unit-tests/ga_get_blockinfo.c'
p303
(lp304
(S'MPI_Init()'
p305
S'25'
p306
tp307
a(S'MPI_Comm_rank()'
p308
S'27'
p309
tp310
a(S'MPI_Comm_size()'
p311
S'28'
p312
tp313
a(S'MPI_Finalize()'
p314
S'51'
p315
tp316
asS'nwchem-6.6-revision27746/src/tools/ga-5-4/armci/src-portals/portals_ds.c'
p317
(lp318
(S'MPI_Comm_size()'
p319
S'55'
p320
tp321
a(S'MPI_Comm_rank()'
p322
S'56'
p323
tp324
asS'nwchem-6.6-revision27746/src/tools/ga-5-4/comex/testing/test.c'
p325
(lp326
(S'MPI_Allreduce()'
p327
S'87'
p328
tp329
a(S'MPI_Allreduce()'
p330
S'109'
p331
tp332
a(S'MPI_Finalize()'
p333
S'1743'
p334
tp335
asS'nwchem-6.6-revision27746/src/tools/ga-5-4/comex/testing/perf_amo.c'
p336
(lp337
(S'MPI_Finalize()'
p338
S'88'
p339
tp340
asS'nwchem-6.6-revision27746/src/tools/ga-5-4/global/testing/unit-tests/ga_fillpatch.c'
p341
(lp342
(S'MPI_Init()'
p343
S'69'
p344
tp345
a(S'MPI_Comm_rank()'
p346
S'71'
p347
tp348
a(S'MPI_Comm_size()'
p349
S'72'
p350
tp351
a(S'MPI_Finalize()'
p352
S'85'
p353
tp354
asS'nwchem-6.6-revision27746/src/tools/ga-5-4/global/testing/unit-tests/ga_acc.c'
p355
(lp356
(S'MPI_Init()'
p357
S'24'
p358
tp359
a(S'MPI_Comm_rank()'
p360
S'25'
p361
tp362
a(S'MPI_Comm_size()'
p363
S'26'
p364
tp365
a(S'MPI_Finalize()'
p366
S'64'
p367
tp368
asS'nwchem-6.6-revision27746/src/tools/ga-5-4/global/examples/petsc.F'
p369
(lp370
(S'mpi_finalize()'
p371
S'33'
p372
tp373
asS'nwchem-6.6-revision27746/src/tools/ga-5-4/armci/testing/clone.c'
p374
(lp375
(S'MPI_Init()'
p376
S'85'
p377
tp378
a(S'MPI_Barrier()'
p379
S'86'
p380
tp381
a(S'MPI_Finalize()'
p382
S'87'
p383
tp384
asS'nwchem-6.6-revision27746/src/tools/ga-5-4/tools/ga-wapi.c'
p385
(lp386
(S'MPI_Wtime()'
p387
S'523'
p388
tp389
a(S'MPI_Wtime()'
p390
S'525'
p391
tp392
a(S'MPI_Wtime()'
p393
S'534'
p394
tp395
a(S'MPI_Wtime()'
p396
S'536'
p397
tp398
a(S'MPI_Wtime()'
p399
S'545'
p400
tp401
a(S'MPI_Wtime()'
p402
S'547'
p403
tp404
a(S'MPI_Wtime()'
p405
S'556'
p406
tp407
a(S'MPI_Wtime()'
p408
S'558'
p409
tp410
a(S'MPI_Wtime()'
p411
S'567'
p412
tp413
a(S'MPI_Wtime()'
p414
S'569'
p415
tp416
a(S'MPI_Wtime()'
p417
S'578'
p418
tp419
a(S'MPI_Wtime()'
p420
S'580'
p421
tp422
a(S'MPI_Wtime()'
p423
S'589'
p424
tp425
a(S'MPI_Wtime()'
p426
S'591'
p427
tp428
a(S'MPI_Wtime()'
p429
S'600'
p430
tp431
a(S'MPI_Wtime()'
p432
S'602'
p433
tp434
a(S'MPI_Wtime()'
p435
S'611'
p436
tp437
a(S'MPI_Wtime()'
p438
S'613'
p439
tp440
a(S'MPI_Wtime()'
p441
S'622'
p442
tp443
a(S'MPI_Wtime()'
p444
S'624'
p445
tp446
a(S'MPI_Wtime()'
p447
S'633'
p448
tp449
a(S'MPI_Wtime()'
p450
S'635'
p451
tp452
a(S'MPI_Wtime()'
p453
S'644'
p454
tp455
a(S'MPI_Wtime()'
p456
S'646'
p457
tp458
a(S'MPI_Wtime()'
p459
S'655'
p460
tp461
a(S'MPI_Wtime()'
p462
S'657'
p463
tp464
a(S'MPI_Wtime()'
p465
S'666'
p466
tp467
a(S'MPI_Wtime()'
p468
S'668'
p469
tp470
a(S'MPI_Wtime()'
p471
S'677'
p472
tp473
a(S'MPI_Wtime()'
p474
S'679'
p475
tp476
a(S'MPI_Wtime()'
p477
S'688'
p478
tp479
a(S'MPI_Wtime()'
p480
S'690'
p481
tp482
a(S'MPI_Wtime()'
p483
S'699'
p484
tp485
a(S'MPI_Wtime()'
p486
S'701'
p487
tp488
a(S'MPI_Wtime()'
p489
S'710'
p490
tp491
a(S'MPI_Wtime()'
p492
S'712'
p493
tp494
a(S'MPI_Wtime()'
p495
S'721'
p496
tp497
a(S'MPI_Wtime()'
p498
S'723'
p499
tp500
a(S'MPI_Wtime()'
p501
S'732'
p502
tp503
a(S'MPI_Wtime()'
p504
S'734'
p505
tp506
a(S'MPI_Wtime()'
p507
S'744'
p508
tp509
a(S'MPI_Wtime()'
p510
S'746'
p511
tp512
a(S'MPI_Wtime()'
p513
S'756'
p514
tp515
a(S'MPI_Wtime()'
p516
S'758'
p517
tp518
a(S'MPI_Wtime()'
p519
S'767'
p520
tp521
a(S'MPI_Wtime()'
p522
S'769'
p523
tp524
a(S'MPI_Wtime()'
p525
S'778'
p526
tp527
a(S'MPI_Wtime()'
p528
S'780'
p529
tp530
a(S'MPI_Wtime()'
p531
S'789'
p532
tp533
a(S'MPI_Wtime()'
p534
S'791'
p535
tp536
a(S'MPI_Wtime()'
p537
S'801'
p538
tp539
a(S'MPI_Wtime()'
p540
S'803'
p541
tp542
a(S'MPI_Wtime()'
p543
S'814'
p544
tp545
a(S'MPI_Wtime()'
p546
S'816'
p547
tp548
a(S'MPI_Wtime()'
p549
S'827'
p550
tp551
a(S'MPI_Wtime()'
p552
S'829'
p553
tp554
a(S'MPI_Wtime()'
p555
S'840'
p556
tp557
a(S'MPI_Wtime()'
p558
S'842'
p559
tp560
a(S'MPI_Wtime()'
p561
S'853'
p562
tp563
a(S'MPI_Wtime()'
p564
S'855'
p565
tp566
a(S'MPI_Wtime()'
p567
S'866'
p568
tp569
a(S'MPI_Wtime()'
p570
S'868'
p571
tp572
a(S'MPI_Wtime()'
p573
S'879'
p574
tp575
a(S'MPI_Wtime()'
p576
S'881'
p577
tp578
a(S'MPI_Wtime()'
p579
S'891'
p580
tp581
a(S'MPI_Wtime()'
p582
S'893'
p583
tp584
a(S'MPI_Wtime()'
p585
S'902'
p586
tp587
a(S'MPI_Wtime()'
p588
S'904'
p589
tp590
a(S'MPI_Wtime()'
p591
S'913'
p592
tp593
a(S'MPI_Wtime()'
p594
S'915'
p595
tp596
a(S'MPI_Wtime()'
p597
S'925'
p598
tp599
a(S'MPI_Wtime()'
p600
S'927'
p601
tp602
a(S'MPI_Wtime()'
p603
S'938'
p604
tp605
a(S'MPI_Wtime()'
p606
S'940'
p607
tp608
a(S'MPI_Wtime()'
p609
S'951'
p610
tp611
a(S'MPI_Wtime()'
p612
S'953'
p613
tp614
a(S'MPI_Wtime()'
p615
S'964'
p616
tp617
a(S'MPI_Wtime()'
p618
S'966'
p619
tp620
a(S'MPI_Wtime()'
p621
S'977'
p622
tp623
a(S'MPI_Wtime()'
p624
S'979'
p625
tp626
a(S'MPI_Wtime()'
p627
S'990'
p628
tp629
a(S'MPI_Wtime()'
p630
S'992'
p631
tp632
a(S'MPI_Wtime()'
p633
S'1003'
p634
tp635
a(S'MPI_Wtime()'
p636
S'1005'
p637
tp638
a(S'MPI_Wtime()'
p639
S'1016'
p640
tp641
a(S'MPI_Wtime()'
p642
S'1018'
p643
tp644
a(S'MPI_Wtime()'
p645
S'1029'
p646
tp647
a(S'MPI_Wtime()'
p648
S'1031'
p649
tp650
a(S'MPI_Wtime()'
p651
S'1042'
p652
tp653
a(S'MPI_Wtime()'
p654
S'1044'
p655
tp656
a(S'MPI_Wtime()'
p657
S'1055'
p658
tp659
a(S'MPI_Wtime()'
p660
S'1057'
p661
tp662
a(S'MPI_Wtime()'
p663
S'1068'
p664
tp665
a(S'MPI_Wtime()'
p666
S'1070'
p667
tp668
a(S'MPI_Wtime()'
p669
S'1081'
p670
tp671
a(S'MPI_Wtime()'
p672
S'1083'
p673
tp674
a(S'MPI_Wtime()'
p675
S'1094'
p676
tp677
a(S'MPI_Wtime()'
p678
S'1096'
p679
tp680
a(S'MPI_Wtime()'
p681
S'1107'
p682
tp683
a(S'MPI_Wtime()'
p684
S'1109'
p685
tp686
a(S'MPI_Wtime()'
p687
S'1119'
p688
tp689
a(S'MPI_Wtime()'
p690
S'1121'
p691
tp692
a(S'MPI_Wtime()'
p693
S'1130'
p694
tp695
a(S'MPI_Wtime()'
p696
S'1132'
p697
tp698
a(S'MPI_Wtime()'
p699
S'1141'
p700
tp701
a(S'MPI_Wtime()'
p702
S'1143'
p703
tp704
a(S'MPI_Wtime()'
p705
S'1152'
p706
tp707
a(S'MPI_Wtime()'
p708
S'1154'
p709
tp710
a(S'MPI_Wtime()'
p711
S'1163'
p712
tp713
a(S'MPI_Wtime()'
p714
S'1165'
p715
tp716
a(S'MPI_Wtime()'
p717
S'1174'
p718
tp719
a(S'MPI_Wtime()'
p720
S'1176'
p721
tp722
a(S'MPI_Wtime()'
p723
S'1185'
p724
tp725
a(S'MPI_Wtime()'
p726
S'1187'
p727
tp728
a(S'MPI_Wtime()'
p729
S'1196'
p730
tp731
a(S'MPI_Wtime()'
p732
S'1198'
p733
tp734
a(S'MPI_Wtime()'
p735
S'1208'
p736
tp737
a(S'MPI_Wtime()'
p738
S'1210'
p739
tp740
a(S'MPI_Wtime()'
p741
S'1220'
p742
tp743
a(S'MPI_Wtime()'
p744
S'1222'
p745
tp746
a(S'MPI_Wtime()'
p747
S'1231'
p748
tp749
a(S'MPI_Wtime()'
p750
S'1233'
p751
tp752
a(S'MPI_Wtime()'
p753
S'1242'
p754
tp755
a(S'MPI_Wtime()'
p756
S'1244'
p757
tp758
a(S'MPI_Wtime()'
p759
S'1253'
p760
tp761
a(S'MPI_Wtime()'
p762
S'1255'
p763
tp764
a(S'MPI_Wtime()'
p765
S'1264'
p766
tp767
a(S'MPI_Wtime()'
p768
S'1266'
p769
tp770
a(S'MPI_Wtime()'
p771
S'1275'
p772
tp773
a(S'MPI_Wtime()'
p774
S'1277'
p775
tp776
a(S'MPI_Wtime()'
p777
S'1286'
p778
tp779
a(S'MPI_Wtime()'
p780
S'1288'
p781
tp782
a(S'MPI_Wtime()'
p783
S'1297'
p784
tp785
a(S'MPI_Wtime()'
p786
S'1299'
p787
tp788
a(S'MPI_Wtime()'
p789
S'1308'
p790
tp791
a(S'MPI_Wtime()'
p792
S'1310'
p793
tp794
a(S'MPI_Wtime()'
p795
S'1319'
p796
tp797
a(S'MPI_Wtime()'
p798
S'1321'
p799
tp800
a(S'MPI_Wtime()'
p801
S'1330'
p802
tp803
a(S'MPI_Wtime()'
p804
S'1332'
p805
tp806
a(S'MPI_Wtime()'
p807
S'1341'
p808
tp809
a(S'MPI_Wtime()'
p810
S'1343'
p811
tp812
a(S'MPI_Wtime()'
p813
S'1352'
p814
tp815
a(S'MPI_Wtime()'
p816
S'1354'
p817
tp818
a(S'MPI_Wtime()'
p819
S'1363'
p820
tp821
a(S'MPI_Wtime()'
p822
S'1365'
p823
tp824
a(S'MPI_Wtime()'
p825
S'1374'
p826
tp827
a(S'MPI_Wtime()'
p828
S'1376'
p829
tp830
a(S'MPI_Wtime()'
p831
S'1385'
p832
tp833
a(S'MPI_Wtime()'
p834
S'1387'
p835
tp836
a(S'MPI_Wtime()'
p837
S'1396'
p838
tp839
a(S'MPI_Wtime()'
p840
S'1398'
p841
tp842
a(S'MPI_Wtime()'
p843
S'1407'
p844
tp845
a(S'MPI_Wtime()'
p846
S'1409'
p847
tp848
a(S'MPI_Wtime()'
p849
S'1419'
p850
tp851
a(S'MPI_Wtime()'
p852
S'1421'
p853
tp854
a(S'MPI_Wtime()'
p855
S'1431'
p856
tp857
a(S'MPI_Wtime()'
p858
S'1433'
p859
tp860
a(S'MPI_Wtime()'
p861
S'1443'
p862
tp863
a(S'MPI_Wtime()'
p864
S'1445'
p865
tp866
a(S'MPI_Wtime()'
p867
S'1455'
p868
tp869
a(S'MPI_Wtime()'
p870
S'1457'
p871
tp872
a(S'MPI_Wtime()'
p873
S'1466'
p874
tp875
a(S'MPI_Wtime()'
p876
S'1468'
p877
tp878
a(S'MPI_Wtime()'
p879
S'1478'
p880
tp881
a(S'MPI_Wtime()'
p882
S'1480'
p883
tp884
a(S'MPI_Wtime()'
p885
S'1491'
p886
tp887
a(S'MPI_Wtime()'
p888
S'1493'
p889
tp890
a(S'MPI_Wtime()'
p891
S'1503'
p892
tp893
a(S'MPI_Wtime()'
p894
S'1505'
p895
tp896
a(S'MPI_Wtime()'
p897
S'1514'
p898
tp899
a(S'MPI_Wtime()'
p900
S'1516'
p901
tp902
a(S'MPI_Wtime()'
p903
S'1525'
p904
tp905
a(S'MPI_Wtime()'
p906
S'1527'
p907
tp908
a(S'MPI_Wtime()'
p909
S'1536'
p910
tp911
a(S'MPI_Wtime()'
p912
S'1538'
p913
tp914
a(S'MPI_Wtime()'
p915
S'1548'
p916
tp917
a(S'MPI_Wtime()'
p918
S'1550'
p919
tp920
a(S'MPI_Wtime()'
p921
S'1560'
p922
tp923
a(S'MPI_Wtime()'
p924
S'1562'
p925
tp926
a(S'MPI_Wtime()'
p927
S'1571'
p928
tp929
a(S'MPI_Wtime()'
p930
S'1573'
p931
tp932
a(S'MPI_Wtime()'
p933
S'1583'
p934
tp935
a(S'MPI_Wtime()'
p936
S'1585'
p937
tp938
a(S'MPI_Wtime()'
p939
S'1595'
p940
tp941
a(S'MPI_Wtime()'
p942
S'1597'
p943
tp944
a(S'MPI_Wtime()'
p945
S'1606'
p946
tp947
a(S'MPI_Wtime()'
p948
S'1608'
p949
tp950
a(S'MPI_Wtime()'
p951
S'1618'
p952
tp953
a(S'MPI_Wtime()'
p954
S'1620'
p955
tp956
a(S'MPI_Wtime()'
p957
S'1630'
p958
tp959
a(S'MPI_Wtime()'
p960
S'1632'
p961
tp962
a(S'MPI_Wtime()'
p963
S'1642'
p964
tp965
a(S'MPI_Wtime()'
p966
S'1644'
p967
tp968
a(S'MPI_Wtime()'
p969
S'1655'
p970
tp971
a(S'MPI_Wtime()'
p972
S'1657'
p973
tp974
a(S'MPI_Wtime()'
p975
S'1668'
p976
tp977
a(S'MPI_Wtime()'
p978
S'1670'
p979
tp980
a(S'MPI_Wtime()'
p981
S'1681'
p982
tp983
a(S'MPI_Wtime()'
p984
S'1683'
p985
tp986
a(S'MPI_Wtime()'
p987
S'1694'
p988
tp989
a(S'MPI_Wtime()'
p990
S'1696'
p991
tp992
a(S'MPI_Wtime()'
p993
S'1706'
p994
tp995
a(S'MPI_Wtime()'
p996
S'1708'
p997
tp998
a(S'MPI_Wtime()'
p999
S'1717'
p1000
tp1001
a(S'MPI_Wtime()'
p1002
S'1719'
p1003
tp1004
a(S'MPI_Wtime()'
p1005
S'1728'
p1006
tp1007
a(S'MPI_Wtime()'
p1008
S'1730'
p1009
tp1010
a(S'MPI_Wtime()'
p1011
S'1739'
p1012
tp1013
a(S'MPI_Wtime()'
p1014
S'1741'
p1015
tp1016
a(S'MPI_Wtime()'
p1017
S'1750'
p1018
tp1019
a(S'MPI_Wtime()'
p1020
S'1752'
p1021
tp1022
a(S'MPI_Wtime()'
p1023
S'1761'
p1024
tp1025
a(S'MPI_Wtime()'
p1026
S'1763'
p1027
tp1028
a(S'MPI_Wtime()'
p1029
S'1772'
p1030
tp1031
a(S'MPI_Wtime()'
p1032
S'1774'
p1033
tp1034
a(S'MPI_Wtime()'
p1035
S'1783'
p1036
tp1037
a(S'MPI_Wtime()'
p1038
S'1785'
p1039
tp1040
a(S'MPI_Wtime()'
p1041
S'1794'
p1042
tp1043
a(S'MPI_Wtime()'
p1044
S'1796'
p1045
tp1046
a(S'MPI_Wtime()'
p1047
S'1805'
p1048
tp1049
a(S'MPI_Wtime()'
p1050
S'1807'
p1051
tp1052
a(S'MPI_Wtime()'
p1053
S'1817'
p1054
tp1055
a(S'MPI_Wtime()'
p1056
S'1819'
p1057
tp1058
a(S'MPI_Wtime()'
p1059
S'1830'
p1060
tp1061
a(S'MPI_Wtime()'
p1062
S'1832'
p1063
tp1064
a(S'MPI_Wtime()'
p1065
S'1843'
p1066
tp1067
a(S'MPI_Wtime()'
p1068
S'1845'
p1069
tp1070
a(S'MPI_Wtime()'
p1071
S'1855'
p1072
tp1073
a(S'MPI_Wtime()'
p1074
S'1857'
p1075
tp1076
a(S'MPI_Wtime()'
p1077
S'1866'
p1078
tp1079
a(S'MPI_Wtime()'
p1080
S'1868'
p1081
tp1082
a(S'MPI_Wtime()'
p1083
S'1877'
p1084
tp1085
a(S'MPI_Wtime()'
p1086
S'1879'
p1087
tp1088
a(S'MPI_Wtime()'
p1089
S'1888'
p1090
tp1091
a(S'MPI_Wtime()'
p1092
S'1890'
p1093
tp1094
a(S'MPI_Wtime()'
p1095
S'1899'
p1096
tp1097
a(S'MPI_Wtime()'
p1098
S'1901'
p1099
tp1100
a(S'MPI_Wtime()'
p1101
S'1910'
p1102
tp1103
a(S'MPI_Wtime()'
p1104
S'1912'
p1105
tp1106
a(S'MPI_Wtime()'
p1107
S'1921'
p1108
tp1109
a(S'MPI_Wtime()'
p1110
S'1923'
p1111
tp1112
a(S'MPI_Wtime()'
p1113
S'1932'
p1114
tp1115
a(S'MPI_Wtime()'
p1116
S'1934'
p1117
tp1118
a(S'MPI_Wtime()'
p1119
S'1943'
p1120
tp1121
a(S'MPI_Wtime()'
p1122
S'1945'
p1123
tp1124
a(S'MPI_Wtime()'
p1125
S'1954'
p1126
tp1127
a(S'MPI_Wtime()'
p1128
S'1956'
p1129
tp1130
a(S'MPI_Wtime()'
p1131
S'1965'
p1132
tp1133
a(S'MPI_Wtime()'
p1134
S'1967'
p1135
tp1136
a(S'MPI_Wtime()'
p1137
S'1976'
p1138
tp1139
a(S'MPI_Wtime()'
p1140
S'1978'
p1141
tp1142
a(S'MPI_Wtime()'
p1143
S'1988'
p1144
tp1145
a(S'MPI_Wtime()'
p1146
S'1990'
p1147
tp1148
a(S'MPI_Wtime()'
p1149
S'2000'
p1150
tp1151
a(S'MPI_Wtime()'
p1152
S'2002'
p1153
tp1154
a(S'MPI_Wtime()'
p1155
S'2012'
p1156
tp1157
a(S'MPI_Wtime()'
p1158
S'2014'
p1159
tp1160
a(S'MPI_Wtime()'
p1161
S'2025'
p1162
tp1163
a(S'MPI_Wtime()'
p1164
S'2027'
p1165
tp1166
a(S'MPI_Wtime()'
p1167
S'2038'
p1168
tp1169
a(S'MPI_Wtime()'
p1170
S'2040'
p1171
tp1172
a(S'MPI_Wtime()'
p1173
S'2050'
p1174
tp1175
a(S'MPI_Wtime()'
p1176
S'2052'
p1177
tp1178
a(S'MPI_Wtime()'
p1179
S'2061'
p1180
tp1181
a(S'MPI_Wtime()'
p1182
S'2063'
p1183
tp1184
a(S'MPI_Wtime()'
p1185
S'2072'
p1186
tp1187
a(S'MPI_Wtime()'
p1188
S'2074'
p1189
tp1190
a(S'MPI_Wtime()'
p1191
S'2083'
p1192
tp1193
a(S'MPI_Wtime()'
p1194
S'2085'
p1195
tp1196
a(S'MPI_Wtime()'
p1197
S'2095'
p1198
tp1199
a(S'MPI_Wtime()'
p1200
S'2097'
p1201
tp1202
a(S'MPI_Wtime()'
p1203
S'2107'
p1204
tp1205
a(S'MPI_Wtime()'
p1206
S'2109'
p1207
tp1208
a(S'MPI_Wtime()'
p1209
S'2119'
p1210
tp1211
a(S'MPI_Wtime()'
p1212
S'2121'
p1213
tp1214
a(S'MPI_Wtime()'
p1215
S'2131'
p1216
tp1217
a(S'MPI_Wtime()'
p1218
S'2133'
p1219
tp1220
a(S'MPI_Wtime()'
p1221
S'2143'
p1222
tp1223
a(S'MPI_Wtime()'
p1224
S'2145'
p1225
tp1226
a(S'MPI_Wtime()'
p1227
S'2156'
p1228
tp1229
a(S'MPI_Wtime()'
p1230
S'2158'
p1231
tp1232
a(S'MPI_Wtime()'
p1233
S'2169'
p1234
tp1235
a(S'MPI_Wtime()'
p1236
S'2171'
p1237
tp1238
a(S'MPI_Wtime()'
p1239
S'2182'
p1240
tp1241
a(S'MPI_Wtime()'
p1242
S'2184'
p1243
tp1244
a(S'MPI_Wtime()'
p1245
S'2195'
p1246
tp1247
a(S'MPI_Wtime()'
p1248
S'2197'
p1249
tp1250
a(S'MPI_Wtime()'
p1251
S'2207'
p1252
tp1253
a(S'MPI_Wtime()'
p1254
S'2209'
p1255
tp1256
a(S'MPI_Wtime()'
p1257
S'2219'
p1258
tp1259
a(S'MPI_Wtime()'
p1260
S'2221'
p1261
tp1262
a(S'MPI_Wtime()'
p1263
S'2232'
p1264
tp1265
a(S'MPI_Wtime()'
p1266
S'2234'
p1267
tp1268
a(S'MPI_Wtime()'
p1269
S'2244'
p1270
tp1271
a(S'MPI_Wtime()'
p1272
S'2246'
p1273
tp1274
a(S'MPI_Wtime()'
p1275
S'2256'
p1276
tp1277
a(S'MPI_Wtime()'
p1278
S'2258'
p1279
tp1280
a(S'MPI_Wtime()'
p1281
S'2269'
p1282
tp1283
a(S'MPI_Wtime()'
p1284
S'2271'
p1285
tp1286
a(S'MPI_Wtime()'
p1287
S'2281'
p1288
tp1289
a(S'MPI_Wtime()'
p1290
S'2283'
p1291
tp1292
a(S'MPI_Wtime()'
p1293
S'2292'
p1294
tp1295
a(S'MPI_Wtime()'
p1296
S'2294'
p1297
tp1298
a(S'MPI_Wtime()'
p1299
S'2303'
p1300
tp1301
a(S'MPI_Wtime()'
p1302
S'2305'
p1303
tp1304
a(S'MPI_Wtime()'
p1305
S'2314'
p1306
tp1307
a(S'MPI_Wtime()'
p1308
S'2316'
p1309
tp1310
a(S'MPI_Wtime()'
p1311
S'2325'
p1312
tp1313
a(S'MPI_Wtime()'
p1314
S'2327'
p1315
tp1316
a(S'MPI_Wtime()'
p1317
S'2336'
p1318
tp1319
a(S'MPI_Wtime()'
p1320
S'2338'
p1321
tp1322
a(S'MPI_Wtime()'
p1323
S'2347'
p1324
tp1325
a(S'MPI_Wtime()'
p1326
S'2349'
p1327
tp1328
a(S'MPI_Wtime()'
p1329
S'2358'
p1330
tp1331
a(S'MPI_Wtime()'
p1332
S'2360'
p1333
tp1334
a(S'MPI_Wtime()'
p1335
S'2369'
p1336
tp1337
a(S'MPI_Wtime()'
p1338
S'2371'
p1339
tp1340
a(S'MPI_Wtime()'
p1341
S'2380'
p1342
tp1343
a(S'MPI_Wtime()'
p1344
S'2382'
p1345
tp1346
a(S'MPI_Wtime()'
p1347
S'2391'
p1348
tp1349
a(S'MPI_Wtime()'
p1350
S'2393'
p1351
tp1352
a(S'MPI_Wtime()'
p1353
S'2402'
p1354
tp1355
a(S'MPI_Wtime()'
p1356
S'2404'
p1357
tp1358
a(S'MPI_Wtime()'
p1359
S'2413'
p1360
tp1361
a(S'MPI_Wtime()'
p1362
S'2415'
p1363
tp1364
a(S'MPI_Wtime()'
p1365
S'2425'
p1366
tp1367
a(S'MPI_Wtime()'
p1368
S'2427'
p1369
tp1370
a(S'MPI_Wtime()'
p1371
S'2437'
p1372
tp1373
a(S'MPI_Wtime()'
p1374
S'2439'
p1375
tp1376
a(S'MPI_Wtime()'
p1377
S'2448'
p1378
tp1379
a(S'MPI_Wtime()'
p1380
S'2450'
p1381
tp1382
a(S'MPI_Wtime()'
p1383
S'2460'
p1384
tp1385
a(S'MPI_Wtime()'
p1386
S'2462'
p1387
tp1388
a(S'MPI_Wtime()'
p1389
S'2472'
p1390
tp1391
a(S'MPI_Wtime()'
p1392
S'2474'
p1393
tp1394
a(S'MPI_Wtime()'
p1395
S'2483'
p1396
tp1397
a(S'MPI_Wtime()'
p1398
S'2485'
p1399
tp1400
a(S'MPI_Wtime()'
p1401
S'2494'
p1402
tp1403
a(S'MPI_Wtime()'
p1404
S'2496'
p1405
tp1406
a(S'MPI_Wtime()'
p1407
S'2505'
p1408
tp1409
a(S'MPI_Wtime()'
p1410
S'2507'
p1411
tp1412
a(S'MPI_Wtime()'
p1413
S'2516'
p1414
tp1415
a(S'MPI_Wtime()'
p1416
S'2518'
p1417
tp1418
a(S'MPI_Wtime()'
p1419
S'2527'
p1420
tp1421
a(S'MPI_Wtime()'
p1422
S'2529'
p1423
tp1424
a(S'MPI_Wtime()'
p1425
S'2538'
p1426
tp1427
a(S'MPI_Wtime()'
p1428
S'2540'
p1429
tp1430
a(S'MPI_Wtime()'
p1431
S'2549'
p1432
tp1433
a(S'MPI_Wtime()'
p1434
S'2551'
p1435
tp1436
a(S'MPI_Wtime()'
p1437
S'2560'
p1438
tp1439
a(S'MPI_Wtime()'
p1440
S'2562'
p1441
tp1442
a(S'MPI_Wtime()'
p1443
S'2571'
p1444
tp1445
a(S'MPI_Wtime()'
p1446
S'2573'
p1447
tp1448
a(S'MPI_Wtime()'
p1449
S'2582'
p1450
tp1451
a(S'MPI_Wtime()'
p1452
S'2584'
p1453
tp1454
a(S'MPI_Wtime()'
p1455
S'2593'
p1456
tp1457
a(S'MPI_Wtime()'
p1458
S'2595'
p1459
tp1460
a(S'MPI_Wtime()'
p1461
S'2604'
p1462
tp1463
a(S'MPI_Wtime()'
p1464
S'2606'
p1465
tp1466
a(S'MPI_Wtime()'
p1467
S'2615'
p1468
tp1469
a(S'MPI_Wtime()'
p1470
S'2617'
p1471
tp1472
a(S'MPI_Wtime()'
p1473
S'2626'
p1474
tp1475
a(S'MPI_Wtime()'
p1476
S'2628'
p1477
tp1478
a(S'MPI_Wtime()'
p1479
S'2637'
p1480
tp1481
a(S'MPI_Wtime()'
p1482
S'2639'
p1483
tp1484
a(S'MPI_Wtime()'
p1485
S'2648'
p1486
tp1487
a(S'MPI_Wtime()'
p1488
S'2650'
p1489
tp1490
a(S'MPI_Wtime()'
p1491
S'2659'
p1492
tp1493
a(S'MPI_Wtime()'
p1494
S'2661'
p1495
tp1496
a(S'MPI_Wtime()'
p1497
S'2670'
p1498
tp1499
a(S'MPI_Wtime()'
p1500
S'2672'
p1501
tp1502
a(S'MPI_Wtime()'
p1503
S'2681'
p1504
tp1505
a(S'MPI_Wtime()'
p1506
S'2683'
p1507
tp1508
a(S'MPI_Wtime()'
p1509
S'2692'
p1510
tp1511
a(S'MPI_Wtime()'
p1512
S'2694'
p1513
tp1514
a(S'MPI_Wtime()'
p1515
S'2703'
p1516
tp1517
a(S'MPI_Wtime()'
p1518
S'2705'
p1519
tp1520
a(S'MPI_Wtime()'
p1521
S'2714'
p1522
tp1523
a(S'MPI_Wtime()'
p1524
S'2716'
p1525
tp1526
a(S'MPI_Wtime()'
p1527
S'2725'
p1528
tp1529
a(S'MPI_Wtime()'
p1530
S'2727'
p1531
tp1532
a(S'MPI_Wtime()'
p1533
S'2736'
p1534
tp1535
a(S'MPI_Wtime()'
p1536
S'2738'
p1537
tp1538
a(S'MPI_Wtime()'
p1539
S'2747'
p1540
tp1541
a(S'MPI_Wtime()'
p1542
S'2749'
p1543
tp1544
a(S'MPI_Wtime()'
p1545
S'2758'
p1546
tp1547
a(S'MPI_Wtime()'
p1548
S'2760'
p1549
tp1550
a(S'MPI_Wtime()'
p1551
S'2769'
p1552
tp1553
a(S'MPI_Wtime()'
p1554
S'2771'
p1555
tp1556
a(S'MPI_Wtime()'
p1557
S'2780'
p1558
tp1559
a(S'MPI_Wtime()'
p1560
S'2782'
p1561
tp1562
a(S'MPI_Wtime()'
p1563
S'2791'
p1564
tp1565
a(S'MPI_Wtime()'
p1566
S'2793'
p1567
tp1568
a(S'MPI_Wtime()'
p1569
S'2802'
p1570
tp1571
a(S'MPI_Wtime()'
p1572
S'2804'
p1573
tp1574
a(S'MPI_Wtime()'
p1575
S'2814'
p1576
tp1577
a(S'MPI_Wtime()'
p1578
S'2816'
p1579
tp1580
a(S'MPI_Wtime()'
p1581
S'2826'
p1582
tp1583
a(S'MPI_Wtime()'
p1584
S'2828'
p1585
tp1586
a(S'MPI_Wtime()'
p1587
S'2837'
p1588
tp1589
a(S'MPI_Wtime()'
p1590
S'2839'
p1591
tp1592
a(S'MPI_Wtime()'
p1593
S'2848'
p1594
tp1595
a(S'MPI_Wtime()'
p1596
S'2850'
p1597
tp1598
a(S'MPI_Wtime()'
p1599
S'2859'
p1600
tp1601
a(S'MPI_Wtime()'
p1602
S'2861'
p1603
tp1604
a(S'MPI_Wtime()'
p1605
S'2870'
p1606
tp1607
a(S'MPI_Wtime()'
p1608
S'2872'
p1609
tp1610
a(S'MPI_Wtime()'
p1611
S'2881'
p1612
tp1613
a(S'MPI_Wtime()'
p1614
S'2883'
p1615
tp1616
a(S'MPI_Wtime()'
p1617
S'2892'
p1618
tp1619
a(S'MPI_Wtime()'
p1620
S'2894'
p1621
tp1622
a(S'MPI_Wtime()'
p1623
S'2904'
p1624
tp1625
a(S'MPI_Wtime()'
p1626
S'2906'
p1627
tp1628
a(S'MPI_Wtime()'
p1629
S'2917'
p1630
tp1631
a(S'MPI_Wtime()'
p1632
S'2919'
p1633
tp1634
a(S'MPI_Wtime()'
p1635
S'2929'
p1636
tp1637
a(S'MPI_Wtime()'
p1638
S'2931'
p1639
tp1640
a(S'MPI_Wtime()'
p1641
S'2941'
p1642
tp1643
a(S'MPI_Wtime()'
p1644
S'2943'
p1645
tp1646
a(S'MPI_Wtime()'
p1647
S'2954'
p1648
tp1649
a(S'MPI_Wtime()'
p1650
S'2956'
p1651
tp1652
a(S'MPI_Wtime()'
p1653
S'2966'
p1654
tp1655
a(S'MPI_Wtime()'
p1656
S'2968'
p1657
tp1658
a(S'MPI_Wtime()'
p1659
S'2977'
p1660
tp1661
a(S'MPI_Wtime()'
p1662
S'2979'
p1663
tp1664
a(S'MPI_Wtime()'
p1665
S'2988'
p1666
tp1667
a(S'MPI_Wtime()'
p1668
S'2990'
p1669
tp1670
a(S'MPI_Wtime()'
p1671
S'2999'
p1672
tp1673
a(S'MPI_Wtime()'
p1674
S'3001'
p1675
tp1676
a(S'MPI_Wtime()'
p1677
S'3010'
p1678
tp1679
a(S'MPI_Wtime()'
p1680
S'3012'
p1681
tp1682
a(S'MPI_Wtime()'
p1683
S'3021'
p1684
tp1685
a(S'MPI_Wtime()'
p1686
S'3023'
p1687
tp1688
a(S'MPI_Wtime()'
p1689
S'3032'
p1690
tp1691
a(S'MPI_Wtime()'
p1692
S'3034'
p1693
tp1694
a(S'MPI_Wtime()'
p1695
S'3043'
p1696
tp1697
a(S'MPI_Wtime()'
p1698
S'3045'
p1699
tp1700
a(S'MPI_Wtime()'
p1701
S'3054'
p1702
tp1703
a(S'MPI_Wtime()'
p1704
S'3056'
p1705
tp1706
a(S'MPI_Wtime()'
p1707
S'3065'
p1708
tp1709
a(S'MPI_Wtime()'
p1710
S'3067'
p1711
tp1712
a(S'MPI_Wtime()'
p1713
S'3076'
p1714
tp1715
a(S'MPI_Wtime()'
p1716
S'3078'
p1717
tp1718
a(S'MPI_Wtime()'
p1719
S'3088'
p1720
tp1721
a(S'MPI_Wtime()'
p1722
S'3090'
p1723
tp1724
a(S'MPI_Wtime()'
p1725
S'3101'
p1726
tp1727
a(S'MPI_Wtime()'
p1728
S'3103'
p1729
tp1730
a(S'MPI_Wtime()'
p1731
S'3113'
p1732
tp1733
a(S'MPI_Wtime()'
p1734
S'3115'
p1735
tp1736
a(S'MPI_Wtime()'
p1737
S'3125'
p1738
tp1739
a(S'MPI_Wtime()'
p1740
S'3127'
p1741
tp1742
a(S'MPI_Wtime()'
p1743
S'3138'
p1744
tp1745
a(S'MPI_Wtime()'
p1746
S'3140'
p1747
tp1748
a(S'MPI_Wtime()'
p1749
S'3150'
p1750
tp1751
a(S'MPI_Wtime()'
p1752
S'3152'
p1753
tp1754
a(S'MPI_Wtime()'
p1755
S'3161'
p1756
tp1757
a(S'MPI_Wtime()'
p1758
S'3163'
p1759
tp1760
a(S'MPI_Wtime()'
p1761
S'3172'
p1762
tp1763
a(S'MPI_Wtime()'
p1764
S'3174'
p1765
tp1766
a(S'MPI_Wtime()'
p1767
S'3184'
p1768
tp1769
a(S'MPI_Wtime()'
p1770
S'3186'
p1771
tp1772
a(S'MPI_Wtime()'
p1773
S'3197'
p1774
tp1775
a(S'MPI_Wtime()'
p1776
S'3199'
p1777
tp1778
a(S'MPI_Wtime()'
p1779
S'3210'
p1780
tp1781
a(S'MPI_Wtime()'
p1782
S'3212'
p1783
tp1784
a(S'MPI_Wtime()'
p1785
S'3223'
p1786
tp1787
a(S'MPI_Wtime()'
p1788
S'3225'
p1789
tp1790
a(S'MPI_Wtime()'
p1791
S'3236'
p1792
tp1793
a(S'MPI_Wtime()'
p1794
S'3238'
p1795
tp1796
a(S'MPI_Wtime()'
p1797
S'3249'
p1798
tp1799
a(S'MPI_Wtime()'
p1800
S'3251'
p1801
tp1802
a(S'MPI_Wtime()'
p1803
S'3262'
p1804
tp1805
a(S'MPI_Wtime()'
p1806
S'3264'
p1807
tp1808
a(S'MPI_Wtime()'
p1809
S'3275'
p1810
tp1811
a(S'MPI_Wtime()'
p1812
S'3277'
p1813
tp1814
a(S'MPI_Wtime()'
p1815
S'3288'
p1816
tp1817
a(S'MPI_Wtime()'
p1818
S'3290'
p1819
tp1820
a(S'MPI_Wtime()'
p1821
S'3300'
p1822
tp1823
a(S'MPI_Wtime()'
p1824
S'3302'
p1825
tp1826
a(S'MPI_Wtime()'
p1827
S'3312'
p1828
tp1829
a(S'MPI_Wtime()'
p1830
S'3314'
p1831
tp1832
a(S'MPI_Wtime()'
p1833
S'3325'
p1834
tp1835
a(S'MPI_Wtime()'
p1836
S'3327'
p1837
tp1838
a(S'MPI_Wtime()'
p1839
S'3338'
p1840
tp1841
a(S'MPI_Wtime()'
p1842
S'3340'
p1843
tp1844
a(S'MPI_Wtime()'
p1845
S'3351'
p1846
tp1847
a(S'MPI_Wtime()'
p1848
S'3353'
p1849
tp1850
a(S'MPI_Wtime()'
p1851
S'3364'
p1852
tp1853
a(S'MPI_Wtime()'
p1854
S'3366'
p1855
tp1856
a(S'MPI_Wtime()'
p1857
S'3376'
p1858
tp1859
a(S'MPI_Wtime()'
p1860
S'3378'
p1861
tp1862
a(S'MPI_Wtime()'
p1863
S'3387'
p1864
tp1865
a(S'MPI_Wtime()'
p1866
S'3389'
p1867
tp1868
a(S'MPI_Wtime()'
p1869
S'3398'
p1870
tp1871
a(S'MPI_Wtime()'
p1872
S'3400'
p1873
tp1874
a(S'MPI_Comm_rank()'
p1875
S'3408'
p1876
tp1877
a(S'MPI_Comm_size()'
p1878
S'3409'
p1879
tp1880
a(S'MPI_Comm_rank()'
p1881
S'3416'
p1882
tp1883
a(S'MPI_Comm_size()'
p1884
S'3417'
p1885
tp1886
a(S'MPI_Reduce()'
p1887
S'3429'
p1888
tp1889
a(S'MPI_Reduce()'
p1890
S'3434'
p1891
tp1892
a(S'MPI_Reduce()'
p1893
S'3439'
p1894
tp1895
a(S'MPI_Reduce()'
p1896
S'3444'
p1897
tp1898
a(S'MPI_Reduce()'
p1899
S'3449'
p1900
tp1901
a(S'MPI_Reduce()'
p1902
S'3454'
p1903
tp1904
a(S'MPI_Reduce()'
p1905
S'3459'
p1906
tp1907
a(S'MPI_Reduce()'
p1908
S'3464'
p1909
tp1910
a(S'MPI_Reduce()'
p1911
S'3469'
p1912
tp1913
a(S'MPI_Reduce()'
p1914
S'3474'
p1915
tp1916
a(S'MPI_Reduce()'
p1917
S'3479'
p1918
tp1919
a(S'MPI_Reduce()'
p1920
S'3484'
p1921
tp1922
a(S'MPI_Reduce()'
p1923
S'3489'
p1924
tp1925
a(S'MPI_Reduce()'
p1926
S'3494'
p1927
tp1928
a(S'MPI_Reduce()'
p1929
S'3499'
p1930
tp1931
a(S'MPI_Reduce()'
p1932
S'3504'
p1933
tp1934
a(S'MPI_Reduce()'
p1935
S'3509'
p1936
tp1937
a(S'MPI_Reduce()'
p1938
S'3514'
p1939
tp1940
a(S'MPI_Reduce()'
p1941
S'3519'
p1942
tp1943
a(S'MPI_Reduce()'
p1944
S'3524'
p1945
tp1946
a(S'MPI_Reduce()'
p1947
S'3529'
p1948
tp1949
a(S'MPI_Reduce()'
p1950
S'3534'
p1951
tp1952
a(S'MPI_Reduce()'
p1953
S'3539'
p1954
tp1955
a(S'MPI_Reduce()'
p1956
S'3544'
p1957
tp1958
a(S'MPI_Reduce()'
p1959
S'3549'
p1960
tp1961
a(S'MPI_Reduce()'
p1962
S'3554'
p1963
tp1964
a(S'MPI_Reduce()'
p1965
S'3559'
p1966
tp1967
a(S'MPI_Reduce()'
p1968
S'3564'
p1969
tp1970
a(S'MPI_Reduce()'
p1971
S'3569'
p1972
tp1973
a(S'MPI_Reduce()'
p1974
S'3574'
p1975
tp1976
a(S'MPI_Reduce()'
p1977
S'3579'
p1978
tp1979
a(S'MPI_Reduce()'
p1980
S'3584'
p1981
tp1982
a(S'MPI_Reduce()'
p1983
S'3589'
p1984
tp1985
a(S'MPI_Reduce()'
p1986
S'3594'
p1987
tp1988
a(S'MPI_Reduce()'
p1989
S'3599'
p1990
tp1991
a(S'MPI_Reduce()'
p1992
S'3604'
p1993
tp1994
a(S'MPI_Reduce()'
p1995
S'3609'
p1996
tp1997
a(S'MPI_Reduce()'
p1998
S'3614'
p1999
tp2000
a(S'MPI_Reduce()'
p2001
S'3619'
p2002
tp2003
a(S'MPI_Reduce()'
p2004
S'3624'
p2005
tp2006
a(S'MPI_Reduce()'
p2007
S'3629'
p2008
tp2009
a(S'MPI_Reduce()'
p2010
S'3634'
p2011
tp2012
a(S'MPI_Reduce()'
p2013
S'3639'
p2014
tp2015
a(S'MPI_Reduce()'
p2016
S'3644'
p2017
tp2018
a(S'MPI_Reduce()'
p2019
S'3649'
p2020
tp2021
a(S'MPI_Reduce()'
p2022
S'3654'
p2023
tp2024
a(S'MPI_Reduce()'
p2025
S'3659'
p2026
tp2027
a(S'MPI_Reduce()'
p2028
S'3664'
p2029
tp2030
a(S'MPI_Reduce()'
p2031
S'3669'
p2032
tp2033
a(S'MPI_Reduce()'
p2034
S'3674'
p2035
tp2036
a(S'MPI_Reduce()'
p2037
S'3679'
p2038
tp2039
a(S'MPI_Reduce()'
p2040
S'3684'
p2041
tp2042
a(S'MPI_Reduce()'
p2043
S'3689'
p2044
tp2045
a(S'MPI_Reduce()'
p2046
S'3694'
p2047
tp2048
a(S'MPI_Reduce()'
p2049
S'3699'
p2050
tp2051
a(S'MPI_Reduce()'
p2052
S'3704'
p2053
tp2054
a(S'MPI_Reduce()'
p2055
S'3709'
p2056
tp2057
a(S'MPI_Reduce()'
p2058
S'3714'
p2059
tp2060
a(S'MPI_Reduce()'
p2061
S'3719'
p2062
tp2063
a(S'MPI_Reduce()'
p2064
S'3724'
p2065
tp2066
a(S'MPI_Reduce()'
p2067
S'3729'
p2068
tp2069
a(S'MPI_Reduce()'
p2070
S'3734'
p2071
tp2072
a(S'MPI_Reduce()'
p2073
S'3739'
p2074
tp2075
a(S'MPI_Reduce()'
p2076
S'3744'
p2077
tp2078
a(S'MPI_Reduce()'
p2079
S'3749'
p2080
tp2081
a(S'MPI_Reduce()'
p2082
S'3754'
p2083
tp2084
a(S'MPI_Reduce()'
p2085
S'3759'
p2086
tp2087
a(S'MPI_Reduce()'
p2088
S'3764'
p2089
tp2090
a(S'MPI_Reduce()'
p2091
S'3769'
p2092
tp2093
a(S'MPI_Reduce()'
p2094
S'3774'
p2095
tp2096
a(S'MPI_Reduce()'
p2097
S'3779'
p2098
tp2099
a(S'MPI_Reduce()'
p2100
S'3784'
p2101
tp2102
a(S'MPI_Reduce()'
p2103
S'3789'
p2104
tp2105
a(S'MPI_Reduce()'
p2106
S'3794'
p2107
tp2108
a(S'MPI_Reduce()'
p2109
S'3799'
p2110
tp2111
a(S'MPI_Reduce()'
p2112
S'3804'
p2113
tp2114
a(S'MPI_Reduce()'
p2115
S'3809'
p2116
tp2117
a(S'MPI_Reduce()'
p2118
S'3814'
p2119
tp2120
a(S'MPI_Reduce()'
p2121
S'3819'
p2122
tp2123
a(S'MPI_Reduce()'
p2124
S'3824'
p2125
tp2126
a(S'MPI_Reduce()'
p2127
S'3829'
p2128
tp2129
a(S'MPI_Reduce()'
p2130
S'3834'
p2131
tp2132
a(S'MPI_Reduce()'
p2133
S'3839'
p2134
tp2135
a(S'MPI_Reduce()'
p2136
S'3844'
p2137
tp2138
a(S'MPI_Reduce()'
p2139
S'3849'
p2140
tp2141
a(S'MPI_Reduce()'
p2142
S'3854'
p2143
tp2144
a(S'MPI_Reduce()'
p2145
S'3859'
p2146
tp2147
a(S'MPI_Reduce()'
p2148
S'3864'
p2149
tp2150
a(S'MPI_Reduce()'
p2151
S'3869'
p2152
tp2153
a(S'MPI_Reduce()'
p2154
S'3874'
p2155
tp2156
a(S'MPI_Reduce()'
p2157
S'3879'
p2158
tp2159
a(S'MPI_Reduce()'
p2160
S'3884'
p2161
tp2162
a(S'MPI_Reduce()'
p2163
S'3889'
p2164
tp2165
a(S'MPI_Reduce()'
p2166
S'3894'
p2167
tp2168
a(S'MPI_Reduce()'
p2169
S'3899'
p2170
tp2171
a(S'MPI_Reduce()'
p2172
S'3904'
p2173
tp2174
a(S'MPI_Reduce()'
p2175
S'3909'
p2176
tp2177
a(S'MPI_Reduce()'
p2178
S'3914'
p2179
tp2180
a(S'MPI_Reduce()'
p2181
S'3919'
p2182
tp2183
a(S'MPI_Reduce()'
p2184
S'3924'
p2185
tp2186
a(S'MPI_Reduce()'
p2187
S'3929'
p2188
tp2189
a(S'MPI_Reduce()'
p2190
S'3934'
p2191
tp2192
a(S'MPI_Reduce()'
p2193
S'3939'
p2194
tp2195
a(S'MPI_Reduce()'
p2196
S'3944'
p2197
tp2198
a(S'MPI_Reduce()'
p2199
S'3949'
p2200
tp2201
a(S'MPI_Reduce()'
p2202
S'3954'
p2203
tp2204
a(S'MPI_Reduce()'
p2205
S'3959'
p2206
tp2207
a(S'MPI_Reduce()'
p2208
S'3964'
p2209
tp2210
a(S'MPI_Reduce()'
p2211
S'3969'
p2212
tp2213
a(S'MPI_Reduce()'
p2214
S'3974'
p2215
tp2216
a(S'MPI_Reduce()'
p2217
S'3979'
p2218
tp2219
a(S'MPI_Reduce()'
p2220
S'3984'
p2221
tp2222
a(S'MPI_Reduce()'
p2223
S'3989'
p2224
tp2225
a(S'MPI_Reduce()'
p2226
S'3994'
p2227
tp2228
a(S'MPI_Reduce()'
p2229
S'3999'
p2230
tp2231
a(S'MPI_Reduce()'
p2232
S'4004'
p2233
tp2234
a(S'MPI_Reduce()'
p2235
S'4009'
p2236
tp2237
a(S'MPI_Reduce()'
p2238
S'4014'
p2239
tp2240
a(S'MPI_Reduce()'
p2241
S'4019'
p2242
tp2243
a(S'MPI_Reduce()'
p2244
S'4024'
p2245
tp2246
a(S'MPI_Reduce()'
p2247
S'4029'
p2248
tp2249
a(S'MPI_Reduce()'
p2250
S'4034'
p2251
tp2252
a(S'MPI_Reduce()'
p2253
S'4039'
p2254
tp2255
a(S'MPI_Reduce()'
p2256
S'4044'
p2257
tp2258
a(S'MPI_Reduce()'
p2259
S'4049'
p2260
tp2261
a(S'MPI_Reduce()'
p2262
S'4054'
p2263
tp2264
a(S'MPI_Reduce()'
p2265
S'4059'
p2266
tp2267
a(S'MPI_Reduce()'
p2268
S'4064'
p2269
tp2270
a(S'MPI_Reduce()'
p2271
S'4069'
p2272
tp2273
a(S'MPI_Reduce()'
p2274
S'4074'
p2275
tp2276
a(S'MPI_Reduce()'
p2277
S'4079'
p2278
tp2279
a(S'MPI_Reduce()'
p2280
S'4084'
p2281
tp2282
a(S'MPI_Reduce()'
p2283
S'4089'
p2284
tp2285
a(S'MPI_Reduce()'
p2286
S'4094'
p2287
tp2288
a(S'MPI_Reduce()'
p2289
S'4099'
p2290
tp2291
a(S'MPI_Reduce()'
p2292
S'4104'
p2293
tp2294
a(S'MPI_Reduce()'
p2295
S'4109'
p2296
tp2297
a(S'MPI_Reduce()'
p2298
S'4114'
p2299
tp2300
a(S'MPI_Reduce()'
p2301
S'4119'
p2302
tp2303
a(S'MPI_Reduce()'
p2304
S'4124'
p2305
tp2306
a(S'MPI_Reduce()'
p2307
S'4129'
p2308
tp2309
a(S'MPI_Reduce()'
p2310
S'4134'
p2311
tp2312
a(S'MPI_Reduce()'
p2313
S'4139'
p2314
tp2315
a(S'MPI_Reduce()'
p2316
S'4144'
p2317
tp2318
a(S'MPI_Reduce()'
p2319
S'4149'
p2320
tp2321
a(S'MPI_Reduce()'
p2322
S'4154'
p2323
tp2324
a(S'MPI_Reduce()'
p2325
S'4159'
p2326
tp2327
a(S'MPI_Reduce()'
p2328
S'4164'
p2329
tp2330
a(S'MPI_Reduce()'
p2331
S'4169'
p2332
tp2333
a(S'MPI_Reduce()'
p2334
S'4174'
p2335
tp2336
a(S'MPI_Reduce()'
p2337
S'4179'
p2338
tp2339
a(S'MPI_Reduce()'
p2340
S'4184'
p2341
tp2342
a(S'MPI_Reduce()'
p2343
S'4189'
p2344
tp2345
a(S'MPI_Reduce()'
p2346
S'4194'
p2347
tp2348
a(S'MPI_Reduce()'
p2349
S'4199'
p2350
tp2351
a(S'MPI_Reduce()'
p2352
S'4204'
p2353
tp2354
a(S'MPI_Reduce()'
p2355
S'4209'
p2356
tp2357
a(S'MPI_Reduce()'
p2358
S'4214'
p2359
tp2360
a(S'MPI_Reduce()'
p2361
S'4219'
p2362
tp2363
a(S'MPI_Reduce()'
p2364
S'4224'
p2365
tp2366
a(S'MPI_Reduce()'
p2367
S'4229'
p2368
tp2369
a(S'MPI_Reduce()'
p2370
S'4234'
p2371
tp2372
a(S'MPI_Reduce()'
p2373
S'4239'
p2374
tp2375
a(S'MPI_Reduce()'
p2376
S'4244'
p2377
tp2378
a(S'MPI_Reduce()'
p2379
S'4249'
p2380
tp2381
a(S'MPI_Reduce()'
p2382
S'4254'
p2383
tp2384
a(S'MPI_Reduce()'
p2385
S'4259'
p2386
tp2387
a(S'MPI_Reduce()'
p2388
S'4264'
p2389
tp2390
a(S'MPI_Reduce()'
p2391
S'4269'
p2392
tp2393
a(S'MPI_Reduce()'
p2394
S'4274'
p2395
tp2396
a(S'MPI_Reduce()'
p2397
S'4279'
p2398
tp2399
a(S'MPI_Reduce()'
p2400
S'4284'
p2401
tp2402
a(S'MPI_Reduce()'
p2403
S'4289'
p2404
tp2405
a(S'MPI_Reduce()'
p2406
S'4294'
p2407
tp2408
a(S'MPI_Reduce()'
p2409
S'4299'
p2410
tp2411
a(S'MPI_Reduce()'
p2412
S'4304'
p2413
tp2414
a(S'MPI_Reduce()'
p2415
S'4309'
p2416
tp2417
a(S'MPI_Reduce()'
p2418
S'4314'
p2419
tp2420
a(S'MPI_Reduce()'
p2421
S'4319'
p2422
tp2423
a(S'MPI_Reduce()'
p2424
S'4324'
p2425
tp2426
a(S'MPI_Reduce()'
p2427
S'4329'
p2428
tp2429
a(S'MPI_Reduce()'
p2430
S'4334'
p2431
tp2432
a(S'MPI_Reduce()'
p2433
S'4339'
p2434
tp2435
a(S'MPI_Reduce()'
p2436
S'4344'
p2437
tp2438
a(S'MPI_Reduce()'
p2439
S'4349'
p2440
tp2441
a(S'MPI_Reduce()'
p2442
S'4354'
p2443
tp2444
a(S'MPI_Reduce()'
p2445
S'4359'
p2446
tp2447
a(S'MPI_Reduce()'
p2448
S'4364'
p2449
tp2450
a(S'MPI_Reduce()'
p2451
S'4369'
p2452
tp2453
a(S'MPI_Reduce()'
p2454
S'4374'
p2455
tp2456
a(S'MPI_Reduce()'
p2457
S'4379'
p2458
tp2459
a(S'MPI_Reduce()'
p2460
S'4384'
p2461
tp2462
a(S'MPI_Reduce()'
p2463
S'4389'
p2464
tp2465
a(S'MPI_Reduce()'
p2466
S'4394'
p2467
tp2468
a(S'MPI_Reduce()'
p2469
S'4399'
p2470
tp2471
a(S'MPI_Reduce()'
p2472
S'4404'
p2473
tp2474
a(S'MPI_Reduce()'
p2475
S'4409'
p2476
tp2477
a(S'MPI_Reduce()'
p2478
S'4414'
p2479
tp2480
a(S'MPI_Reduce()'
p2481
S'4419'
p2482
tp2483
a(S'MPI_Reduce()'
p2484
S'4424'
p2485
tp2486
a(S'MPI_Reduce()'
p2487
S'4429'
p2488
tp2489
a(S'MPI_Reduce()'
p2490
S'4434'
p2491
tp2492
a(S'MPI_Reduce()'
p2493
S'4439'
p2494
tp2495
a(S'MPI_Reduce()'
p2496
S'4444'
p2497
tp2498
a(S'MPI_Reduce()'
p2499
S'4449'
p2500
tp2501
a(S'MPI_Reduce()'
p2502
S'4454'
p2503
tp2504
a(S'MPI_Reduce()'
p2505
S'4459'
p2506
tp2507
a(S'MPI_Reduce()'
p2508
S'4464'
p2509
tp2510
a(S'MPI_Reduce()'
p2511
S'4469'
p2512
tp2513
a(S'MPI_Reduce()'
p2514
S'4474'
p2515
tp2516
a(S'MPI_Reduce()'
p2517
S'4479'
p2518
tp2519
a(S'MPI_Reduce()'
p2520
S'4484'
p2521
tp2522
a(S'MPI_Reduce()'
p2523
S'4489'
p2524
tp2525
a(S'MPI_Reduce()'
p2526
S'4494'
p2527
tp2528
a(S'MPI_Reduce()'
p2529
S'4499'
p2530
tp2531
a(S'MPI_Reduce()'
p2532
S'4504'
p2533
tp2534
a(S'MPI_Reduce()'
p2535
S'4509'
p2536
tp2537
a(S'MPI_Reduce()'
p2538
S'4514'
p2539
tp2540
a(S'MPI_Reduce()'
p2541
S'4519'
p2542
tp2543
a(S'MPI_Reduce()'
p2544
S'4524'
p2545
tp2546
a(S'MPI_Reduce()'
p2547
S'4529'
p2548
tp2549
a(S'MPI_Reduce()'
p2550
S'4534'
p2551
tp2552
a(S'MPI_Reduce()'
p2553
S'4539'
p2554
tp2555
a(S'MPI_Reduce()'
p2556
S'4544'
p2557
tp2558
a(S'MPI_Reduce()'
p2559
S'4549'
p2560
tp2561
a(S'MPI_Reduce()'
p2562
S'4554'
p2563
tp2564
a(S'MPI_Reduce()'
p2565
S'4559'
p2566
tp2567
a(S'MPI_Reduce()'
p2568
S'4564'
p2569
tp2570
a(S'MPI_Reduce()'
p2571
S'4569'
p2572
tp2573
a(S'MPI_Reduce()'
p2574
S'4574'
p2575
tp2576
a(S'MPI_Reduce()'
p2577
S'4579'
p2578
tp2579
a(S'MPI_Reduce()'
p2580
S'4584'
p2581
tp2582
a(S'MPI_Reduce()'
p2583
S'4589'
p2584
tp2585
a(S'MPI_Reduce()'
p2586
S'4594'
p2587
tp2588
a(S'MPI_Reduce()'
p2589
S'4599'
p2590
tp2591
a(S'MPI_Reduce()'
p2592
S'4604'
p2593
tp2594
a(S'MPI_Reduce()'
p2595
S'4609'
p2596
tp2597
a(S'MPI_Reduce()'
p2598
S'4614'
p2599
tp2600
a(S'MPI_Reduce()'
p2601
S'4619'
p2602
tp2603
a(S'MPI_Reduce()'
p2604
S'4624'
p2605
tp2606
a(S'MPI_Reduce()'
p2607
S'4629'
p2608
tp2609
a(S'MPI_Reduce()'
p2610
S'4634'
p2611
tp2612
a(S'MPI_Reduce()'
p2613
S'4639'
p2614
tp2615
a(S'MPI_Reduce()'
p2616
S'4644'
p2617
tp2618
a(S'MPI_Reduce()'
p2619
S'4649'
p2620
tp2621
a(S'MPI_Reduce()'
p2622
S'4654'
p2623
tp2624
a(S'MPI_Reduce()'
p2625
S'4659'
p2626
tp2627
a(S'MPI_Reduce()'
p2628
S'4664'
p2629
tp2630
a(S'MPI_Reduce()'
p2631
S'4669'
p2632
tp2633
a(S'MPI_Reduce()'
p2634
S'4674'
p2635
tp2636
a(S'MPI_Reduce()'
p2637
S'4679'
p2638
tp2639
asS'nwchem-6.6-revision27746/src/tools/ga-5-4/global/testing/unit-tests/ga_fillpatch1.c'
p2640
(lp2641
(S'MPI_Init()'
p2642
S'24'
p2643
tp2644
a(S'MPI_Comm_rank()'
p2645
S'26'
p2646
tp2647
a(S'MPI_Comm_size()'
p2648
S'27'
p2649
tp2650
a(S'MPI_Finalize()'
p2651
S'81'
p2652
tp2653
asS'nwchem-6.6-revision27746/contrib/openmp_tests/dgemm/dgemm_mpi.F'
p2654
(lp2655
(S'MPI_Init()'
p2656
S'77'
p2657
tp2658
a(S'MPI_Comm_size()'
p2659
S'78'
p2660
tp2661
a(S'MPI_Comm_rank()'
p2662
S'79'
p2663
tp2664
a(S'MPI_Abort()'
p2665
S'88'
p2666
tp2667
a(S'MPI_Abort()'
p2668
S'112'
p2669
tp2670
a(S'MPI_Abort()'
p2671
S'118'
p2672
tp2673
a(S'MPI_Bcast()'
p2674
S'136'
p2675
tp2676
a(S'MPI_Abort()'
p2677
S'141'
p2678
tp2679
a(S'MPI_Send()'
p2680
S'160'
p2681
tp2682
a(S'MPI_Send()'
p2683
S'163'
p2684
tp2685
a(S'MPI_Recv()'
p2686
S'174'
p2687
tp2688
a(S'MPI_Recv()'
p2689
S'178'
p2690
tp2691
a(S'MPI_Barrier()'
p2692
S'184'
p2693
tp2694
a(S'MPI_Recv()'
p2695
S'205'
p2696
tp2697
a(S'MPI_Send()'
p2698
S'214'
p2699
tp2700
a(S'MPI_Finalize()'
p2701
S'232'
p2702
tp2703
a(S'MPI_Comm_size()'
p2704
S'305'
p2705
tp2706
a(S'MPI_Comm_rank()'
p2707
S'306'
p2708
tp2709
a(S'MPI_Comm_split()'
p2710
S'321'
p2711
tp2712
a(S'MPI_Comm_split()'
p2713
S'322'
p2714
tp2715
a(S'MPI_Comm_rank()'
p2716
S'324'
p2717
tp2718
a(S'MPI_Comm_rank()'
p2719
S'330'
p2720
tp2721
a(S'MPI_Comm_rank()'
p2722
S'331'
p2723
tp2724
a(S'MPI_Bcast()'
p2725
S'349'
p2726
tp2727
a(S'MPI_Bcast()'
p2728
S'364'
p2729
tp2730
a(S'MPI_Comm_free()'
p2731
S'373'
p2732
tp2733
a(S'MPI_Comm_free()'
p2734
S'374'
p2735
tp2736
a(S'MPI_Barrier()'
p2737
S'375'
p2738
tp2739
asS'nwchem-6.6-revision27746/src/tools/ga-5-4/armci/src/devices/mpi-spawn/mpi2.h'
p2740
(lp2741
(S'X_MPI_SPAWN_DEBUG()'
p2742
S'6'
p2743
tp2744
a(S'X_MPI_SPAWN_ZEROCOPY()'
p2745
S'8'
p2746
tp2747
asS'nwchem-6.6-revision27746/src/tools/ga-5-4/armci/src-gemini/message.c'
p2748
(lp2749
(S'MPI_Barrier()'
p2750
S'431'
p2751
tp2752
a(S'MPI_Initialized()'
p2753
S'462'
p2754
tp2755
a(S'MPI_Init_thread()'
p2756
S'466'
p2757
tp2758
a(S'MPI_Init()'
p2759
S'468'
p2760
tp2761
a(S'MPI_Comm_dup()'
p2762
S'472'
p2763
tp2764
a(S'MPI_Comm_rank()'
p2765
S'488'
p2766
tp2767
a(S'MPI_Comm_size()'
p2768
S'512'
p2769
tp2770
a(S'MPI_Abort()'
p2771
S'553'
p2772
tp2773
a(S'MPI_Finalize()'
p2774
S'572'
p2775
tp2776
a(S'MPI_Bcast()'
p2777
S'820'
p2778
tp2779
a(S'MPI_Send()'
p2780
S'835'
p2781
tp2782
a(S'MPI_Recv()'
p2783
S'859'
p2784
tp2785
a(S'MPI_Recv()'
p2786
S'882'
p2787
tp2788
a(S'MPI_Barrier()'
p2789
S'1915'
p2790
tp2791
a(S'MPI_Comm_group()'
p2792
S'1947'
p2793
tp2794
a(S'MPI_Group_incl()'
p2795
S'1948'
p2796
tp2797
a(S'MPI_Comm_create()'
p2798
S'1950'
p2799
tp2800
a(S'MPI_Comm_free()'
p2801
S'1957'
p2802
tp2803
a(S'MPI_Group_free()'
p2804
S'1958'
p2805
tp2806
asS'nwchem-6.6-revision27746/src/tools/ga-5-4/global/testing/unit-tests/ga_create1.c'
p2807
(lp2808
(S'MPI_Init()'
p2809
S'35'
p2810
tp2811
a(S'MPI_Comm_rank()'
p2812
S'37'
p2813
tp2814
a(S'MPI_Comm_size()'
p2815
S'38'
p2816
tp2817
a(S'MPI_Finalize()'
p2818
S'51'
p2819
tp2820
asS'nwchem-6.6-revision27746/src/tools/ga-5-4/armci/testing/rpl_armci_msg_finalize.c'
p2821
(lp2822
(S'MPI_Finalize()'
p2823
S'9'
p2824
tp2825
asS'nwchem-6.6-revision27746/src/tools/ga-5-4/armci/f90/testa.F90'
p2826
(lp2827
(S'mpi_init()'
p2828
S'29'
p2829
tp2830
a(S'mpi_comm_rank()'
p2831
S'30'
p2832
tp2833
a(S'mpi_comm_size()'
p2834
S'31'
p2835
tp2836
a(S'mpi_barrier()'
p2837
S'95'
p2838
tp2839
a(S'mpi_finalize()'
p2840
S'99'
p2841
tp2842
asS'nwchem-6.6-revision27746/src/tools/ga-5-4/global/src/global.util.c'
p2843
(lp2844
(S'MPI_Wtime()'
p2845
S'1050'
p2846
tp2847
asS'nwchem-6.6-revision27746/src/tools/ga-5-4/armci/f90/testanb.f90'
p2848
(lp2849
(S'mpi_init()'
p2850
S'18'
p2851
tp2852
a(S'mpi_comm_rank()'
p2853
S'19'
p2854
tp2855
a(S'mpi_comm_size()'
p2856
S'20'
p2857
tp2858
a(S'mpi_finalize()'
p2859
S'44'
p2860
tp2861
asS'nwchem-6.6-revision27746/src/tools/ga-5-4/global/testing/unit-tests/ga_set_diagonal.c'
p2862
(lp2863
(S'MPI_Init()'
p2864
S'26'
p2865
tp2866
a(S'MPI_Comm_rank()'
p2867
S'28'
p2868
tp2869
a(S'MPI_Comm_size()'
p2870
S'29'
p2871
tp2872
a(S'MPI_Finalize()'
p2873
S'55'
p2874
tp2875
asS'nwchem-6.6-revision27746/src/tools/ga-5-4/tascel/examples/scf/main.c'
p2876
(lp2877
(S'MPI_Wtime()'
p2878
S'21'
p2879
tp2880
a(S'MPI_Wtime()'
p2881
S'26'
p2882
tp2883
a(S'MPI_Init()'
p2884
S'47'
p2885
tp2886
a(S'MPI_Finalize()'
p2887
S'53'
p2888
tp2889
asS'nwchem-6.6-revision27746/src/tools/ga-5-4/global/testing/unit-tests/ga_pgroup_nnodes_nodeid.c'
p2890
(lp2891
(S'MPI_Init()'
p2892
S'97'
p2893
tp2894
a(S'MPI_Comm_rank()'
p2895
S'99'
p2896
tp2897
a(S'MPI_Comm_size()'
p2898
S'100'
p2899
tp2900
a(S'MPI_Finalize()'
p2901
S'116'
p2902
tp2903
asS'nwchem-6.6-revision27746/src/tools/ga-5-4/global/testing/simple_groups_commc.c'
p2904
(lp2905
(S'MPI_Allreduce()'
p2906
S'63'
p2907
tp2908
asS'nwchem-6.6-revision27746/src/tools/ga-5-4/global/testing/unit-tests/ga_create3.c'
p2909
(lp2910
(S'MPI_Init()'
p2911
S'39'
p2912
tp2913
a(S'MPI_Comm_rank()'
p2914
S'41'
p2915
tp2916
a(S'MPI_Comm_size()'
p2917
S'42'
p2918
tp2919
a(S'MPI_Finalize()'
p2920
S'56'
p2921
tp2922
asS'nwchem-6.6-revision27746/src/tools/ga-5-4/global/testing/unit-tests/ga_transpose2.c'
p2923
(lp2924
(S'MPI_Init()'
p2925
S'54'
p2926
tp2927
a(S'MPI_Comm_rank()'
p2928
S'56'
p2929
tp2930
a(S'MPI_Comm_size()'
p2931
S'57'
p2932
tp2933
a(S'MPI_Finalize()'
p2934
S'86'
p2935
tp2936
asS'nwchem-6.6-revision27746/src/util/util_mygabcast.c'
p2937
(lp2938
(S'MPI_Error_string()'
p2939
S'55'
p2940
tp2941
a(S'MPI_Barrier()'
p2942
S'62'
p2943
tp2944
asS'nwchem-6.6-revision27746/src/tools/ga-5-4/gfutex/src/micro_gf.C'
p2945
(lp2946
(S'MPI_Init()'
p2947
S'30'
p2948
tp2949
a(S'MPI_Barrier()'
p2950
S'43'
p2951
tp2952
a(S'MPI_Wtime()'
p2953
S'56'
p2954
tp2955
a(S'MPI_Wtime()'
p2956
S'60'
p2957
tp2958
a(S'MPI_Barrier()'
p2959
S'62'
p2960
tp2961
a(S'MPI_Wtime()'
p2962
S'64'
p2963
tp2964
a(S'MPI_Wtime()'
p2965
S'66'
p2966
tp2967
a(S'MPI_Barrier()'
p2968
S'71'
p2969
tp2970
a(S'MPI_Wtime()'
p2971
S'73'
p2972
tp2973
a(S'MPI_Wtime()'
p2974
S'77'
p2975
tp2976
a(S'MPI_Barrier()'
p2977
S'79'
p2978
tp2979
a(S'MPI_Wtime()'
p2980
S'81'
p2981
tp2982
a(S'MPI_Wtime()'
p2983
S'83'
p2984
tp2985
a(S'MPI_Barrier()'
p2986
S'88'
p2987
tp2988
a(S'MPI_Finalize()'
p2989
S'95'
p2990
tp2991
asS'nwchem-6.6-revision27746/src/tools/ga-5-4/armci/src/devices/mpi-spawn/mpi2_client.c'
p2992
(lp2993
(S'MPI_Check()'
p2994
S'135'
p2995
tp2996
a(S'MPI_Send()'
p2997
S'136'
p2998
tp2999
a(S'MPI_Check()'
p3000
S'142'
p3001
tp3002
a(S'MPI_Recv()'
p3003
S'143'
p3004
tp3005
a(S'MPI_Check()'
p3006
S'170'
p3007
tp3008
a(S'MPI_Check()'
p3009
S'173'
p3010
tp3011
a(S'MPI_Check()'
p3012
S'177'
p3013
tp3014
a(S'MPI_Check()'
p3015
S'182'
p3016
tp3017
a(S'MPI_Check()'
p3018
S'208'
p3019
tp3020
a(S'MPI_Send()'
p3021
S'209'
p3022
tp3023
a(S'MPI_Check()'
p3024
S'218'
p3025
tp3026
a(S'MPI_Send()'
p3027
S'219'
p3028
tp3029
a(S'MPI_Check()'
p3030
S'284'
p3031
tp3032
a(S'MPI_Recv()'
p3033
S'285'
p3034
tp3035
a(S'MPI_Get_count()'
p3036
S'296'
p3037
tp3038
a(S'MPI_Get_processor_name()'
p3039
S'363'
p3040
tp3041
a(S'MPI_Check()'
p3042
S'364'
p3043
tp3044
a(S'MPI_Allgather()'
p3045
S'365'
p3046
tp3047
a(S'MPI_Check()'
p3048
S'379'
p3049
tp3050
a(S'MPI_Info_create()'
p3051
S'463'
p3052
tp3053
a(S'MPI_Info_set()'
p3054
S'466'
p3055
tp3056
a(S'MPI_Info_set()'
p3057
S'468'
p3058
tp3059
a(S'MPI_Check()'
p3060
S'478'
p3061
tp3062
a(S'MPI_Comm_spawn_multiple()'
p3063
S'479'
p3064
tp3065
a(S'MPI_Initialized()'
p3066
S'506'
p3067
tp3068
a(S'MPI_Comm_rank()'
p3069
S'510'
p3070
tp3071
a(S'MPI_Comm_size()'
p3072
S'511'
p3073
tp3074
a(S'MPI_Send()'
p3075
S'535'
p3076
tp3077
a(S'MPI_Send()'
p3078
S'539'
p3079
tp3080
a(S'MPI_Send()'
p3081
S'552'
p3082
tp3083
a(S'MPI_Barrier()'
p3084
S'563'
p3085
tp3086
asS'nwchem-6.6-revision27746/src/tools/ga-5-4/armci/src-gemini/groups.c'
p3087
(lp3088
(S'MPI_Comm_compare()'
p3089
S'87'
p3090
tp3091
a(S'MPI_Group_size()'
p3092
S'111'
p3093
tp3094
a(S'MPI_Comm_group()'
p3095
S'124'
p3096
tp3097
a(S'MPI_Group_translate_ranks()'
p3098
S'125'
p3099
tp3100
a(S'MPI_Comm_group()'
p3101
S'164'
p3102
tp3103
a(S'MPI_Group_translate_ranks()'
p3104
S'165'
p3105
tp3106
a(S'MPI_Comm_free()'
p3107
S'363'
p3108
tp3109
a(S'MPI_Group_rank()'
p3110
S'466'
p3111
tp3112
a(S'MPI_Comm_dup()'
p3113
S'472'
p3114
tp3115
a(S'MPI_Intercomm_create()'
p3116
S'481'
p3117
tp3118
a(S'MPI_Comm_free()'
p3119
S'482'
p3120
tp3121
a(S'MPI_Intercomm_merge()'
p3122
S'483'
p3123
tp3124
a(S'MPI_Comm_free()'
p3125
S'484'
p3126
tp3127
a(S'MPI_Group_free()'
p3128
S'491'
p3129
tp3130
a(S'MPI_Comm_group()'
p3131
S'492'
p3132
tp3133
a(S'MPI_Comm_group()'
p3134
S'539'
p3135
tp3136
a(S'MPI_Group_rank()'
p3137
S'542'
p3138
tp3139
asS'nwchem-6.6-revision27746/src/tools/ga-5-4/global/examples/scf/ft-scf.F'
p3140
(lp3141
(S'mpi_init()'
p3142
S'21'
p3143
tp3144
asS'nwchem-6.6-revision27746/src/nwpw/nwpwlib/K1dB/K1dB-mpi.F'
p3145
(lp3146
(S'MPI_Allreduce()'
p3147
S'30'
p3148
tp3149
a(S'MPI_Allreduce()'
p3150
S'34'
p3151
tp3152
a(S'MPI_Allreduce()'
p3153
S'73'
p3154
tp3155
a(S'MPI_Allreduce()'
p3156
S'79'
p3157
tp3158
a(S'MPI_Allreduce()'
p3159
S'115'
p3160
tp3161
a(S'MPI_Allreduce()'
p3162
S'119'
p3163
tp3164
a(S'MPI_Allreduce()'
p3165
S'155'
p3166
tp3167
a(S'MPI_Allreduce()'
p3168
S'159'
p3169
tp3170
a(S'MPI_Allreduce()'
p3171
S'209'
p3172
tp3173
a(S'MPI_Allreduce()'
p3174
S'214'
p3175
tp3176
a(S'MPI_Allreduce()'
p3177
S'270'
p3178
tp3179
a(S'MPI_Allreduce()'
p3180
S'278'
p3181
tp3182
asS'nwchem-6.6-revision27746/src/tools/ga-5-4/global/testing/unit-tests/ga_set_restricted.c'
p3183
(lp3184
(S'MPI_Init()'
p3185
S'74'
p3186
tp3187
a(S'MPI_Comm_rank()'
p3188
S'76'
p3189
tp3190
a(S'MPI_Comm_size()'
p3191
S'77'
p3192
tp3193
a(S'MPI_Finalize()'
p3194
S'148'
p3195
tp3196
asS'nwchem-6.6-revision27746/src/nwpw/nwpwlib/C3dB/C3dB-mpi.F'
p3197
(lp3198
(S'MPI_IRECV()'
p3199
S'118'
p3200
tp3201
a(S'MPI_IRECV()'
p3202
S'126'
p3203
tp3204
a(S'MPI_SEND()'
p3205
S'150'
p3206
tp3207
a(S'MPI_SEND()'
p3208
S'155'
p3209
tp3210
a(S'MPI_IRECV()'
p3211
S'304'
p3212
tp3213
a(S'MPI_IRECV()'
p3214
S'312'
p3215
tp3216
a(S'MPI_SEND()'
p3217
S'336'
p3218
tp3219
a(S'MPI_SEND()'
p3220
S'341'
p3221
tp3222
a(S'MPI_IRECV()'
p3223
S'494'
p3224
tp3225
a(S'MPI_IRECV()'
p3226
S'502'
p3227
tp3228
a(S'MPI_SEND()'
p3229
S'526'
p3230
tp3231
a(S'MPI_SEND()'
p3232
S'531'
p3233
tp3234
a(S'MPI_IRECV()'
p3235
S'681'
p3236
tp3237
a(S'MPI_IRECV()'
p3238
S'689'
p3239
tp3240
a(S'MPI_SEND()'
p3241
S'713'
p3242
tp3243
a(S'MPI_SEND()'
p3244
S'718'
p3245
tp3246
a(S'MPI_Allreduce()'
p3247
S'783'
p3248
tp3249
a(S'MPI_Allreduce()'
p3250
S'786'
p3251
tp3252
a(S'MPI_Allreduce()'
p3253
S'826'
p3254
tp3255
a(S'MPI_Allreduce()'
p3256
S'832'
p3257
tp3258
a(S'MPI_Allreduce()'
p3259
S'886'
p3260
tp3261
a(S'MPI_Allreduce()'
p3262
S'891'
p3263
tp3264
a(S'MPI_Allreduce()'
p3265
S'952'
p3266
tp3267
a(S'MPI_Allreduce()'
p3268
S'961'
p3269
tp3270
a(S'MPI_IRECV()'
p3271
S'1085'
p3272
tp3273
a(S'MPI_IRECV()'
p3274
S'1093'
p3275
tp3276
a(S'MPI_SEND()'
p3277
S'1117'
p3278
tp3279
a(S'MPI_SEND()'
p3280
S'1122'
p3281
tp3282
a(S'MPI_IRECV()'
p3283
S'1251'
p3284
tp3285
a(S'MPI_IRECV()'
p3286
S'1259'
p3287
tp3288
a(S'MPI_SEND()'
p3289
S'1283'
p3290
tp3291
a(S'MPI_SEND()'
p3292
S'1288'
p3293
tp3294
a(S'MPI_IRECV()'
p3295
S'1431'
p3296
tp3297
a(S'MPI_IRECV()'
p3298
S'1439'
p3299
tp3300
a(S'MPI_SEND()'
p3301
S'1463'
p3302
tp3303
a(S'MPI_SEND()'
p3304
S'1468'
p3305
tp3306
a(S'MPI_ISEND()'
p3307
S'1545'
p3308
tp3309
a(S'MPI_ISEND()'
p3310
S'1553'
p3311
tp3312
a(S'MPI_IRECV()'
p3313
S'1578'
p3314
tp3315
a(S'MPI_IRECV()'
p3316
S'1586'
p3317
tp3318
a(S'MPI_IRECV()'
p3319
S'1672'
p3320
tp3321
a(S'MPI_IRECV()'
p3322
S'1680'
p3323
tp3324
a(S'MPI_ISEND()'
p3325
S'1704'
p3326
tp3327
a(S'MPI_ISEND()'
p3328
S'1712'
p3329
tp3330
a(S'MPI_IRECV()'
p3331
S'1847'
p3332
tp3333
a(S'MPI_IRECV()'
p3334
S'1855'
p3335
tp3336
a(S'MPI_ISEND()'
p3337
S'1880'
p3338
tp3339
a(S'MPI_ISEND()'
p3340
S'1888'
p3341
tp3342
a(S'MPI_IRECV()'
p3343
S'2055'
p3344
tp3345
a(S'MPI_IRECV()'
p3346
S'2063'
p3347
tp3348
a(S'MPI_ISEND()'
p3349
S'2088'
p3350
tp3351
a(S'MPI_ISEND()'
p3352
S'2096'
p3353
tp3354
a(S'MPI_IRECV()'
p3355
S'2267'
p3356
tp3357
a(S'MPI_IRECV()'
p3358
S'2275'
p3359
tp3360
a(S'MPI_ISEND()'
p3361
S'2300'
p3362
tp3363
a(S'MPI_ISEND()'
p3364
S'2308'
p3365
tp3366
a(S'MPI_SEND()'
p3367
S'2488'
p3368
tp3369
a(S'MPI_SEND()'
p3370
S'2493'
p3371
tp3372
a(S'MPI_RECV()'
p3373
S'2519'
p3374
tp3375
a(S'MPI_RECV()'
p3376
S'2525'
p3377
tp3378
a(S'MPI_SEND()'
p3379
S'2568'
p3380
tp3381
a(S'MPI_SEND()'
p3382
S'2573'
p3383
tp3384
a(S'MPI_RECV()'
p3385
S'2603'
p3386
tp3387
a(S'MPI_RECV()'
p3388
S'2609'
p3389
tp3390
a(S'MPI_SEND()'
p3391
S'2753'
p3392
tp3393
a(S'MPI_SEND()'
p3394
S'2758'
p3395
tp3396
a(S'MPI_RECV()'
p3397
S'2784'
p3398
tp3399
a(S'MPI_RECV()'
p3400
S'2790'
p3401
tp3402
a(S'MPI_SEND()'
p3403
S'2830'
p3404
tp3405
a(S'MPI_SEND()'
p3406
S'2835'
p3407
tp3408
a(S'MPI_RECV()'
p3409
S'2864'
p3410
tp3411
a(S'MPI_RECV()'
p3412
S'2870'
p3413
tp3414
a(S'MPI_SEND()'
p3415
S'2996'
p3416
tp3417
a(S'MPI_RECV()'
p3418
S'3002'
p3419
tp3420
a(S'MPI_SEND()'
p3421
S'3008'
p3422
tp3423
a(S'MPI_RECV()'
p3424
S'3012'
p3425
tp3426
a(S'MPI_RECV()'
p3427
S'3046'
p3428
tp3429
a(S'MPI_SEND()'
p3430
S'3053'
p3431
tp3432
a(S'MPI_RECV()'
p3433
S'3058'
p3434
tp3435
a(S'MPI_SEND()'
p3436
S'3063'
p3437
tp3438
a(S'MPI_SEND()'
p3439
S'3126'
p3440
tp3441
a(S'MPI_RECV()'
p3442
S'3132'
p3443
tp3444
a(S'MPI_SEND()'
p3445
S'3138'
p3446
tp3447
a(S'MPI_RECV()'
p3448
S'3142'
p3449
tp3450
a(S'MPI_RECV()'
p3451
S'3179'
p3452
tp3453
a(S'MPI_SEND()'
p3454
S'3186'
p3455
tp3456
a(S'MPI_RECV()'
p3457
S'3191'
p3458
tp3459
a(S'MPI_SEND()'
p3460
S'3196'
p3461
tp3462
a(S'MPI_RECV()'
p3463
S'3287'
p3464
tp3465
a(S'MPI_RECV()'
p3466
S'3293'
p3467
tp3468
a(S'MPI_SEND()'
p3469
S'3323'
p3470
tp3471
a(S'MPI_SEND()'
p3472
S'3328'
p3473
tp3474
a(S'MPI_RECV()'
p3475
S'3365'
p3476
tp3477
a(S'MPI_RECV()'
p3478
S'3371'
p3479
tp3480
a(S'MPI_SEND()'
p3481
S'3405'
p3482
tp3483
a(S'MPI_SEND()'
p3484
S'3410'
p3485
tp3486
asS'nwchem-6.6-revision27746/src/tools/ga-5-4/global/testing/unit-tests/ga_intialize.c'
p3487
(lp3488
(S'MPI_Init()'
p3489
S'21'
p3490
tp3491
a(S'MPI_Comm_rank()'
p3492
S'23'
p3493
tp3494
a(S'MPI_Comm_size()'
p3495
S'24'
p3496
tp3497
a(S'MPI_Finalize()'
p3498
S'41'
p3499
tp3500
asS'nwchem-6.6-revision27746/src/tools/ga-5-4/armci/testing/rpl_armci_msg_init.c'
p3501
(lp3502
(S'MPI_Initialized()'
p3503
S'10'
p3504
tp3505
a(S'MPI_Init_thread()'
p3506
S'14'
p3507
tp3508
a(S'MPI_Init()'
p3509
S'16'
p3510
tp3511
asS'nwchem-6.6-revision27746/src/tools/ga-5-4/armci/examples/features/non-blocking/overlap/overlap.c'
p3512
(lp3513
(S'MPI_Bcast()'
p3514
S'684'
p3515
tp3516
a(S'MPI_Gather()'
p3517
S'744'
p3518
tp3519
asS'nwchem-6.6-revision27746/src/tools/ga-5-4/global/testing/unit-tests/ga_pgroup_create.c'
p3520
(lp3521
(S'MPI_Init()'
p3522
S'20'
p3523
tp3524
a(S'MPI_Comm_rank()'
p3525
S'22'
p3526
tp3527
a(S'MPI_Comm_size()'
p3528
S'23'
p3529
tp3530
a(S'MPI_Finalize()'
p3531
S'120'
p3532
tp3533
asS'nwchem-6.6-revision27746/src/tools/ga-5-4/armci/src/devices/mpi-mt/mpi2_server.c'
p3534
(lp3535
(S'MPI_Check()'
p3536
S'107'
p3537
tp3538
a(S'MPI_Send()'
p3539
S'108'
p3540
tp3541
a(S'MPI_Check()'
p3542
S'114'
p3543
tp3544
a(S'MPI_Recv()'
p3545
S'115'
p3546
tp3547
a(S'MPI_Finalize()'
p3548
S'150'
p3549
tp3550
a(S'MPI_Check()'
p3551
S'201'
p3552
tp3553
a(S'MPI_Recv()'
p3554
S'202'
p3555
tp3556
a(S'MPI_Check()'
p3557
S'271'
p3558
tp3559
a(S'MPI_Send()'
p3560
S'272'
p3561
tp3562
a(S'MPI_Check()'
p3563
S'312'
p3564
tp3565
a(S'MPI_Iprobe()'
p3566
S'313'
p3567
tp3568
a(S'MPI_Check()'
p3569
S'319'
p3570
tp3571
a(S'MPI_Probe()'
p3572
S'320'
p3573
tp3574
a(S'MPI_Check()'
p3575
S'358'
p3576
tp3577
a(S'MPI_Check()'
p3578
S'360'
p3579
tp3580
a(S'MPI_Check()'
p3581
S'361'
p3582
tp3583
asS'nwchem-6.6-revision27746/src/tools/ga-5-4/comex/src-mpi-pr/hello.c'
p3584
(lp3585
(S'MPI_Init()'
p3586
S'14'
p3587
tp3588
a(S'MPI_Finalize()'
p3589
S'27'
p3590
tp3591
asS'nwchem-6.6-revision27746/src/tools/ga-5-4/tascel/configure'
p3592
(lp3593
(S'MPI_Init()'
p3594
S'8248'
p3595
tp3596
a(S'MPI_Finalize()'
p3597
S'8249'
p3598
tp3599
asS'nwchem-6.6-revision27746/src/tools/ga-5-4/global/testing/unit-tests/ga_scale_rows.c'
p3600
(lp3601
(S'MPI_Init()'
p3602
S'25'
p3603
tp3604
a(S'MPI_Comm_rank()'
p3605
S'27'
p3606
tp3607
a(S'MPI_Comm_size()'
p3608
S'28'
p3609
tp3610
a(S'MPI_Finalize()'
p3611
S'59'
p3612
tp3613
asS'nwchem-6.6-revision27746/src/tools/ga-5-4/tcgmsg/tcgmsg-mpi/misc.c'
p3614
(lp3615
(S'MPI_Comm_size()'
p3616
S'40'
p3617
tp3618
a(S'MPI_Comm_rank()'
p3619
S'57'
p3620
tp3621
a(S'MPI_Abort()'
p3622
S'71'
p3623
tp3624
a(S'MPI_Comm_size()'
p3625
S'88'
p3626
tp3627
a(S'MPI_Comm_group()'
p3628
S'90'
p3629
tp3630
a(S'MPI_Group_excl()'
p3631
S'91'
p3632
tp3633
a(S'MPI_Comm_create()'
p3634
S'92'
p3635
tp3636
a(S'MPI_Initialized()'
p3637
S'135'
p3638
tp3639
a(S'MPI_Init_thread()'
p3640
S'141'
p3641
tp3642
a(S'MPI_Init()'
p3643
S'143'
p3644
tp3645
a(S'MPI_Errhandler_set()'
p3646
S'145'
p3647
tp3648
a(S'MPI_Comm_size()'
p3649
S'148'
p3650
tp3651
a(S'MPI_Comm_rank()'
p3652
S'149'
p3653
tp3654
a(S'MPI_Barrier()'
p3655
S'163'
p3656
tp3657
a(S'MPI_Barrier()'
p3658
S'188'
p3659
tp3660
a(S'MPI_Finalize()'
p3661
S'191'
p3662
tp3663
a(S'MPI_Wtime()'
p3664
S'203'
p3665
tp3666
a(S'MPI_Wtime()'
p3667
S'208'
p3668
tp3669
asS'nwchem-6.6-revision27746/src/tools/ga-5-4/cca/ga_cca_classic/TestComponent/TestComponent.cxx'
p3670
(lp3671
(S'MPI_Get_processor_name()'
p3672
S'135'
p3673
tp3674
asS'nwchem-6.6-revision27746/src/tools/ga-5-4/armci/src/devices/mpi-mt/mpi2_client.c'
p3675
(lp3676
(S'MPI_Check()'
p3677
S'84'
p3678
tp3679
a(S'MPI_Check()'
p3680
S'142'
p3681
tp3682
a(S'MPI_Send()'
p3683
S'143'
p3684
tp3685
a(S'MPI_Check()'
p3686
S'149'
p3687
tp3688
a(S'MPI_Recv()'
p3689
S'150'
p3690
tp3691
a(S'MPI_Check()'
p3692
S'178'
p3693
tp3694
a(S'MPI_Send()'
p3695
S'179'
p3696
tp3697
a(S'MPI_Check()'
p3698
S'236'
p3699
tp3700
a(S'MPI_Recv()'
p3701
S'237'
p3702
tp3703
a(S'MPI_Get_count()'
p3704
S'247'
p3705
tp3706
a(S'MPI_Check()'
p3707
S'305'
p3708
tp3709
a(S'MPI_Check()'
p3710
S'309'
p3711
tp3712
a(S'MPI_Check()'
p3713
S'310'
p3714
tp3715
a(S'MPI_Check()'
p3716
S'315'
p3717
tp3718
asS'nwchem-6.6-revision27746/src/tools/ga-5-4/global/testing/unit-tests/ga_pgroup_create5.c'
p3719
(lp3720
(S'MPI_Init()'
p3721
S'21'
p3722
tp3723
a(S'MPI_Comm_rank()'
p3724
S'23'
p3725
tp3726
a(S'MPI_Comm_size()'
p3727
S'24'
p3728
tp3729
a(S'MPI_Finalize()'
p3730
S'79'
p3731
tp3732
asS'nwchem-6.6-revision27746/src/tools/ga-5-4/tcgmsg/tcgmsg-mpi/tcgmsgP.h'
p3733
(lp3734
(S'MPI_Error_string()'
p3735
S'66'
p3736
tp3737
asS'nwchem-6.6-revision27746/src/tools/ga-5-4/global/testing/unit-tests/ga_sync.c'
p3738
(lp3739
(S'MPI_Init()'
p3740
S'21'
p3741
tp3742
a(S'MPI_Comm_rank()'
p3743
S'23'
p3744
tp3745
a(S'MPI_Comm_size()'
p3746
S'24'
p3747
tp3748
a(S'MPI_Finalize()'
p3749
S'44'
p3750
tp3751
asS'nwchem-6.6-revision27746/src/tools/ga-5-4/gfutex/examples/scf/scf.c'
p3752
(lp3753
(S'MPI_Init()'
p3754
S'108'
p3755
tp3756
a(S'MPI_Finalize()'
p3757
S'351'
p3758
tp3759
asS'nwchem-6.6-revision27746/src/tools/ga-5-4/global/testing/unit-tests/ga_scale_cols.c'
p3760
(lp3761
(S'MPI_Init()'
p3762
S'26'
p3763
tp3764
a(S'MPI_Comm_rank()'
p3765
S'28'
p3766
tp3767
a(S'MPI_Comm_size()'
p3768
S'29'
p3769
tp3770
a(S'MPI_Finalize()'
p3771
S'78'
p3772
tp3773
asS'nwchem-6.6-revision27746/src/tools/ga-5-4/comex/src-ofa/groups.c'
p3774
(lp3775
(S'MPI_Group_rank()'
p3776
S'85'
p3777
tp3778
a(S'MPI_Group_size()'
p3779
S'102'
p3780
tp3781
a(S'MPI_Comm_group()'
p3782
S'129'
p3783
tp3784
a(S'MPI_Group_translate_ranks()'
p3785
S'133'
p3786
tp3787
a(S'MPI_Group_free()'
p3788
S'182'
p3789
tp3790
a(S'MPI_Comm_free()'
p3791
S'188'
p3792
tp3793
a(S'MPI_Group_incl()'
p3794
S'257'
p3795
tp3796
a(S'MPI_Group_rank()'
p3797
S'265'
p3798
tp3799
a(S'MPI_Comm_dup()'
p3800
S'273'
p3801
tp3802
a(S'MPI_Intercomm_create()'
p3803
S'282'
p3804
tp3805
a(S'MPI_Comm_free()'
p3806
S'284'
p3807
tp3808
a(S'MPI_Intercomm_merge()'
p3809
S'285'
p3810
tp3811
a(S'MPI_Comm_free()'
p3812
S'286'
p3813
tp3814
a(S'MPI_Group_free()'
p3815
S'294'
p3816
tp3817
a(S'MPI_Comm_group()'
p3818
S'296'
p3819
tp3820
a(S'MPI_Comm_group()'
p3821
S'320'
p3822
tp3823
asS'nwchem-6.6-revision27746/src/tools/ga-5-4/global/testing/unit-tests/ga_transpose.c'
p3824
(lp3825
(S'MPI_Init()'
p3826
S'25'
p3827
tp3828
a(S'MPI_Comm_rank()'
p3829
S'27'
p3830
tp3831
a(S'MPI_Comm_size()'
p3832
S'28'
p3833
tp3834
a(S'MPI_Finalize()'
p3835
S'80'
p3836
tp3837
asS'nwchem-6.6-revision27746/src/tools/ga-5-4/armci/src/common/groups.c'
p3838
(lp3839
(S'MPI_Comm_compare()'
p3840
S'87'
p3841
tp3842
a(S'MPI_Group_size()'
p3843
S'111'
p3844
tp3845
a(S'MPI_Comm_group()'
p3846
S'124'
p3847
tp3848
a(S'MPI_Group_translate_ranks()'
p3849
S'125'
p3850
tp3851
a(S'MPI_Comm_group()'
p3852
S'164'
p3853
tp3854
a(S'MPI_Group_translate_ranks()'
p3855
S'165'
p3856
tp3857
a(S'MPI_Comm_free()'
p3858
S'363'
p3859
tp3860
a(S'MPI_Group_rank()'
p3861
S'466'
p3862
tp3863
a(S'MPI_Comm_dup()'
p3864
S'472'
p3865
tp3866
a(S'MPI_Intercomm_create()'
p3867
S'481'
p3868
tp3869
a(S'MPI_Comm_free()'
p3870
S'482'
p3871
tp3872
a(S'MPI_Intercomm_merge()'
p3873
S'483'
p3874
tp3875
a(S'MPI_Comm_free()'
p3876
S'484'
p3877
tp3878
a(S'MPI_Group_free()'
p3879
S'491'
p3880
tp3881
a(S'MPI_Comm_group()'
p3882
S'492'
p3883
tp3884
a(S'MPI_Comm_group()'
p3885
S'539'
p3886
tp3887
a(S'MPI_Group_rank()'
p3888
S'542'
p3889
tp3890
asS'nwchem-6.6-revision27746/src/tools/ga-5-4/comex/src-mpi-mt/comex.c'
p3891
(lp3892
(S'MPI_Initialized()'
p3893
S'257'
p3894
tp3895
a(S'MPI_Query_thread()'
p3896
S'262'
p3897
tp3898
a(S'MPI_Barrier()'
p3899
S'310'
p3900
tp3901
a(S'MPI_Barrier()'
p3902
S'345'
p3903
tp3904
a(S'MPI_Initialized()'
p3905
S'360'
p3906
tp3907
a(S'MPI_Init_thread()'
p3908
S'365'
p3909
tp3910
a(S'MPI_Barrier()'
p3911
S'427'
p3912
tp3913
a(S'MPI_Abort()'
p3914
S'458'
p3915
tp3916
a(S'MPI_Barrier()'
p3917
S'819'
p3918
tp3919
a(S'MPI_Allgather()'
p3920
S'1285'
p3921
tp3922
a(S'MPI_Barrier()'
p3923
S'1306'
p3924
tp3925
a(S'MPI_Comm_rank()'
p3926
S'1436'
p3927
tp3928
a(S'MPI_Comm_size()'
p3929
S'1437'
p3930
tp3931
a(S'MPI_Allgather()'
p3932
S'1443'
p3933
tp3934
a(S'MPI_Barrier()'
p3935
S'1446'
p3936
tp3937
a(S'MPI_Comm_rank()'
p3938
S'1471'
p3939
tp3940
a(S'MPI_Comm_size()'
p3941
S'1472'
p3942
tp3943
a(S'MPI_Allgather()'
p3944
S'1479'
p3945
tp3946
a(S'MPI_Barrier()'
p3947
S'1489'
p3948
tp3949
a(S'MPI_Recv()'
p3950
S'1524'
p3951
tp3952
a(S'X_MPI_ANY_SOURCE()'
p3953
S'1525'
p3954
tp3955
a(S'MPI_Get_count()'
p3956
S'1526'
p3957
tp3958
a(S'MPI_Group_translate_ranks()'
p3959
S'2429'
p3960
tp3961
a(S'MPI_Group_translate_ranks()'
p3962
S'2451'
p3963
tp3964
a(S'MPI_Abort()'
p3965
S'2499'
p3966
tp3967
a(S'MPI_Send()'
p3968
S'2546'
p3969
tp3970
a(S'MPI_Recv()'
p3971
S'2564'
p3972
tp3973
a(S'MPI_Get_count()'
p3974
S'2571'
p3975
tp3976
a(S'MPI_Isend()'
p3977
S'2603'
p3978
tp3979
a(S'MPI_Irecv()'
p3980
S'2662'
p3981
tp3982
a(S'MPI_Irecv()'
p3983
S'2700'
p3984
tp3985
a(S'MPI_Irecv()'
p3986
S'2737'
p3987
tp3988
a(S'MPI_Abort()'
p3989
S'2780'
p3990
tp3991
a(S'MPI_Wait()'
p3992
S'2821'
p3993
tp3994
a(S'MPI_Wait()'
p3995
S'2872'
p3996
tp3997
asS'nwchem-6.6-revision27746/src/tools/ga-5-4/armci/src/devices/mpi-spawn/mpi2_server.c'
p3998
(lp3999
(S'MPI_Finalize()'
p4000
S'169'
p4001
tp4002
a(S'MPI_Check()'
p4003
S'225'
p4004
tp4005
a(S'MPI_Recv()'
p4006
S'226'
p4007
tp4008
a(S'MPI_Get_count()'
p4009
S'279'
p4010
tp4011
a(S'MPI_Check()'
p4012
S'329'
p4013
tp4014
a(S'MPI_Send()'
p4015
S'330'
p4016
tp4017
a(S'MPI_Check()'
p4018
S'372'
p4019
tp4020
a(S'MPI_Probe()'
p4021
S'373'
p4022
tp4023
a(S'MPI_Check()'
p4024
S'399'
p4025
tp4026
a(S'MPI_Irecv()'
p4027
S'400'
p4028
tp4029
a(S'MPI_Check()'
p4030
S'418'
p4031
tp4032
a(S'MPI_Waitany()'
p4033
S'419'
p4034
tp4035
a(S'MPI_Check()'
p4036
S'443'
p4037
tp4038
a(S'MPI_Irecv()'
p4039
S'444'
p4040
tp4041
a(S'MPI_Comm_remote_size()'
p4042
S'460'
p4043
tp4044
a(S'MPI_Comm_rank()'
p4045
S'505'
p4046
tp4047
a(S'MPI_Comm_size()'
p4048
S'506'
p4049
tp4050
a(S'MPI_Get_processor_name()'
p4051
S'507'
p4052
tp4053
a(S'MPI_Get_version()'
p4054
S'508'
p4055
tp4056
a(S'MPI_Comm_get_parent()'
p4057
S'516'
p4058
tp4059
a(S'MPI_Recv()'
p4060
S'525'
p4061
tp4062
a(S'MPI_Recv()'
p4063
S'552'
p4064
tp4065
a(S'MPI_Recv()'
p4066
S'556'
p4067
tp4068
a(S'MPI_Barrier()'
p4069
S'572'
p4070
tp4071
asS'nwchem-6.6-revision27746/src/tools/ga-5-4/gfutex/src/gfutex.C'
p4072
(lp4073
(S'MPI_Comm_dup()'
p4074
S'97'
p4075
tp4076
a(S'MPI_Barrier()'
p4077
S'176'
p4078
tp4079
a(S'MPI_Barrier()'
p4080
S'179'
p4081
tp4082
a(S'MPI_Barrier()'
p4083
S'229'
p4084
tp4085
a(S'MPI_Barrier()'
p4086
S'238'
p4087
tp4088
a(S'MPI_Barrier()'
p4089
S'278'
p4090
tp4091
a(S'MPI_Barrier()'
p4092
S'291'
p4093
tp4094
a(S'MPI_Comm_free()'
p4095
S'293'
p4096
tp4097
a(S'MPI_Barrier()'
p4098
S'308'
p4099
tp4100
a(S'MPI_Allreduce()'
p4101
S'562'
p4102
tp4103
a(S'MPI_Barrier()'
p4104
S'576'
p4105
tp4106
a(S'MPI_Barrier()'
p4107
S'619'
p4108
tp4109
asS'nwchem-6.6-revision27746/src/tools/ga-5-4/global/testing/unit-tests/ga_add_diagonal.c'
p4110
(lp4111
(S'MPI_Init()'
p4112
S'25'
p4113
tp4114
a(S'MPI_Comm_rank()'
p4115
S'27'
p4116
tp4117
a(S'MPI_Comm_size()'
p4118
S'28'
p4119
tp4120
a(S'MPI_Finalize()'
p4121
S'57'
p4122
tp4123
asS'nwchem-6.6-revision27746/src/tools/ga-5-4/armci/examples/features/proc_affinity/computation_impact/computation_impact.c'
p4124
(lp4125
(S'MPI_Init()'
p4126
S'182'
p4127
tp4128
a(S'MPI_Comm_rank()'
p4129
S'183'
p4130
tp4131
a(S'MPI_Comm_size()'
p4132
S'184'
p4133
tp4134
a(S'MPI_Finalize()'
p4135
S'187'
p4136
tp4137
a(S'MPI_Barrier()'
p4138
S'201'
p4139
tp4140
a(S'MPI_Barrier()'
p4141
S'207'
p4142
tp4143
a(S'MPI_Barrier()'
p4144
S'208'
p4145
tp4146
a(S'MPI_Barrier()'
p4147
S'246'
p4148
tp4149
a(S'MPI_Barrier()'
p4150
S'247'
p4151
tp4152
a(S'MPI_Barrier()'
p4153
S'283'
p4154
tp4155
a(S'MPI_Barrier()'
p4156
S'284'
p4157
tp4158
a(S'MPI_Barrier()'
p4159
S'320'
p4160
tp4161
a(S'MPI_Barrier()'
p4162
S'356'
p4163
tp4164
a(S'MPI_Finalize()'
p4165
S'361'
p4166
tp4167
asS'nwchem-6.6-revision27746/src/nwpw/nwpwlib/D3dB/D3dB-mpi.F'
p4168
(lp4169
(S'MPI_IRECV()'
p4170
S'116'
p4171
tp4172
a(S'MPI_IRECV()'
p4173
S'124'
p4174
tp4175
a(S'MPI_SEND()'
p4176
S'148'
p4177
tp4178
a(S'MPI_SEND()'
p4179
S'153'
p4180
tp4181
a(S'MPI_IRECV()'
p4182
S'291'
p4183
tp4184
a(S'MPI_IRECV()'
p4185
S'299'
p4186
tp4187
a(S'MPI_SEND()'
p4188
S'324'
p4189
tp4190
a(S'MPI_SEND()'
p4191
S'329'
p4192
tp4193
a(S'MPI_IRECV()'
p4194
S'497'
p4195
tp4196
a(S'MPI_IRECV()'
p4197
S'505'
p4198
tp4199
a(S'MPI_SEND()'
p4200
S'529'
p4201
tp4202
a(S'MPI_SEND()'
p4203
S'534'
p4204
tp4205
a(S'MPI_IRECV()'
p4206
S'689'
p4207
tp4208
a(S'MPI_IRECV()'
p4209
S'697'
p4210
tp4211
a(S'MPI_SEND()'
p4212
S'721'
p4213
tp4214
a(S'MPI_SEND()'
p4215
S'726'
p4216
tp4217
a(S'MPI_Allreduce()'
p4218
S'791'
p4219
tp4220
a(S'MPI_Allreduce()'
p4221
S'794'
p4222
tp4223
a(S'MPI_Allreduce()'
p4224
S'834'
p4225
tp4226
a(S'MPI_Allreduce()'
p4227
S'840'
p4228
tp4229
a(S'MPI_Allreduce()'
p4230
S'897'
p4231
tp4232
a(S'MPI_Allreduce()'
p4233
S'902'
p4234
tp4235
a(S'MPI_Allreduce()'
p4236
S'964'
p4237
tp4238
a(S'MPI_Allreduce()'
p4239
S'973'
p4240
tp4241
a(S'MPI_IRECV()'
p4242
S'1094'
p4243
tp4244
a(S'MPI_IRECV()'
p4245
S'1102'
p4246
tp4247
a(S'MPI_SEND()'
p4248
S'1126'
p4249
tp4250
a(S'MPI_SEND()'
p4251
S'1131'
p4252
tp4253
a(S'MPI_IRECV()'
p4254
S'1259'
p4255
tp4256
a(S'MPI_IRECV()'
p4257
S'1267'
p4258
tp4259
a(S'MPI_SEND()'
p4260
S'1291'
p4261
tp4262
a(S'MPI_SEND()'
p4263
S'1296'
p4264
tp4265
a(S'MPI_IRECV()'
p4266
S'1436'
p4267
tp4268
a(S'MPI_IRECV()'
p4269
S'1444'
p4270
tp4271
a(S'MPI_SEND()'
p4272
S'1468'
p4273
tp4274
a(S'MPI_SEND()'
p4275
S'1473'
p4276
tp4277
a(S'MPI_ISEND()'
p4278
S'1548'
p4279
tp4280
a(S'MPI_ISEND()'
p4281
S'1556'
p4282
tp4283
a(S'MPI_IRECV()'
p4284
S'1581'
p4285
tp4286
a(S'MPI_IRECV()'
p4287
S'1589'
p4288
tp4289
a(S'MPI_IRECV()'
p4290
S'1671'
p4291
tp4292
a(S'MPI_IRECV()'
p4293
S'1679'
p4294
tp4295
a(S'MPI_ISEND()'
p4296
S'1703'
p4297
tp4298
a(S'MPI_ISEND()'
p4299
S'1711'
p4300
tp4301
a(S'MPI_IRECV()'
p4302
S'1844'
p4303
tp4304
a(S'MPI_IRECV()'
p4305
S'1852'
p4306
tp4307
a(S'MPI_ISEND()'
p4308
S'1877'
p4309
tp4310
a(S'MPI_ISEND()'
p4311
S'1885'
p4312
tp4313
a(S'MPI_IRECV()'
p4314
S'2047'
p4315
tp4316
a(S'MPI_IRECV()'
p4317
S'2055'
p4318
tp4319
a(S'MPI_ISEND()'
p4320
S'2080'
p4321
tp4322
a(S'MPI_ISEND()'
p4323
S'2088'
p4324
tp4325
a(S'MPI_IRECV()'
p4326
S'2259'
p4327
tp4328
a(S'MPI_IRECV()'
p4329
S'2267'
p4330
tp4331
a(S'MPI_ISEND()'
p4332
S'2292'
p4333
tp4334
a(S'MPI_ISEND()'
p4335
S'2300'
p4336
tp4337
a(S'MPI_IRECV()'
p4338
S'2478'
p4339
tp4340
a(S'MPI_IRECV()'
p4341
S'2486'
p4342
tp4343
a(S'MPI_ISEND()'
p4344
S'2512'
p4345
tp4346
a(S'MPI_ISEND()'
p4347
S'2520'
p4348
tp4349
a(S'MPI_SEND()'
p4350
S'2681'
p4351
tp4352
a(S'MPI_SEND()'
p4353
S'2686'
p4354
tp4355
a(S'MPI_RECV()'
p4356
S'2712'
p4357
tp4358
a(S'MPI_RECV()'
p4359
S'2718'
p4360
tp4361
a(S'MPI_SEND()'
p4362
S'2760'
p4363
tp4364
a(S'MPI_SEND()'
p4365
S'2765'
p4366
tp4367
a(S'MPI_RECV()'
p4368
S'2794'
p4369
tp4370
a(S'MPI_RECV()'
p4371
S'2800'
p4372
tp4373
a(S'MPI_SEND()'
p4374
S'2929'
p4375
tp4376
a(S'MPI_SEND()'
p4377
S'2934'
p4378
tp4379
a(S'MPI_RECV()'
p4380
S'2959'
p4381
tp4382
a(S'MPI_RECV()'
p4383
S'2965'
p4384
tp4385
a(S'MPI_SEND()'
p4386
S'3006'
p4387
tp4388
a(S'MPI_SEND()'
p4389
S'3011'
p4390
tp4391
a(S'MPI_RECV()'
p4392
S'3039'
p4393
tp4394
a(S'MPI_RECV()'
p4395
S'3045'
p4396
tp4397
a(S'MPI_SEND()'
p4398
S'3178'
p4399
tp4400
a(S'MPI_SEND()'
p4401
S'3183'
p4402
tp4403
a(S'MPI_RECV()'
p4404
S'3210'
p4405
tp4406
a(S'MPI_RECV()'
p4407
S'3216'
p4408
tp4409
a(S'MPI_SEND()'
p4410
S'3265'
p4411
tp4412
a(S'MPI_SEND()'
p4413
S'3270'
p4414
tp4415
a(S'MPI_RECV()'
p4416
S'3300'
p4417
tp4418
a(S'MPI_RECV()'
p4419
S'3306'
p4420
tp4421
a(S'MPI_SEND()'
p4422
S'3420'
p4423
tp4424
a(S'MPI_SEND()'
p4425
S'3425'
p4426
tp4427
a(S'MPI_RECV()'
p4428
S'3451'
p4429
tp4430
a(S'MPI_RECV()'
p4431
S'3457'
p4432
tp4433
a(S'MPI_SEND()'
p4434
S'3505'
p4435
tp4436
a(S'MPI_SEND()'
p4437
S'3510'
p4438
tp4439
a(S'MPI_RECV()'
p4440
S'3539'
p4441
tp4442
a(S'MPI_RECV()'
p4443
S'3545'
p4444
tp4445
a(S'MPI_SEND()'
p4446
S'3657'
p4447
tp4448
a(S'MPI_SEND()'
p4449
S'3662'
p4450
tp4451
a(S'MPI_RECV()'
p4452
S'3688'
p4453
tp4454
a(S'MPI_RECV()'
p4455
S'3694'
p4456
tp4457
a(S'MPI_SEND()'
p4458
S'3736'
p4459
tp4460
a(S'MPI_SEND()'
p4461
S'3741'
p4462
tp4463
a(S'MPI_RECV()'
p4464
S'3770'
p4465
tp4466
a(S'MPI_RECV()'
p4467
S'3776'
p4468
tp4469
a(S'MPI_SEND()'
p4470
S'3900'
p4471
tp4472
a(S'MPI_SEND()'
p4473
S'3905'
p4474
tp4475
a(S'MPI_RECV()'
p4476
S'3930'
p4477
tp4478
a(S'MPI_RECV()'
p4479
S'3936'
p4480
tp4481
a(S'MPI_SEND()'
p4482
S'3977'
p4483
tp4484
a(S'MPI_SEND()'
p4485
S'3982'
p4486
tp4487
a(S'MPI_RECV()'
p4488
S'4010'
p4489
tp4490
a(S'MPI_RECV()'
p4491
S'4016'
p4492
tp4493
a(S'MPI_SEND()'
p4494
S'4145'
p4495
tp4496
a(S'MPI_RECV()'
p4497
S'4151'
p4498
tp4499
a(S'MPI_SEND()'
p4500
S'4157'
p4501
tp4502
a(S'MPI_RECV()'
p4503
S'4161'
p4504
tp4505
a(S'MPI_RECV()'
p4506
S'4196'
p4507
tp4508
a(S'MPI_SEND()'
p4509
S'4203'
p4510
tp4511
a(S'MPI_RECV()'
p4512
S'4208'
p4513
tp4514
a(S'MPI_SEND()'
p4515
S'4213'
p4516
tp4517
a(S'MPI_SEND()'
p4518
S'4279'
p4519
tp4520
a(S'MPI_RECV()'
p4521
S'4285'
p4522
tp4523
a(S'MPI_SEND()'
p4524
S'4291'
p4525
tp4526
a(S'MPI_RECV()'
p4527
S'4295'
p4528
tp4529
a(S'MPI_RECV()'
p4530
S'4332'
p4531
tp4532
a(S'MPI_SEND()'
p4533
S'4339'
p4534
tp4535
a(S'MPI_RECV()'
p4536
S'4344'
p4537
tp4538
a(S'MPI_SEND()'
p4539
S'4349'
p4540
tp4541
a(S'MPI_SEND()'
p4542
S'4450'
p4543
tp4544
a(S'MPI_RECV()'
p4545
S'4456'
p4546
tp4547
a(S'MPI_SEND()'
p4548
S'4462'
p4549
tp4550
a(S'MPI_RECV()'
p4551
S'4466'
p4552
tp4553
a(S'MPI_RECV()'
p4554
S'4500'
p4555
tp4556
a(S'MPI_SEND()'
p4557
S'4507'
p4558
tp4559
a(S'MPI_RECV()'
p4560
S'4512'
p4561
tp4562
a(S'MPI_SEND()'
p4563
S'4517'
p4564
tp4565
a(S'MPI_SEND()'
p4566
S'4582'
p4567
tp4568
a(S'MPI_RECV()'
p4569
S'4588'
p4570
tp4571
a(S'MPI_SEND()'
p4572
S'4594'
p4573
tp4574
a(S'MPI_RECV()'
p4575
S'4598'
p4576
tp4577
a(S'MPI_RECV()'
p4578
S'4634'
p4579
tp4580
a(S'MPI_SEND()'
p4581
S'4641'
p4582
tp4583
a(S'MPI_RECV()'
p4584
S'4646'
p4585
tp4586
a(S'MPI_SEND()'
p4587
S'4651'
p4588
tp4589
a(S'MPI_RECV()'
p4590
S'4742'
p4591
tp4592
a(S'MPI_RECV()'
p4593
S'4748'
p4594
tp4595
a(S'MPI_SEND()'
p4596
S'4782'
p4597
tp4598
a(S'MPI_SEND()'
p4599
S'4787'
p4600
tp4601
a(S'MPI_RECV()'
p4602
S'4824'
p4603
tp4604
a(S'MPI_RECV()'
p4605
S'4830'
p4606
tp4607
a(S'MPI_SEND()'
p4608
S'4866'
p4609
tp4610
a(S'MPI_SEND()'
p4611
S'4871'
p4612
tp4613
a(S'MPI_SEND()'
p4614
S'4964'
p4615
tp4616
a(S'MPI_RECV()'
p4617
S'4970'
p4618
tp4619
a(S'MPI_SEND()'
p4620
S'4976'
p4621
tp4622
a(S'MPI_RECV()'
p4623
S'4980'
p4624
tp4625
a(S'MPI_RECV()'
p4626
S'5016'
p4627
tp4628
a(S'MPI_SEND()'
p4629
S'5023'
p4630
tp4631
a(S'MPI_RECV()'
p4632
S'5028'
p4633
tp4634
a(S'MPI_SEND()'
p4635
S'5033'
p4636
tp4637
a(S'MPI_SEND()'
p4638
S'5098'
p4639
tp4640
a(S'MPI_RECV()'
p4641
S'5104'
p4642
tp4643
a(S'MPI_SEND()'
p4644
S'5110'
p4645
tp4646
a(S'MPI_RECV()'
p4647
S'5114'
p4648
tp4649
a(S'MPI_RECV()'
p4650
S'5153'
p4651
tp4652
a(S'MPI_SEND()'
p4653
S'5160'
p4654
tp4655
a(S'MPI_RECV()'
p4656
S'5165'
p4657
tp4658
a(S'MPI_SEND()'
p4659
S'5170'
p4660
tp4661
a(S'MPI_RECV()'
p4662
S'5261'
p4663
tp4664
a(S'MPI_RECV()'
p4665
S'5267'
p4666
tp4667
a(S'MPI_SEND()'
p4668
S'5304'
p4669
tp4670
a(S'MPI_SEND()'
p4671
S'5309'
p4672
tp4673
a(S'MPI_RECV()'
p4674
S'5350'
p4675
tp4676
a(S'MPI_RECV()'
p4677
S'5356'
p4678
tp4679
a(S'MPI_SEND()'
p4680
S'5393'
p4681
tp4682
a(S'MPI_SEND()'
p4683
S'5398'
p4684
tp4685
a(S'MPI_SEND()'
p4686
S'5486'
p4687
tp4688
a(S'MPI_RECV()'
p4689
S'5490'
p4690
tp4691
a(S'MPI_SEND()'
p4692
S'5496'
p4693
tp4694
a(S'MPI_RECV()'
p4695
S'5500'
p4696
tp4697
a(S'MPI_RECV()'
p4698
S'5538'
p4699
tp4700
a(S'MPI_SEND()'
p4701
S'5543'
p4702
tp4703
a(S'MPI_RECV()'
p4704
S'5548'
p4705
tp4706
a(S'MPI_SEND()'
p4707
S'5553'
p4708
tp4709
a(S'MPI_SEND()'
p4710
S'5591'
p4711
tp4712
a(S'MPI_RECV()'
p4713
S'5595'
p4714
tp4715
a(S'MPI_SEND()'
p4716
S'5601'
p4717
tp4718
a(S'MPI_RECV()'
p4719
S'5605'
p4720
tp4721
a(S'MPI_RECV()'
p4722
S'5639'
p4723
tp4724
a(S'MPI_SEND()'
p4725
S'5644'
p4726
tp4727
a(S'MPI_RECV()'
p4728
S'5649'
p4729
tp4730
a(S'MPI_SEND()'
p4731
S'5654'
p4732
tp4733
a(S'MPI_RECV()'
p4734
S'5742'
p4735
tp4736
a(S'MPI_RECV()'
p4737
S'5748'
p4738
tp4739
a(S'MPI_SEND()'
p4740
S'5785'
p4741
tp4742
a(S'MPI_SEND()'
p4743
S'5790'
p4744
tp4745
asS'nwchem-6.6-revision27746/src/util/linux_printaff.c'
p4746
(lp4747
(S'MPI_Comm_rank()'
p4748
S'27'
p4749
tp4750
a(S'MPI_Comm_rank()'
p4751
S'54'
p4752
tp4753
asS'nwchem-6.6-revision27746/src/tools/ga-5-4/tools/wapigen_trace.py'
p4754
(lp4755
(S'MPI_Wtime()'
p4756
S'443'
p4757
tp4758
a(S'MPI_Abort()'
p4759
S'457'
p4760
tp4761
a(S'MPI_Abort()'
p4762
S'464'
p4763
tp4764
a(S'MPI_Abort()'
p4765
S'476'
p4766
tp4767
asS'nwchem-6.6-revision27746/src/tools/ga-5-4/global/testing/unit-tests/ga_inquire.c'
p4768
(lp4769
(S'MPI_Init()'
p4770
S'24'
p4771
tp4772
a(S'MPI_Comm_rank()'
p4773
S'26'
p4774
tp4775
a(S'MPI_Comm_size()'
p4776
S'27'
p4777
tp4778
a(S'MPI_Finalize()'
p4779
S'51'
p4780
tp4781
asS'nwchem-6.6-revision27746/src/tools/ga-5-4/armci/src/collectives/message.c'
p4782
(lp4783
(S'MPI_Barrier()'
p4784
S'467'
p4785
tp4786
a(S'MPI_Initialized()'
p4787
S'498'
p4788
tp4789
a(S'MPI_Init_thread()'
p4790
S'502'
p4791
tp4792
a(S'MPI_Init()'
p4793
S'504'
p4794
tp4795
a(S'MPI_Comm_dup()'
p4796
S'508'
p4797
tp4798
a(S'MPI_Comm_rank()'
p4799
S'524'
p4800
tp4801
a(S'MPI_Comm_size()'
p4802
S'548'
p4803
tp4804
a(S'MPI_Abort()'
p4805
S'589'
p4806
tp4807
a(S'MPI_Finalize()'
p4808
S'608'
p4809
tp4810
a(S'MPI_Bcast()'
p4811
S'856'
p4812
tp4813
a(S'MPI_Send()'
p4814
S'871'
p4815
tp4816
a(S'MPI_Recv()'
p4817
S'895'
p4818
tp4819
a(S'MPI_Recv()'
p4820
S'918'
p4821
tp4822
a(S'MPI_Barrier()'
p4823
S'1951'
p4824
tp4825
a(S'MPI_Comm_group()'
p4826
S'1983'
p4827
tp4828
a(S'MPI_Group_incl()'
p4829
S'1984'
p4830
tp4831
a(S'MPI_Comm_create()'
p4832
S'1986'
p4833
tp4834
a(S'MPI_Comm_free()'
p4835
S'1993'
p4836
tp4837
a(S'MPI_Group_free()'
p4838
S'1994'
p4839
tp4840
asS'nwchem-6.6-revision27746/src/tools/ga-5-4/armci/testing/ipctest.c'
p4841
(lp4842
(S'MPI_Bcast()'
p4843
S'37'
p4844
tp4845
a(S'MPI_Barrier()'
p4846
S'52'
p4847
tp4848
a(S'MPI_Bcast()'
p4849
S'60'
p4850
tp4851
a(S'MPI_Barrier()'
p4852
S'71'
p4853
tp4854
a(S'MPI_Barrier()'
p4855
S'79'
p4856
tp4857
a(S'MPI_Barrier()'
p4858
S'97'
p4859
tp4860
a(S'MPI_Comm_size()'
p4861
S'106'
p4862
tp4863
a(S'MPI_Comm_rank()'
p4864
S'107'
p4865
tp4866
asS'nwchem-6.6-revision27746/src/tools/ga-5-4/tcgmsg/tcgmsg-mpi/collect.c'
p4867
(lp4868
(S'MPI_Reduce()'
p4869
S'49'
p4870
tp4871
a(S'MPI_Reduce()'
p4872
S'51'
p4873
tp4874
a(S'MPI_Reduce()'
p4875
S'53'
p4876
tp4877
a(S'MPI_Reduce()'
p4878
S'56'
p4879
tp4880
a(S'MPI_Reduce()'
p4881
S'59'
p4882
tp4883
a(S'MPI_Bcast()'
p4884
S'65'
p4885
tp4886
a(S'MPI_Reduce()'
p4887
S'105'
p4888
tp4889
a(S'MPI_Reduce()'
p4890
S'107'
p4891
tp4892
a(S'MPI_Reduce()'
p4893
S'109'
p4894
tp4895
a(S'MPI_Reduce()'
p4896
S'111'
p4897
tp4898
a(S'MPI_Bcast()'
p4899
S'117'
p4900
tp4901
a(S'MPI_Barrier()'
p4902
S'140'
p4903
tp4904
a(S'MPI_Bcast()'
p4905
S'153'
p4906
tp4907
asS'nwchem-6.6-revision27746/src/tools/ga-5-4/global/testing/unit-tests/ga_nodeid.c'
p4908
(lp4909
(S'MPI_Init()'
p4910
S'20'
p4911
tp4912
a(S'MPI_Comm_rank()'
p4913
S'22'
p4914
tp4915
a(S'MPI_Comm_size()'
p4916
S'23'
p4917
tp4918
a(S'MPI_Finalize()'
p4919
S'37'
p4920
tp4921
asS'nwchem-6.6-revision27746/src/tools/ga-5-4/armci/src-gemini/fence.c'
p4922
(lp4923
(S'MPI_Barrier()'
p4924
S'83'
p4925
tp4926
asS'nwchem-6.6-revision27746/src/tools/ga-5-4/comex/src-mpi-pt/groups.c'
p4927
(lp4928
(S'X_MPI_COMM_NULL()'
p4929
S'29'
p4930
tp4931
a(S'X_MPI_GROUP_NULL()'
p4932
S'30'
p4933
tp4934
a(S'MPI_Group_translate_ranks()'
p4935
S'178'
p4936
tp4937
a(S'MPI_Group_free()'
p4938
S'201'
p4939
tp4940
a(S'MPI_Comm_free()'
p4941
S'211'
p4942
tp4943
a(S'MPI_Group_incl()'
p4944
S'291'
p4945
tp4946
a(S'MPI_Group_rank()'
p4947
S'300'
p4948
tp4949
a(S'MPI_Comm_dup()'
p4950
S'312'
p4951
tp4952
a(S'MPI_Intercomm_create()'
p4953
S'322'
p4954
tp4955
a(S'MPI_Comm_free()'
p4956
S'325'
p4957
tp4958
a(S'MPI_Intercomm_merge()'
p4959
S'327'
p4960
tp4961
a(S'MPI_Comm_free()'
p4962
S'329'
p4963
tp4964
a(S'MPI_Group_free()'
p4965
S'338'
p4966
tp4967
a(S'MPI_Comm_group()'
p4968
S'341'
p4969
tp4970
a(S'MPI_Comm_size()'
p4971
S'344'
p4972
tp4973
a(S'MPI_Comm_rank()'
p4974
S'346'
p4975
tp4976
a(S'MPI_Comm_dup()'
p4977
S'372'
p4978
tp4979
a(S'MPI_Comm_group()'
p4980
S'374'
p4981
tp4982
a(S'MPI_Comm_rank()'
p4983
S'376'
p4984
tp4985
a(S'MPI_Comm_size()'
p4986
S'378'
p4987
tp4988
a(S'MPI_Allgather()'
p4989
S'395'
p4990
tp4991
a(S'MPI_Allgather()'
p4992
S'418'
p4993
tp4994
a(S'MPI_Comm_dup()'
p4995
S'427'
p4996
tp4997
a(S'MPI_Comm_group()'
p4998
S'429'
p4999
tp5000
a(S'MPI_Comm_rank()'
p5001
S'431'
p5002
tp5003
a(S'MPI_Comm_size()'
p5004
S'433'
p5005
tp5006
a(S'MPI_Comm_split()'
p5007
S'437'
p5008
tp5009
a(S'MPI_Comm_rank()'
p5010
S'441'
p5011
tp5012
a(S'MPI_Comm_size()'
p5013
S'444'
p5014
tp5015
a(S'MPI_Comm_free()'
p5016
S'478'
p5017
tp5018
a(S'MPI_Group_free()'
p5019
S'480'
p5020
tp5021
a(S'MPI_Comm_free()'
p5022
S'482'
p5023
tp5024
asS'nwchem-6.6-revision27746/src/tools/ga-5-4/comex/src-portals4/groups.c'
p5025
(lp5026
(S'MPI_Group_rank()'
p5027
S'83'
p5028
tp5029
a(S'MPI_Group_size()'
p5030
S'97'
p5031
tp5032
a(S'MPI_Group_translate_ranks()'
p5033
S'125'
p5034
tp5035
a(S'MPI_Group_free()'
p5036
S'146'
p5037
tp5038
a(S'MPI_Comm_free()'
p5039
S'153'
p5040
tp5041
a(S'MPI_Group_incl()'
p5042
S'211'
p5043
tp5044
a(S'MPI_Group_rank()'
p5045
S'219'
p5046
tp5047
a(S'MPI_Comm_dup()'
p5048
S'226'
p5049
tp5050
a(S'MPI_Intercomm_create()'
p5051
S'235'
p5052
tp5053
a(S'MPI_Comm_free()'
p5054
S'237'
p5055
tp5056
a(S'MPI_Intercomm_merge()'
p5057
S'238'
p5058
tp5059
a(S'MPI_Comm_free()'
p5060
S'239'
p5061
tp5062
a(S'MPI_Group_free()'
p5063
S'247'
p5064
tp5065
a(S'MPI_Comm_group()'
p5066
S'249'
p5067
tp5068
a(S'MPI_Comm_group()'
p5069
S'269'
p5070
tp5071
a(S'MPI_Group_free()'
p5072
S'289'
p5073
tp5074
asS'nwchem-6.6-revision27746/src/tools/ga-5-4/tcgmsg/tcgmsg-mpi/p2p.c'
p5075
(lp5076
(S'MPI_Send()'
p5077
S'36'
p5078
tp5079
a(S'MPI_Isend()'
p5080
S'43'
p5081
tp5082
a(S'MPI_Irecv()'
p5083
S'79'
p5084
tp5085
a(S'MPI_Recv()'
p5086
S'92'
p5087
tp5088
a(S'MPI_Get_count()'
p5089
S'95'
p5090
tp5091
a(S'MPI_Wait()'
p5092
S'114'
p5093
tp5094
a(S'MPI_Iprobe()'
p5095
S'127'
p5096
tp5097
asS'nwchem-6.6-revision27746/src/tools/ga-5-4/m4/ga_mpif77_test.m4'
p5098
(lp5099
(S'MPI_Init()'
p5100
g2824
tp5101
a(S'MPI_Finalize()'
p5102
S'10'
p5103
tp5104
asS'nwchem-6.6-revision27746/src/tools/ga-5-4/global/testing/unit-tests/ga_ndim2.c'
p5105
(lp5106
(S'MPI_Init()'
p5107
S'34'
p5108
tp5109
a(S'MPI_Comm_rank()'
p5110
S'36'
p5111
tp5112
a(S'MPI_Comm_size()'
p5113
S'37'
p5114
tp5115
a(S'MPI_Finalize()'
p5116
S'53'
p5117
tp5118
asS'nwchem-6.6-revision27746/src/tools/ga-5-4/comex/src-portals4/comex.c'
p5119
(lp5120
(S'MPI_Initialized()'
p5121
S'119'
p5122
tp5123
a(S'MPI_Comm_dup()'
p5124
S'124'
p5125
tp5126
a(S'MPI_Comm_rank()'
p5127
S'129'
p5128
tp5129
a(S'MPI_Comm_size()'
p5130
S'133'
p5131
tp5132
a(S'MPI_Allgather()'
p5133
S'253'
p5134
tp5135
a(S'X_MPI_CHAR()'
p5136
S'255'
p5137
tp5138
a(S'MPI_Allgather()'
p5139
S'307'
p5140
tp5141
a(S'X_MPI_CHAR()'
p5142
S'309'
p5143
tp5144
a(S'MPI_Barrier()'
p5145
S'332'
p5146
tp5147
a(S'MPI_Initialized()'
p5148
S'342'
p5149
tp5150
a(S'MPI_Init()'
p5151
S'345'
p5152
tp5153
a(S'MPI_Abort()'
p5154
S'363'
p5155
tp5156
a(S'MPI_Barrier()'
p5157
S'579'
p5158
tp5159
a(S'MPI_Abort()'
p5160
S'594'
p5161
tp5162
a(S'MPI_Barrier()'
p5163
S'627'
p5164
tp5165
a(S'MPI_Comm_free()'
p5166
S'630'
p5167
tp5168
a(S'MPI_Allgather()'
p5169
S'1098'
p5170
tp5171
a(S'MPI_Barrier()'
p5172
S'1106'
p5173
tp5174
a(S'MPI_Barrier()'
p5175
S'1117'
p5176
tp5177
a(S'MPI_Barrier()'
p5178
S'1129'
p5179
tp5180
a(S'MPI_Barrier()'
p5181
S'1156'
p5182
tp5183
a(S'MPI_Comm_rank()'
p5184
S'1298'
p5185
tp5186
a(S'MPI_Comm_size()'
p5187
S'1300'
p5188
tp5189
a(S'MPI_Allgather()'
p5190
S'1307'
p5191
tp5192
a(S'MPI_Barrier()'
p5193
S'1311'
p5194
tp5195
a(S'MPI_Comm_rank()'
p5196
S'1333'
p5197
tp5198
a(S'MPI_Comm_size()'
p5199
S'1335'
p5200
tp5201
a(S'MPI_Allgather()'
p5202
S'1343'
p5203
tp5204
a(S'MPI_Barrier()'
p5205
S'1354'
p5206
tp5207
a(S'MPI_Abort()'
p5208
S'1379'
p5209
tp5210
a(S'MPI_Abort()'
p5211
S'1418'
p5212
tp5213
a(S'MPI_Abort()'
p5214
S'1512'
p5215
tp5216
a(S'MPI_Abort()'
p5217
S'1543'
p5218
tp5219
a(S'MPI_Abort()'
p5220
S'1593'
p5221
tp5222
asS'nwchem-6.6-revision27746/src/util/util_mpinap.c'
p5223
(lp5224
(S'MPI_Comm_rank()'
p5225
S'18'
p5226
tp5227
asS'nwchem-6.6-revision27746/src/tools/ga-5-4/global/testing/unit-tests/ga_create.c'
p5228
(lp5229
(S'MPI_Init()'
p5230
S'101'
p5231
tp5232
a(S'MPI_Comm_rank()'
p5233
S'103'
p5234
tp5235
a(S'MPI_Comm_size()'
p5236
S'104'
p5237
tp5238
a(S'MPI_Finalize()'
p5239
S'124'
p5240
tp5241
asS'nwchem-6.6-revision27746/src/tools/ga-5-4/global/testing/unit-tests/ga_median.c'
p5242
(lp5243
(S'MPI_Init()'
p5244
S'19'
p5245
tp5246
a(S'MPI_Comm_rank()'
p5247
S'21'
p5248
tp5249
a(S'MPI_Comm_size()'
p5250
S'22'
p5251
tp5252
a(S'MPI_Finalize()'
p5253
S'91'
p5254
tp5255
asS'nwchem-6.6-revision27746/src/tools/ga-5-4/global/testing/unit-tests/ga_create_handle.c'
p5256
(lp5257
(S'MPI_Init()'
p5258
S'19'
p5259
tp5260
a(S'MPI_Comm_rank()'
p5261
S'21'
p5262
tp5263
a(S'MPI_Comm_size()'
p5264
S'22'
p5265
tp5266
a(S'MPI_Finalize()'
p5267
S'40'
p5268
tp5269
asS'nwchem-6.6-revision27746/src/tools/ga-5-4/global/testing/unit-tests/ga_set_data.c'
p5270
(lp5271
(S'MPI_Init()'
p5272
S'23'
p5273
tp5274
a(S'MPI_Comm_rank()'
p5275
S'25'
p5276
tp5277
a(S'MPI_Comm_size()'
p5278
S'26'
p5279
tp5280
a(S'MPI_Finalize()'
p5281
S'53'
p5282
tp5283
asS'nwchem-6.6-revision27746/src/tools/ga-5-4/armci/src/devices/dcmf/dcmf-0.3.0/armcix_impl.c'
p5284
(lp5285
(S'MPI_Initialized()'
p5286
S'318'
p5287
tp5288
a(S'MPI_Query_thread()'
p5289
S'322'
p5290
tp5291
asS'nwchem-6.6-revision27746/src/tools/ga-5-4/global/testing/unit-tests/ga_pgroup_destroy.c'
p5292
(lp5293
(S'MPI_Init()'
p5294
S'22'
p5295
tp5296
a(S'MPI_Comm_rank()'
p5297
S'24'
p5298
tp5299
a(S'MPI_Comm_size()'
p5300
S'25'
p5301
tp5302
a(S'MPI_Finalize()'
p5303
S'75'
p5304
tp5305
asS'nwchem-6.6-revision27746/src/tools/ga-5-4/global/testing/unit-tests/ga_transpose3.c'
p5306
(lp5307
(S'MPI_Init()'
p5308
S'61'
p5309
tp5310
a(S'MPI_Comm_rank()'
p5311
S'63'
p5312
tp5313
a(S'MPI_Comm_size()'
p5314
S'64'
p5315
tp5316
a(S'MPI_Finalize()'
p5317
S'85'
p5318
tp5319
asS'nwchem-6.6-revision27746/src/tools/ga-5-4/global/testing/unit-tests/ga_duplicate.c'
p5320
(lp5321
(S'MPI_Init()'
p5322
S'24'
p5323
tp5324
a(S'MPI_Comm_rank()'
p5325
S'26'
p5326
tp5327
a(S'MPI_Comm_size()'
p5328
S'27'
p5329
tp5330
a(S'MPI_Finalize()'
p5331
S'64'
p5332
tp5333
asS'nwchem-6.6-revision27746/src/tools/ga-5-4/armci/src/devices/openib/openib.c'
p5334
(lp5335
(S'MPI_Alltoall()'
p5336
S'1287'
p5337
tp5338
a(S'MPI_Alltoall()'
p5339
S'1371'
p5340
tp5341
a(S'MPI_Wtime()'
p5342
S'1591'
p5343
tp5344
a(S'MPI_Wtime()'
p5345
S'4375'
p5346
tp5347
a(S'MPI_Wtime()'
p5348
S'4414'
p5349
tp5350
a(S'MPI_Wtime()'
p5351
S'4454'
p5352
tp5353
a(S'MPI_Allgather()'
p5354
S'4723'
p5355
tp5356
a(S'MPI_Alltoall()'
p5357
S'4725'
p5358
tp5359
a(S'MPI_Barrier()'
p5360
S'4931'
p5361
tp5362
a(S'MPI_Barrier()'
p5363
S'4936'
p5364
tp5365
a(S'MPI_Wtime()'
p5366
S'5087'
p5367
tp5368
a(S'MPI_Wtime()'
p5369
S'5101'
p5370
tp5371
a(S'MPI_Wtime()'
p5372
S'5182'
p5373
tp5374
a(S'MPI_Wtime()'
p5375
S'5217'
p5376
tp5377
asS'nwchem-6.6-revision27746/src/tools/ga-5-4/global/testing/unit-tests/ga_igop2.c'
p5378
(lp5379
(S'MPI_Init()'
p5380
S'73'
p5381
tp5382
a(S'MPI_Comm_rank()'
p5383
S'77'
p5384
tp5385
a(S'MPI_Comm_size()'
p5386
S'78'
p5387
tp5388
a(S'MPI_Finalize()'
p5389
S'89'
p5390
tp5391
asS'nwchem-6.6-revision27746/src/tools/ga-5-4/comex/src-dmapp/groups.c'
p5392
(lp5393
(S'MPI_Group_rank()'
p5394
S'83'
p5395
tp5396
a(S'MPI_Group_size()'
p5397
S'97'
p5398
tp5399
a(S'MPI_Group_translate_ranks()'
p5400
S'125'
p5401
tp5402
a(S'MPI_Group_free()'
p5403
S'146'
p5404
tp5405
a(S'MPI_Comm_free()'
p5406
S'153'
p5407
tp5408
a(S'MPI_Group_incl()'
p5409
S'211'
p5410
tp5411
a(S'MPI_Group_rank()'
p5412
S'219'
p5413
tp5414
a(S'MPI_Comm_dup()'
p5415
S'226'
p5416
tp5417
a(S'MPI_Intercomm_create()'
p5418
S'235'
p5419
tp5420
a(S'MPI_Comm_free()'
p5421
S'237'
p5422
tp5423
a(S'MPI_Intercomm_merge()'
p5424
S'238'
p5425
tp5426
a(S'MPI_Comm_free()'
p5427
S'239'
p5428
tp5429
a(S'MPI_Group_free()'
p5430
S'247'
p5431
tp5432
a(S'MPI_Comm_group()'
p5433
S'249'
p5434
tp5435
a(S'MPI_Comm_group()'
p5436
S'269'
p5437
tp5438
a(S'MPI_Group_free()'
p5439
S'289'
p5440
tp5441
asS'nwchem-6.6-revision27746/src/tools/ga-5-4/global/testing/unit-tests/ga_add_constantpatch.c'
p5442
(lp5443
(S'MPI_Init()'
p5444
S'24'
p5445
tp5446
a(S'MPI_Comm_rank()'
p5447
S'26'
p5448
tp5449
a(S'MPI_Comm_size()'
p5450
S'27'
p5451
tp5452
a(S'MPI_Finalize()'
p5453
S'61'
p5454
tp5455
asS'nwchem-6.6-revision27746/src/tools/ga-5-4/comex/testing/perf_strided.c'
p5456
(lp5457
(S'MPI_Finalize()'
p5458
S'71'
p5459
tp5460
asS'nwchem-6.6-revision27746/src/tools/ga-5-4/global/testing/unit-tests/ga_put.c'
p5461
(lp5462
(S'MPI_Init()'
p5463
S'24'
p5464
tp5465
a(S'MPI_Comm_rank()'
p5466
S'26'
p5467
tp5468
a(S'MPI_Comm_size()'
p5469
S'27'
p5470
tp5471
a(S'MPI_Finalize()'
p5472
S'99'
p5473
tp5474
asS'nwchem-6.6-revision27746/src/tools/ga-5-4/gfutex/src/gfutex_instr_comm.C'
p5475
(lp5476
(S'MPI_Comm_dup()'
p5477
S'107'
p5478
tp5479
a(S'MPI_Barrier()'
p5480
S'186'
p5481
tp5482
a(S'MPI_Barrier()'
p5483
S'189'
p5484
tp5485
a(S'MPI_Barrier()'
p5486
S'239'
p5487
tp5488
a(S'MPI_Barrier()'
p5489
S'261'
p5490
tp5491
a(S'MPI_Barrier()'
p5492
S'301'
p5493
tp5494
a(S'MPI_Barrier()'
p5495
S'314'
p5496
tp5497
a(S'MPI_Comm_free()'
p5498
S'316'
p5499
tp5500
a(S'MPI_Barrier()'
p5501
S'331'
p5502
tp5503
a(S'MPI_Allreduce()'
p5504
S'585'
p5505
tp5506
a(S'MPI_Barrier()'
p5507
S'599'
p5508
tp5509
a(S'MPI_Barrier()'
p5510
S'642'
p5511
tp5512
asS'nwchem-6.6-revision27746/src/tools/ga-5-4/global/testing/unit-tests/ga_elem_multiplypatch.c'
p5513
(lp5514
(S'MPI_Init()'
p5515
S'25'
p5516
tp5517
a(S'MPI_Comm_rank()'
p5518
S'27'
p5519
tp5520
a(S'MPI_Comm_size()'
p5521
S'28'
p5522
tp5523
a(S'MPI_Finalize()'
p5524
S'69'
p5525
tp5526
asS'nwchem-6.6-revision27746/src/tools/ga-5-4/comex/src-ofa/openib.c'
p5527
(lp5528
(S'MPI_Alltoall()'
p5529
S'201'
p5530
tp5531
a(S'MPI_Alltoall()'
p5532
S'205'
p5533
tp5534
a(S'MPI_Barrier()'
p5535
S'690'
p5536
tp5537
a(S'MPI_Barrier()'
p5538
S'784'
p5539
tp5540
asS'nwchem-6.6-revision27746/src/tools/ga-5-4/global/testing/unit-tests/ga_create_irreg.c'
p5541
(lp5542
(S'MPI_Init()'
p5543
S'177'
p5544
tp5545
a(S'MPI_Comm_rank()'
p5546
S'179'
p5547
tp5548
a(S'MPI_Comm_size()'
p5549
S'180'
p5550
tp5551
a(S'MPI_Finalize()'
p5552
S'196'
p5553
tp5554
asS'nwchem-6.6-revision27746/src/tools/ga-5-4/armci/src-portals/fence.c'
p5555
(lp5556
(S'MPI_Barrier()'
p5557
S'84'
p5558
tp5559
asS'nwchem-6.6-revision27746/src/tools/ga-5-4/tascel/examples/scf/scf.F'
p5560
(lp5561
(S'mpi_init()'
p5562
S'41'
p5563
tp5564
asS'nwchem-6.6-revision27746/src/tools/ga-5-4/global/testing/unit-tests/ga_nnodes.c'
p5565
(lp5566
(S'MPI_Init()'
p5567
S'23'
p5568
tp5569
a(S'MPI_Comm_rank()'
p5570
S'25'
p5571
tp5572
a(S'MPI_Comm_size()'
p5573
S'26'
p5574
tp5575
a(S'MPI_Finalize()'
p5576
S'38'
p5577
tp5578
asS'nwchem-6.6-revision27746/src/tools/ga-5-4/armci/testing/fttest.c'
p5579
(lp5580
(S'MPI_Wtime()'
p5581
S'66'
p5582
tp5583
a(S'MPI_Wtime()'
p5584
S'89'
p5585
tp5586
asS'nwchem-6.6-revision27746/src/tools/ga-5-4/global/testing/unit-tests/ga_pgroup_create4.c'
p5587
(lp5588
(S'MPI_Init()'
p5589
S'21'
p5590
tp5591
a(S'MPI_Comm_rank()'
p5592
S'23'
p5593
tp5594
a(S'MPI_Comm_size()'
p5595
S'24'
p5596
tp5597
a(S'MPI_Finalize()'
p5598
S'68'
p5599
tp5600
asS'nwchem-6.6-revision27746/src/tools/ga-5-4/global/testing/mp3.h'
p5601
(lp5602
(S'MPI_Init_thread()'
p5603
S'44'
p5604
tp5605
a(S'MPI_Abort()'
p5606
S'56'
p5607
tp5608
asS'nwchem-6.6-revision27746/src/nwpw/nwpwlib/CMatrix/CMatrix-mpi.F'
p5609
(lp5610
(S'MPI_IRECV()'
p5611
S'478'
p5612
tp5613
a(S'MPI_ISEND()'
p5614
S'493'
p5615
tp5616
a(S'MPI_IRECV()'
p5617
S'505'
p5618
tp5619
a(S'MPI_ISEND()'
p5620
S'514'
p5621
tp5622
a(S'MPI_Bcast()'
p5623
S'649'
p5624
tp5625
a(S'MPI_Bcast()'
p5626
S'655'
p5627
tp5628
a(S'MPI_Bcast()'
p5629
S'659'
p5630
tp5631
a(S'MPI_Bcast()'
p5632
S'663'
p5633
tp5634
a(S'MPI_Bcast()'
p5635
S'778'
p5636
tp5637
a(S'MPI_Bcast()'
p5638
S'782'
p5639
tp5640
a(S'MPI_Reduce()'
p5641
S'809'
p5642
tp5643
a(S'MPI_Reduce()'
p5644
S'813'
p5645
tp5646
a(S'MPI_Bcast()'
p5647
S'924'
p5648
tp5649
a(S'MPI_Bcast()'
p5650
S'927'
p5651
tp5652
a(S'MPI_Reduce()'
p5653
S'944'
p5654
tp5655
a(S'MPI_Reduce()'
p5656
S'948'
p5657
tp5658
a(S'MPI_Bcast()'
p5659
S'1098'
p5660
tp5661
a(S'MPI_Bcast()'
p5662
S'1100'
p5663
tp5664
a(S'MPI_Bcast()'
p5665
S'1103'
p5666
tp5667
a(S'MPI_Bcast()'
p5668
S'1105'
p5669
tp5670
a(S'MPI_AllReduce()'
p5671
S'1253'
p5672
tp5673
a(S'MPI_AllReduce()'
p5674
S'1257'
p5675
tp5676
a(S'MPI_Bcast()'
p5677
S'1269'
p5678
tp5679
a(S'MPI_Bcast()'
p5680
S'1272'
p5681
tp5682
a(S'MPI_AllReduce()'
p5683
S'1304'
p5684
tp5685
a(S'MPI_AllReduce()'
p5686
S'1308'
p5687
tp5688
a(S'MPI_Bcast()'
p5689
S'1316'
p5690
tp5691
a(S'MPI_Bcast()'
p5692
S'1319'
p5693
tp5694
a(S'MPI_Bcast()'
p5695
S'1420'
p5696
tp5697
a(S'MPI_Bcast()'
p5698
S'1422'
p5699
tp5700
a(S'MPI_Bcast()'
p5701
S'1425'
p5702
tp5703
a(S'MPI_Bcast()'
p5704
S'1427'
p5705
tp5706
a(S'MPI_Bcast()'
p5707
S'1507'
p5708
tp5709
a(S'MPI_Bcast()'
p5710
S'1510'
p5711
tp5712
a(S'MPI_AllReduce()'
p5713
S'1522'
p5714
tp5715
a(S'MPI_AllReduce()'
p5716
S'1526'
p5717
tp5718
a(S'MPI_Bcast()'
p5719
S'1559'
p5720
tp5721
a(S'MPI_Bcast()'
p5722
S'1562'
p5723
tp5724
a(S'MPI_AllReduce()'
p5725
S'1573'
p5726
tp5727
a(S'MPI_AllReduce()'
p5728
S'1577'
p5729
tp5730
a(S'MPI_Allreduce()'
p5731
S'1612'
p5732
tp5733
a(S'MPI_Allreduce()'
p5734
S'1615'
p5735
tp5736
a(S'MPI_Allreduce()'
p5737
S'1653'
p5738
tp5739
a(S'MPI_Allreduce()'
p5740
S'1656'
p5741
tp5742
a(S'MPI_SEND()'
p5743
S'1738'
p5744
tp5745
a(S'MPI_RECV()'
p5746
S'1749'
p5747
tp5748
a(S'MPI_Bcast()'
p5749
S'1900'
p5750
tp5751
a(S'MPI_Bcast()'
p5752
S'1904'
p5753
tp5754
a(S'MPI_Reduce()'
p5755
S'1942'
p5756
tp5757
a(S'MPI_Reduce()'
p5758
S'1946'
p5759
tp5760
asS'nwchem-6.6-revision27746/src/tools/ga-5-4/global/testing/unit-tests/ga_pgroup_create2.c'
p5761
(lp5762
(S'MPI_Init()'
p5763
S'21'
p5764
tp5765
a(S'MPI_Comm_rank()'
p5766
S'23'
p5767
tp5768
a(S'MPI_Comm_size()'
p5769
S'24'
p5770
tp5771
a(S'MPI_Finalize()'
p5772
S'77'
p5773
tp5774
asS'nwchem-6.6-revision27746/src/tools/ga-5-4/armci/tools/armci_trace.c'
p5775
(lp5776
(S'MPI_Comm_rank()'
p5777
S'111'
p5778
tp5779
a(S'MPI_Reduce()'
p5780
S'113'
p5781
tp5782
a(S'MPI_Reduce()'
p5783
S'114'
p5784
tp5785
a(S'MPI_Reduce()'
p5786
S'119'
p5787
tp5788
a(S'MPI_Reduce()'
p5789
S'121'
p5790
tp5791
a(S'MPI_Reduce()'
p5792
S'127'
p5793
tp5794
a(S'MPI_Reduce()'
p5795
S'128'
p5796
tp5797
a(S'MPI_Reduce()'
p5798
S'133'
p5799
tp5800
a(S'MPI_Reduce()'
p5801
S'134'
p5802
tp5803
a(S'MPI_Reduce()'
p5804
S'139'
p5805
tp5806
a(S'MPI_Reduce()'
p5807
S'141'
p5808
tp5809
a(S'MPI_Reduce()'
p5810
S'148'
p5811
tp5812
a(S'MPI_Reduce()'
p5813
S'150'
p5814
tp5815
a(S'MPI_Reduce()'
p5816
S'157'
p5817
tp5818
a(S'MPI_Reduce()'
p5819
S'159'
p5820
tp5821
a(S'MPI_Reduce()'
p5822
S'165'
p5823
tp5824
a(S'MPI_Reduce()'
p5825
S'167'
p5826
tp5827
a(S'MPI_Reduce()'
p5828
S'174'
p5829
tp5830
a(S'MPI_Reduce()'
p5831
S'176'
p5832
tp5833
a(S'MPI_Reduce()'
p5834
S'183'
p5835
tp5836
a(S'MPI_Reduce()'
p5837
S'184'
p5838
tp5839
a(S'MPI_Reduce()'
p5840
S'189'
p5841
tp5842
a(S'MPI_Reduce()'
p5843
S'190'
p5844
tp5845
a(S'MPI_Reduce()'
p5846
S'195'
p5847
tp5848
a(S'MPI_Reduce()'
p5849
S'197'
p5850
tp5851
a(S'MPI_Reduce()'
p5852
S'204'
p5853
tp5854
a(S'MPI_Reduce()'
p5855
S'205'
p5856
tp5857
a(S'MPI_Reduce()'
p5858
S'210'
p5859
tp5860
a(S'MPI_Reduce()'
p5861
S'212'
p5862
tp5863
a(S'MPI_Reduce()'
p5864
S'218'
p5865
tp5866
a(S'MPI_Reduce()'
p5867
S'220'
p5868
tp5869
a(S'MPI_Reduce()'
p5870
S'227'
p5871
tp5872
a(S'MPI_Reduce()'
p5873
S'229'
p5874
tp5875
a(S'MPI_Reduce()'
p5876
S'235'
p5877
tp5878
a(S'MPI_Reduce()'
p5879
S'237'
p5880
tp5881
a(S'MPI_Reduce()'
p5882
S'243'
p5883
tp5884
a(S'MPI_Reduce()'
p5885
S'244'
p5886
tp5887
a(S'MPI_Reduce()'
p5888
S'249'
p5889
tp5890
a(S'MPI_Reduce()'
p5891
S'250'
p5892
tp5893
a(S'MPI_Reduce()'
p5894
S'255'
p5895
tp5896
a(S'MPI_Reduce()'
p5897
S'256'
p5898
tp5899
a(S'MPI_Reduce()'
p5900
S'261'
p5901
tp5902
a(S'MPI_Reduce()'
p5903
S'263'
p5904
tp5905
a(S'MPI_Reduce()'
p5906
S'270'
p5907
tp5908
a(S'MPI_Reduce()'
p5909
S'272'
p5910
tp5911
a(S'MPI_Reduce()'
p5912
S'279'
p5913
tp5914
a(S'MPI_Reduce()'
p5915
S'281'
p5916
tp5917
a(S'MPI_Reduce()'
p5918
S'287'
p5919
tp5920
a(S'MPI_Reduce()'
p5921
S'289'
p5922
tp5923
a(S'MPI_Reduce()'
p5924
S'296'
p5925
tp5926
a(S'MPI_Reduce()'
p5927
S'298'
p5928
tp5929
a(S'MPI_Reduce()'
p5930
S'304'
p5931
tp5932
a(S'MPI_Reduce()'
p5933
S'306'
p5934
tp5935
a(S'MPI_Reduce()'
p5936
S'313'
p5937
tp5938
a(S'MPI_Reduce()'
p5939
S'314'
p5940
tp5941
a(S'MPI_Reduce()'
p5942
S'319'
p5943
tp5944
a(S'MPI_Reduce()'
p5945
S'320'
p5946
tp5947
a(S'MPI_Reduce()'
p5948
S'325'
p5949
tp5950
a(S'MPI_Reduce()'
p5951
S'327'
p5952
tp5953
a(S'MPI_Reduce()'
p5954
S'333'
p5955
tp5956
a(S'MPI_Reduce()'
p5957
S'334'
p5958
tp5959
a(S'MPI_Reduce()'
p5960
S'339'
p5961
tp5962
a(S'MPI_Reduce()'
p5963
S'341'
p5964
tp5965
a(S'MPI_Reduce()'
p5966
S'348'
p5967
tp5968
a(S'MPI_Reduce()'
p5969
S'350'
p5970
tp5971
a(S'MPI_Reduce()'
p5972
S'357'
p5973
tp5974
a(S'MPI_Reduce()'
p5975
S'359'
p5976
tp5977
a(S'MPI_Reduce()'
p5978
S'366'
p5979
tp5980
a(S'MPI_Reduce()'
p5981
S'367'
p5982
tp5983
a(S'MPI_Reduce()'
p5984
S'372'
p5985
tp5986
a(S'MPI_Reduce()'
p5987
S'374'
p5988
tp5989
a(S'MPI_Reduce()'
p5990
S'381'
p5991
tp5992
a(S'MPI_Reduce()'
p5993
S'383'
p5994
tp5995
a(S'MPI_Reduce()'
p5996
S'389'
p5997
tp5998
a(S'MPI_Reduce()'
p5999
S'390'
p6000
tp6001
a(S'MPI_Reduce()'
p6002
S'395'
p6003
tp6004
a(S'MPI_Reduce()'
p6005
S'396'
p6006
tp6007
a(S'MPI_Reduce()'
p6008
S'401'
p6009
tp6010
a(S'MPI_Reduce()'
p6011
S'403'
p6012
tp6013
a(S'MPI_Reduce()'
p6014
S'409'
p6015
tp6016
a(S'MPI_Reduce()'
p6017
S'410'
p6018
tp6019
a(S'MPI_Reduce()'
p6020
S'415'
p6021
tp6022
a(S'MPI_Reduce()'
p6023
S'417'
p6024
tp6025
a(S'MPI_Reduce()'
p6026
S'424'
p6027
tp6028
a(S'MPI_Reduce()'
p6029
S'426'
p6030
tp6031
a(S'MPI_Reduce()'
p6032
S'432'
p6033
tp6034
a(S'MPI_Reduce()'
p6035
S'434'
p6036
tp6037
a(S'MPI_Reduce()'
p6038
S'441'
p6039
tp6040
a(S'MPI_Reduce()'
p6041
S'443'
p6042
tp6043
a(S'MPI_Reduce()'
p6044
S'450'
p6045
tp6046
a(S'MPI_Reduce()'
p6047
S'451'
p6048
tp6049
a(S'MPI_Reduce()'
p6050
S'456'
p6051
tp6052
a(S'MPI_Reduce()'
p6053
S'458'
p6054
tp6055
asS'nwchem-6.6-revision27746/src/tools/ga-5-4/global/testing/unit-tests/ga_put2.c'
p6056
(lp6057
(S'MPI_Init()'
p6058
S'23'
p6059
tp6060
a(S'MPI_Comm_rank()'
p6061
S'24'
p6062
tp6063
a(S'MPI_Comm_size()'
p6064
S'25'
p6065
tp6066
a(S'MPI_Finalize()'
p6067
S'65'
p6068
tp6069
asS'nwchem-6.6-revision27746/src/tools/ga-5-4/armci/testing/origptl.c'
p6070
(lp6071
(S'MPI_Init()'
p6072
S'54'
p6073
tp6074
a(S'MPI_Finalize()'
p6075
S'55'
p6076
tp6077
asS'nwchem-6.6-revision27746/src/tools/ga-5-4/global/testing/unit-tests/ga_copypatch2.c'
p6078
(lp6079
(S'MPI_Init()'
p6080
S'27'
p6081
tp6082
a(S'MPI_Comm_rank()'
p6083
S'29'
p6084
tp6085
a(S'MPI_Comm_size()'
p6086
S'30'
p6087
tp6088
a(S'MPI_Finalize()'
p6089
S'75'
p6090
tp6091
asS'nwchem-6.6-revision27746/src/tools/ga-5-4/global/testing/unit-tests/ga_destroy.c'
p6092
(lp6093
(S'MPI_Init()'
p6094
S'22'
p6095
tp6096
a(S'MPI_Comm_rank()'
p6097
S'24'
p6098
tp6099
a(S'MPI_Comm_size()'
p6100
S'25'
p6101
tp6102
a(S'MPI_Finalize()'
p6103
S'44'
p6104
tp6105
asS'nwchem-6.6-revision27746/src/tools/ga-5-4/global/src/scalapack.F'
p6106
(lp6107
(S'MPI_Comm_group()'
p6108
S'3632'
p6109
tp6110
a(S'MPI_Group_incl()'
p6111
S'3636'
p6112
tp6113
a(S'mpi_comm_create()'
p6114
S'3642'
p6115
tp6116
a(S'MPI_Group_free()'
p6117
S'3743'
p6118
tp6119
a(S'MPI_comm_free()'
p6120
S'3746'
p6121
tp6122
asS'nwchem-6.6-revision27746/src/tools/ga-5-4/armci/testing/fork.c'
p6123
(lp6124
(S'MPI_Init()'
p6125
S'79'
p6126
tp6127
a(S'MPI_Finalize()'
p6128
S'80'
p6129
tp6130
asS'nwchem-6.6-revision27746/src/tools/ga-5-4/global/testing/lock.c'
p6131
(lp6132
(S'MPI_Finalize()'
p6133
S'141'
p6134
tp6135
asS'nwchem-6.6-revision27746/src/tools/ga-5-4/configure'
p6136
(lp6137
(S'MPI_Init()'
p6138
S'19342'
p6139
tp6140
a(S'MPI_Finalize()'
p6141
S'19343'
p6142
tp6143
a(S'MPI_Init()'
p6144
S'19525'
p6145
tp6146
a(S'MPI_Finalize()'
p6147
S'19526'
p6148
tp6149
asS'nwchem-6.6-revision27746/src/tools/ga-5-4/comex/testing/shift.c'
p6150
(lp6151
(S'MPI_Finalize()'
p6152
S'63'
p6153
tp6154
a(S'MPI_Allreduce()'
p6155
S'144'
p6156
tp6157
asS'nwchem-6.6-revision27746/src/tools/ga-5-4/gfutex/test/test_gfutex.C'
p6158
(lp6159
(S'MPI_Init()'
p6160
S'52'
p6161
tp6162
a(S'MPI_Barrier()'
p6163
S'73'
p6164
tp6165
a(S'MPI_Barrier()'
p6166
S'81'
p6167
tp6168
a(S'MPI_Wtime()'
p6169
S'105'
p6170
tp6171
a(S'MPI_Wtime()'
p6172
S'109'
p6173
tp6174
a(S'MPI_Barrier()'
p6175
S'111'
p6176
tp6177
a(S'MPI_Wtime()'
p6178
S'113'
p6179
tp6180
a(S'MPI_Wtime()'
p6181
S'115'
p6182
tp6183
a(S'MPI_Barrier()'
p6184
S'142'
p6185
tp6186
a(S'MPI_Finalize()'
p6187
S'149'
p6188
tp6189
asS'nwchem-6.6-revision27746/src/tools/ga-5-4/global/testing/unit-tests/ga_pgroup_destroy2.c'
p6190
(lp6191
(S'MPI_Init()'
p6192
S'22'
p6193
tp6194
a(S'MPI_Comm_rank()'
p6195
S'24'
p6196
tp6197
a(S'MPI_Comm_size()'
p6198
S'25'
p6199
tp6200
a(S'MPI_Finalize()'
p6201
S'75'
p6202
tp6203
asS'nwchem-6.6-revision27746/src/tools/ga-5-4/tcgmsg/tcgmsg-mpi/nxtval.c'
p6204
(lp6205
(S'MPI_Recv()'
p6206
S'33'
p6207
tp6208
a(S'MPI_Get_count()'
p6209
S'34'
p6210
tp6211
a(S'MPI_Send()'
p6212
S'61'
p6213
tp6214
a(S'MPI_Barrier()'
p6215
S'63'
p6216
tp6217
a(S'MPI_Finalize()'
p6218
S'64'
p6219
tp6220
a(S'MPI_Send()'
p6221
S'73'
p6222
tp6223
a(S'MPI_Send()'
p6224
S'86'
p6225
tp6226
a(S'MPI_Send()'
p6227
S'126'
p6228
tp6229
a(S'MPI_Recv()'
p6230
S'127'
p6231
tp6232
a(S'MPI_Comm_size()'
p6233
S'157'
p6234
tp6235
a(S'MPI_Comm_rank()'
p6236
S'158'
p6237
tp6238
asS'nwchem-6.6-revision27746/src/tools/ga-5-4/comex/src-mpi-pr/comex.c'
p6239
(lp6240
(S'MPI_Initialized()'
p6241
S'277'
p6242
tp6243
a(S'MPI_Barrier()'
p6244
S'352'
p6245
tp6246
a(S'MPI_Barrier()'
p6247
S'367'
p6248
tp6249
a(S'MPI_Initialized()'
p6250
S'382'
p6251
tp6252
a(S'MPI_Init()'
p6253
S'386'
p6254
tp6255
a(S'MPI_Barrier()'
p6256
S'449'
p6257
tp6258
a(S'MPI_Abort()'
p6259
S'483'
p6260
tp6261
a(S'MPI_Barrier()'
p6262
S'796'
p6263
tp6264
a(S'MPI_Allgather()'
p6265
S'1502'
p6266
tp6267
a(S'MPI_Allgather()'
p6268
S'1703'
p6269
tp6270
a(S'MPI_Type_contiguous()'
p6271
S'1825'
p6272
tp6273
a(S'MPI_Type_commit()'
p6274
S'1827'
p6275
tp6276
a(S'MPI_Allgather()'
p6277
S'1874'
p6278
tp6279
a(S'MPI_Allgather()'
p6280
S'2021'
p6281
tp6282
a(S'MPI_Recv()'
p6283
S'2172'
p6284
tp6285
a(S'X_MPI_ANY_SOURCE()'
p6286
S'2173'
p6287
tp6288
a(S'MPI_Get_count()'
p6289
S'2174'
p6290
tp6291
a(S'MPI_Barrier()'
p6292
S'2273'
p6293
tp6294
a(S'MPI_Finalize()'
p6295
S'2292'
p6296
tp6297
a(S'MPI_Group_translate_ranks()'
p6298
S'3331'
p6299
tp6300
a(S'MPI_Group_translate_ranks()'
p6301
S'3353'
p6302
tp6303
a(S'MPI_Abort()'
p6304
S'3546'
p6305
tp6306
a(S'MPI_Send()'
p6307
S'3593'
p6308
tp6309
a(S'MPI_Recv()'
p6310
S'3606'
p6311
tp6312
a(S'MPI_Get_count()'
p6313
S'3613'
p6314
tp6315
a(S'MPI_Isend()'
p6316
S'3645'
p6317
tp6318
a(S'MPI_Irecv()'
p6319
S'3696'
p6320
tp6321
a(S'MPI_Irecv()'
p6322
S'3734'
p6323
tp6324
a(S'MPI_Irecv()'
p6325
S'3771'
p6326
tp6327
a(S'MPI_Abort()'
p6328
S'3808'
p6329
tp6330
a(S'MPI_Wait()'
p6331
S'3849'
p6332
tp6333
a(S'MPI_Wait()'
p6334
S'3900'
p6335
tp6336
asS'nwchem-6.6-revision27746/src/tools/ga-5-4/global/testing/unit-tests/ga_dgop.c'
p6337
(lp6338
(S'MPI_Init()'
p6339
S'175'
p6340
tp6341
a(S'MPI_Comm_rank()'
p6342
S'179'
p6343
tp6344
a(S'MPI_Comm_size()'
p6345
S'180'
p6346
tp6347
a(S'MPI_Finalize()'
p6348
S'197'
p6349
tp6350
asS'nwchem-6.6-revision27746/src/tools/ga-5-4/armci/testing/ptltest.c'
p6351
(lp6352
(S'MPI_Init()'
p6353
S'67'
p6354
tp6355
a(S'MPI_Finalize()'
p6356
S'98'
p6357
tp6358
asS'nwchem-6.6-revision27746/src/tools/ga-5-4/armci/src-gemini/armci-onesided.c'
p6359
(lp6360
(S'MPI_Allreduce()'
p6361
S'596'
p6362
tp6363
asS'nwchem-6.6-revision27746/src/tools/ga-5-4/global/testing/unit-tests/ga_zeropatch2.c'
p6364
(lp6365
(S'MPI_Init()'
p6366
S'26'
p6367
tp6368
a(S'MPI_Comm_rank()'
p6369
S'28'
p6370
tp6371
a(S'MPI_Comm_size()'
p6372
S'29'
p6373
tp6374
a(S'MPI_Finalize()'
p6375
S'83'
p6376
tp6377
asS'nwchem-6.6-revision27746/src/tools/ga-5-4/gfutex/examples/scf/twoel.C'
p6378
(lp6379
(S'MPI_Wtime()'
p6380
S'207'
p6381
tp6382
a(S'MPI_Wtime()'
p6383
S'313'
p6384
tp6385
a(S'MPI_Wtime()'
p6386
S'444'
p6387
tp6388
a(S'MPI_Wtime()'
p6389
S'465'
p6390
tp6391
a(S'MPI_Wtime()'
p6392
S'467'
p6393
tp6394
a(S'MPI_Wtime()'
p6395
S'471'
p6396
tp6397
a(S'MPI_Wtime()'
p6398
S'479'
p6399
tp6400
a(S'MPI_Wtime()'
p6401
S'483'
p6402
tp6403
a(S'MPI_Allgather()'
p6404
S'493'
p6405
tp6406
a(S'MPI_Wtime()'
p6407
S'513'
p6408
tp6409
a(S'MPI_Wtime()'
p6410
S'515'
p6411
tp6412
a(S'MPI_Wtime()'
p6413
S'516'
p6414
tp6415
a(S'MPI_Wtime()'
p6416
S'519'
p6417
tp6418
a(S'MPI_Wtime()'
p6419
S'558'
p6420
tp6421
a(S'MPI_Wtime()'
p6422
S'561'
p6423
tp6424
a(S'MPI_Allgather()'
p6425
S'1023'
p6426
tp6427
a(S'MPI_Reduce()'
p6428
S'1103'
p6429
tp6430
asS'nwchem-6.6-revision27746/src/tools/ga-5-4/armci/src-gemini/armci_portals.c'
p6431
(lp6432
(S'MPI_Comm_size()'
p6433
S'502'
p6434
tp6435
a(S'MPI_Comm_rank()'
p6436
S'503'
p6437
tp6438
a(S'MPI_Barrier()'
p6439
S'512'
p6440
tp6441
a(S'MPI_Barrier()'
p6442
S'519'
p6443
tp6444
a(S'MPI_Barrier()'
p6445
S'537'
p6446
tp6447
a(S'MPI_Barrier()'
p6448
S'539'
p6449
tp6450
asS'nwchem-6.6-revision27746/src/tools/ga-5-4/global/testing/unit-tests/ga_copypatch.c'
p6451
(lp6452
(S'MPI_Init()'
p6453
S'26'
p6454
tp6455
a(S'MPI_Comm_rank()'
p6456
S'28'
p6457
tp6458
a(S'MPI_Comm_size()'
p6459
S'29'
p6460
tp6461
a(S'MPI_Finalize()'
p6462
S'76'
p6463
tp6464
asS'nwchem-6.6-revision27746/src/tools/ga-5-4/global/testing/unit-tests/ga_igop.c'
p6465
(lp6466
(S'MPI_Init()'
p6467
S'205'
p6468
tp6469
a(S'MPI_Comm_rank()'
p6470
S'209'
p6471
tp6472
a(S'MPI_Comm_size()'
p6473
S'210'
p6474
tp6475
a(S'MPI_Finalize()'
p6476
S'228'
p6477
tp6478
asS'nwchem-6.6-revision27746/src/tools/ga-5-4/armci/examples/features/concurrency/multidma/multidma.c'
p6479
(lp6480
(S'MPI_Abort()'
p6481
S'91'
p6482
tp6483
a(S'MPI_Bcast()'
p6484
S'399'
p6485
tp6486
a(S'MPI_Gather()'
p6487
S'442'
p6488
tp6489
a(S'MPI_Gather()'
p6490
S'444'
p6491
tp6492
asS'nwchem-6.6-revision27746/src/tools/ga-5-4/comex/src-dmapp/comex.c'
p6493
(lp6494
(S'MPI_Barrier()'
p6495
S'864'
p6496
tp6497
a(S'MPI_Abort()'
p6498
S'875'
p6499
tp6500
a(S'MPI_Barrier()'
p6501
S'967'
p6502
tp6503
a(S'MPI_Initialized()'
p6504
S'1022'
p6505
tp6506
a(S'MPI_Comm_dup()'
p6507
S'1027'
p6508
tp6509
a(S'MPI_Comm_rank()'
p6510
S'1032'
p6511
tp6512
a(S'MPI_Comm_size()'
p6513
S'1037'
p6514
tp6515
a(S'MPI_Barrier()'
p6516
S'1061'
p6517
tp6518
a(S'MPI_Initialized()'
p6519
S'1072'
p6520
tp6521
a(S'MPI_Init()'
p6522
S'1075'
p6523
tp6524
a(S'MPI_Barrier()'
p6525
S'1099'
p6526
tp6527
a(S'MPI_Comm_free()'
p6528
S'1102'
p6529
tp6530
a(S'MPI_Allgather()'
p6531
S'1371'
p6532
tp6533
a(S'MPI_Barrier()'
p6534
S'1379'
p6535
tp6536
a(S'MPI_Barrier()'
p6537
S'1390'
p6538
tp6539
a(S'MPI_Barrier()'
p6540
S'1398'
p6541
tp6542
a(S'MPI_Barrier()'
p6543
S'1426'
p6544
tp6545
a(S'MPI_Comm_rank()'
p6546
S'1502'
p6547
tp6548
a(S'MPI_Comm_size()'
p6549
S'1503'
p6550
tp6551
a(S'MPI_Allreduce()'
p6552
S'1506'
p6553
tp6554
a(S'MPI_Allgather()'
p6555
S'1517'
p6556
tp6557
a(S'MPI_Allgather()'
p6558
S'1526'
p6559
tp6560
a(S'MPI_Barrier()'
p6561
S'1542'
p6562
tp6563
a(S'MPI_Comm_rank()'
p6564
S'1563'
p6565
tp6566
a(S'MPI_Comm_size()'
p6567
S'1564'
p6568
tp6569
a(S'MPI_Allgather()'
p6570
S'1571'
p6571
tp6572
a(S'MPI_Barrier()'
p6573
S'1589'
p6574
tp6575
a(S'MPI_Barrier()'
p6576
S'1823'
p6577
tp6578
a(S'MPI_Barrier()'
p6579
S'1840'
p6580
tp6581
asS'nwchem-6.6-revision27746/src/tools/ga-5-4/global/testing/mp3.fh'
p6582
(lp6583
(S'mpi_init_thread()'
p6584
S'18'
p6585
tp6586
a(S'mpi_init()'
p6587
S'20'
p6588
tp6589
asS'nwchem-6.6-revision27746/src/tools/ga-5-4/tools/wapigen_timers.py'
p6590
(lp6591
(S'MPI_Wtime()'
p6592
S'155'
p6593
tp6594
a(S'MPI_Wtime()'
p6595
S'157'
p6596
tp6597
a(S'MPI_Wtime()'
p6598
S'169'
p6599
tp6600
a(S'MPI_Wtime()'
p6601
S'171'
p6602
tp6603
a(S'MPI_Wtime()'
p6604
S'184'
p6605
tp6606
a(S'MPI_Comm_dup()'
p6607
S'186'
p6608
tp6609
a(S'MPI_Comm_rank()'
p6610
S'187'
p6611
tp6612
a(S'MPI_Comm_size()'
p6613
S'188'
p6614
tp6615
a(S'MPI_Wtime()'
p6616
S'200'
p6617
tp6618
a(S'MPI_Comm_dup()'
p6619
S'202'
p6620
tp6621
a(S'MPI_Comm_rank()'
p6622
S'203'
p6623
tp6624
a(S'MPI_Comm_size()'
p6625
S'204'
p6626
tp6627
a(S'MPI_Reduce()'
p6628
S'220'
p6629
tp6630
a(S'MPI_Wtime()'
p6631
S'230'
p6632
tp6633
a(S'MPI_Comm_free()'
p6634
S'239'
p6635
tp6636
asS'nwchem-6.6-revision27746/src/tools/ga-5-4/gfutex/examples/scf/timer.c'
p6637
(lp6638
(S'MPI_Wtime()'
p6639
S'53'
p6640
tp6641
a(S'MPI_Wtime()'
p6642
S'57'
p6643
tp6644
asS'nwchem-6.6-revision27746/src/tools/ga-5-4/global/testing/unit-tests/ga_get.c'
p6645
(lp6646
(S'MPI_Init()'
p6647
S'23'
p6648
tp6649
a(S'MPI_Comm_rank()'
p6650
S'24'
p6651
tp6652
a(S'MPI_Comm_size()'
p6653
S'25'
p6654
tp6655
a(S'MPI_Finalize()'
p6656
S'65'
p6657
tp6658
asS'nwchem-6.6-revision27746/src/tools/ga-5-4/comex/tools/armci_prof.c'
p6659
(lp6660
(S'MPI_Wtime()'
p6661
S'144'
p6662
tp6663
a(S'MPI_Wtime()'
p6664
S'146'
p6665
tp6666
a(S'MPI_Wtime()'
p6667
S'158'
p6668
tp6669
a(S'MPI_Wtime()'
p6670
S'160'
p6671
tp6672
a(S'MPI_Wtime()'
p6673
S'172'
p6674
tp6675
a(S'MPI_Wtime()'
p6676
S'174'
p6677
tp6678
a(S'MPI_Wtime()'
p6679
S'186'
p6680
tp6681
a(S'MPI_Wtime()'
p6682
S'188'
p6683
tp6684
a(S'MPI_Wtime()'
p6685
S'200'
p6686
tp6687
a(S'MPI_Wtime()'
p6688
S'202'
p6689
tp6690
a(S'MPI_Wtime()'
p6691
S'214'
p6692
tp6693
a(S'MPI_Wtime()'
p6694
S'216'
p6695
tp6696
a(S'MPI_Wtime()'
p6697
S'228'
p6698
tp6699
a(S'MPI_Wtime()'
p6700
S'230'
p6701
tp6702
a(S'MPI_Wtime()'
p6703
S'242'
p6704
tp6705
a(S'MPI_Wtime()'
p6706
S'244'
p6707
tp6708
a(S'MPI_Wtime()'
p6709
S'256'
p6710
tp6711
a(S'MPI_Wtime()'
p6712
S'258'
p6713
tp6714
a(S'MPI_Wtime()'
p6715
S'270'
p6716
tp6717
a(S'MPI_Wtime()'
p6718
S'272'
p6719
tp6720
a(S'MPI_Wtime()'
p6721
S'284'
p6722
tp6723
a(S'MPI_Wtime()'
p6724
S'286'
p6725
tp6726
a(S'MPI_Wtime()'
p6727
S'298'
p6728
tp6729
a(S'MPI_Wtime()'
p6730
S'300'
p6731
tp6732
a(S'MPI_Wtime()'
p6733
S'312'
p6734
tp6735
a(S'MPI_Wtime()'
p6736
S'314'
p6737
tp6738
a(S'MPI_Wtime()'
p6739
S'326'
p6740
tp6741
a(S'MPI_Wtime()'
p6742
S'328'
p6743
tp6744
a(S'MPI_Wtime()'
p6745
S'340'
p6746
tp6747
a(S'MPI_Wtime()'
p6748
S'342'
p6749
tp6750
a(S'MPI_Wtime()'
p6751
S'354'
p6752
tp6753
a(S'MPI_Wtime()'
p6754
S'356'
p6755
tp6756
a(S'MPI_Wtime()'
p6757
S'368'
p6758
tp6759
a(S'MPI_Wtime()'
p6760
S'370'
p6761
tp6762
a(S'MPI_Comm_dup()'
p6763
S'382'
p6764
tp6765
a(S'MPI_Comm_rank()'
p6766
S'383'
p6767
tp6768
a(S'MPI_Comm_size()'
p6769
S'384'
p6770
tp6771
a(S'MPI_Wtime()'
p6772
S'387'
p6773
tp6774
a(S'MPI_Wtime()'
p6775
S'388'
p6776
tp6777
a(S'MPI_Wtime()'
p6778
S'390'
p6779
tp6780
a(S'MPI_Comm_dup()'
p6781
S'402'
p6782
tp6783
a(S'MPI_Comm_rank()'
p6784
S'403'
p6785
tp6786
a(S'MPI_Comm_size()'
p6787
S'404'
p6788
tp6789
a(S'MPI_Wtime()'
p6790
S'407'
p6791
tp6792
a(S'MPI_Wtime()'
p6793
S'408'
p6794
tp6795
a(S'MPI_Wtime()'
p6796
S'410'
p6797
tp6798
a(S'MPI_Wtime()'
p6799
S'422'
p6800
tp6801
a(S'MPI_Wtime()'
p6802
S'424'
p6803
tp6804
a(S'MPI_Wtime()'
p6805
S'436'
p6806
tp6807
a(S'MPI_Wtime()'
p6808
S'438'
p6809
tp6810
a(S'MPI_Wtime()'
p6811
S'450'
p6812
tp6813
a(S'MPI_Wtime()'
p6814
S'452'
p6815
tp6816
a(S'MPI_Wtime()'
p6817
S'464'
p6818
tp6819
a(S'MPI_Wtime()'
p6820
S'466'
p6821
tp6822
a(S'MPI_Wtime()'
p6823
S'478'
p6824
tp6825
a(S'MPI_Wtime()'
p6826
S'480'
p6827
tp6828
a(S'MPI_Wtime()'
p6829
S'492'
p6830
tp6831
a(S'MPI_Wtime()'
p6832
S'494'
p6833
tp6834
a(S'MPI_Wtime()'
p6835
S'506'
p6836
tp6837
a(S'MPI_Wtime()'
p6838
S'508'
p6839
tp6840
a(S'MPI_Wtime()'
p6841
S'520'
p6842
tp6843
a(S'MPI_Wtime()'
p6844
S'522'
p6845
tp6846
a(S'MPI_Wtime()'
p6847
S'534'
p6848
tp6849
a(S'MPI_Wtime()'
p6850
S'536'
p6851
tp6852
a(S'MPI_Wtime()'
p6853
S'548'
p6854
tp6855
a(S'MPI_Wtime()'
p6856
S'550'
p6857
tp6858
a(S'MPI_Wtime()'
p6859
S'562'
p6860
tp6861
a(S'MPI_Wtime()'
p6862
S'564'
p6863
tp6864
a(S'MPI_Wtime()'
p6865
S'576'
p6866
tp6867
a(S'MPI_Wtime()'
p6868
S'578'
p6869
tp6870
a(S'MPI_Wtime()'
p6871
S'590'
p6872
tp6873
a(S'MPI_Wtime()'
p6874
S'592'
p6875
tp6876
a(S'MPI_Wtime()'
p6877
S'604'
p6878
tp6879
a(S'MPI_Wtime()'
p6880
S'606'
p6881
tp6882
a(S'MPI_Wtime()'
p6883
S'618'
p6884
tp6885
a(S'MPI_Wtime()'
p6886
S'620'
p6887
tp6888
a(S'MPI_Wtime()'
p6889
S'632'
p6890
tp6891
a(S'MPI_Wtime()'
p6892
S'634'
p6893
tp6894
a(S'MPI_Wtime()'
p6895
S'646'
p6896
tp6897
a(S'MPI_Wtime()'
p6898
S'648'
p6899
tp6900
a(S'MPI_Wtime()'
p6901
S'660'
p6902
tp6903
a(S'MPI_Wtime()'
p6904
S'662'
p6905
tp6906
a(S'MPI_Wtime()'
p6907
S'674'
p6908
tp6909
a(S'MPI_Wtime()'
p6910
S'676'
p6911
tp6912
a(S'MPI_Wtime()'
p6913
S'688'
p6914
tp6915
a(S'MPI_Wtime()'
p6916
S'690'
p6917
tp6918
a(S'MPI_Wtime()'
p6919
S'702'
p6920
tp6921
a(S'MPI_Wtime()'
p6922
S'704'
p6923
tp6924
a(S'MPI_Wtime()'
p6925
S'716'
p6926
tp6927
a(S'MPI_Wtime()'
p6928
S'718'
p6929
tp6930
a(S'MPI_Wtime()'
p6931
S'730'
p6932
tp6933
a(S'MPI_Wtime()'
p6934
S'732'
p6935
tp6936
a(S'MPI_Wtime()'
p6937
S'744'
p6938
tp6939
a(S'MPI_Wtime()'
p6940
S'746'
p6941
tp6942
a(S'MPI_Wtime()'
p6943
S'758'
p6944
tp6945
a(S'MPI_Wtime()'
p6946
S'760'
p6947
tp6948
a(S'MPI_Wtime()'
p6949
S'772'
p6950
tp6951
a(S'MPI_Wtime()'
p6952
S'774'
p6953
tp6954
a(S'MPI_Wtime()'
p6955
S'786'
p6956
tp6957
a(S'MPI_Wtime()'
p6958
S'788'
p6959
tp6960
a(S'MPI_Wtime()'
p6961
S'800'
p6962
tp6963
a(S'MPI_Wtime()'
p6964
S'802'
p6965
tp6966
a(S'MPI_Wtime()'
p6967
S'814'
p6968
tp6969
a(S'MPI_Wtime()'
p6970
S'816'
p6971
tp6972
a(S'MPI_Wtime()'
p6973
S'828'
p6974
tp6975
a(S'MPI_Wtime()'
p6976
S'830'
p6977
tp6978
a(S'MPI_Wtime()'
p6979
S'842'
p6980
tp6981
a(S'MPI_Wtime()'
p6982
S'844'
p6983
tp6984
a(S'MPI_Wtime()'
p6985
S'856'
p6986
tp6987
a(S'MPI_Wtime()'
p6988
S'858'
p6989
tp6990
a(S'MPI_Wtime()'
p6991
S'870'
p6992
tp6993
a(S'MPI_Wtime()'
p6994
S'872'
p6995
tp6996
a(S'MPI_Wtime()'
p6997
S'884'
p6998
tp6999
a(S'MPI_Wtime()'
p7000
S'886'
p7001
tp7002
a(S'MPI_Wtime()'
p7003
S'898'
p7004
tp7005
a(S'MPI_Wtime()'
p7006
S'900'
p7007
tp7008
a(S'MPI_Wtime()'
p7009
S'912'
p7010
tp7011
a(S'MPI_Wtime()'
p7012
S'914'
p7013
tp7014
a(S'MPI_Wtime()'
p7015
S'926'
p7016
tp7017
a(S'MPI_Wtime()'
p7018
S'928'
p7019
tp7020
a(S'MPI_Wtime()'
p7021
S'940'
p7022
tp7023
a(S'MPI_Wtime()'
p7024
S'942'
p7025
tp7026
a(S'MPI_Wtime()'
p7027
S'952'
p7028
tp7029
a(S'MPI_Reduce()'
p7030
S'958'
p7031
tp7032
a(S'MPI_Reduce()'
p7033
S'963'
p7034
tp7035
a(S'MPI_Reduce()'
p7036
S'968'
p7037
tp7038
a(S'MPI_Reduce()'
p7039
S'973'
p7040
tp7041
a(S'MPI_Reduce()'
p7042
S'978'
p7043
tp7044
a(S'MPI_Reduce()'
p7045
S'983'
p7046
tp7047
a(S'MPI_Reduce()'
p7048
S'988'
p7049
tp7050
a(S'MPI_Reduce()'
p7051
S'993'
p7052
tp7053
a(S'MPI_Reduce()'
p7054
S'998'
p7055
tp7056
a(S'MPI_Reduce()'
p7057
S'1003'
p7058
tp7059
a(S'MPI_Reduce()'
p7060
S'1008'
p7061
tp7062
a(S'MPI_Reduce()'
p7063
S'1013'
p7064
tp7065
a(S'MPI_Reduce()'
p7066
S'1018'
p7067
tp7068
a(S'MPI_Reduce()'
p7069
S'1023'
p7070
tp7071
a(S'MPI_Reduce()'
p7072
S'1028'
p7073
tp7074
a(S'MPI_Reduce()'
p7075
S'1033'
p7076
tp7077
a(S'MPI_Reduce()'
p7078
S'1038'
p7079
tp7080
a(S'MPI_Reduce()'
p7081
S'1043'
p7082
tp7083
a(S'MPI_Reduce()'
p7084
S'1048'
p7085
tp7086
a(S'MPI_Reduce()'
p7087
S'1053'
p7088
tp7089
a(S'MPI_Reduce()'
p7090
S'1058'
p7091
tp7092
a(S'MPI_Reduce()'
p7093
S'1063'
p7094
tp7095
a(S'MPI_Reduce()'
p7096
S'1068'
p7097
tp7098
a(S'MPI_Reduce()'
p7099
S'1073'
p7100
tp7101
a(S'MPI_Reduce()'
p7102
S'1078'
p7103
tp7104
a(S'MPI_Reduce()'
p7105
S'1083'
p7106
tp7107
a(S'MPI_Reduce()'
p7108
S'1088'
p7109
tp7110
a(S'MPI_Reduce()'
p7111
S'1093'
p7112
tp7113
a(S'MPI_Reduce()'
p7114
S'1098'
p7115
tp7116
a(S'MPI_Reduce()'
p7117
S'1103'
p7118
tp7119
a(S'MPI_Reduce()'
p7120
S'1108'
p7121
tp7122
a(S'MPI_Reduce()'
p7123
S'1113'
p7124
tp7125
a(S'MPI_Reduce()'
p7126
S'1118'
p7127
tp7128
a(S'MPI_Reduce()'
p7129
S'1123'
p7130
tp7131
a(S'MPI_Reduce()'
p7132
S'1128'
p7133
tp7134
a(S'MPI_Reduce()'
p7135
S'1133'
p7136
tp7137
a(S'MPI_Reduce()'
p7138
S'1138'
p7139
tp7140
a(S'MPI_Reduce()'
p7141
S'1143'
p7142
tp7143
a(S'MPI_Reduce()'
p7144
S'1148'
p7145
tp7146
a(S'MPI_Reduce()'
p7147
S'1153'
p7148
tp7149
a(S'MPI_Reduce()'
p7150
S'1158'
p7151
tp7152
a(S'MPI_Reduce()'
p7153
S'1163'
p7154
tp7155
a(S'MPI_Reduce()'
p7156
S'1168'
p7157
tp7158
a(S'MPI_Reduce()'
p7159
S'1173'
p7160
tp7161
a(S'MPI_Reduce()'
p7162
S'1178'
p7163
tp7164
a(S'MPI_Reduce()'
p7165
S'1183'
p7166
tp7167
a(S'MPI_Reduce()'
p7168
S'1188'
p7169
tp7170
a(S'MPI_Reduce()'
p7171
S'1193'
p7172
tp7173
a(S'MPI_Reduce()'
p7174
S'1198'
p7175
tp7176
a(S'MPI_Reduce()'
p7177
S'1203'
p7178
tp7179
a(S'MPI_Reduce()'
p7180
S'1208'
p7181
tp7182
a(S'MPI_Reduce()'
p7183
S'1213'
p7184
tp7185
a(S'MPI_Reduce()'
p7186
S'1218'
p7187
tp7188
a(S'MPI_Reduce()'
p7189
S'1223'
p7190
tp7191
a(S'MPI_Reduce()'
p7192
S'1228'
p7193
tp7194
a(S'MPI_Reduce()'
p7195
S'1233'
p7196
tp7197
a(S'MPI_Reduce()'
p7198
S'1238'
p7199
tp7200
a(S'MPI_Reduce()'
p7201
S'1243'
p7202
tp7203
a(S'MPI_Comm_free()'
p7204
S'1253'
p7205
tp7206
asS'nwchem-6.6-revision27746/src/tools/ga-5-4/comex/src-mpi-pt/comex.c'
p7207
(lp7208
(S'MPI_Initialized()'
p7209
S'279'
p7210
tp7211
a(S'MPI_Query_thread()'
p7212
S'284'
p7213
tp7214
a(S'MPI_Barrier()'
p7215
S'345'
p7216
tp7217
a(S'MPI_Barrier()'
p7218
S'374'
p7219
tp7220
a(S'MPI_Initialized()'
p7221
S'389'
p7222
tp7223
a(S'MPI_Init_thread()'
p7224
S'394'
p7225
tp7226
a(S'MPI_Barrier()'
p7227
S'459'
p7228
tp7229
a(S'MPI_Abort()'
p7230
S'493'
p7231
tp7232
a(S'MPI_Barrier()'
p7233
S'806'
p7234
tp7235
a(S'MPI_Allgather()'
p7236
S'1514'
p7237
tp7238
a(S'MPI_Barrier()'
p7239
S'1535'
p7240
tp7241
a(S'MPI_Allgather()'
p7242
S'1715'
p7243
tp7244
a(S'MPI_Type_contiguous()'
p7245
S'1836'
p7246
tp7247
a(S'MPI_Type_commit()'
p7248
S'1838'
p7249
tp7250
a(S'MPI_Allgather()'
p7251
S'1885'
p7252
tp7253
a(S'MPI_Allgather()'
p7254
S'2032'
p7255
tp7256
a(S'MPI_Recv()'
p7257
S'2180'
p7258
tp7259
a(S'X_MPI_ANY_SOURCE()'
p7260
S'2181'
p7261
tp7262
a(S'MPI_Get_count()'
p7263
S'2182'
p7264
tp7265
a(S'MPI_Recv()'
p7266
S'2299'
p7267
tp7268
a(S'MPI_Recv()'
p7269
S'2654'
p7270
tp7271
a(S'MPI_Group_translate_ranks()'
p7272
S'3325'
p7273
tp7274
a(S'MPI_Group_translate_ranks()'
p7275
S'3347'
p7276
tp7277
a(S'MPI_Abort()'
p7278
S'3540'
p7279
tp7280
a(S'MPI_Send()'
p7281
S'3587'
p7282
tp7283
a(S'MPI_Recv()'
p7284
S'3600'
p7285
tp7286
a(S'MPI_Get_count()'
p7287
S'3607'
p7288
tp7289
a(S'MPI_Isend()'
p7290
S'3639'
p7291
tp7292
a(S'MPI_Irecv()'
p7293
S'3690'
p7294
tp7295
a(S'MPI_Irecv()'
p7296
S'3728'
p7297
tp7298
a(S'MPI_Irecv()'
p7299
S'3765'
p7300
tp7301
a(S'MPI_Abort()'
p7302
S'3802'
p7303
tp7304
a(S'MPI_Wait()'
p7305
S'3843'
p7306
tp7307
a(S'MPI_Wait()'
p7308
S'3894'
p7309
tp7310
asS'nwchem-6.6-revision27746/src/tools/ga-5-4/comex/src-mpi/groups.c'
p7311
(lp7312
(S'MPI_Group_rank()'
p7313
S'83'
p7314
tp7315
a(S'MPI_Group_size()'
p7316
S'97'
p7317
tp7318
a(S'MPI_Group_translate_ranks()'
p7319
S'125'
p7320
tp7321
a(S'MPI_Group_free()'
p7322
S'146'
p7323
tp7324
a(S'MPI_Comm_free()'
p7325
S'153'
p7326
tp7327
a(S'MPI_Group_incl()'
p7328
S'211'
p7329
tp7330
a(S'MPI_Group_rank()'
p7331
S'219'
p7332
tp7333
a(S'MPI_Comm_dup()'
p7334
S'226'
p7335
tp7336
a(S'MPI_Intercomm_create()'
p7337
S'235'
p7338
tp7339
a(S'MPI_Comm_free()'
p7340
S'237'
p7341
tp7342
a(S'MPI_Intercomm_merge()'
p7343
S'238'
p7344
tp7345
a(S'MPI_Comm_free()'
p7346
S'239'
p7347
tp7348
a(S'MPI_Group_free()'
p7349
S'247'
p7350
tp7351
a(S'MPI_Comm_group()'
p7352
S'249'
p7353
tp7354
a(S'MPI_Comm_group()'
p7355
S'269'
p7356
tp7357
a(S'MPI_Group_free()'
p7358
S'289'
p7359
tp7360
asS'nwchem-6.6-revision27746/src/tools/ga-5-4/armci/src-gemini/memory.c'
p7361
(lp7362
(S'MPI_Allreduce()'
p7363
S'696'
p7364
tp7365
a(S'MPI_Allgather()'
p7366
S'697'
p7367
tp7368
a(S'MPI_Bcast()'
p7369
S'711'
p7370
tp7371
a(S'MPI_Bcast()'
p7372
S'712'
p7373
tp7374
a(S'MPI_Allgather()'
p7375
S'725'
p7376
tp7377
asS'nwchem-6.6-revision27746/src/tools/ga-5-4/tcgmsg/tcgmsg-mpi/clustercheck.c'
p7378
(lp7379
(S'MPI_Comm_rank()'
p7380
S'34'
p7381
tp7382
a(S'MPI_Bcast()'
p7383
S'36'
p7384
tp7385
a(S'MPI_Bcast()'
p7386
S'38'
p7387
tp7388
a(S'MPI_Abort()'
p7389
S'43'
p7390
tp7391
a(S'MPI_Allreduce()'
p7392
S'53'
p7393
tp7394
a(S'MPI_Abort()'
p7395
S'57'
p7396
tp7397
asS'nwchem-6.6-revision27746/src/tools/ga-5-4/comex/src-mpi-pt/hello.c'
p7398
(lp7399
(S'MPI_Init()'
p7400
S'14'
p7401
tp7402
a(S'MPI_Finalize()'
p7403
S'27'
p7404
tp7405
asS'nwchem-6.6-revision27746/src/tools/ga-5-4/global/examples/lennard-jones/lennard.c'
p7406
(lp7407
(S'MPI_Finalize()'
p7408
S'766'
p7409
tp7410
asS'nwchem-6.6-revision27746/src/tools/ga-5-4/armci/src-portals/armci.c'
p7411
(lp7412
(S'MPI_Comm_free()'
p7413
S'431'
p7414
tp7415
asS'nwchem-6.6-revision27746/src/tools/ga-5-4/comex/testing/perf.c'
p7416
(lp7417
(S'MPI_Finalize()'
p7418
S'64'
p7419
tp7420
asS'nwchem-6.6-revision27746/src/tools/ga-5-4/comex/src-ofa/comex.c'
p7421
(lp7422
(S'MPI_Abort()'
p7423
S'41'
p7424
tp7425
a(S'MPI_Comm_rank()'
p7426
S'65'
p7427
tp7428
a(S'MPI_Comm_size()'
p7429
S'67'
p7430
tp7431
a(S'MPI_Allreduce()'
p7432
S'71'
p7433
tp7434
a(S'MPI_Allgather()'
p7435
S'87'
p7436
tp7437
a(S'MPI_Allgather()'
p7438
S'100'
p7439
tp7440
a(S'MPI_Barrier()'
p7441
S'116'
p7442
tp7443
a(S'MPI_Comm_rank()'
p7444
S'138'
p7445
tp7446
a(S'MPI_Comm_size()'
p7447
S'140'
p7448
tp7449
a(S'MPI_Allgather()'
p7450
S'148'
p7451
tp7452
a(S'MPI_Barrier()'
p7453
S'167'
p7454
tp7455
a(S'MPI_Initialized()'
p7456
S'242'
p7457
tp7458
a(S'MPI_Comm_dup()'
p7459
S'246'
p7460
tp7461
a(S'MPI_Comm_rank()'
p7462
S'249'
p7463
tp7464
a(S'MPI_Comm_size()'
p7465
S'252'
p7466
tp7467
a(S'MPI_Barrier()'
p7468
S'267'
p7469
tp7470
a(S'MPI_Initialized()'
p7471
S'278'
p7472
tp7473
a(S'MPI_Init()'
p7474
S'281'
p7475
tp7476
a(S'MPI_Barrier()'
p7477
S'297'
p7478
tp7479
asS'nwchem-6.6-revision27746/src/tools/ga-5-4/armci/src/devices/mpi-mt/mpi2.h'
p7480
(lp7481
(S'X_MPI_SPAWN_DEBUG()'
p7482
g2743
tp7483
asS'nwchem-6.6-revision27746/src/tools/ga-5-4/comex/testing/perf_contig.c'
p7484
(lp7485
(S'MPI_Finalize()'
p7486
S'70'
p7487
tp7488
asS'nwchem-6.6-revision27746/src/tools/ga-5-4/global/testing/unit-tests/ga_elem_maximumpatch.c'
p7489
(lp7490
(S'MPI_Init()'
p7491
S'24'
p7492
tp7493
a(S'MPI_Comm_rank()'
p7494
S'26'
p7495
tp7496
a(S'MPI_Comm_size()'
p7497
S'27'
p7498
tp7499
a(S'MPI_Finalize()'
p7500
S'70'
p7501
tp7502
asS'nwchem-6.6-revision27746/src/tools/ga-5-4/global/testing/unit-tests/ga_lgop.c'
p7503
(lp7504
(S'MPI_Init()'
p7505
S'171'
p7506
tp7507
a(S'MPI_Comm_rank()'
p7508
S'175'
p7509
tp7510
a(S'MPI_Comm_size()'
p7511
S'176'
p7512
tp7513
a(S'MPI_Finalize()'
p7514
S'193'
p7515
tp7516
asS'nwchem-6.6-revision27746/src/tools/ga-5-4/tascel/src/Comm.cc'
p7517
(lp7518
(S'MPI_Barrier()'
p7519
S'18'
p7520
tp7521
a(S'MPI_Comm_size()'
p7522
S'24'
p7523
tp7524
a(S'MPI_Comm_rank()'
p7525
S'31'
p7526
tp7527
asS'nwchem-6.6-revision27746/src/tools/ga-5-4/global/testing/unit-tests/ga_ndim.c'
p7528
(lp7529
(S'MPI_Init()'
p7530
S'58'
p7531
tp7532
a(S'MPI_Comm_rank()'
p7533
S'60'
p7534
tp7535
a(S'MPI_Comm_size()'
p7536
S'61'
p7537
tp7538
a(S'MPI_Finalize()'
p7539
S'76'
p7540
tp7541
asS'nwchem-6.6-revision27746/src/tools/ga-5-4/global/testing/unit-tests/ga_get_diagonal.c'
p7542
(lp7543
(S'MPI_Init()'
p7544
S'26'
p7545
tp7546
a(S'MPI_Comm_rank()'
p7547
S'28'
p7548
tp7549
a(S'MPI_Comm_size()'
p7550
S'29'
p7551
tp7552
a(S'MPI_Finalize()'
p7553
S'66'
p7554
tp7555
asS'nwchem-6.6-revision27746/src/tools/ga-5-4/tascel/src/TerminationDetector.cc'
p7556
(lp7557
(S'MPI_Irecv()'
p7558
S'18'
p7559
tp7560
a(S'MPI_Irecv()'
p7561
S'21'
p7562
tp7563
a(S'MPI_Irecv()'
p7564
S'30'
p7565
tp7566
a(S'MPI_Cancel()'
p7567
S'46'
p7568
tp7569
a(S'MPI_Cancel()'
p7570
S'49'
p7571
tp7572
a(S'MPI_Cancel()'
p7573
S'52'
p7574
tp7575
a(S'MPI_Send()'
p7576
S'75'
p7577
tp7578
a(S'MPI_Send()'
p7579
S'83'
p7580
tp7581
a(S'MPI_Send()'
p7582
S'86'
p7583
tp7584
a(S'MPI_Test()'
p7585
S'101'
p7586
tp7587
a(S'MPI_Test()'
p7588
S'104'
p7589
tp7590
a(S'MPI_Test()'
p7591
S'116'
p7592
tp7593
asS'nwchem-6.6-revision27746/src/tools/ga-5-4/comex/src-armci/message.c'
p7594
(lp7595
(S'MPI_Comm_rank()'
p7596
S'160'
p7597
tp7598
a(S'MPI_Type_size()'
p7599
S'181'
p7600
tp7601
a(S'MPI_Allreduce()'
p7602
S'197'
p7603
tp7604
a(S'MPI_Bcast()'
p7605
S'209'
p7606
tp7607
a(S'MPI_Type_struct()'
p7608
S'256'
p7609
tp7610
a(S'MPI_Allreduce()'
p7611
S'280'
p7612
tp7613
a(S'MPI_Bcast()'
p7614
S'303'
p7615
tp7616
a(S'MPI_Comm_rank()'
p7617
S'330'
p7618
tp7619
a(S'MPI_Isend()'
p7620
S'335'
p7621
tp7622
a(S'MPI_Test()'
p7623
S'346'
p7624
tp7625
a(S'MPI_Comm_rank()'
p7626
S'365'
p7627
tp7628
a(S'MPI_Irecv()'
p7629
S'370'
p7630
tp7631
a(S'MPI_Test()'
p7632
S'374'
p7633
tp7634
a(S'MPI_Test()'
p7635
S'384'
p7636
tp7637
a(S'MPI_Get_count()'
p7638
S'392'
p7639
tp7640
a(S'MPI_Comm_rank()'
p7641
S'407'
p7642
tp7643
a(S'MPI_Irecv()'
p7644
S'412'
p7645
tp7646
a(S'MPI_Test()'
p7647
S'415'
p7648
tp7649
a(S'MPI_Get_count()'
p7650
S'423'
p7651
tp7652
a(S'MPI_Barrier()'
p7653
S'498'
p7654
tp7655
a(S'MPI_Comm_rank()'
p7656
S'528'
p7657
tp7658
a(S'MPI_Comm_size()'
p7659
S'538'
p7660
tp7661
a(S'MPI_Abort()'
p7662
S'546'
p7663
tp7664
a(S'MPI_Initialized()'
p7665
S'553'
p7666
tp7667
a(S'MPI_Init()'
p7668
S'555'
p7669
tp7670
a(S'MPI_Initialized()'
p7671
S'563'
p7672
tp7673
a(S'MPI_Finalize()'
p7674
S'565'
p7675
tp7676
a(S'MPI_Allgather()'
p7677
S'670'
p7678
tp7679
a(S'MPI_Barrier()'
p7680
S'679'
p7681
tp7682
a(S'MPI_Bcast()'
p7683
S'686'
p7684
tp7685
a(S'MPI_Comm_group()'
p7686
S'697'
p7687
tp7688
a(S'MPI_Comm_group()'
p7689
S'699'
p7690
tp7691
a(S'MPI_Group_translate_ranks()'
p7692
S'701'
p7693
tp7694
a(S'MPI_Bcast()'
p7695
S'704'
p7696
tp7697
asS'nwchem-6.6-revision27746/src/tools/ga-5-4/global/testing/unit-tests/ga_solve.c'
p7698
(lp7699
(S'MPI_Init()'
p7700
S'26'
p7701
tp7702
a(S'MPI_Comm_rank()'
p7703
S'28'
p7704
tp7705
a(S'MPI_Comm_size()'
p7706
S'29'
p7707
tp7708
a(S'MPI_Finalize()'
p7709
S'66'
p7710
tp7711
asS'nwchem-6.6-revision27746/src/tools/ga-5-4/global/testing/unit-tests/ga_elem_dividepatch.c'
p7712
(lp7713
(S'MPI_Init()'
p7714
S'25'
p7715
tp7716
a(S'MPI_Comm_rank()'
p7717
S'27'
p7718
tp7719
a(S'MPI_Comm_size()'
p7720
S'28'
p7721
tp7722
a(S'MPI_Finalize()'
p7723
S'69'
p7724
tp7725
asS'nwchem-6.6-revision27746/src/smd/graveyard/smd-subgroups/task_smd_energy.F'
p7726
(lp7727
(S'mpi_barrier()'
p7728
S'72'
p7729
tp7730
a(S'mpi_barrier()'
p7731
S'93'
p7732
tp7733
asS'nwchem-6.6-revision27746/src/tools/ga-5-4/global/testing/unit-tests/ga_zeropatch.c'
p7734
(lp7735
(S'MPI_Init()'
p7736
S'26'
p7737
tp7738
a(S'MPI_Comm_rank()'
p7739
S'28'
p7740
tp7741
a(S'MPI_Comm_size()'
p7742
S'29'
p7743
tp7744
a(S'MPI_Finalize()'
p7745
S'83'
p7746
tp7747
asS'nwchem-6.6-revision27746/src/tools/ga-5-4/global/testing/unit-tests/ga_gather2.c'
p7748
(lp7749
(S'MPI_Init()'
p7750
S'25'
p7751
tp7752
a(S'MPI_Comm_rank()'
p7753
S'29'
p7754
tp7755
a(S'MPI_Comm_size()'
p7756
S'30'
p7757
tp7758
a(S'MPI_Finalize()'
p7759
S'96'
p7760
tp7761
asS'nwchem-6.6-revision27746/src/tools/ga-5-4/comex/src-mpi-mt/groups.c'
p7762
(lp7763
(S'X_MPI_COMM_NULL()'
p7764
S'29'
p7765
tp7766
a(S'X_MPI_GROUP_NULL()'
p7767
S'30'
p7768
tp7769
a(S'X_MPI_COMM_NULL()'
p7770
S'34'
p7771
tp7772
a(S'MPI_Group_translate_ranks()'
p7773
S'180'
p7774
tp7775
a(S'MPI_Group_free()'
p7776
S'203'
p7777
tp7778
a(S'MPI_Comm_free()'
p7779
S'213'
p7780
tp7781
a(S'MPI_Group_incl()'
p7782
S'293'
p7783
tp7784
a(S'MPI_Group_rank()'
p7785
S'302'
p7786
tp7787
a(S'MPI_Comm_dup()'
p7788
S'314'
p7789
tp7790
a(S'MPI_Intercomm_create()'
p7791
S'324'
p7792
tp7793
a(S'MPI_Comm_free()'
p7794
S'327'
p7795
tp7796
a(S'MPI_Intercomm_merge()'
p7797
S'329'
p7798
tp7799
a(S'MPI_Comm_free()'
p7800
S'331'
p7801
tp7802
a(S'MPI_Group_free()'
p7803
S'340'
p7804
tp7805
a(S'MPI_Comm_group()'
p7806
S'343'
p7807
tp7808
a(S'MPI_Comm_size()'
p7809
S'346'
p7810
tp7811
a(S'MPI_Comm_rank()'
p7812
S'348'
p7813
tp7814
a(S'MPI_Comm_dup()'
p7815
S'374'
p7816
tp7817
a(S'MPI_Comm_group()'
p7818
S'376'
p7819
tp7820
a(S'MPI_Comm_rank()'
p7821
S'378'
p7822
tp7823
a(S'MPI_Comm_size()'
p7824
S'380'
p7825
tp7826
a(S'MPI_Allgather()'
p7827
S'396'
p7828
tp7829
a(S'MPI_Comm_dup()'
p7830
S'405'
p7831
tp7832
a(S'MPI_Comm_group()'
p7833
S'407'
p7834
tp7835
a(S'MPI_Comm_rank()'
p7836
S'409'
p7837
tp7838
a(S'MPI_Comm_size()'
p7839
S'411'
p7840
tp7841
a(S'MPI_Comm_split()'
p7842
S'415'
p7843
tp7844
a(S'MPI_Comm_rank()'
p7845
S'419'
p7846
tp7847
a(S'MPI_Comm_size()'
p7848
S'422'
p7849
tp7850
a(S'MPI_Comm_free()'
p7851
S'444'
p7852
tp7853
a(S'MPI_Group_free()'
p7854
S'446'
p7855
tp7856
a(S'MPI_Comm_free()'
p7857
S'448'
p7858
tp7859
asS'nwchem-6.6-revision27746/src/tools/ga-5-4/global/testing/unit-tests/ga_create_irreg2.c'
p7860
(lp7861
(S'MPI_Init()'
p7862
S'180'
p7863
tp7864
a(S'MPI_Comm_rank()'
p7865
S'182'
p7866
tp7867
a(S'MPI_Comm_size()'
p7868
S'183'
p7869
tp7870
a(S'MPI_Finalize()'
p7871
S'199'
p7872
tp7873
asS'nwchem-6.6-revision27746/src/nwpw/nwpwlib/Parallel/Parallel-mpi.F'
p7874
(lp7875
(S'MPI_COMM_RANK()'
p7876
S'99'
p7877
tp7878
a(S'MPI_COMM_SIZE()'
p7879
S'100'
p7880
tp7881
a(S'MPI_COMM_group()'
p7882
S'196'
p7883
tp7884
a(S'MPI_Group_incl()'
p7885
S'202'
p7886
tp7887
a(S'MPI_Comm_create()'
p7888
S'206'
p7889
tp7890
a(S'MPI_Group_incl()'
p7891
S'213'
p7892
tp7893
a(S'MPI_Comm_create()'
p7894
S'216'
p7895
tp7896
a(S'MPI_COMM_group()'
p7897
S'233'
p7898
tp7899
a(S'MPI_Group_incl()'
p7900
S'238'
p7901
tp7902
a(S'MPI_Comm_create()'
p7903
S'239'
p7904
tp7905
a(S'MPI_Group_incl()'
p7906
S'244'
p7907
tp7908
a(S'MPI_Comm_create()'
p7909
S'245'
p7910
tp7911
a(S'MPI_Comm_free()'
p7912
S'282'
p7913
tp7914
a(S'MPI_Group_free()'
p7915
S'283'
p7916
tp7917
a(S'MPI_Comm_free()'
p7918
S'284'
p7919
tp7920
a(S'MPI_Group_free()'
p7921
S'285'
p7922
tp7923
a(S'MPI_Comm_free()'
p7924
S'297'
p7925
tp7926
a(S'MPI_Group_free()'
p7927
S'298'
p7928
tp7929
a(S'MPI_Comm_free()'
p7930
S'299'
p7931
tp7932
a(S'MPI_Group_free()'
p7933
S'300'
p7934
tp7935
a(S'MPI_COMM_group()'
p7936
S'370'
p7937
tp7938
a(S'MPI_Group_incl()'
p7939
S'379'
p7940
tp7941
a(S'MPI_Comm_create()'
p7942
S'383'
p7943
tp7944
a(S'MPI_Group_incl()'
p7945
S'393'
p7946
tp7947
a(S'MPI_Comm_create()'
p7948
S'396'
p7949
tp7950
a(S'MPI_Group_incl()'
p7951
S'406'
p7952
tp7953
a(S'MPI_Comm_create()'
p7954
S'410'
p7955
tp7956
a(S'MPI_COMM_group()'
p7957
S'426'
p7958
tp7959
a(S'MPI_Group_incl()'
p7960
S'434'
p7961
tp7962
a(S'MPI_Comm_create()'
p7963
S'435'
p7964
tp7965
a(S'MPI_Group_incl()'
p7966
S'443'
p7967
tp7968
a(S'MPI_Comm_create()'
p7969
S'444'
p7970
tp7971
a(S'MPI_Group_incl()'
p7972
S'452'
p7973
tp7974
a(S'MPI_Comm_create()'
p7975
S'453'
p7976
tp7977
a(S'MPI_Comm_free()'
p7978
S'485'
p7979
tp7980
a(S'MPI_Group_free()'
p7981
S'486'
p7982
tp7983
a(S'MPI_Comm_free()'
p7984
S'487'
p7985
tp7986
a(S'MPI_Group_free()'
p7987
S'488'
p7988
tp7989
a(S'MPI_Comm_free()'
p7990
S'489'
p7991
tp7992
a(S'MPI_Group_free()'
p7993
S'490'
p7994
tp7995
a(S'MPI_Comm_free()'
p7996
S'501'
p7997
tp7998
a(S'MPI_Group_free()'
p7999
S'502'
p8000
tp8001
a(S'MPI_Comm_free()'
p8002
S'503'
p8003
tp8004
a(S'MPI_Group_free()'
p8005
S'504'
p8006
tp8007
a(S'MPI_Comm_free()'
p8008
S'505'
p8009
tp8010
a(S'MPI_Group_free()'
p8011
S'506'
p8012
tp8013
a(S'MPI_Allreduce()'
p8014
S'536'
p8015
tp8016
a(S'MPI_Allreduce()'
p8017
S'544'
p8018
tp8019
a(S'MPI_Allreduce()'
p8020
S'575'
p8021
tp8022
a(S'MPI_Allreduce()'
p8023
S'584'
p8024
tp8025
a(S'MPI_Allreduce()'
p8026
S'619'
p8027
tp8028
a(S'MPI_Allreduce()'
p8029
S'628'
p8030
tp8031
a(S'MPI_Allreduce()'
p8032
S'663'
p8033
tp8034
a(S'MPI_Allreduce()'
p8035
S'675'
p8036
tp8037
a(S'MPI_Allreduce()'
p8038
S'722'
p8039
tp8040
a(S'MPI_Allreduce()'
p8041
S'727'
p8042
tp8043
a(S'MPI_Allreduce()'
p8044
S'784'
p8045
tp8046
a(S'MPI_Allreduce()'
p8047
S'793'
p8048
tp8049
a(S'MPI_Bcast()'
p8050
S'836'
p8051
tp8052
a(S'MPI_Bcast()'
p8053
S'843'
p8054
tp8055
a(S'MPI_Bcast()'
p8056
S'880'
p8057
tp8058
a(S'MPI_Bcast()'
p8059
S'887'
p8060
tp8061
a(S'MPI_Bcast()'
p8062
S'921'
p8063
tp8064
a(S'MPI_Bcast()'
p8065
S'929'
p8066
tp8067
a(S'MPI_Bcast()'
p8068
S'974'
p8069
tp8070
a(S'MPI_Bcast()'
p8071
S'985'
p8072
tp8073
a(S'MPI_WAITALL()'
p8074
S'1065'
p8075
tp8076
a(S'MPI_WAITALL()'
p8077
S'1082'
p8078
tp8079
a(S'MPI_Allreduce()'
p8080
S'1170'
p8081
tp8082
a(S'MPI_Allreduce()'
p8083
S'1181'
p8084
tp8085
a(S'MPI_Allreduce()'
p8086
S'1220'
p8087
tp8088
a(S'MPI_Allreduce()'
p8089
S'1231'
p8090
tp8091
a(S'MPI_Allreduce()'
p8092
S'1268'
p8093
tp8094
a(S'MPI_Allreduce()'
p8095
S'1281'
p8096
tp8097
a(S'MPI_Allreduce()'
p8098
S'1336'
p8099
tp8100
a(S'MPI_Allreduce()'
p8101
S'1341'
p8102
tp8103
a(S'MPI_Allreduce()'
p8104
S'1404'
p8105
tp8106
a(S'MPI_Allreduce()'
p8107
S'1413'
p8108
tp8109
a(S'MPI_Bcast()'
p8110
S'1458'
p8111
tp8112
a(S'MPI_Bcast()'
p8113
S'1467'
p8114
tp8115
a(S'MPI_Bcast()'
p8116
S'1505'
p8117
tp8118
a(S'MPI_Bcast()'
p8119
S'1514'
p8120
tp8121
a(S'MPI_Bcast()'
p8122
S'1552'
p8123
tp8124
a(S'MPI_Bcast()'
p8125
S'1562'
p8126
tp8127
a(S'MPI_Bcast()'
p8128
S'1610'
p8129
tp8130
a(S'MPI_Bcast()'
p8131
S'1623'
p8132
tp8133
a(S'MPI_IRECV()'
p8134
S'1695'
p8135
tp8136
a(S'MPI_ISEND()'
p8137
S'1711'
p8138
tp8139
a(S'MPI_IRECV()'
p8140
S'1727'
p8141
tp8142
a(S'MPI_ISEND()'
p8143
S'1739'
p8144
tp8145
a(S'MPI_IRECV()'
p8146
S'1826'
p8147
tp8148
a(S'MPI_ISEND()'
p8149
S'1844'
p8150
tp8151
a(S'MPI_IRECV()'
p8152
S'1860'
p8153
tp8154
a(S'MPI_ISEND()'
p8155
S'1872'
p8156
tp8157
a(S'MPI_SEND()'
p8158
S'1945'
p8159
tp8160
a(S'MPI_SEND()'
p8161
S'1949'
p8162
tp8163
a(S'MPI_SEND()'
p8164
S'1988'
p8165
tp8166
a(S'MPI_SEND()'
p8167
S'1994'
p8168
tp8169
a(S'MPI_SEND()'
p8170
S'2025'
p8171
tp8172
a(S'MPI_SEND()'
p8173
S'2029'
p8174
tp8175
a(S'MPI_RECV()'
p8176
S'2068'
p8177
tp8178
a(S'MPI_RECV()'
p8179
S'2073'
p8180
tp8181
a(S'MPI_RECV()'
p8182
S'2119'
p8183
tp8184
a(S'MPI_RECV()'
p8185
S'2128'
p8186
tp8187
a(S'MPI_RECV()'
p8188
S'2173'
p8189
tp8190
a(S'MPI_RECV()'
p8191
S'2178'
p8192
tp8193
asS'nwchem-6.6-revision27746/src/tools/ga-5-4/comex/src-mpi-pr/groups.c'
p8194
(lp8195
(S'X_MPI_COMM_NULL()'
p8196
S'30'
p8197
tp8198
a(S'X_MPI_GROUP_NULL()'
p8199
S'31'
p8200
tp8201
a(S'X_MPI_COMM_NULL()'
p8202
S'36'
p8203
tp8204
a(S'MPI_Group_translate_ranks()'
p8205
S'182'
p8206
tp8207
a(S'MPI_Group_free()'
p8208
S'205'
p8209
tp8210
a(S'MPI_Comm_free()'
p8211
S'215'
p8212
tp8213
a(S'MPI_Group_incl()'
p8214
S'295'
p8215
tp8216
a(S'MPI_Group_rank()'
p8217
S'304'
p8218
tp8219
a(S'MPI_Comm_dup()'
p8220
S'316'
p8221
tp8222
a(S'MPI_Intercomm_create()'
p8223
S'326'
p8224
tp8225
a(S'MPI_Comm_free()'
p8226
S'329'
p8227
tp8228
a(S'MPI_Intercomm_merge()'
p8229
S'331'
p8230
tp8231
a(S'MPI_Comm_free()'
p8232
S'333'
p8233
tp8234
a(S'MPI_Group_free()'
p8235
S'342'
p8236
tp8237
a(S'MPI_Comm_group()'
p8238
S'345'
p8239
tp8240
a(S'MPI_Comm_size()'
p8241
S'348'
p8242
tp8243
a(S'MPI_Comm_rank()'
p8244
S'350'
p8245
tp8246
a(S'MPI_Comm_dup()'
p8247
S'377'
p8248
tp8249
a(S'MPI_Comm_group()'
p8250
S'379'
p8251
tp8252
a(S'MPI_Comm_rank()'
p8253
S'381'
p8254
tp8255
a(S'MPI_Comm_size()'
p8256
S'383'
p8257
tp8258
a(S'MPI_Allgather()'
p8259
S'400'
p8260
tp8261
a(S'MPI_Allgather()'
p8262
S'427'
p8263
tp8264
a(S'MPI_Comm_split()'
p8265
S'437'
p8266
tp8267
a(S'MPI_Comm_free()'
p8268
S'441'
p8269
tp8270
a(S'MPI_Comm_split()'
p8271
S'448'
p8272
tp8273
a(S'MPI_Comm_group()'
p8274
S'451'
p8275
tp8276
a(S'MPI_Comm_rank()'
p8277
S'453'
p8278
tp8279
a(S'MPI_Comm_size()'
p8280
S'455'
p8281
tp8282
a(S'MPI_Comm_split()'
p8283
S'460'
p8284
tp8285
a(S'MPI_Comm_rank()'
p8286
S'464'
p8287
tp8288
a(S'MPI_Comm_size()'
p8289
S'467'
p8290
tp8291
a(S'MPI_Comm_free()'
p8292
S'501'
p8293
tp8294
a(S'MPI_Group_free()'
p8295
S'503'
p8296
tp8297
a(S'MPI_Comm_free()'
p8298
S'505'
p8299
tp8300
asS'nwchem-6.6-revision27746/src/tools/ga-5-4/global/testing/simple_groups_comm.F'
p8301
(lp8302
(S'mpi_allreduce()'
p8303
S'55'
p8304
tp8305
asS'nwchem-6.6-revision27746/src/tools/ga-5-4/comex/tools/prof_gen.py'
p8306
(lp8307
(S'MPI_Comm_dup()'
p8308
S'170'
p8309
tp8310
a(S'MPI_Comm_rank()'
p8311
S'171'
p8312
tp8313
a(S'MPI_Comm_size()'
p8314
S'172'
p8315
tp8316
a(S'MPI_Wtime()'
p8317
S'175'
p8318
tp8319
a(S'MPI_Wtime()'
p8320
S'176'
p8321
tp8322
a(S'MPI_Wtime()'
p8323
S'178'
p8324
tp8325
a(S'MPI_Wtime()'
p8326
S'196'
p8327
tp8328
a(S'MPI_Wtime()'
p8329
S'198'
p8330
tp8331
a(S'MPI_Reduce()'
p8332
S'221'
p8333
tp8334
a(S'MPI_Wtime()'
p8335
S'232'
p8336
tp8337
a(S'MPI_Comm_free()'
p8338
S'241'
p8339
tp8340
asS'nwchem-6.6-revision27746/src/nwpw/nwpwlib/DMatrix/DMatrix-mpi.F'
p8341
(lp8342
(S'MPI_IRECV()'
p8343
S'478'
p8344
tp8345
a(S'MPI_ISEND()'
p8346
S'493'
p8347
tp8348
a(S'MPI_IRECV()'
p8349
S'505'
p8350
tp8351
a(S'MPI_ISEND()'
p8352
S'514'
p8353
tp8354
a(S'MPI_Bcast()'
p8355
S'649'
p8356
tp8357
a(S'MPI_Bcast()'
p8358
S'655'
p8359
tp8360
a(S'MPI_Bcast()'
p8361
S'659'
p8362
tp8363
a(S'MPI_Bcast()'
p8364
S'663'
p8365
tp8366
a(S'MPI_Bcast()'
p8367
S'778'
p8368
tp8369
a(S'MPI_Bcast()'
p8370
S'782'
p8371
tp8372
a(S'MPI_Reduce()'
p8373
S'809'
p8374
tp8375
a(S'MPI_Reduce()'
p8376
S'813'
p8377
tp8378
a(S'MPI_Bcast()'
p8379
S'924'
p8380
tp8381
a(S'MPI_Bcast()'
p8382
S'927'
p8383
tp8384
a(S'MPI_Reduce()'
p8385
S'944'
p8386
tp8387
a(S'MPI_Reduce()'
p8388
S'948'
p8389
tp8390
a(S'MPI_Bcast()'
p8391
S'1097'
p8392
tp8393
a(S'MPI_Bcast()'
p8394
S'1099'
p8395
tp8396
a(S'MPI_Bcast()'
p8397
S'1102'
p8398
tp8399
a(S'MPI_Bcast()'
p8400
S'1104'
p8401
tp8402
a(S'MPI_AllReduce()'
p8403
S'1253'
p8404
tp8405
a(S'MPI_AllReduce()'
p8406
S'1257'
p8407
tp8408
a(S'MPI_Bcast()'
p8409
S'1269'
p8410
tp8411
a(S'MPI_Bcast()'
p8412
S'1272'
p8413
tp8414
a(S'MPI_AllReduce()'
p8415
S'1303'
p8416
tp8417
a(S'MPI_AllReduce()'
p8418
S'1307'
p8419
tp8420
a(S'MPI_Bcast()'
p8421
S'1315'
p8422
tp8423
a(S'MPI_Bcast()'
p8424
S'1318'
p8425
tp8426
a(S'MPI_AllReduce()'
p8427
S'1365'
p8428
tp8429
a(S'MPI_AllReduce()'
p8430
S'1369'
p8431
tp8432
a(S'MPI_AllReduce()'
p8433
S'1410'
p8434
tp8435
a(S'MPI_AllReduce()'
p8436
S'1414'
p8437
tp8438
a(S'MPI_Bcast()'
p8439
S'1511'
p8440
tp8441
a(S'MPI_Bcast()'
p8442
S'1513'
p8443
tp8444
a(S'MPI_Bcast()'
p8445
S'1516'
p8446
tp8447
a(S'MPI_Bcast()'
p8448
S'1518'
p8449
tp8450
a(S'MPI_Bcast()'
p8451
S'1597'
p8452
tp8453
a(S'MPI_Bcast()'
p8454
S'1600'
p8455
tp8456
a(S'MPI_AllReduce()'
p8457
S'1612'
p8458
tp8459
a(S'MPI_AllReduce()'
p8460
S'1616'
p8461
tp8462
a(S'MPI_Bcast()'
p8463
S'1649'
p8464
tp8465
a(S'MPI_Bcast()'
p8466
S'1652'
p8467
tp8468
a(S'MPI_AllReduce()'
p8469
S'1663'
p8470
tp8471
a(S'MPI_AllReduce()'
p8472
S'1667'
p8473
tp8474
a(S'MPI_Allreduce()'
p8475
S'1702'
p8476
tp8477
a(S'MPI_Allreduce()'
p8478
S'1705'
p8479
tp8480
a(S'MPI_Allreduce()'
p8481
S'1743'
p8482
tp8483
a(S'MPI_Allreduce()'
p8484
S'1746'
p8485
tp8486
a(S'MPI_SEND()'
p8487
S'1828'
p8488
tp8489
a(S'MPI_RECV()'
p8490
S'1839'
p8491
tp8492
a(S'MPI_Bcast()'
p8493
S'1990'
p8494
tp8495
a(S'MPI_Bcast()'
p8496
S'1994'
p8497
tp8498
a(S'MPI_Reduce()'
p8499
S'2032'
p8500
tp8501
a(S'MPI_Reduce()'
p8502
S'2036'
p8503
tp8504
a(S'MPI_AllReduce()'
p8505
S'2182'
p8506
tp8507
a(S'MPI_AllReduce()'
p8508
S'2186'
p8509
tp8510
a(S'MPI_Bcast()'
p8511
S'2196'
p8512
tp8513
a(S'MPI_Bcast()'
p8514
S'2199'
p8515
tp8516
a(S'MPI_AllReduce()'
p8517
S'2229'
p8518
tp8519
a(S'MPI_AllReduce()'
p8520
S'2233'
p8521
tp8522
a(S'MPI_Bcast()'
p8523
S'2241'
p8524
tp8525
a(S'MPI_Bcast()'
p8526
S'2244'
p8527
tp8528
a(S'MPI_Bcast()'
p8529
S'2257'
p8530
tp8531
a(S'MPI_Bcast()'
p8532
S'2260'
p8533
tp8534
a(S'MPI_Bcast()'
p8535
S'2292'
p8536
tp8537
a(S'MPI_Bcast()'
p8538
S'2295'
p8539
tp8540
a(S'MPI_AllReduce()'
p8541
S'2350'
p8542
tp8543
a(S'MPI_AllReduce()'
p8544
S'2354'
p8545
tp8546
a(S'MPI_AllReduce()'
p8547
S'2395'
p8548
tp8549
a(S'MPI_AllReduce()'
p8550
S'2399'
p8551
tp8552
asS'nwchem-6.6-revision27746/src/tools/ga-5-4/global/testing/unit-tests/ga_pgroup_create3.c'
p8553
(lp8554
(S'MPI_Init()'
p8555
S'21'
p8556
tp8557
a(S'MPI_Comm_rank()'
p8558
S'23'
p8559
tp8560
a(S'MPI_Comm_size()'
p8561
S'24'
p8562
tp8563
a(S'MPI_Finalize()'
p8564
S'71'
p8565
tp8566
asS'nwchem-6.6-revision27746/src/fft/test/mympi.F'
p8567
(lp8568
(S'MPI_INIT()'
p8569
S'7'
p8570
tp8571
a(S'MPI_COMM_RANK()'
p8572
g2746
tp8573
a(S'MPI_COMM_SIZE()'
p8574
g2824
tp8575
a(S'MPI_FINALIZE()'
p8576
S'16'
p8577
tp8578
a(S'MPI_BARRIER()'
p8579
S'23'
p8580
tp8581
a(S'MPI_BARRIER()'
p8582
S'24'
p8583
tp8584
a(S'MPI_BARRIER()'
p8585
S'25'
p8586
tp8587
a(S'MPI_BARRIER()'
p8588
S'26'
p8589
tp8590
asS'nwchem-6.6-revision27746/src/tools/ga-5-4/global/testing/unit-tests/ga_scatter.c'
p8591
(lp8592
(S'MPI_Init()'
p8593
S'23'
p8594
tp8595
a(S'MPI_Comm_rank()'
p8596
S'27'
p8597
tp8598
a(S'MPI_Comm_size()'
p8599
S'28'
p8600
tp8601
a(S'MPI_Finalize()'
p8602
S'77'
p8603
tp8604
asS'nwchem-6.6-revision27746/src/tools/ga-5-4/comex/src-mpi/comex.c'
p8605
(lp8606
(S'MPI_Test()'
p8607
S'196'
p8608
tp8609
a(S'MPI_Iprobe()'
p8610
S'319'
p8611
tp8612
a(S'MPI_Get_count()'
p8613
S'329'
p8614
tp8615
a(S'MPI_Recv()'
p8616
S'336'
p8617
tp8618
a(S'MPI_Comm_size()'
p8619
S'1137'
p8620
tp8621
a(S'MPI_Comm_rank()'
p8622
S'1139'
p8623
tp8624
a(S'MPI_Comm_group()'
p8625
S'1143'
p8626
tp8627
a(S'MPI_Group_translate_ranks()'
p8628
S'1173'
p8629
tp8630
a(S'MPI_Group_free()'
p8631
S'1201'
p8632
tp8633
a(S'MPI_Abort()'
p8634
S'1316'
p8635
tp8636
a(S'MPI_Initialized()'
p8637
S'1353'
p8638
tp8639
a(S'MPI_Comm_dup()'
p8640
S'1358'
p8641
tp8642
a(S'MPI_Comm_rank()'
p8643
S'1363'
p8644
tp8645
a(S'MPI_Comm_size()'
p8646
S'1368'
p8647
tp8648
a(S'MPI_Initialized()'
p8649
S'1406'
p8650
tp8651
a(S'MPI_Init()'
p8652
S'1409'
p8653
tp8654
a(S'MPI_Comm_free()'
p8655
S'1440'
p8656
tp8657
a(S'MPI_Comm_rank()'
p8658
S'2115'
p8659
tp8660
a(S'MPI_Allgather()'
p8661
S'2122'
p8662
tp8663
a(S'MPI_Comm_size()'
p8664
S'2128'
p8665
tp8666
asS'nwchem-6.6-revision27746/src/tools/ga-5-4/gparrays/testing/transpose.c'
p8667
(lp8668
(S'MPI_Init()'
p8669
S'997'
p8670
tp8671
a(S'MPI_Finalize()'
p8672
S'1723'
p8673
tp8674
asS'nwchem-6.6-revision27746/src/smd/graveyard/smd-9-10-08/sched_groups.c'
p8675
(lp8676
(S'MPI_Comm_rank()'
p8677
S'217'
p8678
tp8679
a(S'MPI_Comm_size()'
p8680
S'218'
p8681
tp8682
a(S'MPI_Barrier()'
p8683
S'281'
p8684
tp8685
a(S'MPI_Wtime()'
p8686
S'734'
p8687
tp8688
a(S'MPI_Wtime()'
p8689
S'789'
p8690
tp8691
a(S'MPI_Wtime()'
p8692
S'806'
p8693
tp8694
a(S'MPI_Barrier()'
p8695
S'824'
p8696
tp8697
a(S'MPI_Comm_rank()'
p8698
S'967'
p8699
tp8700
a(S'MPI_Comm_size()'
p8701
S'968'
p8702
tp8703
a(S'MPI_Barrier()'
p8704
S'1040'
p8705
tp8706
a(S'MPI_Comm_rank()'
p8707
S'1281'
p8708
tp8709
a(S'MPI_Wtime()'
p8710
S'1359'
p8711
tp8712
a(S'MPI_Wtime()'
p8713
S'1364'
p8714
tp8715
a(S'MPI_Wtime()'
p8716
S'1421'
p8717
tp8718
a(S'MPI_Barrier()'
p8719
S'1443'
p8720
tp8721
a(S'MPI_Wait()'
p8722
S'1768'
p8723
tp8724
a(S'MPI_Test()'
p8725
S'1811'
p8726
tp8727
a(S'MPI_Get_elements()'
p8728
S'1817'
p8729
tp8730
a(S'MPI_Probe()'
p8731
S'1907'
p8732
tp8733
a(S'MPI_Wait()'
p8734
S'1916'
p8735
tp8736
asS'nwchem-6.6-revision27746/src/tools/ga-5-4/armci/src-gemini/armci.c'
p8737
(lp8738
(S'MPI_Comm_free()'
p8739
S'439'
p8740
tp8741
asS'nwchem-6.6-revision27746/src/tools/ga-5-4/global/testing/unit-tests/ga_gather3.c'
p8742
(lp8743
(S'MPI_Init()'
p8744
S'26'
p8745
tp8746
a(S'MPI_Comm_rank()'
p8747
S'30'
p8748
tp8749
a(S'MPI_Comm_size()'
p8750
S'31'
p8751
tp8752
a(S'MPI_Finalize()'
p8753
S'70'
p8754
tp8755
asS'nwchem-6.6-revision27746/src/tools/ga-5-4/armci/src-portals/portals_cp.c'
p8756
(lp8757
(S'MPI_Comm_rank()'
p8758
S'69'
p8759
tp8760
a(S'MPI_Comm_split()'
p8761
S'70'
p8762
tp8763
a(S'MPI_Comm_size()'
p8764
S'82'
p8765
tp8766
a(S'MPI_Comm_rank()'
p8767
S'83'
p8768
tp8769
a(S'MPI_Bcast()'
p8770
S'110'
p8771
tp8772
a(S'MPI_Barrier()'
p8773
S'157'
p8774
tp8775
a(S'MPI_Finalize()'
p8776
S'158'
p8777
tp8778
a(S'MPI_Comm_size()'
p8779
S'880'
p8780
tp8781
a(S'MPI_Comm_rank()'
p8782
S'881'
p8783
tp8784
a(S'MPI_Bcast()'
p8785
S'902'
p8786
tp8787
a(S'MPI_Bcast()'
p8788
S'903'
p8789
tp8790
a(S'MPI_Barrier()'
p8791
S'910'
p8792
tp8793
asS'nwchem-6.6-revision27746/src/peigs/comm/mxsubs.F'
p8794
(lp8795
(S'MPI_INITIALIZED()'
p8796
S'126'
p8797
tp8798
a(S'MPI_INIT()'
p8799
S'135'
p8800
tp8801
a(S'MPI_COMM_RANK()'
p8802
S'206'
p8803
tp8804
a(S'MPI_COMM_SIZE()'
p8805
S'213'
p8806
tp8807
a(S'MPI_RECV()'
p8808
S'344'
p8809
tp8810
a(S'MPI_SEND()'
p8811
S'432'
p8812
tp8813
a(S'MPI_BARRIER()'
p8814
S'485'
p8815
tp8816
a(S'MPI_FINALIZE()'
p8817
S'596'
p8818
tp8819
a(S'MPI_FINALIZE()'
p8820
S'688'
p8821
tp8822
asS'nwchem-6.6-revision27746/src/tools/ga-5-4/armci/src/progress/fence.c'
p8823
(lp8824
(S'MPI_Barrier()'
p8825
S'112'
p8826
tp8827
asS'nwchem-6.6-revision27746/src/tools/ga-5-4/armci/testing/simple.c'
p8828
(lp8829
(S'MPI_Comm_rank()'
p8830
S'25'
p8831
tp8832
a(S'MPI_Comm_size()'
p8833
S'26'
p8834
tp8835
a(S'MPI_Barrier()'
p8836
S'33'
p8837
tp8838
a(S'MPI_Wtime()'
p8839
S'39'
p8840
tp8841
a(S'MPI_Wtime()'
p8842
S'43'
p8843
tp8844
a(S'MPI_Wtime()'
p8845
S'50'
p8846
tp8847
a(S'MPI_Wtime()'
p8848
S'52'
p8849
tp8850
a(S'MPI_Wtime()'
p8851
S'54'
p8852
tp8853
a(S'MPI_Barrier()'
p8854
S'60'
p8855
tp8856
a(S'MPI_Barrier()'
p8857
S'65'
p8858
tp8859
asS'nwchem-6.6-revision27746/src/tools/ga-5-4/global/examples/md_cluster/grp_sim.F'
p8860
(lp8861
(S'mpi_init()'
p8862
S'40'
p8863
tp8864
a(S'mpi_finalize()'
p8865
S'184'
p8866
tp8867
asS'nwchem-6.6-revision27746/src/tools/ga-5-4/armci/src-gemini/portals_cp.c'
p8868
(lp8869
(S'MPI_Comm_rank()'
p8870
S'69'
p8871
tp8872
a(S'MPI_Comm_split()'
p8873
S'70'
p8874
tp8875
a(S'MPI_Comm_size()'
p8876
S'82'
p8877
tp8878
a(S'MPI_Comm_rank()'
p8879
S'83'
p8880
tp8881
a(S'MPI_Bcast()'
p8882
S'110'
p8883
tp8884
a(S'MPI_Barrier()'
p8885
S'157'
p8886
tp8887
a(S'MPI_Finalize()'
p8888
S'158'
p8889
tp8890
a(S'MPI_Comm_size()'
p8891
S'880'
p8892
tp8893
a(S'MPI_Comm_rank()'
p8894
S'881'
p8895
tp8896
a(S'MPI_Bcast()'
p8897
S'902'
p8898
tp8899
a(S'MPI_Bcast()'
p8900
S'903'
p8901
tp8902
a(S'MPI_Barrier()'
p8903
S'910'
p8904
tp8905
asS'nwchem-6.6-revision27746/src/tools/ga-5-4/armci/examples/benchmarks/lu/armci_blocking/lu.c'
p8906
(lp8907
(S'MPI_Alloc_mem()'
p8908
S'156'
p8909
tp8910
a(S'MPI_Win_create()'
p8911
S'157'
p8912
tp8913
a(S'X_MPI_COMM_WORLD()'
p8914
S'158'
p8915
tp8916
a(S'MPI_Barrier()'
p8917
S'160'
p8918
tp8919
a(S'MPI_Win_free()'
p8920
S'231'
p8921
tp8922
a(S'MPI_Free_mem()'
p8923
S'232'
p8924
tp8925
a(S'MPI_Abort()'
p8926
S'383'
p8927
tp8928
a(S'MPI_Win_lock()'
p8929
S'385'
p8930
tp8931
a(S'MPI_Get()'
p8932
S'386'
p8933
tp8934
a(S'X_MPI_CHAR()'
p8935
S'387'
p8936
tp8937
a(S'MPI_Win_unlock()'
p8938
S'388'
p8939
tp8940
asS'nwchem-6.6-revision27746/src/tools/ga-5-4/global/testing/unit-tests/ga_create2.c'
p8941
(lp8942
(S'MPI_Init()'
p8943
S'38'
p8944
tp8945
a(S'MPI_Comm_rank()'
p8946
S'40'
p8947
tp8948
a(S'MPI_Comm_size()'
p8949
S'41'
p8950
tp8951
a(S'MPI_Finalize()'
p8952
S'52'
p8953
tp8954
asS'nwchem-6.6-revision27746/src/util/util_getppn.c'
p8955
(lp8956
(S'MPI_Comm_split_type()'
p8957
S'46'
p8958
tp8959
a(S'MPI_Comm_size()'
p8960
S'49'
p8961
tp8962
a(S'MPI_Comm_free()'
p8963
S'52'
p8964
tp8965
asS'nwchem-6.6-revision27746/src/tools/ga-5-4/global/testing/unit-tests/ga_pgroup_setdefault.c'
p8966
(lp8967
(S'MPI_Init()'
p8968
S'20'
p8969
tp8970
a(S'MPI_Comm_rank()'
p8971
S'22'
p8972
tp8973
a(S'MPI_Comm_size()'
p8974
S'23'
p8975
tp8976
a(S'MPI_Finalize()'
p8977
S'68'
p8978
tp8979
asS'nwchem-6.6-revision27746/src/tools/ga-5-4/global/testing/ga-mpi.c'
p8980
(lp8981
(S'MPI_Barrier()'
p8982
S'109'
p8983
tp8984
a(S'MPI_Comm_split()'
p8985
S'111'
p8986
tp8987
a(S'MPI_Comm_split()'
p8988
S'113'
p8989
tp8990
a(S'MPI_Comm_rank()'
p8991
S'117'
p8992
tp8993
a(S'MPI_Reduce()'
p8994
S'129'
p8995
tp8996
a(S'MPI_Finalize()'
p8997
S'185'
p8998
tp8999
asS'nwchem-6.6-revision27746/src/tools/ga-5-4/global/testing/unit-tests/ga_copy2.c'
p9000
(lp9001
(S'MPI_Init()'
p9002
S'28'
p9003
tp9004
a(S'MPI_Comm_rank()'
p9005
S'30'
p9006
tp9007
a(S'MPI_Comm_size()'
p9008
S'31'
p9009
tp9010
a(S'MPI_Finalize()'
p9011
S'86'
p9012
tp9013
asS'nwchem-6.6-revision27746/src/tools/ga-5-4/global/src/collect.c'
p9014
(lp9015
(S'MPI_Bcast()'
p9016
S'52'
p9017
tp9018
asS'nwchem-6.6-revision27746/src/nwpw/nwpwlib/D1dB/D1dB-mpi.F'
p9019
(lp9020
(S'MPI_Allreduce()'
p9021
S'37'
p9022
tp9023
a(S'MPI_Allreduce()'
p9024
S'41'
p9025
tp9026
a(S'MPI_Allreduce()'
p9027
S'83'
p9028
tp9029
a(S'MPI_Allreduce()'
p9030
S'89'
p9031
tp9032
a(S'MPI_Allreduce()'
p9033
S'128'
p9034
tp9035
a(S'MPI_Allreduce()'
p9036
S'132'
p9037
tp9038
a(S'MPI_Allreduce()'
p9039
S'172'
p9040
tp9041
a(S'MPI_Allreduce()'
p9042
S'177'
p9043
tp9044
a(S'MPI_Allreduce()'
p9045
S'229'
p9046
tp9047
a(S'MPI_Allreduce()'
p9048
S'234'
p9049
tp9050
a(S'MPI_Allreduce()'
p9051
S'292'
p9052
tp9053
a(S'MPI_Allreduce()'
p9054
S'301'
p9055
tp9056
a(S'MPI_Bcast()'
p9057
S'343'
p9058
tp9059
a(S'MPI_Bcast()'
p9060
S'355'
p9061
tp9062
a(S'MPI_IRECV()'
p9063
S'415'
p9064
tp9065
a(S'MPI_ISEND()'
p9066
S'430'
p9067
tp9068
a(S'MPI_IRECV()'
p9069
S'442'
p9070
tp9071
a(S'MPI_ISEND()'
p9072
S'451'
p9073
tp9074
a(S'MPI_IRECV()'
p9075
S'540'
p9076
tp9077
a(S'MPI_ISEND()'
p9078
S'553'
p9079
tp9080
a(S'MPI_IRECV()'
p9081
S'564'
p9082
tp9083
a(S'MPI_ISEND()'
p9084
S'571'
p9085
tp9086
asS'nwchem-6.6-revision27746/src/tools/ga-5-4/comex/src-template/groups.c'
p9087
(lp9088
(S'MPI_Group_rank()'
p9089
S'83'
p9090
tp9091
a(S'MPI_Group_size()'
p9092
S'97'
p9093
tp9094
a(S'MPI_Group_translate_ranks()'
p9095
S'125'
p9096
tp9097
a(S'MPI_Group_free()'
p9098
S'146'
p9099
tp9100
a(S'MPI_Comm_free()'
p9101
S'153'
p9102
tp9103
a(S'MPI_Group_incl()'
p9104
S'211'
p9105
tp9106
a(S'MPI_Group_rank()'
p9107
S'219'
p9108
tp9109
a(S'MPI_Comm_dup()'
p9110
S'226'
p9111
tp9112
a(S'MPI_Intercomm_create()'
p9113
S'235'
p9114
tp9115
a(S'MPI_Comm_free()'
p9116
S'237'
p9117
tp9118
a(S'MPI_Intercomm_merge()'
p9119
S'238'
p9120
tp9121
a(S'MPI_Comm_free()'
p9122
S'239'
p9123
tp9124
a(S'MPI_Group_free()'
p9125
S'247'
p9126
tp9127
a(S'MPI_Comm_group()'
p9128
S'249'
p9129
tp9130
a(S'MPI_Comm_group()'
p9131
S'269'
p9132
tp9133
a(S'MPI_Group_free()'
p9134
S'289'
p9135
tp9136
asS'nwchem-6.6-revision27746/src/tools/ga-5-4/armci/src/common/armci.c'
p9137
(lp9138
(S'MPI_Comm_get_parent()'
p9139
S'345'
p9140
tp9141
a(S'MPI_Query_thread()'
p9142
S'411'
p9143
tp9144
a(S'MPI_Comm_free()'
p9145
S'657'
p9146
tp9147
asS'nwchem-6.6-revision27746/src/tools/ga-5-4/armci/src-portals/message.c'
p9148
(lp9149
(S'MPI_Barrier()'
p9150
S'431'
p9151
tp9152
a(S'MPI_Initialized()'
p9153
S'462'
p9154
tp9155
a(S'MPI_Init_thread()'
p9156
S'466'
p9157
tp9158
a(S'MPI_Init()'
p9159
S'468'
p9160
tp9161
a(S'MPI_Comm_dup()'
p9162
S'472'
p9163
tp9164
a(S'MPI_Comm_rank()'
p9165
S'488'
p9166
tp9167
a(S'MPI_Comm_size()'
p9168
S'512'
p9169
tp9170
a(S'MPI_Abort()'
p9171
S'553'
p9172
tp9173
a(S'MPI_Finalize()'
p9174
S'572'
p9175
tp9176
a(S'MPI_Bcast()'
p9177
S'820'
p9178
tp9179
a(S'MPI_Send()'
p9180
S'835'
p9181
tp9182
a(S'MPI_Recv()'
p9183
S'859'
p9184
tp9185
a(S'MPI_Recv()'
p9186
S'882'
p9187
tp9188
a(S'MPI_Barrier()'
p9189
S'1915'
p9190
tp9191
a(S'MPI_Comm_group()'
p9192
S'1947'
p9193
tp9194
a(S'MPI_Group_incl()'
p9195
S'1948'
p9196
tp9197
a(S'MPI_Comm_create()'
p9198
S'1950'
p9199
tp9200
a(S'MPI_Comm_free()'
p9201
S'1957'
p9202
tp9203
a(S'MPI_Group_free()'
p9204
S'1958'
p9205
tp9206
asS'nwchem-6.6-revision27746/src/tools/ga-5-4/global/testing/unit-tests/ga_scale2.c'
p9207
(lp9208
(S'MPI_Init()'
p9209
S'85'
p9210
tp9211
a(S'MPI_Comm_rank()'
p9212
S'87'
p9213
tp9214
a(S'MPI_Comm_size()'
p9215
S'88'
p9216
tp9217
a(S'MPI_Finalize()'
p9218
S'102'
p9219
tp9220
asS'nwchem-6.6-revision27746/src/tools/ga-5-4/armci/src-portals/armci_portals.c'
p9221
(lp9222
(S'MPI_Comm_size()'
p9223
S'506'
p9224
tp9225
a(S'MPI_Comm_rank()'
p9226
S'507'
p9227
tp9228
a(S'MPI_Barrier()'
p9229
S'516'
p9230
tp9231
a(S'MPI_Barrier()'
p9232
S'523'
p9233
tp9234
a(S'MPI_Barrier()'
p9235
S'541'
p9236
tp9237
a(S'MPI_Barrier()'
p9238
S'543'
p9239
tp9240
asS'nwchem-6.6-revision27746/src/smd/graveyard/smd-subgroups/sched_groups.c'
p9241
(lp9242
(S'MPI_Comm_rank()'
p9243
S'490'
p9244
tp9245
a(S'MPI_Comm_rank()'
p9246
S'518'
p9247
tp9248
a(S'MPI_Send()'
p9249
S'525'
p9250
tp9251
a(S'MPI_Send()'
p9252
S'527'
p9253
tp9254
a(S'MPI_Recv()'
p9255
S'581'
p9256
tp9257
a(S'MPI_Get_elements()'
p9258
S'586'
p9259
tp9260
a(S'MPI_Wtime()'
p9261
S'620'
p9262
tp9263
a(S'MPI_Wtime()'
p9264
S'626'
p9265
tp9266
a(S'MPI_Send()'
p9267
S'638'
p9268
tp9269
a(S'MPI_Send()'
p9270
S'695'
p9271
tp9272
a(S'MPI_Send()'
p9273
S'733'
p9274
tp9275
a(S'MPI_Send()'
p9276
S'736'
p9277
tp9278
a(S'MPI_Irecv()'
p9279
S'742'
p9280
tp9281
a(S'MPI_Test()'
p9282
S'755'
p9283
tp9284
a(S'MPI_Get_elements()'
p9285
S'759'
p9286
tp9287
a(S'MPI_Waitany()'
p9288
S'778'
p9289
tp9290
a(S'MPI_Get_elements()'
p9291
S'781'
p9292
tp9293
asS'nwchem-6.6-revision27746/src/smd/smd-scheduler/sched_groups.c'
p9294
(lp9295
(S'MPI_Comm_rank()'
p9296
S'217'
p9297
tp9298
a(S'MPI_Comm_size()'
p9299
S'218'
p9300
tp9301
a(S'MPI_Barrier()'
p9302
S'281'
p9303
tp9304
a(S'MPI_Wtime()'
p9305
S'734'
p9306
tp9307
a(S'MPI_Wtime()'
p9308
S'789'
p9309
tp9310
a(S'MPI_Wtime()'
p9311
S'806'
p9312
tp9313
a(S'MPI_Barrier()'
p9314
S'824'
p9315
tp9316
a(S'MPI_Comm_rank()'
p9317
S'967'
p9318
tp9319
a(S'MPI_Comm_size()'
p9320
S'968'
p9321
tp9322
a(S'MPI_Barrier()'
p9323
S'1040'
p9324
tp9325
a(S'MPI_Comm_rank()'
p9326
S'1281'
p9327
tp9328
a(S'MPI_Wtime()'
p9329
S'1359'
p9330
tp9331
a(S'MPI_Wtime()'
p9332
S'1364'
p9333
tp9334
a(S'MPI_Wtime()'
p9335
S'1421'
p9336
tp9337
a(S'MPI_Barrier()'
p9338
S'1443'
p9339
tp9340
a(S'MPI_Wait()'
p9341
S'1768'
p9342
tp9343
a(S'MPI_Test()'
p9344
S'1811'
p9345
tp9346
a(S'MPI_Get_elements()'
p9347
S'1817'
p9348
tp9349
a(S'MPI_Probe()'
p9350
S'1907'
p9351
tp9352
a(S'MPI_Wait()'
p9353
S'1916'
p9354
tp9355
as.