ccollections
defaultdict
p0
(c__builtin__
list
p1
tp2
Rp3
S'parallel-matrix-infinity-norm-mpi//main.cpp'
p4
(lp5
(S'MPI_Init()'
p6
S'25'
p7
tp8
a(S'MPI_Comm_size()'
p9
S'26'
p10
tp11
a(S'MPI_Comm_rank()'
p12
S'27'
p13
tp14
a(S'MPI_Wtime()'
p15
S'54'
p16
tp17
a(S'MPI_Bcast()'
p18
S'55'
p19
tp20
a(S'MPI_Bcast()'
p21
S'56'
p22
tp23
a(S'MPI_Scatter()'
p24
S'61'
p25
tp26
a(S'MPI_Reduce()'
p27
S'73'
p28
tp29
a(S'MPI_Wtime()'
p30
S'81'
p31
tp32
a(S'MPI_Reduce()'
p33
S'84'
p34
tp35
a(S'MPI_Reduce()'
p36
S'85'
p37
tp38
a(S'MPI_Reduce()'
p39
S'86'
p40
tp41
a(S'MPI_Barrier()'
p42
S'87'
p43
tp44
a(S'MPI_Finalize()'
p45
S'94'
p46
tp47
as.