ccollections
defaultdict
p0
(c__builtin__
list
p1
tp2
Rp3
S'fastcluster//test_mpi_queue.cpp'
p4
(lp5
(S'MPI_Comm_rank()'
p6
S'124'
p7
tp8
a(S'MPI_Comm_size()'
p9
S'125'
p10
tp11
a(S'MPI_Comm_rank()'
p12
S'162'
p13
tp14
a(S'MPI_Comm_size()'
p15
S'163'
p16
tp17
a(S'MPI_Allreduce()'
p18
S'177'
p19
tp20
a(S'MPI_Init()'
p21
S'187'
p22
tp23
a(S'MPI_Finalize()'
p24
S'205'
p25
tp26
asS'fastcluster//kmeans.cpp'
p27
(lp28
(S'MPI_Wtime()'
p29
S'85'
p30
tp31
a(S'MPI_Wtime()'
p32
S'87'
p33
tp34
a(S'MPI_Wtime()'
p35
S'89'
p36
tp37
a(S'MPI_Wtime()'
p38
S'91'
p39
tp40
a(S'MPI_Initialized()'
p41
S'170'
p42
tp43
a(S'MPI_Comm_rank()'
p44
S'179'
p45
tp46
a(S'MPI_Comm_size()'
p47
S'180'
p48
tp49
a(S'MPI_Bcast()'
p50
S'221'
p51
tp52
a(S'MPI_Wtime()'
p53
S'225'
p54
tp55
a(S'MPI_Wtime()'
p56
S'226'
p57
tp58
a(S'MPI_Bcast()'
p59
S'227'
p60
tp61
a(S'MPI_Wtime()'
p62
S'228'
p63
tp64
a(S'MPI_Wtime()'
p65
S'243'
p66
tp67
a(S'MPI_Wtime()'
p68
S'245'
p69
tp70
a(S'MPI_Wtime()'
p71
S'257'
p72
tp73
a(S'MPI_Wtime()'
p74
S'264'
p75
tp76
a(S'MPI_Wtime()'
p77
S'267'
p78
tp79
a(S'MPI_Reduce()'
p80
S'269'
p81
tp82
a(S'MPI_Reduce()'
p83
S'270'
p84
tp85
a(S'MPI_Reduce()'
p86
S'271'
p87
tp88
a(S'MPI_Reduce()'
p89
S'274'
p90
tp91
a(S'MPI_Reduce()'
p92
S'275'
p93
tp94
a(S'MPI_Reduce()'
p95
S'276'
p96
tp97
a(S'MPI_Wtime()'
p98
S'278'
p99
tp100
a(S'MPI_Wtime()'
p101
S'279'
p102
tp103
a(S'MPI_Reduce()'
p104
S'285'
p105
tp106
a(S'MPI_Reduce()'
p107
S'286'
p108
tp109
a(S'MPI_Reduce()'
p110
S'287'
p111
tp112
a(S'MPI_Reduce()'
p113
S'288'
p114
tp115
a(S'MPI_Reduce()'
p116
S'289'
p117
tp118
a(S'MPI_Reduce()'
p119
S'290'
p120
tp121
a(S'MPI_Reduce()'
p122
S'291'
p123
tp124
a(S'MPI_Wtime()'
p125
S'338'
p126
tp127
asS'fastcluster//mpi_queue.cpp'
p128
(lp129
(S'MPI_Comm_rank()'
p130
S'25'
p131
tp132
a(S'MPI_Comm_size()'
p133
S'26'
p134
tp135
a(S'MPI_Allgather()'
p136
S'36'
p137
tp138
a(S'MPI_Recv()'
p139
S'66'
p140
tp141
a(S'MPI_Recv()'
p142
S'70'
p143
tp144
a(S'MPI_Send()'
p145
S'89'
p146
tp147
a(S'MPI_Send()'
p148
S'90'
p149
tp150
a(S'MPI_Send()'
p151
S'96'
p152
tp153
a(S'MPI_Comm_rank()'
p154
S'116'
p155
tp156
a(S'MPI_Comm_size()'
p157
S'117'
p158
tp159
a(S'MPI_Send()'
p160
S'134'
p161
tp162
a(S'MPI_Send()'
p163
S'138'
p164
tp165
a(S'MPI_Recv()'
p166
S'147'
p167
tp168
a(S'MPI_Recv()'
p169
S'151'
p170
tp171
a(S'MPI_Recv()'
p172
S'153'
p173
tp174
a(S'MPI_Send()'
p175
S'164'
p176
tp177
a(S'MPI_Send()'
p178
S'168'
p179
tp180
a(S'MPI_Recv()'
p181
S'176'
p182
tp183
a(S'MPI_Send()'
p184
S'181'
p185
tp186
a(S'MPI_Send()'
p187
S'192'
p188
tp189
a(S'MPI_Send()'
p190
S'193'
p191
tp192
a(S'MPI_Barrier()'
p193
S'199'
p194
tp195
asS'fastcluster//mpi_utils.cpp'
p196
(lp197
(S'MPI_Initialized()'
p198
S'13'
p199
tp200
a(S'MPI_Init()'
p201
S'20'
p202
tp203
a(S'MPI_Comm_rank()'
p204
S'33'
p205
tp206
a(S'MPI_Comm_size()'
p207
S'42'
p208
tp209
a(S'MPI_Barrier()'
p210
S'50'
p211
tp212
a(S'MPI_Finalize()'
p213
S'57'
p214
tp215
as.