ccollections
defaultdict
p0
(c__builtin__
list
p1
tp2
Rp3
S'Parallel_algorithms//lab5.c'
p4
(lp5
(S'MPI_Init()'
p6
S'7'
p7
tp8
a(S'MPI_Get_processor_name()'
p9
S'13'
p10
tp11
a(S'MPI_Comm_size()'
p12
S'15'
p13
tp14
a(S'MPI_Comm_rank()'
p15
S'16'
p16
tp17
a(S'MPI_Wtime()'
p18
S'17'
p19
tp20
a(S'MPI_Recv()'
p21
S'23'
p22
tp23
a(S'MPI_Send()'
p24
S'43'
p25
tp26
a(S'MPI_Wtime()'
p27
S'45'
p28
tp29
a(S'MPI_Finalize()'
p30
S'47'
p31
tp32
asS'Parallel_algorithms//lab21.c'
p33
(lp34
(S'MPI_Init()'
p35
S'6'
p36
tp37
a(S'MPI_Comm_rank()'
p38
S'9'
p39
tp40
a(S'MPI_File_open()'
p41
S'10'
p42
tp43
a(S'MPI_File_set_view()'
p44
S'11'
p45
tp46
a(S'MPI_File_read_all()'
p47
S'12'
p48
tp49
a(S'MPI_File_close()'
p50
S'14'
p51
tp52
a(S'MPI_Finalize()'
p53
S'15'
p54
tp55
asS'Parallel_algorithms/lab18/lab18_slave.c'
p56
(lp57
(S'MPI_Init()'
p58
g36
tp59
a(S'MPI_Comm_get_parent()'
p60
g7
tp61
a(S'MPI_Comm_rank()'
p62
S'8'
p63
tp64
a(S'MPI_Comm_size()'
p65
g39
tp66
a(S'MPI_Send()'
p67
S'10'
p68
tp69
a(S'MPI_Send()'
p70
S'11'
p71
tp72
a(S'MPI_Finalize()'
p73
S'12'
p74
tp75
asS'Parallel_algorithms//lab20.c'
p76
(lp77
(S'MPI_File_open()'
p78
S'12'
p79
tp80
a(S'MPI_File_write()'
p81
S'13'
p82
tp83
a(S'MPI_File_close()'
p84
S'14'
p85
tp86
a(S'MPI_Init()'
p87
S'20'
p88
tp89
a(S'MPI_File_open()'
p90
S'25'
p91
tp92
a(S'MPI_File_set_view()'
p93
S'26'
p94
tp95
a(S'MPI_File_read()'
p96
S'29'
p97
tp98
a(S'MPI_Get_count()'
p99
S'30'
p100
tp101
a(S'MPI_File_close()'
p102
S'34'
p103
tp104
a(S'MPI_File_delete()'
p105
S'37'
p106
tp107
a(S'MPI_Finalize()'
p108
S'39'
p109
tp110
asS'Parallel_algorithms//lab10.c'
p111
(lp112
(S'MPI_Init()'
p113
g63
tp114
a(S'MPI_Comm_size()'
p115
S'11'
p116
tp117
a(S'MPI_Comm_rank()'
p118
S'12'
p119
tp120
a(S'MPI_Irecv()'
p121
S'17'
p122
tp123
a(S'MPI_Irecv()'
p124
S'18'
p125
tp126
a(S'MPI_Isend()'
p127
S'19'
p128
tp129
a(S'MPI_Isend()'
p130
S'20'
p131
tp132
a(S'MPI_Waitall()'
p133
S'21'
p134
tp135
a(S'MPI_Finalize()'
p136
S'28'
p137
tp138
asS'Parallel_algorithms//lab11.c'
p139
(lp140
(S'MPI_Init()'
p141
g63
tp142
a(S'MPI_Comm_size()'
p143
S'11'
p144
tp145
a(S'MPI_Comm_rank()'
p146
S'12'
p147
tp148
a(S'MPI_Sendrecv()'
p149
S'18'
p150
tp151
a(S'MPI_Sendrecv()'
p152
S'19'
p153
tp154
a(S'MPI_Finalize()'
p155
S'24'
p156
tp157
asS'Parallel_algorithms//lab14.c'
p158
(lp159
(S'MPI_Init()'
p160
S'20'
p161
tp162
a(S'MPI_Comm_size()'
p163
S'22'
p164
tp165
a(S'MPI_Comm_rank()'
p166
S'23'
p167
tp168
a(S'MPI_Op_create()'
p169
S'28'
p170
tp171
a(S'MPI_Reduce()'
p172
S'29'
p173
tp174
a(S'MPI_Op_free()'
p175
S'30'
p176
tp177
a(S'MPI_Reduce()'
p178
S'37'
p179
tp180
a(S'MPI_Finalize()'
p181
S'44'
p182
tp183
asS'Parallel_algorithms//lab4.c'
p184
(lp185
(S'MPI_Init()'
p186
g7
tp187
a(S'MPI_Comm_size()'
p188
S'11'
p189
tp190
a(S'MPI_Comm_rank()'
p191
S'12'
p192
tp193
a(S'MPI_Recv()'
p194
S'18'
p195
tp196
a(S'MPI_Send()'
p197
S'38'
p198
tp199
a(S'MPI_Finalize()'
p200
S'40'
p201
tp202
asS'Parallel_algorithms//lab15.c'
p203
(lp204
(S'MPI_Init()'
p205
g39
tp206
a(S'MPI_Comm_size()'
p207
S'13'
p208
tp209
a(S'MPI_Comm_rank()'
p210
S'14'
p211
tp212
a(S'MPI_Comm_group()'
p213
S'15'
p214
tp215
a(S'MPI_Comm_create()'
p216
S'22'
p217
tp218
a(S'MPI_Allreduce()'
p219
S'23'
p220
tp221
a(S'MPI_Group_rank()'
p222
S'24'
p223
tp224
a(S'MPI_Finalize()'
p225
S'30'
p226
tp227
asS'Parallel_algorithms/lab19/lab19_client.c'
p228
(lp229
(S'MPI_Init()'
p230
S'12'
p231
tp232
a(S'MPI_Comm_connect()'
p233
S'18'
p234
tp235
a(S'MPI_Comm_rank()'
p236
S'19'
p237
tp238
a(S'MPI_Send()'
p239
S'22'
p240
tp241
a(S'MPI_Recv()'
p242
S'24'
p243
tp244
a(S'MPI_Finalize()'
p245
S'26'
p246
tp247
asS'Parallel_algorithms//lab8.c'
p248
(lp249
(S'MPI_Init()'
p250
g63
tp251
a(S'MPI_Comm_size()'
p252
g39
tp253
a(S'MPI_Comm_rank()'
p254
S'10'
p255
tp256
a(S'MPI_Send()'
p257
S'31'
p258
tp259
a(S'MPI_Recv()'
p260
S'32'
p261
tp262
a(S'MPI_Recv()'
p263
S'38'
p264
tp265
a(S'MPI_Send()'
p266
S'39'
p267
tp268
a(S'MPI_Send()'
p269
S'62'
p270
tp271
a(S'MPI_Recv()'
p272
S'63'
p273
tp274
a(S'MPI_Recv()'
p275
S'69'
p276
tp277
a(S'MPI_Send()'
p278
S'70'
p279
tp280
a(S'MPI_Finalize()'
p281
S'81'
p282
tp283
asS'Parallel_algorithms//lab7.c'
p284
(lp285
(S'MPI_Init()'
p286
S'10'
p287
tp288
a(S'MPI_Comm_size()'
p289
S'11'
p290
tp291
a(S'MPI_Comm_rank()'
p292
S'12'
p293
tp294
a(S'MPI_Scatter()'
p295
S'29'
p296
tp297
a(S'MPI_Scatter()'
p298
S'30'
p299
tp300
a(S'MPI_Gather()'
p301
S'37'
p302
tp303
a(S'MPI_Finalize()'
p304
S'47'
p305
tp306
asS'Parallel_algorithms//lab9.c'
p307
(lp308
(S'MPI_Init()'
p309
g63
tp310
a(S'MPI_Comm_size()'
p311
g39
tp312
a(S'MPI_Comm_rank()'
p313
S'10'
p314
tp315
a(S'MPI_Wtime()'
p316
S'30'
p317
tp318
a(S'MPI_Scatter()'
p319
S'33'
p320
tp321
a(S'MPI_Send()'
p322
S'42'
p323
tp324
a(S'MPI_Recv()'
p325
S'47'
p326
tp327
a(S'MPI_Recv()'
p328
S'50'
p329
tp330
a(S'MPI_Send()'
p331
S'59'
p332
tp333
a(S'MPI_Recv()'
p334
S'63'
p335
tp336
a(S'MPI_Send()'
p337
S'65'
p338
tp339
a(S'MPI_Wtime()'
p340
S'77'
p341
tp342
a(S'MPI_Scatter()'
p343
S'80'
p344
tp345
a(S'MPI_Reduce()'
p346
S'87'
p347
tp348
a(S'MPI_Finalize()'
p349
S'97'
p350
tp351
asS'Parallel_algorithms//lab12.c'
p352
(lp353
(S'MPI_Init()'
p354
g39
tp355
a(S'MPI_Comm_size()'
p356
S'13'
p357
tp358
a(S'MPI_Comm_rank()'
p359
S'14'
p360
tp361
a(S'MPI_Recv_init()'
p362
S'20'
p363
tp364
a(S'MPI_Recv_init()'
p365
S'21'
p366
tp367
a(S'MPI_Send_init()'
p368
S'22'
p369
tp370
a(S'MPI_Send_init()'
p371
S'23'
p372
tp373
a(S'MPI_Startall()'
p374
S'30'
p375
tp376
a(S'MPI_Waitall()'
p377
S'31'
p378
tp379
a(S'MPI_Request_free()'
p380
S'37'
p381
tp382
a(S'MPI_Request_free()'
p383
S'38'
p384
tp385
a(S'MPI_Request_free()'
p386
S'39'
p387
tp388
a(S'MPI_Request_free()'
p389
S'40'
p390
tp391
a(S'MPI_Finalize()'
p392
S'42'
p393
tp394
asS'Parallel_algorithms/lab18/lab18_master.c'
p395
(lp396
(S'MPI_Init()'
p397
S'13'
p398
tp399
a(S'MPI_Comm_size()'
p400
S'14'
p401
tp402
a(S'MPI_Comm_spawn()'
p403
S'15'
p404
tp405
a(S'MPI_Recv()'
p406
S'16'
p407
tp408
a(S'MPI_Recv()'
p409
S'17'
p410
tp411
a(S'MPI_Recv()'
p412
S'20'
p413
tp414
a(S'MPI_Finalize()'
p415
S'22'
p416
tp417
asS'Parallel_algorithms//lab13.c'
p418
(lp419
(S'MPI_Init()'
p420
g63
tp421
a(S'MPI_Comm_size()'
p422
g39
tp423
a(S'MPI_Comm_rank()'
p424
S'10'
p425
tp426
a(S'MPI_Barrier()'
p427
S'34'
p428
tp429
a(S'MPI_Finalize()'
p430
S'50'
p431
tp432
asS'Parallel_algorithms//lab16.c'
p433
(lp434
(S'MPI_Init()'
p435
g39
tp436
a(S'MPI_Comm_size()'
p437
S'11'
p438
tp439
a(S'MPI_Comm_rank()'
p440
S'12'
p441
tp442
a(S'MPI_Comm_split()'
p443
S'13'
p444
tp445
a(S'MPI_Comm_rank()'
p446
S'14'
p447
tp448
a(S'MPI_Comm_free()'
p449
S'17'
p450
tp451
a(S'MPI_Finalize()'
p452
S'18'
p453
tp454
asS'Parallel_algorithms//lab17.c'
p455
(lp456
(S'MPI_Init()'
p457
S'11'
p458
tp459
a(S'MPI_Comm_size()'
p460
S'12'
p461
tp462
a(S'MPI_Comm_rank()'
p463
S'13'
p464
tp465
a(S'MPI_Pack()'
p466
S'32'
p467
tp468
a(S'MPI_Pack()'
p469
S'33'
p470
tp471
a(S'MPI_Bcast()'
p472
S'34'
p473
tp474
a(S'MPI_Bcast()'
p475
S'37'
p476
tp477
a(S'MPI_Unpack()'
p478
S'39'
p479
tp480
a(S'MPI_Unpack()'
p481
S'40'
p482
tp483
a(S'MPI_Barrier()'
p484
S'43'
p485
tp486
a(S'MPI_Finalize()'
p487
S'54'
p488
tp489
asS'Parallel_algorithms/lab19/lab19_serv.c'
p490
(lp491
(S'MPI_Init()'
p492
S'10'
p493
tp494
a(S'MPI_Open_port()'
p495
S'14'
p496
tp497
a(S'MPI_Comm_accept()'
p498
S'17'
p499
tp500
a(S'MPI_Send()'
p501
S'20'
p502
tp503
a(S'MPI_Recv()'
p504
S'22'
p505
tp506
a(S'MPI_Comm_free()'
p507
S'24'
p508
tp509
a(S'MPI_Close_port()'
p510
S'25'
p511
tp512
a(S'MPI_Finalize()'
p513
S'26'
p514
tp515
asS'Parallel_algorithms//lab3.c'
p516
(lp517
(S'MPI_Init()'
p518
S'5'
p519
tp520
a(S'MPI_Comm_size()'
p521
g63
tp522
a(S'MPI_Comm_rank()'
p523
g39
tp524
a(S'MPI_Recv()'
p525
S'14'
p526
tp527
a(S'MPI_Finalize()'
p528
S'19'
p529
tp530
asS'Parallel_algorithms//lab6.c'
p531
(lp532
(S'MPI_Init()'
p533
g39
tp534
a(S'MPI_Comm_size()'
p535
S'10'
p536
tp537
a(S'MPI_Comm_rank()'
p538
S'11'
p539
tp540
a(S'MPI_Probe()'
p541
S'17'
p542
tp543
a(S'MPI_Recv()'
p544
S'19'
p545
tp546
a(S'MPI_Recv()'
p547
S'20'
p548
tp549
a(S'MPI_Recv()'
p550
S'24'
p551
tp552
a(S'MPI_Recv()'
p553
S'25'
p554
tp555
a(S'MPI_Finalize()'
p556
S'29'
p557
tp558
as.