ccollections
defaultdict
p0
(c__builtin__
list
p1
tp2
Rp3
S'lotsofcoresbook1code/Pearls1_Chapter17/Pearl/src/tools/ga-5-3/comex/testing/perf_strided.c'
p4
(lp5
(S'MPI_Finalize()'
p6
S'71'
p7
tp8
asS'lotsofcoresbook1code/Pearls1_Chapter17/Pearl/src/tools/ga-5-3/comex/src-dmapp/comex.c'
p9
(lp10
(S'MPI_Barrier()'
p11
S'864'
p12
tp13
a(S'MPI_Abort()'
p14
S'875'
p15
tp16
a(S'MPI_Barrier()'
p17
S'967'
p18
tp19
a(S'MPI_Initialized()'
p20
S'1022'
p21
tp22
a(S'MPI_Comm_dup()'
p23
S'1027'
p24
tp25
a(S'MPI_Comm_rank()'
p26
S'1032'
p27
tp28
a(S'MPI_Comm_size()'
p29
S'1037'
p30
tp31
a(S'MPI_Barrier()'
p32
S'1061'
p33
tp34
a(S'MPI_Initialized()'
p35
S'1072'
p36
tp37
a(S'MPI_Init()'
p38
S'1075'
p39
tp40
a(S'MPI_Barrier()'
p41
S'1099'
p42
tp43
a(S'MPI_Comm_free()'
p44
S'1102'
p45
tp46
a(S'MPI_Allgather()'
p47
S'1371'
p48
tp49
a(S'MPI_Barrier()'
p50
S'1379'
p51
tp52
a(S'MPI_Barrier()'
p53
S'1390'
p54
tp55
a(S'MPI_Barrier()'
p56
S'1398'
p57
tp58
a(S'MPI_Barrier()'
p59
S'1426'
p60
tp61
a(S'MPI_Comm_rank()'
p62
S'1502'
p63
tp64
a(S'MPI_Comm_size()'
p65
S'1503'
p66
tp67
a(S'MPI_Allreduce()'
p68
S'1506'
p69
tp70
a(S'MPI_Allgather()'
p71
S'1517'
p72
tp73
a(S'MPI_Allgather()'
p74
S'1526'
p75
tp76
a(S'MPI_Barrier()'
p77
S'1542'
p78
tp79
a(S'MPI_Comm_rank()'
p80
S'1563'
p81
tp82
a(S'MPI_Comm_size()'
p83
S'1564'
p84
tp85
a(S'MPI_Allgather()'
p86
S'1571'
p87
tp88
a(S'MPI_Barrier()'
p89
S'1589'
p90
tp91
a(S'MPI_Barrier()'
p92
S'1823'
p93
tp94
a(S'MPI_Barrier()'
p95
S'1840'
p96
tp97
asS'lotsofcoresbook1code/Pearls1_Chapter17/Pearl/src/tools/ga-5-3/global/testing/mp3.h'
p98
(lp99
(S'MPI_Init_thread()'
p100
S'44'
p101
tp102
a(S'MPI_Abort()'
p103
S'56'
p104
tp105
asS'lotsofcoresbook1code/Pearls1_Chapter17/Pearl/src/tools/ga-5-3/global/testing/unit-tests/ga_inquire.c'
p106
(lp107
(S'MPI_Init()'
p108
S'24'
p109
tp110
a(S'MPI_Comm_rank()'
p111
S'26'
p112
tp113
a(S'MPI_Comm_size()'
p114
S'27'
p115
tp116
a(S'MPI_Finalize()'
p117
S'51'
p118
tp119
asS'lotsofcoresbook1code/Pearls1_Chapter13/Pearl/src/std/zsc-3d-mpi/stats.F90'
p120
(lp121
(S'MPI_ALLREDUCE()'
p122
S'101'
p123
tp124
a(S'MPI_FINALIZE()'
p125
S'121'
p126
tp127
asS'lotsofcoresbook1code/Pearls1_Chapter13/Pearl/src/std/zsc-mpi/parameters.F90'
p128
(lp129
(S'MPI_FINALIZE()'
p130
S'75'
p131
tp132
a(S'MPI_FINALIZE()'
p133
S'112'
p134
tp135
a(S'MPI_BCAST()'
p136
S'120'
p137
tp138
a(S'MPI_BCAST()'
p139
S'121'
p140
tp141
a(S'MPI_BCAST()'
p142
S'150'
p143
tp144
asS'lotsofcoresbook1code/Pearls1_Chapter13/Pearl/src/std/ll-dgr-mpi/mpi_update_hydro.F90'
p145
(lp146
(S'MPI_IRECV()'
p147
S'94'
p148
tp149
a(S'MPI_SEND()'
p150
S'95'
p151
tp152
a(S'MPI_WAIT()'
p153
S'96'
p154
tp155
a(S'MPI_IRECV()'
p156
S'98'
p157
tp158
a(S'MPI_SEND()'
p159
S'99'
p160
tp161
a(S'MPI_WAIT()'
p162
S'100'
p163
tp164
a(S'MPI_IRECV()'
p165
S'103'
p166
tp167
a(S'MPI_SEND()'
p168
S'104'
p169
tp170
a(S'MPI_WAIT()'
p171
S'105'
p172
tp173
a(S'MPI_IRECV()'
p174
S'107'
p175
tp176
a(S'MPI_SEND()'
p177
S'108'
p178
tp179
a(S'MPI_WAIT()'
p180
S'109'
p181
tp182
a(S'MPI_IRECV()'
p183
S'112'
p184
tp185
a(S'MPI_SEND()'
p186
S'113'
p187
tp188
a(S'MPI_WAIT()'
p189
S'114'
p190
tp191
a(S'MPI_IRECV()'
p192
S'116'
p193
tp194
a(S'MPI_SEND()'
p195
S'117'
p196
tp197
a(S'MPI_WAIT()'
p198
S'118'
p199
tp200
a(S'MPI_IRECV()'
p201
S'120'
p202
tp203
a(S'MPI_SEND()'
p204
S'121'
p205
tp206
a(S'MPI_WAIT()'
p207
S'122'
p208
tp209
a(S'MPI_IRECV()'
p210
S'124'
p211
tp212
a(S'MPI_SEND()'
p213
S'125'
p214
tp215
a(S'MPI_WAIT()'
p216
S'126'
p217
tp218
asS'lotsofcoresbook1code/Pearls1_Chapter17/Pearl/src/tools/ga-5-3/cca/ga_cca_classic/TestComponent/TestComponent.cxx'
p219
(lp220
(S'MPI_Get_processor_name()'
p221
S'135'
p222
tp223
asS'lotsofcoresbook1code/Pearls1_Chapter13/Pearl/src/opt/lbs3d-mpi/parameters.F90'
p224
(lp225
(S'MPI_BCAST()'
p226
S'163'
p227
tp228
a(S'MPI_BCAST()'
p229
S'164'
p230
tp231
a(S'MPI_BCAST()'
p232
S'199'
p233
tp234
a(S'X_MPI_COMM_WORLD()'
p235
S'200'
p236
tp237
asS'lotsofcoresbook1code/Pearls1_Chapter17/Pearl/src/tools/ga-5-3/global/testing/unit-tests/ga_scatter.c'
p238
(lp239
(S'MPI_Init()'
p240
S'23'
p241
tp242
a(S'MPI_Comm_rank()'
p243
S'27'
p244
tp245
a(S'MPI_Comm_size()'
p246
S'28'
p247
tp248
a(S'MPI_Finalize()'
p249
S'77'
p250
tp251
asS'lotsofcoresbook1code/Pearls1_Chapter17/Pearl/src/tools/ga-5-3/armci/tools/armci_trace.c'
p252
(lp253
(S'MPI_Comm_rank()'
p254
S'111'
p255
tp256
a(S'MPI_Reduce()'
p257
S'113'
p258
tp259
a(S'MPI_Reduce()'
p260
S'114'
p261
tp262
a(S'MPI_Reduce()'
p263
S'119'
p264
tp265
a(S'MPI_Reduce()'
p266
S'121'
p267
tp268
a(S'MPI_Reduce()'
p269
S'127'
p270
tp271
a(S'MPI_Reduce()'
p272
S'128'
p273
tp274
a(S'MPI_Reduce()'
p275
S'133'
p276
tp277
a(S'MPI_Reduce()'
p278
S'134'
p279
tp280
a(S'MPI_Reduce()'
p281
S'139'
p282
tp283
a(S'MPI_Reduce()'
p284
S'141'
p285
tp286
a(S'MPI_Reduce()'
p287
S'148'
p288
tp289
a(S'MPI_Reduce()'
p290
S'150'
p291
tp292
a(S'MPI_Reduce()'
p293
S'157'
p294
tp295
a(S'MPI_Reduce()'
p296
S'159'
p297
tp298
a(S'MPI_Reduce()'
p299
S'165'
p300
tp301
a(S'MPI_Reduce()'
p302
S'167'
p303
tp304
a(S'MPI_Reduce()'
p305
S'174'
p306
tp307
a(S'MPI_Reduce()'
p308
S'176'
p309
tp310
a(S'MPI_Reduce()'
p311
S'183'
p312
tp313
a(S'MPI_Reduce()'
p314
S'184'
p315
tp316
a(S'MPI_Reduce()'
p317
S'189'
p318
tp319
a(S'MPI_Reduce()'
p320
S'190'
p321
tp322
a(S'MPI_Reduce()'
p323
S'195'
p324
tp325
a(S'MPI_Reduce()'
p326
S'197'
p327
tp328
a(S'MPI_Reduce()'
p329
S'204'
p330
tp331
a(S'MPI_Reduce()'
p332
S'205'
p333
tp334
a(S'MPI_Reduce()'
p335
S'210'
p336
tp337
a(S'MPI_Reduce()'
p338
S'212'
p339
tp340
a(S'MPI_Reduce()'
p341
S'218'
p342
tp343
a(S'MPI_Reduce()'
p344
S'220'
p345
tp346
a(S'MPI_Reduce()'
p347
S'227'
p348
tp349
a(S'MPI_Reduce()'
p350
S'229'
p351
tp352
a(S'MPI_Reduce()'
p353
S'235'
p354
tp355
a(S'MPI_Reduce()'
p356
S'237'
p357
tp358
a(S'MPI_Reduce()'
p359
S'243'
p360
tp361
a(S'MPI_Reduce()'
p362
S'244'
p363
tp364
a(S'MPI_Reduce()'
p365
S'249'
p366
tp367
a(S'MPI_Reduce()'
p368
S'250'
p369
tp370
a(S'MPI_Reduce()'
p371
S'255'
p372
tp373
a(S'MPI_Reduce()'
p374
S'256'
p375
tp376
a(S'MPI_Reduce()'
p377
S'261'
p378
tp379
a(S'MPI_Reduce()'
p380
S'263'
p381
tp382
a(S'MPI_Reduce()'
p383
S'270'
p384
tp385
a(S'MPI_Reduce()'
p386
S'272'
p387
tp388
a(S'MPI_Reduce()'
p389
S'279'
p390
tp391
a(S'MPI_Reduce()'
p392
S'281'
p393
tp394
a(S'MPI_Reduce()'
p395
S'287'
p396
tp397
a(S'MPI_Reduce()'
p398
S'289'
p399
tp400
a(S'MPI_Reduce()'
p401
S'296'
p402
tp403
a(S'MPI_Reduce()'
p404
S'298'
p405
tp406
a(S'MPI_Reduce()'
p407
S'304'
p408
tp409
a(S'MPI_Reduce()'
p410
S'306'
p411
tp412
a(S'MPI_Reduce()'
p413
S'313'
p414
tp415
a(S'MPI_Reduce()'
p416
S'314'
p417
tp418
a(S'MPI_Reduce()'
p419
S'319'
p420
tp421
a(S'MPI_Reduce()'
p422
S'320'
p423
tp424
a(S'MPI_Reduce()'
p425
S'325'
p426
tp427
a(S'MPI_Reduce()'
p428
S'327'
p429
tp430
a(S'MPI_Reduce()'
p431
S'333'
p432
tp433
a(S'MPI_Reduce()'
p434
S'334'
p435
tp436
a(S'MPI_Reduce()'
p437
S'339'
p438
tp439
a(S'MPI_Reduce()'
p440
S'341'
p441
tp442
a(S'MPI_Reduce()'
p443
S'348'
p444
tp445
a(S'MPI_Reduce()'
p446
S'350'
p447
tp448
a(S'MPI_Reduce()'
p449
S'357'
p450
tp451
a(S'MPI_Reduce()'
p452
S'359'
p453
tp454
a(S'MPI_Reduce()'
p455
S'366'
p456
tp457
a(S'MPI_Reduce()'
p458
S'367'
p459
tp460
a(S'MPI_Reduce()'
p461
S'372'
p462
tp463
a(S'MPI_Reduce()'
p464
S'374'
p465
tp466
a(S'MPI_Reduce()'
p467
S'381'
p468
tp469
a(S'MPI_Reduce()'
p470
S'383'
p471
tp472
a(S'MPI_Reduce()'
p473
S'389'
p474
tp475
a(S'MPI_Reduce()'
p476
S'390'
p477
tp478
a(S'MPI_Reduce()'
p479
S'395'
p480
tp481
a(S'MPI_Reduce()'
p482
S'396'
p483
tp484
a(S'MPI_Reduce()'
p485
S'401'
p486
tp487
a(S'MPI_Reduce()'
p488
S'403'
p489
tp490
a(S'MPI_Reduce()'
p491
S'409'
p492
tp493
a(S'MPI_Reduce()'
p494
S'410'
p495
tp496
a(S'MPI_Reduce()'
p497
S'415'
p498
tp499
a(S'MPI_Reduce()'
p500
S'417'
p501
tp502
a(S'MPI_Reduce()'
p503
S'424'
p504
tp505
a(S'MPI_Reduce()'
p506
S'426'
p507
tp508
a(S'MPI_Reduce()'
p509
S'432'
p510
tp511
a(S'MPI_Reduce()'
p512
S'434'
p513
tp514
a(S'MPI_Reduce()'
p515
S'441'
p516
tp517
a(S'MPI_Reduce()'
p518
S'443'
p519
tp520
a(S'MPI_Reduce()'
p521
S'450'
p522
tp523
a(S'MPI_Reduce()'
p524
S'451'
p525
tp526
a(S'MPI_Reduce()'
p527
S'456'
p528
tp529
a(S'MPI_Reduce()'
p530
S'458'
p531
tp532
asS'lotsofcoresbook1code/Pearls1_Chapter26/Pearl/ooc_solver/scalapack/REDIST/TESTING/psgemrdrv.c'
p533
(lp534
(S'MPI_Init()'
p535
S'272'
p536
tp537
asS'lotsofcoresbook1code/Pearls1_Chapter26/Pearl/ooc_solver/scalapack/BLACS/SRC/ctrbs2d_.c'
p538
(lp539
(S'X_MPI_Datatype()'
p540
S'73'
p541
tp542
a(S'X_MPI_COMPLEX()'
p543
S'127'
p544
tp545
asS'lotsofcoresbook1code/Pearls1_Chapter08/Pearl/comm.cpp'
p546
(lp547
(S'MPI_Comm_rank()'
p548
S'77'
p549
tp550
a(S'MPI_Comm_size()'
p551
S'78'
p552
tp553
a(S'MPI_Cart_create()'
p554
S'133'
p555
tp556
a(S'MPI_Cart_get()'
p557
S'134'
p558
tp559
a(S'MPI_Cart_shift()'
p560
S'135'
p561
tp562
a(S'MPI_Cart_shift()'
p563
S'136'
p564
tp565
a(S'MPI_Cart_shift()'
p566
S'137'
p567
tp568
a(S'MPI_Cart_shift()'
p569
S'178'
p570
tp571
a(S'MPI_Cart_shift()'
p572
S'179'
p573
tp574
a(S'MPI_Comm_free()'
p575
S'182'
p576
tp577
a(S'MPI_Irecv()'
p578
S'306'
p579
tp580
a(S'MPI_Send()'
p581
S'308'
p582
tp583
a(S'MPI_Irecv()'
p584
S'311'
p585
tp586
a(S'MPI_Send()'
p587
S'313'
p588
tp589
a(S'MPI_Wait()'
p590
S'317'
p591
tp592
a(S'MPI_Irecv()'
p593
S'355'
p594
tp595
a(S'MPI_Send()'
p596
S'357'
p597
tp598
a(S'MPI_Irecv()'
p599
S'360'
p600
tp601
a(S'MPI_Send()'
p602
S'362'
p603
tp604
a(S'MPI_Wait()'
p605
S'365'
p606
tp607
a(S'MPI_Send()'
p608
S'546'
p609
tp610
a(S'MPI_Recv()'
p611
S'547'
p612
tp613
a(S'MPI_Send()'
p614
S'551'
p615
tp616
a(S'MPI_Recv()'
p617
S'552'
p618
tp619
a(S'MPI_Irecv()'
p620
S'559'
p621
tp622
a(S'X_MPI_COMM_WORLD()'
p623
S'560'
p624
tp625
a(S'MPI_Send()'
p626
S'561'
p627
tp628
a(S'MPI_Irecv()'
p629
S'563'
p630
tp631
a(S'X_MPI_COMM_WORLD()'
p632
S'564'
p633
tp634
a(S'MPI_Send()'
p635
S'565'
p636
tp637
a(S'MPI_Wait()'
p638
S'568'
p639
tp640
a(S'MPI_Irecv()'
p641
S'572'
p642
tp643
a(S'X_MPI_COMM_WORLD()'
p644
S'573'
p645
tp646
a(S'MPI_Send()'
p647
S'574'
p648
tp649
a(S'MPI_Irecv()'
p650
S'576'
p651
tp652
a(S'X_MPI_COMM_WORLD()'
p653
S'577'
p654
tp655
a(S'MPI_Send()'
p656
S'578'
p657
tp658
a(S'MPI_Wait()'
p659
S'581'
p660
tp661
a(S'MPI_Send()'
p662
S'699'
p663
tp664
a(S'MPI_Recv()'
p665
S'700'
p666
tp667
a(S'MPI_Irecv()'
p668
S'705'
p669
tp670
a(S'X_MPI_COMM_WORLD()'
p671
S'706'
p672
tp673
a(S'MPI_Send()'
p674
S'707'
p675
tp676
a(S'MPI_Irecv()'
p677
S'709'
p678
tp679
a(S'X_MPI_COMM_WORLD()'
p680
S'710'
p681
tp682
a(S'MPI_Send()'
p683
S'711'
p684
tp685
a(S'MPI_Wait()'
p686
S'714'
p687
tp688
a(S'MPI_Send()'
p689
S'873'
p690
tp691
a(S'MPI_Recv()'
p692
S'874'
p693
tp694
a(S'MPI_Irecv()'
p695
S'879'
p696
tp697
a(S'MPI_Send()'
p698
S'881'
p699
tp700
a(S'MPI_Irecv()'
p701
S'884'
p702
tp703
a(S'MPI_Send()'
p704
S'886'
p705
tp706
a(S'MPI_Wait()'
p707
S'890'
p708
tp709
asS'lotsofcoresbook1code/Pearls1_Chapter26/Pearl/ooc_solver/scalapack/BLACS/SRC/igesd2d_.c'
p710
(lp711
(S'X_MPI_Datatype()'
p712
S'50'
p713
tp714
a(S'X_MPI_INT()'
p715
S'75'
p716
tp717
asS'lotsofcoresbook1code/Pearls1_Chapter08/Pearl/setup.cpp'
p718
(lp719
(S'MPI_Comm_rank()'
p720
S'286'
p721
tp722
a(S'MPI_Allreduce()'
p723
S'291'
p724
tp725
a(S'MPI_Comm_rank()'
p726
S'427'
p727
tp728
a(S'MPI_Allreduce()'
p729
S'430'
p730
tp731
a(S'MPI_Allreduce()'
p732
S'441'
p733
tp734
a(S'MPI_Allreduce()'
p735
S'471'
p736
tp737
a(S'MPI_Allreduce()'
p738
S'473'
p739
tp740
a(S'MPI_Allreduce()'
p741
S'475'
p742
tp743
asS'lotsofcoresbook1code/Pearls1_Chapter26/Pearl/SRC-1mat-MIC-final/cublasinit.cpp'
p744
(lp745
(S'MPI_Get_processor_name()'
p746
S'53'
p747
tp748
asS'lotsofcoresbook1code/Pearls1_Chapter17/Pearl/src/tools/ga-5-3/tascel/test/TestQueue.cc'
p749
(lp750
(S'MPI_Init()'
p751
S'67'
p752
tp753
a(S'MPI_Comm_rank()'
p754
S'68'
p755
tp756
a(S'MPI_Finalize()'
p757
S'72'
p758
tp759
asS'lotsofcoresbook1code/Pearls1_Chapter17/Pearl/src/tools/ga-5-3/gfutex/test/test_gfutex.C'
p760
(lp761
(S'MPI_Init()'
p762
S'52'
p763
tp764
a(S'MPI_Barrier()'
p765
S'73'
p766
tp767
a(S'MPI_Barrier()'
p768
S'81'
p769
tp770
a(S'MPI_Wtime()'
p771
S'105'
p772
tp773
a(S'MPI_Wtime()'
p774
S'109'
p775
tp776
a(S'MPI_Barrier()'
p777
S'111'
p778
tp779
a(S'MPI_Wtime()'
p780
S'113'
p781
tp782
a(S'MPI_Wtime()'
p783
S'115'
p784
tp785
a(S'MPI_Barrier()'
p786
S'142'
p787
tp788
a(S'MPI_Finalize()'
p789
S'149'
p790
tp791
asS'lotsofcoresbook1code/Pearls1_Chapter17/Pearl/src/tools/ga-5-3/gfutex/examples/scf/twoel.C.orig'
p792
(lp793
(S'MPI_Wtime()'
p794
S'365'
p795
tp796
a(S'MPI_Wtime()'
p797
S'398'
p798
tp799
a(S'MPI_Wtime()'
p800
S'400'
p801
tp802
a(S'MPI_Wtime()'
p803
S'402'
p804
tp805
a(S'MPI_Reduce()'
p806
S'978'
p807
tp808
asS'lotsofcoresbook1code/Pearls1_Chapter17/Pearl/src/tools/ga-5-3/global/testing/unit-tests/ga_pgroup_destroy2.c'
p809
(lp810
(S'MPI_Init()'
p811
S'22'
p812
tp813
a(S'MPI_Comm_rank()'
p814
S'24'
p815
tp816
a(S'MPI_Comm_size()'
p817
S'25'
p818
tp819
a(S'MPI_Finalize()'
p820
S'75'
p821
tp822
asS'lotsofcoresbook1code/Pearls1_Chapter13/Pearl/src/std/ll-mpi/vtkplane.F90'
p823
(lp824
(S'MPI_FINALIZE()'
p825
S'93'
p826
tp827
asS'lotsofcoresbook1code/Pearls1_Chapter17/Pearl/src/tools/ga-5-3/global/src/collect.c'
p828
(lp829
(S'MPI_Bcast()'
p830
S'52'
p831
tp832
asS'lotsofcoresbook1code/Pearls1_Chapter17/Pearl/src/tools/ga-5-3/global/testing/unit-tests/ga_nodeid.c'
p833
(lp834
(S'MPI_Init()'
p835
S'20'
p836
tp837
a(S'MPI_Comm_rank()'
p838
S'22'
p839
tp840
a(S'MPI_Comm_size()'
p841
S'23'
p842
tp843
a(S'MPI_Finalize()'
p844
S'37'
p845
tp846
asS'lotsofcoresbook1code/Pearls1_Chapter17/Pearl/src/tools/ga-5-3/gfutex/src/micro_gf.C'
p847
(lp848
(S'MPI_Init()'
p849
S'30'
p850
tp851
a(S'MPI_Barrier()'
p852
S'43'
p853
tp854
a(S'MPI_Wtime()'
p855
S'56'
p856
tp857
a(S'MPI_Wtime()'
p858
S'60'
p859
tp860
a(S'MPI_Barrier()'
p861
S'62'
p862
tp863
a(S'MPI_Wtime()'
p864
S'64'
p865
tp866
a(S'MPI_Wtime()'
p867
S'66'
p868
tp869
a(S'MPI_Barrier()'
p870
S'71'
p871
tp872
a(S'MPI_Wtime()'
p873
S'73'
p874
tp875
a(S'MPI_Wtime()'
p876
S'77'
p877
tp878
a(S'MPI_Barrier()'
p879
S'79'
p880
tp881
a(S'MPI_Wtime()'
p882
S'81'
p883
tp884
a(S'MPI_Wtime()'
p885
S'83'
p886
tp887
a(S'MPI_Barrier()'
p888
S'88'
p889
tp890
a(S'MPI_Finalize()'
p891
S'95'
p892
tp893
asS'lotsofcoresbook1code/Pearls1_Chapter08/Pearl/timer.cpp'
p894
(lp895
(S'MPI_Wtime()'
p896
S'53'
p897
tp898
a(S'MPI_Wtime()'
p899
S'77'
p900
tp901
a(S'MPI_Barrier()'
p902
S'98'
p903
tp904
a(S'MPI_Barrier()'
p905
S'110'
p906
tp907
asS'lotsofcoresbook1code/Pearls1_Chapter17/Pearl/src/tools/ga-5-3/gfutex/examples/scf/timer.c'
p908
(lp909
(S'MPI_Wtime()'
p910
S'53'
p911
tp912
a(S'MPI_Wtime()'
p913
S'57'
p914
tp915
asS'lotsofcoresbook1code/Pearls1_Chapter13/Pearl/src/std/zsc-dgr-mpi/vgrid.F90'
p916
(lp917
(S'MPI_CART_CREATE()'
p918
S'64'
p919
tp920
a(S'MPI_COMM_RANK()'
p921
S'67'
p922
tp923
a(S'MPI_CART_COORDS()'
p924
S'68'
p925
tp926
a(S'MPI_CART_SHIFT()'
p927
S'124'
p928
tp929
a(S'MPI_CART_SHIFT()'
p930
S'126'
p931
tp932
a(S'MPI_CART_COORDS()'
p933
S'129'
p934
tp935
a(S'MPI_CART_COORDS()'
p936
S'132'
p937
tp938
a(S'MPI_CART_COORDS()'
p939
S'135'
p940
tp941
a(S'MPI_CART_COORDS()'
p942
S'138'
p943
tp944
a(S'MPI_CART_RANK()'
p945
S'144'
p946
tp947
a(S'MPI_CART_RANK()'
p948
S'148'
p949
tp950
a(S'MPI_CART_RANK()'
p951
S'152'
p952
tp953
a(S'MPI_CART_RANK()'
p954
S'156'
p955
tp956
asS'lotsofcoresbook1code/Pearls1_Chapter17/Pearl/src/tools/ga-5-3/gfutex/examples/scf/twoel.C'
p957
(lp958
(S'MPI_Wtime()'
p959
S'207'
p960
tp961
a(S'MPI_Wtime()'
p962
S'313'
p963
tp964
a(S'MPI_Wtime()'
p965
S'444'
p966
tp967
a(S'MPI_Wtime()'
p968
S'465'
p969
tp970
a(S'MPI_Wtime()'
p971
S'467'
p972
tp973
a(S'MPI_Wtime()'
p974
S'471'
p975
tp976
a(S'MPI_Wtime()'
p977
S'479'
p978
tp979
a(S'MPI_Wtime()'
p980
S'483'
p981
tp982
a(S'MPI_Allgather()'
p983
S'493'
p984
tp985
a(S'MPI_Wtime()'
p986
S'513'
p987
tp988
a(S'MPI_Wtime()'
p989
S'515'
p990
tp991
a(S'MPI_Wtime()'
p992
S'516'
p993
tp994
a(S'MPI_Wtime()'
p995
S'519'
p996
tp997
a(S'MPI_Wtime()'
p998
S'558'
p999
tp1000
a(S'MPI_Wtime()'
p1001
S'561'
p1002
tp1003
a(S'MPI_Allgather()'
p1004
S'1023'
p1005
tp1006
a(S'MPI_Reduce()'
p1007
S'1103'
p1008
tp1009
asS'lotsofcoresbook1code/Pearls1_Chapter17/Pearl/src/tools/ga-5-3/armci/src-portals/message.c'
p1010
(lp1011
(S'MPI_Barrier()'
p1012
S'431'
p1013
tp1014
a(S'MPI_Initialized()'
p1015
S'462'
p1016
tp1017
a(S'MPI_Init_thread()'
p1018
S'466'
p1019
tp1020
a(S'MPI_Init()'
p1021
S'468'
p1022
tp1023
a(S'MPI_Comm_dup()'
p1024
S'472'
p1025
tp1026
a(S'MPI_Comm_rank()'
p1027
S'488'
p1028
tp1029
a(S'MPI_Comm_size()'
p1030
S'512'
p1031
tp1032
a(S'MPI_Abort()'
p1033
S'553'
p1034
tp1035
a(S'MPI_Finalize()'
p1036
S'572'
p1037
tp1038
a(S'MPI_Bcast()'
p1039
S'820'
p1040
tp1041
a(S'MPI_Send()'
p1042
S'835'
p1043
tp1044
a(S'MPI_Recv()'
p1045
S'859'
p1046
tp1047
a(S'MPI_Recv()'
p1048
S'882'
p1049
tp1050
a(S'MPI_Barrier()'
p1051
S'1915'
p1052
tp1053
a(S'MPI_Comm_group()'
p1054
S'1947'
p1055
tp1056
a(S'MPI_Group_incl()'
p1057
S'1948'
p1058
tp1059
a(S'MPI_Comm_create()'
p1060
S'1950'
p1061
tp1062
a(S'MPI_Comm_free()'
p1063
S'1957'
p1064
tp1065
a(S'MPI_Group_free()'
p1066
S'1958'
p1067
tp1068
asS'lotsofcoresbook1code/Pearls1_Chapter26/Pearl/ooc_solver/scalapack/BLACS/SRC/igamn2d_.c'
p1069
(lp1070
(S'X_MPI_Datatype()'
p1071
S'87'
p1072
tp1073
a(S'X_MPI_Datatype()'
p1074
S'90'
p1075
tp1076
asS'lotsofcoresbook1code/Pearls1_Chapter17/Pearl/src/tools/ga-5-3/armci/src-gemini/armci.c'
p1077
(lp1078
(S'MPI_Comm_free()'
p1079
S'439'
p1080
tp1081
asS'lotsofcoresbook1code/Pearls1_Chapter26/Pearl/ooc_solver/scalapack/BLACS/INSTALL/fmpi_sane.f'
p1082
(lp1083
(S'mpi_init()'
p1084
S'17'
p1085
tp1086
a(S'mpi_comm_size()'
p1087
S'18'
p1088
tp1089
a(S'mpi_abort()'
p1090
S'21'
p1091
tp1092
a(S'mpi_comm_group()'
p1093
S'35'
p1094
tp1095
a(S'mpi_group_incl()'
p1096
S'36'
p1097
tp1098
a(S'mpi_comm_create()'
p1099
S'37'
p1100
tp1101
a(S'mpi_group_free()'
p1102
S'38'
p1103
tp1104
a(S'mpi_comm_rank()'
p1105
S'43'
p1106
tp1107
a(S'mpi_recv()'
p1108
S'49'
p1109
tp1110
a(S'mpi_send()'
p1111
S'51'
p1112
tp1113
a(S'mpi_send()'
p1114
S'54'
p1115
tp1116
a(S'mpi_recv()'
p1117
S'56'
p1118
tp1119
a(S'mpi_abort()'
p1120
S'64'
p1121
tp1122
a(S'mpi_finalize()'
p1123
S'69'
p1124
tp1125
asS'lotsofcoresbook1code/Pearls1_Chapter17/Pearl/src/tools/ga-5-3/armci/src-portals/portals_ds.c'
p1126
(lp1127
(S'MPI_Comm_size()'
p1128
S'55'
p1129
tp1130
a(S'MPI_Comm_rank()'
p1131
S'56'
p1132
tp1133
asS'lotsofcoresbook1code/Pearls1_Chapter26/Pearl/ooc_solver/scalapack/BLACS/SRC/zgsum2d_.c'
p1134
(lp1135
(S'X_MPI_Datatype()'
p1136
S'65'
p1137
tp1138
a(S'X_MPI_Datatype()'
p1139
S'68'
p1140
tp1141
asS'lotsofcoresbook1code/Pearls1_Chapter26/Pearl/ooc_solver/scalapack/BLACS/SRC/ctrrv2d_.c'
p1142
(lp1143
(S'X_MPI_Datatype()'
p1144
S'67'
p1145
tp1146
a(S'X_MPI_COMPLEX()'
p1147
S'95'
p1148
tp1149
asS'lotsofcoresbook1code/Pearls1_Chapter17/Pearl/src/tools/ga-5-3/global/examples/lennard-jones/lennard.c'
p1150
(lp1151
(S'MPI_Finalize()'
p1152
S'766'
p1153
tp1154
asS'lotsofcoresbook1code/Pearls1_Chapter25/Pearl/MultipleDevices/options.c'
p1155
(lp1156
(S'MPI_Init()'
p1157
S'49'
p1158
tp1159
a(S'MPI_Comm_rank()'
p1160
S'50'
p1161
tp1162
a(S'MPI_Comm_size()'
p1163
S'51'
p1164
tp1165
a(S'MPI_Recv()'
p1166
S'58'
p1167
tp1168
a(S'X_MPI_CHAR()'
p1169
S'59'
p1170
tp1171
a(S'X_MPI_COMM_WORLD()'
p1172
S'60'
p1173
tp1174
a(S'MPI_Recv()'
p1175
S'105'
p1176
tp1177
a(S'X_MPI_INT()'
p1178
S'106'
p1179
tp1180
a(S'X_MPI_COMM_WORLD()'
p1181
S'107'
p1182
tp1183
a(S'MPI_Send()'
p1184
S'150'
p1185
tp1186
a(S'MPI_Send()'
p1187
S'206'
p1188
tp1189
a(S'MPI_Send()'
p1190
S'217'
p1191
tp1192
a(S'MPI_Get_processor_name()'
p1193
S'229'
p1194
tp1195
a(S'MPI_Send()'
p1196
S'230'
p1197
tp1198
a(S'MPI_Send()'
p1199
S'304'
p1200
tp1201
a(S'MPI_Recv()'
p1202
S'310'
p1203
tp1204
a(S'MPI_Barrier()'
p1205
S'427'
p1206
tp1207
a(S'MPI_Finalize()'
p1208
S'428'
p1209
tp1210
asS'lotsofcoresbook1code/Pearls1_Chapter17/Pearl/src/tools/ga-5-3/global/testing/unit-tests/ga_solve.c'
p1211
(lp1212
(S'MPI_Init()'
p1213
S'26'
p1214
tp1215
a(S'MPI_Comm_rank()'
p1216
S'28'
p1217
tp1218
a(S'MPI_Comm_size()'
p1219
S'29'
p1220
tp1221
a(S'MPI_Finalize()'
p1222
S'66'
p1223
tp1224
asS'lotsofcoresbook1code/Pearls1_Chapter13/Pearl/src/std/ll-dgr-mpi/vgrid.F90'
p1225
(lp1226
(S'MPI_CART_CREATE()'
p1227
S'61'
p1228
tp1229
a(S'MPI_COMM_RANK()'
p1230
S'64'
p1231
tp1232
a(S'MPI_CART_COORDS()'
p1233
S'65'
p1234
tp1235
a(S'MPI_CART_SHIFT()'
p1236
S'135'
p1237
tp1238
a(S'MPI_CART_SHIFT()'
p1239
S'137'
p1240
tp1241
a(S'MPI_CART_COORDS()'
p1242
S'140'
p1243
tp1244
a(S'MPI_CART_COORDS()'
p1245
S'142'
p1246
tp1247
a(S'MPI_CART_COORDS()'
p1248
S'144'
p1249
tp1250
a(S'MPI_CART_COORDS()'
p1251
S'146'
p1252
tp1253
a(S'MPI_CART_RANK()'
p1254
S'152'
p1255
tp1256
a(S'MPI_CART_RANK()'
p1257
S'155'
p1258
tp1259
a(S'MPI_CART_RANK()'
p1260
S'158'
p1261
tp1262
a(S'MPI_CART_RANK()'
p1263
S'161'
p1264
tp1265
asS'lotsofcoresbook1code/Pearls1_Chapter17/Pearl/src/tools/ga-5-3/comex/tools/prof_gen.py'
p1266
(lp1267
(S'MPI_Comm_dup()'
p1268
S'170'
p1269
tp1270
a(S'MPI_Comm_rank()'
p1271
S'171'
p1272
tp1273
a(S'MPI_Comm_size()'
p1274
S'172'
p1275
tp1276
a(S'MPI_Wtime()'
p1277
S'175'
p1278
tp1279
a(S'MPI_Wtime()'
p1280
S'176'
p1281
tp1282
a(S'MPI_Wtime()'
p1283
S'178'
p1284
tp1285
a(S'MPI_Wtime()'
p1286
S'196'
p1287
tp1288
a(S'MPI_Wtime()'
p1289
S'198'
p1290
tp1291
a(S'MPI_Reduce()'
p1292
S'221'
p1293
tp1294
a(S'MPI_Wtime()'
p1295
S'232'
p1296
tp1297
a(S'MPI_Comm_free()'
p1298
S'241'
p1299
tp1300
asS'lotsofcoresbook1code/Pearls1_Chapter13/Pearl/src/std/ll-mpi/main.F90'
p1301
(lp1302
(S'MPI_INIT()'
p1303
S'51'
p1304
tp1305
a(S'MPI_COMM_SIZE()'
p1306
S'52'
p1307
tp1308
a(S'MPI_COMM_RANK()'
p1309
S'53'
p1310
tp1311
a(S'MPI_FINALIZE()'
p1312
S'88'
p1313
tp1314
asS'lotsofcoresbook1code/Pearls1_Chapter26/Pearl/ooc_solver/scalapack/BLACS/SRC/zgerv2d_.c'
p1315
(lp1316
(S'X_MPI_Datatype()'
p1317
S'54'
p1318
tp1319
a(S'X_MPI_DOUBLE_COMPLEX()'
p1320
S'76'
p1321
tp1322
asS'lotsofcoresbook1code/Pearls1_Chapter17/Pearl/src/tools/ga-5-3/tcgmsg/tcgmsg-mpi/nxtval.c'
p1323
(lp1324
(S'MPI_Recv()'
p1325
S'33'
p1326
tp1327
a(S'MPI_Get_count()'
p1328
S'34'
p1329
tp1330
a(S'MPI_Send()'
p1331
S'61'
p1332
tp1333
a(S'MPI_Barrier()'
p1334
S'63'
p1335
tp1336
a(S'MPI_Finalize()'
p1337
S'64'
p1338
tp1339
a(S'MPI_Send()'
p1340
S'73'
p1341
tp1342
a(S'MPI_Send()'
p1343
S'86'
p1344
tp1345
a(S'MPI_Send()'
p1346
S'126'
p1347
tp1348
a(S'MPI_Recv()'
p1349
S'127'
p1350
tp1351
a(S'MPI_Comm_size()'
p1352
S'157'
p1353
tp1354
a(S'MPI_Comm_rank()'
p1355
S'158'
p1356
tp1357
asS'lotsofcoresbook1code/Pearls1_Chapter26/Pearl/ooc_solver/scalapack/BLACS/SRC/igsum2d_.c'
p1358
(lp1359
(S'X_MPI_Datatype()'
p1360
S'65'
p1361
tp1362
a(S'X_MPI_Datatype()'
p1363
S'68'
p1364
tp1365
asS'lotsofcoresbook1code/Pearls1_Chapter13/Pearl/src/std/ll-mpi/parameters.F90'
p1366
(lp1367
(S'MPI_FINALIZE()'
p1368
S'69'
p1369
tp1370
a(S'MPI_FINALIZE()'
p1371
S'106'
p1372
tp1373
a(S'MPI_BCAST()'
p1374
S'114'
p1375
tp1376
a(S'MPI_BCAST()'
p1377
S'115'
p1378
tp1379
a(S'MPI_BCAST()'
p1380
S'143'
p1381
tp1382
asS'lotsofcoresbook1code/Pearls1_Chapter26/Pearl/ooc_solver/scalapack/BLACS/SRC/cgamn2d_.c'
p1383
(lp1384
(S'X_MPI_Datatype()'
p1385
S'89'
p1386
tp1387
a(S'X_MPI_Datatype()'
p1388
S'92'
p1389
tp1390
asS'lotsofcoresbook1code/Pearls1_Chapter17/Pearl/src/tools/ga-5-3/armci/src/progress/fence.c'
p1391
(lp1392
(S'MPI_Barrier()'
p1393
S'112'
p1394
tp1395
asS'lotsofcoresbook1code/Pearls1_Chapter13/Pearl/src/std/zsc-3d-mpi/poststream.F90'
p1396
(lp1397
(S'MPI_IRECV()'
p1398
S'51'
p1399
tp1400
a(S'MPI_IRECV()'
p1401
S'52'
p1402
tp1403
a(S'MPI_SEND()'
p1404
S'61'
p1405
tp1406
a(S'MPI_SEND()'
p1407
S'62'
p1408
tp1409
a(S'MPI_WAIT()'
p1410
S'63'
p1411
tp1412
a(S'MPI_WAIT()'
p1413
S'64'
p1414
tp1415
a(S'MPI_IRECV()'
p1416
S'67'
p1417
tp1418
a(S'MPI_IRECV()'
p1419
S'68'
p1420
tp1421
a(S'MPI_SEND()'
p1422
S'77'
p1423
tp1424
a(S'MPI_SEND()'
p1425
S'78'
p1426
tp1427
a(S'MPI_WAIT()'
p1428
S'79'
p1429
tp1430
a(S'MPI_WAIT()'
p1431
S'80'
p1432
tp1433
a(S'MPI_IRECV()'
p1434
S'83'
p1435
tp1436
a(S'MPI_IRECV()'
p1437
S'84'
p1438
tp1439
a(S'MPI_SEND()'
p1440
S'93'
p1441
tp1442
a(S'MPI_SEND()'
p1443
S'94'
p1444
tp1445
a(S'MPI_WAIT()'
p1446
S'95'
p1447
tp1448
a(S'MPI_WAIT()'
p1449
S'96'
p1450
tp1451
a(S'MPI_IRECV()'
p1452
S'195'
p1453
tp1454
a(S'MPI_IRECV()'
p1455
S'196'
p1456
tp1457
a(S'MPI_SEND()'
p1458
S'205'
p1459
tp1460
a(S'MPI_SEND()'
p1461
S'206'
p1462
tp1463
a(S'MPI_WAIT()'
p1464
S'207'
p1465
tp1466
a(S'MPI_WAIT()'
p1467
S'208'
p1468
tp1469
a(S'MPI_IRECV()'
p1470
S'211'
p1471
tp1472
a(S'MPI_IRECV()'
p1473
S'212'
p1474
tp1475
a(S'MPI_SEND()'
p1476
S'221'
p1477
tp1478
a(S'MPI_SEND()'
p1479
S'222'
p1480
tp1481
a(S'MPI_WAIT()'
p1482
S'223'
p1483
tp1484
a(S'MPI_WAIT()'
p1485
S'224'
p1486
tp1487
a(S'MPI_IRECV()'
p1488
S'227'
p1489
tp1490
a(S'MPI_IRECV()'
p1491
S'228'
p1492
tp1493
a(S'MPI_SEND()'
p1494
S'237'
p1495
tp1496
a(S'MPI_SEND()'
p1497
S'238'
p1498
tp1499
a(S'MPI_WAIT()'
p1500
S'239'
p1501
tp1502
a(S'MPI_WAIT()'
p1503
S'240'
p1504
tp1505
a(S'MPI_IRECV()'
p1506
S'243'
p1507
tp1508
a(S'MPI_IRECV()'
p1509
S'244'
p1510
tp1511
a(S'MPI_IRECV()'
p1512
S'245'
p1513
tp1514
a(S'MPI_IRECV()'
p1515
S'246'
p1516
tp1517
a(S'MPI_SEND()'
p1518
S'255'
p1519
tp1520
a(S'MPI_SEND()'
p1521
S'256'
p1522
tp1523
a(S'MPI_SEND()'
p1524
S'257'
p1525
tp1526
a(S'MPI_SEND()'
p1527
S'258'
p1528
tp1529
a(S'MPI_WAIT()'
p1530
S'259'
p1531
tp1532
a(S'MPI_WAIT()'
p1533
S'260'
p1534
tp1535
a(S'MPI_WAIT()'
p1536
S'261'
p1537
tp1538
a(S'MPI_WAIT()'
p1539
S'262'
p1540
tp1541
a(S'MPI_IRECV()'
p1542
S'265'
p1543
tp1544
a(S'MPI_IRECV()'
p1545
S'266'
p1546
tp1547
a(S'MPI_IRECV()'
p1548
S'267'
p1549
tp1550
a(S'MPI_IRECV()'
p1551
S'268'
p1552
tp1553
a(S'MPI_SEND()'
p1554
S'277'
p1555
tp1556
a(S'MPI_SEND()'
p1557
S'278'
p1558
tp1559
a(S'MPI_SEND()'
p1560
S'279'
p1561
tp1562
a(S'MPI_SEND()'
p1563
S'280'
p1564
tp1565
a(S'MPI_WAIT()'
p1566
S'281'
p1567
tp1568
a(S'MPI_WAIT()'
p1569
S'282'
p1570
tp1571
a(S'MPI_WAIT()'
p1572
S'283'
p1573
tp1574
a(S'MPI_WAIT()'
p1575
S'284'
p1576
tp1577
a(S'MPI_IRECV()'
p1578
S'287'
p1579
tp1580
a(S'MPI_IRECV()'
p1581
S'288'
p1582
tp1583
a(S'MPI_IRECV()'
p1584
S'289'
p1585
tp1586
a(S'MPI_IRECV()'
p1587
S'290'
p1588
tp1589
a(S'MPI_SEND()'
p1590
S'299'
p1591
tp1592
a(S'MPI_SEND()'
p1593
S'300'
p1594
tp1595
a(S'MPI_SEND()'
p1596
S'301'
p1597
tp1598
a(S'MPI_SEND()'
p1599
S'302'
p1600
tp1601
a(S'MPI_WAIT()'
p1602
S'303'
p1603
tp1604
a(S'MPI_WAIT()'
p1605
S'304'
p1606
tp1607
a(S'MPI_WAIT()'
p1608
S'305'
p1609
tp1610
a(S'MPI_WAIT()'
p1611
S'306'
p1612
tp1613
asS'lotsofcoresbook1code/Pearls1_Chapter26/Pearl/ooc_solver/scalapack/BLACS/SRC/sgsum2d_.c'
p1614
(lp1615
(S'X_MPI_Datatype()'
p1616
S'65'
p1617
tp1618
a(S'X_MPI_Datatype()'
p1619
S'68'
p1620
tp1621
asS'lotsofcoresbook1code/Pearls1_Chapter17/Pearl/src/tools/ga-5-3/comex/src-portals4/comex.c'
p1622
(lp1623
(S'MPI_Initialized()'
p1624
S'119'
p1625
tp1626
a(S'MPI_Comm_dup()'
p1627
S'124'
p1628
tp1629
a(S'MPI_Comm_rank()'
p1630
S'129'
p1631
tp1632
a(S'MPI_Comm_size()'
p1633
S'133'
p1634
tp1635
a(S'MPI_Allgather()'
p1636
S'253'
p1637
tp1638
a(S'X_MPI_CHAR()'
p1639
S'255'
p1640
tp1641
a(S'MPI_Allgather()'
p1642
S'307'
p1643
tp1644
a(S'X_MPI_CHAR()'
p1645
S'309'
p1646
tp1647
a(S'MPI_Barrier()'
p1648
S'332'
p1649
tp1650
a(S'MPI_Initialized()'
p1651
S'342'
p1652
tp1653
a(S'MPI_Init()'
p1654
S'345'
p1655
tp1656
a(S'MPI_Abort()'
p1657
S'363'
p1658
tp1659
a(S'MPI_Barrier()'
p1660
S'579'
p1661
tp1662
a(S'MPI_Abort()'
p1663
S'594'
p1664
tp1665
a(S'MPI_Barrier()'
p1666
S'627'
p1667
tp1668
a(S'MPI_Comm_free()'
p1669
S'630'
p1670
tp1671
a(S'MPI_Allgather()'
p1672
S'1098'
p1673
tp1674
a(S'MPI_Barrier()'
p1675
S'1106'
p1676
tp1677
a(S'MPI_Barrier()'
p1678
S'1117'
p1679
tp1680
a(S'MPI_Barrier()'
p1681
S'1129'
p1682
tp1683
a(S'MPI_Barrier()'
p1684
S'1156'
p1685
tp1686
a(S'MPI_Comm_rank()'
p1687
S'1298'
p1688
tp1689
a(S'MPI_Comm_size()'
p1690
S'1300'
p1691
tp1692
a(S'MPI_Allgather()'
p1693
S'1307'
p1694
tp1695
a(S'MPI_Barrier()'
p1696
S'1311'
p1697
tp1698
a(S'MPI_Comm_rank()'
p1699
S'1333'
p1700
tp1701
a(S'MPI_Comm_size()'
p1702
S'1335'
p1703
tp1704
a(S'MPI_Allgather()'
p1705
S'1343'
p1706
tp1707
a(S'MPI_Barrier()'
p1708
S'1354'
p1709
tp1710
a(S'MPI_Abort()'
p1711
S'1379'
p1712
tp1713
a(S'MPI_Abort()'
p1714
S'1418'
p1715
tp1716
a(S'MPI_Abort()'
p1717
S'1512'
p1718
tp1719
a(S'MPI_Abort()'
p1720
S'1543'
p1721
tp1722
a(S'MPI_Abort()'
p1723
S'1593'
p1724
tp1725
asS'lotsofcoresbook1code/Pearls1_Chapter17/Pearl/src/tools/ga-5-3/armci/src/devices/dcmf/dcmf-0.3.0/armcix_impl.c'
p1726
(lp1727
(S'MPI_Initialized()'
p1728
S'318'
p1729
tp1730
a(S'MPI_Query_thread()'
p1731
S'322'
p1732
tp1733
asS'lotsofcoresbook1code/Pearls1_Chapter17/Pearl/src/tools/ga-5-3/global/testing/unit-tests/ga_copypatch2.c'
p1734
(lp1735
(S'MPI_Init()'
p1736
S'27'
p1737
tp1738
a(S'MPI_Comm_rank()'
p1739
S'29'
p1740
tp1741
a(S'MPI_Comm_size()'
p1742
S'30'
p1743
tp1744
a(S'MPI_Finalize()'
p1745
S'75'
p1746
tp1747
asS'lotsofcoresbook1code/Pearls1_Chapter13/Pearl/src/std/ll-mpi/mpi_updatefg.F90'
p1748
(lp1749
(S'MPI_IRECV()'
p1750
S'105'
p1751
tp1752
a(S'MPI_SEND()'
p1753
S'106'
p1754
tp1755
a(S'MPI_WAIT()'
p1756
S'107'
p1757
tp1758
a(S'MPI_IRECV()'
p1759
S'109'
p1760
tp1761
a(S'MPI_SEND()'
p1762
S'110'
p1763
tp1764
a(S'MPI_WAIT()'
p1765
S'111'
p1766
tp1767
a(S'MPI_IRECV()'
p1768
S'113'
p1769
tp1770
a(S'MPI_SEND()'
p1771
S'114'
p1772
tp1773
a(S'MPI_WAIT()'
p1774
S'115'
p1775
tp1776
a(S'MPI_IRECV()'
p1777
S'117'
p1778
tp1779
a(S'MPI_SEND()'
p1780
S'118'
p1781
tp1782
a(S'MPI_WAIT()'
p1783
S'119'
p1784
tp1785
a(S'MPI_IRECV()'
p1786
S'122'
p1787
tp1788
a(S'MPI_SEND()'
p1789
S'123'
p1790
tp1791
a(S'MPI_WAIT()'
p1792
S'124'
p1793
tp1794
a(S'MPI_IRECV()'
p1795
S'126'
p1796
tp1797
a(S'MPI_SEND()'
p1798
S'127'
p1799
tp1800
a(S'MPI_WAIT()'
p1801
S'128'
p1802
tp1803
a(S'MPI_IRECV()'
p1804
S'130'
p1805
tp1806
a(S'MPI_SEND()'
p1807
S'131'
p1808
tp1809
a(S'MPI_WAIT()'
p1810
S'132'
p1811
tp1812
a(S'MPI_IRECV()'
p1813
S'134'
p1814
tp1815
a(S'MPI_SEND()'
p1816
S'135'
p1817
tp1818
a(S'MPI_WAIT()'
p1819
S'136'
p1820
tp1821
a(S'MPI_IRECV()'
p1822
S'139'
p1823
tp1824
a(S'MPI_SEND()'
p1825
S'140'
p1826
tp1827
a(S'MPI_WAIT()'
p1828
S'141'
p1829
tp1830
a(S'MPI_IRECV()'
p1831
S'143'
p1832
tp1833
a(S'MPI_SEND()'
p1834
S'144'
p1835
tp1836
a(S'MPI_WAIT()'
p1837
S'145'
p1838
tp1839
a(S'MPI_IRECV()'
p1840
S'147'
p1841
tp1842
a(S'MPI_SEND()'
p1843
S'148'
p1844
tp1845
a(S'MPI_WAIT()'
p1846
S'149'
p1847
tp1848
a(S'MPI_IRECV()'
p1849
S'151'
p1850
tp1851
a(S'MPI_SEND()'
p1852
S'152'
p1853
tp1854
a(S'MPI_WAIT()'
p1855
S'153'
p1856
tp1857
a(S'MPI_IRECV()'
p1858
S'155'
p1859
tp1860
a(S'MPI_SEND()'
p1861
S'156'
p1862
tp1863
a(S'MPI_WAIT()'
p1864
S'157'
p1865
tp1866
a(S'MPI_IRECV()'
p1867
S'159'
p1868
tp1869
a(S'MPI_SEND()'
p1870
S'160'
p1871
tp1872
a(S'MPI_WAIT()'
p1873
S'161'
p1874
tp1875
a(S'MPI_IRECV()'
p1876
S'163'
p1877
tp1878
a(S'MPI_SEND()'
p1879
S'164'
p1880
tp1881
a(S'MPI_WAIT()'
p1882
S'165'
p1883
tp1884
a(S'MPI_IRECV()'
p1885
S'167'
p1886
tp1887
a(S'MPI_SEND()'
p1888
S'168'
p1889
tp1890
a(S'MPI_WAIT()'
p1891
S'169'
p1892
tp1893
asS'lotsofcoresbook1code/Pearls1_Chapter13/Pearl/src/std/ll-mpi/mpi_updaterho.F90'
p1894
(lp1895
(S'MPI_IRECV()'
p1896
S'118'
p1897
tp1898
a(S'MPI_SEND()'
p1899
S'119'
p1900
tp1901
a(S'MPI_WAIT()'
p1902
S'120'
p1903
tp1904
a(S'MPI_IRECV()'
p1905
S'122'
p1906
tp1907
a(S'MPI_SEND()'
p1908
S'123'
p1909
tp1910
a(S'MPI_WAIT()'
p1911
S'124'
p1912
tp1913
a(S'MPI_IRECV()'
p1914
S'127'
p1915
tp1916
a(S'MPI_SEND()'
p1917
S'128'
p1918
tp1919
a(S'MPI_WAIT()'
p1920
S'129'
p1921
tp1922
a(S'MPI_IRECV()'
p1923
S'131'
p1924
tp1925
a(S'MPI_SEND()'
p1926
S'132'
p1927
tp1928
a(S'MPI_WAIT()'
p1929
S'133'
p1930
tp1931
a(S'MPI_IRECV()'
p1932
S'136'
p1933
tp1934
a(S'MPI_SEND()'
p1935
S'137'
p1936
tp1937
a(S'MPI_WAIT()'
p1938
S'138'
p1939
tp1940
a(S'MPI_IRECV()'
p1941
S'140'
p1942
tp1943
a(S'MPI_SEND()'
p1944
S'141'
p1945
tp1946
a(S'MPI_WAIT()'
p1947
S'142'
p1948
tp1949
a(S'MPI_IRECV()'
p1950
S'144'
p1951
tp1952
a(S'MPI_SEND()'
p1953
S'145'
p1954
tp1955
a(S'MPI_WAIT()'
p1956
S'146'
p1957
tp1958
a(S'MPI_IRECV()'
p1959
S'148'
p1960
tp1961
a(S'MPI_SEND()'
p1962
S'149'
p1963
tp1964
a(S'MPI_WAIT()'
p1965
S'150'
p1966
tp1967
asS'lotsofcoresbook1code/Pearls1_Chapter17/Pearl/src/tools/ga-5-3/configure'
p1968
(lp1969
(S'MPI_Init()'
p1970
S'18908'
p1971
tp1972
a(S'MPI_Finalize()'
p1973
S'18909'
p1974
tp1975
a(S'MPI_Init()'
p1976
S'19091'
p1977
tp1978
a(S'MPI_Finalize()'
p1979
S'19092'
p1980
tp1981
asS'lotsofcoresbook1code/Pearls1_Chapter17/Pearl/src/tools/ga-5-3/global/testing/unit-tests/ga_create_irreg2.c'
p1982
(lp1983
(S'MPI_Init()'
p1984
S'180'
p1985
tp1986
a(S'MPI_Comm_rank()'
p1987
S'182'
p1988
tp1989
a(S'MPI_Comm_size()'
p1990
S'183'
p1991
tp1992
a(S'MPI_Finalize()'
p1993
S'199'
p1994
tp1995
asS'lotsofcoresbook1code/Pearls1_Chapter17/Pearl/src/tools/ga-5-3/global/testing/unit-tests/ga_add_constantpatch.c'
p1996
(lp1997
(S'MPI_Init()'
p1998
S'24'
p1999
tp2000
a(S'MPI_Comm_rank()'
p2001
S'26'
p2002
tp2003
a(S'MPI_Comm_size()'
p2004
S'27'
p2005
tp2006
a(S'MPI_Finalize()'
p2007
S'61'
p2008
tp2009
asS'lotsofcoresbook1code/Pearls1_Chapter17/Pearl/src/tools/ga-5-3/armci/testing/clone.c'
p2010
(lp2011
(S'MPI_Init()'
p2012
S'85'
p2013
tp2014
a(S'MPI_Barrier()'
p2015
S'86'
p2016
tp2017
a(S'MPI_Finalize()'
p2018
S'87'
p2019
tp2020
asS'lotsofcoresbook1code/Pearls1_Chapter17/Pearl/src/tools/ga-5-3/comex/src-portals4/groups.c'
p2021
(lp2022
(S'MPI_Group_rank()'
p2023
S'83'
p2024
tp2025
a(S'MPI_Group_size()'
p2026
S'97'
p2027
tp2028
a(S'MPI_Group_translate_ranks()'
p2029
S'125'
p2030
tp2031
a(S'MPI_Group_free()'
p2032
S'146'
p2033
tp2034
a(S'MPI_Comm_free()'
p2035
S'153'
p2036
tp2037
a(S'MPI_Group_incl()'
p2038
S'211'
p2039
tp2040
a(S'MPI_Group_rank()'
p2041
S'219'
p2042
tp2043
a(S'MPI_Comm_dup()'
p2044
S'226'
p2045
tp2046
a(S'MPI_Intercomm_create()'
p2047
S'235'
p2048
tp2049
a(S'MPI_Comm_free()'
p2050
S'237'
p2051
tp2052
a(S'MPI_Intercomm_merge()'
p2053
S'238'
p2054
tp2055
a(S'MPI_Comm_free()'
p2056
S'239'
p2057
tp2058
a(S'MPI_Group_free()'
p2059
S'247'
p2060
tp2061
a(S'MPI_Comm_group()'
p2062
S'249'
p2063
tp2064
a(S'MPI_Comm_group()'
p2065
S'269'
p2066
tp2067
a(S'MPI_Group_free()'
p2068
S'289'
p2069
tp2070
asS'lotsofcoresbook1code/Pearls1_Chapter17/Pearl/src/tools/ga-5-3/global/testing/unit-tests/ga_scale_cols.c'
p2071
(lp2072
(S'MPI_Init()'
p2073
S'26'
p2074
tp2075
a(S'MPI_Comm_rank()'
p2076
S'28'
p2077
tp2078
a(S'MPI_Comm_size()'
p2079
S'29'
p2080
tp2081
a(S'MPI_Finalize()'
p2082
S'78'
p2083
tp2084
asS'lotsofcoresbook1code/Pearls1_Chapter17/Pearl/src/tools/ga-5-3/armci/testing/ipctest.c'
p2085
(lp2086
(S'MPI_Bcast()'
p2087
S'37'
p2088
tp2089
a(S'MPI_Barrier()'
p2090
S'52'
p2091
tp2092
a(S'MPI_Bcast()'
p2093
S'60'
p2094
tp2095
a(S'MPI_Barrier()'
p2096
S'71'
p2097
tp2098
a(S'MPI_Barrier()'
p2099
S'79'
p2100
tp2101
a(S'MPI_Barrier()'
p2102
S'97'
p2103
tp2104
a(S'MPI_Comm_size()'
p2105
S'106'
p2106
tp2107
a(S'MPI_Comm_rank()'
p2108
S'107'
p2109
tp2110
asS'lotsofcoresbook1code/Pearls1_Chapter17/Pearl/src/tools/ga-5-3/global/testing/unit-tests/ga_create_irreg.c'
p2111
(lp2112
(S'MPI_Init()'
p2113
S'177'
p2114
tp2115
a(S'MPI_Comm_rank()'
p2116
S'179'
p2117
tp2118
a(S'MPI_Comm_size()'
p2119
S'180'
p2120
tp2121
a(S'MPI_Finalize()'
p2122
S'196'
p2123
tp2124
asS'lotsofcoresbook1code/Pearls1_Chapter17/Pearl/src/tools/ga-5-3/armci/src-portals/armci_portals.c'
p2125
(lp2126
(S'MPI_Comm_size()'
p2127
S'506'
p2128
tp2129
a(S'MPI_Comm_rank()'
p2130
S'507'
p2131
tp2132
a(S'MPI_Barrier()'
p2133
S'516'
p2134
tp2135
a(S'MPI_Barrier()'
p2136
S'523'
p2137
tp2138
a(S'MPI_Barrier()'
p2139
S'541'
p2140
tp2141
a(S'MPI_Barrier()'
p2142
S'543'
p2143
tp2144
asS'lotsofcoresbook1code/Pearls1_Chapter17/Pearl/src/tools/ga-5-3/gfutex/examples/scf/scf.c'
p2145
(lp2146
(S'MPI_Init()'
p2147
S'108'
p2148
tp2149
a(S'MPI_Finalize()'
p2150
S'351'
p2151
tp2152
asS'lotsofcoresbook1code/Pearls1_Chapter26/Pearl/ooc_solver/scalapack/BLACS/SRC/zgamx2d_.c'
p2153
(lp2154
(S'X_MPI_Datatype()'
p2155
S'89'
p2156
tp2157
a(S'X_MPI_Datatype()'
p2158
S'92'
p2159
tp2160
asS'lotsofcoresbook1code/Pearls1_Chapter26/Pearl/ooc_solver/scalapack/BLACS/SRC/cgebr2d_.c'
p2161
(lp2162
(S'X_MPI_Datatype()'
p2163
S'69'
p2164
tp2165
a(S'X_MPI_COMPLEX()'
p2166
S'121'
p2167
tp2168
a(S'MPI_Pack_size()'
p2169
S'156'
p2170
tp2171
asS'lotsofcoresbook1code/Pearls1_Chapter13/Pearl/src/std/zsc-mpi/finaldump.F90'
p2172
(lp2173
(S'MPI_ALLREDUCE()'
p2174
S'101'
p2175
tp2176
a(S'MPI_ALLREDUCE()'
p2177
S'102'
p2178
tp2179
a(S'MPI_ALLREDUCE()'
p2180
S'124'
p2181
tp2182
a(S'MPI_FINALIZE()'
p2183
S'171'
p2184
tp2185
asS'lotsofcoresbook1code/Pearls1_Chapter26/Pearl/ooc_solver/scalapack/BLACS/SRC/sgamx2d_.c'
p2186
(lp2187
(S'X_MPI_Datatype()'
p2188
S'89'
p2189
tp2190
a(S'X_MPI_Datatype()'
p2191
S'92'
p2192
tp2193
asS'lotsofcoresbook1code/Pearls1_Chapter17/Pearl/src/tools/ga-5-3/comex/testing/test.c'
p2194
(lp2195
(S'MPI_Allreduce()'
p2196
S'87'
p2197
tp2198
a(S'MPI_Allreduce()'
p2199
S'109'
p2200
tp2201
a(S'MPI_Finalize()'
p2202
S'1743'
p2203
tp2204
asS'lotsofcoresbook1code/Pearls1_Chapter26/Pearl/ooc_solver/scalapack/BLACS/SRC/cgsum2d_.c'
p2205
(lp2206
(S'X_MPI_Datatype()'
p2207
S'65'
p2208
tp2209
a(S'X_MPI_Datatype()'
p2210
S'68'
p2211
tp2212
asS'lotsofcoresbook1code/Pearls1_Chapter17/Pearl/src/tools/ga-5-3/global/testing/unit-tests/ga_pgroup_create4.c'
p2213
(lp2214
(S'MPI_Init()'
p2215
S'21'
p2216
tp2217
a(S'MPI_Comm_rank()'
p2218
S'23'
p2219
tp2220
a(S'MPI_Comm_size()'
p2221
S'24'
p2222
tp2223
a(S'MPI_Finalize()'
p2224
S'68'
p2225
tp2226
asS'lotsofcoresbook1code/Pearls1_Chapter13/Pearl/src/opt/lbs3d-mpi/finalsave.F90'
p2227
(lp2228
(S'MPI_REDUCE()'
p2229
S'168'
p2230
tp2231
a(S'MPI_REDUCE()'
p2232
S'170'
p2233
tp2234
a(S'MPI_FINALIZE()'
p2235
S'246'
p2236
tp2237
asS'lotsofcoresbook1code/Pearls1_Chapter26/Pearl/ooc_solver/scalapack/BLACS/SRC/blacs_barr_.c'
p2238
(lp2239
(S'MPI_Barrier()'
p2240
S'19'
p2241
tp2242
a(S'MPI_Barrier()'
p2243
S'22'
p2244
tp2245
a(S'MPI_Barrier()'
p2246
S'25'
p2247
tp2248
asS'lotsofcoresbook1code/Pearls1_Chapter17/Pearl/src/tools/ga-5-3/global/testing/unit-tests/ga_duplicate.c'
p2249
(lp2250
(S'MPI_Init()'
p2251
S'24'
p2252
tp2253
a(S'MPI_Comm_rank()'
p2254
S'26'
p2255
tp2256
a(S'MPI_Comm_size()'
p2257
S'27'
p2258
tp2259
a(S'MPI_Finalize()'
p2260
S'64'
p2261
tp2262
asS'lotsofcoresbook1code/Pearls1_Chapter17/Pearl/src/tools/ga-5-3/global/testing/unit-tests/ga_pgroup_nnodes_nodeid.c'
p2263
(lp2264
(S'MPI_Init()'
p2265
S'97'
p2266
tp2267
a(S'MPI_Comm_rank()'
p2268
S'99'
p2269
tp2270
a(S'MPI_Comm_size()'
p2271
S'100'
p2272
tp2273
a(S'MPI_Finalize()'
p2274
S'116'
p2275
tp2276
asS'lotsofcoresbook1code/Pearls1_Chapter17/Pearl/src/tools/ga-5-3/global/src/global.util.c'
p2277
(lp2278
(S'MPI_Wtime()'
p2279
S'1050'
p2280
tp2281
asS'lotsofcoresbook1code/Pearls1_Chapter17/Pearl/src/tools/ga-5-3/armci/src-gemini/portals_cp.c'
p2282
(lp2283
(S'MPI_Comm_rank()'
p2284
S'69'
p2285
tp2286
a(S'MPI_Comm_split()'
p2287
S'70'
p2288
tp2289
a(S'MPI_Comm_size()'
p2290
S'82'
p2291
tp2292
a(S'MPI_Comm_rank()'
p2293
S'83'
p2294
tp2295
a(S'MPI_Bcast()'
p2296
S'110'
p2297
tp2298
a(S'MPI_Barrier()'
p2299
S'157'
p2300
tp2301
a(S'MPI_Finalize()'
p2302
S'158'
p2303
tp2304
a(S'MPI_Comm_size()'
p2305
S'880'
p2306
tp2307
a(S'MPI_Comm_rank()'
p2308
S'881'
p2309
tp2310
a(S'MPI_Bcast()'
p2311
S'902'
p2312
tp2313
a(S'MPI_Bcast()'
p2314
S'903'
p2315
tp2316
a(S'MPI_Barrier()'
p2317
S'910'
p2318
tp2319
asS'lotsofcoresbook1code/Pearls1_Chapter03/Pearl/src/dmi_mpi.F90'
p2320
(lp2321
(S'mpi_init_thread()'
p2322
S'359'
p2323
tp2324
a(S'mpi_init()'
p2325
S'372'
p2326
tp2327
a(S'mpi_comm_size()'
p2328
S'382'
p2329
tp2330
a(S'mpi_abort()'
p2331
S'386'
p2332
tp2333
a(S'mpi_comm_rank()'
p2334
S'388'
p2335
tp2336
a(S'mpi_abort()'
p2337
S'392'
p2338
tp2339
a(S'mpi_comm_dup()'
p2340
S'452'
p2341
tp2342
a(S'mpi_barrier()'
p2343
S'453'
p2344
tp2345
a(S'MPI_FILE_OPEN()'
p2346
S'1399'
p2347
tp2348
a(S'X_MPI_MODE_CREATE()'
p2349
S'1400'
p2350
tp2351
a(S'MPI_FILE_WRITE()'
p2352
S'1401'
p2353
tp2354
a(S'X_MPI_STATUS_IGNORE()'
p2355
S'1402'
p2356
tp2357
a(S'MPI_FILE_WRITE()'
p2358
S'1403'
p2359
tp2360
a(S'MPI_FILE_CLOSE()'
p2361
S'1404'
p2362
tp2363
a(S'MPI_FILE_OPEN()'
p2364
S'1415'
p2365
tp2366
a(S'MPI_FILE_READ_ALL()'
p2367
S'1417'
p2368
tp2369
a(S'MPI_FILE_READ_ALL()'
p2370
S'1425'
p2371
tp2372
a(S'MPI_FILE_CLOSE()'
p2373
S'1426'
p2374
tp2375
a(S'MPI_Waitall()'
p2376
S'5401'
p2377
tp2378
a(S'MPI_Waitall()'
p2379
S'5466'
p2380
tp2381
a(S'MPI_Waitall()'
p2382
S'5647'
p2383
tp2384
a(S'MPI_Waitall()'
p2385
S'5695'
p2386
tp2387
a(S'MPI_Waitall()'
p2388
S'7648'
p2389
tp2390
a(S'MPI_Waitall()'
p2391
S'7704'
p2392
tp2393
a(S'MPI_Waitall()'
p2394
S'7880'
p2395
tp2396
a(S'MPI_Waitall()'
p2397
S'7942'
p2398
tp2399
a(S'MPI_Waitall()'
p2400
S'8094'
p2401
tp2402
a(S'MPI_Waitall()'
p2403
S'8141'
p2404
tp2405
a(S'MPI_Waitall()'
p2406
S'8278'
p2407
tp2408
a(S'MPI_Waitall()'
p2409
S'8317'
p2410
tp2411
a(S'MPI_Waitall()'
p2412
S'8703'
p2413
tp2414
a(S'MPI_Waitall()'
p2415
S'8832'
p2416
tp2417
a(S'MPI_Barrier()'
p2418
S'9216'
p2419
tp2420
a(S'MPI_Send()'
p2421
S'9255'
p2422
tp2423
a(S'MPI_ISEND()'
p2424
S'9274'
p2425
tp2426
a(S'MPI_Send()'
p2427
S'9292'
p2428
tp2429
a(S'MPI_ISEND()'
p2430
S'9311'
p2431
tp2432
a(S'MPI_Send()'
p2433
S'9322'
p2434
tp2435
a(S'MPI_IRecv()'
p2436
S'9343'
p2437
tp2438
a(S'MPI_Recv()'
p2439
S'9363'
p2440
tp2441
a(S'MPI_Recv()'
p2442
S'9373'
p2443
tp2444
a(S'MPI_Recv()'
p2445
S'9383'
p2446
tp2447
a(S'MPI_BCAST()'
p2448
S'9403'
p2449
tp2450
a(S'MPI_BCAST()'
p2451
S'9420'
p2452
tp2453
a(S'MPI_BCAST()'
p2454
S'9429'
p2455
tp2456
a(S'MPI_BCAST()'
p2457
S'9438'
p2458
tp2459
a(S'MPI_Allreduce()'
p2460
S'9681'
p2461
tp2462
a(S'MPI_Allreduce()'
p2463
S'9702'
p2464
tp2465
a(S'MPI_Allreduce()'
p2466
S'9723'
p2467
tp2468
a(S'MPI_Allreduce()'
p2469
S'9743'
p2470
tp2471
a(S'MPI_Waitall()'
p2472
S'10362'
p2473
tp2474
a(S'MPI_Waitall()'
p2475
S'10450'
p2476
tp2477
asS'lotsofcoresbook1code/Pearls1_Chapter17/Pearl/src/tools/ga-5-3/global/examples/scf/ft-scf.F'
p2478
(lp2479
(S'mpi_init()'
p2480
S'21'
p2481
tp2482
asS'lotsofcoresbook1code/Pearls1_Chapter17/Pearl/src/tools/ga-5-3/global/testing/unit-tests/ga_transpose3.c'
p2483
(lp2484
(S'MPI_Init()'
p2485
S'61'
p2486
tp2487
a(S'MPI_Comm_rank()'
p2488
S'63'
p2489
tp2490
a(S'MPI_Comm_size()'
p2491
S'64'
p2492
tp2493
a(S'MPI_Finalize()'
p2494
S'85'
p2495
tp2496
asS'lotsofcoresbook1code/Pearls1_Chapter17/Pearl/src/tools/ga-5-3/global/testing/unit-tests/ga_create2.c'
p2497
(lp2498
(S'MPI_Init()'
p2499
S'38'
p2500
tp2501
a(S'MPI_Comm_rank()'
p2502
S'40'
p2503
tp2504
a(S'MPI_Comm_size()'
p2505
S'41'
p2506
tp2507
a(S'MPI_Finalize()'
p2508
S'52'
p2509
tp2510
asS'lotsofcoresbook1code/Pearls1_Chapter13/Pearl/src/std/ll-mpi/finaldump.F90'
p2511
(lp2512
(S'MPI_ALLREDUCE()'
p2513
S'102'
p2514
tp2515
a(S'MPI_ALLREDUCE()'
p2516
S'103'
p2517
tp2518
a(S'MPI_ALLREDUCE()'
p2519
S'127'
p2520
tp2521
a(S'MPI_FINALIZE()'
p2522
S'170'
p2523
tp2524
asS'lotsofcoresbook1code/Pearls1_Chapter17/Pearl/src/tools/ga-5-3/global/testing/unit-tests/ga_create.c'
p2525
(lp2526
(S'MPI_Init()'
p2527
S'101'
p2528
tp2529
a(S'MPI_Comm_rank()'
p2530
S'103'
p2531
tp2532
a(S'MPI_Comm_size()'
p2533
S'104'
p2534
tp2535
a(S'MPI_Finalize()'
p2536
S'124'
p2537
tp2538
asS'lotsofcoresbook1code/Pearls1_Chapter17/Pearl/src/tools/ga-5-3/global/testing/unit-tests/ga_put.c'
p2539
(lp2540
(S'MPI_Init()'
p2541
S'24'
p2542
tp2543
a(S'MPI_Comm_rank()'
p2544
S'26'
p2545
tp2546
a(S'MPI_Comm_size()'
p2547
S'27'
p2548
tp2549
a(S'MPI_Finalize()'
p2550
S'99'
p2551
tp2552
asS'lotsofcoresbook1code/Pearls1_Chapter13/Pearl/src/std/zsc-dgr-mpi/finaldump.F90'
p2553
(lp2554
(S'MPI_ALLREDUCE()'
p2555
S'104'
p2556
tp2557
a(S'MPI_ALLREDUCE()'
p2558
S'105'
p2559
tp2560
a(S'MPI_ALLREDUCE()'
p2561
S'131'
p2562
tp2563
a(S'MPI_FINALIZE()'
p2564
S'178'
p2565
tp2566
asS'lotsofcoresbook1code/Pearls1_Chapter17/Pearl/src/tools/ga-5-3/global/testing/unit-tests/ga_gather3.c'
p2567
(lp2568
(S'MPI_Init()'
p2569
S'26'
p2570
tp2571
a(S'MPI_Comm_rank()'
p2572
S'30'
p2573
tp2574
a(S'MPI_Comm_size()'
p2575
S'31'
p2576
tp2577
a(S'MPI_Finalize()'
p2578
S'70'
p2579
tp2580
asS'lotsofcoresbook1code/Pearls1_Chapter17/Pearl/src/tools/ga-5-3/tools/wapigen_timers.py'
p2581
(lp2582
(S'MPI_Wtime()'
p2583
S'154'
p2584
tp2585
a(S'MPI_Wtime()'
p2586
S'156'
p2587
tp2588
a(S'MPI_Wtime()'
p2589
S'168'
p2590
tp2591
a(S'MPI_Wtime()'
p2592
S'170'
p2593
tp2594
a(S'MPI_Comm_rank()'
p2595
S'184'
p2596
tp2597
a(S'MPI_Comm_size()'
p2598
S'185'
p2599
tp2600
a(S'MPI_Comm_rank()'
p2601
S'198'
p2602
tp2603
a(S'MPI_Comm_size()'
p2604
S'199'
p2605
tp2606
a(S'MPI_Reduce()'
p2607
S'215'
p2608
tp2609
asS'lotsofcoresbook1code/Pearls1_Chapter13/Pearl/src/std/zsc-3d-mpi/vgrid.F90'
p2610
(lp2611
(S'MPI_CART_CREATE()'
p2612
S'65'
p2613
tp2614
a(S'MPI_COMM_RANK()'
p2615
S'68'
p2616
tp2617
a(S'MPI_CART_COORDS()'
p2618
S'69'
p2619
tp2620
a(S'MPI_CART_SHIFT()'
p2621
S'122'
p2622
tp2623
a(S'MPI_CART_SHIFT()'
p2624
S'124'
p2625
tp2626
a(S'MPI_CART_SHIFT()'
p2627
S'126'
p2628
tp2629
a(S'MPI_CART_COORDS()'
p2630
S'129'
p2631
tp2632
a(S'MPI_CART_COORDS()'
p2633
S'131'
p2634
tp2635
a(S'MPI_CART_COORDS()'
p2636
S'133'
p2637
tp2638
a(S'MPI_CART_COORDS()'
p2639
S'135'
p2640
tp2641
a(S'MPI_CART_COORDS()'
p2642
S'137'
p2643
tp2644
a(S'MPI_CART_COORDS()'
p2645
S'139'
p2646
tp2647
a(S'MPI_CART_RANK()'
p2648
S'147'
p2649
tp2650
a(S'MPI_CART_RANK()'
p2651
S'151'
p2652
tp2653
a(S'MPI_CART_RANK()'
p2654
S'155'
p2655
tp2656
a(S'MPI_CART_RANK()'
p2657
S'159'
p2658
tp2659
a(S'MPI_CART_RANK()'
p2660
S'165'
p2661
tp2662
a(S'MPI_CART_RANK()'
p2663
S'169'
p2664
tp2665
a(S'MPI_CART_RANK()'
p2666
S'173'
p2667
tp2668
a(S'MPI_CART_RANK()'
p2669
S'177'
p2670
tp2671
a(S'MPI_CART_RANK()'
p2672
S'183'
p2673
tp2674
a(S'MPI_CART_RANK()'
p2675
S'187'
p2676
tp2677
a(S'MPI_CART_RANK()'
p2678
S'191'
p2679
tp2680
a(S'MPI_CART_RANK()'
p2681
S'195'
p2682
tp2683
asS'lotsofcoresbook1code/Pearls1_Chapter17/Pearl/src/tools/ga-5-3/global/testing/unit-tests/ga_get.c'
p2684
(lp2685
(S'MPI_Init()'
p2686
S'23'
p2687
tp2688
a(S'MPI_Comm_rank()'
p2689
S'24'
p2690
tp2691
a(S'MPI_Comm_size()'
p2692
S'25'
p2693
tp2694
a(S'MPI_Finalize()'
p2695
S'65'
p2696
tp2697
asS'lotsofcoresbook1code/Pearls1_Chapter17/Pearl/src/tools/ga-5-3/tascel/src/TerminationDetector.cc'
p2698
(lp2699
(S'MPI_Irecv()'
p2700
S'18'
p2701
tp2702
a(S'MPI_Irecv()'
p2703
S'21'
p2704
tp2705
a(S'MPI_Irecv()'
p2706
S'30'
p2707
tp2708
a(S'MPI_Cancel()'
p2709
S'46'
p2710
tp2711
a(S'MPI_Cancel()'
p2712
S'49'
p2713
tp2714
a(S'MPI_Cancel()'
p2715
S'52'
p2716
tp2717
a(S'MPI_Send()'
p2718
S'75'
p2719
tp2720
a(S'MPI_Send()'
p2721
S'83'
p2722
tp2723
a(S'MPI_Send()'
p2724
S'86'
p2725
tp2726
a(S'MPI_Test()'
p2727
S'101'
p2728
tp2729
a(S'MPI_Test()'
p2730
S'104'
p2731
tp2732
a(S'MPI_Test()'
p2733
S'116'
p2734
tp2735
asS'lotsofcoresbook1code/Pearls1_Chapter26/Pearl/ooc_solver/scalapack/BLACS/SRC/dtrbs2d_.c'
p2736
(lp2737
(S'X_MPI_Datatype()'
p2738
S'73'
p2739
tp2740
a(S'X_MPI_DOUBLE()'
p2741
S'127'
p2742
tp2743
asS'lotsofcoresbook1code/Pearls1_Chapter17/Pearl/src/tools/ga-5-3/gparrays/testing/transpose.c'
p2744
(lp2745
(S'MPI_Init()'
p2746
S'997'
p2747
tp2748
a(S'MPI_Finalize()'
p2749
S'1723'
p2750
tp2751
asS'lotsofcoresbook1code/Pearls1_Chapter17/Pearl/src/tools/ga-5-3/global/testing/unit-tests/ga_get_blockinfo.c'
p2752
(lp2753
(S'MPI_Init()'
p2754
S'25'
p2755
tp2756
a(S'MPI_Comm_rank()'
p2757
S'27'
p2758
tp2759
a(S'MPI_Comm_size()'
p2760
S'28'
p2761
tp2762
a(S'MPI_Finalize()'
p2763
S'51'
p2764
tp2765
asS'lotsofcoresbook1code/Pearls1_Chapter17/Pearl/src/tools/ga-5-3/global/testing/unit-tests/ga_ndim2.c'
p2766
(lp2767
(S'MPI_Init()'
p2768
S'34'
p2769
tp2770
a(S'MPI_Comm_rank()'
p2771
S'36'
p2772
tp2773
a(S'MPI_Comm_size()'
p2774
S'37'
p2775
tp2776
a(S'MPI_Finalize()'
p2777
S'53'
p2778
tp2779
asS'lotsofcoresbook1code/Pearls1_Chapter17/Pearl/src/tools/ga-5-3/gfutex/src/gfutex_instr_comm.C'
p2780
(lp2781
(S'MPI_Comm_dup()'
p2782
S'107'
p2783
tp2784
a(S'MPI_Barrier()'
p2785
S'186'
p2786
tp2787
a(S'MPI_Barrier()'
p2788
S'189'
p2789
tp2790
a(S'MPI_Barrier()'
p2791
S'239'
p2792
tp2793
a(S'MPI_Barrier()'
p2794
S'261'
p2795
tp2796
a(S'MPI_Barrier()'
p2797
S'301'
p2798
tp2799
a(S'MPI_Barrier()'
p2800
S'314'
p2801
tp2802
a(S'MPI_Comm_free()'
p2803
S'316'
p2804
tp2805
a(S'MPI_Barrier()'
p2806
S'331'
p2807
tp2808
a(S'MPI_Allreduce()'
p2809
S'585'
p2810
tp2811
a(S'MPI_Barrier()'
p2812
S'599'
p2813
tp2814
a(S'MPI_Barrier()'
p2815
S'642'
p2816
tp2817
asS'lotsofcoresbook1code/Pearls1_Chapter17/Pearl/src/tools/ga-5-3/comex/src-template/comex.c'
p2818
(lp2819
(S'MPI_Initialized()'
p2820
S'61'
p2821
tp2822
a(S'MPI_Comm_dup()'
p2823
S'66'
p2824
tp2825
a(S'MPI_Comm_rank()'
p2826
S'71'
p2827
tp2828
a(S'MPI_Comm_size()'
p2829
S'75'
p2830
tp2831
a(S'MPI_Barrier()'
p2832
S'82'
p2833
tp2834
a(S'MPI_Initialized()'
p2835
S'92'
p2836
tp2837
a(S'MPI_Init()'
p2838
S'95'
p2839
tp2840
a(S'MPI_Abort()'
p2841
S'113'
p2842
tp2843
a(S'MPI_Barrier()'
p2844
S'452'
p2845
tp2846
a(S'MPI_Barrier()'
p2847
S'489'
p2848
tp2849
a(S'MPI_Comm_free()'
p2850
S'492'
p2851
tp2852
a(S'MPI_Comm_rank()'
p2853
S'722'
p2854
tp2855
a(S'MPI_Comm_size()'
p2856
S'723'
p2857
tp2858
a(S'MPI_Allgather()'
p2859
S'731'
p2860
tp2861
a(S'MPI_Barrier()'
p2862
S'734'
p2863
tp2864
a(S'MPI_Comm_rank()'
p2865
S'754'
p2866
tp2867
a(S'MPI_Comm_size()'
p2868
S'755'
p2869
tp2870
a(S'MPI_Allgather()'
p2871
S'762'
p2872
tp2873
a(S'MPI_Barrier()'
p2874
S'772'
p2875
tp2876
asS'lotsofcoresbook1code/Pearls1_Chapter17/Pearl/src/tools/ga-5-3/comex/testing/perf.c'
p2877
(lp2878
(S'MPI_Finalize()'
p2879
S'64'
p2880
tp2881
asS'lotsofcoresbook1code/Pearls1_Chapter26/Pearl/ooc_solver/scalapack/REDIST/TESTING/pdtrmrdrv.c'
p2882
(lp2883
(S'MPI_Init()'
p2884
S'274'
p2885
tp2886
asS'lotsofcoresbook1code/Pearls1_Chapter17/Pearl/src/tools/ga-5-3/global/testing/ga_shift.F'
p2887
(lp2888
(S'mpi_init()'
p2889
S'34'
p2890
tp2891
a(S'mpi_finalize()'
p2892
S'232'
p2893
tp2894
asS'lotsofcoresbook1code/Pearls1_Chapter17/Pearl/src/tools/ga-5-3/armci/src-gemini/portals_ds.c'
p2895
(lp2896
(S'MPI_Comm_size()'
p2897
S'55'
p2898
tp2899
a(S'MPI_Comm_rank()'
p2900
S'56'
p2901
tp2902
asS'lotsofcoresbook1code/Pearls1_Chapter17/Pearl/src/tools/ga-5-3/comex/src-ofa/groups.c'
p2903
(lp2904
(S'MPI_Group_rank()'
p2905
S'85'
p2906
tp2907
a(S'MPI_Group_size()'
p2908
S'102'
p2909
tp2910
a(S'MPI_Comm_group()'
p2911
S'129'
p2912
tp2913
a(S'MPI_Group_translate_ranks()'
p2914
S'133'
p2915
tp2916
a(S'MPI_Group_free()'
p2917
S'182'
p2918
tp2919
a(S'MPI_Comm_free()'
p2920
S'188'
p2921
tp2922
a(S'MPI_Group_incl()'
p2923
S'257'
p2924
tp2925
a(S'MPI_Group_rank()'
p2926
S'265'
p2927
tp2928
a(S'MPI_Comm_dup()'
p2929
S'273'
p2930
tp2931
a(S'MPI_Intercomm_create()'
p2932
S'282'
p2933
tp2934
a(S'MPI_Comm_free()'
p2935
S'284'
p2936
tp2937
a(S'MPI_Intercomm_merge()'
p2938
S'285'
p2939
tp2940
a(S'MPI_Comm_free()'
p2941
S'286'
p2942
tp2943
a(S'MPI_Group_free()'
p2944
S'294'
p2945
tp2946
a(S'MPI_Comm_group()'
p2947
S'296'
p2948
tp2949
a(S'MPI_Comm_group()'
p2950
S'320'
p2951
tp2952
asS'lotsofcoresbook1code/Pearls1_Chapter17/Pearl/src/tools/ga-5-3/global/testing/mp3.fh'
p2953
(lp2954
(S'mpi_init_thread()'
p2955
S'18'
p2956
tp2957
a(S'mpi_init()'
p2958
S'20'
p2959
tp2960
asS'lotsofcoresbook1code/Pearls1_Chapter13/Pearl/src/std/zsc-dgr-mpi/poststream_f.F90'
p2961
(lp2962
(S'MPI_IRECV()'
p2963
S'68'
p2964
tp2965
a(S'MPI_SEND()'
p2966
S'69'
p2967
tp2968
a(S'MPI_WAIT()'
p2969
S'70'
p2970
tp2971
a(S'MPI_IRECV()'
p2972
S'72'
p2973
tp2974
a(S'MPI_SEND()'
p2975
S'73'
p2976
tp2977
a(S'MPI_WAIT()'
p2978
S'74'
p2979
tp2980
a(S'MPI_IRECV()'
p2981
S'77'
p2982
tp2983
a(S'MPI_SEND()'
p2984
S'78'
p2985
tp2986
a(S'MPI_WAIT()'
p2987
S'79'
p2988
tp2989
a(S'MPI_IRECV()'
p2990
S'81'
p2991
tp2992
a(S'MPI_SEND()'
p2993
S'82'
p2994
tp2995
a(S'MPI_WAIT()'
p2996
S'83'
p2997
tp2998
a(S'MPI_IRECV()'
p2999
S'119'
p3000
tp3001
a(S'MPI_SEND()'
p3002
S'120'
p3003
tp3004
a(S'MPI_WAIT()'
p3005
S'121'
p3006
tp3007
a(S'MPI_IRECV()'
p3008
S'123'
p3009
tp3010
a(S'MPI_SEND()'
p3011
S'124'
p3012
tp3013
a(S'MPI_WAIT()'
p3014
S'125'
p3015
tp3016
a(S'MPI_IRECV()'
p3017
S'135'
p3018
tp3019
a(S'MPI_SEND()'
p3020
S'136'
p3021
tp3022
a(S'MPI_WAIT()'
p3023
S'137'
p3024
tp3025
a(S'MPI_IRECV()'
p3026
S'139'
p3027
tp3028
a(S'MPI_SEND()'
p3029
S'140'
p3030
tp3031
a(S'MPI_WAIT()'
p3032
S'141'
p3033
tp3034
a(S'MPI_IRECV()'
p3035
S'149'
p3036
tp3037
a(S'MPI_SEND()'
p3038
S'150'
p3039
tp3040
a(S'MPI_WAIT()'
p3041
S'151'
p3042
tp3043
a(S'MPI_IRECV()'
p3044
S'153'
p3045
tp3046
a(S'MPI_SEND()'
p3047
S'154'
p3048
tp3049
a(S'MPI_WAIT()'
p3050
S'155'
p3051
tp3052
a(S'MPI_IRECV()'
p3053
S'157'
p3054
tp3055
a(S'MPI_SEND()'
p3056
S'158'
p3057
tp3058
a(S'MPI_WAIT()'
p3059
S'159'
p3060
tp3061
a(S'MPI_IRECV()'
p3062
S'161'
p3063
tp3064
a(S'MPI_SEND()'
p3065
S'162'
p3066
tp3067
a(S'MPI_WAIT()'
p3068
S'163'
p3069
tp3070
asS'lotsofcoresbook1code/Pearls1_Chapter26/Pearl/ooc_solver/scalapack/BLACS/SRC/cgamx2d_.c'
p3071
(lp3072
(S'X_MPI_Datatype()'
p3073
S'89'
p3074
tp3075
a(S'X_MPI_Datatype()'
p3076
S'92'
p3077
tp3078
asS'lotsofcoresbook1code/Pearls1_Chapter17/Pearl/src/tools/ga-5-3/global/testing/unit-tests/ga_fillpatch.c'
p3079
(lp3080
(S'MPI_Init()'
p3081
S'69'
p3082
tp3083
a(S'MPI_Comm_rank()'
p3084
S'71'
p3085
tp3086
a(S'MPI_Comm_size()'
p3087
S'72'
p3088
tp3089
a(S'MPI_Finalize()'
p3090
S'85'
p3091
tp3092
asS'lotsofcoresbook1code/Pearls1_Chapter17/Pearl/src/tools/ga-5-3/tascel/examples/scf/scf.F'
p3093
(lp3094
(S'mpi_init()'
p3095
S'41'
p3096
tp3097
asS'lotsofcoresbook1code/Pearls1_Chapter17/Pearl/src/tools/ga-5-3/armci/src/devices/mpi-mt/mpi2_client.c'
p3098
(lp3099
(S'MPI_Check()'
p3100
S'84'
p3101
tp3102
a(S'MPI_Check()'
p3103
S'142'
p3104
tp3105
a(S'MPI_Send()'
p3106
S'143'
p3107
tp3108
a(S'MPI_Check()'
p3109
S'149'
p3110
tp3111
a(S'MPI_Recv()'
p3112
S'150'
p3113
tp3114
a(S'MPI_Check()'
p3115
S'178'
p3116
tp3117
a(S'MPI_Send()'
p3118
S'179'
p3119
tp3120
a(S'MPI_Check()'
p3121
S'236'
p3122
tp3123
a(S'MPI_Recv()'
p3124
S'237'
p3125
tp3126
a(S'MPI_Get_count()'
p3127
S'247'
p3128
tp3129
a(S'MPI_Check()'
p3130
S'305'
p3131
tp3132
a(S'MPI_Check()'
p3133
S'309'
p3134
tp3135
a(S'MPI_Check()'
p3136
S'310'
p3137
tp3138
a(S'MPI_Check()'
p3139
S'315'
p3140
tp3141
asS'lotsofcoresbook1code/Pearls1_Chapter17/Pearl/src/tools/ga-5-3/armci/testing/fork.c'
p3142
(lp3143
(S'MPI_Init()'
p3144
S'79'
p3145
tp3146
a(S'MPI_Finalize()'
p3147
S'80'
p3148
tp3149
asS'lotsofcoresbook1code/Pearls1_Chapter17/Pearl/src/tools/ga-5-3/global/testing/unit-tests/ga_pgroup_setdefault.c'
p3150
(lp3151
(S'MPI_Init()'
p3152
S'20'
p3153
tp3154
a(S'MPI_Comm_rank()'
p3155
S'22'
p3156
tp3157
a(S'MPI_Comm_size()'
p3158
S'23'
p3159
tp3160
a(S'MPI_Finalize()'
p3161
S'68'
p3162
tp3163
asS'lotsofcoresbook1code/Pearls1_Chapter17/Pearl/src/tools/ga-5-3/comex/testing/perf_contig.c'
p3164
(lp3165
(S'MPI_Finalize()'
p3166
S'70'
p3167
tp3168
asS'lotsofcoresbook1code/Pearls1_Chapter26/Pearl/SRC-1mat-MIC-final/pdlltdriver4.cpp'
p3169
(lp3170
(S'MPI_Wtime()'
p3171
S'89'
p3172
tp3173
a(S'MPI_Wtime()'
p3174
S'131'
p3175
tp3176
a(S'MPI_Wtime()'
p3177
S'179'
p3178
tp3179
a(S'MPI_Wtime()'
p3180
S'183'
p3181
tp3182
asS'lotsofcoresbook1code/Pearls1_Chapter26/Pearl/SRC-1mat-MIC-final/pdlltdriver3.cpp'
p3183
(lp3184
(S'MPI_Wtime()'
p3185
S'110'
p3186
tp3187
a(S'MPI_Wtime()'
p3188
S'152'
p3189
tp3190
a(S'MPI_Wtime()'
p3191
S'200'
p3192
tp3193
a(S'MPI_Wtime()'
p3194
S'204'
p3195
tp3196
asS'lotsofcoresbook1code/Pearls1_Chapter17/Pearl/src/util/util_mpinap.c'
p3197
(lp3198
(S'MPI_Comm_rank()'
p3199
S'18'
p3200
tp3201
asS'lotsofcoresbook1code/Pearls1_Chapter26/Pearl/ooc_solver/scalapack/BLACS/SRC/blacs_exit_.c'
p3202
(lp3203
(S'MPI_Finalize()'
p3204
S'42'
p3205
tp3206
asS'lotsofcoresbook1code/Pearls1_Chapter04/Pearl/src/parallel.f90'
p3207
(lp3208
(S'MPI_Initialized()'
p3209
S'68'
p3210
tp3211
a(S'MPI_Comm_Dup()'
p3212
S'71'
p3213
tp3214
a(S'MPI_Comm_Dup()'
p3215
S'73'
p3216
tp3217
a(S'MPI_Comm_Size()'
p3218
S'75'
p3219
tp3220
a(S'MPI_Comm_Rank()'
p3221
S'76'
p3222
tp3223
a(S'MPI_Finalize()'
p3224
S'88'
p3225
tp3226
a(S'MPI_Abort()'
p3227
S'104'
p3228
tp3229
a(S'MPI_Reduce()'
p3230
S'140'
p3231
tp3232
a(S'MPI_AllReduce()'
p3233
S'142'
p3234
tp3235
a(S'MPI_Reduce()'
p3236
S'156'
p3237
tp3238
a(S'MPI_AllReduce()'
p3239
S'158'
p3240
tp3241
a(S'MPI_Recv()'
p3242
S'173'
p3243
tp3244
a(S'MPI_IRecv()'
p3245
S'188'
p3246
tp3247
a(S'MPI_WaitAll()'
p3248
S'199'
p3249
tp3250
a(S'MPI_Send()'
p3251
S'214'
p3252
tp3253
a(S'MPI_Send()'
p3254
S'230'
p3255
tp3256
a(S'MPI_Recv()'
p3257
S'251'
p3258
tp3259
a(S'MPI_Bcast()'
p3260
S'266'
p3261
tp3262
a(S'MPI_Barrier()'
p3263
S'277'
p3264
tp3265
a(S'MPI_Gather()'
p3266
S'296'
p3267
tp3268
a(S'MPI_Allgather()'
p3269
S'312'
p3270
tp3271
asS'lotsofcoresbook1code/Pearls1_Chapter17/Pearl/src/tools/ga-5-3/global/testing/unit-tests/ga_scale_patch.c'
p3272
(lp3273
(S'MPI_Init()'
p3274
S'22'
p3275
tp3276
a(S'MPI_Comm_rank()'
p3277
S'24'
p3278
tp3279
a(S'MPI_Comm_size()'
p3280
S'25'
p3281
tp3282
a(S'MPI_Finalize()'
p3283
S'59'
p3284
tp3285
asS'lotsofcoresbook1code/Pearls1_Chapter17/Pearl/src/tools/ga-5-3/tcgmsg/tcgmsg-mpi/p2p.c'
p3286
(lp3287
(S'MPI_Send()'
p3288
S'36'
p3289
tp3290
a(S'MPI_Isend()'
p3291
S'43'
p3292
tp3293
a(S'MPI_Irecv()'
p3294
S'79'
p3295
tp3296
a(S'MPI_Recv()'
p3297
S'92'
p3298
tp3299
a(S'MPI_Get_count()'
p3300
S'95'
p3301
tp3302
a(S'MPI_Wait()'
p3303
S'114'
p3304
tp3305
a(S'MPI_Iprobe()'
p3306
S'127'
p3307
tp3308
asS'lotsofcoresbook1code/Pearls1_Chapter26/Pearl/ooc_solver/scalapack/BLACS/INSTALL/syserrors.c'
p3309
(lp3310
(S'MPI_Init()'
p3311
S'9'
p3312
tp3313
a(S'MPI_Type_indexed()'
p3314
S'14'
p3315
tp3316
a(S'MPI_Type_commit()'
p3317
S'17'
p3318
tp3319
a(S'MPI_Type_vector()'
p3320
S'18'
p3321
tp3322
a(S'MPI_Finalize()'
p3323
S'26'
p3324
tp3325
asS'lotsofcoresbook1code/Pearls1_Chapter17/Pearl/src/util/util_mygabcast.c'
p3326
(lp3327
(S'MPI_Error_string()'
p3328
S'55'
p3329
tp3330
a(S'MPI_Barrier()'
p3331
S'62'
p3332
tp3333
asS'lotsofcoresbook1code/Pearls1_Chapter17/Pearl/src/tools/ga-5-3/global/testing/unit-tests/ga_zeropatch2.c'
p3334
(lp3335
(S'MPI_Init()'
p3336
S'26'
p3337
tp3338
a(S'MPI_Comm_rank()'
p3339
S'28'
p3340
tp3341
a(S'MPI_Comm_size()'
p3342
S'29'
p3343
tp3344
a(S'MPI_Finalize()'
p3345
S'83'
p3346
tp3347
asS'lotsofcoresbook1code/Pearls1_Chapter26/Pearl/ooc_solver/scalapack/BLACS/INSTALL/tc_cCsameF77.c'
p3348
(lp3349
(S'MPI_Comm_rank()'
p3350
S'11'
p3351
tp3352
a(S'MPI_Allreduce()'
p3353
S'20'
p3354
tp3355
asS'lotsofcoresbook1code/Pearls1_Chapter17/Pearl/src/tools/ga-5-3/armci/src/common/groups.c'
p3356
(lp3357
(S'MPI_Comm_compare()'
p3358
S'87'
p3359
tp3360
a(S'MPI_Group_size()'
p3361
S'111'
p3362
tp3363
a(S'MPI_Comm_group()'
p3364
S'124'
p3365
tp3366
a(S'MPI_Group_translate_ranks()'
p3367
S'125'
p3368
tp3369
a(S'MPI_Comm_group()'
p3370
S'164'
p3371
tp3372
a(S'MPI_Group_translate_ranks()'
p3373
S'165'
p3374
tp3375
a(S'MPI_Comm_free()'
p3376
S'363'
p3377
tp3378
a(S'MPI_Group_rank()'
p3379
S'466'
p3380
tp3381
a(S'MPI_Comm_dup()'
p3382
S'472'
p3383
tp3384
a(S'MPI_Intercomm_create()'
p3385
S'481'
p3386
tp3387
a(S'MPI_Comm_free()'
p3388
S'482'
p3389
tp3390
a(S'MPI_Intercomm_merge()'
p3391
S'483'
p3392
tp3393
a(S'MPI_Comm_free()'
p3394
S'484'
p3395
tp3396
a(S'MPI_Group_free()'
p3397
S'491'
p3398
tp3399
a(S'MPI_Comm_group()'
p3400
S'492'
p3401
tp3402
a(S'MPI_Comm_group()'
p3403
S'539'
p3404
tp3405
a(S'MPI_Group_rank()'
p3406
S'542'
p3407
tp3408
asS'lotsofcoresbook1code/Pearls1_Chapter17/Pearl/src/tools/ga-5-3/armci/src/collectives/message.c'
p3409
(lp3410
(S'MPI_Barrier()'
p3411
S'467'
p3412
tp3413
a(S'MPI_Initialized()'
p3414
S'498'
p3415
tp3416
a(S'MPI_Init_thread()'
p3417
S'502'
p3418
tp3419
a(S'MPI_Init()'
p3420
S'504'
p3421
tp3422
a(S'MPI_Comm_dup()'
p3423
S'508'
p3424
tp3425
a(S'MPI_Comm_rank()'
p3426
S'524'
p3427
tp3428
a(S'MPI_Comm_size()'
p3429
S'548'
p3430
tp3431
a(S'MPI_Abort()'
p3432
S'589'
p3433
tp3434
a(S'MPI_Finalize()'
p3435
S'608'
p3436
tp3437
a(S'MPI_Bcast()'
p3438
S'856'
p3439
tp3440
a(S'MPI_Send()'
p3441
S'871'
p3442
tp3443
a(S'MPI_Recv()'
p3444
S'895'
p3445
tp3446
a(S'MPI_Recv()'
p3447
S'918'
p3448
tp3449
a(S'MPI_Barrier()'
p3450
S'1951'
p3451
tp3452
a(S'MPI_Comm_group()'
p3453
S'1983'
p3454
tp3455
a(S'MPI_Group_incl()'
p3456
S'1984'
p3457
tp3458
a(S'MPI_Comm_create()'
p3459
S'1986'
p3460
tp3461
a(S'MPI_Comm_free()'
p3462
S'1993'
p3463
tp3464
a(S'MPI_Group_free()'
p3465
S'1994'
p3466
tp3467
asS'lotsofcoresbook1code/Pearls1_Chapter26/Pearl/ooc_solver/scalapack/BLACS/SRC/itrbs2d_.c'
p3468
(lp3469
(S'X_MPI_Datatype()'
p3470
S'73'
p3471
tp3472
a(S'X_MPI_INT()'
p3473
S'127'
p3474
tp3475
asS'lotsofcoresbook1code/Pearls1_Chapter13/Pearl/src/std/ll-dgr-mpi/stats.F90'
p3476
(lp3477
(S'MPI_ALLREDUCE()'
p3478
S'97'
p3479
tp3480
a(S'MPI_FINALIZE()'
p3481
S'139'
p3482
tp3483
asS'lotsofcoresbook1code/Pearls1_Chapter03/Pearl/src/dmi_mpi_global.F90'
p3484
(lp3485
(S'mpi_finalize()'
p3486
S'71'
p3487
tp3488
a(S'mpi_abort()'
p3489
S'94'
p3490
tp3491
asS'lotsofcoresbook1code/Pearls1_Chapter17/Pearl/src/tools/ga-5-3/global/testing/unit-tests/ga_create_irreg3.c'
p3492
(lp3493
(S'MPI_Init()'
p3494
S'36'
p3495
tp3496
a(S'MPI_Comm_rank()'
p3497
S'38'
p3498
tp3499
a(S'MPI_Comm_size()'
p3500
S'39'
p3501
tp3502
a(S'MPI_Finalize()'
p3503
S'53'
p3504
tp3505
asS'lotsofcoresbook1code/Pearls1_Chapter26/Pearl/ooc_solver/scalapack/BLACS/SRC/itrrv2d_.c'
p3506
(lp3507
(S'X_MPI_Datatype()'
p3508
S'67'
p3509
tp3510
a(S'X_MPI_INT()'
p3511
S'95'
p3512
tp3513
asS'lotsofcoresbook1code/Pearls1_Chapter13/Pearl/src/std/zsc-dgr-mpi/vtkplane.F90'
p3514
(lp3515
(S'MPI_FINALIZE()'
p3516
S'94'
p3517
tp3518
asS'lotsofcoresbook1code/Pearls1_Chapter17/Pearl/src/tools/ga-5-3/global/testing/unit-tests/ga_add.c'
p3519
(lp3520
(S'MPI_Init()'
p3521
S'26'
p3522
tp3523
a(S'MPI_Comm_rank()'
p3524
S'28'
p3525
tp3526
a(S'MPI_Comm_size()'
p3527
S'29'
p3528
tp3529
a(S'MPI_Finalize()'
p3530
S'113'
p3531
tp3532
asS'lotsofcoresbook1code/Pearls1_Chapter26/Pearl/ooc_solver/scalapack/BLACS/SRC/dtrrv2d_.c'
p3533
(lp3534
(S'X_MPI_Datatype()'
p3535
S'67'
p3536
tp3537
a(S'X_MPI_DOUBLE()'
p3538
S'95'
p3539
tp3540
asS'lotsofcoresbook1code/Pearls1_Chapter13/Pearl/src/std/ll-mpi/stats.F90'
p3541
(lp3542
(S'MPI_ALLREDUCE()'
p3543
S'98'
p3544
tp3545
a(S'MPI_FINALIZE()'
p3546
S'126'
p3547
tp3548
asS'lotsofcoresbook1code/Pearls1_Chapter26/Pearl/ooc_solver/scalapack/BLACS/SRC/strrv2d_.c'
p3549
(lp3550
(S'X_MPI_Datatype()'
p3551
S'67'
p3552
tp3553
a(S'X_MPI_FLOAT()'
p3554
S'95'
p3555
tp3556
asS'lotsofcoresbook1code/Pearls1_Chapter17/Pearl/src/tools/ga-5-3/global/testing/unit-tests/ga_elem_dividepatch.c'
p3557
(lp3558
(S'MPI_Init()'
p3559
S'25'
p3560
tp3561
a(S'MPI_Comm_rank()'
p3562
S'27'
p3563
tp3564
a(S'MPI_Comm_size()'
p3565
S'28'
p3566
tp3567
a(S'MPI_Finalize()'
p3568
S'69'
p3569
tp3570
asS'lotsofcoresbook1code/Pearls1_Chapter13/Pearl/src/std/zsc-3d-mpi/main.F90'
p3571
(lp3572
(S'MPI_INIT()'
p3573
S'54'
p3574
tp3575
a(S'MPI_COMM_SIZE()'
p3576
S'55'
p3577
tp3578
a(S'MPI_COMM_RANK()'
p3579
S'56'
p3580
tp3581
a(S'MPI_FINALIZE()'
p3582
S'111'
p3583
tp3584
asS'lotsofcoresbook1code/Pearls1_Chapter26/Pearl/ooc_solver/scalapack/BLACS/SRC/zgamn2d_.c'
p3585
(lp3586
(S'X_MPI_Datatype()'
p3587
S'89'
p3588
tp3589
a(S'X_MPI_Datatype()'
p3590
S'92'
p3591
tp3592
asS'lotsofcoresbook1code/Pearls1_Chapter13/Pearl/src/std/ll-dgr-mpi/mpi_update_rho_f.F90'
p3593
(lp3594
(S'MPI_IRECV()'
p3595
S'131'
p3596
tp3597
a(S'MPI_SEND()'
p3598
S'132'
p3599
tp3600
a(S'MPI_WAIT()'
p3601
S'133'
p3602
tp3603
a(S'MPI_IRECV()'
p3604
S'135'
p3605
tp3606
a(S'MPI_SEND()'
p3607
S'136'
p3608
tp3609
a(S'MPI_WAIT()'
p3610
S'137'
p3611
tp3612
a(S'MPI_IRECV()'
p3613
S'140'
p3614
tp3615
a(S'MPI_SEND()'
p3616
S'141'
p3617
tp3618
a(S'MPI_WAIT()'
p3619
S'142'
p3620
tp3621
a(S'MPI_IRECV()'
p3622
S'144'
p3623
tp3624
a(S'MPI_SEND()'
p3625
S'145'
p3626
tp3627
a(S'MPI_WAIT()'
p3628
S'146'
p3629
tp3630
a(S'MPI_IRECV()'
p3631
S'149'
p3632
tp3633
a(S'MPI_SEND()'
p3634
S'150'
p3635
tp3636
a(S'MPI_WAIT()'
p3637
S'151'
p3638
tp3639
a(S'MPI_IRECV()'
p3640
S'153'
p3641
tp3642
a(S'MPI_SEND()'
p3643
S'154'
p3644
tp3645
a(S'MPI_WAIT()'
p3646
S'155'
p3647
tp3648
a(S'MPI_IRECV()'
p3649
S'157'
p3650
tp3651
a(S'MPI_SEND()'
p3652
S'158'
p3653
tp3654
a(S'MPI_WAIT()'
p3655
S'159'
p3656
tp3657
a(S'MPI_IRECV()'
p3658
S'161'
p3659
tp3660
a(S'MPI_SEND()'
p3661
S'162'
p3662
tp3663
a(S'MPI_WAIT()'
p3664
S'163'
p3665
tp3666
asS'lotsofcoresbook1code/Pearls1_Chapter17/Pearl/src/tools/ga-5-3/armci/f90/testanb.f90'
p3667
(lp3668
(S'mpi_init()'
p3669
S'18'
p3670
tp3671
a(S'mpi_comm_rank()'
p3672
S'19'
p3673
tp3674
a(S'mpi_comm_size()'
p3675
S'20'
p3676
tp3677
a(S'mpi_finalize()'
p3678
S'44'
p3679
tp3680
asS'lotsofcoresbook1code/Pearls1_Chapter13/Pearl/src/opt/lbs3d-mpi/init.F90'
p3681
(lp3682
(S'MPI_IRECV()'
p3683
S'159'
p3684
tp3685
a(S'X_MPI_COMM_VGRID()'
p3686
S'160'
p3687
tp3688
a(S'MPI_IRECV()'
p3689
S'161'
p3690
tp3691
a(S'X_MPI_COMM_VGRID()'
p3692
S'162'
p3693
tp3694
a(S'MPI_SEND()'
p3695
S'172'
p3696
tp3697
a(S'X_MPI_COMM_VGRID()'
p3698
S'173'
p3699
tp3700
a(S'MPI_SEND()'
p3701
S'174'
p3702
tp3703
a(S'X_MPI_COMM_VGRID()'
p3704
S'175'
p3705
tp3706
a(S'MPI_WAITALL()'
p3707
S'176'
p3708
tp3709
a(S'MPI_IRECV()'
p3710
S'179'
p3711
tp3712
a(S'X_MPI_COMM_VGRID()'
p3713
S'180'
p3714
tp3715
a(S'MPI_IRECV()'
p3716
S'181'
p3717
tp3718
a(S'X_MPI_COMM_VGRID()'
p3719
S'182'
p3720
tp3721
a(S'MPI_SEND()'
p3722
S'192'
p3723
tp3724
a(S'X_MPI_COMM_VGRID()'
p3725
S'193'
p3726
tp3727
a(S'MPI_SEND()'
p3728
S'194'
p3729
tp3730
a(S'X_MPI_COMM_VGRID()'
p3731
S'195'
p3732
tp3733
a(S'MPI_WAITALL()'
p3734
S'196'
p3735
tp3736
a(S'MPI_IRECV()'
p3737
S'199'
p3738
tp3739
a(S'X_MPI_COMM_VGRID()'
p3740
S'200'
p3741
tp3742
a(S'MPI_IRECV()'
p3743
S'201'
p3744
tp3745
a(S'X_MPI_COMM_VGRID()'
p3746
S'202'
p3747
tp3748
a(S'MPI_SEND()'
p3749
S'212'
p3750
tp3751
a(S'X_MPI_COMM_VGRID()'
p3752
S'213'
p3753
tp3754
a(S'MPI_SEND()'
p3755
S'214'
p3756
tp3757
a(S'X_MPI_COMM_VGRID()'
p3758
S'215'
p3759
tp3760
a(S'MPI_WAITALL()'
p3761
S'216'
p3762
tp3763
asS'lotsofcoresbook1code/Pearls1_Chapter17/Pearl/src/tools/ga-5-3/comex/testing/perf_amo.c'
p3764
(lp3765
(S'MPI_Finalize()'
p3766
S'88'
p3767
tp3768
asS'lotsofcoresbook1code/Pearls1_Chapter17/Pearl/src/tools/ga-5-3/global/testing/unit-tests/ga_igop.c'
p3769
(lp3770
(S'MPI_Init()'
p3771
S'205'
p3772
tp3773
a(S'MPI_Comm_rank()'
p3774
S'209'
p3775
tp3776
a(S'MPI_Comm_size()'
p3777
S'210'
p3778
tp3779
a(S'MPI_Finalize()'
p3780
S'228'
p3781
tp3782
asS'lotsofcoresbook1code/Pearls1_Chapter17/Pearl/src/tools/ga-5-3/comex/src-mpi/comex.c'
p3783
(lp3784
(S'MPI_Test()'
p3785
S'196'
p3786
tp3787
a(S'MPI_Iprobe()'
p3788
S'319'
p3789
tp3790
a(S'MPI_Get_count()'
p3791
S'329'
p3792
tp3793
a(S'MPI_Recv()'
p3794
S'336'
p3795
tp3796
a(S'MPI_Comm_size()'
p3797
S'1137'
p3798
tp3799
a(S'MPI_Comm_rank()'
p3800
S'1139'
p3801
tp3802
a(S'MPI_Comm_group()'
p3803
S'1143'
p3804
tp3805
a(S'MPI_Group_translate_ranks()'
p3806
S'1173'
p3807
tp3808
a(S'MPI_Group_free()'
p3809
S'1201'
p3810
tp3811
a(S'MPI_Abort()'
p3812
S'1316'
p3813
tp3814
a(S'MPI_Initialized()'
p3815
S'1353'
p3816
tp3817
a(S'MPI_Comm_dup()'
p3818
S'1358'
p3819
tp3820
a(S'MPI_Comm_rank()'
p3821
S'1363'
p3822
tp3823
a(S'MPI_Comm_size()'
p3824
S'1368'
p3825
tp3826
a(S'MPI_Initialized()'
p3827
S'1406'
p3828
tp3829
a(S'MPI_Init()'
p3830
S'1409'
p3831
tp3832
a(S'MPI_Comm_free()'
p3833
S'1440'
p3834
tp3835
a(S'MPI_Comm_rank()'
p3836
S'2115'
p3837
tp3838
a(S'MPI_Allgather()'
p3839
S'2122'
p3840
tp3841
a(S'MPI_Comm_size()'
p3842
S'2128'
p3843
tp3844
asS'lotsofcoresbook1code/Pearls1_Chapter26/Pearl/ooc_solver/scalapack/REDIST/TESTING/pcgemrdrv.c'
p3845
(lp3846
(S'MPI_Init()'
p3847
S'276'
p3848
tp3849
asS'lotsofcoresbook1code/Pearls1_Chapter13/Pearl/src/std/zsc-3d-mpi/relaxstats.F90'
p3850
(lp3851
(S'MPI_ALLREDUCE()'
p3852
S'178'
p3853
tp3854
a(S'MPI_FINALIZE()'
p3855
S'220'
p3856
tp3857
asS'lotsofcoresbook1code/Pearls1_Chapter17/Pearl/src/tools/ga-5-3/global/testing/unit-tests/ga_pgroup_create5.c'
p3858
(lp3859
(S'MPI_Init()'
p3860
S'21'
p3861
tp3862
a(S'MPI_Comm_rank()'
p3863
S'23'
p3864
tp3865
a(S'MPI_Comm_size()'
p3866
S'24'
p3867
tp3868
a(S'MPI_Finalize()'
p3869
S'79'
p3870
tp3871
asS'lotsofcoresbook1code/Pearls1_Chapter17/Pearl/src/tools/ga-5-3/armci/src/devices/mpi-spawn/mpi2_client.c'
p3872
(lp3873
(S'MPI_Check()'
p3874
S'135'
p3875
tp3876
a(S'MPI_Send()'
p3877
S'136'
p3878
tp3879
a(S'MPI_Check()'
p3880
S'142'
p3881
tp3882
a(S'MPI_Recv()'
p3883
S'143'
p3884
tp3885
a(S'MPI_Check()'
p3886
S'170'
p3887
tp3888
a(S'MPI_Check()'
p3889
S'173'
p3890
tp3891
a(S'MPI_Check()'
p3892
S'177'
p3893
tp3894
a(S'MPI_Check()'
p3895
S'182'
p3896
tp3897
a(S'MPI_Check()'
p3898
S'208'
p3899
tp3900
a(S'MPI_Send()'
p3901
S'209'
p3902
tp3903
a(S'MPI_Check()'
p3904
S'218'
p3905
tp3906
a(S'MPI_Send()'
p3907
S'219'
p3908
tp3909
a(S'MPI_Check()'
p3910
S'284'
p3911
tp3912
a(S'MPI_Recv()'
p3913
S'285'
p3914
tp3915
a(S'MPI_Get_count()'
p3916
S'296'
p3917
tp3918
a(S'MPI_Get_processor_name()'
p3919
S'363'
p3920
tp3921
a(S'MPI_Check()'
p3922
S'364'
p3923
tp3924
a(S'MPI_Allgather()'
p3925
S'365'
p3926
tp3927
a(S'MPI_Check()'
p3928
S'379'
p3929
tp3930
a(S'MPI_Info_create()'
p3931
S'463'
p3932
tp3933
a(S'MPI_Info_set()'
p3934
S'466'
p3935
tp3936
a(S'MPI_Info_set()'
p3937
S'468'
p3938
tp3939
a(S'MPI_Check()'
p3940
S'478'
p3941
tp3942
a(S'MPI_Comm_spawn_multiple()'
p3943
S'479'
p3944
tp3945
a(S'MPI_Initialized()'
p3946
S'506'
p3947
tp3948
a(S'MPI_Comm_rank()'
p3949
S'510'
p3950
tp3951
a(S'MPI_Comm_size()'
p3952
S'511'
p3953
tp3954
a(S'MPI_Send()'
p3955
S'535'
p3956
tp3957
a(S'MPI_Send()'
p3958
S'539'
p3959
tp3960
a(S'MPI_Send()'
p3961
S'552'
p3962
tp3963
a(S'MPI_Barrier()'
p3964
S'563'
p3965
tp3966
asS'lotsofcoresbook1code/Pearls1_Chapter17/Pearl/src/tools/ga-5-3/global/src/scalapack.F'
p3967
(lp3968
(S'MPI_Comm_group()'
p3969
S'3587'
p3970
tp3971
a(S'MPI_Group_incl()'
p3972
S'3591'
p3973
tp3974
a(S'mpi_comm_create()'
p3975
S'3597'
p3976
tp3977
a(S'MPI_Group_free()'
p3978
S'3694'
p3979
tp3980
a(S'MPI_comm_free()'
p3981
S'3697'
p3982
tp3983
asS'lotsofcoresbook1code/Pearls1_Chapter13/Pearl/src/std/zsc-mpi/main.F90'
p3984
(lp3985
(S'MPI_INIT()'
p3986
S'54'
p3987
tp3988
a(S'MPI_COMM_SIZE()'
p3989
S'55'
p3990
tp3991
a(S'MPI_COMM_RANK()'
p3992
S'56'
p3993
tp3994
a(S'MPI_FINALIZE()'
p3995
S'94'
p3996
tp3997
asS'lotsofcoresbook1code/Pearls1_Chapter26/Pearl/ooc_solver/scalapack/BLACS/SRC/zgesd2d_.c'
p3998
(lp3999
(S'X_MPI_Datatype()'
p4000
S'50'
p4001
tp4002
a(S'X_MPI_DOUBLE_COMPLEX()'
p4003
S'75'
p4004
tp4005
asS'lotsofcoresbook1code/Pearls1_Chapter13/Pearl/src/opt/lbs3d-mpi/main.F90'
p4006
(lp4007
(S'MPI_INIT()'
p4008
S'51'
p4009
tp4010
a(S'MPI_COMM_SIZE()'
p4011
S'52'
p4012
tp4013
a(S'MPI_COMM_RANK()'
p4014
S'53'
p4015
tp4016
a(S'MPI_Finalize()'
p4017
S'140'
p4018
tp4019
asS'lotsofcoresbook1code/Pearls1_Chapter13/Pearl/src/std/ll-mpi/vgrid.F90'
p4020
(lp4021
(S'MPI_CART_CREATE()'
p4022
S'60'
p4023
tp4024
a(S'MPI_COMM_RANK()'
p4025
S'63'
p4026
tp4027
a(S'MPI_CART_COORDS()'
p4028
S'64'
p4029
tp4030
a(S'MPI_CART_SHIFT()'
p4031
S'112'
p4032
tp4033
a(S'MPI_CART_SHIFT()'
p4034
S'114'
p4035
tp4036
a(S'MPI_CART_COORDS()'
p4037
S'117'
p4038
tp4039
a(S'MPI_CART_COORDS()'
p4040
S'119'
p4041
tp4042
a(S'MPI_CART_COORDS()'
p4043
S'121'
p4044
tp4045
a(S'MPI_CART_COORDS()'
p4046
S'123'
p4047
tp4048
a(S'MPI_CART_RANK()'
p4049
S'129'
p4050
tp4051
a(S'MPI_CART_RANK()'
p4052
S'132'
p4053
tp4054
a(S'MPI_CART_RANK()'
p4055
S'135'
p4056
tp4057
a(S'MPI_CART_RANK()'
p4058
S'138'
p4059
tp4060
asS'lotsofcoresbook1code/Pearls1_Chapter17/Pearl/src/tools/ga-5-3/global/testing/unit-tests/ga_get_diagonal.c'
p4061
(lp4062
(S'MPI_Init()'
p4063
S'26'
p4064
tp4065
a(S'MPI_Comm_rank()'
p4066
S'28'
p4067
tp4068
a(S'MPI_Comm_size()'
p4069
S'29'
p4070
tp4071
a(S'MPI_Finalize()'
p4072
S'66'
p4073
tp4074
asS'lotsofcoresbook1code/Pearls1_Chapter26/Pearl/ooc_solver/scalapack/REDIST/TESTING/pztrmrdrv.c'
p4075
(lp4076
(S'MPI_Init()'
p4077
S'277'
p4078
tp4079
asS'lotsofcoresbook1code/Pearls1_Chapter17/Pearl/src/tools/ga-5-3/armci/examples/features/proc_affinity/computation_impact/computation_impact.c'
p4080
(lp4081
(S'MPI_Init()'
p4082
S'182'
p4083
tp4084
a(S'MPI_Comm_rank()'
p4085
S'183'
p4086
tp4087
a(S'MPI_Comm_size()'
p4088
S'184'
p4089
tp4090
a(S'MPI_Finalize()'
p4091
S'187'
p4092
tp4093
a(S'MPI_Barrier()'
p4094
S'201'
p4095
tp4096
a(S'MPI_Barrier()'
p4097
S'207'
p4098
tp4099
a(S'MPI_Barrier()'
p4100
S'208'
p4101
tp4102
a(S'MPI_Barrier()'
p4103
S'246'
p4104
tp4105
a(S'MPI_Barrier()'
p4106
S'247'
p4107
tp4108
a(S'MPI_Barrier()'
p4109
S'283'
p4110
tp4111
a(S'MPI_Barrier()'
p4112
S'284'
p4113
tp4114
a(S'MPI_Barrier()'
p4115
S'320'
p4116
tp4117
a(S'MPI_Barrier()'
p4118
S'356'
p4119
tp4120
a(S'MPI_Finalize()'
p4121
S'361'
p4122
tp4123
asS'lotsofcoresbook1code/Pearls1_Chapter17/Pearl/src/tools/ga-5-3/global/testing/unit-tests/ga_dot.c'
p4124
(lp4125
(S'MPI_Init()'
p4126
S'64'
p4127
tp4128
a(S'MPI_Comm_rank()'
p4129
S'66'
p4130
tp4131
a(S'MPI_Comm_size()'
p4132
S'67'
p4133
tp4134
a(S'MPI_Finalize()'
p4135
S'78'
p4136
tp4137
asS'lotsofcoresbook1code/Pearls1_Chapter13/Pearl/src/opt/lbs3d-mpi/relaxstats.F90'
p4138
(lp4139
(S'MPI_ALLREDUCE()'
p4140
S'137'
p4141
tp4142
a(S'X_MPI_COMM_VGRID()'
p4143
S'138'
p4144
tp4145
asS'lotsofcoresbook1code/Pearls1_Chapter26/Pearl/ooc_solver/scalapack/BLACS/SRC/igerv2d_.c'
p4146
(lp4147
(S'X_MPI_Datatype()'
p4148
S'54'
p4149
tp4150
a(S'X_MPI_INT()'
p4151
S'76'
p4152
tp4153
asS'lotsofcoresbook1code/Pearls1_Chapter26/Pearl/ooc_solver/scalapack/BLACS/SRC/sgerv2d_.c'
p4154
(lp4155
(S'X_MPI_Datatype()'
p4156
S'54'
p4157
tp4158
a(S'X_MPI_FLOAT()'
p4159
S'76'
p4160
tp4161
asS'lotsofcoresbook1code/Pearls1_Chapter17/Pearl/src/tools/ga-5-3/global/testing/unit-tests/ga_pgroup_create3.c'
p4162
(lp4163
(S'MPI_Init()'
p4164
S'21'
p4165
tp4166
a(S'MPI_Comm_rank()'
p4167
S'23'
p4168
tp4169
a(S'MPI_Comm_size()'
p4170
S'24'
p4171
tp4172
a(S'MPI_Finalize()'
p4173
S'71'
p4174
tp4175
asS'lotsofcoresbook1code/Pearls1_Chapter17/Pearl/src/tools/ga-5-3/armci/f90/testa.F90'
p4176
(lp4177
(S'mpi_init()'
p4178
S'29'
p4179
tp4180
a(S'mpi_comm_rank()'
p4181
S'30'
p4182
tp4183
a(S'mpi_comm_size()'
p4184
S'31'
p4185
tp4186
a(S'mpi_barrier()'
p4187
S'95'
p4188
tp4189
a(S'mpi_finalize()'
p4190
S'99'
p4191
tp4192
asS'lotsofcoresbook1code/Pearls1_Chapter17/Pearl/src/tools/ga-5-3/global/testing/unit-tests/ga_gather.c'
p4193
(lp4194
(S'MPI_Init()'
p4195
S'26'
p4196
tp4197
a(S'MPI_Comm_rank()'
p4198
S'30'
p4199
tp4200
a(S'MPI_Comm_size()'
p4201
S'31'
p4202
tp4203
a(S'MPI_Finalize()'
p4204
S'85'
p4205
tp4206
asS'lotsofcoresbook1code/Pearls1_Chapter17/Pearl/src/tools/ga-5-3/global/testing/unit-tests/ga_gather2.c'
p4207
(lp4208
(S'MPI_Init()'
p4209
S'25'
p4210
tp4211
a(S'MPI_Comm_rank()'
p4212
S'29'
p4213
tp4214
a(S'MPI_Comm_size()'
p4215
S'30'
p4216
tp4217
a(S'MPI_Finalize()'
p4218
S'96'
p4219
tp4220
asS'lotsofcoresbook1code/Pearls1_Chapter26/Pearl/ooc_solver/scalapack/BLACS/SRC/dgamx2d_.c'
p4221
(lp4222
(S'X_MPI_Datatype()'
p4223
S'89'
p4224
tp4225
a(S'X_MPI_Datatype()'
p4226
S'92'
p4227
tp4228
asS'lotsofcoresbook1code/Pearls1_Chapter17/Pearl/src/tools/ga-5-3/armci/src-gemini/memory.c'
p4229
(lp4230
(S'MPI_Allreduce()'
p4231
S'696'
p4232
tp4233
a(S'MPI_Allgather()'
p4234
S'697'
p4235
tp4236
a(S'MPI_Bcast()'
p4237
S'711'
p4238
tp4239
a(S'MPI_Bcast()'
p4240
S'712'
p4241
tp4242
a(S'MPI_Allgather()'
p4243
S'725'
p4244
tp4245
asS'lotsofcoresbook1code/Pearls1_Chapter17/Pearl/src/tools/ga-5-3/global/testing/unit-tests/ga_scale_rows.c'
p4246
(lp4247
(S'MPI_Init()'
p4248
S'25'
p4249
tp4250
a(S'MPI_Comm_rank()'
p4251
S'27'
p4252
tp4253
a(S'MPI_Comm_size()'
p4254
S'28'
p4255
tp4256
a(S'MPI_Finalize()'
p4257
S'59'
p4258
tp4259
asS'lotsofcoresbook1code/Pearls1_Chapter17/Pearl/src/tools/ga-5-3/global/testing/unit-tests/ga_create_handle.c'
p4260
(lp4261
(S'MPI_Init()'
p4262
S'19'
p4263
tp4264
a(S'MPI_Comm_rank()'
p4265
S'21'
p4266
tp4267
a(S'MPI_Comm_size()'
p4268
S'22'
p4269
tp4270
a(S'MPI_Finalize()'
p4271
S'40'
p4272
tp4273
asS'lotsofcoresbook1code/Pearls1_Chapter17/Pearl/src/tools/ga-5-3/armci/src/devices/mpi-spawn/mpi2.h'
p4274
(lp4275
(S'X_MPI_SPAWN_DEBUG()'
p4276
S'6'
p4277
tp4278
a(S'X_MPI_SPAWN_ZEROCOPY()'
p4279
S'8'
p4280
tp4281
asS'lotsofcoresbook1code/Pearls1_Chapter17/Pearl/src/tools/ga-5-3/global/testing/unit-tests/ga_copy3.c'
p4282
(lp4283
(S'MPI_Init()'
p4284
S'27'
p4285
tp4286
a(S'MPI_Comm_rank()'
p4287
S'29'
p4288
tp4289
a(S'MPI_Comm_size()'
p4290
S'30'
p4291
tp4292
a(S'MPI_Finalize()'
p4293
S'85'
p4294
tp4295
asS'lotsofcoresbook1code/Pearls1_Chapter17/Pearl/src/tools/ga-5-3/armci/src/common/armci.c'
p4296
(lp4297
(S'MPI_Comm_get_parent()'
p4298
S'345'
p4299
tp4300
a(S'MPI_Query_thread()'
p4301
S'411'
p4302
tp4303
a(S'MPI_Comm_free()'
p4304
S'657'
p4305
tp4306
asS'lotsofcoresbook1code/Pearls1_Chapter26/Pearl/ooc_solver/scalapack/BLACS/SRC/dgebs2d_.c'
p4307
(lp4308
(S'X_MPI_Datatype()'
p4309
S'60'
p4310
tp4311
a(S'X_MPI_DOUBLE()'
p4312
S'111'
p4313
tp4314
asS'lotsofcoresbook1code/Pearls1_Chapter13/Pearl/src/std/ll-dgr-mpi/parameters.F90'
p4315
(lp4316
(S'MPI_FINALIZE()'
p4317
S'71'
p4318
tp4319
a(S'MPI_FINALIZE()'
p4320
S'89'
p4321
tp4322
a(S'MPI_BCAST()'
p4323
S'115'
p4324
tp4325
a(S'MPI_BCAST()'
p4326
S'116'
p4327
tp4328
a(S'MPI_BCAST()'
p4329
S'144'
p4330
tp4331
asS'lotsofcoresbook1code/Pearls1_Chapter17/Pearl/src/tools/ga-5-3/comex/src-template/groups.c'
p4332
(lp4333
(S'MPI_Group_rank()'
p4334
S'83'
p4335
tp4336
a(S'MPI_Group_size()'
p4337
S'97'
p4338
tp4339
a(S'MPI_Group_translate_ranks()'
p4340
S'125'
p4341
tp4342
a(S'MPI_Group_free()'
p4343
S'146'
p4344
tp4345
a(S'MPI_Comm_free()'
p4346
S'153'
p4347
tp4348
a(S'MPI_Group_incl()'
p4349
S'211'
p4350
tp4351
a(S'MPI_Group_rank()'
p4352
S'219'
p4353
tp4354
a(S'MPI_Comm_dup()'
p4355
S'226'
p4356
tp4357
a(S'MPI_Intercomm_create()'
p4358
S'235'
p4359
tp4360
a(S'MPI_Comm_free()'
p4361
S'237'
p4362
tp4363
a(S'MPI_Intercomm_merge()'
p4364
S'238'
p4365
tp4366
a(S'MPI_Comm_free()'
p4367
S'239'
p4368
tp4369
a(S'MPI_Group_free()'
p4370
S'247'
p4371
tp4372
a(S'MPI_Comm_group()'
p4373
S'249'
p4374
tp4375
a(S'MPI_Comm_group()'
p4376
S'269'
p4377
tp4378
a(S'MPI_Group_free()'
p4379
S'289'
p4380
tp4381
asS'lotsofcoresbook1code/Pearls1_Chapter17/Pearl/src/tools/ga-5-3/tools/wapigen_trace.py'
p4382
(lp4383
(S'MPI_Wtime()'
p4384
S'441'
p4385
tp4386
a(S'MPI_Abort()'
p4387
S'455'
p4388
tp4389
a(S'MPI_Abort()'
p4390
S'462'
p4391
tp4392
a(S'MPI_Abort()'
p4393
S'474'
p4394
tp4395
asS'lotsofcoresbook1code/Pearls1_Chapter26/Pearl/ooc_solver/scalapack/BLACS/SRC/zgebs2d_.c'
p4396
(lp4397
(S'X_MPI_Datatype()'
p4398
S'60'
p4399
tp4400
a(S'X_MPI_DOUBLE_COMPLEX()'
p4401
S'111'
p4402
tp4403
asS'lotsofcoresbook1code/Pearls1_Chapter26/Pearl/SRC-1mat-MIC-final/profinit.c'
p4404
(lp4405
(S'MPI_Wtime()'
p4406
S'199'
p4407
tp4408
a(S'MPI_Comm_rank()'
p4409
S'285'
p4410
tp4411
asS'lotsofcoresbook1code/Pearls1_Chapter13/Pearl/src/std/ll-dgr-mpi/mpi_update_rho_g.F90'
p4412
(lp4413
(S'MPI_IRECV()'
p4414
S'97'
p4415
tp4416
a(S'MPI_SEND()'
p4417
S'98'
p4418
tp4419
a(S'MPI_WAIT()'
p4420
S'99'
p4421
tp4422
a(S'MPI_IRECV()'
p4423
S'101'
p4424
tp4425
a(S'MPI_SEND()'
p4426
S'102'
p4427
tp4428
a(S'MPI_WAIT()'
p4429
S'103'
p4430
tp4431
a(S'MPI_IRECV()'
p4432
S'106'
p4433
tp4434
a(S'MPI_SEND()'
p4435
S'107'
p4436
tp4437
a(S'MPI_WAIT()'
p4438
S'108'
p4439
tp4440
a(S'MPI_IRECV()'
p4441
S'110'
p4442
tp4443
a(S'MPI_SEND()'
p4444
S'111'
p4445
tp4446
a(S'MPI_WAIT()'
p4447
S'112'
p4448
tp4449
a(S'MPI_IRECV()'
p4450
S'115'
p4451
tp4452
a(S'MPI_SEND()'
p4453
S'116'
p4454
tp4455
a(S'MPI_WAIT()'
p4456
S'117'
p4457
tp4458
a(S'MPI_IRECV()'
p4459
S'119'
p4460
tp4461
a(S'MPI_SEND()'
p4462
S'120'
p4463
tp4464
a(S'MPI_WAIT()'
p4465
S'121'
p4466
tp4467
a(S'MPI_IRECV()'
p4468
S'123'
p4469
tp4470
a(S'MPI_SEND()'
p4471
S'124'
p4472
tp4473
a(S'MPI_WAIT()'
p4474
S'125'
p4475
tp4476
a(S'MPI_IRECV()'
p4477
S'127'
p4478
tp4479
a(S'MPI_SEND()'
p4480
S'128'
p4481
tp4482
a(S'MPI_WAIT()'
p4483
S'129'
p4484
tp4485
asS'lotsofcoresbook1code/Pearls1_Chapter08/Pearl/ljs.cpp'
p4486
(lp4487
(S'MPI_Init()'
p4488
S'93'
p4489
tp4490
a(S'MPI_Comm_rank()'
p4491
S'94'
p4492
tp4493
a(S'MPI_Comm_size()'
p4494
S'95'
p4495
tp4496
a(S'MPI_Finalize()'
p4497
S'105'
p4498
tp4499
a(S'MPI_Finalize()'
p4500
S'317'
p4501
tp4502
a(S'MPI_Allreduce()'
p4503
S'466'
p4504
tp4505
a(S'MPI_Barrier()'
p4506
S'492'
p4507
tp4508
a(S'MPI_Finalize()'
p4509
S'493'
p4510
tp4511
asS'lotsofcoresbook1code/Pearls1_Chapter26/Pearl/ooc_solver/scalapack/BLACS/SRC/dgsum2d_.c'
p4512
(lp4513
(S'X_MPI_Datatype()'
p4514
S'65'
p4515
tp4516
a(S'X_MPI_Datatype()'
p4517
S'68'
p4518
tp4519
asS'lotsofcoresbook1code/Pearls1_Chapter17/Pearl/src/tools/ga-5-3/comex/testing/shift.c'
p4520
(lp4521
(S'MPI_Finalize()'
p4522
S'63'
p4523
tp4524
a(S'MPI_Allreduce()'
p4525
S'144'
p4526
tp4527
asS'lotsofcoresbook1code/Pearls1_Chapter26/Pearl/ooc_solver/scalapack/BLACS/SRC/dgamn2d_.c'
p4528
(lp4529
(S'X_MPI_Datatype()'
p4530
S'89'
p4531
tp4532
a(S'X_MPI_Datatype()'
p4533
S'92'
p4534
tp4535
asS'lotsofcoresbook1code/Pearls1_Chapter17/Pearl/src/tools/ga-5-3/armci/src/devices/mpi-spawn/mpi2_server.c'
p4536
(lp4537
(S'MPI_Finalize()'
p4538
S'169'
p4539
tp4540
a(S'MPI_Check()'
p4541
S'225'
p4542
tp4543
a(S'MPI_Recv()'
p4544
S'226'
p4545
tp4546
a(S'MPI_Get_count()'
p4547
S'279'
p4548
tp4549
a(S'MPI_Check()'
p4550
S'329'
p4551
tp4552
a(S'MPI_Send()'
p4553
S'330'
p4554
tp4555
a(S'MPI_Check()'
p4556
S'372'
p4557
tp4558
a(S'MPI_Probe()'
p4559
S'373'
p4560
tp4561
a(S'MPI_Check()'
p4562
S'399'
p4563
tp4564
a(S'MPI_Irecv()'
p4565
S'400'
p4566
tp4567
a(S'MPI_Check()'
p4568
S'418'
p4569
tp4570
a(S'MPI_Waitany()'
p4571
S'419'
p4572
tp4573
a(S'MPI_Check()'
p4574
S'443'
p4575
tp4576
a(S'MPI_Irecv()'
p4577
S'444'
p4578
tp4579
a(S'MPI_Comm_remote_size()'
p4580
S'460'
p4581
tp4582
a(S'MPI_Comm_rank()'
p4583
S'505'
p4584
tp4585
a(S'MPI_Comm_size()'
p4586
S'506'
p4587
tp4588
a(S'MPI_Get_processor_name()'
p4589
S'507'
p4590
tp4591
a(S'MPI_Get_version()'
p4592
S'508'
p4593
tp4594
a(S'MPI_Comm_get_parent()'
p4595
S'516'
p4596
tp4597
a(S'MPI_Recv()'
p4598
S'525'
p4599
tp4600
a(S'MPI_Recv()'
p4601
S'552'
p4602
tp4603
a(S'MPI_Recv()'
p4604
S'556'
p4605
tp4606
a(S'MPI_Barrier()'
p4607
S'572'
p4608
tp4609
asS'lotsofcoresbook1code/Pearls1_Chapter17/Pearl/src/tools/ga-5-3/global/testing/unit-tests/ga_pgroup_create.c'
p4610
(lp4611
(S'MPI_Init()'
p4612
S'20'
p4613
tp4614
a(S'MPI_Comm_rank()'
p4615
S'22'
p4616
tp4617
a(S'MPI_Comm_size()'
p4618
S'23'
p4619
tp4620
a(S'MPI_Finalize()'
p4621
S'120'
p4622
tp4623
asS'lotsofcoresbook1code/Pearls1_Chapter17/Pearl/src/tools/ga-5-3/global/testing/unit-tests/ga_ndim.c'
p4624
(lp4625
(S'MPI_Init()'
p4626
S'58'
p4627
tp4628
a(S'MPI_Comm_rank()'
p4629
S'60'
p4630
tp4631
a(S'MPI_Comm_size()'
p4632
S'61'
p4633
tp4634
a(S'MPI_Finalize()'
p4635
S'76'
p4636
tp4637
asS'lotsofcoresbook1code/Pearls1_Chapter26/Pearl/ooc_solver/scalapack/BLACS/SRC/blacs_map_.c'
p4638
(lp4639
(S'MPI_Comm_group()'
p4640
S'57'
p4641
tp4642
a(S'MPI_Group_incl()'
p4643
S'58'
p4644
tp4645
a(S'MPI_Comm_create()'
p4646
S'59'
p4647
tp4648
a(S'MPI_Group_free()'
p4649
S'60'
p4650
tp4651
a(S'MPI_Group_free()'
p4652
S'61'
p4653
tp4654
a(S'MPI_Comm_dup()'
p4655
S'103'
p4656
tp4657
a(S'MPI_Comm_rank()'
p4658
S'104'
p4659
tp4660
a(S'MPI_Comm_split()'
p4661
S'111'
p4662
tp4663
a(S'MPI_Comm_split()'
p4664
S'115'
p4665
tp4666
asS'lotsofcoresbook1code/Pearls1_Chapter26/Pearl/ooc_solver/scalapack/BLACS/INSTALL/tc_fCsameF77.f'
p4667
(lp4668
(S'mpi_init()'
p4669
g4280
tp4670
a(S'mpi_comm_size()'
p4671
g3312
tp4672
a(S'mpi_comm_rank()'
p4673
S'10'
p4674
tp4675
a(S'mpi_comm_group()'
p4676
S'25'
p4677
tp4678
a(S'mpi_group_incl()'
p4679
S'26'
p4680
tp4681
a(S'mpi_comm_create()'
p4682
S'27'
p4683
tp4684
a(S'mpi_group_free()'
p4685
S'28'
p4686
tp4687
a(S'mpi_finalize()'
p4688
S'41'
p4689
tp4690
asS'lotsofcoresbook1code/Pearls1_Chapter26/Pearl/ooc_solver/scalapack/BLACS/TESTING/btprim.f'
p4691
(lp4692
(S'MPI_INITIALIZED()'
p4693
S'38'
p4694
tp4695
a(S'MPI_COMM_DUP()'
p4696
S'41'
p4697
tp4698
a(S'MPI_COMM_RANK()'
p4699
S'71'
p4700
tp4701
a(S'MPI_COMM_SIZE()'
p4702
S'104'
p4703
tp4704
a(S'MPI_SEND()'
p4705
S'191'
p4706
tp4707
a(S'MPI_SEND()'
p4708
S'196'
p4709
tp4710
a(S'MPI_RECV()'
p4711
S'276'
p4712
tp4713
a(S'MPI_INITIALIZED()'
p4714
S'335'
p4715
tp4716
a(S'MPI_TYPE_SIZE()'
p4717
S'342'
p4718
tp4719
a(S'MPI_TYPE_SIZE()'
p4720
S'345'
p4721
tp4722
a(S'MPI_TYPE_SIZE()'
p4723
S'348'
p4724
tp4725
a(S'MPI_TYPE_SIZE()'
p4726
S'351'
p4727
tp4728
a(S'MPI_TYPE_SIZE()'
p4729
S'354'
p4730
tp4731
a(S'MPI_ABORT()'
p4732
S'373'
p4733
tp4734
asS'lotsofcoresbook1code/Pearls1_Chapter13/Pearl/src/std/zsc-mpi/vgrid.F90'
p4735
(lp4736
(S'MPI_CART_CREATE()'
p4737
S'64'
p4738
tp4739
a(S'MPI_COMM_RANK()'
p4740
S'67'
p4741
tp4742
a(S'MPI_CART_COORDS()'
p4743
S'68'
p4744
tp4745
a(S'MPI_CART_COORDS()'
p4746
S'72'
p4747
tp4748
a(S'MPI_CART_SHIFT()'
p4749
S'108'
p4750
tp4751
a(S'MPI_CART_SHIFT()'
p4752
S'110'
p4753
tp4754
a(S'MPI_CART_COORDS()'
p4755
S'113'
p4756
tp4757
a(S'MPI_CART_COORDS()'
p4758
S'116'
p4759
tp4760
a(S'MPI_CART_COORDS()'
p4761
S'119'
p4762
tp4763
a(S'MPI_CART_COORDS()'
p4764
S'122'
p4765
tp4766
a(S'MPI_CART_RANK()'
p4767
S'128'
p4768
tp4769
a(S'MPI_CART_RANK()'
p4770
S'132'
p4771
tp4772
a(S'MPI_CART_RANK()'
p4773
S'136'
p4774
tp4775
a(S'MPI_CART_RANK()'
p4776
S'140'
p4777
tp4778
asS'lotsofcoresbook1code/Pearls1_Chapter17/Pearl/src/tools/ga-5-3/armci/testing/fttest.c'
p4779
(lp4780
(S'MPI_Wtime()'
p4781
S'66'
p4782
tp4783
a(S'MPI_Wtime()'
p4784
S'89'
p4785
tp4786
asS'lotsofcoresbook1code/Pearls1_Chapter13/Pearl/src/std/zsc-3d-mpi/init.F90'
p4787
(lp4788
(S'MPI_IRECV()'
p4789
S'200'
p4790
tp4791
a(S'MPI_IRECV()'
p4792
S'201'
p4793
tp4794
a(S'MPI_SEND()'
p4795
S'210'
p4796
tp4797
a(S'MPI_SEND()'
p4798
S'211'
p4799
tp4800
a(S'MPI_WAIT()'
p4801
S'212'
p4802
tp4803
a(S'MPI_WAIT()'
p4804
S'213'
p4805
tp4806
a(S'MPI_IRECV()'
p4807
S'217'
p4808
tp4809
a(S'MPI_IRECV()'
p4810
S'218'
p4811
tp4812
a(S'MPI_SEND()'
p4813
S'227'
p4814
tp4815
a(S'MPI_SEND()'
p4816
S'228'
p4817
tp4818
a(S'MPI_WAIT()'
p4819
S'229'
p4820
tp4821
a(S'MPI_WAIT()'
p4822
S'230'
p4823
tp4824
a(S'MPI_IRECV()'
p4825
S'233'
p4826
tp4827
a(S'MPI_IRECV()'
p4828
S'234'
p4829
tp4830
a(S'MPI_SEND()'
p4831
S'243'
p4832
tp4833
a(S'MPI_SEND()'
p4834
S'244'
p4835
tp4836
a(S'MPI_WAIT()'
p4837
S'245'
p4838
tp4839
a(S'MPI_WAIT()'
p4840
S'246'
p4841
tp4842
asS'lotsofcoresbook1code/Pearls1_Chapter13/Pearl/src/opt/lbs3d-mpi/stats.F90'
p4843
(lp4844
(S'MPI_ALLREDUCE()'
p4845
S'99'
p4846
tp4847
a(S'X_MPI_SUM()'
p4848
S'100'
p4849
tp4850
a(S'MPI_FINALIZE()'
p4851
S'120'
p4852
tp4853
asS'lotsofcoresbook1code/Pearls1_Chapter13/Pearl/src/std/ll-dgr-mpi/main.F90'
p4854
(lp4855
(S'MPI_INIT()'
p4856
S'53'
p4857
tp4858
a(S'MPI_COMM_SIZE()'
p4859
S'54'
p4860
tp4861
a(S'MPI_COMM_RANK()'
p4862
S'55'
p4863
tp4864
a(S'MPI_FINALIZE()'
p4865
S'112'
p4866
tp4867
asS'lotsofcoresbook1code/Pearls1_Chapter26/Pearl/ooc_solver/scalapack/REDIST/TESTING/pstrmrdrv.c'
p4868
(lp4869
(S'MPI_Init()'
p4870
S'273'
p4871
tp4872
asS'lotsofcoresbook1code/Pearls1_Chapter17/Pearl/src/tools/ga-5-3/comex/src-ofa/openib.c'
p4873
(lp4874
(S'MPI_Alltoall()'
p4875
S'201'
p4876
tp4877
a(S'MPI_Alltoall()'
p4878
S'205'
p4879
tp4880
a(S'MPI_Barrier()'
p4881
S'690'
p4882
tp4883
a(S'MPI_Barrier()'
p4884
S'784'
p4885
tp4886
asS'lotsofcoresbook1code/Pearls1_Chapter17/Pearl/src/tools/ga-5-3/tools/ga-wapi.c'
p4887
(lp4888
(S'MPI_Wtime()'
p4889
S'535'
p4890
tp4891
a(S'MPI_Wtime()'
p4892
S'537'
p4893
tp4894
a(S'MPI_Wtime()'
p4895
S'546'
p4896
tp4897
a(S'MPI_Wtime()'
p4898
S'548'
p4899
tp4900
a(S'MPI_Wtime()'
p4901
S'557'
p4902
tp4903
a(S'MPI_Wtime()'
p4904
S'559'
p4905
tp4906
a(S'MPI_Wtime()'
p4907
S'568'
p4908
tp4909
a(S'MPI_Wtime()'
p4910
S'570'
p4911
tp4912
a(S'MPI_Wtime()'
p4913
S'579'
p4914
tp4915
a(S'MPI_Wtime()'
p4916
S'581'
p4917
tp4918
a(S'MPI_Wtime()'
p4919
S'590'
p4920
tp4921
a(S'MPI_Wtime()'
p4922
S'592'
p4923
tp4924
a(S'MPI_Wtime()'
p4925
S'601'
p4926
tp4927
a(S'MPI_Wtime()'
p4928
S'603'
p4929
tp4930
a(S'MPI_Wtime()'
p4931
S'612'
p4932
tp4933
a(S'MPI_Wtime()'
p4934
S'614'
p4935
tp4936
a(S'MPI_Wtime()'
p4937
S'623'
p4938
tp4939
a(S'MPI_Wtime()'
p4940
S'625'
p4941
tp4942
a(S'MPI_Wtime()'
p4943
S'634'
p4944
tp4945
a(S'MPI_Wtime()'
p4946
S'636'
p4947
tp4948
a(S'MPI_Wtime()'
p4949
S'645'
p4950
tp4951
a(S'MPI_Wtime()'
p4952
S'647'
p4953
tp4954
a(S'MPI_Wtime()'
p4955
S'656'
p4956
tp4957
a(S'MPI_Wtime()'
p4958
S'658'
p4959
tp4960
a(S'MPI_Wtime()'
p4961
S'667'
p4962
tp4963
a(S'MPI_Wtime()'
p4964
S'669'
p4965
tp4966
a(S'MPI_Wtime()'
p4967
S'678'
p4968
tp4969
a(S'MPI_Wtime()'
p4970
S'680'
p4971
tp4972
a(S'MPI_Wtime()'
p4973
S'689'
p4974
tp4975
a(S'MPI_Wtime()'
p4976
S'691'
p4977
tp4978
a(S'MPI_Wtime()'
p4979
S'700'
p4980
tp4981
a(S'MPI_Wtime()'
p4982
S'702'
p4983
tp4984
a(S'MPI_Wtime()'
p4985
S'711'
p4986
tp4987
a(S'MPI_Wtime()'
p4988
S'713'
p4989
tp4990
a(S'MPI_Wtime()'
p4991
S'722'
p4992
tp4993
a(S'MPI_Wtime()'
p4994
S'724'
p4995
tp4996
a(S'MPI_Wtime()'
p4997
S'733'
p4998
tp4999
a(S'MPI_Wtime()'
p5000
S'735'
p5001
tp5002
a(S'MPI_Wtime()'
p5003
S'744'
p5004
tp5005
a(S'MPI_Wtime()'
p5006
S'746'
p5007
tp5008
a(S'MPI_Wtime()'
p5009
S'755'
p5010
tp5011
a(S'MPI_Wtime()'
p5012
S'757'
p5013
tp5014
a(S'MPI_Wtime()'
p5015
S'767'
p5016
tp5017
a(S'MPI_Wtime()'
p5018
S'769'
p5019
tp5020
a(S'MPI_Wtime()'
p5021
S'779'
p5022
tp5023
a(S'MPI_Wtime()'
p5024
S'781'
p5025
tp5026
a(S'MPI_Wtime()'
p5027
S'790'
p5028
tp5029
a(S'MPI_Wtime()'
p5030
S'792'
p5031
tp5032
a(S'MPI_Wtime()'
p5033
S'801'
p5034
tp5035
a(S'MPI_Wtime()'
p5036
S'803'
p5037
tp5038
a(S'MPI_Wtime()'
p5039
S'812'
p5040
tp5041
a(S'MPI_Wtime()'
p5042
S'814'
p5043
tp5044
a(S'MPI_Wtime()'
p5045
S'824'
p5046
tp5047
a(S'MPI_Wtime()'
p5048
S'826'
p5049
tp5050
a(S'MPI_Wtime()'
p5051
S'837'
p5052
tp5053
a(S'MPI_Wtime()'
p5054
S'839'
p5055
tp5056
a(S'MPI_Wtime()'
p5057
S'850'
p5058
tp5059
a(S'MPI_Wtime()'
p5060
S'852'
p5061
tp5062
a(S'MPI_Wtime()'
p5063
S'863'
p5064
tp5065
a(S'MPI_Wtime()'
p5066
S'865'
p5067
tp5068
a(S'MPI_Wtime()'
p5069
S'876'
p5070
tp5071
a(S'MPI_Wtime()'
p5072
S'878'
p5073
tp5074
a(S'MPI_Wtime()'
p5075
S'889'
p5076
tp5077
a(S'MPI_Wtime()'
p5078
S'891'
p5079
tp5080
a(S'MPI_Wtime()'
p5081
S'902'
p5082
tp5083
a(S'MPI_Wtime()'
p5084
S'904'
p5085
tp5086
a(S'MPI_Wtime()'
p5087
S'914'
p5088
tp5089
a(S'MPI_Wtime()'
p5090
S'916'
p5091
tp5092
a(S'MPI_Wtime()'
p5093
S'925'
p5094
tp5095
a(S'MPI_Wtime()'
p5096
S'927'
p5097
tp5098
a(S'MPI_Wtime()'
p5099
S'936'
p5100
tp5101
a(S'MPI_Wtime()'
p5102
S'938'
p5103
tp5104
a(S'MPI_Wtime()'
p5105
S'948'
p5106
tp5107
a(S'MPI_Wtime()'
p5108
S'950'
p5109
tp5110
a(S'MPI_Wtime()'
p5111
S'961'
p5112
tp5113
a(S'MPI_Wtime()'
p5114
S'963'
p5115
tp5116
a(S'MPI_Wtime()'
p5117
S'974'
p5118
tp5119
a(S'MPI_Wtime()'
p5120
S'976'
p5121
tp5122
a(S'MPI_Wtime()'
p5123
S'987'
p5124
tp5125
a(S'MPI_Wtime()'
p5126
S'989'
p5127
tp5128
a(S'MPI_Wtime()'
p5129
S'1000'
p5130
tp5131
a(S'MPI_Wtime()'
p5132
S'1002'
p5133
tp5134
a(S'MPI_Wtime()'
p5135
S'1013'
p5136
tp5137
a(S'MPI_Wtime()'
p5138
S'1015'
p5139
tp5140
a(S'MPI_Wtime()'
p5141
S'1026'
p5142
tp5143
a(S'MPI_Wtime()'
p5144
S'1028'
p5145
tp5146
a(S'MPI_Wtime()'
p5147
S'1039'
p5148
tp5149
a(S'MPI_Wtime()'
p5150
S'1041'
p5151
tp5152
a(S'MPI_Wtime()'
p5153
S'1052'
p5154
tp5155
a(S'MPI_Wtime()'
p5156
S'1054'
p5157
tp5158
a(S'MPI_Wtime()'
p5159
S'1065'
p5160
tp5161
a(S'MPI_Wtime()'
p5162
S'1067'
p5163
tp5164
a(S'MPI_Wtime()'
p5165
S'1078'
p5166
tp5167
a(S'MPI_Wtime()'
p5168
S'1080'
p5169
tp5170
a(S'MPI_Wtime()'
p5171
S'1091'
p5172
tp5173
a(S'MPI_Wtime()'
p5174
S'1093'
p5175
tp5176
a(S'MPI_Wtime()'
p5177
S'1104'
p5178
tp5179
a(S'MPI_Wtime()'
p5180
S'1106'
p5181
tp5182
a(S'MPI_Wtime()'
p5183
S'1117'
p5184
tp5185
a(S'MPI_Wtime()'
p5186
S'1119'
p5187
tp5188
a(S'MPI_Wtime()'
p5189
S'1130'
p5190
tp5191
a(S'MPI_Wtime()'
p5192
S'1132'
p5193
tp5194
a(S'MPI_Wtime()'
p5195
S'1142'
p5196
tp5197
a(S'MPI_Wtime()'
p5198
S'1144'
p5199
tp5200
a(S'MPI_Wtime()'
p5201
S'1153'
p5202
tp5203
a(S'MPI_Wtime()'
p5204
S'1155'
p5205
tp5206
a(S'MPI_Wtime()'
p5207
S'1164'
p5208
tp5209
a(S'MPI_Wtime()'
p5210
S'1166'
p5211
tp5212
a(S'MPI_Wtime()'
p5213
S'1175'
p5214
tp5215
a(S'MPI_Wtime()'
p5216
S'1177'
p5217
tp5218
a(S'MPI_Wtime()'
p5219
S'1186'
p5220
tp5221
a(S'MPI_Wtime()'
p5222
S'1188'
p5223
tp5224
a(S'MPI_Wtime()'
p5225
S'1197'
p5226
tp5227
a(S'MPI_Wtime()'
p5228
S'1199'
p5229
tp5230
a(S'MPI_Wtime()'
p5231
S'1208'
p5232
tp5233
a(S'MPI_Wtime()'
p5234
S'1210'
p5235
tp5236
a(S'MPI_Wtime()'
p5237
S'1219'
p5238
tp5239
a(S'MPI_Wtime()'
p5240
S'1221'
p5241
tp5242
a(S'MPI_Wtime()'
p5243
S'1231'
p5244
tp5245
a(S'MPI_Wtime()'
p5246
S'1233'
p5247
tp5248
a(S'MPI_Wtime()'
p5249
S'1243'
p5250
tp5251
a(S'MPI_Wtime()'
p5252
S'1245'
p5253
tp5254
a(S'MPI_Wtime()'
p5255
S'1254'
p5256
tp5257
a(S'MPI_Wtime()'
p5258
S'1256'
p5259
tp5260
a(S'MPI_Wtime()'
p5261
S'1265'
p5262
tp5263
a(S'MPI_Wtime()'
p5264
S'1267'
p5265
tp5266
a(S'MPI_Wtime()'
p5267
S'1276'
p5268
tp5269
a(S'MPI_Wtime()'
p5270
S'1278'
p5271
tp5272
a(S'MPI_Wtime()'
p5273
S'1287'
p5274
tp5275
a(S'MPI_Wtime()'
p5276
S'1289'
p5277
tp5278
a(S'MPI_Wtime()'
p5279
S'1298'
p5280
tp5281
a(S'MPI_Wtime()'
p5282
S'1300'
p5283
tp5284
a(S'MPI_Wtime()'
p5285
S'1309'
p5286
tp5287
a(S'MPI_Wtime()'
p5288
S'1311'
p5289
tp5290
a(S'MPI_Wtime()'
p5291
S'1320'
p5292
tp5293
a(S'MPI_Wtime()'
p5294
S'1322'
p5295
tp5296
a(S'MPI_Wtime()'
p5297
S'1331'
p5298
tp5299
a(S'MPI_Wtime()'
p5300
S'1333'
p5301
tp5302
a(S'MPI_Wtime()'
p5303
S'1342'
p5304
tp5305
a(S'MPI_Wtime()'
p5306
S'1344'
p5307
tp5308
a(S'MPI_Wtime()'
p5309
S'1353'
p5310
tp5311
a(S'MPI_Wtime()'
p5312
S'1355'
p5313
tp5314
a(S'MPI_Wtime()'
p5315
S'1364'
p5316
tp5317
a(S'MPI_Wtime()'
p5318
S'1366'
p5319
tp5320
a(S'MPI_Wtime()'
p5321
S'1375'
p5322
tp5323
a(S'MPI_Wtime()'
p5324
S'1377'
p5325
tp5326
a(S'MPI_Wtime()'
p5327
S'1386'
p5328
tp5329
a(S'MPI_Wtime()'
p5330
S'1388'
p5331
tp5332
a(S'MPI_Wtime()'
p5333
S'1397'
p5334
tp5335
a(S'MPI_Wtime()'
p5336
S'1399'
p5337
tp5338
a(S'MPI_Wtime()'
p5339
S'1408'
p5340
tp5341
a(S'MPI_Wtime()'
p5342
S'1410'
p5343
tp5344
a(S'MPI_Wtime()'
p5345
S'1419'
p5346
tp5347
a(S'MPI_Wtime()'
p5348
S'1421'
p5349
tp5350
a(S'MPI_Wtime()'
p5351
S'1430'
p5352
tp5353
a(S'MPI_Wtime()'
p5354
S'1432'
p5355
tp5356
a(S'MPI_Wtime()'
p5357
S'1441'
p5358
tp5359
a(S'MPI_Wtime()'
p5360
S'1443'
p5361
tp5362
a(S'MPI_Wtime()'
p5363
S'1453'
p5364
tp5365
a(S'MPI_Wtime()'
p5366
S'1455'
p5367
tp5368
a(S'MPI_Wtime()'
p5369
S'1465'
p5370
tp5371
a(S'MPI_Wtime()'
p5372
S'1467'
p5373
tp5374
a(S'MPI_Wtime()'
p5375
S'1477'
p5376
tp5377
a(S'MPI_Wtime()'
p5378
S'1479'
p5379
tp5380
a(S'MPI_Wtime()'
p5381
S'1489'
p5382
tp5383
a(S'MPI_Wtime()'
p5384
S'1491'
p5385
tp5386
a(S'MPI_Wtime()'
p5387
S'1500'
p5388
tp5389
a(S'MPI_Wtime()'
p5390
S'1502'
p5391
tp5392
a(S'MPI_Wtime()'
p5393
S'1512'
p5394
tp5395
a(S'MPI_Wtime()'
p5396
S'1514'
p5397
tp5398
a(S'MPI_Wtime()'
p5399
S'1525'
p5400
tp5401
a(S'MPI_Wtime()'
p5402
S'1527'
p5403
tp5404
a(S'MPI_Wtime()'
p5405
S'1537'
p5406
tp5407
a(S'MPI_Wtime()'
p5408
S'1539'
p5409
tp5410
a(S'MPI_Wtime()'
p5411
S'1548'
p5412
tp5413
a(S'MPI_Wtime()'
p5414
S'1550'
p5415
tp5416
a(S'MPI_Wtime()'
p5417
S'1559'
p5418
tp5419
a(S'MPI_Wtime()'
p5420
S'1561'
p5421
tp5422
a(S'MPI_Wtime()'
p5423
S'1570'
p5424
tp5425
a(S'MPI_Wtime()'
p5426
S'1572'
p5427
tp5428
a(S'MPI_Wtime()'
p5429
S'1582'
p5430
tp5431
a(S'MPI_Wtime()'
p5432
S'1584'
p5433
tp5434
a(S'MPI_Wtime()'
p5435
S'1594'
p5436
tp5437
a(S'MPI_Wtime()'
p5438
S'1596'
p5439
tp5440
a(S'MPI_Wtime()'
p5441
S'1606'
p5442
tp5443
a(S'MPI_Wtime()'
p5444
S'1608'
p5445
tp5446
a(S'MPI_Wtime()'
p5447
S'1618'
p5448
tp5449
a(S'MPI_Wtime()'
p5450
S'1620'
p5451
tp5452
a(S'MPI_Wtime()'
p5453
S'1630'
p5454
tp5455
a(S'MPI_Wtime()'
p5456
S'1632'
p5457
tp5458
a(S'MPI_Wtime()'
p5459
S'1642'
p5460
tp5461
a(S'MPI_Wtime()'
p5462
S'1644'
p5463
tp5464
a(S'MPI_Wtime()'
p5465
S'1653'
p5466
tp5467
a(S'MPI_Wtime()'
p5468
S'1655'
p5469
tp5470
a(S'MPI_Wtime()'
p5471
S'1665'
p5472
tp5473
a(S'MPI_Wtime()'
p5474
S'1667'
p5475
tp5476
a(S'MPI_Wtime()'
p5477
S'1677'
p5478
tp5479
a(S'MPI_Wtime()'
p5480
S'1679'
p5481
tp5482
a(S'MPI_Wtime()'
p5483
S'1689'
p5484
tp5485
a(S'MPI_Wtime()'
p5486
S'1691'
p5487
tp5488
a(S'MPI_Wtime()'
p5489
S'1702'
p5490
tp5491
a(S'MPI_Wtime()'
p5492
S'1704'
p5493
tp5494
a(S'MPI_Wtime()'
p5495
S'1715'
p5496
tp5497
a(S'MPI_Wtime()'
p5498
S'1717'
p5499
tp5500
a(S'MPI_Wtime()'
p5501
S'1728'
p5502
tp5503
a(S'MPI_Wtime()'
p5504
S'1730'
p5505
tp5506
a(S'MPI_Wtime()'
p5507
S'1741'
p5508
tp5509
a(S'MPI_Wtime()'
p5510
S'1743'
p5511
tp5512
a(S'MPI_Wtime()'
p5513
S'1753'
p5514
tp5515
a(S'MPI_Wtime()'
p5516
S'1755'
p5517
tp5518
a(S'MPI_Wtime()'
p5519
S'1764'
p5520
tp5521
a(S'MPI_Wtime()'
p5522
S'1766'
p5523
tp5524
a(S'MPI_Wtime()'
p5525
S'1775'
p5526
tp5527
a(S'MPI_Wtime()'
p5528
S'1777'
p5529
tp5530
a(S'MPI_Wtime()'
p5531
S'1786'
p5532
tp5533
a(S'MPI_Wtime()'
p5534
S'1788'
p5535
tp5536
a(S'MPI_Wtime()'
p5537
S'1797'
p5538
tp5539
a(S'MPI_Wtime()'
p5540
S'1799'
p5541
tp5542
a(S'MPI_Wtime()'
p5543
S'1808'
p5544
tp5545
a(S'MPI_Wtime()'
p5546
S'1810'
p5547
tp5548
a(S'MPI_Wtime()'
p5549
S'1819'
p5550
tp5551
a(S'MPI_Wtime()'
p5552
S'1821'
p5553
tp5554
a(S'MPI_Wtime()'
p5555
S'1830'
p5556
tp5557
a(S'MPI_Wtime()'
p5558
S'1832'
p5559
tp5560
a(S'MPI_Wtime()'
p5561
S'1841'
p5562
tp5563
a(S'MPI_Wtime()'
p5564
S'1843'
p5565
tp5566
a(S'MPI_Wtime()'
p5567
S'1852'
p5568
tp5569
a(S'MPI_Wtime()'
p5570
S'1854'
p5571
tp5572
a(S'MPI_Wtime()'
p5573
S'1864'
p5574
tp5575
a(S'MPI_Wtime()'
p5576
S'1866'
p5577
tp5578
a(S'MPI_Wtime()'
p5579
S'1877'
p5580
tp5581
a(S'MPI_Wtime()'
p5582
S'1879'
p5583
tp5584
a(S'MPI_Wtime()'
p5585
S'1890'
p5586
tp5587
a(S'MPI_Wtime()'
p5588
S'1892'
p5589
tp5590
a(S'MPI_Wtime()'
p5591
S'1902'
p5592
tp5593
a(S'MPI_Wtime()'
p5594
S'1904'
p5595
tp5596
a(S'MPI_Wtime()'
p5597
S'1913'
p5598
tp5599
a(S'MPI_Wtime()'
p5600
S'1915'
p5601
tp5602
a(S'MPI_Wtime()'
p5603
S'1924'
p5604
tp5605
a(S'MPI_Wtime()'
p5606
S'1926'
p5607
tp5608
a(S'MPI_Wtime()'
p5609
S'1935'
p5610
tp5611
a(S'MPI_Wtime()'
p5612
S'1937'
p5613
tp5614
a(S'MPI_Wtime()'
p5615
S'1946'
p5616
tp5617
a(S'MPI_Wtime()'
p5618
S'1948'
p5619
tp5620
a(S'MPI_Wtime()'
p5621
S'1957'
p5622
tp5623
a(S'MPI_Wtime()'
p5624
S'1959'
p5625
tp5626
a(S'MPI_Wtime()'
p5627
S'1968'
p5628
tp5629
a(S'MPI_Wtime()'
p5630
S'1970'
p5631
tp5632
a(S'MPI_Wtime()'
p5633
S'1979'
p5634
tp5635
a(S'MPI_Wtime()'
p5636
S'1981'
p5637
tp5638
a(S'MPI_Wtime()'
p5639
S'1990'
p5640
tp5641
a(S'MPI_Wtime()'
p5642
S'1992'
p5643
tp5644
a(S'MPI_Wtime()'
p5645
S'2001'
p5646
tp5647
a(S'MPI_Wtime()'
p5648
S'2003'
p5649
tp5650
a(S'MPI_Wtime()'
p5651
S'2012'
p5652
tp5653
a(S'MPI_Wtime()'
p5654
S'2014'
p5655
tp5656
a(S'MPI_Wtime()'
p5657
S'2023'
p5658
tp5659
a(S'MPI_Wtime()'
p5660
S'2025'
p5661
tp5662
a(S'MPI_Wtime()'
p5663
S'2034'
p5664
tp5665
a(S'MPI_Wtime()'
p5666
S'2036'
p5667
tp5668
a(S'MPI_Wtime()'
p5669
S'2046'
p5670
tp5671
a(S'MPI_Wtime()'
p5672
S'2048'
p5673
tp5674
a(S'MPI_Wtime()'
p5675
S'2058'
p5676
tp5677
a(S'MPI_Wtime()'
p5678
S'2060'
p5679
tp5680
a(S'MPI_Wtime()'
p5681
S'2069'
p5682
tp5683
a(S'MPI_Wtime()'
p5684
S'2071'
p5685
tp5686
a(S'MPI_Wtime()'
p5687
S'2081'
p5688
tp5689
a(S'MPI_Wtime()'
p5690
S'2083'
p5691
tp5692
a(S'MPI_Wtime()'
p5693
S'2094'
p5694
tp5695
a(S'MPI_Wtime()'
p5696
S'2096'
p5697
tp5698
a(S'MPI_Wtime()'
p5699
S'2107'
p5700
tp5701
a(S'MPI_Wtime()'
p5702
S'2109'
p5703
tp5704
a(S'MPI_Wtime()'
p5705
S'2119'
p5706
tp5707
a(S'MPI_Wtime()'
p5708
S'2121'
p5709
tp5710
a(S'MPI_Wtime()'
p5711
S'2130'
p5712
tp5713
a(S'MPI_Wtime()'
p5714
S'2132'
p5715
tp5716
a(S'MPI_Wtime()'
p5717
S'2141'
p5718
tp5719
a(S'MPI_Wtime()'
p5720
S'2143'
p5721
tp5722
a(S'MPI_Wtime()'
p5723
S'2152'
p5724
tp5725
a(S'MPI_Wtime()'
p5726
S'2154'
p5727
tp5728
a(S'MPI_Wtime()'
p5729
S'2164'
p5730
tp5731
a(S'MPI_Wtime()'
p5732
S'2166'
p5733
tp5734
a(S'MPI_Wtime()'
p5735
S'2176'
p5736
tp5737
a(S'MPI_Wtime()'
p5738
S'2178'
p5739
tp5740
a(S'MPI_Wtime()'
p5741
S'2188'
p5742
tp5743
a(S'MPI_Wtime()'
p5744
S'2190'
p5745
tp5746
a(S'MPI_Wtime()'
p5747
S'2200'
p5748
tp5749
a(S'MPI_Wtime()'
p5750
S'2202'
p5751
tp5752
a(S'MPI_Wtime()'
p5753
S'2212'
p5754
tp5755
a(S'MPI_Wtime()'
p5756
S'2214'
p5757
tp5758
a(S'MPI_Wtime()'
p5759
S'2225'
p5760
tp5761
a(S'MPI_Wtime()'
p5762
S'2227'
p5763
tp5764
a(S'MPI_Wtime()'
p5765
S'2238'
p5766
tp5767
a(S'MPI_Wtime()'
p5768
S'2240'
p5769
tp5770
a(S'MPI_Wtime()'
p5771
S'2251'
p5772
tp5773
a(S'MPI_Wtime()'
p5774
S'2253'
p5775
tp5776
a(S'MPI_Wtime()'
p5777
S'2264'
p5778
tp5779
a(S'MPI_Wtime()'
p5780
S'2266'
p5781
tp5782
a(S'MPI_Wtime()'
p5783
S'2276'
p5784
tp5785
a(S'MPI_Wtime()'
p5786
S'2278'
p5787
tp5788
a(S'MPI_Wtime()'
p5789
S'2288'
p5790
tp5791
a(S'MPI_Wtime()'
p5792
S'2290'
p5793
tp5794
a(S'MPI_Wtime()'
p5795
S'2301'
p5796
tp5797
a(S'MPI_Wtime()'
p5798
S'2303'
p5799
tp5800
a(S'MPI_Wtime()'
p5801
S'2313'
p5802
tp5803
a(S'MPI_Wtime()'
p5804
S'2315'
p5805
tp5806
a(S'MPI_Wtime()'
p5807
S'2325'
p5808
tp5809
a(S'MPI_Wtime()'
p5810
S'2327'
p5811
tp5812
a(S'MPI_Wtime()'
p5813
S'2338'
p5814
tp5815
a(S'MPI_Wtime()'
p5816
S'2340'
p5817
tp5818
a(S'MPI_Wtime()'
p5819
S'2350'
p5820
tp5821
a(S'MPI_Wtime()'
p5822
S'2352'
p5823
tp5824
a(S'MPI_Wtime()'
p5825
S'2361'
p5826
tp5827
a(S'MPI_Wtime()'
p5828
S'2363'
p5829
tp5830
a(S'MPI_Wtime()'
p5831
S'2372'
p5832
tp5833
a(S'MPI_Wtime()'
p5834
S'2374'
p5835
tp5836
a(S'MPI_Wtime()'
p5837
S'2383'
p5838
tp5839
a(S'MPI_Wtime()'
p5840
S'2385'
p5841
tp5842
a(S'MPI_Wtime()'
p5843
S'2394'
p5844
tp5845
a(S'MPI_Wtime()'
p5846
S'2396'
p5847
tp5848
a(S'MPI_Wtime()'
p5849
S'2405'
p5850
tp5851
a(S'MPI_Wtime()'
p5852
S'2407'
p5853
tp5854
a(S'MPI_Wtime()'
p5855
S'2416'
p5856
tp5857
a(S'MPI_Wtime()'
p5858
S'2418'
p5859
tp5860
a(S'MPI_Wtime()'
p5861
S'2427'
p5862
tp5863
a(S'MPI_Wtime()'
p5864
S'2429'
p5865
tp5866
a(S'MPI_Wtime()'
p5867
S'2438'
p5868
tp5869
a(S'MPI_Wtime()'
p5870
S'2440'
p5871
tp5872
a(S'MPI_Wtime()'
p5873
S'2449'
p5874
tp5875
a(S'MPI_Wtime()'
p5876
S'2451'
p5877
tp5878
a(S'MPI_Wtime()'
p5879
S'2460'
p5880
tp5881
a(S'MPI_Wtime()'
p5882
S'2462'
p5883
tp5884
a(S'MPI_Wtime()'
p5885
S'2471'
p5886
tp5887
a(S'MPI_Wtime()'
p5888
S'2473'
p5889
tp5890
a(S'MPI_Wtime()'
p5891
S'2482'
p5892
tp5893
a(S'MPI_Wtime()'
p5894
S'2484'
p5895
tp5896
a(S'MPI_Wtime()'
p5897
S'2494'
p5898
tp5899
a(S'MPI_Wtime()'
p5900
S'2496'
p5901
tp5902
a(S'MPI_Wtime()'
p5903
S'2506'
p5904
tp5905
a(S'MPI_Wtime()'
p5906
S'2508'
p5907
tp5908
a(S'MPI_Wtime()'
p5909
S'2517'
p5910
tp5911
a(S'MPI_Wtime()'
p5912
S'2519'
p5913
tp5914
a(S'MPI_Wtime()'
p5915
S'2529'
p5916
tp5917
a(S'MPI_Wtime()'
p5918
S'2531'
p5919
tp5920
a(S'MPI_Wtime()'
p5921
S'2541'
p5922
tp5923
a(S'MPI_Wtime()'
p5924
S'2543'
p5925
tp5926
a(S'MPI_Wtime()'
p5927
S'2552'
p5928
tp5929
a(S'MPI_Wtime()'
p5930
S'2554'
p5931
tp5932
a(S'MPI_Wtime()'
p5933
S'2563'
p5934
tp5935
a(S'MPI_Wtime()'
p5936
S'2565'
p5937
tp5938
a(S'MPI_Wtime()'
p5939
S'2574'
p5940
tp5941
a(S'MPI_Wtime()'
p5942
S'2576'
p5943
tp5944
a(S'MPI_Wtime()'
p5945
S'2585'
p5946
tp5947
a(S'MPI_Wtime()'
p5948
S'2587'
p5949
tp5950
a(S'MPI_Wtime()'
p5951
S'2596'
p5952
tp5953
a(S'MPI_Wtime()'
p5954
S'2598'
p5955
tp5956
a(S'MPI_Wtime()'
p5957
S'2607'
p5958
tp5959
a(S'MPI_Wtime()'
p5960
S'2609'
p5961
tp5962
a(S'MPI_Wtime()'
p5963
S'2618'
p5964
tp5965
a(S'MPI_Wtime()'
p5966
S'2620'
p5967
tp5968
a(S'MPI_Wtime()'
p5969
S'2629'
p5970
tp5971
a(S'MPI_Wtime()'
p5972
S'2631'
p5973
tp5974
a(S'MPI_Wtime()'
p5975
S'2640'
p5976
tp5977
a(S'MPI_Wtime()'
p5978
S'2642'
p5979
tp5980
a(S'MPI_Wtime()'
p5981
S'2651'
p5982
tp5983
a(S'MPI_Wtime()'
p5984
S'2653'
p5985
tp5986
a(S'MPI_Wtime()'
p5987
S'2662'
p5988
tp5989
a(S'MPI_Wtime()'
p5990
S'2664'
p5991
tp5992
a(S'MPI_Wtime()'
p5993
S'2673'
p5994
tp5995
a(S'MPI_Wtime()'
p5996
S'2675'
p5997
tp5998
a(S'MPI_Wtime()'
p5999
S'2684'
p6000
tp6001
a(S'MPI_Wtime()'
p6002
S'2686'
p6003
tp6004
a(S'MPI_Wtime()'
p6005
S'2695'
p6006
tp6007
a(S'MPI_Wtime()'
p6008
S'2697'
p6009
tp6010
a(S'MPI_Wtime()'
p6011
S'2706'
p6012
tp6013
a(S'MPI_Wtime()'
p6014
S'2708'
p6015
tp6016
a(S'MPI_Wtime()'
p6017
S'2717'
p6018
tp6019
a(S'MPI_Wtime()'
p6020
S'2719'
p6021
tp6022
a(S'MPI_Wtime()'
p6023
S'2728'
p6024
tp6025
a(S'MPI_Wtime()'
p6026
S'2730'
p6027
tp6028
a(S'MPI_Wtime()'
p6029
S'2739'
p6030
tp6031
a(S'MPI_Wtime()'
p6032
S'2741'
p6033
tp6034
a(S'MPI_Wtime()'
p6035
S'2750'
p6036
tp6037
a(S'MPI_Wtime()'
p6038
S'2752'
p6039
tp6040
a(S'MPI_Wtime()'
p6041
S'2761'
p6042
tp6043
a(S'MPI_Wtime()'
p6044
S'2763'
p6045
tp6046
a(S'MPI_Wtime()'
p6047
S'2772'
p6048
tp6049
a(S'MPI_Wtime()'
p6050
S'2774'
p6051
tp6052
a(S'MPI_Wtime()'
p6053
S'2783'
p6054
tp6055
a(S'MPI_Wtime()'
p6056
S'2785'
p6057
tp6058
a(S'MPI_Wtime()'
p6059
S'2794'
p6060
tp6061
a(S'MPI_Wtime()'
p6062
S'2796'
p6063
tp6064
a(S'MPI_Wtime()'
p6065
S'2805'
p6066
tp6067
a(S'MPI_Wtime()'
p6068
S'2807'
p6069
tp6070
a(S'MPI_Wtime()'
p6071
S'2816'
p6072
tp6073
a(S'MPI_Wtime()'
p6074
S'2818'
p6075
tp6076
a(S'MPI_Wtime()'
p6077
S'2827'
p6078
tp6079
a(S'MPI_Wtime()'
p6080
S'2829'
p6081
tp6082
a(S'MPI_Wtime()'
p6083
S'2838'
p6084
tp6085
a(S'MPI_Wtime()'
p6086
S'2840'
p6087
tp6088
a(S'MPI_Wtime()'
p6089
S'2849'
p6090
tp6091
a(S'MPI_Wtime()'
p6092
S'2851'
p6093
tp6094
a(S'MPI_Wtime()'
p6095
S'2860'
p6096
tp6097
a(S'MPI_Wtime()'
p6098
S'2862'
p6099
tp6100
a(S'MPI_Wtime()'
p6101
S'2871'
p6102
tp6103
a(S'MPI_Wtime()'
p6104
S'2873'
p6105
tp6106
a(S'MPI_Wtime()'
p6107
S'2883'
p6108
tp6109
a(S'MPI_Wtime()'
p6110
S'2885'
p6111
tp6112
a(S'MPI_Wtime()'
p6113
S'2895'
p6114
tp6115
a(S'MPI_Wtime()'
p6116
S'2897'
p6117
tp6118
a(S'MPI_Wtime()'
p6119
S'2906'
p6120
tp6121
a(S'MPI_Wtime()'
p6122
S'2908'
p6123
tp6124
a(S'MPI_Wtime()'
p6125
S'2917'
p6126
tp6127
a(S'MPI_Wtime()'
p6128
S'2919'
p6129
tp6130
a(S'MPI_Wtime()'
p6131
S'2928'
p6132
tp6133
a(S'MPI_Wtime()'
p6134
S'2930'
p6135
tp6136
a(S'MPI_Wtime()'
p6137
S'2939'
p6138
tp6139
a(S'MPI_Wtime()'
p6140
S'2941'
p6141
tp6142
a(S'MPI_Wtime()'
p6143
S'2950'
p6144
tp6145
a(S'MPI_Wtime()'
p6146
S'2952'
p6147
tp6148
a(S'MPI_Wtime()'
p6149
S'2961'
p6150
tp6151
a(S'MPI_Wtime()'
p6152
S'2963'
p6153
tp6154
a(S'MPI_Wtime()'
p6155
S'2973'
p6156
tp6157
a(S'MPI_Wtime()'
p6158
S'2975'
p6159
tp6160
a(S'MPI_Wtime()'
p6161
S'2986'
p6162
tp6163
a(S'MPI_Wtime()'
p6164
S'2988'
p6165
tp6166
a(S'MPI_Wtime()'
p6167
S'2998'
p6168
tp6169
a(S'MPI_Wtime()'
p6170
S'3000'
p6171
tp6172
a(S'MPI_Wtime()'
p6173
S'3010'
p6174
tp6175
a(S'MPI_Wtime()'
p6176
S'3012'
p6177
tp6178
a(S'MPI_Wtime()'
p6179
S'3023'
p6180
tp6181
a(S'MPI_Wtime()'
p6182
S'3025'
p6183
tp6184
a(S'MPI_Wtime()'
p6185
S'3035'
p6186
tp6187
a(S'MPI_Wtime()'
p6188
S'3037'
p6189
tp6190
a(S'MPI_Wtime()'
p6191
S'3046'
p6192
tp6193
a(S'MPI_Wtime()'
p6194
S'3048'
p6195
tp6196
a(S'MPI_Wtime()'
p6197
S'3057'
p6198
tp6199
a(S'MPI_Wtime()'
p6200
S'3059'
p6201
tp6202
a(S'MPI_Wtime()'
p6203
S'3068'
p6204
tp6205
a(S'MPI_Wtime()'
p6206
S'3070'
p6207
tp6208
a(S'MPI_Wtime()'
p6209
S'3079'
p6210
tp6211
a(S'MPI_Wtime()'
p6212
S'3081'
p6213
tp6214
a(S'MPI_Wtime()'
p6215
S'3090'
p6216
tp6217
a(S'MPI_Wtime()'
p6218
S'3092'
p6219
tp6220
a(S'MPI_Wtime()'
p6221
S'3101'
p6222
tp6223
a(S'MPI_Wtime()'
p6224
S'3103'
p6225
tp6226
a(S'MPI_Wtime()'
p6227
S'3112'
p6228
tp6229
a(S'MPI_Wtime()'
p6230
S'3114'
p6231
tp6232
a(S'MPI_Wtime()'
p6233
S'3123'
p6234
tp6235
a(S'MPI_Wtime()'
p6236
S'3125'
p6237
tp6238
a(S'MPI_Wtime()'
p6239
S'3134'
p6240
tp6241
a(S'MPI_Wtime()'
p6242
S'3136'
p6243
tp6244
a(S'MPI_Wtime()'
p6245
S'3145'
p6246
tp6247
a(S'MPI_Wtime()'
p6248
S'3147'
p6249
tp6250
a(S'MPI_Wtime()'
p6251
S'3157'
p6252
tp6253
a(S'MPI_Wtime()'
p6254
S'3159'
p6255
tp6256
a(S'MPI_Wtime()'
p6257
S'3170'
p6258
tp6259
a(S'MPI_Wtime()'
p6260
S'3172'
p6261
tp6262
a(S'MPI_Wtime()'
p6263
S'3182'
p6264
tp6265
a(S'MPI_Wtime()'
p6266
S'3184'
p6267
tp6268
a(S'MPI_Wtime()'
p6269
S'3194'
p6270
tp6271
a(S'MPI_Wtime()'
p6272
S'3196'
p6273
tp6274
a(S'MPI_Wtime()'
p6275
S'3207'
p6276
tp6277
a(S'MPI_Wtime()'
p6278
S'3209'
p6279
tp6280
a(S'MPI_Wtime()'
p6281
S'3219'
p6282
tp6283
a(S'MPI_Wtime()'
p6284
S'3221'
p6285
tp6286
a(S'MPI_Wtime()'
p6287
S'3230'
p6288
tp6289
a(S'MPI_Wtime()'
p6290
S'3232'
p6291
tp6292
a(S'MPI_Wtime()'
p6293
S'3241'
p6294
tp6295
a(S'MPI_Wtime()'
p6296
S'3243'
p6297
tp6298
a(S'MPI_Wtime()'
p6299
S'3253'
p6300
tp6301
a(S'MPI_Wtime()'
p6302
S'3255'
p6303
tp6304
a(S'MPI_Wtime()'
p6305
S'3266'
p6306
tp6307
a(S'MPI_Wtime()'
p6308
S'3268'
p6309
tp6310
a(S'MPI_Wtime()'
p6311
S'3279'
p6312
tp6313
a(S'MPI_Wtime()'
p6314
S'3281'
p6315
tp6316
a(S'MPI_Wtime()'
p6317
S'3292'
p6318
tp6319
a(S'MPI_Wtime()'
p6320
S'3294'
p6321
tp6322
a(S'MPI_Wtime()'
p6323
S'3305'
p6324
tp6325
a(S'MPI_Wtime()'
p6326
S'3307'
p6327
tp6328
a(S'MPI_Wtime()'
p6329
S'3318'
p6330
tp6331
a(S'MPI_Wtime()'
p6332
S'3320'
p6333
tp6334
a(S'MPI_Wtime()'
p6335
S'3331'
p6336
tp6337
a(S'MPI_Wtime()'
p6338
S'3333'
p6339
tp6340
a(S'MPI_Wtime()'
p6341
S'3344'
p6342
tp6343
a(S'MPI_Wtime()'
p6344
S'3346'
p6345
tp6346
a(S'MPI_Wtime()'
p6347
S'3357'
p6348
tp6349
a(S'MPI_Wtime()'
p6350
S'3359'
p6351
tp6352
a(S'MPI_Wtime()'
p6353
S'3369'
p6354
tp6355
a(S'MPI_Wtime()'
p6356
S'3371'
p6357
tp6358
a(S'MPI_Wtime()'
p6359
S'3380'
p6360
tp6361
a(S'MPI_Wtime()'
p6362
S'3382'
p6363
tp6364
a(S'MPI_Wtime()'
p6365
S'3392'
p6366
tp6367
a(S'MPI_Wtime()'
p6368
S'3394'
p6369
tp6370
a(S'MPI_Wtime()'
p6371
S'3405'
p6372
tp6373
a(S'MPI_Wtime()'
p6374
S'3407'
p6375
tp6376
a(S'MPI_Wtime()'
p6377
S'3418'
p6378
tp6379
a(S'MPI_Wtime()'
p6380
S'3420'
p6381
tp6382
a(S'MPI_Wtime()'
p6383
S'3431'
p6384
tp6385
a(S'MPI_Wtime()'
p6386
S'3433'
p6387
tp6388
a(S'MPI_Wtime()'
p6389
S'3444'
p6390
tp6391
a(S'MPI_Wtime()'
p6392
S'3446'
p6393
tp6394
a(S'MPI_Wtime()'
p6395
S'3456'
p6396
tp6397
a(S'MPI_Wtime()'
p6398
S'3458'
p6399
tp6400
a(S'MPI_Wtime()'
p6401
S'3467'
p6402
tp6403
a(S'MPI_Wtime()'
p6404
S'3469'
p6405
tp6406
a(S'MPI_Wtime()'
p6407
S'3478'
p6408
tp6409
a(S'MPI_Wtime()'
p6410
S'3480'
p6411
tp6412
a(S'MPI_Comm_rank()'
p6413
S'3488'
p6414
tp6415
a(S'MPI_Comm_size()'
p6416
S'3489'
p6417
tp6418
a(S'MPI_Comm_rank()'
p6419
S'3496'
p6420
tp6421
a(S'MPI_Comm_size()'
p6422
S'3497'
p6423
tp6424
a(S'MPI_Reduce()'
p6425
S'3509'
p6426
tp6427
a(S'MPI_Reduce()'
p6428
S'3514'
p6429
tp6430
a(S'MPI_Reduce()'
p6431
S'3519'
p6432
tp6433
a(S'MPI_Reduce()'
p6434
S'3524'
p6435
tp6436
a(S'MPI_Reduce()'
p6437
S'3529'
p6438
tp6439
a(S'MPI_Reduce()'
p6440
S'3534'
p6441
tp6442
a(S'MPI_Reduce()'
p6443
S'3539'
p6444
tp6445
a(S'MPI_Reduce()'
p6446
S'3544'
p6447
tp6448
a(S'MPI_Reduce()'
p6449
S'3549'
p6450
tp6451
a(S'MPI_Reduce()'
p6452
S'3554'
p6453
tp6454
a(S'MPI_Reduce()'
p6455
S'3559'
p6456
tp6457
a(S'MPI_Reduce()'
p6458
S'3564'
p6459
tp6460
a(S'MPI_Reduce()'
p6461
S'3569'
p6462
tp6463
a(S'MPI_Reduce()'
p6464
S'3574'
p6465
tp6466
a(S'MPI_Reduce()'
p6467
S'3579'
p6468
tp6469
a(S'MPI_Reduce()'
p6470
S'3584'
p6471
tp6472
a(S'MPI_Reduce()'
p6473
S'3589'
p6474
tp6475
a(S'MPI_Reduce()'
p6476
S'3594'
p6477
tp6478
a(S'MPI_Reduce()'
p6479
S'3599'
p6480
tp6481
a(S'MPI_Reduce()'
p6482
S'3604'
p6483
tp6484
a(S'MPI_Reduce()'
p6485
S'3609'
p6486
tp6487
a(S'MPI_Reduce()'
p6488
S'3614'
p6489
tp6490
a(S'MPI_Reduce()'
p6491
S'3619'
p6492
tp6493
a(S'MPI_Reduce()'
p6494
S'3624'
p6495
tp6496
a(S'MPI_Reduce()'
p6497
S'3629'
p6498
tp6499
a(S'MPI_Reduce()'
p6500
S'3634'
p6501
tp6502
a(S'MPI_Reduce()'
p6503
S'3639'
p6504
tp6505
a(S'MPI_Reduce()'
p6506
S'3644'
p6507
tp6508
a(S'MPI_Reduce()'
p6509
S'3649'
p6510
tp6511
a(S'MPI_Reduce()'
p6512
S'3654'
p6513
tp6514
a(S'MPI_Reduce()'
p6515
S'3659'
p6516
tp6517
a(S'MPI_Reduce()'
p6518
S'3664'
p6519
tp6520
a(S'MPI_Reduce()'
p6521
S'3669'
p6522
tp6523
a(S'MPI_Reduce()'
p6524
S'3674'
p6525
tp6526
a(S'MPI_Reduce()'
p6527
S'3679'
p6528
tp6529
a(S'MPI_Reduce()'
p6530
S'3684'
p6531
tp6532
a(S'MPI_Reduce()'
p6533
S'3689'
p6534
tp6535
a(S'MPI_Reduce()'
p6536
S'3694'
p6537
tp6538
a(S'MPI_Reduce()'
p6539
S'3699'
p6540
tp6541
a(S'MPI_Reduce()'
p6542
S'3704'
p6543
tp6544
a(S'MPI_Reduce()'
p6545
S'3709'
p6546
tp6547
a(S'MPI_Reduce()'
p6548
S'3714'
p6549
tp6550
a(S'MPI_Reduce()'
p6551
S'3719'
p6552
tp6553
a(S'MPI_Reduce()'
p6554
S'3724'
p6555
tp6556
a(S'MPI_Reduce()'
p6557
S'3729'
p6558
tp6559
a(S'MPI_Reduce()'
p6560
S'3734'
p6561
tp6562
a(S'MPI_Reduce()'
p6563
S'3739'
p6564
tp6565
a(S'MPI_Reduce()'
p6566
S'3744'
p6567
tp6568
a(S'MPI_Reduce()'
p6569
S'3749'
p6570
tp6571
a(S'MPI_Reduce()'
p6572
S'3754'
p6573
tp6574
a(S'MPI_Reduce()'
p6575
S'3759'
p6576
tp6577
a(S'MPI_Reduce()'
p6578
S'3764'
p6579
tp6580
a(S'MPI_Reduce()'
p6581
S'3769'
p6582
tp6583
a(S'MPI_Reduce()'
p6584
S'3774'
p6585
tp6586
a(S'MPI_Reduce()'
p6587
S'3779'
p6588
tp6589
a(S'MPI_Reduce()'
p6590
S'3784'
p6591
tp6592
a(S'MPI_Reduce()'
p6593
S'3789'
p6594
tp6595
a(S'MPI_Reduce()'
p6596
S'3794'
p6597
tp6598
a(S'MPI_Reduce()'
p6599
S'3799'
p6600
tp6601
a(S'MPI_Reduce()'
p6602
S'3804'
p6603
tp6604
a(S'MPI_Reduce()'
p6605
S'3809'
p6606
tp6607
a(S'MPI_Reduce()'
p6608
S'3814'
p6609
tp6610
a(S'MPI_Reduce()'
p6611
S'3819'
p6612
tp6613
a(S'MPI_Reduce()'
p6614
S'3824'
p6615
tp6616
a(S'MPI_Reduce()'
p6617
S'3829'
p6618
tp6619
a(S'MPI_Reduce()'
p6620
S'3834'
p6621
tp6622
a(S'MPI_Reduce()'
p6623
S'3839'
p6624
tp6625
a(S'MPI_Reduce()'
p6626
S'3844'
p6627
tp6628
a(S'MPI_Reduce()'
p6629
S'3849'
p6630
tp6631
a(S'MPI_Reduce()'
p6632
S'3854'
p6633
tp6634
a(S'MPI_Reduce()'
p6635
S'3859'
p6636
tp6637
a(S'MPI_Reduce()'
p6638
S'3864'
p6639
tp6640
a(S'MPI_Reduce()'
p6641
S'3869'
p6642
tp6643
a(S'MPI_Reduce()'
p6644
S'3874'
p6645
tp6646
a(S'MPI_Reduce()'
p6647
S'3879'
p6648
tp6649
a(S'MPI_Reduce()'
p6650
S'3884'
p6651
tp6652
a(S'MPI_Reduce()'
p6653
S'3889'
p6654
tp6655
a(S'MPI_Reduce()'
p6656
S'3894'
p6657
tp6658
a(S'MPI_Reduce()'
p6659
S'3899'
p6660
tp6661
a(S'MPI_Reduce()'
p6662
S'3904'
p6663
tp6664
a(S'MPI_Reduce()'
p6665
S'3909'
p6666
tp6667
a(S'MPI_Reduce()'
p6668
S'3914'
p6669
tp6670
a(S'MPI_Reduce()'
p6671
S'3919'
p6672
tp6673
a(S'MPI_Reduce()'
p6674
S'3924'
p6675
tp6676
a(S'MPI_Reduce()'
p6677
S'3929'
p6678
tp6679
a(S'MPI_Reduce()'
p6680
S'3934'
p6681
tp6682
a(S'MPI_Reduce()'
p6683
S'3939'
p6684
tp6685
a(S'MPI_Reduce()'
p6686
S'3944'
p6687
tp6688
a(S'MPI_Reduce()'
p6689
S'3949'
p6690
tp6691
a(S'MPI_Reduce()'
p6692
S'3954'
p6693
tp6694
a(S'MPI_Reduce()'
p6695
S'3959'
p6696
tp6697
a(S'MPI_Reduce()'
p6698
S'3964'
p6699
tp6700
a(S'MPI_Reduce()'
p6701
S'3969'
p6702
tp6703
a(S'MPI_Reduce()'
p6704
S'3974'
p6705
tp6706
a(S'MPI_Reduce()'
p6707
S'3979'
p6708
tp6709
a(S'MPI_Reduce()'
p6710
S'3984'
p6711
tp6712
a(S'MPI_Reduce()'
p6713
S'3989'
p6714
tp6715
a(S'MPI_Reduce()'
p6716
S'3994'
p6717
tp6718
a(S'MPI_Reduce()'
p6719
S'3999'
p6720
tp6721
a(S'MPI_Reduce()'
p6722
S'4004'
p6723
tp6724
a(S'MPI_Reduce()'
p6725
S'4009'
p6726
tp6727
a(S'MPI_Reduce()'
p6728
S'4014'
p6729
tp6730
a(S'MPI_Reduce()'
p6731
S'4019'
p6732
tp6733
a(S'MPI_Reduce()'
p6734
S'4024'
p6735
tp6736
a(S'MPI_Reduce()'
p6737
S'4029'
p6738
tp6739
a(S'MPI_Reduce()'
p6740
S'4034'
p6741
tp6742
a(S'MPI_Reduce()'
p6743
S'4039'
p6744
tp6745
a(S'MPI_Reduce()'
p6746
S'4044'
p6747
tp6748
a(S'MPI_Reduce()'
p6749
S'4049'
p6750
tp6751
a(S'MPI_Reduce()'
p6752
S'4054'
p6753
tp6754
a(S'MPI_Reduce()'
p6755
S'4059'
p6756
tp6757
a(S'MPI_Reduce()'
p6758
S'4064'
p6759
tp6760
a(S'MPI_Reduce()'
p6761
S'4069'
p6762
tp6763
a(S'MPI_Reduce()'
p6764
S'4074'
p6765
tp6766
a(S'MPI_Reduce()'
p6767
S'4079'
p6768
tp6769
a(S'MPI_Reduce()'
p6770
S'4084'
p6771
tp6772
a(S'MPI_Reduce()'
p6773
S'4089'
p6774
tp6775
a(S'MPI_Reduce()'
p6776
S'4094'
p6777
tp6778
a(S'MPI_Reduce()'
p6779
S'4099'
p6780
tp6781
a(S'MPI_Reduce()'
p6782
S'4104'
p6783
tp6784
a(S'MPI_Reduce()'
p6785
S'4109'
p6786
tp6787
a(S'MPI_Reduce()'
p6788
S'4114'
p6789
tp6790
a(S'MPI_Reduce()'
p6791
S'4119'
p6792
tp6793
a(S'MPI_Reduce()'
p6794
S'4124'
p6795
tp6796
a(S'MPI_Reduce()'
p6797
S'4129'
p6798
tp6799
a(S'MPI_Reduce()'
p6800
S'4134'
p6801
tp6802
a(S'MPI_Reduce()'
p6803
S'4139'
p6804
tp6805
a(S'MPI_Reduce()'
p6806
S'4144'
p6807
tp6808
a(S'MPI_Reduce()'
p6809
S'4149'
p6810
tp6811
a(S'MPI_Reduce()'
p6812
S'4154'
p6813
tp6814
a(S'MPI_Reduce()'
p6815
S'4159'
p6816
tp6817
a(S'MPI_Reduce()'
p6818
S'4164'
p6819
tp6820
a(S'MPI_Reduce()'
p6821
S'4169'
p6822
tp6823
a(S'MPI_Reduce()'
p6824
S'4174'
p6825
tp6826
a(S'MPI_Reduce()'
p6827
S'4179'
p6828
tp6829
a(S'MPI_Reduce()'
p6830
S'4184'
p6831
tp6832
a(S'MPI_Reduce()'
p6833
S'4189'
p6834
tp6835
a(S'MPI_Reduce()'
p6836
S'4194'
p6837
tp6838
a(S'MPI_Reduce()'
p6839
S'4199'
p6840
tp6841
a(S'MPI_Reduce()'
p6842
S'4204'
p6843
tp6844
a(S'MPI_Reduce()'
p6845
S'4209'
p6846
tp6847
a(S'MPI_Reduce()'
p6848
S'4214'
p6849
tp6850
a(S'MPI_Reduce()'
p6851
S'4219'
p6852
tp6853
a(S'MPI_Reduce()'
p6854
S'4224'
p6855
tp6856
a(S'MPI_Reduce()'
p6857
S'4229'
p6858
tp6859
a(S'MPI_Reduce()'
p6860
S'4234'
p6861
tp6862
a(S'MPI_Reduce()'
p6863
S'4239'
p6864
tp6865
a(S'MPI_Reduce()'
p6866
S'4244'
p6867
tp6868
a(S'MPI_Reduce()'
p6869
S'4249'
p6870
tp6871
a(S'MPI_Reduce()'
p6872
S'4254'
p6873
tp6874
a(S'MPI_Reduce()'
p6875
S'4259'
p6876
tp6877
a(S'MPI_Reduce()'
p6878
S'4264'
p6879
tp6880
a(S'MPI_Reduce()'
p6881
S'4269'
p6882
tp6883
a(S'MPI_Reduce()'
p6884
S'4274'
p6885
tp6886
a(S'MPI_Reduce()'
p6887
S'4279'
p6888
tp6889
a(S'MPI_Reduce()'
p6890
S'4284'
p6891
tp6892
a(S'MPI_Reduce()'
p6893
S'4289'
p6894
tp6895
a(S'MPI_Reduce()'
p6896
S'4294'
p6897
tp6898
a(S'MPI_Reduce()'
p6899
S'4299'
p6900
tp6901
a(S'MPI_Reduce()'
p6902
S'4304'
p6903
tp6904
a(S'MPI_Reduce()'
p6905
S'4309'
p6906
tp6907
a(S'MPI_Reduce()'
p6908
S'4314'
p6909
tp6910
a(S'MPI_Reduce()'
p6911
S'4319'
p6912
tp6913
a(S'MPI_Reduce()'
p6914
S'4324'
p6915
tp6916
a(S'MPI_Reduce()'
p6917
S'4329'
p6918
tp6919
a(S'MPI_Reduce()'
p6920
S'4334'
p6921
tp6922
a(S'MPI_Reduce()'
p6923
S'4339'
p6924
tp6925
a(S'MPI_Reduce()'
p6926
S'4344'
p6927
tp6928
a(S'MPI_Reduce()'
p6929
S'4349'
p6930
tp6931
a(S'MPI_Reduce()'
p6932
S'4354'
p6933
tp6934
a(S'MPI_Reduce()'
p6935
S'4359'
p6936
tp6937
a(S'MPI_Reduce()'
p6938
S'4364'
p6939
tp6940
a(S'MPI_Reduce()'
p6941
S'4369'
p6942
tp6943
a(S'MPI_Reduce()'
p6944
S'4374'
p6945
tp6946
a(S'MPI_Reduce()'
p6947
S'4379'
p6948
tp6949
a(S'MPI_Reduce()'
p6950
S'4384'
p6951
tp6952
a(S'MPI_Reduce()'
p6953
S'4389'
p6954
tp6955
a(S'MPI_Reduce()'
p6956
S'4394'
p6957
tp6958
a(S'MPI_Reduce()'
p6959
S'4399'
p6960
tp6961
a(S'MPI_Reduce()'
p6962
S'4404'
p6963
tp6964
a(S'MPI_Reduce()'
p6965
S'4409'
p6966
tp6967
a(S'MPI_Reduce()'
p6968
S'4414'
p6969
tp6970
a(S'MPI_Reduce()'
p6971
S'4419'
p6972
tp6973
a(S'MPI_Reduce()'
p6974
S'4424'
p6975
tp6976
a(S'MPI_Reduce()'
p6977
S'4429'
p6978
tp6979
a(S'MPI_Reduce()'
p6980
S'4434'
p6981
tp6982
a(S'MPI_Reduce()'
p6983
S'4439'
p6984
tp6985
a(S'MPI_Reduce()'
p6986
S'4444'
p6987
tp6988
a(S'MPI_Reduce()'
p6989
S'4449'
p6990
tp6991
a(S'MPI_Reduce()'
p6992
S'4454'
p6993
tp6994
a(S'MPI_Reduce()'
p6995
S'4459'
p6996
tp6997
a(S'MPI_Reduce()'
p6998
S'4464'
p6999
tp7000
a(S'MPI_Reduce()'
p7001
S'4469'
p7002
tp7003
a(S'MPI_Reduce()'
p7004
S'4474'
p7005
tp7006
a(S'MPI_Reduce()'
p7007
S'4479'
p7008
tp7009
a(S'MPI_Reduce()'
p7010
S'4484'
p7011
tp7012
a(S'MPI_Reduce()'
p7013
S'4489'
p7014
tp7015
a(S'MPI_Reduce()'
p7016
S'4494'
p7017
tp7018
a(S'MPI_Reduce()'
p7019
S'4499'
p7020
tp7021
a(S'MPI_Reduce()'
p7022
S'4504'
p7023
tp7024
a(S'MPI_Reduce()'
p7025
S'4509'
p7026
tp7027
a(S'MPI_Reduce()'
p7028
S'4514'
p7029
tp7030
a(S'MPI_Reduce()'
p7031
S'4519'
p7032
tp7033
a(S'MPI_Reduce()'
p7034
S'4524'
p7035
tp7036
a(S'MPI_Reduce()'
p7037
S'4529'
p7038
tp7039
a(S'MPI_Reduce()'
p7040
S'4534'
p7041
tp7042
a(S'MPI_Reduce()'
p7043
S'4539'
p7044
tp7045
a(S'MPI_Reduce()'
p7046
S'4544'
p7047
tp7048
a(S'MPI_Reduce()'
p7049
S'4549'
p7050
tp7051
a(S'MPI_Reduce()'
p7052
S'4554'
p7053
tp7054
a(S'MPI_Reduce()'
p7055
S'4559'
p7056
tp7057
a(S'MPI_Reduce()'
p7058
S'4564'
p7059
tp7060
a(S'MPI_Reduce()'
p7061
S'4569'
p7062
tp7063
a(S'MPI_Reduce()'
p7064
S'4574'
p7065
tp7066
a(S'MPI_Reduce()'
p7067
S'4579'
p7068
tp7069
a(S'MPI_Reduce()'
p7070
S'4584'
p7071
tp7072
a(S'MPI_Reduce()'
p7073
S'4589'
p7074
tp7075
a(S'MPI_Reduce()'
p7076
S'4594'
p7077
tp7078
a(S'MPI_Reduce()'
p7079
S'4599'
p7080
tp7081
a(S'MPI_Reduce()'
p7082
S'4604'
p7083
tp7084
a(S'MPI_Reduce()'
p7085
S'4609'
p7086
tp7087
a(S'MPI_Reduce()'
p7088
S'4614'
p7089
tp7090
a(S'MPI_Reduce()'
p7091
S'4619'
p7092
tp7093
a(S'MPI_Reduce()'
p7094
S'4624'
p7095
tp7096
a(S'MPI_Reduce()'
p7097
S'4629'
p7098
tp7099
a(S'MPI_Reduce()'
p7100
S'4634'
p7101
tp7102
a(S'MPI_Reduce()'
p7103
S'4639'
p7104
tp7105
a(S'MPI_Reduce()'
p7106
S'4644'
p7107
tp7108
a(S'MPI_Reduce()'
p7109
S'4649'
p7110
tp7111
a(S'MPI_Reduce()'
p7112
S'4654'
p7113
tp7114
a(S'MPI_Reduce()'
p7115
S'4659'
p7116
tp7117
a(S'MPI_Reduce()'
p7118
S'4664'
p7119
tp7120
a(S'MPI_Reduce()'
p7121
S'4669'
p7122
tp7123
a(S'MPI_Reduce()'
p7124
S'4674'
p7125
tp7126
a(S'MPI_Reduce()'
p7127
S'4679'
p7128
tp7129
a(S'MPI_Reduce()'
p7130
S'4684'
p7131
tp7132
a(S'MPI_Reduce()'
p7133
S'4689'
p7134
tp7135
a(S'MPI_Reduce()'
p7136
S'4694'
p7137
tp7138
a(S'MPI_Reduce()'
p7139
S'4699'
p7140
tp7141
a(S'MPI_Reduce()'
p7142
S'4704'
p7143
tp7144
a(S'MPI_Reduce()'
p7145
S'4709'
p7146
tp7147
a(S'MPI_Reduce()'
p7148
S'4714'
p7149
tp7150
a(S'MPI_Reduce()'
p7151
S'4719'
p7152
tp7153
a(S'MPI_Reduce()'
p7154
S'4724'
p7155
tp7156
a(S'MPI_Reduce()'
p7157
S'4729'
p7158
tp7159
a(S'MPI_Reduce()'
p7160
S'4734'
p7161
tp7162
a(S'MPI_Reduce()'
p7163
S'4739'
p7164
tp7165
a(S'MPI_Reduce()'
p7166
S'4744'
p7167
tp7168
a(S'MPI_Reduce()'
p7169
S'4749'
p7170
tp7171
a(S'MPI_Reduce()'
p7172
S'4754'
p7173
tp7174
a(S'MPI_Reduce()'
p7175
S'4759'
p7176
tp7177
a(S'MPI_Reduce()'
p7178
S'4764'
p7179
tp7180
a(S'MPI_Reduce()'
p7181
S'4769'
p7182
tp7183
a(S'MPI_Reduce()'
p7184
S'4774'
p7185
tp7186
a(S'MPI_Reduce()'
p7187
S'4779'
p7188
tp7189
a(S'MPI_Reduce()'
p7190
S'4784'
p7191
tp7192
a(S'MPI_Reduce()'
p7193
S'4789'
p7194
tp7195
asS'lotsofcoresbook1code/Pearls1_Chapter26/Pearl/ooc_solver/scalapack/REDIST/TESTING/pitrmrdrv.c'
p7196
(lp7197
(S'MPI_Init()'
p7198
S'273'
p7199
tp7200
asS'lotsofcoresbook1code/Pearls1_Chapter13/Pearl/src/opt/lbs3d-mpi/vgrid.F90'
p7201
(lp7202
(S'MPI_CART_CREATE()'
p7203
S'66'
p7204
tp7205
a(S'MPI_COMM_RANK()'
p7206
S'69'
p7207
tp7208
a(S'MPI_CART_COORDS()'
p7209
S'70'
p7210
tp7211
a(S'MPI_CART_SHIFT()'
p7212
S'123'
p7213
tp7214
a(S'MPI_CART_SHIFT()'
p7215
S'125'
p7216
tp7217
a(S'MPI_CART_SHIFT()'
p7218
S'127'
p7219
tp7220
a(S'MPI_CART_COORDS()'
p7221
S'130'
p7222
tp7223
a(S'MPI_CART_COORDS()'
p7224
S'132'
p7225
tp7226
a(S'MPI_CART_COORDS()'
p7227
S'134'
p7228
tp7229
a(S'MPI_CART_COORDS()'
p7230
S'136'
p7231
tp7232
a(S'MPI_CART_COORDS()'
p7233
S'138'
p7234
tp7235
a(S'MPI_CART_COORDS()'
p7236
S'140'
p7237
tp7238
a(S'MPI_CART_RANK()'
p7239
S'148'
p7240
tp7241
a(S'MPI_CART_RANK()'
p7242
S'152'
p7243
tp7244
a(S'MPI_CART_RANK()'
p7245
S'156'
p7246
tp7247
a(S'MPI_CART_RANK()'
p7248
S'160'
p7249
tp7250
a(S'MPI_CART_RANK()'
p7251
S'166'
p7252
tp7253
a(S'MPI_CART_RANK()'
p7254
S'170'
p7255
tp7256
a(S'MPI_CART_RANK()'
p7257
S'174'
p7258
tp7259
a(S'MPI_CART_RANK()'
p7260
S'178'
p7261
tp7262
a(S'MPI_CART_RANK()'
p7263
S'184'
p7264
tp7265
a(S'MPI_CART_RANK()'
p7266
S'188'
p7267
tp7268
a(S'MPI_CART_RANK()'
p7269
S'192'
p7270
tp7271
a(S'MPI_CART_RANK()'
p7272
S'196'
p7273
tp7274
asS'lotsofcoresbook1code/Pearls1_Chapter17/Pearl/src/tools/ga-5-3/armci/src-portals/groups.c'
p7275
(lp7276
(S'MPI_Comm_compare()'
p7277
S'87'
p7278
tp7279
a(S'MPI_Group_size()'
p7280
S'111'
p7281
tp7282
a(S'MPI_Comm_group()'
p7283
S'124'
p7284
tp7285
a(S'MPI_Group_translate_ranks()'
p7286
S'125'
p7287
tp7288
a(S'MPI_Comm_group()'
p7289
S'164'
p7290
tp7291
a(S'MPI_Group_translate_ranks()'
p7292
S'165'
p7293
tp7294
a(S'MPI_Comm_free()'
p7295
S'363'
p7296
tp7297
a(S'MPI_Group_rank()'
p7298
S'466'
p7299
tp7300
a(S'MPI_Comm_dup()'
p7301
S'472'
p7302
tp7303
a(S'MPI_Intercomm_create()'
p7304
S'481'
p7305
tp7306
a(S'MPI_Comm_free()'
p7307
S'482'
p7308
tp7309
a(S'MPI_Intercomm_merge()'
p7310
S'483'
p7311
tp7312
a(S'MPI_Comm_free()'
p7313
S'484'
p7314
tp7315
a(S'MPI_Group_free()'
p7316
S'491'
p7317
tp7318
a(S'MPI_Comm_group()'
p7319
S'492'
p7320
tp7321
a(S'MPI_Comm_group()'
p7322
S'539'
p7323
tp7324
a(S'MPI_Group_rank()'
p7325
S'542'
p7326
tp7327
asS'lotsofcoresbook1code/Pearls1_Chapter17/Pearl/src/tools/ga-5-3/armci/src/devices/mpi-mt/mpi2.h'
p7328
(lp7329
(S'X_MPI_SPAWN_DEBUG()'
p7330
g4277
tp7331
asS'lotsofcoresbook1code/Pearls1_Chapter26/Pearl/ooc_solver/scalapack/BLACS/SRC/sgamn2d_.c'
p7332
(lp7333
(S'X_MPI_Datatype()'
p7334
S'89'
p7335
tp7336
a(S'X_MPI_Datatype()'
p7337
S'92'
p7338
tp7339
asS'lotsofcoresbook1code/Pearls1_Chapter17/Pearl/src/tools/ga-5-3/global/testing/lock.c'
p7340
(lp7341
(S'MPI_Comm_rank()'
p7342
S'37'
p7343
tp7344
a(S'MPI_Comm_size()'
p7345
S'38'
p7346
tp7347
a(S'MPI_Finalize()'
p7348
S'139'
p7349
tp7350
asS'lotsofcoresbook1code/Pearls1_Chapter17/Pearl/src/tools/ga-5-3/global/testing/unit-tests/ga_set_diagonal.c'
p7351
(lp7352
(S'MPI_Init()'
p7353
S'26'
p7354
tp7355
a(S'MPI_Comm_rank()'
p7356
S'28'
p7357
tp7358
a(S'MPI_Comm_size()'
p7359
S'29'
p7360
tp7361
a(S'MPI_Finalize()'
p7362
S'55'
p7363
tp7364
asS'lotsofcoresbook1code/Pearls1_Chapter17/Pearl/src/tools/ga-5-3/global/testing/unit-tests/ga_elem_maximumpatch.c'
p7365
(lp7366
(S'MPI_Init()'
p7367
S'24'
p7368
tp7369
a(S'MPI_Comm_rank()'
p7370
S'26'
p7371
tp7372
a(S'MPI_Comm_size()'
p7373
S'27'
p7374
tp7375
a(S'MPI_Finalize()'
p7376
S'70'
p7377
tp7378
asS'lotsofcoresbook1code/Pearls1_Chapter26/Pearl/ooc_solver/scalapack/BLACS/SRC/ztrrv2d_.c'
p7379
(lp7380
(S'X_MPI_Datatype()'
p7381
S'67'
p7382
tp7383
a(S'X_MPI_DOUBLE_COMPLEX()'
p7384
S'95'
p7385
tp7386
asS'lotsofcoresbook1code/Pearls1_Chapter17/Pearl/src/tools/ga-5-3/global/testing/unit-tests/ga_sync.c'
p7387
(lp7388
(S'MPI_Init()'
p7389
S'21'
p7390
tp7391
a(S'MPI_Comm_rank()'
p7392
S'23'
p7393
tp7394
a(S'MPI_Comm_size()'
p7395
S'24'
p7396
tp7397
a(S'MPI_Finalize()'
p7398
S'44'
p7399
tp7400
asS'lotsofcoresbook1code/Pearls1_Chapter17/Pearl/src/tools/ga-5-3/armci/src/devices/openib/openib.c'
p7401
(lp7402
(S'MPI_Alltoall()'
p7403
S'1287'
p7404
tp7405
a(S'MPI_Alltoall()'
p7406
S'1371'
p7407
tp7408
a(S'MPI_Wtime()'
p7409
S'1591'
p7410
tp7411
a(S'MPI_Wtime()'
p7412
S'4375'
p7413
tp7414
a(S'MPI_Wtime()'
p7415
S'4414'
p7416
tp7417
a(S'MPI_Wtime()'
p7418
S'4454'
p7419
tp7420
a(S'MPI_Allgather()'
p7421
S'4723'
p7422
tp7423
a(S'MPI_Alltoall()'
p7424
S'4725'
p7425
tp7426
a(S'MPI_Barrier()'
p7427
S'4931'
p7428
tp7429
a(S'MPI_Barrier()'
p7430
S'4936'
p7431
tp7432
a(S'MPI_Wtime()'
p7433
S'5087'
p7434
tp7435
a(S'MPI_Wtime()'
p7436
S'5101'
p7437
tp7438
a(S'MPI_Wtime()'
p7439
S'5182'
p7440
tp7441
a(S'MPI_Wtime()'
p7442
S'5217'
p7443
tp7444
asS'lotsofcoresbook1code/Pearls1_Chapter17/Pearl/src/tools/ga-5-3/armci/src-gemini/armci_portals.c'
p7445
(lp7446
(S'MPI_Comm_size()'
p7447
S'502'
p7448
tp7449
a(S'MPI_Comm_rank()'
p7450
S'503'
p7451
tp7452
a(S'MPI_Barrier()'
p7453
S'512'
p7454
tp7455
a(S'MPI_Barrier()'
p7456
S'519'
p7457
tp7458
a(S'MPI_Barrier()'
p7459
S'537'
p7460
tp7461
a(S'MPI_Barrier()'
p7462
S'539'
p7463
tp7464
asS'lotsofcoresbook1code/Pearls1_Chapter26/Pearl/ooc_solver/scalapack/BLACS/SRC/dtrsd2d_.c'
p7465
(lp7466
(S'X_MPI_Datatype()'
p7467
S'62'
p7468
tp7469
a(S'X_MPI_DOUBLE()'
p7470
S'93'
p7471
tp7472
asS'lotsofcoresbook1code/Pearls1_Chapter08/Pearl/input.cpp'
p7473
(lp7474
(S'MPI_Comm_rank()'
p7475
S'55'
p7476
tp7477
a(S'MPI_Finalize()'
p7478
S'77'
p7479
tp7480
a(S'MPI_Finalize()'
p7481
S'99'
p7482
tp7483
a(S'MPI_Finalize()'
p7484
S'132'
p7485
tp7486
a(S'MPI_Finalize()'
p7487
S'154'
p7488
tp7489
a(S'MPI_Barrier()'
p7490
S'184'
p7491
tp7492
asS'lotsofcoresbook1code/Pearls1_Chapter13/Pearl/src/std/zsc-mpi/stats.F90'
p7493
(lp7494
(S'MPI_ALLREDUCE()'
p7495
S'96'
p7496
tp7497
a(S'MPI_FINALIZE()'
p7498
S'138'
p7499
tp7500
asS'lotsofcoresbook1code/Pearls1_Chapter13/Pearl/src/std/zsc-dgr-mpi/postcollision_g.F90'
p7501
(lp7502
(S'MPI_IRECV()'
p7503
S'117'
p7504
tp7505
a(S'MPI_SEND()'
p7506
S'118'
p7507
tp7508
a(S'MPI_WAIT()'
p7509
S'119'
p7510
tp7511
a(S'MPI_IRECV()'
p7512
S'121'
p7513
tp7514
a(S'MPI_SEND()'
p7515
S'122'
p7516
tp7517
a(S'MPI_WAIT()'
p7518
S'123'
p7519
tp7520
a(S'MPI_IRECV()'
p7521
S'126'
p7522
tp7523
a(S'MPI_SEND()'
p7524
S'127'
p7525
tp7526
a(S'MPI_WAIT()'
p7527
S'128'
p7528
tp7529
a(S'MPI_IRECV()'
p7530
S'130'
p7531
tp7532
a(S'MPI_SEND()'
p7533
S'131'
p7534
tp7535
a(S'MPI_WAIT()'
p7536
S'132'
p7537
tp7538
a(S'MPI_IRECV()'
p7539
S'135'
p7540
tp7541
a(S'MPI_SEND()'
p7542
S'136'
p7543
tp7544
a(S'MPI_WAIT()'
p7545
S'137'
p7546
tp7547
a(S'MPI_IRECV()'
p7548
S'139'
p7549
tp7550
a(S'MPI_SEND()'
p7551
S'140'
p7552
tp7553
a(S'MPI_WAIT()'
p7554
S'141'
p7555
tp7556
a(S'MPI_IRECV()'
p7557
S'143'
p7558
tp7559
a(S'MPI_SEND()'
p7560
S'144'
p7561
tp7562
a(S'MPI_WAIT()'
p7563
S'145'
p7564
tp7565
a(S'MPI_IRECV()'
p7566
S'147'
p7567
tp7568
a(S'MPI_SEND()'
p7569
S'148'
p7570
tp7571
a(S'MPI_WAIT()'
p7572
S'149'
p7573
tp7574
asS'lotsofcoresbook1code/Pearls1_Chapter17/Pearl/src/tools/ga-5-3/global/testing/unit-tests/ga_intialize.c'
p7575
(lp7576
(S'MPI_Init()'
p7577
S'21'
p7578
tp7579
a(S'MPI_Comm_rank()'
p7580
S'23'
p7581
tp7582
a(S'MPI_Comm_size()'
p7583
S'24'
p7584
tp7585
a(S'MPI_Finalize()'
p7586
S'41'
p7587
tp7588
asS'lotsofcoresbook1code/Pearls1_Chapter17/Pearl/src/tools/ga-5-3/tcgmsg/tcgmsg-mpi/collect.c'
p7589
(lp7590
(S'MPI_Reduce()'
p7591
S'49'
p7592
tp7593
a(S'MPI_Reduce()'
p7594
S'51'
p7595
tp7596
a(S'MPI_Reduce()'
p7597
S'53'
p7598
tp7599
a(S'MPI_Reduce()'
p7600
S'56'
p7601
tp7602
a(S'MPI_Reduce()'
p7603
S'59'
p7604
tp7605
a(S'MPI_Bcast()'
p7606
S'65'
p7607
tp7608
a(S'MPI_Reduce()'
p7609
S'105'
p7610
tp7611
a(S'MPI_Reduce()'
p7612
S'107'
p7613
tp7614
a(S'MPI_Reduce()'
p7615
S'109'
p7616
tp7617
a(S'MPI_Reduce()'
p7618
S'111'
p7619
tp7620
a(S'MPI_Bcast()'
p7621
S'117'
p7622
tp7623
a(S'MPI_Barrier()'
p7624
S'140'
p7625
tp7626
a(S'MPI_Bcast()'
p7627
S'153'
p7628
tp7629
asS'lotsofcoresbook1code/Pearls1_Chapter13/Pearl/src/std/zsc-3d-mpi/vtkdump.F90'
p7630
(lp7631
(S'MPI_FINALIZE()'
p7632
S'180'
p7633
tp7634
asS'lotsofcoresbook1code/Pearls1_Chapter17/Pearl/src/tools/ga-5-3/global/testing/unit-tests/ga_median.c'
p7635
(lp7636
(S'MPI_Init()'
p7637
S'19'
p7638
tp7639
a(S'MPI_Comm_rank()'
p7640
S'21'
p7641
tp7642
a(S'MPI_Comm_size()'
p7643
S'22'
p7644
tp7645
a(S'MPI_Finalize()'
p7646
S'91'
p7647
tp7648
asS'lotsofcoresbook1code/Pearls1_Chapter17/Pearl/src/tools/ga-5-3/tcgmsg/tcgmsg-mpi/tcgmsgP.h'
p7649
(lp7650
(S'MPI_Error_string()'
p7651
S'66'
p7652
tp7653
asS'lotsofcoresbook1code/Pearls1_Chapter17/Pearl/src/tools/ga-5-3/comex/src-mpi/groups.c'
p7654
(lp7655
(S'MPI_Group_rank()'
p7656
S'83'
p7657
tp7658
a(S'MPI_Group_size()'
p7659
S'97'
p7660
tp7661
a(S'MPI_Group_translate_ranks()'
p7662
S'125'
p7663
tp7664
a(S'MPI_Group_free()'
p7665
S'146'
p7666
tp7667
a(S'MPI_Comm_free()'
p7668
S'153'
p7669
tp7670
a(S'MPI_Group_incl()'
p7671
S'211'
p7672
tp7673
a(S'MPI_Group_rank()'
p7674
S'219'
p7675
tp7676
a(S'MPI_Comm_dup()'
p7677
S'226'
p7678
tp7679
a(S'MPI_Intercomm_create()'
p7680
S'235'
p7681
tp7682
a(S'MPI_Comm_free()'
p7683
S'237'
p7684
tp7685
a(S'MPI_Intercomm_merge()'
p7686
S'238'
p7687
tp7688
a(S'MPI_Comm_free()'
p7689
S'239'
p7690
tp7691
a(S'MPI_Group_free()'
p7692
S'247'
p7693
tp7694
a(S'MPI_Comm_group()'
p7695
S'249'
p7696
tp7697
a(S'MPI_Comm_group()'
p7698
S'269'
p7699
tp7700
a(S'MPI_Group_free()'
p7701
S'289'
p7702
tp7703
asS'lotsofcoresbook1code/Pearls1_Chapter17/Pearl/src/tools/ga-5-3/global/testing/unit-tests/ga_zeropatch.c'
p7704
(lp7705
(S'MPI_Init()'
p7706
S'26'
p7707
tp7708
a(S'MPI_Comm_rank()'
p7709
S'28'
p7710
tp7711
a(S'MPI_Comm_size()'
p7712
S'29'
p7713
tp7714
a(S'MPI_Finalize()'
p7715
S'83'
p7716
tp7717
asS'lotsofcoresbook1code/Pearls1_Chapter17/Pearl/src/tools/ga-5-3/global/testing/unit-tests/ga_transpose2.c'
p7718
(lp7719
(S'MPI_Init()'
p7720
S'54'
p7721
tp7722
a(S'MPI_Comm_rank()'
p7723
S'56'
p7724
tp7725
a(S'MPI_Comm_size()'
p7726
S'57'
p7727
tp7728
a(S'MPI_Finalize()'
p7729
S'86'
p7730
tp7731
asS'lotsofcoresbook1code/Pearls1_Chapter26/Pearl/ooc_solver/scalapack/REDIST/TESTING/pzgemrdrv.c'
p7732
(lp7733
(S'MPI_Init()'
p7734
S'276'
p7735
tp7736
asS'lotsofcoresbook1code/Pearls1_Chapter17/Pearl/src/tools/ga-5-3/global/testing/unit-tests/ga_copy2.c'
p7737
(lp7738
(S'MPI_Init()'
p7739
S'28'
p7740
tp7741
a(S'MPI_Comm_rank()'
p7742
S'30'
p7743
tp7744
a(S'MPI_Comm_size()'
p7745
S'31'
p7746
tp7747
a(S'MPI_Finalize()'
p7748
S'86'
p7749
tp7750
asS'lotsofcoresbook1code/Pearls1_Chapter26/Pearl/ooc_solver/scalapack/BLACS/SRC/ztrsd2d_.c'
p7751
(lp7752
(S'X_MPI_Datatype()'
p7753
S'62'
p7754
tp7755
a(S'X_MPI_DOUBLE_COMPLEX()'
p7756
S'93'
p7757
tp7758
asS'lotsofcoresbook1code/Pearls1_Chapter17/Pearl/src/tools/ga-5-3/global/testing/simple_groups_comm.F'
p7759
(lp7760
(S'mpi_init()'
p7761
S'18'
p7762
tp7763
a(S'mpi_allreduce()'
p7764
S'56'
p7765
tp7766
a(S'mpi_finalize()'
p7767
S'73'
p7768
tp7769
asS'lotsofcoresbook1code/Pearls1_Chapter13/Pearl/src/std/zsc-mpi/vtkplane.F90'
p7770
(lp7771
(S'MPI_FINALIZE()'
p7772
S'93'
p7773
tp7774
asS'lotsofcoresbook1code/Pearls1_Chapter17/Pearl/src/tools/ga-5-3/global/testing/simple_groups_commc.c'
p7775
(lp7776
(S'MPI_Init()'
p7777
S'26'
p7778
tp7779
a(S'MPI_Allreduce()'
p7780
S'62'
p7781
tp7782
a(S'MPI_Finalize()'
p7783
S'77'
p7784
tp7785
asS'lotsofcoresbook1code/Pearls1_Chapter08/Pearl/thermo.cpp'
p7786
(lp7787
(S'MPI_Allreduce()'
p7788
S'131'
p7789
tp7790
a(S'MPI_Allreduce()'
p7791
S'133'
p7792
tp7793
a(S'MPI_Allreduce()'
p7794
S'168'
p7795
tp7796
a(S'MPI_Allreduce()'
p7797
S'170'
p7798
tp7799
a(S'MPI_Allreduce()'
p7800
S'188'
p7801
tp7802
a(S'MPI_Allreduce()'
p7803
S'190'
p7804
tp7805
asS'lotsofcoresbook1code/Pearls1_Chapter17/Pearl/src/tools/ga-5-3/gfutex/src/gfutex.C'
p7806
(lp7807
(S'MPI_Comm_dup()'
p7808
S'97'
p7809
tp7810
a(S'MPI_Barrier()'
p7811
S'176'
p7812
tp7813
a(S'MPI_Barrier()'
p7814
S'179'
p7815
tp7816
a(S'MPI_Barrier()'
p7817
S'229'
p7818
tp7819
a(S'MPI_Barrier()'
p7820
S'238'
p7821
tp7822
a(S'MPI_Barrier()'
p7823
S'278'
p7824
tp7825
a(S'MPI_Barrier()'
p7826
S'291'
p7827
tp7828
a(S'MPI_Comm_free()'
p7829
S'293'
p7830
tp7831
a(S'MPI_Barrier()'
p7832
S'308'
p7833
tp7834
a(S'MPI_Allreduce()'
p7835
S'562'
p7836
tp7837
a(S'MPI_Barrier()'
p7838
S'576'
p7839
tp7840
a(S'MPI_Barrier()'
p7841
S'619'
p7842
tp7843
asS'lotsofcoresbook1code/Pearls1_Chapter26/Pearl/ooc_solver/scalapack/REDIST/TESTING/pigemrdrv.c'
p7844
(lp7845
(S'MPI_Init()'
p7846
S'272'
p7847
tp7848
asS'lotsofcoresbook1code/Pearls1_Chapter17/Pearl/src/tools/ga-5-3/global/testing/unit-tests/ga_nnodes.c'
p7849
(lp7850
(S'MPI_Init()'
p7851
S'23'
p7852
tp7853
a(S'MPI_Comm_rank()'
p7854
S'25'
p7855
tp7856
a(S'MPI_Comm_size()'
p7857
S'26'
p7858
tp7859
a(S'MPI_Finalize()'
p7860
S'38'
p7861
tp7862
asS'lotsofcoresbook1code/Pearls1_Chapter17/Pearl/src/tools/ga-5-3/armci/src-gemini/groups.c'
p7863
(lp7864
(S'MPI_Comm_compare()'
p7865
S'87'
p7866
tp7867
a(S'MPI_Group_size()'
p7868
S'111'
p7869
tp7870
a(S'MPI_Comm_group()'
p7871
S'124'
p7872
tp7873
a(S'MPI_Group_translate_ranks()'
p7874
S'125'
p7875
tp7876
a(S'MPI_Comm_group()'
p7877
S'164'
p7878
tp7879
a(S'MPI_Group_translate_ranks()'
p7880
S'165'
p7881
tp7882
a(S'MPI_Comm_free()'
p7883
S'363'
p7884
tp7885
a(S'MPI_Group_rank()'
p7886
S'466'
p7887
tp7888
a(S'MPI_Comm_dup()'
p7889
S'472'
p7890
tp7891
a(S'MPI_Intercomm_create()'
p7892
S'481'
p7893
tp7894
a(S'MPI_Comm_free()'
p7895
S'482'
p7896
tp7897
a(S'MPI_Intercomm_merge()'
p7898
S'483'
p7899
tp7900
a(S'MPI_Comm_free()'
p7901
S'484'
p7902
tp7903
a(S'MPI_Group_free()'
p7904
S'491'
p7905
tp7906
a(S'MPI_Comm_group()'
p7907
S'492'
p7908
tp7909
a(S'MPI_Comm_group()'
p7910
S'539'
p7911
tp7912
a(S'MPI_Group_rank()'
p7913
S'542'
p7914
tp7915
asS'lotsofcoresbook1code/Pearls1_Chapter17/Pearl/src/tools/ga-5-3/armci/testing/origptl.c'
p7916
(lp7917
(S'MPI_Init()'
p7918
S'54'
p7919
tp7920
a(S'MPI_Finalize()'
p7921
S'55'
p7922
tp7923
asS'lotsofcoresbook1code/Pearls1_Chapter17/Pearl/src/tools/ga-5-3/comex/src-ofa/comex.c'
p7924
(lp7925
(S'MPI_Abort()'
p7926
S'41'
p7927
tp7928
a(S'MPI_Comm_rank()'
p7929
S'65'
p7930
tp7931
a(S'MPI_Comm_size()'
p7932
S'67'
p7933
tp7934
a(S'MPI_Allreduce()'
p7935
S'71'
p7936
tp7937
a(S'MPI_Allgather()'
p7938
S'87'
p7939
tp7940
a(S'MPI_Allgather()'
p7941
S'100'
p7942
tp7943
a(S'MPI_Barrier()'
p7944
S'116'
p7945
tp7946
a(S'MPI_Comm_rank()'
p7947
S'138'
p7948
tp7949
a(S'MPI_Comm_size()'
p7950
S'140'
p7951
tp7952
a(S'MPI_Allgather()'
p7953
S'148'
p7954
tp7955
a(S'MPI_Barrier()'
p7956
S'167'
p7957
tp7958
a(S'MPI_Initialized()'
p7959
S'242'
p7960
tp7961
a(S'MPI_Comm_dup()'
p7962
S'246'
p7963
tp7964
a(S'MPI_Comm_rank()'
p7965
S'249'
p7966
tp7967
a(S'MPI_Comm_size()'
p7968
S'252'
p7969
tp7970
a(S'MPI_Barrier()'
p7971
S'267'
p7972
tp7973
a(S'MPI_Initialized()'
p7974
S'278'
p7975
tp7976
a(S'MPI_Init()'
p7977
S'281'
p7978
tp7979
a(S'MPI_Barrier()'
p7980
S'297'
p7981
tp7982
asS'lotsofcoresbook1code/Pearls1_Chapter17/Pearl/src/tools/ga-5-3/global/testing/unit-tests/ga_scale2.c'
p7983
(lp7984
(S'MPI_Init()'
p7985
S'85'
p7986
tp7987
a(S'MPI_Comm_rank()'
p7988
S'87'
p7989
tp7990
a(S'MPI_Comm_size()'
p7991
S'88'
p7992
tp7993
a(S'MPI_Finalize()'
p7994
S'102'
p7995
tp7996
asS'lotsofcoresbook1code/Pearls1_Chapter17/Pearl/src/tools/ga-5-3/armci/src-gemini/armci-onesided.c'
p7997
(lp7998
(S'MPI_Allreduce()'
p7999
S'596'
p8000
tp8001
asS'lotsofcoresbook1code/Pearls1_Chapter26/Pearl/ooc_solver/scalapack/BLACS/SRC/cgebs2d_.c'
p8002
(lp8003
(S'X_MPI_Datatype()'
p8004
S'60'
p8005
tp8006
a(S'X_MPI_COMPLEX()'
p8007
S'111'
p8008
tp8009
asS'lotsofcoresbook1code/Pearls1_Chapter17/Pearl/src/tools/ga-5-3/global/testing/unit-tests/ga_add_patch.c'
p8010
(lp8011
(S'MPI_Init()'
p8012
S'25'
p8013
tp8014
a(S'MPI_Comm_rank()'
p8015
S'27'
p8016
tp8017
a(S'MPI_Comm_size()'
p8018
S'28'
p8019
tp8020
a(S'MPI_Finalize()'
p8021
S'89'
p8022
tp8023
asS'lotsofcoresbook1code/Pearls1_Chapter17/Pearl/src/tools/ga-5-3/global/testing/unit-tests/ga_pgroup_create2.c'
p8024
(lp8025
(S'MPI_Init()'
p8026
S'21'
p8027
tp8028
a(S'MPI_Comm_rank()'
p8029
S'23'
p8030
tp8031
a(S'MPI_Comm_size()'
p8032
S'24'
p8033
tp8034
a(S'MPI_Finalize()'
p8035
S'77'
p8036
tp8037
asS'lotsofcoresbook1code/Pearls1_Chapter26/Pearl/ooc_solver/scalapack/BLACS/SRC/blacs_grid_.c'
p8038
(lp8039
(S'MPI_Comm_free()'
p8040
S'26'
p8041
tp8042
a(S'MPI_Comm_free()'
p8043
S'27'
p8044
tp8045
a(S'MPI_Comm_free()'
p8046
S'28'
p8047
tp8048
a(S'MPI_Comm_free()'
p8049
S'29'
p8050
tp8051
asS'lotsofcoresbook1code/Pearls1_Chapter17/Pearl/src/tools/ga-5-3/global/testing/unit-tests/ga_zerodiagonal.c'
p8052
(lp8053
(S'MPI_Init()'
p8054
S'25'
p8055
tp8056
a(S'MPI_Comm_rank()'
p8057
S'27'
p8058
tp8059
a(S'MPI_Comm_size()'
p8060
S'28'
p8061
tp8062
a(S'MPI_Finalize()'
p8063
S'63'
p8064
tp8065
asS'lotsofcoresbook1code/Pearls1_Chapter13/Pearl/src/std/zsc-3d-mpi/finaldump.F90'
p8066
(lp8067
(S'MPI_ALLREDUCE()'
p8068
S'181'
p8069
tp8070
a(S'MPI_ALLREDUCE()'
p8071
S'182'
p8072
tp8073
a(S'MPI_ALLREDUCE()'
p8074
S'205'
p8075
tp8076
a(S'MPI_FINALIZE()'
p8077
S'254'
p8078
tp8079
asS'lotsofcoresbook1code/Pearls1_Chapter17/Pearl/src/tools/ga-5-3/armci/testing/rpl_armci_msg_init.c'
p8080
(lp8081
(S'MPI_Initialized()'
p8082
S'10'
p8083
tp8084
a(S'MPI_Init_thread()'
p8085
S'14'
p8086
tp8087
a(S'MPI_Init()'
p8088
S'16'
p8089
tp8090
asS'lotsofcoresbook1code/Pearls1_Chapter17/Pearl/src/tools/ga-5-3/armci/examples/features/concurrency/multidma/multidma.c'
p8091
(lp8092
(S'MPI_Abort()'
p8093
S'91'
p8094
tp8095
a(S'MPI_Bcast()'
p8096
S'399'
p8097
tp8098
a(S'MPI_Gather()'
p8099
S'442'
p8100
tp8101
a(S'MPI_Gather()'
p8102
S'444'
p8103
tp8104
asS'lotsofcoresbook1code/Pearls1_Chapter26/Pearl/ooc_solver/scalapack/BLACS/SRC/sgesd2d_.c'
p8105
(lp8106
(S'X_MPI_Datatype()'
p8107
S'50'
p8108
tp8109
a(S'X_MPI_FLOAT()'
p8110
S'75'
p8111
tp8112
asS'lotsofcoresbook1code/Pearls1_Chapter17/Pearl/src/tools/ga-5-3/armci/src-portals/portals_cp.c'
p8113
(lp8114
(S'MPI_Comm_rank()'
p8115
S'69'
p8116
tp8117
a(S'MPI_Comm_split()'
p8118
S'70'
p8119
tp8120
a(S'MPI_Comm_size()'
p8121
S'82'
p8122
tp8123
a(S'MPI_Comm_rank()'
p8124
S'83'
p8125
tp8126
a(S'MPI_Bcast()'
p8127
S'110'
p8128
tp8129
a(S'MPI_Barrier()'
p8130
S'157'
p8131
tp8132
a(S'MPI_Finalize()'
p8133
S'158'
p8134
tp8135
a(S'MPI_Comm_size()'
p8136
S'880'
p8137
tp8138
a(S'MPI_Comm_rank()'
p8139
S'881'
p8140
tp8141
a(S'MPI_Bcast()'
p8142
S'902'
p8143
tp8144
a(S'MPI_Bcast()'
p8145
S'903'
p8146
tp8147
a(S'MPI_Barrier()'
p8148
S'910'
p8149
tp8150
asS'lotsofcoresbook1code/Pearls1_Chapter13/Pearl/src/opt/lbs3d-mpi/postcollision.F90'
p8151
(lp8152
(S'MPI_IRECV()'
p8153
S'46'
p8154
tp8155
a(S'X_MPI_COMM_VGRID()'
p8156
S'47'
p8157
tp8158
a(S'MPI_IRECV()'
p8159
S'48'
p8160
tp8161
a(S'X_MPI_COMM_VGRID()'
p8162
S'49'
p8163
tp8164
a(S'MPI_IRECV()'
p8165
S'50'
p8166
tp8167
a(S'X_MPI_COMM_VGRID()'
p8168
S'51'
p8169
tp8170
a(S'MPI_IRECV()'
p8171
S'52'
p8172
tp8173
a(S'X_MPI_COMM_VGRID()'
p8174
S'53'
p8175
tp8176
a(S'MPI_IRECV()'
p8177
S'54'
p8178
tp8179
a(S'X_MPI_COMM_VGRID()'
p8180
S'55'
p8181
tp8182
a(S'MPI_IRECV()'
p8183
S'56'
p8184
tp8185
a(S'X_MPI_COMM_VGRID()'
p8186
S'57'
p8187
tp8188
a(S'MPI_ISEND()'
p8189
S'71'
p8190
tp8191
a(S'X_MPI_COMM_VGRID()'
p8192
S'72'
p8193
tp8194
a(S'MPI_ISEND()'
p8195
S'73'
p8196
tp8197
a(S'X_MPI_COMM_VGRID()'
p8198
S'74'
p8199
tp8200
a(S'MPI_ISEND()'
p8201
S'88'
p8202
tp8203
a(S'X_MPI_COMM_VGRID()'
p8204
S'89'
p8205
tp8206
a(S'MPI_ISEND()'
p8207
S'90'
p8208
tp8209
a(S'X_MPI_COMM_VGRID()'
p8210
S'91'
p8211
tp8212
a(S'MPI_ISEND()'
p8213
S'105'
p8214
tp8215
a(S'X_MPI_COMM_VGRID()'
p8216
S'106'
p8217
tp8218
a(S'MPI_ISEND()'
p8219
S'107'
p8220
tp8221
a(S'X_MPI_COMM_VGRID()'
p8222
S'108'
p8223
tp8224
a(S'MPI_WAITALL()'
p8225
S'112'
p8226
tp8227
a(S'MPI_WAITALL()'
p8228
S'127'
p8229
tp8230
a(S'MPI_WAITALL()'
p8231
S'142'
p8232
tp8233
asS'lotsofcoresbook1code/Pearls1_Chapter17/Pearl/src/tools/ga-5-3/comex/src-ofa/fence.c'
p8234
(lp8235
(S'MPI_Barrier()'
p8236
S'35'
p8237
tp8238
asS'lotsofcoresbook1code/Pearls1_Chapter26/Pearl/ooc_solver/scalapack/BLACS/SRC/blacs_pinfo_.c'
p8239
(lp8240
(S'MPI_Initialized()'
p8241
S'15'
p8242
tp8243
a(S'MPI_Init()'
p8244
S'18'
p8245
tp8246
a(S'MPI_Comm_size()'
p8247
S'22'
p8248
tp8249
a(S'MPI_Comm_rank()'
p8250
S'23'
p8251
tp8252
asS'lotsofcoresbook1code/Pearls1_Chapter17/Pearl/src/tools/ga-5-3/tascel/configure'
p8253
(lp8254
(S'MPI_Init()'
p8255
S'8245'
p8256
tp8257
a(S'MPI_Finalize()'
p8258
S'8246'
p8259
tp8260
asS'lotsofcoresbook1code/Pearls1_Chapter17/Pearl/src/tools/ga-5-3/tascel/src/Comm.cc'
p8261
(lp8262
(S'MPI_Barrier()'
p8263
S'18'
p8264
tp8265
a(S'MPI_Comm_size()'
p8266
S'24'
p8267
tp8268
a(S'MPI_Comm_rank()'
p8269
S'31'
p8270
tp8271
asS'lotsofcoresbook1code/Pearls1_Chapter26/Pearl/ooc_solver/scalapack/BLACS/SRC/zgebr2d_.c'
p8272
(lp8273
(S'X_MPI_Datatype()'
p8274
S'69'
p8275
tp8276
a(S'X_MPI_DOUBLE_COMPLEX()'
p8277
S'121'
p8278
tp8279
a(S'MPI_Pack_size()'
p8280
S'156'
p8281
tp8282
asS'lotsofcoresbook1code/Pearls1_Chapter17/Pearl/src/tools/ga-5-3/global/testing/unit-tests/ga_add_diagonal.c'
p8283
(lp8284
(S'MPI_Init()'
p8285
S'25'
p8286
tp8287
a(S'MPI_Comm_rank()'
p8288
S'27'
p8289
tp8290
a(S'MPI_Comm_size()'
p8291
S'28'
p8292
tp8293
a(S'MPI_Finalize()'
p8294
S'57'
p8295
tp8296
asS'lotsofcoresbook1code/Pearls1_Chapter17/Pearl/src/tools/ga-5-3/global/testing/unit-tests/ga_set_restricted.c'
p8297
(lp8298
(S'MPI_Init()'
p8299
S'74'
p8300
tp8301
a(S'MPI_Comm_rank()'
p8302
S'76'
p8303
tp8304
a(S'MPI_Comm_size()'
p8305
S'77'
p8306
tp8307
a(S'MPI_Finalize()'
p8308
S'148'
p8309
tp8310
asS'lotsofcoresbook1code/Pearls1_Chapter17/Pearl/src/tools/ga-5-3/armci/src-portals/fence.c'
p8311
(lp8312
(S'MPI_Barrier()'
p8313
S'84'
p8314
tp8315
asS'lotsofcoresbook1code/Pearls1_Chapter25/Pearl/SingleDevice/options.c'
p8316
(lp8317
(S'MPI_Init()'
p8318
S'49'
p8319
tp8320
a(S'MPI_Comm_rank()'
p8321
S'50'
p8322
tp8323
a(S'MPI_Comm_size()'
p8324
S'51'
p8325
tp8326
a(S'MPI_Recv()'
p8327
S'58'
p8328
tp8329
a(S'X_MPI_CHAR()'
p8330
S'59'
p8331
tp8332
a(S'X_MPI_COMM_WORLD()'
p8333
S'60'
p8334
tp8335
a(S'MPI_Recv()'
p8336
S'105'
p8337
tp8338
a(S'X_MPI_INT()'
p8339
S'106'
p8340
tp8341
a(S'X_MPI_COMM_WORLD()'
p8342
S'107'
p8343
tp8344
a(S'MPI_Send()'
p8345
S'150'
p8346
tp8347
a(S'MPI_Send()'
p8348
S'206'
p8349
tp8350
a(S'MPI_Send()'
p8351
S'217'
p8352
tp8353
a(S'MPI_Get_processor_name()'
p8354
S'229'
p8355
tp8356
a(S'MPI_Send()'
p8357
S'230'
p8358
tp8359
a(S'MPI_Send()'
p8360
S'304'
p8361
tp8362
a(S'MPI_Recv()'
p8363
S'310'
p8364
tp8365
a(S'MPI_Barrier()'
p8366
S'427'
p8367
tp8368
a(S'MPI_Finalize()'
p8369
S'428'
p8370
tp8371
asS'lotsofcoresbook1code/Pearls1_Chapter26/Pearl/SRC-1mat-MIC-final/pdlltinfo.cpp'
p8372
(lp8373
(S'MPI_Comm_rank()'
p8374
S'30'
p8375
tp8376
a(S'MPI_Bcast()'
p8377
S'58'
p8378
tp8379
a(S'MPI_Bcast()'
p8380
S'60'
p8381
tp8382
a(S'MPI_Bcast()'
p8383
S'64'
p8384
tp8385
a(S'MPI_Bcast()'
p8386
S'69'
p8387
tp8388
a(S'MPI_Bcast()'
p8389
S'72'
p8390
tp8391
asS'lotsofcoresbook1code/Pearls1_Chapter26/Pearl/ooc_solver/scalapack/REDIST/TESTING/pctrmrdrv.c'
p8392
(lp8393
(S'MPI_Init()'
p8394
S'277'
p8395
tp8396
asS'lotsofcoresbook1code/Pearls1_Chapter17/Pearl/src/tools/ga-5-3/armci/examples/features/non-blocking/overlap/overlap.c'
p8397
(lp8398
(S'MPI_Bcast()'
p8399
S'684'
p8400
tp8401
a(S'MPI_Gather()'
p8402
S'744'
p8403
tp8404
asS'lotsofcoresbook1code/Pearls1_Chapter13/Pearl/src/std/zsc-mpi/postcollision.F90'
p8405
(lp8406
(S'MPI_IRECV()'
p8407
S'88'
p8408
tp8409
a(S'MPI_SEND()'
p8410
S'89'
p8411
tp8412
a(S'MPI_WAIT()'
p8413
S'90'
p8414
tp8415
a(S'MPI_IRECV()'
p8416
S'92'
p8417
tp8418
a(S'MPI_SEND()'
p8419
S'93'
p8420
tp8421
a(S'MPI_WAIT()'
p8422
S'94'
p8423
tp8424
a(S'MPI_IRECV()'
p8425
S'96'
p8426
tp8427
a(S'MPI_SEND()'
p8428
S'97'
p8429
tp8430
a(S'MPI_WAIT()'
p8431
S'98'
p8432
tp8433
a(S'MPI_IRECV()'
p8434
S'100'
p8435
tp8436
a(S'MPI_SEND()'
p8437
S'101'
p8438
tp8439
a(S'MPI_WAIT()'
p8440
S'102'
p8441
tp8442
a(S'MPI_IRECV()'
p8443
S'105'
p8444
tp8445
a(S'MPI_SEND()'
p8446
S'106'
p8447
tp8448
a(S'MPI_WAIT()'
p8449
S'107'
p8450
tp8451
a(S'MPI_IRECV()'
p8452
S'109'
p8453
tp8454
a(S'MPI_SEND()'
p8455
S'110'
p8456
tp8457
a(S'MPI_WAIT()'
p8458
S'111'
p8459
tp8460
a(S'MPI_IRECV()'
p8461
S'113'
p8462
tp8463
a(S'MPI_SEND()'
p8464
S'114'
p8465
tp8466
a(S'MPI_WAIT()'
p8467
S'115'
p8468
tp8469
a(S'MPI_IRECV()'
p8470
S'117'
p8471
tp8472
a(S'MPI_SEND()'
p8473
S'118'
p8474
tp8475
a(S'MPI_WAIT()'
p8476
S'119'
p8477
tp8478
a(S'MPI_IRECV()'
p8479
S'122'
p8480
tp8481
a(S'MPI_SEND()'
p8482
S'123'
p8483
tp8484
a(S'MPI_WAIT()'
p8485
S'124'
p8486
tp8487
a(S'MPI_IRECV()'
p8488
S'126'
p8489
tp8490
a(S'MPI_SEND()'
p8491
S'127'
p8492
tp8493
a(S'MPI_WAIT()'
p8494
S'128'
p8495
tp8496
a(S'MPI_IRECV()'
p8497
S'130'
p8498
tp8499
a(S'MPI_SEND()'
p8500
S'131'
p8501
tp8502
a(S'MPI_WAIT()'
p8503
S'132'
p8504
tp8505
a(S'MPI_IRECV()'
p8506
S'134'
p8507
tp8508
a(S'MPI_SEND()'
p8509
S'135'
p8510
tp8511
a(S'MPI_WAIT()'
p8512
S'136'
p8513
tp8514
asS'lotsofcoresbook1code/Pearls1_Chapter26/Pearl/ooc_solver/scalapack/BLACS/SRC/ctrsd2d_.c'
p8515
(lp8516
(S'X_MPI_Datatype()'
p8517
S'62'
p8518
tp8519
a(S'X_MPI_COMPLEX()'
p8520
S'93'
p8521
tp8522
asS'lotsofcoresbook1code/Pearls1_Chapter26/Pearl/ooc_solver/scalapack/BLACS/SRC/igamx2d_.c'
p8523
(lp8524
(S'X_MPI_Datatype()'
p8525
S'87'
p8526
tp8527
a(S'X_MPI_Datatype()'
p8528
S'90'
p8529
tp8530
asS'lotsofcoresbook1code/Pearls1_Chapter17/Pearl/src/tools/ga-5-3/global/testing/unit-tests/ga_igop2.c'
p8531
(lp8532
(S'MPI_Init()'
p8533
S'73'
p8534
tp8535
a(S'MPI_Comm_rank()'
p8536
S'77'
p8537
tp8538
a(S'MPI_Comm_size()'
p8539
S'78'
p8540
tp8541
a(S'MPI_Finalize()'
p8542
S'89'
p8543
tp8544
asS'lotsofcoresbook1code/Pearls1_Chapter26/Pearl/ooc_solver/scalapack/BLACS/SRC/ctrbr2d_.c'
p8545
(lp8546
(S'X_MPI_Datatype()'
p8547
S'82'
p8548
tp8549
a(S'X_MPI_COMPLEX()'
p8550
S'138'
p8551
tp8552
a(S'MPI_Pack_size()'
p8553
S'161'
p8554
tp8555
asS'lotsofcoresbook1code/Pearls1_Chapter26/Pearl/ooc_solver/scalapack/BLACS/SRC/itrsd2d_.c'
p8556
(lp8557
(S'X_MPI_Datatype()'
p8558
S'62'
p8559
tp8560
a(S'X_MPI_INT()'
p8561
S'93'
p8562
tp8563
asS'lotsofcoresbook1code/Pearls1_Chapter26/Pearl/ooc_solver/scalapack/BLACS/SRC/dgerv2d_.c'
p8564
(lp8565
(S'X_MPI_Datatype()'
p8566
S'54'
p8567
tp8568
a(S'X_MPI_DOUBLE()'
p8569
S'76'
p8570
tp8571
asS'lotsofcoresbook1code/Pearls1_Chapter17/Pearl/src/tools/ga-5-3/pario/eaf/eaf.c'
p8572
(lp8573
(S'MPI_Comm_rank()'
p8574
S'206'
p8575
tp8576
asS'lotsofcoresbook1code/Pearls1_Chapter17/Pearl/src/tools/ga-5-3/global/examples/md_cluster/grp_sim.F'
p8577
(lp8578
(S'mpi_init()'
p8579
S'40'
p8580
tp8581
a(S'mpi_finalize()'
p8582
S'184'
p8583
tp8584
asS'lotsofcoresbook1code/Pearls1_Chapter26/Pearl/ooc_solver/scalapack/BLACS/SRC/igebr2d_.c'
p8585
(lp8586
(S'X_MPI_Datatype()'
p8587
S'69'
p8588
tp8589
a(S'X_MPI_INT()'
p8590
S'121'
p8591
tp8592
a(S'MPI_Pack_size()'
p8593
S'156'
p8594
tp8595
asS'lotsofcoresbook1code/Pearls1_Chapter17/Pearl/src/tools/ga-5-3/armci/testing/simple.c'
p8596
(lp8597
(S'MPI_Comm_rank()'
p8598
S'25'
p8599
tp8600
a(S'MPI_Comm_size()'
p8601
S'26'
p8602
tp8603
a(S'MPI_Barrier()'
p8604
S'33'
p8605
tp8606
a(S'MPI_Wtime()'
p8607
S'39'
p8608
tp8609
a(S'MPI_Wtime()'
p8610
S'43'
p8611
tp8612
a(S'MPI_Wtime()'
p8613
S'50'
p8614
tp8615
a(S'MPI_Wtime()'
p8616
S'52'
p8617
tp8618
a(S'MPI_Wtime()'
p8619
S'54'
p8620
tp8621
a(S'MPI_Barrier()'
p8622
S'60'
p8623
tp8624
a(S'MPI_Barrier()'
p8625
S'65'
p8626
tp8627
asS'lotsofcoresbook1code/Pearls1_Chapter17/Pearl/src/tools/ga-5-3/global/testing/unit-tests/ga_dgop.c'
p8628
(lp8629
(S'MPI_Init()'
p8630
S'175'
p8631
tp8632
a(S'MPI_Comm_rank()'
p8633
S'179'
p8634
tp8635
a(S'MPI_Comm_size()'
p8636
S'180'
p8637
tp8638
a(S'MPI_Finalize()'
p8639
S'197'
p8640
tp8641
asS'lotsofcoresbook1code/Pearls1_Chapter13/Pearl/src/std/zsc-dgr-mpi/main.F90'
p8642
(lp8643
(S'MPI_INIT()'
p8644
S'54'
p8645
tp8646
a(S'MPI_COMM_SIZE()'
p8647
S'55'
p8648
tp8649
a(S'MPI_COMM_RANK()'
p8650
S'56'
p8651
tp8652
a(S'MPI_FINALIZE()'
p8653
S'108'
p8654
tp8655
asS'lotsofcoresbook1code/Pearls1_Chapter17/Pearl/src/tools/ga-5-3/global/testing/unit-tests/ga_transpose.c'
p8656
(lp8657
(S'MPI_Init()'
p8658
S'25'
p8659
tp8660
a(S'MPI_Comm_rank()'
p8661
S'27'
p8662
tp8663
a(S'MPI_Comm_size()'
p8664
S'28'
p8665
tp8666
a(S'MPI_Finalize()'
p8667
S'80'
p8668
tp8669
asS'lotsofcoresbook1code/Pearls1_Chapter17/Pearl/src/tools/ga-5-3/global/testing/unit-tests/ga_put2.c'
p8670
(lp8671
(S'MPI_Init()'
p8672
S'23'
p8673
tp8674
a(S'MPI_Comm_rank()'
p8675
S'24'
p8676
tp8677
a(S'MPI_Comm_size()'
p8678
S'25'
p8679
tp8680
a(S'MPI_Finalize()'
p8681
S'65'
p8682
tp8683
asS'lotsofcoresbook1code/Pearls1_Chapter17/Pearl/src/tools/ga-5-3/global/testing/unit-tests/ga_copypatch.c'
p8684
(lp8685
(S'MPI_Init()'
p8686
S'26'
p8687
tp8688
a(S'MPI_Comm_rank()'
p8689
S'28'
p8690
tp8691
a(S'MPI_Comm_size()'
p8692
S'29'
p8693
tp8694
a(S'MPI_Finalize()'
p8695
S'76'
p8696
tp8697
asS'lotsofcoresbook1code/Pearls1_Chapter26/Pearl/ooc_solver/scalapack/BLACS/SRC/strbr2d_.c'
p8698
(lp8699
(S'X_MPI_Datatype()'
p8700
S'82'
p8701
tp8702
a(S'X_MPI_FLOAT()'
p8703
S'138'
p8704
tp8705
a(S'MPI_Pack_size()'
p8706
S'161'
p8707
tp8708
asS'lotsofcoresbook1code/Pearls1_Chapter13/Pearl/src/std/ll-dgr-mpi/mpi_update_g.F90'
p8709
(lp8710
(S'MPI_IRECV()'
p8711
S'84'
p8712
tp8713
a(S'MPI_SEND()'
p8714
S'85'
p8715
tp8716
a(S'MPI_WAIT()'
p8717
S'86'
p8718
tp8719
a(S'MPI_IRECV()'
p8720
S'88'
p8721
tp8722
a(S'MPI_SEND()'
p8723
S'89'
p8724
tp8725
a(S'MPI_WAIT()'
p8726
S'90'
p8727
tp8728
a(S'MPI_IRECV()'
p8729
S'93'
p8730
tp8731
a(S'MPI_SEND()'
p8732
S'94'
p8733
tp8734
a(S'MPI_WAIT()'
p8735
S'95'
p8736
tp8737
a(S'MPI_IRECV()'
p8738
S'97'
p8739
tp8740
a(S'MPI_SEND()'
p8741
S'98'
p8742
tp8743
a(S'MPI_WAIT()'
p8744
S'99'
p8745
tp8746
a(S'MPI_IRECV()'
p8747
S'102'
p8748
tp8749
a(S'MPI_SEND()'
p8750
S'103'
p8751
tp8752
a(S'MPI_WAIT()'
p8753
S'104'
p8754
tp8755
a(S'MPI_IRECV()'
p8756
S'106'
p8757
tp8758
a(S'MPI_SEND()'
p8759
S'107'
p8760
tp8761
a(S'MPI_WAIT()'
p8762
S'108'
p8763
tp8764
a(S'MPI_IRECV()'
p8765
S'110'
p8766
tp8767
a(S'MPI_SEND()'
p8768
S'111'
p8769
tp8770
a(S'MPI_WAIT()'
p8771
S'112'
p8772
tp8773
a(S'MPI_IRECV()'
p8774
S'114'
p8775
tp8776
a(S'MPI_SEND()'
p8777
S'115'
p8778
tp8779
a(S'MPI_WAIT()'
p8780
S'116'
p8781
tp8782
asS'lotsofcoresbook1code/Pearls1_Chapter17/Pearl/src/tools/ga-5-3/comex/src-dmapp/groups.c'
p8783
(lp8784
(S'MPI_Group_rank()'
p8785
S'83'
p8786
tp8787
a(S'MPI_Group_size()'
p8788
S'97'
p8789
tp8790
a(S'MPI_Group_translate_ranks()'
p8791
S'125'
p8792
tp8793
a(S'MPI_Group_free()'
p8794
S'146'
p8795
tp8796
a(S'MPI_Comm_free()'
p8797
S'153'
p8798
tp8799
a(S'MPI_Group_incl()'
p8800
S'211'
p8801
tp8802
a(S'MPI_Group_rank()'
p8803
S'219'
p8804
tp8805
a(S'MPI_Comm_dup()'
p8806
S'226'
p8807
tp8808
a(S'MPI_Intercomm_create()'
p8809
S'235'
p8810
tp8811
a(S'MPI_Comm_free()'
p8812
S'237'
p8813
tp8814
a(S'MPI_Intercomm_merge()'
p8815
S'238'
p8816
tp8817
a(S'MPI_Comm_free()'
p8818
S'239'
p8819
tp8820
a(S'MPI_Group_free()'
p8821
S'247'
p8822
tp8823
a(S'MPI_Comm_group()'
p8824
S'249'
p8825
tp8826
a(S'MPI_Comm_group()'
p8827
S'269'
p8828
tp8829
a(S'MPI_Group_free()'
p8830
S'289'
p8831
tp8832
asS'lotsofcoresbook1code/Pearls1_Chapter26/Pearl/ooc_solver/scalapack/BLACS/SRC/cgesd2d_.c'
p8833
(lp8834
(S'X_MPI_Datatype()'
p8835
S'50'
p8836
tp8837
a(S'X_MPI_COMPLEX()'
p8838
S'75'
p8839
tp8840
asS'lotsofcoresbook1code/Pearls1_Chapter26/Pearl/ooc_solver/scalapack/BLACS/SRC/sgebr2d_.c'
p8841
(lp8842
(S'X_MPI_Datatype()'
p8843
S'69'
p8844
tp8845
a(S'X_MPI_FLOAT()'
p8846
S'121'
p8847
tp8848
asS'lotsofcoresbook1code/Pearls1_Chapter17/Pearl/src/tools/ga-5-3/armci/src/devices/mpi-mt/mpi2_server.c'
p8849
(lp8850
(S'MPI_Check()'
p8851
S'107'
p8852
tp8853
a(S'MPI_Send()'
p8854
S'108'
p8855
tp8856
a(S'MPI_Check()'
p8857
S'114'
p8858
tp8859
a(S'MPI_Recv()'
p8860
S'115'
p8861
tp8862
a(S'MPI_Finalize()'
p8863
S'150'
p8864
tp8865
a(S'MPI_Check()'
p8866
S'201'
p8867
tp8868
a(S'MPI_Recv()'
p8869
S'202'
p8870
tp8871
a(S'MPI_Check()'
p8872
S'271'
p8873
tp8874
a(S'MPI_Send()'
p8875
S'272'
p8876
tp8877
a(S'MPI_Check()'
p8878
S'312'
p8879
tp8880
a(S'MPI_Iprobe()'
p8881
S'313'
p8882
tp8883
a(S'MPI_Check()'
p8884
S'319'
p8885
tp8886
a(S'MPI_Probe()'
p8887
S'320'
p8888
tp8889
a(S'MPI_Check()'
p8890
S'358'
p8891
tp8892
a(S'MPI_Check()'
p8893
S'360'
p8894
tp8895
a(S'MPI_Check()'
p8896
S'361'
p8897
tp8898
asS'lotsofcoresbook1code/Pearls1_Chapter17/Pearl/src/tools/ga-5-3/armci/testing/ptltest.c'
p8899
(lp8900
(S'MPI_Init()'
p8901
S'67'
p8902
tp8903
a(S'MPI_Finalize()'
p8904
S'98'
p8905
tp8906
asS'lotsofcoresbook1code/Pearls1_Chapter08/Pearl/force_eam.cpp'
p8907
(lp8908
(S'MPI_Bcast()'
p8909
S'505'
p8910
tp8911
a(S'MPI_Finalize()'
p8912
S'508'
p8913
tp8914
a(S'MPI_Bcast()'
p8915
S'524'
p8916
tp8917
a(S'MPI_Bcast()'
p8918
S'525'
p8919
tp8920
a(S'MPI_Bcast()'
p8921
S'526'
p8922
tp8923
a(S'MPI_Bcast()'
p8924
S'527'
p8925
tp8926
a(S'MPI_Bcast()'
p8927
S'528'
p8928
tp8929
a(S'MPI_Bcast()'
p8930
S'529'
p8931
tp8932
a(S'MPI_Bcast()'
p8933
S'538'
p8934
tp8935
a(S'MPI_Bcast()'
p8936
S'540'
p8937
tp8938
a(S'MPI_Bcast()'
p8939
S'545'
p8940
tp8941
a(S'MPI_Bcast()'
p8942
S'547'
p8943
tp8944
a(S'MPI_Bcast()'
p8945
S'552'
p8946
tp8947
a(S'MPI_Bcast()'
p8948
S'554'
p8949
tp8950
a(S'MPI_Irecv()'
p8951
S'851'
p8952
tp8953
a(S'MPI_Send()'
p8954
S'853'
p8955
tp8956
a(S'MPI_Irecv()'
p8957
S'856'
p8958
tp8959
a(S'MPI_Send()'
p8960
S'858'
p8961
tp8962
a(S'MPI_Wait()'
p8963
S'862'
p8964
tp8965
asS'lotsofcoresbook1code/Pearls1_Chapter26/Pearl/ooc_solver/scalapack/BLACS/INSTALL/cmpi_sane.c'
p8966
(lp8967
(S'MPI_Init()'
p8968
S'23'
p8969
tp8970
a(S'MPI_Comm_size()'
p8971
S'24'
p8972
tp8973
a(S'MPI_Abort()'
p8974
S'28'
p8975
tp8976
a(S'MPI_Comm_group()'
p8977
S'36'
p8978
tp8979
a(S'MPI_Group_incl()'
p8980
S'37'
p8981
tp8982
a(S'MPI_Comm_create()'
p8983
S'38'
p8984
tp8985
a(S'MPI_Group_free()'
p8986
S'39'
p8987
tp8988
a(S'MPI_Comm_rank()'
p8989
S'45'
p8990
tp8991
a(S'MPI_Recv()'
p8992
S'51'
p8993
tp8994
a(S'MPI_Send()'
p8995
S'52'
p8996
tp8997
a(S'MPI_Send()'
p8998
S'56'
p8999
tp9000
a(S'MPI_Recv()'
p9001
S'57'
p9002
tp9003
a(S'MPI_Abort()'
p9004
S'65'
p9005
tp9006
a(S'MPI_Finalize()'
p9007
S'69'
p9008
tp9009
asS'lotsofcoresbook1code/Pearls1_Chapter26/Pearl/ooc_solver/scalapack/BLACS/SRC/dtrbr2d_.c'
p9010
(lp9011
(S'X_MPI_Datatype()'
p9012
S'82'
p9013
tp9014
a(S'X_MPI_DOUBLE()'
p9015
S'138'
p9016
tp9017
a(S'MPI_Pack_size()'
p9018
S'161'
p9019
tp9020
asS'lotsofcoresbook1code/Pearls1_Chapter17/Pearl/src/tools/ga-5-3/global/testing/unit-tests/ga_destroy.c'
p9021
(lp9022
(S'MPI_Init()'
p9023
S'22'
p9024
tp9025
a(S'MPI_Comm_rank()'
p9026
S'24'
p9027
tp9028
a(S'MPI_Comm_size()'
p9029
S'25'
p9030
tp9031
a(S'MPI_Finalize()'
p9032
S'44'
p9033
tp9034
asS'lotsofcoresbook1code/Pearls1_Chapter26/Pearl/ooc_solver/scalapack/BLACS/SRC/dgebr2d_.c'
p9035
(lp9036
(S'X_MPI_Datatype()'
p9037
S'69'
p9038
tp9039
a(S'X_MPI_DOUBLE()'
p9040
S'121'
p9041
tp9042
asS'lotsofcoresbook1code/Pearls1_Chapter13/Pearl/src/std/ll-dgr-mpi/vtkplane.F90'
p9043
(lp9044
(S'MPI_FINALIZE()'
p9045
S'93'
p9046
tp9047
asS'lotsofcoresbook1code/Pearls1_Chapter17/Pearl/src/tools/ga-5-3/armci/testing/rpl_armci_msg_finalize.c'
p9048
(lp9049
(S'MPI_Finalize()'
p9050
g3312
tp9051
asS'lotsofcoresbook1code/Pearls1_Chapter17/Pearl/src/tools/ga-5-3/global/testing/unit-tests/ga_pgroup_destroy.c'
p9052
(lp9053
(S'MPI_Init()'
p9054
S'22'
p9055
tp9056
a(S'MPI_Comm_rank()'
p9057
S'24'
p9058
tp9059
a(S'MPI_Comm_size()'
p9060
S'25'
p9061
tp9062
a(S'MPI_Finalize()'
p9063
S'75'
p9064
tp9065
asS'lotsofcoresbook1code/Pearls1_Chapter17/Pearl/src/tools/ga-5-3/tascel/examples/scf/main.c'
p9066
(lp9067
(S'MPI_Wtime()'
p9068
S'21'
p9069
tp9070
a(S'MPI_Wtime()'
p9071
S'26'
p9072
tp9073
a(S'MPI_Init()'
p9074
S'47'
p9075
tp9076
a(S'MPI_Finalize()'
p9077
S'53'
p9078
tp9079
asS'lotsofcoresbook1code/Pearls1_Chapter17/Pearl/src/tools/ga-5-3/global/testing/unit-tests/ga_fillpatch1.c'
p9080
(lp9081
(S'MPI_Init()'
p9082
S'24'
p9083
tp9084
a(S'MPI_Comm_rank()'
p9085
S'26'
p9086
tp9087
a(S'MPI_Comm_size()'
p9088
S'27'
p9089
tp9090
a(S'MPI_Finalize()'
p9091
S'81'
p9092
tp9093
asS'lotsofcoresbook1code/Pearls1_Chapter17/Pearl/src/util/linux_printaff.c'
p9094
(lp9095
(S'MPI_Comm_rank()'
p9096
S'24'
p9097
tp9098
asS'lotsofcoresbook1code/Pearls1_Chapter13/Pearl/src/std/zsc-dgr-mpi/stats.F90'
p9099
(lp9100
(S'MPI_ALLREDUCE()'
p9101
S'96'
p9102
tp9103
a(S'MPI_FINALIZE()'
p9104
S'138'
p9105
tp9106
asS'lotsofcoresbook1code/Pearls1_Chapter26/Pearl/ooc_solver/scalapack/BLACS/SRC/cgerv2d_.c'
p9107
(lp9108
(S'X_MPI_Datatype()'
p9109
S'54'
p9110
tp9111
a(S'X_MPI_COMPLEX()'
p9112
S'76'
p9113
tp9114
asS'lotsofcoresbook1code/Pearls1_Chapter26/Pearl/ooc_solver/scalapack/BLACS/SRC/strbs2d_.c'
p9115
(lp9116
(S'X_MPI_Datatype()'
p9117
S'73'
p9118
tp9119
a(S'X_MPI_FLOAT()'
p9120
S'127'
p9121
tp9122
asS'lotsofcoresbook1code/Pearls1_Chapter17/Pearl/src/tools/ga-5-3/m4/ga_mpif77_test.m4'
p9123
(lp9124
(S'MPI_Init()'
p9125
g3312
tp9126
a(S'MPI_Finalize()'
p9127
S'10'
p9128
tp9129
asS'lotsofcoresbook1code/Pearls1_Chapter17/Pearl/src/tools/ga-5-3/comex/tools/armci_prof.c'
p9130
(lp9131
(S'MPI_Wtime()'
p9132
S'144'
p9133
tp9134
a(S'MPI_Wtime()'
p9135
S'146'
p9136
tp9137
a(S'MPI_Wtime()'
p9138
S'158'
p9139
tp9140
a(S'MPI_Wtime()'
p9141
S'160'
p9142
tp9143
a(S'MPI_Wtime()'
p9144
S'172'
p9145
tp9146
a(S'MPI_Wtime()'
p9147
S'174'
p9148
tp9149
a(S'MPI_Wtime()'
p9150
S'186'
p9151
tp9152
a(S'MPI_Wtime()'
p9153
S'188'
p9154
tp9155
a(S'MPI_Wtime()'
p9156
S'200'
p9157
tp9158
a(S'MPI_Wtime()'
p9159
S'202'
p9160
tp9161
a(S'MPI_Wtime()'
p9162
S'214'
p9163
tp9164
a(S'MPI_Wtime()'
p9165
S'216'
p9166
tp9167
a(S'MPI_Wtime()'
p9168
S'228'
p9169
tp9170
a(S'MPI_Wtime()'
p9171
S'230'
p9172
tp9173
a(S'MPI_Wtime()'
p9174
S'242'
p9175
tp9176
a(S'MPI_Wtime()'
p9177
S'244'
p9178
tp9179
a(S'MPI_Wtime()'
p9180
S'256'
p9181
tp9182
a(S'MPI_Wtime()'
p9183
S'258'
p9184
tp9185
a(S'MPI_Wtime()'
p9186
S'270'
p9187
tp9188
a(S'MPI_Wtime()'
p9189
S'272'
p9190
tp9191
a(S'MPI_Wtime()'
p9192
S'284'
p9193
tp9194
a(S'MPI_Wtime()'
p9195
S'286'
p9196
tp9197
a(S'MPI_Wtime()'
p9198
S'298'
p9199
tp9200
a(S'MPI_Wtime()'
p9201
S'300'
p9202
tp9203
a(S'MPI_Wtime()'
p9204
S'312'
p9205
tp9206
a(S'MPI_Wtime()'
p9207
S'314'
p9208
tp9209
a(S'MPI_Wtime()'
p9210
S'326'
p9211
tp9212
a(S'MPI_Wtime()'
p9213
S'328'
p9214
tp9215
a(S'MPI_Wtime()'
p9216
S'340'
p9217
tp9218
a(S'MPI_Wtime()'
p9219
S'342'
p9220
tp9221
a(S'MPI_Wtime()'
p9222
S'354'
p9223
tp9224
a(S'MPI_Wtime()'
p9225
S'356'
p9226
tp9227
a(S'MPI_Wtime()'
p9228
S'368'
p9229
tp9230
a(S'MPI_Wtime()'
p9231
S'370'
p9232
tp9233
a(S'MPI_Comm_dup()'
p9234
S'382'
p9235
tp9236
a(S'MPI_Comm_rank()'
p9237
S'383'
p9238
tp9239
a(S'MPI_Comm_size()'
p9240
S'384'
p9241
tp9242
a(S'MPI_Wtime()'
p9243
S'387'
p9244
tp9245
a(S'MPI_Wtime()'
p9246
S'388'
p9247
tp9248
a(S'MPI_Wtime()'
p9249
S'390'
p9250
tp9251
a(S'MPI_Comm_dup()'
p9252
S'402'
p9253
tp9254
a(S'MPI_Comm_rank()'
p9255
S'403'
p9256
tp9257
a(S'MPI_Comm_size()'
p9258
S'404'
p9259
tp9260
a(S'MPI_Wtime()'
p9261
S'407'
p9262
tp9263
a(S'MPI_Wtime()'
p9264
S'408'
p9265
tp9266
a(S'MPI_Wtime()'
p9267
S'410'
p9268
tp9269
a(S'MPI_Wtime()'
p9270
S'422'
p9271
tp9272
a(S'MPI_Wtime()'
p9273
S'424'
p9274
tp9275
a(S'MPI_Wtime()'
p9276
S'436'
p9277
tp9278
a(S'MPI_Wtime()'
p9279
S'438'
p9280
tp9281
a(S'MPI_Wtime()'
p9282
S'450'
p9283
tp9284
a(S'MPI_Wtime()'
p9285
S'452'
p9286
tp9287
a(S'MPI_Wtime()'
p9288
S'464'
p9289
tp9290
a(S'MPI_Wtime()'
p9291
S'466'
p9292
tp9293
a(S'MPI_Wtime()'
p9294
S'478'
p9295
tp9296
a(S'MPI_Wtime()'
p9297
S'480'
p9298
tp9299
a(S'MPI_Wtime()'
p9300
S'492'
p9301
tp9302
a(S'MPI_Wtime()'
p9303
S'494'
p9304
tp9305
a(S'MPI_Wtime()'
p9306
S'506'
p9307
tp9308
a(S'MPI_Wtime()'
p9309
S'508'
p9310
tp9311
a(S'MPI_Wtime()'
p9312
S'520'
p9313
tp9314
a(S'MPI_Wtime()'
p9315
S'522'
p9316
tp9317
a(S'MPI_Wtime()'
p9318
S'534'
p9319
tp9320
a(S'MPI_Wtime()'
p9321
S'536'
p9322
tp9323
a(S'MPI_Wtime()'
p9324
S'548'
p9325
tp9326
a(S'MPI_Wtime()'
p9327
S'550'
p9328
tp9329
a(S'MPI_Wtime()'
p9330
S'562'
p9331
tp9332
a(S'MPI_Wtime()'
p9333
S'564'
p9334
tp9335
a(S'MPI_Wtime()'
p9336
S'576'
p9337
tp9338
a(S'MPI_Wtime()'
p9339
S'578'
p9340
tp9341
a(S'MPI_Wtime()'
p9342
S'590'
p9343
tp9344
a(S'MPI_Wtime()'
p9345
S'592'
p9346
tp9347
a(S'MPI_Wtime()'
p9348
S'604'
p9349
tp9350
a(S'MPI_Wtime()'
p9351
S'606'
p9352
tp9353
a(S'MPI_Wtime()'
p9354
S'618'
p9355
tp9356
a(S'MPI_Wtime()'
p9357
S'620'
p9358
tp9359
a(S'MPI_Wtime()'
p9360
S'632'
p9361
tp9362
a(S'MPI_Wtime()'
p9363
S'634'
p9364
tp9365
a(S'MPI_Wtime()'
p9366
S'646'
p9367
tp9368
a(S'MPI_Wtime()'
p9369
S'648'
p9370
tp9371
a(S'MPI_Wtime()'
p9372
S'660'
p9373
tp9374
a(S'MPI_Wtime()'
p9375
S'662'
p9376
tp9377
a(S'MPI_Wtime()'
p9378
S'674'
p9379
tp9380
a(S'MPI_Wtime()'
p9381
S'676'
p9382
tp9383
a(S'MPI_Wtime()'
p9384
S'688'
p9385
tp9386
a(S'MPI_Wtime()'
p9387
S'690'
p9388
tp9389
a(S'MPI_Wtime()'
p9390
S'702'
p9391
tp9392
a(S'MPI_Wtime()'
p9393
S'704'
p9394
tp9395
a(S'MPI_Wtime()'
p9396
S'716'
p9397
tp9398
a(S'MPI_Wtime()'
p9399
S'718'
p9400
tp9401
a(S'MPI_Wtime()'
p9402
S'730'
p9403
tp9404
a(S'MPI_Wtime()'
p9405
S'732'
p9406
tp9407
a(S'MPI_Wtime()'
p9408
S'744'
p9409
tp9410
a(S'MPI_Wtime()'
p9411
S'746'
p9412
tp9413
a(S'MPI_Wtime()'
p9414
S'758'
p9415
tp9416
a(S'MPI_Wtime()'
p9417
S'760'
p9418
tp9419
a(S'MPI_Wtime()'
p9420
S'772'
p9421
tp9422
a(S'MPI_Wtime()'
p9423
S'774'
p9424
tp9425
a(S'MPI_Wtime()'
p9426
S'786'
p9427
tp9428
a(S'MPI_Wtime()'
p9429
S'788'
p9430
tp9431
a(S'MPI_Wtime()'
p9432
S'800'
p9433
tp9434
a(S'MPI_Wtime()'
p9435
S'802'
p9436
tp9437
a(S'MPI_Wtime()'
p9438
S'814'
p9439
tp9440
a(S'MPI_Wtime()'
p9441
S'816'
p9442
tp9443
a(S'MPI_Wtime()'
p9444
S'828'
p9445
tp9446
a(S'MPI_Wtime()'
p9447
S'830'
p9448
tp9449
a(S'MPI_Wtime()'
p9450
S'842'
p9451
tp9452
a(S'MPI_Wtime()'
p9453
S'844'
p9454
tp9455
a(S'MPI_Wtime()'
p9456
S'856'
p9457
tp9458
a(S'MPI_Wtime()'
p9459
S'858'
p9460
tp9461
a(S'MPI_Wtime()'
p9462
S'870'
p9463
tp9464
a(S'MPI_Wtime()'
p9465
S'872'
p9466
tp9467
a(S'MPI_Wtime()'
p9468
S'884'
p9469
tp9470
a(S'MPI_Wtime()'
p9471
S'886'
p9472
tp9473
a(S'MPI_Wtime()'
p9474
S'898'
p9475
tp9476
a(S'MPI_Wtime()'
p9477
S'900'
p9478
tp9479
a(S'MPI_Wtime()'
p9480
S'912'
p9481
tp9482
a(S'MPI_Wtime()'
p9483
S'914'
p9484
tp9485
a(S'MPI_Wtime()'
p9486
S'926'
p9487
tp9488
a(S'MPI_Wtime()'
p9489
S'928'
p9490
tp9491
a(S'MPI_Wtime()'
p9492
S'940'
p9493
tp9494
a(S'MPI_Wtime()'
p9495
S'942'
p9496
tp9497
a(S'MPI_Wtime()'
p9498
S'952'
p9499
tp9500
a(S'MPI_Reduce()'
p9501
S'958'
p9502
tp9503
a(S'MPI_Reduce()'
p9504
S'963'
p9505
tp9506
a(S'MPI_Reduce()'
p9507
S'968'
p9508
tp9509
a(S'MPI_Reduce()'
p9510
S'973'
p9511
tp9512
a(S'MPI_Reduce()'
p9513
S'978'
p9514
tp9515
a(S'MPI_Reduce()'
p9516
S'983'
p9517
tp9518
a(S'MPI_Reduce()'
p9519
S'988'
p9520
tp9521
a(S'MPI_Reduce()'
p9522
S'993'
p9523
tp9524
a(S'MPI_Reduce()'
p9525
S'998'
p9526
tp9527
a(S'MPI_Reduce()'
p9528
S'1003'
p9529
tp9530
a(S'MPI_Reduce()'
p9531
S'1008'
p9532
tp9533
a(S'MPI_Reduce()'
p9534
S'1013'
p9535
tp9536
a(S'MPI_Reduce()'
p9537
S'1018'
p9538
tp9539
a(S'MPI_Reduce()'
p9540
S'1023'
p9541
tp9542
a(S'MPI_Reduce()'
p9543
S'1028'
p9544
tp9545
a(S'MPI_Reduce()'
p9546
S'1033'
p9547
tp9548
a(S'MPI_Reduce()'
p9549
S'1038'
p9550
tp9551
a(S'MPI_Reduce()'
p9552
S'1043'
p9553
tp9554
a(S'MPI_Reduce()'
p9555
S'1048'
p9556
tp9557
a(S'MPI_Reduce()'
p9558
S'1053'
p9559
tp9560
a(S'MPI_Reduce()'
p9561
S'1058'
p9562
tp9563
a(S'MPI_Reduce()'
p9564
S'1063'
p9565
tp9566
a(S'MPI_Reduce()'
p9567
S'1068'
p9568
tp9569
a(S'MPI_Reduce()'
p9570
S'1073'
p9571
tp9572
a(S'MPI_Reduce()'
p9573
S'1078'
p9574
tp9575
a(S'MPI_Reduce()'
p9576
S'1083'
p9577
tp9578
a(S'MPI_Reduce()'
p9579
S'1088'
p9580
tp9581
a(S'MPI_Reduce()'
p9582
S'1093'
p9583
tp9584
a(S'MPI_Reduce()'
p9585
S'1098'
p9586
tp9587
a(S'MPI_Reduce()'
p9588
S'1103'
p9589
tp9590
a(S'MPI_Reduce()'
p9591
S'1108'
p9592
tp9593
a(S'MPI_Reduce()'
p9594
S'1113'
p9595
tp9596
a(S'MPI_Reduce()'
p9597
S'1118'
p9598
tp9599
a(S'MPI_Reduce()'
p9600
S'1123'
p9601
tp9602
a(S'MPI_Reduce()'
p9603
S'1128'
p9604
tp9605
a(S'MPI_Reduce()'
p9606
S'1133'
p9607
tp9608
a(S'MPI_Reduce()'
p9609
S'1138'
p9610
tp9611
a(S'MPI_Reduce()'
p9612
S'1143'
p9613
tp9614
a(S'MPI_Reduce()'
p9615
S'1148'
p9616
tp9617
a(S'MPI_Reduce()'
p9618
S'1153'
p9619
tp9620
a(S'MPI_Reduce()'
p9621
S'1158'
p9622
tp9623
a(S'MPI_Reduce()'
p9624
S'1163'
p9625
tp9626
a(S'MPI_Reduce()'
p9627
S'1168'
p9628
tp9629
a(S'MPI_Reduce()'
p9630
S'1173'
p9631
tp9632
a(S'MPI_Reduce()'
p9633
S'1178'
p9634
tp9635
a(S'MPI_Reduce()'
p9636
S'1183'
p9637
tp9638
a(S'MPI_Reduce()'
p9639
S'1188'
p9640
tp9641
a(S'MPI_Reduce()'
p9642
S'1193'
p9643
tp9644
a(S'MPI_Reduce()'
p9645
S'1198'
p9646
tp9647
a(S'MPI_Reduce()'
p9648
S'1203'
p9649
tp9650
a(S'MPI_Reduce()'
p9651
S'1208'
p9652
tp9653
a(S'MPI_Reduce()'
p9654
S'1213'
p9655
tp9656
a(S'MPI_Reduce()'
p9657
S'1218'
p9658
tp9659
a(S'MPI_Reduce()'
p9660
S'1223'
p9661
tp9662
a(S'MPI_Reduce()'
p9663
S'1228'
p9664
tp9665
a(S'MPI_Reduce()'
p9666
S'1233'
p9667
tp9668
a(S'MPI_Reduce()'
p9669
S'1238'
p9670
tp9671
a(S'MPI_Reduce()'
p9672
S'1243'
p9673
tp9674
a(S'MPI_Comm_free()'
p9675
S'1253'
p9676
tp9677
asS'lotsofcoresbook1code/Pearls1_Chapter17/Pearl/src/tools/ga-5-3/armci/src-gemini/message.c'
p9678
(lp9679
(S'MPI_Barrier()'
p9680
S'431'
p9681
tp9682
a(S'MPI_Initialized()'
p9683
S'462'
p9684
tp9685
a(S'MPI_Init_thread()'
p9686
S'466'
p9687
tp9688
a(S'MPI_Init()'
p9689
S'468'
p9690
tp9691
a(S'MPI_Comm_dup()'
p9692
S'472'
p9693
tp9694
a(S'MPI_Comm_rank()'
p9695
S'488'
p9696
tp9697
a(S'MPI_Comm_size()'
p9698
S'512'
p9699
tp9700
a(S'MPI_Abort()'
p9701
S'553'
p9702
tp9703
a(S'MPI_Finalize()'
p9704
S'572'
p9705
tp9706
a(S'MPI_Bcast()'
p9707
S'820'
p9708
tp9709
a(S'MPI_Send()'
p9710
S'835'
p9711
tp9712
a(S'MPI_Recv()'
p9713
S'859'
p9714
tp9715
a(S'MPI_Recv()'
p9716
S'882'
p9717
tp9718
a(S'MPI_Barrier()'
p9719
S'1915'
p9720
tp9721
a(S'MPI_Comm_group()'
p9722
S'1947'
p9723
tp9724
a(S'MPI_Group_incl()'
p9725
S'1948'
p9726
tp9727
a(S'MPI_Comm_create()'
p9728
S'1950'
p9729
tp9730
a(S'MPI_Comm_free()'
p9731
S'1957'
p9732
tp9733
a(S'MPI_Group_free()'
p9734
S'1958'
p9735
tp9736
asS'lotsofcoresbook1code/Pearls1_Chapter08/Pearl/output.cpp'
p9737
(lp9738
(S'MPI_Comm_rank()'
p9739
S'57'
p9740
tp9741
a(S'MPI_Comm_size()'
p9742
S'58'
p9743
tp9744
a(S'MPI_Allreduce()'
p9745
S'65'
p9746
tp9747
a(S'MPI_Allreduce()'
p9748
S'76'
p9749
tp9750
a(S'MPI_Allreduce()'
p9751
S'202'
p9752
tp9753
a(S'MPI_Allreduce()'
p9754
S'227'
p9755
tp9756
a(S'MPI_Allreduce()'
p9757
S'238'
p9758
tp9759
a(S'MPI_Allreduce()'
p9760
S'249'
p9761
tp9762
a(S'MPI_Allreduce()'
p9763
S'261'
p9764
tp9765
a(S'MPI_Allreduce()'
p9766
S'475'
p9767
tp9768
a(S'MPI_Allreduce()'
p9769
S'513'
p9770
tp9771
a(S'MPI_Allreduce()'
p9772
S'515'
p9773
tp9774
a(S'MPI_Allreduce()'
p9775
S'517'
p9776
tp9777
a(S'MPI_Allreduce()'
p9778
S'519'
p9779
tp9780
a(S'MPI_Allreduce()'
p9781
S'536'
p9782
tp9783
asS'lotsofcoresbook1code/Pearls1_Chapter26/Pearl/ooc_solver/scalapack/BLACS/SRC/sgebs2d_.c'
p9784
(lp9785
(S'X_MPI_Datatype()'
p9786
S'60'
p9787
tp9788
a(S'X_MPI_FLOAT()'
p9789
S'111'
p9790
tp9791
asS'lotsofcoresbook1code/Pearls1_Chapter26/Pearl/ooc_solver/scalapack/BLACS/SRC/dgesd2d_.c'
p9792
(lp9793
(S'X_MPI_Datatype()'
p9794
S'51'
p9795
tp9796
a(S'X_MPI_DOUBLE()'
p9797
S'76'
p9798
tp9799
asS'lotsofcoresbook1code/Pearls1_Chapter17/Pearl/src/tools/ga-5-3/comex/src-armci/message.c'
p9800
(lp9801
(S'MPI_Comm_rank()'
p9802
S'160'
p9803
tp9804
a(S'MPI_Type_size()'
p9805
S'181'
p9806
tp9807
a(S'MPI_Allreduce()'
p9808
S'197'
p9809
tp9810
a(S'MPI_Bcast()'
p9811
S'209'
p9812
tp9813
a(S'MPI_Type_struct()'
p9814
S'256'
p9815
tp9816
a(S'MPI_Allreduce()'
p9817
S'280'
p9818
tp9819
a(S'MPI_Bcast()'
p9820
S'303'
p9821
tp9822
a(S'MPI_Comm_rank()'
p9823
S'330'
p9824
tp9825
a(S'MPI_Isend()'
p9826
S'335'
p9827
tp9828
a(S'MPI_Test()'
p9829
S'346'
p9830
tp9831
a(S'MPI_Comm_rank()'
p9832
S'365'
p9833
tp9834
a(S'MPI_Irecv()'
p9835
S'370'
p9836
tp9837
a(S'MPI_Test()'
p9838
S'374'
p9839
tp9840
a(S'MPI_Test()'
p9841
S'384'
p9842
tp9843
a(S'MPI_Get_count()'
p9844
S'392'
p9845
tp9846
a(S'MPI_Comm_rank()'
p9847
S'407'
p9848
tp9849
a(S'MPI_Irecv()'
p9850
S'412'
p9851
tp9852
a(S'MPI_Test()'
p9853
S'415'
p9854
tp9855
a(S'MPI_Get_count()'
p9856
S'423'
p9857
tp9858
a(S'MPI_Barrier()'
p9859
S'498'
p9860
tp9861
a(S'MPI_Comm_rank()'
p9862
S'528'
p9863
tp9864
a(S'MPI_Comm_size()'
p9865
S'538'
p9866
tp9867
a(S'MPI_Abort()'
p9868
S'546'
p9869
tp9870
a(S'MPI_Initialized()'
p9871
S'553'
p9872
tp9873
a(S'MPI_Init()'
p9874
S'555'
p9875
tp9876
a(S'MPI_Initialized()'
p9877
S'563'
p9878
tp9879
a(S'MPI_Finalize()'
p9880
S'565'
p9881
tp9882
a(S'MPI_Allgather()'
p9883
S'670'
p9884
tp9885
a(S'MPI_Barrier()'
p9886
S'679'
p9887
tp9888
a(S'MPI_Bcast()'
p9889
S'686'
p9890
tp9891
a(S'MPI_Comm_group()'
p9892
S'697'
p9893
tp9894
a(S'MPI_Comm_group()'
p9895
S'699'
p9896
tp9897
a(S'MPI_Group_translate_ranks()'
p9898
S'701'
p9899
tp9900
a(S'MPI_Bcast()'
p9901
S'704'
p9902
tp9903
asS'lotsofcoresbook1code/Pearls1_Chapter26/Pearl/ooc_solver/scalapack/REDIST/TESTING/pdgemrdrv.c'
p9904
(lp9905
(S'MPI_Init()'
p9906
S'273'
p9907
tp9908
asS'lotsofcoresbook1code/Pearls1_Chapter17/Pearl/src/tools/ga-5-3/global/testing/ga-mpi.c'
p9909
(lp9910
(S'MPI_Barrier()'
p9911
S'106'
p9912
tp9913
a(S'MPI_Comm_split()'
p9914
S'108'
p9915
tp9916
a(S'MPI_Comm_split()'
p9917
S'110'
p9918
tp9919
a(S'MPI_Comm_rank()'
p9920
S'114'
p9921
tp9922
a(S'MPI_Reduce()'
p9923
S'126'
p9924
tp9925
a(S'MPI_Finalize()'
p9926
S'182'
p9927
tp9928
asS'lotsofcoresbook1code/Pearls1_Chapter26/Pearl/ooc_solver/scalapack/BLACS/SRC/igebs2d_.c'
p9929
(lp9930
(S'X_MPI_Datatype()'
p9931
S'60'
p9932
tp9933
a(S'X_MPI_INT()'
p9934
S'111'
p9935
tp9936
asS'lotsofcoresbook1code/Pearls1_Chapter13/Pearl/src/std/zsc-3d-mpi/parameters.F90'
p9937
(lp9938
(S'MPI_FINALIZE()'
p9939
S'80'
p9940
tp9941
a(S'MPI_FINALIZE()'
p9942
S'151'
p9943
tp9944
a(S'MPI_FINALIZE()'
p9945
S'166'
p9946
tp9947
a(S'MPI_BCAST()'
p9948
S'173'
p9949
tp9950
a(S'MPI_BCAST()'
p9951
S'174'
p9952
tp9953
a(S'MPI_BCAST()'
p9954
S'209'
p9955
tp9956
asS'lotsofcoresbook1code/Pearls1_Chapter17/Pearl/src/tools/ga-5-3/global/testing/unit-tests/ga_acc.c'
p9957
(lp9958
(S'MPI_Init()'
p9959
S'24'
p9960
tp9961
a(S'MPI_Comm_rank()'
p9962
S'25'
p9963
tp9964
a(S'MPI_Comm_size()'
p9965
S'26'
p9966
tp9967
a(S'MPI_Finalize()'
p9968
S'64'
p9969
tp9970
asS'lotsofcoresbook1code/Pearls1_Chapter13/Pearl/src/opt/lbs3d-mpi/poststream.F90'
p9971
(lp9972
(S'MPI_IRECV()'
p9973
S'46'
p9974
tp9975
a(S'X_MPI_COMM_VGRID()'
p9976
S'47'
p9977
tp9978
a(S'MPI_IRECV()'
p9979
S'48'
p9980
tp9981
a(S'X_MPI_COMM_VGRID()'
p9982
S'49'
p9983
tp9984
a(S'MPI_IRECV()'
p9985
S'50'
p9986
tp9987
a(S'X_MPI_COMM_VGRID()'
p9988
S'51'
p9989
tp9990
a(S'MPI_IRECV()'
p9991
S'52'
p9992
tp9993
a(S'X_MPI_COMM_VGRID()'
p9994
S'53'
p9995
tp9996
a(S'MPI_IRECV()'
p9997
S'54'
p9998
tp9999
a(S'X_MPI_COMM_VGRID()'
p10000
S'55'
p10001
tp10002
a(S'MPI_IRECV()'
p10003
S'56'
p10004
tp10005
a(S'X_MPI_COMM_VGRID()'
p10006
S'57'
p10007
tp10008
a(S'MPI_ISEND()'
p10009
S'71'
p10010
tp10011
a(S'X_MPI_COMM_VGRID()'
p10012
S'72'
p10013
tp10014
a(S'MPI_ISEND()'
p10015
S'73'
p10016
tp10017
a(S'X_MPI_COMM_VGRID()'
p10018
S'74'
p10019
tp10020
a(S'MPI_ISEND()'
p10021
S'88'
p10022
tp10023
a(S'X_MPI_COMM_VGRID()'
p10024
S'89'
p10025
tp10026
a(S'MPI_ISEND()'
p10027
S'90'
p10028
tp10029
a(S'X_MPI_COMM_VGRID()'
p10030
S'91'
p10031
tp10032
a(S'MPI_ISEND()'
p10033
S'105'
p10034
tp10035
a(S'X_MPI_COMM_VGRID()'
p10036
S'106'
p10037
tp10038
a(S'MPI_ISEND()'
p10039
S'107'
p10040
tp10041
a(S'X_MPI_COMM_VGRID()'
p10042
S'108'
p10043
tp10044
a(S'MPI_WAITALL()'
p10045
S'112'
p10046
tp10047
a(S'MPI_WAITALL()'
p10048
S'127'
p10049
tp10050
a(S'MPI_WAITALL()'
p10051
S'142'
p10052
tp10053
a(S'MPI_IRECV()'
p10054
S'162'
p10055
tp10056
a(S'X_MPI_COMM_VGRID()'
p10057
S'163'
p10058
tp10059
a(S'MPI_IRECV()'
p10060
S'164'
p10061
tp10062
a(S'X_MPI_COMM_VGRID()'
p10063
S'165'
p10064
tp10065
a(S'MPI_IRECV()'
p10066
S'166'
p10067
tp10068
a(S'X_MPI_COMM_VGRID()'
p10069
S'167'
p10070
tp10071
a(S'MPI_IRECV()'
p10072
S'168'
p10073
tp10074
a(S'X_MPI_COMM_VGRID()'
p10075
S'169'
p10076
tp10077
a(S'MPI_IRECV()'
p10078
S'170'
p10079
tp10080
a(S'X_MPI_COMM_VGRID()'
p10081
S'171'
p10082
tp10083
a(S'MPI_IRECV()'
p10084
S'172'
p10085
tp10086
a(S'X_MPI_COMM_VGRID()'
p10087
S'173'
p10088
tp10089
a(S'MPI_ISEND()'
p10090
S'231'
p10091
tp10092
a(S'X_MPI_COMM_VGRID()'
p10093
S'232'
p10094
tp10095
a(S'MPI_ISEND()'
p10096
S'233'
p10097
tp10098
a(S'X_MPI_COMM_VGRID()'
p10099
S'234'
p10100
tp10101
a(S'MPI_ISEND()'
p10102
S'291'
p10103
tp10104
a(S'X_MPI_COMM_VGRID()'
p10105
S'292'
p10106
tp10107
a(S'MPI_ISEND()'
p10108
S'293'
p10109
tp10110
a(S'X_MPI_COMM_VGRID()'
p10111
S'294'
p10112
tp10113
a(S'MPI_ISEND()'
p10114
S'351'
p10115
tp10116
a(S'X_MPI_COMM_VGRID()'
p10117
S'352'
p10118
tp10119
a(S'MPI_ISEND()'
p10120
S'353'
p10121
tp10122
a(S'X_MPI_COMM_VGRID()'
p10123
S'354'
p10124
tp10125
a(S'MPI_IRECV()'
p10126
S'357'
p10127
tp10128
a(S'X_MPI_COMM_VGRID()'
p10129
S'358'
p10130
tp10131
a(S'MPI_IRECV()'
p10132
S'359'
p10133
tp10134
a(S'X_MPI_COMM_VGRID()'
p10135
S'360'
p10136
tp10137
a(S'MPI_IRECV()'
p10138
S'361'
p10139
tp10140
a(S'X_MPI_COMM_VGRID()'
p10141
S'362'
p10142
tp10143
a(S'MPI_IRECV()'
p10144
S'363'
p10145
tp10146
a(S'X_MPI_COMM_VGRID()'
p10147
S'364'
p10148
tp10149
a(S'MPI_IRECV()'
p10150
S'365'
p10151
tp10152
a(S'X_MPI_COMM_VGRID()'
p10153
S'366'
p10154
tp10155
a(S'MPI_IRECV()'
p10156
S'367'
p10157
tp10158
a(S'X_MPI_COMM_VGRID()'
p10159
S'368'
p10160
tp10161
a(S'MPI_IRECV()'
p10162
S'369'
p10163
tp10164
a(S'X_MPI_COMM_VGRID()'
p10165
S'370'
p10166
tp10167
a(S'MPI_IRECV()'
p10168
S'371'
p10169
tp10170
a(S'X_MPI_COMM_VGRID()'
p10171
S'372'
p10172
tp10173
a(S'MPI_IRECV()'
p10174
S'373'
p10175
tp10176
a(S'X_MPI_COMM_VGRID()'
p10177
S'374'
p10178
tp10179
a(S'MPI_IRECV()'
p10180
S'375'
p10181
tp10182
a(S'X_MPI_COMM_VGRID()'
p10183
S'376'
p10184
tp10185
a(S'MPI_IRECV()'
p10186
S'377'
p10187
tp10188
a(S'X_MPI_COMM_VGRID()'
p10189
S'378'
p10190
tp10191
a(S'MPI_IRECV()'
p10192
S'379'
p10193
tp10194
a(S'X_MPI_COMM_VGRID()'
p10195
S'380'
p10196
tp10197
a(S'MPI_ISEND()'
p10198
S'423'
p10199
tp10200
a(S'X_MPI_COMM_VGRID()'
p10201
S'424'
p10202
tp10203
a(S'MPI_ISEND()'
p10204
S'425'
p10205
tp10206
a(S'X_MPI_COMM_VGRID()'
p10207
S'426'
p10208
tp10209
a(S'MPI_ISEND()'
p10210
S'427'
p10211
tp10212
a(S'X_MPI_COMM_VGRID()'
p10213
S'428'
p10214
tp10215
a(S'MPI_ISEND()'
p10216
S'429'
p10217
tp10218
a(S'X_MPI_COMM_VGRID()'
p10219
S'430'
p10220
tp10221
a(S'MPI_ISEND()'
p10222
S'473'
p10223
tp10224
a(S'X_MPI_COMM_VGRID()'
p10225
S'474'
p10226
tp10227
a(S'MPI_ISEND()'
p10228
S'475'
p10229
tp10230
a(S'X_MPI_COMM_VGRID()'
p10231
S'476'
p10232
tp10233
a(S'MPI_ISEND()'
p10234
S'477'
p10235
tp10236
a(S'X_MPI_COMM_VGRID()'
p10237
S'478'
p10238
tp10239
a(S'MPI_ISEND()'
p10240
S'479'
p10241
tp10242
a(S'X_MPI_COMM_VGRID()'
p10243
S'480'
p10244
tp10245
a(S'MPI_ISEND()'
p10246
S'523'
p10247
tp10248
a(S'X_MPI_COMM_VGRID()'
p10249
S'524'
p10250
tp10251
a(S'MPI_ISEND()'
p10252
S'525'
p10253
tp10254
a(S'X_MPI_COMM_VGRID()'
p10255
S'526'
p10256
tp10257
a(S'MPI_ISEND()'
p10258
S'527'
p10259
tp10260
a(S'X_MPI_COMM_VGRID()'
p10261
S'528'
p10262
tp10263
a(S'MPI_ISEND()'
p10264
S'529'
p10265
tp10266
a(S'X_MPI_COMM_VGRID()'
p10267
S'530'
p10268
tp10269
a(S'MPI_WAITALL()'
p10270
S'534'
p10271
tp10272
a(S'MPI_WAITALL()'
p10273
S'580'
p10274
tp10275
a(S'MPI_WAITALL()'
p10276
S'626'
p10277
tp10278
a(S'MPI_WAITALL()'
p10279
S'672'
p10280
tp10281
a(S'MPI_WAITALL()'
p10282
S'692'
p10283
tp10284
a(S'MPI_WAITALL()'
p10285
S'712'
p10286
tp10287
asS'lotsofcoresbook1code/Pearls1_Chapter13/Pearl/src/std/ll-dgr-mpi/finaldump.F90'
p10288
(lp10289
(S'MPI_ALLREDUCE()'
p10290
S'102'
p10291
tp10292
a(S'MPI_ALLREDUCE()'
p10293
S'103'
p10294
tp10295
a(S'MPI_ALLREDUCE()'
p10296
S'129'
p10297
tp10298
a(S'MPI_FINALIZE()'
p10299
S'172'
p10300
tp10301
asS'lotsofcoresbook1code/Pearls1_Chapter13/Pearl/src/std/zsc-dgr-mpi/parameters.F90'
p10302
(lp10303
(S'MPI_FINALIZE()'
p10304
S'75'
p10305
tp10306
a(S'MPI_FINALIZE()'
p10307
S'92'
p10308
tp10309
a(S'MPI_BCAST()'
p10310
S'130'
p10311
tp10312
a(S'MPI_BCAST()'
p10313
S'131'
p10314
tp10315
a(S'MPI_BCAST()'
p10316
S'161'
p10317
tp10318
asS'lotsofcoresbook1code/Pearls1_Chapter13/Pearl/src/std/zsc-mpi/poststream.F90'
p10319
(lp10320
(S'MPI_IRECV()'
p10321
S'58'
p10322
tp10323
a(S'MPI_SEND()'
p10324
S'59'
p10325
tp10326
a(S'MPI_WAIT()'
p10327
S'60'
p10328
tp10329
a(S'MPI_IRECV()'
p10330
S'62'
p10331
tp10332
a(S'MPI_SEND()'
p10333
S'63'
p10334
tp10335
a(S'MPI_WAIT()'
p10336
S'64'
p10337
tp10338
a(S'MPI_IRECV()'
p10339
S'74'
p10340
tp10341
a(S'MPI_SEND()'
p10342
S'75'
p10343
tp10344
a(S'MPI_WAIT()'
p10345
S'76'
p10346
tp10347
a(S'MPI_IRECV()'
p10348
S'78'
p10349
tp10350
a(S'MPI_SEND()'
p10351
S'79'
p10352
tp10353
a(S'MPI_WAIT()'
p10354
S'80'
p10355
tp10356
a(S'MPI_IRECV()'
p10357
S'137'
p10358
tp10359
a(S'MPI_SEND()'
p10360
S'138'
p10361
tp10362
a(S'MPI_WAIT()'
p10363
S'139'
p10364
tp10365
a(S'MPI_IRECV()'
p10366
S'141'
p10367
tp10368
a(S'MPI_SEND()'
p10369
S'142'
p10370
tp10371
a(S'MPI_WAIT()'
p10372
S'143'
p10373
tp10374
a(S'MPI_IRECV()'
p10375
S'153'
p10376
tp10377
a(S'MPI_SEND()'
p10378
S'154'
p10379
tp10380
a(S'MPI_WAIT()'
p10381
S'155'
p10382
tp10383
a(S'MPI_IRECV()'
p10384
S'157'
p10385
tp10386
a(S'MPI_SEND()'
p10387
S'158'
p10388
tp10389
a(S'MPI_WAIT()'
p10390
S'159'
p10391
tp10392
a(S'MPI_IRECV()'
p10393
S'167'
p10394
tp10395
a(S'MPI_SEND()'
p10396
S'168'
p10397
tp10398
a(S'MPI_WAIT()'
p10399
S'169'
p10400
tp10401
a(S'MPI_IRECV()'
p10402
S'171'
p10403
tp10404
a(S'MPI_SEND()'
p10405
S'172'
p10406
tp10407
a(S'MPI_WAIT()'
p10408
S'173'
p10409
tp10410
a(S'MPI_IRECV()'
p10411
S'175'
p10412
tp10413
a(S'MPI_SEND()'
p10414
S'176'
p10415
tp10416
a(S'MPI_WAIT()'
p10417
S'177'
p10418
tp10419
a(S'MPI_IRECV()'
p10420
S'179'
p10421
tp10422
a(S'MPI_SEND()'
p10423
S'180'
p10424
tp10425
a(S'MPI_WAIT()'
p10426
S'181'
p10427
tp10428
asS'lotsofcoresbook1code/Pearls1_Chapter17/Pearl/src/tools/ga-5-3/global/testing/unit-tests/ga_set_data.c'
p10429
(lp10430
(S'MPI_Init()'
p10431
S'23'
p10432
tp10433
a(S'MPI_Comm_rank()'
p10434
S'25'
p10435
tp10436
a(S'MPI_Comm_size()'
p10437
S'26'
p10438
tp10439
a(S'MPI_Finalize()'
p10440
S'53'
p10441
tp10442
asS'lotsofcoresbook1code/Pearls1_Chapter17/Pearl/src/peigs/comm/mxsubs.F'
p10443
(lp10444
(S'MPI_INITIALIZED()'
p10445
S'126'
p10446
tp10447
a(S'MPI_INIT()'
p10448
S'135'
p10449
tp10450
a(S'MPI_COMM_RANK()'
p10451
S'206'
p10452
tp10453
a(S'MPI_COMM_SIZE()'
p10454
S'213'
p10455
tp10456
a(S'MPI_RECV()'
p10457
S'344'
p10458
tp10459
a(S'MPI_SEND()'
p10460
S'432'
p10461
tp10462
a(S'MPI_BARRIER()'
p10463
S'485'
p10464
tp10465
a(S'MPI_FINALIZE()'
p10466
S'596'
p10467
tp10468
a(S'MPI_FINALIZE()'
p10469
S'688'
p10470
tp10471
asS'lotsofcoresbook1code/Pearls1_Chapter13/Pearl/src/std/ll-dgr-mpi/mpi_update_f.F90'
p10472
(lp10473
(S'MPI_IRECV()'
p10474
S'83'
p10475
tp10476
a(S'MPI_SEND()'
p10477
S'84'
p10478
tp10479
a(S'MPI_WAIT()'
p10480
S'85'
p10481
tp10482
a(S'MPI_IRECV()'
p10483
S'87'
p10484
tp10485
a(S'MPI_SEND()'
p10486
S'88'
p10487
tp10488
a(S'MPI_WAIT()'
p10489
S'89'
p10490
tp10491
a(S'MPI_IRECV()'
p10492
S'92'
p10493
tp10494
a(S'MPI_SEND()'
p10495
S'93'
p10496
tp10497
a(S'MPI_WAIT()'
p10498
S'94'
p10499
tp10500
a(S'MPI_IRECV()'
p10501
S'96'
p10502
tp10503
a(S'MPI_SEND()'
p10504
S'97'
p10505
tp10506
a(S'MPI_WAIT()'
p10507
S'98'
p10508
tp10509
a(S'MPI_IRECV()'
p10510
S'101'
p10511
tp10512
a(S'MPI_SEND()'
p10513
S'102'
p10514
tp10515
a(S'MPI_WAIT()'
p10516
S'103'
p10517
tp10518
a(S'MPI_IRECV()'
p10519
S'105'
p10520
tp10521
a(S'MPI_SEND()'
p10522
S'106'
p10523
tp10524
a(S'MPI_WAIT()'
p10525
S'107'
p10526
tp10527
a(S'MPI_IRECV()'
p10528
S'109'
p10529
tp10530
a(S'MPI_SEND()'
p10531
S'110'
p10532
tp10533
a(S'MPI_WAIT()'
p10534
S'111'
p10535
tp10536
a(S'MPI_IRECV()'
p10537
S'113'
p10538
tp10539
a(S'MPI_SEND()'
p10540
S'114'
p10541
tp10542
a(S'MPI_WAIT()'
p10543
S'115'
p10544
tp10545
asS'lotsofcoresbook1code/Pearls1_Chapter13/Pearl/src/std/zsc-dgr-mpi/postcollision_f.F90'
p10546
(lp10547
(S'MPI_IRECV()'
p10548
S'68'
p10549
tp10550
a(S'MPI_SEND()'
p10551
S'69'
p10552
tp10553
a(S'MPI_WAIT()'
p10554
S'70'
p10555
tp10556
a(S'MPI_IRECV()'
p10557
S'72'
p10558
tp10559
a(S'MPI_SEND()'
p10560
S'73'
p10561
tp10562
a(S'MPI_WAIT()'
p10563
S'74'
p10564
tp10565
a(S'MPI_IRECV()'
p10566
S'77'
p10567
tp10568
a(S'MPI_SEND()'
p10569
S'78'
p10570
tp10571
a(S'MPI_WAIT()'
p10572
S'79'
p10573
tp10574
a(S'MPI_IRECV()'
p10575
S'81'
p10576
tp10577
a(S'MPI_SEND()'
p10578
S'82'
p10579
tp10580
a(S'MPI_WAIT()'
p10581
S'83'
p10582
tp10583
asS'lotsofcoresbook1code/Pearls1_Chapter26/Pearl/ooc_solver/scalapack/BLACS/SRC/strsd2d_.c'
p10584
(lp10585
(S'X_MPI_Datatype()'
p10586
S'62'
p10587
tp10588
a(S'X_MPI_FLOAT()'
p10589
S'93'
p10590
tp10591
asS'lotsofcoresbook1code/Pearls1_Chapter17/Pearl/src/tools/ga-5-3/global/testing/unit-tests/ga_create3.c'
p10592
(lp10593
(S'MPI_Init()'
p10594
S'39'
p10595
tp10596
a(S'MPI_Comm_rank()'
p10597
S'41'
p10598
tp10599
a(S'MPI_Comm_size()'
p10600
S'42'
p10601
tp10602
a(S'MPI_Finalize()'
p10603
S'56'
p10604
tp10605
asS'lotsofcoresbook1code/Pearls1_Chapter26/Pearl/ooc_solver/scalapack/BLACS/SRC/itrbr2d_.c'
p10606
(lp10607
(S'X_MPI_Datatype()'
p10608
S'82'
p10609
tp10610
a(S'X_MPI_INT()'
p10611
S'138'
p10612
tp10613
a(S'MPI_Pack_size()'
p10614
S'161'
p10615
tp10616
asS'lotsofcoresbook1code/Pearls1_Chapter17/Pearl/src/tools/ga-5-3/global/testing/unit-tests/ga_elem_multiplypatch.c'
p10617
(lp10618
(S'MPI_Init()'
p10619
S'25'
p10620
tp10621
a(S'MPI_Comm_rank()'
p10622
S'27'
p10623
tp10624
a(S'MPI_Comm_size()'
p10625
S'28'
p10626
tp10627
a(S'MPI_Finalize()'
p10628
S'69'
p10629
tp10630
asS'lotsofcoresbook1code/Pearls1_Chapter17/Pearl/src/tools/ga-5-3/tcgmsg/tcgmsg-mpi/clustercheck.c'
p10631
(lp10632
(S'MPI_Comm_rank()'
p10633
S'34'
p10634
tp10635
a(S'MPI_Bcast()'
p10636
S'36'
p10637
tp10638
a(S'MPI_Bcast()'
p10639
S'38'
p10640
tp10641
a(S'MPI_Abort()'
p10642
S'43'
p10643
tp10644
a(S'MPI_Allreduce()'
p10645
S'53'
p10646
tp10647
a(S'MPI_Abort()'
p10648
S'57'
p10649
tp10650
asS'lotsofcoresbook1code/Pearls1_Chapter17/Pearl/src/tools/ga-5-3/global/testing/unit-tests/ga_lgop.c'
p10651
(lp10652
(S'MPI_Init()'
p10653
S'171'
p10654
tp10655
a(S'MPI_Comm_rank()'
p10656
S'175'
p10657
tp10658
a(S'MPI_Comm_size()'
p10659
S'176'
p10660
tp10661
a(S'MPI_Finalize()'
p10662
S'193'
p10663
tp10664
asS'lotsofcoresbook1code/Pearls1_Chapter26/Pearl/ooc_solver/scalapack/BLACS/SRC/ztrbs2d_.c'
p10665
(lp10666
(S'X_MPI_Datatype()'
p10667
S'73'
p10668
tp10669
a(S'X_MPI_DOUBLE_COMPLEX()'
p10670
S'127'
p10671
tp10672
asS'lotsofcoresbook1code/Pearls1_Chapter13/Pearl/src/std/zsc-3d-mpi/postcollision.F90'
p10673
(lp10674
(S'MPI_IRECV()'
p10675
S'52'
p10676
tp10677
a(S'MPI_IRECV()'
p10678
S'53'
p10679
tp10680
a(S'MPI_IRECV()'
p10681
S'54'
p10682
tp10683
a(S'MPI_IRECV()'
p10684
S'55'
p10685
tp10686
a(S'MPI_SEND()'
p10687
S'75'
p10688
tp10689
a(S'MPI_SEND()'
p10690
S'76'
p10691
tp10692
a(S'MPI_SEND()'
p10693
S'77'
p10694
tp10695
a(S'MPI_SEND()'
p10696
S'78'
p10697
tp10698
a(S'MPI_WAIT()'
p10699
S'79'
p10700
tp10701
a(S'MPI_WAIT()'
p10702
S'80'
p10703
tp10704
a(S'MPI_WAIT()'
p10705
S'81'
p10706
tp10707
a(S'MPI_WAIT()'
p10708
S'82'
p10709
tp10710
a(S'MPI_IRECV()'
p10711
S'85'
p10712
tp10713
a(S'MPI_IRECV()'
p10714
S'86'
p10715
tp10716
a(S'MPI_IRECV()'
p10717
S'87'
p10718
tp10719
a(S'MPI_IRECV()'
p10720
S'88'
p10721
tp10722
a(S'MPI_SEND()'
p10723
S'108'
p10724
tp10725
a(S'MPI_SEND()'
p10726
S'109'
p10727
tp10728
a(S'MPI_SEND()'
p10729
S'110'
p10730
tp10731
a(S'MPI_SEND()'
p10732
S'111'
p10733
tp10734
a(S'MPI_WAIT()'
p10735
S'112'
p10736
tp10737
a(S'MPI_WAIT()'
p10738
S'113'
p10739
tp10740
a(S'MPI_WAIT()'
p10741
S'114'
p10742
tp10743
a(S'MPI_WAIT()'
p10744
S'115'
p10745
tp10746
a(S'MPI_IRECV()'
p10747
S'118'
p10748
tp10749
a(S'MPI_IRECV()'
p10750
S'119'
p10751
tp10752
a(S'MPI_IRECV()'
p10753
S'120'
p10754
tp10755
a(S'MPI_IRECV()'
p10756
S'121'
p10757
tp10758
a(S'MPI_SEND()'
p10759
S'141'
p10760
tp10761
a(S'MPI_SEND()'
p10762
S'142'
p10763
tp10764
a(S'MPI_SEND()'
p10765
S'143'
p10766
tp10767
a(S'MPI_SEND()'
p10768
S'144'
p10769
tp10770
a(S'MPI_WAIT()'
p10771
S'145'
p10772
tp10773
a(S'MPI_WAIT()'
p10774
S'146'
p10775
tp10776
a(S'MPI_WAIT()'
p10777
S'147'
p10778
tp10779
a(S'MPI_WAIT()'
p10780
S'148'
p10781
tp10782
a(S'MPI_IRECV()'
p10783
S'151'
p10784
tp10785
a(S'MPI_IRECV()'
p10786
S'152'
p10787
tp10788
a(S'MPI_IRECV()'
p10789
S'153'
p10790
tp10791
a(S'MPI_IRECV()'
p10792
S'154'
p10793
tp10794
a(S'MPI_SEND()'
p10795
S'163'
p10796
tp10797
a(S'MPI_SEND()'
p10798
S'164'
p10799
tp10800
a(S'MPI_SEND()'
p10801
S'165'
p10802
tp10803
a(S'MPI_SEND()'
p10804
S'166'
p10805
tp10806
a(S'MPI_WAIT()'
p10807
S'167'
p10808
tp10809
a(S'MPI_WAIT()'
p10810
S'168'
p10811
tp10812
a(S'MPI_WAIT()'
p10813
S'169'
p10814
tp10815
a(S'MPI_WAIT()'
p10816
S'170'
p10817
tp10818
a(S'MPI_IRECV()'
p10819
S'173'
p10820
tp10821
a(S'MPI_IRECV()'
p10822
S'174'
p10823
tp10824
a(S'MPI_IRECV()'
p10825
S'175'
p10826
tp10827
a(S'MPI_IRECV()'
p10828
S'176'
p10829
tp10830
a(S'MPI_SEND()'
p10831
S'185'
p10832
tp10833
a(S'MPI_SEND()'
p10834
S'186'
p10835
tp10836
a(S'MPI_SEND()'
p10837
S'187'
p10838
tp10839
a(S'MPI_SEND()'
p10840
S'188'
p10841
tp10842
a(S'MPI_WAIT()'
p10843
S'189'
p10844
tp10845
a(S'MPI_WAIT()'
p10846
S'190'
p10847
tp10848
a(S'MPI_WAIT()'
p10849
S'191'
p10850
tp10851
a(S'MPI_WAIT()'
p10852
S'192'
p10853
tp10854
a(S'MPI_IRECV()'
p10855
S'195'
p10856
tp10857
a(S'MPI_IRECV()'
p10858
S'196'
p10859
tp10860
a(S'MPI_IRECV()'
p10861
S'197'
p10862
tp10863
a(S'MPI_IRECV()'
p10864
S'198'
p10865
tp10866
a(S'MPI_SEND()'
p10867
S'207'
p10868
tp10869
a(S'MPI_SEND()'
p10870
S'208'
p10871
tp10872
a(S'MPI_SEND()'
p10873
S'209'
p10874
tp10875
a(S'MPI_SEND()'
p10876
S'210'
p10877
tp10878
a(S'MPI_WAIT()'
p10879
S'211'
p10880
tp10881
a(S'MPI_WAIT()'
p10882
S'212'
p10883
tp10884
a(S'MPI_WAIT()'
p10885
S'213'
p10886
tp10887
a(S'MPI_WAIT()'
p10888
S'214'
p10889
tp10890
asS'lotsofcoresbook1code/Pearls1_Chapter17/Pearl/src/tools/ga-5-3/armci/src-portals/armci.c'
p10891
(lp10892
(S'MPI_Comm_free()'
p10893
S'431'
p10894
tp10895
asS'lotsofcoresbook1code/Pearls1_Chapter17/Pearl/src/tools/ga-5-3/armci/examples/benchmarks/lu/armci_blocking/lu.c'
p10896
(lp10897
(S'MPI_Alloc_mem()'
p10898
S'156'
p10899
tp10900
a(S'MPI_Win_create()'
p10901
S'157'
p10902
tp10903
a(S'X_MPI_COMM_WORLD()'
p10904
S'158'
p10905
tp10906
a(S'MPI_Barrier()'
p10907
S'160'
p10908
tp10909
a(S'MPI_Win_free()'
p10910
S'231'
p10911
tp10912
a(S'MPI_Free_mem()'
p10913
S'232'
p10914
tp10915
a(S'MPI_Abort()'
p10916
S'383'
p10917
tp10918
a(S'MPI_Win_lock()'
p10919
S'385'
p10920
tp10921
a(S'MPI_Get()'
p10922
S'386'
p10923
tp10924
a(S'X_MPI_CHAR()'
p10925
S'387'
p10926
tp10927
a(S'MPI_Win_unlock()'
p10928
S'388'
p10929
tp10930
asS'lotsofcoresbook1code/Pearls1_Chapter26/Pearl/ooc_solver/scalapack/BLACS/SRC/ztrbr2d_.c'
p10931
(lp10932
(S'X_MPI_Datatype()'
p10933
S'82'
p10934
tp10935
a(S'X_MPI_DOUBLE_COMPLEX()'
p10936
S'138'
p10937
tp10938
a(S'MPI_Pack_size()'
p10939
S'161'
p10940
tp10941
asS'lotsofcoresbook1code/Pearls1_Chapter07/Pearl/farbOpt/mpiTrain.c'
p10942
(lp10943
(S'MPI_Bcast()'
p10944
S'37'
p10945
tp10946
a(S'MPI_Bcast()'
p10947
S'41'
p10948
tp10949
a(S'MPI_Reduce()'
p10950
S'43'
p10951
tp10952
a(S'MPI_Bcast()'
p10953
S'53'
p10954
tp10955
a(S'MPI_Bcast()'
p10956
S'54'
p10957
tp10958
a(S'MPI_Reduce()'
p10959
S'56'
p10960
tp10961
a(S'MPI_Init()'
p10962
S'72'
p10963
tp10964
a(S'MPI_Abort()'
p10965
S'75'
p10966
tp10967
a(S'MPI_Comm_size()'
p10968
S'78'
p10969
tp10970
a(S'MPI_Comm_rank()'
p10971
S'79'
p10972
tp10973
a(S'MPI_Bcast()'
p10974
S'151'
p10975
tp10976
a(S'MPI_Gather()'
p10977
S'163'
p10978
tp10979
a(S'MPI_Gather()'
p10980
S'164'
p10981
tp10982
a(S'MPI_Gather()'
p10983
S'165'
p10984
tp10985
a(S'MPI_Gather()'
p10986
S'166'
p10987
tp10988
a(S'MPI_Gather()'
p10989
S'167'
p10990
tp10991
a(S'MPI_Gather()'
p10992
S'168'
p10993
tp10994
a(S'MPI_Finalize()'
p10995
S'197'
p10996
tp10997
asS'lotsofcoresbook1code/Pearls1_Chapter17/Pearl/src/tools/ga-5-3/tcgmsg/tcgmsg-mpi/misc.c'
p10998
(lp10999
(S'MPI_Comm_size()'
p11000
S'40'
p11001
tp11002
a(S'MPI_Comm_rank()'
p11003
S'57'
p11004
tp11005
a(S'MPI_Abort()'
p11006
S'71'
p11007
tp11008
a(S'MPI_Comm_size()'
p11009
S'88'
p11010
tp11011
a(S'MPI_Comm_group()'
p11012
S'90'
p11013
tp11014
a(S'MPI_Group_excl()'
p11015
S'91'
p11016
tp11017
a(S'MPI_Comm_create()'
p11018
S'92'
p11019
tp11020
a(S'MPI_Initialized()'
p11021
S'135'
p11022
tp11023
a(S'MPI_Init_thread()'
p11024
S'141'
p11025
tp11026
a(S'MPI_Init()'
p11027
S'143'
p11028
tp11029
a(S'MPI_Errhandler_set()'
p11030
S'145'
p11031
tp11032
a(S'MPI_Comm_size()'
p11033
S'148'
p11034
tp11035
a(S'MPI_Comm_rank()'
p11036
S'149'
p11037
tp11038
a(S'MPI_Barrier()'
p11039
S'163'
p11040
tp11041
a(S'MPI_Barrier()'
p11042
S'188'
p11043
tp11044
a(S'MPI_Finalize()'
p11045
S'191'
p11046
tp11047
a(S'MPI_Wtime()'
p11048
S'203'
p11049
tp11050
a(S'MPI_Wtime()'
p11051
S'208'
p11052
tp11053
asS'lotsofcoresbook1code/Pearls1_Chapter17/Pearl/src/tools/ga-5-3/global/examples/petsc.F'
p11054
(lp11055
(S'mpi_finalize()'
p11056
S'33'
p11057
tp11058
asS'lotsofcoresbook1code/Pearls1_Chapter17/Pearl/src/tools/ga-5-3/global/testing/unit-tests/ga_create1.c'
p11059
(lp11060
(S'MPI_Init()'
p11061
S'35'
p11062
tp11063
a(S'MPI_Comm_rank()'
p11064
S'37'
p11065
tp11066
a(S'MPI_Comm_size()'
p11067
S'38'
p11068
tp11069
a(S'MPI_Finalize()'
p11070
S'51'
p11071
tp11072
asS'lotsofcoresbook1code/Pearls1_Chapter17/Pearl/src/tools/ga-5-3/tcgmsg/tests/test_asyn.c'
p11073
(lp11074
(S'MPI_Init()'
p11075
S'20'
p11076
tp11077
a(S'MPI_Comm_size()'
p11078
S'22'
p11079
tp11080
a(S'MPI_Comm_rank()'
p11081
S'23'
p11082
tp11083
a(S'MPI_Irecv()'
p11084
S'28'
p11085
tp11086
a(S'MPI_Send()'
p11087
S'30'
p11088
tp11089
a(S'MPI_Wait()'
p11090
S'32'
p11091
tp11092
a(S'MPI_Recv()'
p11093
S'38'
p11094
tp11095
a(S'MPI_Send()'
p11096
S'40'
p11097
tp11098
a(S'MPI_Finalize()'
p11099
S'43'
p11100
tp11101
asS'lotsofcoresbook1code/Pearls1_Chapter17/Pearl/src/tools/ga-5-3/armci/src-gemini/fence.c'
p11102
(lp11103
(S'MPI_Barrier()'
p11104
S'83'
p11105
tp11106
as.