ccollections
defaultdict
p0
(c__builtin__
list
p1
tp2
Rp3
S'orcm/orte/test/mpi/mpi_no_op.c'
p4
(lp5
(S'MPI_Init()'
p6
S'13'
p7
tp8
a(S'MPI_Finalize()'
p9
S'15'
p10
tp11
asS'orcm/orte/test/mpi/hello_nodename.c'
p12
(lp13
(S'MPI_Init()'
p14
S'27'
p15
tp16
a(S'MPI_Comm_rank()'
p17
S'28'
p18
tp19
a(S'MPI_Comm_size()'
p20
S'29'
p21
tp22
a(S'MPI_Comm_get_attr()'
p23
S'30'
p24
tp25
a(S'MPI_Comm_get_attr()'
p26
S'36'
p27
tp28
a(S'MPI_Finalize()'
p29
S'47'
p30
tp31
asS'orcm/orte/test/mpi/mpi_barrier.c'
p32
(lp33
(S'MPI_Init()'
p34
S'13'
p35
tp36
a(S'MPI_Barrier()'
p37
S'14'
p38
tp39
a(S'MPI_Finalize()'
p40
S'15'
p41
tp42
asS'orcm/opal/mca/common/ugni/common_ugni_ep.h'
p43
(lp44
(S'X_MPI_COMMON_UGNI_EP_Hstruct()'
p45
S'14'
p46
tp47
asS'orcm/orte/test/mpi/spawn-problem/ch_rec.c'
p48
(lp49
(S'MPI_Init()'
p50
S'15'
p51
tp52
a(S'MPI_Comm_get_parent()'
p53
S'16'
p54
tp55
a(S'MPI_Recv()'
p56
S'21'
p57
tp58
a(S'X_MPI_ANY_TAG()'
p59
S'22'
p60
tp61
a(S'MPI_Comm_spawn()'
p62
S'27'
p63
tp64
a(S'MPI_Send()'
p65
S'30'
p66
tp67
a(S'MPI_Irecv()'
p68
S'31'
p69
tp70
a(S'X_MPI_ANY_TAG()'
p71
S'32'
p72
tp73
a(S'MPI_Comm_spawn()'
p74
S'36'
p75
tp76
a(S'MPI_Send()'
p77
S'39'
p78
tp79
a(S'MPI_Irecv()'
p80
S'40'
p81
tp82
a(S'X_MPI_ANY_TAG()'
p83
S'41'
p84
tp85
a(S'MPI_Waitany()'
p86
S'44'
p87
tp88
a(S'MPI_Send()'
p89
S'49'
p90
tp91
a(S'MPI_Finalize()'
p92
S'50'
p93
tp94
asS'orcm/orte/test/mpi/info_spawn.c'
p95
(lp96
(S'MPI_Init()'
p97
S'20'
p98
tp99
a(S'MPI_Comm_rank()'
p100
S'21'
p101
tp102
a(S'MPI_Comm_size()'
p103
S'22'
p104
tp105
a(S'MPI_Comm_get_parent()'
p106
S'24'
p107
tp108
a(S'MPI_Info_create()'
p109
S'34'
p110
tp111
a(S'MPI_Info_set()'
p112
S'45'
p113
tp114
a(S'MPI_Send()'
p115
S'57'
p116
tp117
a(S'MPI_Comm_disconnect()'
p118
S'59'
p119
tp120
a(S'MPI_Comm_rank()'
p121
S'64'
p122
tp123
a(S'MPI_Comm_size()'
p124
S'65'
p125
tp126
a(S'MPI_Recv()'
p127
S'70'
p128
tp129
a(S'MPI_Comm_disconnect()'
p130
S'73'
p131
tp132
a(S'MPI_Finalize()'
p133
S'77'
p134
tp135
asS'orcm/orte/test/mpi/crisscross.c'
p136
(lp137
(S'MPI_Init()'
p138
S'66'
p139
tp140
a(S'MPI_Abort()'
p141
S'71'
p142
tp143
a(S'MPI_Comm_set_errhandler()'
p144
S'74'
p145
tp146
a(S'MPI_Comm_rank()'
p147
S'76'
p148
tp149
a(S'MPI_Abort()'
p150
S'81'
p151
tp152
a(S'MPI_Comm_size()'
p153
S'91'
p154
tp155
a(S'MPI_Abort()'
p156
S'96'
p157
tp158
a(S'MPI_Get_processor_name()'
p159
S'99'
p160
tp161
a(S'MPI_Barrier()'
p162
S'113'
p163
tp164
a(S'MPI_Abort()'
p165
S'118'
p166
tp167
a(S'MPI_Sendrecv()'
p168
S'126'
p169
tp170
a(S'MPI_Abort()'
p171
S'132'
p172
tp173
a(S'MPI_Sendrecv()'
p174
S'141'
p175
tp176
a(S'MPI_Abort()'
p177
S'147'
p178
tp179
a(S'MPI_Send()'
p180
S'155'
p181
tp182
a(S'MPI_Abort()'
p183
S'160'
p184
tp185
a(S'MPI_Recv()'
p186
S'165'
p187
tp188
a(S'MPI_Abort()'
p189
S'170'
p190
tp191
a(S'MPI_Send()'
p192
S'177'
p193
tp194
a(S'MPI_Abort()'
p195
S'182'
p196
tp197
a(S'MPI_Recv()'
p198
S'187'
p199
tp200
a(S'MPI_Abort()'
p201
S'192'
p202
tp203
a(S'MPI_Reduce()'
p204
S'221'
p205
tp206
a(S'MPI_Abort()'
p207
S'226'
p208
tp209
a(S'MPI_Reduce()'
p210
S'229'
p211
tp212
a(S'MPI_Abort()'
p213
S'234'
p214
tp215
a(S'MPI_Reduce()'
p216
S'237'
p217
tp218
a(S'MPI_Abort()'
p219
S'242'
p220
tp221
a(S'MPI_Reduce()'
p222
S'245'
p223
tp224
a(S'MPI_Abort()'
p225
S'250'
p226
tp227
a(S'MPI_Finalize()'
p228
S'253'
p229
tp230
a(S'MPI_Abort()'
p231
S'258'
p232
tp233
asS'orcm/contrib/scaling/mpi_no_op.c'
p234
(lp235
(S'MPI_Init()'
p236
S'13'
p237
tp238
a(S'MPI_Finalize()'
p239
S'15'
p240
tp241
asS'orcm/orte/test/mpi/coll_test.c'
p242
(lp243
(S'MPI_Init()'
p244
S'26'
p245
tp246
a(S'MPI_Comm_rank()'
p247
S'27'
p248
tp249
a(S'MPI_Comm_size()'
p250
S'28'
p251
tp252
a(S'MPI_Finalize()'
p253
S'64'
p254
tp255
asS'orcm/orte/test/mpi/hello_show_help.c'
p256
(lp257
(S'MPI_Init()'
p258
S'22'
p259
tp260
a(S'MPI_Comm_rank()'
p261
S'23'
p262
tp263
a(S'MPI_Comm_size()'
p264
S'24'
p265
tp266
a(S'MPI_Barrier()'
p267
S'31'
p268
tp269
a(S'MPI_Barrier()'
p270
S'43'
p271
tp272
a(S'MPI_Finalize()'
p273
S'50'
p274
tp275
asS'orcm/orte/test/mpi/bad_exit.c'
p276
(lp277
(S'MPI_Init()'
p278
S'11'
p279
tp280
a(S'MPI_Comm_rank()'
p281
S'12'
p282
tp283
a(S'MPI_Finalize()'
p284
S'21'
p285
tp286
asS'orcm/orte/test/mpi/accept.c'
p287
(lp288
(S'MPI_Init()'
p289
S'18'
p290
tp291
a(S'MPI_Comm_rank()'
p292
S'20'
p293
tp294
a(S'MPI_Comm_size()'
p295
S'21'
p296
tp297
a(S'MPI_Info_create()'
p298
S'26'
p299
tp300
a(S'MPI_Info_set()'
p301
S'27'
p302
tp303
a(S'MPI_Open_port()'
p304
S'30'
p305
tp306
a(S'MPI_Publish_name()'
p307
S'31'
p308
tp309
a(S'MPI_Comm_accept()'
p310
S'32'
p311
tp312
a(S'MPI_Barrier()'
p313
S'35'
p314
tp315
a(S'MPI_Unpublish_name()'
p316
S'38'
p317
tp318
a(S'MPI_Close_port()'
p319
S'39'
p320
tp321
a(S'MPI_Finalize()'
p322
S'42'
p323
tp324
asS'orcm/orte/test/mpi/connect.c'
p325
(lp326
(S'MPI_Init()'
p327
S'18'
p328
tp329
a(S'MPI_Comm_rank()'
p330
S'20'
p331
tp332
a(S'MPI_Comm_size()'
p333
S'21'
p334
tp335
a(S'MPI_Info_create()'
p336
S'25'
p337
tp338
a(S'MPI_Info_set()'
p339
S'26'
p340
tp341
a(S'MPI_Lookup_name()'
p342
S'28'
p343
tp344
a(S'MPI_Comm_connect()'
p345
S'29'
p346
tp347
a(S'MPI_Barrier()'
p348
S'31'
p349
tp350
a(S'MPI_Finalize()'
p351
S'33'
p352
tp353
asS'orcm/orte/test/mpi/slave.c'
p354
(lp355
(S'MPI_Init()'
p356
S'20'
p357
tp358
a(S'MPI_Comm_rank()'
p359
S'22'
p360
tp361
a(S'MPI_Comm_size()'
p362
S'23'
p363
tp364
a(S'MPI_Comm_get_parent()'
p365
S'25'
p366
tp367
a(S'MPI_Recv()'
p368
S'27'
p369
tp370
a(S'MPI_Comm_disconnect()'
p371
S'29'
p372
tp373
a(S'MPI_Finalize()'
p374
S'31'
p375
tp376
asS'orcm/orte/test/mpi/pconnect.c'
p377
(lp378
(S'MPI_Init()'
p379
S'42'
p380
tp381
a(S'X_MPI_COMM_SELF()'
p382
S'63'
p383
tp384
a(S'X_MPI_COMM_SELF()'
p385
S'76'
p386
tp387
a(S'MPI_Send()'
p388
S'90'
p389
tp390
a(S'MPI_Comm_disconnect()'
p391
S'91'
p392
tp393
a(S'MPI_Finalize()'
p394
S'96'
p395
tp396
asS'orcm/orte/test/mpi/hello.c'
p397
(lp398
(S'MPI_Init()'
p399
S'20'
p400
tp401
a(S'MPI_Comm_rank()'
p402
S'21'
p403
tp404
a(S'MPI_Comm_size()'
p405
S'22'
p406
tp407
a(S'MPI_Finalize()'
p408
S'32'
p409
tp410
asS'orcm/orte/test/mpi/loop_spawn.c'
p411
(lp412
(S'MPI_Init()'
p413
S'23'
p414
tp415
a(S'MPI_Comm_spawn()'
p416
S'26'
p417
tp418
a(S'MPI_Intercomm_merge()'
p419
S'30'
p420
tp421
a(S'MPI_Comm_rank()'
p422
S'31'
p423
tp424
a(S'MPI_Comm_size()'
p425
S'32'
p426
tp427
a(S'MPI_Comm_free()'
p428
S'35'
p429
tp430
a(S'MPI_Comm_disconnect()'
p431
S'36'
p432
tp433
a(S'MPI_Finalize()'
p434
S'39'
p435
tp436
asS'orcm/orte/test/mpi/pmix.c'
p437
(lp438
(S'MPI_Finalize()'
p439
S'33'
p440
tp441
a(S'MPI_Init()'
p442
S'53'
p443
tp444
a(S'MPI_Comm_rank()'
p445
S'54'
p446
tp447
asS'orcm/orte/test/mpi/loop_child.c'
p448
(lp449
(S'MPI_Init()'
p450
S'17'
p451
tp452
a(S'MPI_Comm_get_parent()'
p453
S'19'
p454
tp455
a(S'MPI_Intercomm_merge()'
p456
S'20'
p457
tp458
a(S'MPI_Comm_rank()'
p459
S'21'
p460
tp461
a(S'MPI_Comm_size()'
p462
S'22'
p463
tp464
a(S'MPI_Comm_free()'
p465
S'25'
p466
tp467
a(S'MPI_Comm_disconnect()'
p468
S'26'
p469
tp470
a(S'MPI_Finalize()'
p471
S'27'
p472
tp473
asS'orcm/orte/test/mpi/sendrecv_blaster.c'
p474
(lp475
(S'MPI_Init()'
p476
S'51'
p477
tp478
a(S'MPI_Abort()'
p479
S'56'
p480
tp481
a(S'MPI_Comm_set_errhandler()'
p482
S'59'
p483
tp484
a(S'MPI_Comm_rank()'
p485
S'61'
p486
tp487
a(S'MPI_Abort()'
p488
S'66'
p489
tp490
a(S'MPI_Comm_size()'
p491
S'69'
p492
tp493
a(S'MPI_Abort()'
p494
S'74'
p495
tp496
a(S'MPI_Sendrecv()'
p497
S'161'
p498
tp499
a(S'MPI_Abort()'
p500
S'167'
p501
tp502
a(S'MPI_Sendrecv()'
p503
S'174'
p504
tp505
a(S'MPI_Abort()'
p506
S'180'
p507
tp508
a(S'MPI_Finalize()'
p509
S'188'
p510
tp511
asS'orcm/orte/test/mpi/parallel_r8.c'
p512
(lp513
(S'MPI_Init()'
p514
S'55'
p515
tp516
a(S'MPI_Comm_rank()'
p517
S'56'
p518
tp519
a(S'MPI_Comm_size()'
p520
S'57'
p521
tp522
a(S'MPI_Abort()'
p523
S'83'
p524
tp525
a(S'MPI_Info_create()'
p526
S'96'
p527
tp528
a(S'MPI_Cart_create()'
p529
S'130'
p530
tp531
a(S'MPI_Dims_create()'
p532
S'148'
p533
tp534
a(S'MPI_Type_create_darray()'
p535
S'153'
p536
tp537
a(S'MPI_Type_commit()'
p538
S'155'
p539
tp540
a(S'MPI_Wtime()'
p541
S'157'
p542
tp543
a(S'MPI_File_open()'
p544
S'158'
p545
tp546
a(S'MPI_Wtime()'
p547
S'159'
p548
tp549
a(S'MPI_File_set_view()'
p550
S'161'
p551
tp552
a(S'MPI_Wtime()'
p553
S'163'
p554
tp555
a(S'MPI_File_read_all()'
p556
S'166'
p557
tp558
a(S'MPI_Wtime()'
p559
S'168'
p560
tp561
a(S'MPI_Wtime()'
p562
S'172'
p563
tp564
a(S'MPI_File_close()'
p565
S'173'
p566
tp567
a(S'MPI_Wtime()'
p568
S'174'
p569
tp570
a(S'MPI_Barrier()'
p571
S'184'
p572
tp573
a(S'MPI_Reduce()'
p574
S'186'
p575
tp576
a(S'MPI_Reduce()'
p577
S'187'
p578
tp579
a(S'MPI_Reduce()'
p580
S'188'
p581
tp582
a(S'MPI_Reduce()'
p583
S'190'
p584
tp585
a(S'MPI_Reduce()'
p586
S'191'
p587
tp588
a(S'MPI_Reduce()'
p589
S'192'
p590
tp591
a(S'MPI_Reduce()'
p592
S'194'
p593
tp594
a(S'MPI_Reduce()'
p595
S'195'
p596
tp597
a(S'MPI_Reduce()'
p598
S'196'
p599
tp600
a(S'MPI_Reduce()'
p601
S'198'
p602
tp603
a(S'MPI_Reduce()'
p604
S'199'
p605
tp606
a(S'MPI_Reduce()'
p607
S'200'
p608
tp609
a(S'MPI_Finalize()'
p610
S'219'
p611
tp612
asS'orcm/orte/test/mpi/mpi_info.c'
p613
(lp614
(S'MPI_Init()'
p615
S'31'
p616
tp617
a(S'MPI_Info_get()'
p618
S'36'
p619
tp620
a(S'MPI_Finalize()'
p621
S'41'
p622
tp623
asS'orcm/orte/test/mpi/parallel_r64.c'
p624
(lp625
(S'MPI_Init()'
p626
S'55'
p627
tp628
a(S'MPI_Comm_rank()'
p629
S'56'
p630
tp631
a(S'MPI_Comm_size()'
p632
S'57'
p633
tp634
a(S'MPI_Abort()'
p635
S'83'
p636
tp637
a(S'MPI_Info_create()'
p638
S'96'
p639
tp640
a(S'MPI_Cart_create()'
p641
S'130'
p642
tp643
a(S'MPI_Dims_create()'
p644
S'148'
p645
tp646
a(S'MPI_Type_create_darray()'
p647
S'153'
p648
tp649
a(S'MPI_Type_commit()'
p650
S'155'
p651
tp652
a(S'MPI_Wtime()'
p653
S'157'
p654
tp655
a(S'MPI_File_open()'
p656
S'158'
p657
tp658
a(S'MPI_Wtime()'
p659
S'159'
p660
tp661
a(S'MPI_File_set_view()'
p662
S'161'
p663
tp664
a(S'MPI_Wtime()'
p665
S'163'
p666
tp667
a(S'MPI_File_read_all()'
p668
S'166'
p669
tp670
a(S'MPI_Wtime()'
p671
S'168'
p672
tp673
a(S'MPI_Wtime()'
p674
S'172'
p675
tp676
a(S'MPI_File_close()'
p677
S'173'
p678
tp679
a(S'MPI_Wtime()'
p680
S'174'
p681
tp682
a(S'MPI_Barrier()'
p683
S'184'
p684
tp685
a(S'MPI_Reduce()'
p686
S'186'
p687
tp688
a(S'MPI_Reduce()'
p689
S'187'
p690
tp691
a(S'MPI_Reduce()'
p692
S'188'
p693
tp694
a(S'MPI_Reduce()'
p695
S'190'
p696
tp697
a(S'MPI_Reduce()'
p698
S'191'
p699
tp700
a(S'MPI_Reduce()'
p701
S'192'
p702
tp703
a(S'MPI_Reduce()'
p704
S'194'
p705
tp706
a(S'MPI_Reduce()'
p707
S'195'
p708
tp709
a(S'MPI_Reduce()'
p710
S'196'
p711
tp712
a(S'MPI_Reduce()'
p713
S'198'
p714
tp715
a(S'MPI_Reduce()'
p716
S'199'
p717
tp718
a(S'MPI_Reduce()'
p719
S'200'
p720
tp721
a(S'MPI_Finalize()'
p722
S'219'
p723
tp724
asS'orcm/orte/test/mpi/concurrent_spawn.c'
p725
(lp726
(S'MPI_Init()'
p727
S'20'
p728
tp729
a(S'MPI_Comm_rank()'
p730
S'21'
p731
tp732
a(S'MPI_Comm_size()'
p733
S'22'
p734
tp735
a(S'MPI_Comm_get_parent()'
p736
S'23'
p737
tp738
a(S'MPI_Comm_spawn()'
p739
S'34'
p740
tp741
a(S'MPI_Send()'
p742
S'44'
p743
tp744
a(S'MPI_Comm_disconnect()'
p745
S'51'
p746
tp747
a(S'MPI_Recv()'
p748
S'67'
p749
tp750
a(S'MPI_Comm_disconnect()'
p751
S'74'
p752
tp753
a(S'MPI_Finalize()'
p754
S'78'
p755
tp756
asS'orcm/orte/test/mpi/read_write.c'
p757
(lp758
(S'MPI_Init()'
p759
S'30'
p760
tp761
a(S'MPI_Comm_rank()'
p762
S'31'
p763
tp764
a(S'MPI_Comm_size()'
p765
S'32'
p766
tp767
a(S'MPI_Barrier()'
p768
S'34'
p769
tp770
a(S'MPI_Abort()'
p771
S'42'
p772
tp773
a(S'MPI_Finalize()'
p774
S'53'
p775
tp776
asS'orcm/orte/test/mpi/intercomm_create.c'
p777
(lp778
(S'MPI_Init()'
p779
S'50'
p780
tp781
a(S'MPI_Comm_size()'
p782
S'51'
p783
tp784
a(S'MPI_Comm_rank()'
p785
S'52'
p786
tp787
a(S'MPI_Comm_get_parent()'
p788
S'59'
p789
tp790
a(S'MPI_Finalize()'
p791
S'69'
p792
tp793
a(S'MPI_Comm_spawn()'
p794
S'88'
p795
tp796
a(S'X_MPI_COMM_WORLD()'
p797
S'89'
p798
tp799
a(S'MPI_Intercomm_merge()'
p800
S'98'
p801
tp802
a(S'MPI_Intercomm_create()'
p803
S'114'
p804
tp805
a(S'MPI_Barrier()'
p806
S'118'
p807
tp808
a(S'MPI_Intercomm_merge()'
p809
S'121'
p810
tp811
a(S'MPI_Barrier()'
p812
S'123'
p813
tp814
a(S'MPI_Comm_disconnect()'
p815
S'126'
p816
tp817
a(S'MPI_Comm_disconnect()'
p818
S'127'
p819
tp820
a(S'MPI_Intercomm_merge()'
p821
S'141'
p822
tp823
a(S'MPI_Comm_rank()'
p824
S'142'
p825
tp826
a(S'MPI_Intercomm_create()'
p827
S'146'
p828
tp829
a(S'MPI_Intercomm_create()'
p830
S'150'
p831
tp832
a(S'MPI_Barrier()'
p833
S'154'
p834
tp835
a(S'MPI_Intercomm_merge()'
p836
S'157'
p837
tp838
a(S'MPI_Comm_rank()'
p839
S'158'
p840
tp841
a(S'MPI_Barrier()'
p842
S'160'
p843
tp844
a(S'MPI_Comm_free()'
p845
S'163'
p846
tp847
a(S'MPI_Comm_free()'
p848
S'164'
p849
tp850
a(S'MPI_Comm_free()'
p851
S'165'
p852
tp853
a(S'MPI_Comm_disconnect()'
p854
S'167'
p855
tp856
asS'orcm/orte/test/mpi/multi_abort.c'
p857
(lp858
(S'MPI_Init()'
p859
S'15'
p860
tp861
a(S'MPI_Comm_rank()'
p862
S'16'
p863
tp864
a(S'MPI_Comm_size()'
p865
S'17'
p866
tp867
a(S'MPI_Finalize()'
p868
S'23'
p869
tp870
asS'orcm/orte/test/mpi/hello_barrier.c'
p871
(lp872
(S'MPI_Init()'
p873
S'15'
p874
tp875
a(S'MPI_Barrier()'
p876
S'16'
p877
tp878
a(S'MPI_Comm_rank()'
p879
S'17'
p880
tp881
a(S'MPI_Comm_size()'
p882
S'18'
p883
tp884
a(S'MPI_Finalize()'
p885
S'22'
p886
tp887
asS'orcm/opal/mca/btl/usnic/btl_usnic_stats.c'
p888
(lp889
(S'X_MPI_T()'
p890
S'531'
p891
tp892
asS'orcm/orte/test/mpi/parallel_w8.c'
p893
(lp894
(S'MPI_Init()'
p895
S'54'
p896
tp897
a(S'MPI_Comm_rank()'
p898
S'55'
p899
tp900
a(S'MPI_Comm_size()'
p901
S'56'
p902
tp903
a(S'MPI_Abort()'
p904
S'82'
p905
tp906
a(S'MPI_Barrier()'
p907
S'95'
p908
tp909
a(S'MPI_Info_create()'
p910
S'97'
p911
tp912
a(S'MPI_Cart_create()'
p913
S'134'
p914
tp915
a(S'MPI_Dims_create()'
p916
S'152'
p917
tp918
a(S'MPI_Type_create_darray()'
p919
S'157'
p920
tp921
a(S'MPI_Type_commit()'
p922
S'160'
p923
tp924
a(S'MPI_Wtime()'
p925
S'162'
p926
tp927
a(S'MPI_File_open()'
p928
S'163'
p929
tp930
a(S'MPI_Wtime()'
p931
S'164'
p932
tp933
a(S'MPI_File_set_size()'
p934
S'166'
p935
tp936
a(S'MPI_File_set_view()'
p937
S'168'
p938
tp939
a(S'MPI_Wtime()'
p940
S'170'
p941
tp942
a(S'MPI_File_write_all()'
p943
S'173'
p944
tp945
a(S'MPI_Wtime()'
p946
S'175'
p947
tp948
a(S'MPI_Wtime()'
p949
S'177'
p950
tp951
a(S'MPI_File_close()'
p952
S'178'
p953
tp954
a(S'MPI_Wtime()'
p955
S'179'
p956
tp957
a(S'MPI_Barrier()'
p958
S'189'
p959
tp960
a(S'MPI_Reduce()'
p961
S'191'
p962
tp963
a(S'MPI_Reduce()'
p964
S'192'
p965
tp966
a(S'MPI_Reduce()'
p967
S'193'
p968
tp969
a(S'MPI_Reduce()'
p970
S'195'
p971
tp972
a(S'MPI_Reduce()'
p973
S'196'
p974
tp975
a(S'MPI_Reduce()'
p976
S'197'
p977
tp978
a(S'MPI_Reduce()'
p979
S'199'
p980
tp981
a(S'MPI_Reduce()'
p982
S'200'
p983
tp984
a(S'MPI_Reduce()'
p985
S'201'
p986
tp987
a(S'MPI_Reduce()'
p988
S'203'
p989
tp990
a(S'MPI_Reduce()'
p991
S'204'
p992
tp993
a(S'MPI_Reduce()'
p994
S'205'
p995
tp996
a(S'MPI_Finalize()'
p997
S'224'
p998
tp999
asS'orcm/orte/test/mpi/client.c'
p1000
(lp1001
(S'MPI_Init()'
p1002
S'15'
p1003
tp1004
a(S'MPI_Comm_connect()'
p1005
S'18'
p1006
tp1007
a(S'MPI_Send()'
p1008
S'27'
p1009
tp1010
a(S'MPI_Comm_disconnect()'
p1011
S'32'
p1012
tp1013
a(S'MPI_Finalize()'
p1014
S'33'
p1015
tp1016
asS'orcm/orte/test/mpi/reduce-hang.c'
p1017
(lp1018
(S'MPI_Init()'
p1019
S'18'
p1020
tp1021
a(S'MPI_Comm_rank()'
p1022
S'19'
p1023
tp1024
a(S'MPI_Reduce()'
p1025
S'26'
p1026
tp1027
a(S'MPI_Barrier()'
p1028
S'28'
p1029
tp1030
a(S'MPI_Finalize()'
p1031
S'34'
p1032
tp1033
asS'orcm/orte/test/mpi/abort.c'
p1034
(lp1035
(S'MPI_Init()'
p1036
S'24'
p1037
tp1038
a(S'MPI_Comm_rank()'
p1039
S'25'
p1040
tp1041
a(S'MPI_Comm_size()'
p1042
S'26'
p1043
tp1044
a(S'MPI_Abort()'
p1045
S'31'
p1046
tp1047
a(S'MPI_Abort()'
p1048
S'34'
p1049
tp1050
a(S'MPI_Finalize()'
p1051
S'40'
p1052
tp1053
asS'orcm/orte/test/mpi/spawn_tree.c'
p1054
(lp1055
(S'MPI_Init()'
p1056
S'24'
p1057
tp1058
a(S'MPI_Comm_get_parent()'
p1059
S'27'
p1060
tp1061
a(S'MPI_Recv()'
p1062
S'33'
p1063
tp1064
a(S'MPI_Comm_spawn()'
p1065
S'45'
p1066
tp1067
a(S'X_MPI_COMM_SELF()'
p1068
S'46'
p1069
tp1070
a(S'MPI_Send()'
p1071
S'49'
p1072
tp1073
a(S'MPI_Comm_spawn()'
p1074
S'55'
p1075
tp1076
a(S'X_MPI_COMM_SELF()'
p1077
S'56'
p1078
tp1079
a(S'MPI_Send()'
p1080
S'59'
p1081
tp1082
a(S'MPI_Finalize()'
p1083
S'66'
p1084
tp1085
asS'orcm/orte/test/mpi/sio.c'
p1086
(lp1087
(S'MPI_Init()'
p1088
S'15'
p1089
tp1090
a(S'MPI_Finalize()'
p1091
S'21'
p1092
tp1093
asS'orcm/orte/test/mpi/simple_spawn.c'
p1094
(lp1095
(S'MPI_Init()'
p1096
S'17'
p1097
tp1098
a(S'MPI_Comm_rank()'
p1099
S'18'
p1100
tp1101
a(S'MPI_Comm_size()'
p1102
S'20'
p1103
tp1104
a(S'MPI_Comm_get_parent()'
p1105
S'21'
p1106
tp1107
a(S'MPI_Send()'
p1108
S'35'
p1109
tp1110
a(S'MPI_Comm_disconnect()'
p1111
S'37'
p1112
tp1113
a(S'MPI_Comm_rank()'
p1114
S'42'
p1115
tp1116
a(S'MPI_Comm_size()'
p1117
S'43'
p1118
tp1119
a(S'MPI_Recv()'
p1120
S'48'
p1121
tp1122
a(S'MPI_Comm_disconnect()'
p1123
S'51'
p1124
tp1125
a(S'MPI_Finalize()'
p1126
S'55'
p1127
tp1128
asS'orcm/orte/test/mpi/server.c'
p1129
(lp1130
(S'MPI_Init()'
p1131
S'16'
p1132
tp1133
a(S'MPI_Comm_size()'
p1134
S'17'
p1135
tp1136
a(S'MPI_Open_port()'
p1137
S'22'
p1138
tp1139
a(S'MPI_Comm_accept()'
p1140
S'27'
p1141
tp1142
a(S'MPI_Recv()'
p1143
S'33'
p1144
tp1145
a(S'X_MPI_ANY_TAG()'
p1146
S'34'
p1147
tp1148
a(S'MPI_Comm_disconnect()'
p1149
S'40'
p1150
tp1151
a(S'MPI_Close_port()'
p1152
S'41'
p1153
tp1154
a(S'MPI_Finalize()'
p1155
S'42'
p1156
tp1157
a(S'MPI_Abort()'
p1158
S'49'
p1159
tp1160
asS'orcm/orte/test/mpi/thread_init.c'
p1161
(lp1162
(S'MPI_Init_thread()'
p1163
S'6'
p1164
tp1165
a(S'MPI_Finalize()'
p1166
S'8'
p1167
tp1168
asS'orcm/orte/test/mpi/singleton_client_server.c'
p1169
(lp1170
(S'X_MPI_ANY_TAG()'
p1171
S'196'
p1172
tp1173
asS'orcm/orte/test/mpi/segv.c'
p1174
(lp1175
(S'MPI_Init()'
p1176
S'17'
p1177
tp1178
a(S'MPI_Comm_rank()'
p1179
S'18'
p1180
tp1181
a(S'MPI_Comm_size()'
p1182
S'19'
p1183
tp1184
a(S'MPI_Finalize()'
p1185
S'28'
p1186
tp1187
asS'orcm/orte/test/mpi/init-exit77.c'
p1188
(lp1189
(S'MPI_Init()'
p1190
g1167
tp1191
a(S'MPI_Finalize()'
p1192
S'11'
p1193
tp1194
asS'orcm/orte/test/mpi/mpi_spin.c'
p1195
(lp1196
(S'MPI_Init()'
p1197
S'18'
p1198
tp1199
a(S'MPI_Finalize()'
p1200
S'27'
p1201
tp1202
asS'orcm/orte/test/mpi/pubsub.c'
p1203
(lp1204
(S'MPI_Init()'
p1205
S'26'
p1206
tp1207
a(S'MPI_Comm_rank()'
p1208
S'28'
p1209
tp1210
a(S'MPI_Comm_size()'
p1211
S'29'
p1212
tp1213
a(S'MPI_Info_create()'
p1214
S'33'
p1215
tp1216
a(S'MPI_Info_set()'
p1217
S'35'
p1218
tp1219
a(S'MPI_Info_set()'
p1220
S'37'
p1221
tp1222
a(S'MPI_Open_port()'
p1223
S'41'
p1224
tp1225
a(S'MPI_Publish_name()'
p1226
S'42'
p1227
tp1228
a(S'MPI_Barrier()'
p1229
S'46'
p1230
tp1231
a(S'MPI_Info_create()'
p1232
S'48'
p1233
tp1234
a(S'MPI_Info_set()'
p1235
S'49'
p1236
tp1237
a(S'MPI_Lookup_name()'
p1238
S'51'
p1239
tp1240
a(S'MPI_Barrier()'
p1241
S'55'
p1242
tp1243
a(S'MPI_Unpublish_name()'
p1244
S'58'
p1245
tp1246
a(S'MPI_Info_free()'
p1247
S'60'
p1248
tp1249
a(S'MPI_Info_free()'
p1250
S'61'
p1251
tp1252
a(S'MPI_Finalize()'
p1253
S'62'
p1254
tp1255
asS'orcm/orte/test/mpi/paccept.c'
p1256
(lp1257
(S'MPI_Init()'
p1258
S'42'
p1259
tp1260
a(S'X_MPI_COMM_SELF()'
p1261
S'68'
p1262
tp1263
a(S'X_MPI_COMM_SELF()'
p1264
S'81'
p1265
tp1266
a(S'MPI_Recv()'
p1267
S'93'
p1268
tp1269
a(S'MPI_Comm_disconnect()'
p1270
S'94'
p1271
tp1272
a(S'MPI_Finalize()'
p1273
S'100'
p1274
tp1275
asS'orcm/orte/test/mpi/early_abort.c'
p1276
(lp1277
(S'MPI_Init()'
p1278
S'38'
p1279
tp1280
a(S'MPI_Comm_rank()'
p1281
S'39'
p1282
tp1283
a(S'MPI_Comm_size()'
p1284
S'40'
p1285
tp1286
a(S'MPI_Finalize()'
p1287
S'44'
p1288
tp1289
asS'orcm/orte/test/mpi/parallel_w64.c'
p1290
(lp1291
(S'MPI_Init()'
p1292
S'55'
p1293
tp1294
a(S'MPI_Comm_rank()'
p1295
S'56'
p1296
tp1297
a(S'MPI_Comm_size()'
p1298
S'57'
p1299
tp1300
a(S'MPI_Abort()'
p1301
S'83'
p1302
tp1303
a(S'MPI_Barrier()'
p1304
S'96'
p1305
tp1306
a(S'MPI_Info_create()'
p1307
S'98'
p1308
tp1309
a(S'MPI_Cart_create()'
p1310
S'135'
p1311
tp1312
a(S'MPI_Dims_create()'
p1313
S'153'
p1314
tp1315
a(S'MPI_Type_create_darray()'
p1316
S'158'
p1317
tp1318
a(S'MPI_Type_commit()'
p1319
S'161'
p1320
tp1321
a(S'MPI_Wtime()'
p1322
S'163'
p1323
tp1324
a(S'MPI_File_open()'
p1325
S'164'
p1326
tp1327
a(S'MPI_Wtime()'
p1328
S'165'
p1329
tp1330
a(S'MPI_File_set_size()'
p1331
S'167'
p1332
tp1333
a(S'MPI_File_set_view()'
p1334
S'169'
p1335
tp1336
a(S'MPI_Wtime()'
p1337
S'171'
p1338
tp1339
a(S'MPI_File_write_all()'
p1340
S'174'
p1341
tp1342
a(S'MPI_Wtime()'
p1343
S'176'
p1344
tp1345
a(S'MPI_Wtime()'
p1346
S'178'
p1347
tp1348
a(S'MPI_File_close()'
p1349
S'179'
p1350
tp1351
a(S'MPI_Wtime()'
p1352
S'180'
p1353
tp1354
a(S'MPI_Barrier()'
p1355
S'190'
p1356
tp1357
a(S'MPI_Reduce()'
p1358
S'192'
p1359
tp1360
a(S'MPI_Reduce()'
p1361
S'193'
p1362
tp1363
a(S'MPI_Reduce()'
p1364
S'194'
p1365
tp1366
a(S'MPI_Reduce()'
p1367
S'196'
p1368
tp1369
a(S'MPI_Reduce()'
p1370
S'197'
p1371
tp1372
a(S'MPI_Reduce()'
p1373
S'198'
p1374
tp1375
a(S'MPI_Reduce()'
p1376
S'200'
p1377
tp1378
a(S'MPI_Reduce()'
p1379
S'201'
p1380
tp1381
a(S'MPI_Reduce()'
p1382
S'202'
p1383
tp1384
a(S'MPI_Reduce()'
p1385
S'204'
p1386
tp1387
a(S'MPI_Reduce()'
p1388
S'205'
p1389
tp1390
a(S'MPI_Reduce()'
p1391
S'206'
p1392
tp1393
a(S'MPI_Finalize()'
p1394
S'225'
p1395
tp1396
asS'orcm/opal/mca/common/ugni/common_ugni.h'
p1397
(lp1398
(S'X_MPI_COMMON_UGNI_Hstruct()'
p1399
S'31'
p1400
tp1401
asS'orcm/orte/test/mpi/spawn_multiple.c'
p1402
(lp1403
(S'MPI_Init()'
p1404
S'26'
p1405
tp1406
a(S'MPI_Comm_rank()'
p1407
S'27'
p1408
tp1409
a(S'MPI_Comm_size()'
p1410
S'28'
p1411
tp1412
a(S'MPI_Comm_get_parent()'
p1413
S'29'
p1414
tp1415
a(S'MPI_Comm_spawn_multiple()'
p1416
S'34'
p1417
tp1418
a(S'MPI_Send()'
p1419
S'41'
p1420
tp1421
a(S'MPI_Send()'
p1422
S'42'
p1423
tp1424
a(S'MPI_Comm_disconnect()'
p1425
S'44'
p1426
tp1427
a(S'MPI_Comm_rank()'
p1428
S'49'
p1429
tp1430
a(S'MPI_Comm_size()'
p1431
S'50'
p1432
tp1433
a(S'MPI_Recv()'
p1434
S'54'
p1435
tp1436
a(S'MPI_Comm_disconnect()'
p1437
S'56'
p1438
tp1439
a(S'MPI_Finalize()'
p1440
S'60'
p1441
tp1442
asS'orcm/orte/test/mpi/hello_output.c'
p1443
(lp1444
(S'MPI_Init()'
p1445
S'19'
p1446
tp1447
a(S'MPI_Comm_rank()'
p1448
S'20'
p1449
tp1450
a(S'MPI_Comm_size()'
p1451
S'21'
p1452
tp1453
a(S'MPI_Finalize()'
p1454
S'35'
p1455
tp1456
asS'orcm/orte/test/mpi/delayed_abort.c'
p1457
(lp1458
(S'MPI_Init()'
p1459
S'17'
p1460
tp1461
a(S'MPI_Comm_rank()'
p1462
S'18'
p1463
tp1464
a(S'MPI_Comm_size()'
p1465
S'19'
p1466
tp1467
a(S'MPI_Abort()'
p1468
S'30'
p1469
tp1470
a(S'MPI_Finalize()'
p1471
S'35'
p1472
tp1473
asS'orcm/orte/test/mpi/spawn-problem/start.c'
p1474
(lp1475
(S'MPI_Init()'
p1476
S'12'
p1477
tp1478
a(S'MPI_Comm_spawn()'
p1479
S'17'
p1480
tp1481
a(S'MPI_Send()'
p1482
S'20'
p1483
tp1484
a(S'MPI_Recv()'
p1485
S'22'
p1486
tp1487
a(S'X_MPI_ANY_TAG()'
p1488
S'23'
p1489
tp1490
a(S'MPI_Finalize()'
p1491
S'26'
p1492
tp1493
asS'orcm/orte/test/mpi/ziaprobe.c'
p1494
(lp1495
(S'MPI_Init()'
p1496
S'50'
p1497
tp1498
a(S'MPI_Comm_rank()'
p1499
S'51'
p1500
tp1501
a(S'MPI_Comm_size()'
p1502
S'52'
p1503
tp1504
a(S'MPI_Abort()'
p1505
S'59'
p1506
tp1507
a(S'MPI_Recv()'
p1508
S'94'
p1509
tp1510
a(S'MPI_Send()'
p1511
S'98'
p1512
tp1513
a(S'MPI_Send()'
p1514
S'115'
p1515
tp1516
a(S'MPI_Recv()'
p1517
S'121'
p1518
tp1519
a(S'MPI_Recv()'
p1520
S'130'
p1521
tp1522
a(S'MPI_Abort()'
p1523
S'145'
p1524
tp1525
a(S'MPI_Gather()'
p1526
S'148'
p1527
tp1528
a(S'MPI_Finalize()'
p1529
S'195'
p1530
tp1531
asS'orcm/orte/test/mpi/bcast_loop.c'
p1532
(lp1533
(S'MPI_Init()'
p1534
S'13'
p1535
tp1536
a(S'MPI_Comm_size()'
p1537
S'14'
p1538
tp1539
a(S'MPI_Comm_rank()'
p1540
S'15'
p1541
tp1542
a(S'MPI_Bcast()'
p1543
S'28'
p1544
tp1545
a(S'MPI_Bcast()'
p1546
S'29'
p1547
tp1548
a(S'MPI_Finalize()'
p1549
S'32'
p1550
tp1551
as.