ccollections
defaultdict
p0
(c__builtin__
list
p1
tp2
Rp3
S'CGMF/utils/cgmf/cgmf.cpp'
p4
(lp5
(S'MPI_Finalize()'
p6
S'106'
p7
tp8
a(S'MPI_Reduce()'
p9
S'217'
p10
tp11
a(S'MPI_Reduce()'
p12
S'220'
p13
tp14
a(S'MPI_Reduce()'
p15
S'223'
p16
tp17
a(S'MPI_Reduce()'
p18
S'226'
p19
tp20
a(S'MPI_Reduce()'
p21
S'230'
p22
tp23
a(S'MPI_Reduce()'
p24
S'233'
p25
tp26
a(S'MPI_Reduce()'
p27
S'236'
p28
tp29
a(S'MPI_Reduce()'
p30
S'239'
p31
tp32
a(S'MPI_Reduce()'
p33
S'242'
p34
tp35
a(S'MPI_Reduce()'
p36
S'245'
p37
tp38
a(S'MPI_Reduce()'
p39
S'248'
p40
tp41
a(S'MPI_Reduce()'
p42
S'251'
p43
tp44
a(S'MPI_Reduce()'
p45
S'254'
p46
tp47
a(S'MPI_Reduce()'
p48
S'258'
p49
tp50
a(S'MPI_Reduce()'
p51
S'261'
p52
tp53
a(S'MPI_Reduce()'
p54
S'264'
p55
tp56
a(S'MPI_Reduce()'
p57
S'267'
p58
tp59
a(S'MPI_Reduce()'
p60
S'270'
p61
tp62
a(S'MPI_Reduce()'
p63
S'273'
p64
tp65
a(S'MPI_Reduce()'
p66
S'276'
p67
tp68
a(S'MPI_Reduce()'
p69
S'279'
p70
tp71
a(S'MPI_Reduce()'
p72
S'282'
p73
tp74
a(S'MPI_Reduce()'
p75
S'285'
p76
tp77
a(S'MPI_Reduce()'
p78
S'288'
p79
tp80
a(S'MPI_Reduce()'
p81
S'292'
p82
tp83
a(S'MPI_Reduce()'
p84
S'295'
p85
tp86
a(S'MPI_Reduce()'
p87
S'298'
p88
tp89
a(S'MPI_Reduce()'
p90
S'301'
p91
tp92
a(S'MPI_Reduce()'
p93
S'304'
p94
tp95
a(S'MPI_Reduce()'
p96
S'307'
p97
tp98
a(S'MPI_Finalize()'
p99
S'419'
p100
tp101
as.