ccollections
defaultdict
p0
(c__builtin__
list
p1
tp2
Rp3
S'PC-MPICollectives/Scripts/src.c'
p4
(lp5
(S'MPI_Init()'
p6
S'17'
p7
tp8
a(S'MPI_Comm_rank()'
p9
S'18'
p10
tp11
a(S'MPI_Comm_size()'
p12
S'19'
p13
tp14
a(S'MPI_Wtime()'
p15
S'32'
p16
tp17
a(S'MPI_Comm_rank()'
p18
S'35'
p19
tp20
a(S'MPI_Comm_size()'
p21
S'36'
p22
tp23
a(S'MPI_Comm_rank()'
p24
S'40'
p25
tp26
a(S'MPI_Comm_size()'
p27
S'41'
p28
tp29
a(S'MPI_Wtime()'
p30
S'43'
p31
tp32
a(S'MPI_Wtime()'
p33
S'61'
p34
tp35
a(S'MPI_Bcast()'
p36
S'63'
p37
tp38
a(S'MPI_Wtime()'
p39
S'65'
p40
tp41
a(S'MPI_Wtime()'
p42
S'88'
p43
tp44
a(S'MPI_Bcast()'
p45
S'91'
p46
tp47
a(S'MPI_Bcast()'
p48
S'93'
p49
tp50
a(S'MPI_Wtime()'
p51
S'95'
p52
tp53
a(S'MPI_Reduce()'
p54
S'124'
p55
tp56
a(S'MPI_Wtime()'
p57
S'126'
p58
tp59
a(S'MPI_Wtime()'
p60
S'153'
p61
tp62
a(S'MPI_Reduce()'
p63
S'155'
p64
tp65
a(S'MPI_Reduce()'
p66
S'157'
p67
tp68
a(S'MPI_Wtime()'
p69
S'160'
p70
tp71
a(S'MPI_Wtime()'
p72
S'188'
p73
tp74
a(S'MPI_Gather()'
p75
S'190'
p76
tp77
a(S'MPI_Wtime()'
p78
S'192'
p79
tp80
a(S'MPI_Wtime()'
p81
S'220'
p82
tp83
a(S'MPI_Gather()'
p84
S'222'
p85
tp86
a(S'MPI_Gather()'
p87
S'224'
p88
tp89
a(S'MPI_Wtime()'
p90
S'227'
p91
tp92
a(S'MPI_Wtime()'
p93
S'267'
p94
tp95
a(S'MPI_Alltoallv()'
p96
S'269'
p97
tp98
a(S'MPI_Wtime()'
p99
S'271'
p100
tp101
a(S'MPI_Wtime()'
p102
S'311'
p103
tp104
a(S'MPI_Wtime()'
p105
S'319'
p106
tp107
a(S'MPI_Comm_free()'
p108
S'333'
p109
tp110
a(S'MPI_Comm_free()'
p111
S'334'
p112
tp113
a(S'MPI_Finalize()'
p114
S'336'
p115
tp116
as.