ccollections
defaultdict
p0
(c__builtin__
list
p1
tp2
Rp3
S'rLibLin/BH/include/boost/mpi/exception.hpp'
p4
(lp5
(S'MPI_Error_class()'
p6
S'73'
p7
tp8
asS'rLibLin/BH/include/boost/graph/distributed/mpi_process_group.hpp'
p9
(lp10
(S'MPI_Bsend()'
p11
S'708'
p12
tp13
a(S'MPI_Isend()'
p14
S'714'
p15
tp16
a(S'MPI_Test()'
p17
S'720'
p18
tp19
a(S'MPI_Bsend()'
p20
S'744'
p21
tp22
a(S'MPI_Isend()'
p23
S'750'
p24
tp25
a(S'MPI_Test()'
p26
S'756'
p27
tp28
asS'rLibLin/BH/include/boost/mpi/datatype.hpp'
p29
(lp30
(S'X_MPI_LONG_DOUBLE_INT()'
p31
S'250'
p32
tp33
a(S'MPI_Type_contiguous()'
p34
S'310'
p35
tp36
a(S'MPI_Type_commit()'
p37
S'311'
p38
tp39
asS'rLibLin/BH/include/boost/mpi/communicator.hpp'
p40
(lp41
(S'MPI_Comm()'
p42
S'1428'
p43
tp44
a(S'MPI_Comm()'
p45
S'1451'
p46
tp47
a(S'MPI_Comm()'
p48
S'1487'
p49
tp50
a(S'MPI_Comm()'
p51
S'1510'
p52
tp53
asS'rLibLin/BH/include/boost/mpi/operations.hpp'
p54
(lp55
(S'MPI_Op_free()'
p56
S'293'
p57
tp58
asS'rLibLin/BH/include/boost/graph/distributed/page_rank.hpp'
p59
(lp60
(S'MPI_Comm_rank()'
p61
S'40'
p62
tp63
a(S'MPI_Accumulate()'
p64
S'53'
p65
tp66
a(S'MPI_Win_fence()'
p67
S'60'
p68
tp69
a(S'MPI_Comm_rank()'
p70
S'90'
p71
tp72
a(S'MPI_Win_create()'
p73
S'115'
p74
tp75
a(S'X_MPI_INFO_NULL()'
p76
S'118'
p77
tp78
a(S'MPI_Win_set_name()'
p79
S'119'
p80
tp81
a(S'MPI_Win_create()'
p82
S'120'
p83
tp84
a(S'X_MPI_INFO_NULL()'
p85
S'123'
p86
tp87
a(S'MPI_Win_set_name()'
p88
S'124'
p89
tp90
a(S'MPI_Win_fence()'
p91
S'129'
p92
tp93
a(S'MPI_Win_fence()'
p94
S'130'
p95
tp96
a(S'MPI_Win_free()'
p97
S'144'
p98
tp99
a(S'MPI_Win_free()'
p100
S'145'
p101
tp102
asS'rLibLin/BH/include/boost/mpi/allocator.hpp'
p103
(lp104
(S'X_MPI_INFO_NULL()'
p105
S'141'
p106
tp107
asS'rLibLin/BH/include/boost/graph/distributed/detail/mpi_process_group.ipp'
p108
(lp109
(S'MPI_Recv()'
p110
S'492'
p111
tp112
a(S'MPI_Get_count()'
p113
S'510'
p114
tp115
a(S'MPI_Recv()'
p116
S'516'
p117
tp118
a(S'MPI_Irecv()'
p119
S'665'
p120
tp121
a(S'X_MPI_PACKED()'
p122
S'666'
p123
tp124
a(S'MPI_Allgather()'
p125
S'837'
p126
tp127
a(S'MPI_Allgatherv()'
p128
S'856'
p129
tp130
a(S'X_MPI_BYTE()'
p131
S'859'
p132
tp133
a(S'MPI_Comm_group()'
p134
S'880'
p135
tp136
a(S'MPI_Group_incl()'
p137
S'884'
p138
tp139
a(S'MPI_Comm_create()'
p140
S'888'
p141
tp142
a(S'MPI_Group_free()'
p143
S'891'
p144
tp145
a(S'MPI_Group_free()'
p146
S'893'
p147
tp148
a(S'MPI_Comm_free()'
p149
S'898'
p150
tp151
a(S'MPI_Irecv()'
p152
S'929'
p153
tp154
a(S'MPI_Test()'
p155
S'934'
p156
tp157
a(S'MPI_Get_count()'
p158
S'967'
p159
tp160
a(S'MPI_Recv()'
p161
S'972'
p162
tp163
asS'rLibLin/BH/include/boost/mpi/timer.hpp'
p164
(lp165
(S'MPI_Wtime()'
p166
S'71'
p167
tp168
as.