ccollections
defaultdict
p0
(c__builtin__
list
p1
tp2
Rp3
S'pEVSL/SRC/landos.c'
p4
(lp5
(S'MPI_Comm_rank()'
p6
S'54'
p7
tp8
a(S'MPI_Allreduce()'
p9
S'281'
p10
tp11
a(S'MPI_Bcast()'
p12
S'283'
p13
tp14
asS'pEVSL/TESTS0/Matvec/test1.c'
p15
(lp16
(S'MPI_Init()'
p17
S'22'
p18
tp19
a(S'MPI_Abort()'
p20
S'25'
p21
tp22
a(S'MPI_Comm_size()'
p23
S'28'
p24
tp25
a(S'MPI_Comm_rank()'
p26
S'29'
p27
tp28
a(S'MPI_Reduce()'
p29
S'95'
p30
tp31
a(S'MPI_Finalize()'
p32
S'116'
p33
tp34
asS'pEVSL/TESTS0/Direct/test.c'
p35
(lp36
(S'MPI_Init()'
p37
S'22'
p38
tp39
a(S'MPI_Abort()'
p40
S'25'
p41
tp42
a(S'MPI_Comm_size()'
p43
S'28'
p44
tp45
a(S'MPI_Comm_rank()'
p46
S'29'
p47
tp48
a(S'MPI_Wtime()'
p49
S'66'
p50
tp51
a(S'MPI_Wtime()'
p52
S'68'
p53
tp54
a(S'MPI_Wtime()'
p55
S'76'
p56
tp57
a(S'MPI_Wtime()'
p58
S'78'
p59
tp60
a(S'MPI_Finalize()'
p61
S'105'
p62
tp63
asS'pEVSL/TESTS0/Chebiter/LapChebiter.c'
p64
(lp65
(S'MPI_Init()'
p66
S'21'
p67
tp68
a(S'MPI_Abort()'
p69
S'24'
p70
tp71
a(S'MPI_Comm_size()'
p72
S'27'
p73
tp74
a(S'MPI_Comm_rank()'
p75
S'28'
p76
tp77
a(S'MPI_Finalize()'
p78
S'130'
p79
tp80
asS'pEVSL/TESTS0/MUMPS/test.c'
p81
(lp82
(S'MPI_Init()'
p83
S'25'
p84
tp85
a(S'MPI_Abort()'
p86
S'28'
p87
tp88
a(S'MPI_Comm_size()'
p89
S'31'
p90
tp91
a(S'MPI_Comm_rank()'
p92
S'32'
p93
tp94
a(S'MPI_Wtime()'
p95
S'92'
p96
tp97
a(S'MPI_Wtime()'
p98
S'94'
p99
tp100
a(S'MPI_Wtime()'
p101
S'119'
p102
tp103
a(S'MPI_Gatherv()'
p104
S'120'
p105
tp106
a(S'MPI_Wtime()'
p107
S'122'
p108
tp109
a(S'MPI_Wtime()'
p110
S'134'
p111
tp112
a(S'MPI_Wtime()'
p113
S'136'
p114
tp115
a(S'MPI_Wtime()'
p116
S'152'
p117
tp118
a(S'MPI_Scatterv()'
p119
S'154'
p120
tp121
a(S'X_MPI_DOUBLE()'
p122
S'155'
p123
tp124
a(S'MPI_Wtime()'
p125
S'157'
p126
tp127
a(S'MPI_Wtime()'
p128
S'175'
p129
tp130
a(S'MPI_Wtime()'
p131
S'177'
p132
tp133
a(S'MPI_Finalize()'
p134
S'208'
p135
tp136
asS'pEVSL/SRC/parcsrmv.c'
p137
(lp138
(S'MPI_Irecv()'
p139
S'24'
p140
tp141
a(S'MPI_Isend()'
p142
S'42'
p143
tp144
a(S'MPI_Waitall()'
p145
S'53'
p146
tp147
asS'pEVSL/SRC/parcsr.c'
p148
(lp149
(S'MPI_Comm_size()'
p150
S'26'
p151
tp152
a(S'MPI_Comm_rank()'
p153
S'27'
p154
tp155
a(S'MPI_Comm_size()'
p156
S'73'
p157
tp158
a(S'MPI_Comm_rank()'
p159
S'74'
p160
tp161
a(S'MPI_Alltoall()'
p162
S'218'
p163
tp164
a(S'MPI_Alltoallv()'
p165
S'254'
p166
tp167
a(S'MPI_Allreduce()'
p168
S'413'
p169
tp170
asS'pEVSL/SRC/parvec.c'
p171
(lp172
(S'MPI_Comm_size()'
p173
S'94'
p174
tp175
a(S'MPI_Comm_rank()'
p176
S'95'
p177
tp178
a(S'MPI_Allgather()'
p179
S'97'
p180
tp181
a(S'MPI_Allreduce()'
p182
S'130'
p183
tp184
a(S'MPI_Allreduce()'
p185
S'169'
p186
tp187
asS'pEVSL/SRC/stats.c'
p188
(lp189
(S'MPI_Reduce()'
p190
S'20'
p191
tp192
a(S'MPI_Reduce()'
p193
S'21'
p194
tp195
a(S'MPI_Reduce()'
p196
S'22'
p197
tp198
a(S'MPI_Reduce()'
p199
S'23'
p200
tp201
a(S'MPI_Reduce()'
p202
S'24'
p203
tp204
a(S'MPI_Reduce()'
p205
S'25'
p206
tp207
a(S'MPI_Reduce()'
p208
S'26'
p209
tp210
a(S'MPI_Reduce()'
p211
S'27'
p212
tp213
a(S'MPI_Reduce()'
p214
S'28'
p215
tp216
a(S'MPI_Reduce()'
p217
S'29'
p218
tp219
a(S'MPI_Reduce()'
p220
S'30'
p221
tp222
a(S'MPI_Reduce()'
p223
S'31'
p224
tp225
a(S'MPI_Reduce()'
p226
S'32'
p227
tp228
a(S'MPI_Reduce()'
p229
S'33'
p230
tp231
a(S'MPI_Reduce()'
p232
S'34'
p233
tp234
a(S'MPI_Reduce()'
p235
S'35'
p236
tp237
a(S'MPI_Reduce()'
p238
S'36'
p239
tp240
a(S'MPI_Reduce()'
p241
S'51'
p242
tp243
a(S'MPI_Reduce()'
p244
S'52'
p245
tp246
a(S'MPI_Reduce()'
p247
S'53'
p248
tp249
a(S'MPI_Comm_rank()'
p250
S'56'
p251
tp252
asS'pEVSL/SRC/parvecs.c'
p253
(lp254
(S'MPI_Allreduce()'
p255
S'132'
p256
tp257
a(S'MPI_Allreduce()'
p258
S'166'
p259
tp260
asS'pEVSL/TESTS/Gen_Lap/LapPLanN.c'
p261
(lp262
(S'MPI_Init()'
p263
S'41'
p264
tp265
a(S'MPI_Abort()'
p266
S'44'
p267
tp268
a(S'MPI_Comm_size()'
p269
S'47'
p270
tp271
a(S'MPI_Comm_rank()'
p272
S'48'
p273
tp274
a(S'MPI_Finalize()'
p275
S'327'
p276
tp277
asS'pEVSL/EXTERNAL/DIRECTSOL/pevsl_pardiso.c'
p278
(lp279
(S'MPI_Comm_rank()'
p280
S'44'
p281
tp282
a(S'MPI_Comm_size()'
p283
S'45'
p284
tp285
asS'pEVSL/SRC/cheblanNr.c'
p286
(lp287
(S'MPI_Comm_compare()'
p288
S'74'
p289
tp290
a(S'MPI_Comm_rank()'
p291
S'80'
p292
tp293
asS'pEVSL/SRC/kpmdos.c'
p294
(lp295
(S'MPI_Comm_rank()'
p296
S'49'
p297
tp298
a(S'MPI_Allreduce()'
p299
S'167'
p300
tp301
a(S'MPI_Allreduce()'
p302
S'168'
p303
tp304
a(S'MPI_Bcast()'
p305
S'170'
p306
tp307
a(S'MPI_Bcast()'
p308
S'171'
p309
tp310
asS'pEVSL/TESTS/COMMON/parmm.c'
p311
(lp312
(S'MPI_Comm_size()'
p313
S'19'
p314
tp315
a(S'MPI_Comm_rank()'
p316
S'20'
p317
tp318
a(S'MPI_Reduce()'
p319
S'134'
p320
tp321
asS'pEVSL/EXTERNAL/ITERSOL/chebiter.c'
p322
(lp323
(S'MPI_Comm_rank()'
p324
S'297'
p325
tp326
a(S'MPI_Reduce()'
p327
S'299'
p328
tp329
asS'pEVSL/TESTS/COMMON/lapl.c'
p330
(lp331
(S'MPI_Comm_size()'
p332
S'90'
p333
tp334
a(S'MPI_Comm_rank()'
p335
S'91'
p336
tp337
asS'pEVSL/TESTS0/Matvec/test4.c'
p338
(lp339
(S'MPI_Init()'
p340
S'23'
p341
tp342
a(S'MPI_Abort()'
p343
S'26'
p344
tp345
a(S'MPI_Comm_size()'
p346
S'29'
p347
tp348
a(S'MPI_Comm_rank()'
p349
S'30'
p350
tp351
a(S'MPI_Bcast()'
p352
S'60'
p353
tp354
a(S'MPI_Reduce()'
p355
S'145'
p356
tp357
a(S'MPI_Finalize()'
p358
S'178'
p359
tp360
asS'pEVSL/TESTS/MM/MMPLanN.c'
p361
(lp362
(S'MPI_Init()'
p363
S'41'
p364
tp365
a(S'MPI_Abort()'
p366
S'44'
p367
tp368
a(S'MPI_Comm_size()'
p369
S'47'
p370
tp371
a(S'MPI_Comm_rank()'
p372
S'48'
p373
tp374
a(S'MPI_Finalize()'
p375
S'309'
p376
tp377
asS'pEVSL/INC/pevsl_def.h'
p378
(lp379
(S'MPI_Comm_rank()'
p380
S'24'
p381
tp382
a(S'MPI_Abort()'
p383
S'26'
p384
tp385
a(S'MPI_Abort()'
p386
S'43'
p387
tp388
a(S'MPI_Abort()'
p389
S'53'
p390
tp391
a(S'MPI_Abort()'
p392
S'63'
p393
tp394
a(S'MPI_Barrier()'
p395
S'81'
p396
tp397
a(S'MPI_Comm_size()'
p398
S'82'
p399
tp400
a(S'MPI_Comm_rank()'
p401
S'83'
p402
tp403
a(S'MPI_Barrier()'
p404
S'90'
p405
tp406
asS'pEVSL/TESTS/Lap/LapPLanN.c'
p407
(lp408
(S'MPI_Init()'
p409
S'49'
p410
tp411
a(S'MPI_Abort()'
p412
S'52'
p413
tp414
a(S'MPI_Comm_size()'
p415
S'55'
p416
tp417
a(S'MPI_Comm_rank()'
p418
S'56'
p419
tp420
a(S'MPI_Finalize()'
p421
S'320'
p422
tp423
asS'pEVSL/EXTERNAL/DIRECTSOL/pevsl_mumps.c'
p424
(lp425
(S'MPI_Comm_rank()'
p426
S'38'
p427
tp428
a(S'MPI_Comm_size()'
p429
S'39'
p430
tp431
a(S'MPI_Comm_rank()'
p432
S'118'
p433
tp434
a(S'MPI_Gatherv()'
p435
S'127'
p436
tp437
a(S'MPI_Scatterv()'
p438
S'141'
p439
tp440
a(S'X_MPI_DOUBLE()'
p441
S'142'
p442
tp443
asS'pEVSL/SRC/pevsl.c'
p444
(lp445
(S'MPI_Comm_rank()'
p446
S'35'
p447
tp448
asS'pEVSL/TESTS/COMMON/comm.c'
p449
(lp450
(S'MPI_Comm_size()'
p451
S'11'
p452
tp453
a(S'MPI_Comm_rank()'
p454
S'12'
p455
tp456
a(S'MPI_Comm_split()'
p457
S'25'
p458
tp459
a(S'MPI_Comm_rank()'
p460
S'26'
p461
tp462
a(S'MPI_Comm_split()'
p463
S'36'
p464
tp465
a(S'MPI_Comm_size()'
p466
S'42'
p467
tp468
a(S'MPI_Comm_rank()'
p469
S'43'
p470
tp471
a(S'MPI_Comm_free()'
p472
S'55'
p473
tp474
a(S'MPI_Comm_free()'
p475
S'59'
p476
tp477
asS'pEVSL/SRC/lantrbnd.c'
p478
(lp479
(S'MPI_Comm_rank()'
p480
S'45'
p481
tp482
asS'pEVSL/TESTS0/Matvec/test3.c'
p483
(lp484
(S'MPI_Init()'
p485
S'23'
p486
tp487
a(S'MPI_Abort()'
p488
S'26'
p489
tp490
a(S'MPI_Comm_size()'
p491
S'29'
p492
tp493
a(S'MPI_Comm_rank()'
p494
S'30'
p495
tp496
a(S'MPI_Bcast()'
p497
S'62'
p498
tp499
a(S'MPI_Reduce()'
p500
S'141'
p501
tp502
a(S'MPI_Finalize()'
p503
S'174'
p504
tp505
asS'pEVSL/TESTS0/Matvec/test2.c'
p506
(lp507
(S'MPI_Init()'
p508
S'23'
p509
tp510
a(S'MPI_Abort()'
p511
S'26'
p512
tp513
a(S'MPI_Comm_size()'
p514
S'29'
p515
tp516
a(S'MPI_Comm_rank()'
p517
S'30'
p518
tp519
a(S'MPI_Bcast()'
p520
S'62'
p521
tp522
a(S'MPI_Reduce()'
p523
S'114'
p524
tp525
a(S'MPI_Finalize()'
p526
S'140'
p527
tp528
as.