ccollections
defaultdict
p0
(c__builtin__
list
p1
tp2
Rp3
S'fd-culprits/src/search/ext/boost/mpi/communicator.hpp'
p4
(lp5
(S'MPI_Comm()'
p6
S'1428'
p7
tp8
a(S'MPI_Comm()'
p9
S'1451'
p10
tp11
a(S'MPI_Comm()'
p12
S'1487'
p13
tp14
a(S'MPI_Comm()'
p15
S'1510'
p16
tp17
asS'fd-culprits/src/search/ext/boost/mpi/timer.hpp'
p18
(lp19
(S'MPI_Wtime()'
p20
S'71'
p21
tp22
asS'fd-culprits/src/search/ext/boost/graph/distributed/mpi_process_group.hpp'
p23
(lp24
(S'MPI_Bsend()'
p25
S'708'
p26
tp27
a(S'MPI_Isend()'
p28
S'714'
p29
tp30
a(S'MPI_Test()'
p31
S'720'
p32
tp33
a(S'MPI_Bsend()'
p34
S'744'
p35
tp36
a(S'MPI_Isend()'
p37
S'750'
p38
tp39
a(S'MPI_Test()'
p40
S'756'
p41
tp42
asS'fd-culprits/src/search/ext/boost/mpi/operations.hpp'
p43
(lp44
(S'MPI_Op_free()'
p45
S'293'
p46
tp47
asS'fd-culprits/src/search/ext/boost/mpi/exception.hpp'
p48
(lp49
(S'MPI_Error_class()'
p50
S'73'
p51
tp52
asS'fd-culprits/src/search/ext/boost/mpi/datatype.hpp'
p53
(lp54
(S'X_MPI_LONG_DOUBLE_INT()'
p55
S'250'
p56
tp57
a(S'MPI_Type_contiguous()'
p58
S'310'
p59
tp60
a(S'MPI_Type_commit()'
p61
S'311'
p62
tp63
asS'fd-culprits/src/search/ext/boost/graph/distributed/detail/mpi_process_group.ipp'
p64
(lp65
(S'MPI_Recv()'
p66
S'492'
p67
tp68
a(S'MPI_Get_count()'
p69
S'510'
p70
tp71
a(S'MPI_Recv()'
p72
S'516'
p73
tp74
a(S'MPI_Irecv()'
p75
S'665'
p76
tp77
a(S'X_MPI_PACKED()'
p78
S'666'
p79
tp80
a(S'MPI_Allgather()'
p81
S'837'
p82
tp83
a(S'MPI_Allgatherv()'
p84
S'856'
p85
tp86
a(S'X_MPI_BYTE()'
p87
S'859'
p88
tp89
a(S'MPI_Comm_group()'
p90
S'880'
p91
tp92
a(S'MPI_Group_incl()'
p93
S'884'
p94
tp95
a(S'MPI_Comm_create()'
p96
S'888'
p97
tp98
a(S'MPI_Group_free()'
p99
S'891'
p100
tp101
a(S'MPI_Group_free()'
p102
S'893'
p103
tp104
a(S'MPI_Comm_free()'
p105
S'898'
p106
tp107
a(S'MPI_Irecv()'
p108
S'929'
p109
tp110
a(S'MPI_Test()'
p111
S'934'
p112
tp113
a(S'MPI_Get_count()'
p114
S'967'
p115
tp116
a(S'MPI_Recv()'
p117
S'972'
p118
tp119
asS'fd-culprits/src/search/ext/boost/graph/distributed/page_rank.hpp'
p120
(lp121
(S'MPI_Comm_rank()'
p122
S'40'
p123
tp124
a(S'MPI_Accumulate()'
p125
S'53'
p126
tp127
a(S'MPI_Win_fence()'
p128
S'60'
p129
tp130
a(S'MPI_Comm_rank()'
p131
S'90'
p132
tp133
a(S'MPI_Win_create()'
p134
S'115'
p135
tp136
a(S'X_MPI_INFO_NULL()'
p137
S'118'
p138
tp139
a(S'MPI_Win_set_name()'
p140
S'119'
p141
tp142
a(S'MPI_Win_create()'
p143
S'120'
p144
tp145
a(S'X_MPI_INFO_NULL()'
p146
S'123'
p147
tp148
a(S'MPI_Win_set_name()'
p149
S'124'
p150
tp151
a(S'MPI_Win_fence()'
p152
S'129'
p153
tp154
a(S'MPI_Win_fence()'
p155
S'130'
p156
tp157
a(S'MPI_Win_free()'
p158
S'144'
p159
tp160
a(S'MPI_Win_free()'
p161
S'145'
p162
tp163
asS'fd-culprits/src/search/ext/boost/mpi/allocator.hpp'
p164
(lp165
(S'X_MPI_INFO_NULL()'
p166
S'141'
p167
tp168
as.