ccollections
defaultdict
p0
(c__builtin__
list
p1
tp2
Rp3
S'presta_HMPI//util.c.back'
p4
(lp5
(S'MPI_Wtime()'
p6
S'66'
p7
tp8
a(S'MPI_Wtime()'
p9
S'67'
p10
tp11
a(S'MPI_Wtime()'
p12
S'72'
p13
tp14
a(S'MPI_Recv()'
p15
S'121'
p16
tp17
a(S'MPI_Sendrecv()'
p18
S'131'
p19
tp20
a(S'MPI_Send()'
p21
S'141'
p22
tp23
a(S'MPI_Sendrecv()'
p24
S'149'
p25
tp26
a(S'MPI_Get_processor_name()'
p27
S'170'
p28
tp29
a(S'MPI_Gather()'
p30
S'172'
p31
tp32
a(S'X_MPI_MAX_PROCESSOR_NAME()'
p33
S'173'
p34
tp35
a(S'MPI_Get_processor_name()'
p36
S'201'
p37
tp38
a(S'MPI_Gather()'
p39
S'203'
p40
tp41
a(S'X_MPI_MAX_PROCESSOR_NAME()'
p42
S'204'
p43
tp44
a(S'MPI_Wtick()'
p45
S'229'
p46
tp47
a(S'MPI_Comm_group()'
p48
S'307'
p49
tp50
a(S'MPI_Group_incl()'
p51
S'328'
p52
tp53
a(S'MPI_Comm_create()'
p54
S'330'
p55
tp56
a(S'MPI_Group_free()'
p57
S'340'
p58
tp59
a(S'MPI_Group_free()'
p60
S'341'
p61
tp62
asS'presta_HMPI//com_u_backup.c'
p63
(lp64
(S'MPI_Init()'
p65
S'124'
p66
tp67
a(S'MPI_Comm_size()'
p68
S'126'
p69
tp70
a(S'MPI_Comm_rank()'
p71
S'127'
p72
tp73
a(S'MPI_Finalize()'
p74
S'137'
p75
tp76
a(S'MPI_Bcast()'
p77
S'166'
p78
tp79
a(S'MPI_Barrier()'
p80
S'193'
p81
tp82
a(S'MPI_Comm_free()'
p83
S'233'
p84
tp85
a(S'MPI_Comm_free()'
p86
S'277'
p87
tp88
a(S'MPI_Finalize()'
p89
S'300'
p90
tp91
a(S'MPI_Send()'
p92
S'363'
p93
tp94
a(S'MPI_Recv()'
p95
S'366'
p96
tp97
a(S'X_MPI_COMM_WORLD()'
p98
S'367'
p99
tp100
a(S'MPI_Barrier()'
p101
S'372'
p102
tp103
a(S'MPI_Barrier()'
p104
S'373'
p105
tp106
a(S'MPI_Wtime()'
p107
S'379'
p108
tp109
a(S'MPI_Barrier()'
p110
S'418'
p111
tp112
a(S'MPI_Wtime()'
p113
S'428'
p114
tp115
a(S'MPI_Barrier()'
p116
S'470'
p117
tp118
a(S'MPI_Barrier()'
p119
S'484'
p120
tp121
a(S'MPI_Wtime()'
p122
S'487'
p123
tp124
a(S'MPI_Barrier()'
p125
S'496'
p126
tp127
a(S'MPI_Reduce()'
p128
S'499'
p129
tp130
a(S'MPI_Reduce()'
p131
S'501'
p132
tp133
a(S'MPI_Sendrecv()'
p134
S'555'
p135
tp136
a(S'X_MPI_COMM_WORLD()'
p137
S'557'
p138
tp139
a(S'MPI_Barrier()'
p140
S'560'
p141
tp142
a(S'MPI_Barrier()'
p143
S'562'
p144
tp145
a(S'MPI_Wtime()'
p146
S'566'
p147
tp148
a(S'MPI_Wtime()'
p149
S'577'
p150
tp151
a(S'MPI_Barrier()'
p152
S'599'
p153
tp154
a(S'MPI_Wtime()'
p155
S'602'
p156
tp157
a(S'MPI_Barrier()'
p158
S'608'
p159
tp160
a(S'MPI_Reduce()'
p161
S'611'
p162
tp163
asS'presta_HMPI//util.c.orig'
p164
(lp165
(S'MPI_Wtime()'
p166
S'66'
p167
tp168
a(S'MPI_Wtime()'
p169
S'67'
p170
tp171
a(S'MPI_Wtime()'
p172
S'72'
p173
tp174
a(S'MPI_Recv()'
p175
S'112'
p176
tp177
a(S'MPI_Sendrecv()'
p178
S'120'
p179
tp180
a(S'MPI_Send()'
p181
S'128'
p182
tp183
a(S'MPI_Sendrecv()'
p184
S'134'
p185
tp186
a(S'MPI_Get_processor_name()'
p187
S'153'
p188
tp189
a(S'MPI_Gather()'
p190
S'155'
p191
tp192
a(S'X_MPI_MAX_PROCESSOR_NAME()'
p193
S'156'
p194
tp195
a(S'MPI_Get_processor_name()'
p196
S'184'
p197
tp198
a(S'MPI_Gather()'
p199
S'186'
p200
tp201
a(S'X_MPI_MAX_PROCESSOR_NAME()'
p202
S'187'
p203
tp204
a(S'MPI_Wtick()'
p205
S'212'
p206
tp207
a(S'MPI_Comm_group()'
p208
S'289'
p209
tp210
a(S'MPI_Group_incl()'
p211
S'302'
p212
tp213
a(S'MPI_Comm_create()'
p214
S'303'
p215
tp216
a(S'MPI_Group_free()'
p217
S'305'
p218
tp219
a(S'MPI_Group_free()'
p220
S'306'
p221
tp222
asS'presta_HMPI//util.c'
p223
(lp224
(S'MPI_Wtime()'
p225
S'66'
p226
tp227
a(S'MPI_Wtime()'
p228
S'67'
p229
tp230
a(S'MPI_Wtime()'
p231
S'72'
p232
tp233
a(S'MPI_Recv()'
p234
S'113'
p235
tp236
a(S'MPI_Sendrecv()'
p237
S'122'
p238
tp239
a(S'MPI_Send()'
p240
S'131'
p241
tp242
a(S'MPI_Sendrecv()'
p243
S'138'
p244
tp245
a(S'MPI_Get_processor_name()'
p246
S'158'
p247
tp248
a(S'MPI_Gather()'
p249
S'160'
p250
tp251
a(S'X_MPI_MAX_PROCESSOR_NAME()'
p252
S'161'
p253
tp254
a(S'MPI_Get_processor_name()'
p255
S'189'
p256
tp257
a(S'MPI_Gather()'
p258
S'191'
p259
tp260
a(S'X_MPI_MAX_PROCESSOR_NAME()'
p261
S'192'
p262
tp263
a(S'MPI_Wtick()'
p264
S'217'
p265
tp266
a(S'MPI_Comm_group()'
p267
S'294'
p268
tp269
a(S'MPI_Group_incl()'
p270
S'307'
p271
tp272
a(S'MPI_Comm_create()'
p273
S'308'
p274
tp275
a(S'MPI_Group_free()'
p276
S'310'
p277
tp278
a(S'MPI_Group_free()'
p279
S'311'
p280
tp281
asS'presta_HMPI//com_u_openmp.c'
p282
(lp283
(S'MPI_Init()'
p284
S'126'
p285
tp286
a(S'MPI_Comm_size()'
p287
S'128'
p288
tp289
a(S'MPI_Comm_rank()'
p290
S'129'
p291
tp292
a(S'MPI_Finalize()'
p293
S'139'
p294
tp295
a(S'MPI_Bcast()'
p296
S'168'
p297
tp298
a(S'MPI_Barrier()'
p299
S'195'
p300
tp301
a(S'MPI_Comm_free()'
p302
S'238'
p303
tp304
a(S'MPI_Comm_free()'
p305
S'282'
p306
tp307
a(S'MPI_Finalize()'
p308
S'305'
p309
tp310
a(S'MPI_Barrier()'
p311
S'371'
p312
tp313
a(S'MPI_Barrier()'
p314
S'372'
p315
tp316
a(S'MPI_Wtime()'
p317
S'386'
p318
tp319
a(S'MPI_Wtime()'
p320
S'411'
p321
tp322
a(S'MPI_Wtime()'
p323
S'441'
p324
tp325
a(S'MPI_Barrier()'
p326
S'443'
p327
tp328
a(S'MPI_Barrier()'
p329
S'444'
p330
tp331
a(S'MPI_Barrier()'
p332
S'456'
p333
tp334
a(S'MPI_Reduce()'
p335
S'461'
p336
tp337
a(S'MPI_Reduce()'
p338
S'463'
p339
tp340
a(S'MPI_Barrier()'
p341
S'546'
p342
tp343
a(S'MPI_Barrier()'
p344
S'547'
p345
tp346
a(S'MPI_Wtime()'
p347
S'554'
p348
tp349
a(S'MPI_Wtime()'
p350
S'596'
p351
tp352
a(S'MPI_Wtime()'
p353
S'642'
p354
tp355
a(S'MPI_Barrier()'
p356
S'644'
p357
tp358
a(S'MPI_Barrier()'
p359
S'645'
p360
tp361
a(S'MPI_Barrier()'
p362
S'654'
p363
tp364
a(S'MPI_Reduce()'
p365
S'657'
p366
tp367
asS'presta_HMPI//com_u.c.orig'
p368
(lp369
(S'MPI_Init()'
p370
S'123'
p371
tp372
a(S'MPI_Comm_size()'
p373
S'125'
p374
tp375
a(S'MPI_Comm_rank()'
p376
S'126'
p377
tp378
a(S'MPI_Finalize()'
p379
S'136'
p380
tp381
a(S'MPI_Bcast()'
p382
S'165'
p383
tp384
a(S'MPI_Barrier()'
p385
S'192'
p386
tp387
a(S'MPI_Comm_free()'
p388
S'232'
p389
tp390
a(S'MPI_Comm_free()'
p391
S'276'
p392
tp393
a(S'MPI_Finalize()'
p394
S'299'
p395
tp396
a(S'MPI_Send()'
p397
S'354'
p398
tp399
a(S'MPI_Recv()'
p400
S'357'
p401
tp402
a(S'X_MPI_COMM_WORLD()'
p403
S'358'
p404
tp405
a(S'MPI_Barrier()'
p406
S'363'
p407
tp408
a(S'MPI_Barrier()'
p409
S'364'
p410
tp411
a(S'MPI_Wtime()'
p412
S'370'
p413
tp414
a(S'MPI_Wtime()'
p415
S'412'
p416
tp417
a(S'MPI_Barrier()'
p418
S'463'
p419
tp420
a(S'MPI_Wtime()'
p421
S'466'
p422
tp423
a(S'MPI_Barrier()'
p424
S'474'
p425
tp426
a(S'MPI_Reduce()'
p427
S'477'
p428
tp429
a(S'MPI_Sendrecv()'
p430
S'531'
p431
tp432
a(S'X_MPI_COMM_WORLD()'
p433
S'533'
p434
tp435
a(S'MPI_Barrier()'
p436
S'536'
p437
tp438
a(S'MPI_Barrier()'
p439
S'538'
p440
tp441
a(S'MPI_Wtime()'
p442
S'542'
p443
tp444
a(S'MPI_Wtime()'
p445
S'553'
p446
tp447
a(S'MPI_Barrier()'
p448
S'575'
p449
tp450
a(S'MPI_Wtime()'
p451
S'578'
p452
tp453
a(S'MPI_Barrier()'
p454
S'584'
p455
tp456
a(S'MPI_Reduce()'
p457
S'587'
p458
tp459
asS'presta_HMPI//laten.c'
p460
(lp461
(S'MPI_Init()'
p462
S'83'
p463
tp464
a(S'MPI_Comm_size()'
p465
S'85'
p466
tp467
a(S'MPI_Comm_rank()'
p468
S'86'
p469
tp470
a(S'MPI_Finalize()'
p471
S'96'
p472
tp473
a(S'MPI_Recv()'
p474
S'137'
p475
tp476
a(S'MPI_Send()'
p477
S'138'
p478
tp479
a(S'MPI_Send()'
p480
S'143'
p481
tp482
a(S'MPI_Recv()'
p483
S'144'
p484
tp485
a(S'MPI_Barrier()'
p486
S'148'
p487
tp488
a(S'MPI_Barrier()'
p489
S'150'
p490
tp491
a(S'MPI_Wtime()'
p492
S'155'
p493
tp494
a(S'MPI_Send()'
p495
S'159'
p496
tp497
a(S'MPI_Recv()'
p498
S'160'
p499
tp500
a(S'MPI_Wtime()'
p501
S'166'
p502
tp503
a(S'MPI_Recv()'
p504
S'170'
p505
tp506
a(S'MPI_Send()'
p507
S'171'
p508
tp509
a(S'MPI_Barrier()'
p510
S'176'
p511
tp512
a(S'MPI_Wtime()'
p513
S'179'
p514
tp515
a(S'MPI_Comm_free()'
p516
S'183'
p517
tp518
a(S'MPI_Reduce()'
p519
S'186'
p520
tp521
a(S'MPI_Finalize()'
p522
S'205'
p523
tp524
asS'presta_HMPI//com_u.c'
p525
(lp526
(S'MPI_Init()'
p527
S'125'
p528
tp529
a(S'MPI_Comm_size()'
p530
S'127'
p531
tp532
a(S'MPI_Comm_rank()'
p533
S'128'
p534
tp535
a(S'MPI_Finalize()'
p536
S'138'
p537
tp538
a(S'MPI_Bcast()'
p539
S'167'
p540
tp541
a(S'MPI_Barrier()'
p542
S'194'
p543
tp544
a(S'MPI_Comm_free()'
p545
S'237'
p546
tp547
a(S'MPI_Comm_free()'
p548
S'281'
p549
tp550
a(S'MPI_Finalize()'
p551
S'304'
p552
tp553
a(S'MPI_Barrier()'
p554
S'370'
p555
tp556
a(S'MPI_Barrier()'
p557
S'371'
p558
tp559
a(S'MPI_Wtime()'
p560
S'378'
p561
tp562
a(S'MPI_Wtime()'
p563
S'416'
p564
tp565
a(S'MPI_Wtime()'
p566
S'458'
p567
tp568
a(S'MPI_Barrier()'
p569
S'460'
p570
tp571
a(S'MPI_Barrier()'
p572
S'461'
p573
tp574
a(S'MPI_Barrier()'
p575
S'473'
p576
tp577
a(S'MPI_Reduce()'
p578
S'478'
p579
tp580
a(S'MPI_Reduce()'
p581
S'480'
p582
tp583
a(S'MPI_Barrier()'
p584
S'563'
p585
tp586
a(S'MPI_Barrier()'
p587
S'564'
p588
tp589
a(S'MPI_Wtime()'
p590
S'571'
p591
tp592
a(S'MPI_Wtime()'
p593
S'613'
p594
tp595
a(S'MPI_Wtime()'
p596
S'659'
p597
tp598
a(S'MPI_Barrier()'
p599
S'661'
p600
tp601
a(S'MPI_Barrier()'
p602
S'662'
p603
tp604
a(S'MPI_Barrier()'
p605
S'671'
p606
tp607
a(S'MPI_Reduce()'
p608
S'674'
p609
tp610
asS'presta_HMPI//globalop.c'
p611
(lp612
(S'X_MPI_Barrier()'
p613
S'46'
p614
tp615
a(S'MPI_Init()'
p616
S'119'
p617
tp618
a(S'MPI_Comm_rank()'
p619
S'120'
p620
tp621
a(S'MPI_Comm_size()'
p622
S'121'
p623
tp624
a(S'MPI_Wtime()'
p625
S'123'
p626
tp627
a(S'MPI_Barrier()'
p628
S'134'
p629
tp630
a(S'MPI_Wtime()'
p631
S'136'
p632
tp633
a(S'MPI_Wtime()'
p634
S'145'
p635
tp636
a(S'MPI_Reduce()'
p637
S'151'
p638
tp639
a(S'X_MPI_SUM()'
p640
S'152'
p641
tp642
a(S'MPI_Barrier()'
p643
S'162'
p644
tp645
a(S'MPI_Wtime()'
p646
S'164'
p647
tp648
a(S'MPI_Barrier()'
p649
S'172'
p650
tp651
a(S'MPI_Wtime()'
p652
S'175'
p653
tp654
a(S'MPI_Reduce()'
p655
S'179'
p656
tp657
a(S'X_MPI_SUM()'
p658
S'180'
p659
tp660
a(S'MPI_Barrier()'
p661
S'188'
p662
tp663
a(S'MPI_Wtime()'
p664
S'190'
p665
tp666
a(S'MPI_Barrier()'
p667
S'194'
p668
tp669
a(S'MPI_Wtime()'
p670
S'197'
p671
tp672
a(S'MPI_Reduce()'
p673
S'201'
p674
tp675
a(S'X_MPI_SUM()'
p676
S'202'
p677
tp678
a(S'MPI_Barrier()'
p679
S'211'
p680
tp681
a(S'MPI_Wtime()'
p682
S'213'
p683
tp684
a(S'MPI_Reduce()'
p685
S'221'
p686
tp687
a(S'MPI_Wtime()'
p688
S'225'
p689
tp690
a(S'MPI_Reduce()'
p691
S'229'
p692
tp693
a(S'X_MPI_MIN()'
p694
S'230'
p695
tp696
a(S'MPI_Reduce()'
p697
S'231'
p698
tp699
a(S'X_MPI_MAX()'
p700
S'232'
p701
tp702
a(S'MPI_Reduce()'
p703
S'233'
p704
tp705
a(S'X_MPI_SUM()'
p706
S'234'
p707
tp708
a(S'MPI_Barrier()'
p709
S'247'
p710
tp711
a(S'MPI_Wtime()'
p712
S'249'
p713
tp714
a(S'MPI_Reduce()'
p715
S'252'
p716
tp717
a(S'MPI_Wtime()'
p718
S'256'
p719
tp720
a(S'MPI_Reduce()'
p721
S'260'
p722
tp723
a(S'X_MPI_MIN()'
p724
S'261'
p725
tp726
a(S'MPI_Reduce()'
p727
S'262'
p728
tp729
a(S'X_MPI_MAX()'
p730
S'263'
p731
tp732
a(S'MPI_Reduce()'
p733
S'264'
p734
tp735
a(S'X_MPI_SUM()'
p736
S'265'
p737
tp738
a(S'MPI_Barrier()'
p739
S'278'
p740
tp741
a(S'MPI_Wtime()'
p742
S'280'
p743
tp744
a(S'MPI_Bcast()'
p745
S'288'
p746
tp747
a(S'MPI_Wtime()'
p748
S'291'
p749
tp750
a(S'MPI_Reduce()'
p751
S'295'
p752
tp753
a(S'X_MPI_MIN()'
p754
S'296'
p755
tp756
a(S'MPI_Reduce()'
p757
S'297'
p758
tp759
a(S'X_MPI_MAX()'
p760
S'298'
p761
tp762
a(S'MPI_Reduce()'
p763
S'299'
p764
tp765
a(S'X_MPI_SUM()'
p766
S'300'
p767
tp768
a(S'MPI_Barrier()'
p769
S'313'
p770
tp771
a(S'MPI_Wtime()'
p772
S'315'
p773
tp774
a(S'MPI_Bcast()'
p775
S'318'
p776
tp777
a(S'MPI_Wtime()'
p778
S'321'
p779
tp780
a(S'MPI_Reduce()'
p781
S'325'
p782
tp783
a(S'X_MPI_MIN()'
p784
S'326'
p785
tp786
a(S'MPI_Reduce()'
p787
S'327'
p788
tp789
a(S'X_MPI_MAX()'
p790
S'328'
p791
tp792
a(S'MPI_Reduce()'
p793
S'329'
p794
tp795
a(S'X_MPI_SUM()'
p796
S'330'
p797
tp798
a(S'MPI_Barrier()'
p799
S'342'
p800
tp801
a(S'MPI_Wtime()'
p802
S'344'
p803
tp804
a(S'MPI_Allreduce()'
p805
S'352'
p806
tp807
a(S'MPI_Wtime()'
p808
S'356'
p809
tp810
a(S'MPI_Reduce()'
p811
S'360'
p812
tp813
a(S'X_MPI_MIN()'
p814
S'361'
p815
tp816
a(S'MPI_Reduce()'
p817
S'362'
p818
tp819
a(S'X_MPI_MAX()'
p820
S'363'
p821
tp822
a(S'MPI_Reduce()'
p823
S'364'
p824
tp825
a(S'X_MPI_SUM()'
p826
S'365'
p827
tp828
a(S'MPI_Barrier()'
p829
S'378'
p830
tp831
a(S'MPI_Wtime()'
p832
S'380'
p833
tp834
a(S'MPI_Allreduce()'
p835
S'383'
p836
tp837
a(S'MPI_Wtime()'
p838
S'387'
p839
tp840
a(S'MPI_Reduce()'
p841
S'391'
p842
tp843
a(S'X_MPI_MIN()'
p844
S'392'
p845
tp846
a(S'MPI_Reduce()'
p847
S'393'
p848
tp849
a(S'X_MPI_MAX()'
p850
S'394'
p851
tp852
a(S'MPI_Reduce()'
p853
S'395'
p854
tp855
a(S'X_MPI_SUM()'
p856
S'396'
p857
tp858
a(S'MPI_Barrier()'
p859
S'409'
p860
tp861
a(S'MPI_Wtime()'
p862
S'411'
p863
tp864
a(S'MPI_Reduce()'
p865
S'414'
p866
tp867
a(S'MPI_Bcast()'
p868
S'416'
p869
tp870
a(S'MPI_Wtime()'
p871
S'419'
p872
tp873
a(S'MPI_Reduce()'
p874
S'423'
p875
tp876
a(S'X_MPI_MIN()'
p877
S'424'
p878
tp879
a(S'MPI_Reduce()'
p880
S'425'
p881
tp882
a(S'X_MPI_MAX()'
p883
S'426'
p884
tp885
a(S'MPI_Reduce()'
p886
S'427'
p887
tp888
a(S'X_MPI_SUM()'
p889
S'428'
p890
tp891
a(S'MPI_Barrier()'
p892
S'441'
p893
tp894
a(S'MPI_Wtime()'
p895
S'443'
p896
tp897
a(S'MPI_Reduce()'
p898
S'446'
p899
tp900
a(S'MPI_Bcast()'
p901
S'453'
p902
tp903
a(S'MPI_Wtime()'
p904
S'456'
p905
tp906
a(S'MPI_Reduce()'
p907
S'462'
p908
tp909
a(S'X_MPI_MIN()'
p910
S'463'
p911
tp912
a(S'MPI_Reduce()'
p913
S'464'
p914
tp915
a(S'X_MPI_MAX()'
p916
S'465'
p917
tp918
a(S'MPI_Reduce()'
p919
S'466'
p920
tp921
a(S'X_MPI_SUM()'
p922
S'467'
p923
tp924
a(S'MPI_Wtime()'
p925
S'485'
p926
tp927
a(S'MPI_Reduce()'
p928
S'491'
p929
tp930
a(S'X_MPI_SUM()'
p931
S'492'
p932
tp933
a(S'MPI_Finalize()'
p934
S'495'
p935
tp936
asS'presta_HMPI//com_u.c.ver.2'
p937
(lp938
(S'MPI_Init()'
p939
S'124'
p940
tp941
a(S'MPI_Comm_size()'
p942
S'126'
p943
tp944
a(S'MPI_Comm_rank()'
p945
S'127'
p946
tp947
a(S'MPI_Finalize()'
p948
S'137'
p949
tp950
a(S'MPI_Bcast()'
p951
S'166'
p952
tp953
a(S'MPI_Barrier()'
p954
S'193'
p955
tp956
a(S'MPI_Comm_free()'
p957
S'233'
p958
tp959
a(S'MPI_Comm_free()'
p960
S'277'
p961
tp962
a(S'MPI_Finalize()'
p963
S'300'
p964
tp965
a(S'MPI_Barrier()'
p966
S'365'
p967
tp968
a(S'MPI_Barrier()'
p969
S'366'
p970
tp971
a(S'MPI_Wtime()'
p972
S'371'
p973
tp974
a(S'MPI_Wtime()'
p975
S'420'
p976
tp977
a(S'MPI_Barrier()'
p978
S'469'
p979
tp980
a(S'MPI_Wtime()'
p981
S'472'
p982
tp983
a(S'MPI_Barrier()'
p984
S'481'
p985
tp986
a(S'MPI_Reduce()'
p987
S'484'
p988
tp989
a(S'MPI_Reduce()'
p990
S'486'
p991
tp992
a(S'MPI_Sendrecv()'
p993
S'540'
p994
tp995
a(S'X_MPI_COMM_WORLD()'
p996
S'542'
p997
tp998
a(S'MPI_Barrier()'
p999
S'545'
p1000
tp1001
a(S'MPI_Barrier()'
p1002
S'547'
p1003
tp1004
a(S'MPI_Wtime()'
p1005
S'551'
p1006
tp1007
a(S'MPI_Wtime()'
p1008
S'562'
p1009
tp1010
a(S'MPI_Barrier()'
p1011
S'584'
p1012
tp1013
a(S'MPI_Wtime()'
p1014
S'587'
p1015
tp1016
a(S'MPI_Barrier()'
p1017
S'593'
p1018
tp1019
a(S'MPI_Reduce()'
p1020
S'596'
p1021
tp1022
asS'presta_HMPI//laten.c~'
p1023
(lp1024
(S'MPI_Init()'
p1025
S'83'
p1026
tp1027
a(S'MPI_Comm_size()'
p1028
S'85'
p1029
tp1030
a(S'MPI_Comm_rank()'
p1031
S'86'
p1032
tp1033
a(S'MPI_Finalize()'
p1034
S'96'
p1035
tp1036
a(S'MPI_Recv()'
p1037
S'137'
p1038
tp1039
a(S'MPI_Send()'
p1040
S'138'
p1041
tp1042
a(S'MPI_Send()'
p1043
S'143'
p1044
tp1045
a(S'MPI_Recv()'
p1046
S'144'
p1047
tp1048
a(S'MPI_Wtime()'
p1049
S'153'
p1050
tp1051
a(S'MPI_Send()'
p1052
S'157'
p1053
tp1054
a(S'MPI_Recv()'
p1055
S'158'
p1056
tp1057
a(S'MPI_Wtime()'
p1058
S'164'
p1059
tp1060
a(S'MPI_Recv()'
p1061
S'168'
p1062
tp1063
a(S'MPI_Send()'
p1064
S'169'
p1065
tp1066
a(S'MPI_Wtime()'
p1067
S'176'
p1068
tp1069
a(S'MPI_Comm_free()'
p1070
S'180'
p1071
tp1072
a(S'MPI_Reduce()'
p1073
S'183'
p1074
tp1075
a(S'MPI_Finalize()'
p1076
S'202'
p1077
tp1078
asS'presta_HMPI//com_u_pthread.c'
p1079
(lp1080
(S'MPI_Init()'
p1081
S'126'
p1082
tp1083
a(S'MPI_Comm_size()'
p1084
S'128'
p1085
tp1086
a(S'MPI_Comm_rank()'
p1087
S'129'
p1088
tp1089
a(S'MPI_Finalize()'
p1090
S'139'
p1091
tp1092
a(S'MPI_Bcast()'
p1093
S'168'
p1094
tp1095
a(S'MPI_Barrier()'
p1096
S'195'
p1097
tp1098
a(S'MPI_Comm_free()'
p1099
S'238'
p1100
tp1101
a(S'MPI_Comm_free()'
p1102
S'282'
p1103
tp1104
a(S'MPI_Finalize()'
p1105
S'305'
p1106
tp1107
a(S'MPI_Barrier()'
p1108
S'371'
p1109
tp1110
a(S'MPI_Barrier()'
p1111
S'372'
p1112
tp1113
a(S'MPI_Wtime()'
p1114
S'379'
p1115
tp1116
a(S'MPI_Wtime()'
p1117
S'404'
p1118
tp1119
a(S'MPI_Wtime()'
p1120
S'434'
p1121
tp1122
a(S'MPI_Barrier()'
p1123
S'436'
p1124
tp1125
a(S'MPI_Barrier()'
p1126
S'437'
p1127
tp1128
a(S'MPI_Barrier()'
p1129
S'449'
p1130
tp1131
a(S'MPI_Reduce()'
p1132
S'454'
p1133
tp1134
a(S'MPI_Reduce()'
p1135
S'456'
p1136
tp1137
a(S'MPI_Barrier()'
p1138
S'539'
p1139
tp1140
a(S'MPI_Barrier()'
p1141
S'540'
p1142
tp1143
a(S'MPI_Wtime()'
p1144
S'547'
p1145
tp1146
a(S'MPI_Wtime()'
p1147
S'589'
p1148
tp1149
a(S'MPI_Wtime()'
p1150
S'635'
p1151
tp1152
a(S'MPI_Barrier()'
p1153
S'637'
p1154
tp1155
a(S'MPI_Barrier()'
p1156
S'638'
p1157
tp1158
a(S'MPI_Barrier()'
p1159
S'647'
p1160
tp1161
a(S'MPI_Reduce()'
p1162
S'650'
p1163
tp1164
asS'presta_HMPI/scale_tests/com_u.c'
p1165
(lp1166
(S'MPI_Init()'
p1167
S'122'
p1168
tp1169
a(S'MPI_Comm_size()'
p1170
S'124'
p1171
tp1172
a(S'MPI_Comm_rank()'
p1173
S'125'
p1174
tp1175
a(S'MPI_Finalize()'
p1176
S'135'
p1177
tp1178
a(S'MPI_Bcast()'
p1179
S'164'
p1180
tp1181
a(S'MPI_Comm_free()'
p1182
S'205'
p1183
tp1184
a(S'MPI_Comm_free()'
p1185
S'249'
p1186
tp1187
a(S'MPI_Finalize()'
p1188
S'272'
p1189
tp1190
a(S'MPI_Send()'
p1191
S'332'
p1192
tp1193
a(S'MPI_Recv()'
p1194
S'335'
p1195
tp1196
a(S'X_MPI_COMM_WORLD()'
p1197
S'336'
p1198
tp1199
a(S'MPI_Barrier()'
p1200
S'341'
p1201
tp1202
a(S'MPI_Barrier()'
p1203
S'342'
p1204
tp1205
a(S'MPI_Wtime()'
p1206
S'347'
p1207
tp1208
a(S'MPI_Wtime()'
p1209
S'385'
p1210
tp1211
a(S'MPI_Barrier()'
p1212
S'429'
p1213
tp1214
a(S'MPI_Wtime()'
p1215
S'432'
p1216
tp1217
a(S'MPI_Barrier()'
p1218
S'437'
p1219
tp1220
a(S'MPI_Reduce()'
p1221
S'440'
p1222
tp1223
a(S'MPI_Sendrecv()'
p1224
S'493'
p1225
tp1226
a(S'X_MPI_COMM_WORLD()'
p1227
S'495'
p1228
tp1229
a(S'MPI_Barrier()'
p1230
S'498'
p1231
tp1232
a(S'MPI_Barrier()'
p1233
S'500'
p1234
tp1235
a(S'MPI_Wtime()'
p1236
S'504'
p1237
tp1238
a(S'MPI_Wtime()'
p1239
S'515'
p1240
tp1241
a(S'MPI_Barrier()'
p1242
S'537'
p1243
tp1244
a(S'MPI_Wtime()'
p1245
S'540'
p1246
tp1247
a(S'MPI_Barrier()'
p1248
S'546'
p1249
tp1250
a(S'MPI_Reduce()'
p1251
S'549'
p1252
tp1253
asS'presta_HMPI//com_u.c.tmp'
p1254
(lp1255
(S'MPI_Init()'
p1256
S'124'
p1257
tp1258
a(S'MPI_Comm_size()'
p1259
S'126'
p1260
tp1261
a(S'MPI_Comm_rank()'
p1262
S'127'
p1263
tp1264
a(S'MPI_Finalize()'
p1265
S'137'
p1266
tp1267
a(S'MPI_Bcast()'
p1268
S'166'
p1269
tp1270
a(S'MPI_Barrier()'
p1271
S'193'
p1272
tp1273
a(S'MPI_Comm_free()'
p1274
S'233'
p1275
tp1276
a(S'MPI_Comm_free()'
p1277
S'277'
p1278
tp1279
a(S'MPI_Finalize()'
p1280
S'300'
p1281
tp1282
a(S'MPI_Barrier()'
p1283
S'369'
p1284
tp1285
a(S'MPI_Barrier()'
p1286
S'370'
p1287
tp1288
a(S'MPI_Wtime()'
p1289
S'379'
p1290
tp1291
a(S'MPI_Wtime()'
p1292
S'428'
p1293
tp1294
a(S'MPI_Barrier()'
p1295
S'480'
p1296
tp1297
a(S'MPI_Wtime()'
p1298
S'483'
p1299
tp1300
a(S'MPI_Barrier()'
p1301
S'495'
p1302
tp1303
a(S'MPI_Reduce()'
p1304
S'498'
p1305
tp1306
a(S'MPI_Reduce()'
p1307
S'500'
p1308
tp1309
a(S'MPI_Sendrecv()'
p1310
S'554'
p1311
tp1312
a(S'X_MPI_COMM_WORLD()'
p1313
S'556'
p1314
tp1315
a(S'MPI_Barrier()'
p1316
S'559'
p1317
tp1318
a(S'MPI_Barrier()'
p1319
S'561'
p1320
tp1321
a(S'MPI_Wtime()'
p1322
S'565'
p1323
tp1324
a(S'MPI_Wtime()'
p1325
S'576'
p1326
tp1327
a(S'MPI_Barrier()'
p1328
S'598'
p1329
tp1330
a(S'MPI_Wtime()'
p1331
S'601'
p1332
tp1333
a(S'MPI_Barrier()'
p1334
S'607'
p1335
tp1336
a(S'MPI_Reduce()'
p1337
S'610'
p1338
tp1339
asS'presta_HMPI//allred.c'
p1340
(lp1341
(S'MPI_Wtime()'
p1342
S'145'
p1343
tp1344
a(S'MPI_Allreduce()'
p1345
S'166'
p1346
tp1347
a(S'X_MPI_SUM()'
p1348
S'167'
p1349
tp1350
a(S'MPI_Wtime()'
p1351
S'169'
p1352
tp1353
a(S'MPI_Wtime()'
p1354
S'176'
p1355
tp1356
a(S'MPI_Reduce()'
p1357
S'178'
p1358
tp1359
a(S'X_MPI_MAX()'
p1360
S'179'
p1361
tp1362
a(S'MPI_Allreduce()'
p1363
S'200'
p1364
tp1365
a(S'X_MPI_SUM()'
p1366
S'201'
p1367
tp1368
a(S'MPI_Wtime()'
p1369
S'203'
p1370
tp1371
a(S'MPI_Allreduce()'
p1372
S'207'
p1373
tp1374
a(S'X_MPI_SUM()'
p1375
S'208'
p1376
tp1377
a(S'MPI_Wtime()'
p1378
S'213'
p1379
tp1380
a(S'MPI_Reduce()'
p1381
S'215'
p1382
tp1383
a(S'X_MPI_MAX()'
p1384
S'216'
p1385
tp1386
a(S'MPI_Comm_rank()'
p1387
S'252'
p1388
tp1389
a(S'MPI_Comm_size()'
p1390
S'253'
p1391
tp1392
a(S'MPI_Wtick()'
p1393
S'279'
p1394
tp1395
a(S'MPI_Init()'
p1396
S'325'
p1397
tp1398
a(S'MPI_Comm_rank()'
p1399
S'331'
p1400
tp1401
a(S'MPI_Finalize()'
p1402
S'335'
p1403
tp1404
a(S'MPI_Finalize()'
p1405
S'347'
p1406
tp1407
asS'presta_HMPI//my.log'
p1408
(lp1409
(S'X_MPI_Comm()'
p1410
S'7792'
p1411
tp1412
a(S'X_MPI_Datatype()'
p1413
S'7800'
p1414
tp1415
a(S'X_MPI_Datatype()'
p1416
S'7896'
p1417
tp1418
a(S'X_MPI_Comm()'
p1419
S'8079'
p1420
tp1421
a(S'X_MPI_Datatype()'
p1422
S'8087'
p1423
tp1424
a(S'X_MPI_Datatype()'
p1425
S'8189'
p1426
tp1427
a(S'X_MPI_Datatype()'
p1428
S'8412'
p1429
tp1430
a(S'X_MPI_Datatype()'
p1431
S'8457'
p1432
tp1433
a(S'X_MPI_Datatype()'
p1434
S'8459'
p1435
tp1436
a(S'X_MPI_Datatype()'
p1437
S'8461'
p1438
tp1439
a(S'X_MPI_Datatype()'
p1440
S'8531'
p1441
tp1442
a(S'X_MPI_Datatype()'
p1443
S'8575'
p1444
tp1445
a(S'X_MPI_Datatype()'
p1446
S'8577'
p1447
tp1448
a(S'MPI_Wtime()'
p1449
S'9318'
p1450
tp1451
a(S'MPI_Wtime()'
p1452
S'9319'
p1453
tp1454
a(S'MPI_Wtime()'
p1455
S'9324'
p1456
tp1457
a(S'MPI_Get_processor_name()'
p1458
S'9405'
p1459
tp1460
a(S'MPI_Gather()'
p1461
S'9407'
p1462
tp1463
a(S'MPI_Get_processor_name()'
p1464
S'9435'
p1465
tp1466
a(S'MPI_Gather()'
p1467
S'9437'
p1468
tp1469
a(S'MPI_Wtick()'
p1470
S'9462'
p1471
tp1472
a(S'MPI_Comm_group()'
p1473
S'9540'
p1474
tp1475
a(S'MPI_Group_incl()'
p1476
S'9553'
p1477
tp1478
a(S'MPI_Group_free()'
p1479
S'9556'
p1480
tp1481
a(S'MPI_Group_free()'
p1482
S'9557'
p1483
tp1484
asS'presta_HMPI//README.html'
p1485
(lp1486
(S'X_MPI_Barrier()'
p1487
S'76'
p1488
tp1489
a(S'X_MPI_Bcast()'
p1490
S'300'
p1491
tp1492
asS'presta_HMPI//README'
p1493
(lp1494
(S'X_MPI_Barrier()'
p1495
S'73'
p1496
tp1497
a(S'X_MPI_Bcast()'
p1498
S'297'
p1499
tp1500
asS'presta_HMPI//transfer_omp.c'
p1501
(lp1502
(S'MPI_Wtime()'
p1503
S'50'
p1504
tp1505
a(S'MPI_Wtime()'
p1506
S'57'
p1507
tp1508
asS'presta_HMPI//com.c~'
p1509
(lp1510
(S'MPI_Init()'
p1511
S'103'
p1512
tp1513
a(S'MPI_Comm_size()'
p1514
S'105'
p1515
tp1516
a(S'MPI_Comm_rank()'
p1517
S'106'
p1518
tp1519
a(S'MPI_Finalize()'
p1520
S'116'
p1521
tp1522
a(S'MPI_Comm_free()'
p1523
S'172'
p1524
tp1525
a(S'MPI_Comm_free()'
p1526
S'216'
p1527
tp1528
a(S'MPI_Finalize()'
p1529
S'237'
p1530
tp1531
a(S'MPI_Send()'
p1532
S'267'
p1533
tp1534
a(S'MPI_Recv()'
p1535
S'270'
p1536
tp1537
a(S'X_MPI_COMM_WORLD()'
p1538
S'271'
p1539
tp1540
a(S'MPI_Wtime()'
p1541
S'280'
p1542
tp1543
a(S'MPI_Send()'
p1544
S'282'
p1545
tp1546
a(S'MPI_Wtime()'
p1547
S'286'
p1548
tp1549
a(S'MPI_Recv()'
p1550
S'289'
p1551
tp1552
a(S'X_MPI_COMM_WORLD()'
p1553
S'290'
p1554
tp1555
a(S'MPI_Wtime()'
p1556
S'297'
p1557
tp1558
a(S'MPI_Barrier()'
p1559
S'302'
p1560
tp1561
a(S'MPI_Reduce()'
p1562
S'305'
p1563
tp1564
a(S'MPI_Sendrecv()'
p1565
S'358'
p1566
tp1567
a(S'X_MPI_COMM_WORLD()'
p1568
S'360'
p1569
tp1570
a(S'MPI_Wtime()'
p1571
S'366'
p1572
tp1573
a(S'MPI_Sendrecv()'
p1574
S'370'
p1575
tp1576
a(S'X_MPI_COMM_WORLD()'
p1577
S'372'
p1578
tp1579
a(S'MPI_Wtime()'
p1580
S'378'
p1581
tp1582
a(S'MPI_Barrier()'
p1583
S'384'
p1584
tp1585
a(S'MPI_Reduce()'
p1586
S'387'
p1587
tp1588
asS'presta_HMPI//com.c.back'
p1589
(lp1590
(S'MPI_Init()'
p1591
S'103'
p1592
tp1593
a(S'MPI_Comm_size()'
p1594
S'105'
p1595
tp1596
a(S'MPI_Comm_rank()'
p1597
S'106'
p1598
tp1599
a(S'MPI_Finalize()'
p1600
S'116'
p1601
tp1602
a(S'MPI_Comm_free()'
p1603
S'221'
p1604
tp1605
a(S'MPI_Finalize()'
p1606
S'242'
p1607
tp1608
a(S'MPI_Send()'
p1609
S'275'
p1610
tp1611
a(S'MPI_Recv()'
p1612
S'278'
p1613
tp1614
a(S'X_MPI_COMM_WORLD()'
p1615
S'279'
p1616
tp1617
a(S'MPI_Wtime()'
p1618
S'290'
p1619
tp1620
a(S'MPI_Send()'
p1621
S'293'
p1622
tp1623
a(S'MPI_Wtime()'
p1624
S'298'
p1625
tp1626
a(S'MPI_Recv()'
p1627
S'302'
p1628
tp1629
a(S'X_MPI_COMM_WORLD()'
p1630
S'303'
p1631
tp1632
a(S'MPI_Wtime()'
p1633
S'312'
p1634
tp1635
a(S'MPI_Barrier()'
p1636
S'317'
p1637
tp1638
a(S'MPI_Reduce()'
p1639
S'320'
p1640
tp1641
a(S'MPI_Sendrecv()'
p1642
S'373'
p1643
tp1644
a(S'X_MPI_COMM_WORLD()'
p1645
S'375'
p1646
tp1647
a(S'MPI_Wtime()'
p1648
S'381'
p1649
tp1650
a(S'MPI_Sendrecv()'
p1651
S'385'
p1652
tp1653
a(S'X_MPI_COMM_WORLD()'
p1654
S'387'
p1655
tp1656
a(S'MPI_Wtime()'
p1657
S'393'
p1658
tp1659
a(S'MPI_Barrier()'
p1660
S'399'
p1661
tp1662
a(S'MPI_Reduce()'
p1663
S'402'
p1664
tp1665
asS'presta_HMPI//com_hmpi.c'
p1666
(lp1667
(S'X_MPI_SEND()'
p1668
S'69'
p1669
tp1670
a(S'X_MPI_RECV()'
p1671
S'70'
p1672
tp1673
a(S'MPI_Init()'
p1674
S'125'
p1675
tp1676
a(S'MPI_Comm_size()'
p1677
S'127'
p1678
tp1679
a(S'MPI_Comm_rank()'
p1680
S'128'
p1681
tp1682
a(S'MPI_Finalize()'
p1683
S'138'
p1684
tp1685
a(S'MPI_Bcast()'
p1686
S'166'
p1687
tp1688
a(S'MPI_Comm_free()'
p1689
S'208'
p1690
tp1691
a(S'MPI_Comm_free()'
p1692
S'252'
p1693
tp1694
a(S'MPI_Finalize()'
p1695
S'275'
p1696
tp1697
a(S'MPI_Barrier()'
p1698
S'321'
p1699
tp1700
a(S'MPI_Barrier()'
p1701
S'322'
p1702
tp1703
a(S'MPI_Wtime()'
p1704
S'327'
p1705
tp1706
a(S'MPI_Wtime()'
p1707
S'341'
p1708
tp1709
a(S'MPI_Barrier()'
p1710
S'353'
p1711
tp1712
a(S'MPI_Wtime()'
p1713
S'356'
p1714
tp1715
a(S'MPI_Barrier()'
p1716
S'362'
p1717
tp1718
a(S'MPI_Reduce()'
p1719
S'365'
p1720
tp1721
a(S'MPI_Reduce()'
p1722
S'367'
p1723
tp1724
a(S'MPI_Sendrecv()'
p1725
S'421'
p1726
tp1727
a(S'X_MPI_COMM_WORLD()'
p1728
S'423'
p1729
tp1730
a(S'MPI_Barrier()'
p1731
S'426'
p1732
tp1733
a(S'MPI_Barrier()'
p1734
S'428'
p1735
tp1736
a(S'MPI_Wtime()'
p1737
S'432'
p1738
tp1739
a(S'MPI_Wtime()'
p1740
S'443'
p1741
tp1742
a(S'MPI_Barrier()'
p1743
S'465'
p1744
tp1745
a(S'MPI_Wtime()'
p1746
S'468'
p1747
tp1748
a(S'MPI_Barrier()'
p1749
S'474'
p1750
tp1751
a(S'MPI_Reduce()'
p1752
S'477'
p1753
tp1754
asS'presta_HMPI//com_u.c.working.back'
p1755
(lp1756
(S'MPI_Init()'
p1757
S'125'
p1758
tp1759
a(S'MPI_Comm_size()'
p1760
S'127'
p1761
tp1762
a(S'MPI_Comm_rank()'
p1763
S'128'
p1764
tp1765
a(S'MPI_Finalize()'
p1766
S'138'
p1767
tp1768
a(S'MPI_Bcast()'
p1769
S'167'
p1770
tp1771
a(S'MPI_Barrier()'
p1772
S'194'
p1773
tp1774
a(S'MPI_Comm_free()'
p1775
S'237'
p1776
tp1777
a(S'MPI_Comm_free()'
p1778
S'281'
p1779
tp1780
a(S'MPI_Finalize()'
p1781
S'304'
p1782
tp1783
a(S'MPI_Barrier()'
p1784
S'370'
p1785
tp1786
a(S'MPI_Barrier()'
p1787
S'371'
p1788
tp1789
a(S'MPI_Wtime()'
p1790
S'378'
p1791
tp1792
a(S'MPI_Wtime()'
p1793
S'416'
p1794
tp1795
a(S'MPI_Wtime()'
p1796
S'458'
p1797
tp1798
a(S'MPI_Barrier()'
p1799
S'460'
p1800
tp1801
a(S'MPI_Barrier()'
p1802
S'461'
p1803
tp1804
a(S'MPI_Barrier()'
p1805
S'473'
p1806
tp1807
a(S'MPI_Reduce()'
p1808
S'478'
p1809
tp1810
a(S'MPI_Reduce()'
p1811
S'480'
p1812
tp1813
a(S'MPI_Barrier()'
p1814
S'563'
p1815
tp1816
a(S'MPI_Barrier()'
p1817
S'564'
p1818
tp1819
a(S'MPI_Wtime()'
p1820
S'571'
p1821
tp1822
a(S'MPI_Wtime()'
p1823
S'613'
p1824
tp1825
a(S'MPI_Wtime()'
p1826
S'659'
p1827
tp1828
a(S'MPI_Barrier()'
p1829
S'661'
p1830
tp1831
a(S'MPI_Barrier()'
p1832
S'662'
p1833
tp1834
a(S'MPI_Barrier()'
p1835
S'671'
p1836
tp1837
a(S'MPI_Reduce()'
p1838
S'674'
p1839
tp1840
asS'presta_HMPI//rma.c'
p1841
(lp1842
(S'MPI_Init()'
p1843
S'91'
p1844
tp1845
a(S'MPI_Comm_size()'
p1846
S'93'
p1847
tp1848
a(S'MPI_Comm_rank()'
p1849
S'94'
p1850
tp1851
a(S'MPI_Finalize()'
p1852
S'104'
p1853
tp1854
a(S'MPI_Finalize()'
p1855
S'150'
p1856
tp1857
a(S'MPI_Comm_group()'
p1858
S'188'
p1859
tp1860
a(S'MPI_Group_incl()'
p1861
S'198'
p1862
tp1863
a(S'MPI_Comm_create()'
p1864
S'199'
p1865
tp1866
a(S'MPI_Group_incl()'
p1867
S'206'
p1868
tp1869
a(S'MPI_Comm_create()'
p1870
S'207'
p1871
tp1872
a(S'MPI_Group_free()'
p1873
S'211'
p1874
tp1875
a(S'MPI_Group_free()'
p1876
S'212'
p1877
tp1878
a(S'MPI_Group_free()'
p1879
S'213'
p1880
tp1881
a(S'MPI_Errhandler_set()'
p1882
S'219'
p1883
tp1884
a(S'MPI_Alloc_mem()'
p1885
S'220'
p1886
tp1887
a(S'MPI_Error_string()'
p1888
S'227'
p1889
tp1890
a(S'MPI_Abort()'
p1891
S'233'
p1892
tp1893
a(S'MPI_Errhandler_set()'
p1894
S'236'
p1895
tp1896
a(S'MPI_Win_create()'
p1897
S'238'
p1898
tp1899
a(S'MPI_Recv()'
p1900
S'245'
p1901
tp1902
a(S'MPI_Send()'
p1903
S'247'
p1904
tp1905
a(S'MPI_Reduce()'
p1906
S'256'
p1907
tp1908
a(S'MPI_Win_free()'
p1909
S'280'
p1910
tp1911
a(S'MPI_Free_mem()'
p1912
S'281'
p1913
tp1914
a(S'MPI_Comm_free()'
p1915
S'282'
p1916
tp1917
a(S'MPI_Comm_free()'
p1918
S'283'
p1919
tp1920
a(S'MPI_Abort()'
p1921
S'308'
p1922
tp1923
a(S'MPI_Win_fence()'
p1924
S'314'
p1925
tp1926
a(S'MPI_Wtime()'
p1927
S'317'
p1928
tp1929
a(S'MPI_Put()'
p1930
S'328'
p1931
tp1932
a(S'MPI_Win_fence()'
p1933
S'333'
p1934
tp1935
a(S'MPI_Get()'
p1936
S'343'
p1937
tp1938
a(S'MPI_Win_fence()'
p1939
S'348'
p1940
tp1941
a(S'MPI_Put()'
p1942
S'356'
p1943
tp1944
a(S'MPI_Win_fence()'
p1945
S'360'
p1946
tp1947
a(S'MPI_Get()'
p1948
S'368'
p1949
tp1950
a(S'MPI_Win_fence()'
p1951
S'372'
p1952
tp1953
a(S'MPI_Wtime()'
p1954
S'380'
p1955
tp1956
asS'presta_HMPI//mod_com_u_openmp.c'
p1957
(lp1958
(S'MPI_Init()'
p1959
S'128'
p1960
tp1961
a(S'MPI_Comm_size()'
p1962
S'130'
p1963
tp1964
a(S'MPI_Comm_rank()'
p1965
S'131'
p1966
tp1967
a(S'MPI_Wtime()'
p1968
S'156'
p1969
tp1970
a(S'MPI_Wtime()'
p1971
S'161'
p1972
tp1973
a(S'MPI_Barrier()'
p1974
S'169'
p1975
tp1976
a(S'MPI_Finalize()'
p1977
S'171'
p1978
tp1979
a(S'MPI_Finalize()'
p1980
S'185'
p1981
tp1982
a(S'MPI_Bcast()'
p1983
S'214'
p1984
tp1985
a(S'MPI_Barrier()'
p1986
S'241'
p1987
tp1988
a(S'MPI_Comm_free()'
p1989
S'285'
p1990
tp1991
a(S'MPI_Comm_free()'
p1992
S'329'
p1993
tp1994
a(S'MPI_Finalize()'
p1995
S'352'
p1996
tp1997
a(S'MPI_Barrier()'
p1998
S'418'
p1999
tp2000
a(S'MPI_Barrier()'
p2001
S'419'
p2002
tp2003
a(S'MPI_Wtime()'
p2004
S'433'
p2005
tp2006
a(S'MPI_Wtime()'
p2007
S'458'
p2008
tp2009
a(S'MPI_Wtime()'
p2010
S'488'
p2011
tp2012
a(S'MPI_Barrier()'
p2013
S'490'
p2014
tp2015
a(S'MPI_Barrier()'
p2016
S'491'
p2017
tp2018
a(S'MPI_Barrier()'
p2019
S'503'
p2020
tp2021
a(S'MPI_Reduce()'
p2022
S'508'
p2023
tp2024
a(S'MPI_Reduce()'
p2025
S'510'
p2026
tp2027
a(S'MPI_Barrier()'
p2028
S'593'
p2029
tp2030
a(S'MPI_Barrier()'
p2031
S'594'
p2032
tp2033
a(S'MPI_Wtime()'
p2034
S'601'
p2035
tp2036
a(S'MPI_Wtime()'
p2037
S'643'
p2038
tp2039
a(S'MPI_Wtime()'
p2040
S'689'
p2041
tp2042
a(S'MPI_Barrier()'
p2043
S'691'
p2044
tp2045
a(S'MPI_Barrier()'
p2046
S'692'
p2047
tp2048
a(S'MPI_Barrier()'
p2049
S'701'
p2050
tp2051
a(S'MPI_Reduce()'
p2052
S'704'
p2053
tp2054
asS'presta_HMPI//com.c'
p2055
(lp2056
(S'MPI_Init()'
p2057
S'103'
p2058
tp2059
a(S'MPI_Comm_size()'
p2060
S'105'
p2061
tp2062
a(S'MPI_Comm_rank()'
p2063
S'106'
p2064
tp2065
a(S'MPI_Finalize()'
p2066
S'116'
p2067
tp2068
a(S'MPI_Comm_free()'
p2069
S'172'
p2070
tp2071
a(S'MPI_Comm_free()'
p2072
S'216'
p2073
tp2074
a(S'MPI_Finalize()'
p2075
S'237'
p2076
tp2077
a(S'MPI_Send()'
p2078
S'267'
p2079
tp2080
a(S'MPI_Recv()'
p2081
S'270'
p2082
tp2083
a(S'X_MPI_COMM_WORLD()'
p2084
S'271'
p2085
tp2086
a(S'MPI_Barrier()'
p2087
S'276'
p2088
tp2089
a(S'MPI_Barrier()'
p2090
S'277'
p2091
tp2092
a(S'MPI_Wtime()'
p2093
S'282'
p2094
tp2095
a(S'MPI_Send()'
p2096
S'284'
p2097
tp2098
a(S'MPI_Wtime()'
p2099
S'288'
p2100
tp2101
a(S'MPI_Recv()'
p2102
S'291'
p2103
tp2104
a(S'X_MPI_COMM_WORLD()'
p2105
S'292'
p2106
tp2107
a(S'MPI_Barrier()'
p2108
S'297'
p2109
tp2110
a(S'MPI_Wtime()'
p2111
S'300'
p2112
tp2113
a(S'MPI_Barrier()'
p2114
S'305'
p2115
tp2116
a(S'MPI_Reduce()'
p2117
S'308'
p2118
tp2119
a(S'MPI_Sendrecv()'
p2120
S'361'
p2121
tp2122
a(S'X_MPI_COMM_WORLD()'
p2123
S'363'
p2124
tp2125
a(S'MPI_Barrier()'
p2126
S'366'
p2127
tp2128
a(S'MPI_Barrier()'
p2129
S'368'
p2130
tp2131
a(S'MPI_Wtime()'
p2132
S'371'
p2133
tp2134
a(S'MPI_Sendrecv()'
p2135
S'375'
p2136
tp2137
a(S'X_MPI_COMM_WORLD()'
p2138
S'377'
p2139
tp2140
a(S'MPI_Barrier()'
p2141
S'381'
p2142
tp2143
a(S'MPI_Wtime()'
p2144
S'384'
p2145
tp2146
a(S'MPI_Barrier()'
p2147
S'390'
p2148
tp2149
a(S'MPI_Reduce()'
p2150
S'393'
p2151
tp2152
asS'presta_HMPI//com.c.orig'
p2153
(lp2154
(S'MPI_Init()'
p2155
S'103'
p2156
tp2157
a(S'MPI_Comm_size()'
p2158
S'105'
p2159
tp2160
a(S'MPI_Comm_rank()'
p2161
S'106'
p2162
tp2163
a(S'MPI_Finalize()'
p2164
S'116'
p2165
tp2166
a(S'MPI_Comm_free()'
p2167
S'172'
p2168
tp2169
a(S'MPI_Comm_free()'
p2170
S'216'
p2171
tp2172
a(S'MPI_Finalize()'
p2173
S'237'
p2174
tp2175
a(S'MPI_Send()'
p2176
S'267'
p2177
tp2178
a(S'MPI_Recv()'
p2179
S'270'
p2180
tp2181
a(S'X_MPI_COMM_WORLD()'
p2182
S'271'
p2183
tp2184
a(S'MPI_Wtime()'
p2185
S'280'
p2186
tp2187
a(S'MPI_Send()'
p2188
S'282'
p2189
tp2190
a(S'MPI_Wtime()'
p2191
S'286'
p2192
tp2193
a(S'MPI_Recv()'
p2194
S'289'
p2195
tp2196
a(S'X_MPI_COMM_WORLD()'
p2197
S'290'
p2198
tp2199
a(S'MPI_Wtime()'
p2200
S'297'
p2201
tp2202
a(S'MPI_Barrier()'
p2203
S'302'
p2204
tp2205
a(S'MPI_Reduce()'
p2206
S'305'
p2207
tp2208
a(S'MPI_Sendrecv()'
p2209
S'358'
p2210
tp2211
a(S'X_MPI_COMM_WORLD()'
p2212
S'360'
p2213
tp2214
a(S'MPI_Wtime()'
p2215
S'366'
p2216
tp2217
a(S'MPI_Sendrecv()'
p2218
S'370'
p2219
tp2220
a(S'X_MPI_COMM_WORLD()'
p2221
S'372'
p2222
tp2223
a(S'MPI_Wtime()'
p2224
S'378'
p2225
tp2226
a(S'MPI_Barrier()'
p2227
S'384'
p2228
tp2229
a(S'MPI_Reduce()'
p2230
S'387'
p2231
tp2232
asS'presta_HMPI//test.c'
p2233
(lp2234
(S'MPI_Init()'
p2235
S'38'
p2236
tp2237
a(S'MPI_Wtime()'
p2238
S'61'
p2239
tp2240
a(S'MPI_Wtime()'
p2241
S'68'
p2242
tp2243
asS'presta_HMPI//com_u_sync.c'
p2244
(lp2245
(S'MPI_Init()'
p2246
S'123'
p2247
tp2248
a(S'MPI_Comm_size()'
p2249
S'125'
p2250
tp2251
a(S'MPI_Comm_rank()'
p2252
S'126'
p2253
tp2254
a(S'MPI_Finalize()'
p2255
S'136'
p2256
tp2257
a(S'MPI_Bcast()'
p2258
S'165'
p2259
tp2260
a(S'MPI_Barrier()'
p2261
S'192'
p2262
tp2263
a(S'MPI_Comm_free()'
p2264
S'232'
p2265
tp2266
a(S'MPI_Comm_free()'
p2267
S'276'
p2268
tp2269
a(S'MPI_Finalize()'
p2270
S'299'
p2271
tp2272
a(S'MPI_Send()'
p2273
S'354'
p2274
tp2275
a(S'MPI_Recv()'
p2276
S'357'
p2277
tp2278
a(S'X_MPI_COMM_WORLD()'
p2279
S'358'
p2280
tp2281
a(S'MPI_Barrier()'
p2282
S'363'
p2283
tp2284
a(S'MPI_Barrier()'
p2285
S'364'
p2286
tp2287
a(S'MPI_Wtime()'
p2288
S'370'
p2289
tp2290
a(S'MPI_Wtime()'
p2291
S'415'
p2292
tp2293
a(S'MPI_Barrier()'
p2294
S'465'
p2295
tp2296
a(S'MPI_Wtime()'
p2297
S'468'
p2298
tp2299
a(S'MPI_Barrier()'
p2300
S'477'
p2301
tp2302
a(S'MPI_Reduce()'
p2303
S'480'
p2304
tp2305
a(S'MPI_Sendrecv()'
p2306
S'534'
p2307
tp2308
a(S'X_MPI_COMM_WORLD()'
p2309
S'536'
p2310
tp2311
a(S'MPI_Barrier()'
p2312
S'539'
p2313
tp2314
a(S'MPI_Barrier()'
p2315
S'541'
p2316
tp2317
a(S'MPI_Wtime()'
p2318
S'545'
p2319
tp2320
a(S'MPI_Wtime()'
p2321
S'556'
p2322
tp2323
a(S'MPI_Barrier()'
p2324
S'578'
p2325
tp2326
a(S'MPI_Wtime()'
p2327
S'581'
p2328
tp2329
a(S'MPI_Barrier()'
p2330
S'587'
p2331
tp2332
a(S'MPI_Reduce()'
p2333
S'590'
p2334
tp2335
as.