ccollections
defaultdict
p0
(c__builtin__
list
p1
tp2
Rp3
S'CUDA_2D_FFT/MPI_Version/src_c/utilities.c'
p4
(lp5
(S'MPI_Reduce()'
p6
S'40'
p7
tp8
a(S'MPI_Reduce()'
p9
S'41'
p10
tp11
a(S'MPI_Reduce()'
p12
S'42'
p13
tp14
a(S'MPI_Reduce()'
p15
S'43'
p16
tp17
a(S'MPI_Reduce()'
p18
S'45'
p19
tp20
a(S'MPI_Reduce()'
p21
S'46'
p22
tp23
a(S'MPI_Reduce()'
p24
S'47'
p25
tp26
a(S'MPI_Reduce()'
p27
S'48'
p28
tp29
a(S'MPI_Reduce()'
p30
S'50'
p31
tp32
a(S'MPI_Reduce()'
p33
S'51'
p34
tp35
a(S'MPI_Reduce()'
p36
S'52'
p37
tp38
a(S'MPI_Reduce()'
p39
S'53'
p40
tp41
asS'CUDA_2D_FFT/MPI_Version/src_c/fft.c'
p42
(lp43
(S'MPI_Comm_size()'
p44
S'20'
p45
tp46
a(S'MPI_Comm_rank()'
p47
S'21'
p48
tp49
a(S'MPI_Barrier()'
p50
S'91'
p51
tp52
a(S'MPI_Alltoall()'
p53
S'137'
p54
tp55
a(S'MPI_Alltoall()'
p56
S'263'
p57
tp58
asS'CUDA_2D_FFT/MPI_Version/src_c/main.c'
p59
(lp60
(S'MPI_Init()'
p61
S'29'
p62
tp63
a(S'MPI_Barrier()'
p64
S'30'
p65
tp66
a(S'MPI_Wtime()'
p67
S'31'
p68
tp69
a(S'MPI_Barrier()'
p70
S'37'
p71
tp72
a(S'MPI_Wtime()'
p73
S'38'
p74
tp75
a(S'MPI_Barrier()'
p76
S'43'
p77
tp78
a(S'MPI_Wtime()'
p79
S'44'
p80
tp81
a(S'MPI_Finalize()'
p82
S'53'
p83
tp84
as.