ccollections
defaultdict
p0
(c__builtin__
list
p1
tp2
Rp3
S'TSCC2015_MPI2//T2CP.cpp'
p4
(lp5
(S'MPI_Init()'
p6
S'48'
p7
tp8
a(S'MPI_Comm_size()'
p9
S'49'
p10
tp11
a(S'MPI_Comm_rank()'
p12
S'50'
p13
tp14
a(S'MPI_Send()'
p15
S'70'
p16
tp17
a(S'MPI_Send()'
p18
S'72'
p19
tp20
a(S'MPI_Send()'
p21
S'74'
p22
tp23
a(S'MPI_Recv()'
p24
S'83'
p25
tp26
a(S'MPI_Recv()'
p27
S'85'
p28
tp29
a(S'MPI_Recv()'
p30
S'87'
p31
tp32
a(S'MPI_Send()'
p33
S'101'
p34
tp35
a(S'MPI_Recv()'
p36
S'109'
p37
tp38
a(S'MPI_Finalize()'
p39
S'129'
p40
tp41
asS'TSCC2015_MPI2//Hello.cpp'
p42
(lp43
(S'MPI_Init()'
p44
S'7'
p45
tp46
a(S'MPI_Comm_rank()'
p47
S'8'
p48
tp49
a(S'MPI_Comm_size()'
p50
S'9'
p51
tp52
a(S'MPI_Finalize()'
p53
S'11'
p54
tp55
asS'TSCC2015_MPI2//T2DCP.cpp'
p56
(lp57
(S'MPI_Finalize()'
p58
S'36'
p59
tp60
a(S'MPI_Scatter()'
p61
S'46'
p62
tp63
a(S'MPI_Scatter()'
p64
S'51'
p65
tp66
a(S'MPI_Scatter()'
p67
S'56'
p68
tp69
a(S'MPI_Gather()'
p70
S'67'
p71
tp72
a(S'MPI_Reduce()'
p73
S'68'
p74
tp75
a(S'MPI_Finalize()'
p76
S'79'
p77
tp78
asS'TSCC2015_MPI2//pi.cpp'
p79
(lp80
(S'MPI_Init()'
p81
S'20'
p82
tp83
a(S'MPI_Comm_size()'
p84
S'21'
p85
tp86
a(S'MPI_Comm_rank()'
p87
S'22'
p88
tp89
a(S'MPI_Get_processor_name()'
p90
S'23'
p91
tp92
a(S'MPI_Wtime()'
p93
S'33'
p94
tp95
a(S'MPI_Bcast()'
p96
S'35'
p97
tp98
a(S'MPI_Reduce()'
p99
S'49'
p100
tp101
a(S'MPI_Wtime()'
p102
S'55'
p103
tp104
a(S'MPI_Finalize()'
p105
S'61'
p106
tp107
asS'TSCC2015_MPI2//T3CP.cpp'
p108
(lp109
(S'MPI_Init()'
p110
S'25'
p111
tp112
a(S'MPI_Comm_size()'
p113
S'26'
p114
tp115
a(S'MPI_Comm_rank()'
p116
S'27'
p117
tp118
a(S'MPI_Sendrecv()'
p119
S'85'
p120
tp121
a(S'MPI_Sendrecv()'
p122
S'88'
p123
tp124
a(S'MPI_Send()'
p125
S'102'
p126
tp127
a(S'MPI_Recv()'
p128
S'110'
p129
tp130
a(S'MPI_Allreduce()'
p131
S'113'
p132
tp133
a(S'MPI_Finalize()'
p134
S'124'
p135
tp136
asS'TSCC2015_MPI2//T3DCP_1.cpp'
p137
(lp138
(S'MPI_Init()'
p139
S'26'
p140
tp141
a(S'MPI_Comm_size()'
p142
S'27'
p143
tp144
a(S'MPI_Comm_rank()'
p145
S'28'
p146
tp147
a(S'MPI_Scatter()'
p148
S'56'
p149
tp150
a(S'MPI_Scatter()'
p151
S'59'
p152
tp153
a(S'MPI_Scatter()'
p154
S'65'
p155
tp156
a(S'MPI_Sendrecv()'
p157
S'70'
p158
tp159
a(S'MPI_Sendrecv()'
p160
S'73'
p161
tp162
a(S'MPI_Gather()'
p163
S'83'
p164
tp165
a(S'MPI_Allreduce()'
p166
S'84'
p167
tp168
a(S'MPI_Finalize()'
p169
S'95'
p170
tp171
as.