ccollections
defaultdict
p0
(c__builtin__
list
p1
tp2
Rp3
S'TestCpp/third/boost_1_60_0/boost/mpi/allocator.hpp'
p4
(lp5
(S'X_MPI_INFO_NULL()'
p6
S'141'
p7
tp8
asS'TestCpp/third/boost_1_60_0/boost/mpi/timer.hpp'
p9
(lp10
(S'MPI_Wtime()'
p11
S'71'
p12
tp13
asS'TestCpp/third/boost_1_60_0/boost/graph/distributed/detail/mpi_process_group.ipp'
p14
(lp15
(S'MPI_Recv()'
p16
S'492'
p17
tp18
a(S'MPI_Get_count()'
p19
S'510'
p20
tp21
a(S'MPI_Recv()'
p22
S'516'
p23
tp24
a(S'MPI_Irecv()'
p25
S'665'
p26
tp27
a(S'X_MPI_PACKED()'
p28
S'666'
p29
tp30
a(S'MPI_Allgather()'
p31
S'837'
p32
tp33
a(S'MPI_Allgatherv()'
p34
S'856'
p35
tp36
a(S'X_MPI_BYTE()'
p37
S'859'
p38
tp39
a(S'MPI_Comm_group()'
p40
S'880'
p41
tp42
a(S'MPI_Group_incl()'
p43
S'884'
p44
tp45
a(S'MPI_Comm_create()'
p46
S'888'
p47
tp48
a(S'MPI_Group_free()'
p49
S'891'
p50
tp51
a(S'MPI_Group_free()'
p52
S'893'
p53
tp54
a(S'MPI_Comm_free()'
p55
S'898'
p56
tp57
a(S'MPI_Irecv()'
p58
S'929'
p59
tp60
a(S'MPI_Test()'
p61
S'934'
p62
tp63
a(S'MPI_Get_count()'
p64
S'967'
p65
tp66
a(S'MPI_Recv()'
p67
S'972'
p68
tp69
asS'TestCpp/third/boost_1_60_0/boost/mpi/communicator.hpp'
p70
(lp71
(S'MPI_Comm()'
p72
S'1292'
p73
tp74
a(S'MPI_Comm()'
p75
S'1492'
p76
tp77
a(S'MPI_Comm()'
p78
S'1515'
p79
tp80
a(S'MPI_Comm()'
p81
S'1551'
p82
tp83
a(S'MPI_Comm()'
p84
S'1574'
p85
tp86
asS'TestCpp/third/boost_1_60_0/boost/graph/distributed/mpi_process_group.hpp'
p87
(lp88
(S'MPI_Bsend()'
p89
S'708'
p90
tp91
a(S'MPI_Isend()'
p92
S'714'
p93
tp94
a(S'MPI_Test()'
p95
S'720'
p96
tp97
a(S'MPI_Bsend()'
p98
S'744'
p99
tp100
a(S'MPI_Isend()'
p101
S'750'
p102
tp103
a(S'MPI_Test()'
p104
S'756'
p105
tp106
asS'TestCpp/third/boost_1_60_0/boost/graph/distributed/page_rank.hpp'
p107
(lp108
(S'MPI_Comm_rank()'
p109
S'40'
p110
tp111
a(S'MPI_Accumulate()'
p112
S'53'
p113
tp114
a(S'MPI_Win_fence()'
p115
S'60'
p116
tp117
a(S'MPI_Comm_rank()'
p118
S'90'
p119
tp120
a(S'MPI_Win_create()'
p121
S'115'
p122
tp123
a(S'X_MPI_INFO_NULL()'
p124
S'118'
p125
tp126
a(S'MPI_Win_set_name()'
p127
S'119'
p128
tp129
a(S'MPI_Win_create()'
p130
S'120'
p131
tp132
a(S'X_MPI_INFO_NULL()'
p133
S'123'
p134
tp135
a(S'MPI_Win_set_name()'
p136
S'124'
p137
tp138
a(S'MPI_Win_fence()'
p139
S'129'
p140
tp141
a(S'MPI_Win_fence()'
p142
S'130'
p143
tp144
a(S'MPI_Win_free()'
p145
S'144'
p146
tp147
a(S'MPI_Win_free()'
p148
S'145'
p149
tp150
asS'TestCpp/third/boost_1_60_0/boost/mpi/exception.hpp'
p151
(lp152
(S'MPI_Error_class()'
p153
S'73'
p154
tp155
asS'TestCpp/third/boost_1_60_0/boost/mpi/operations.hpp'
p156
(lp157
(S'MPI_Op_free()'
p158
S'293'
p159
tp160
asS'TestCpp/third/boost_1_60_0/boost/mpi/datatype.hpp'
p161
(lp162
(S'X_MPI_LONG_DOUBLE_INT()'
p163
S'250'
p164
tp165
a(S'MPI_Type_contiguous()'
p166
S'310'
p167
tp168
a(S'MPI_Type_commit()'
p169
S'311'
p170
tp171
as.