ccollections
defaultdict
p0
(c__builtin__
list
p1
tp2
Rp3
S'CredProv/dependencies/include/boost/mpi/timer.hpp'
p4
(lp5
(S'MPI_Wtime()'
p6
S'71'
p7
tp8
asS'CredProv/dependencies/include/boost/mpi/exception.hpp'
p9
(lp10
(S'MPI_Error_class()'
p11
S'73'
p12
tp13
asS'CredProv/dependencies/include/boost/graph/distributed/page_rank.hpp'
p14
(lp15
(S'MPI_Comm_rank()'
p16
S'40'
p17
tp18
a(S'MPI_Accumulate()'
p19
S'53'
p20
tp21
a(S'MPI_Win_fence()'
p22
S'60'
p23
tp24
a(S'MPI_Comm_rank()'
p25
S'90'
p26
tp27
a(S'MPI_Win_create()'
p28
S'115'
p29
tp30
a(S'X_MPI_INFO_NULL()'
p31
S'118'
p32
tp33
a(S'MPI_Win_set_name()'
p34
S'119'
p35
tp36
a(S'MPI_Win_create()'
p37
S'120'
p38
tp39
a(S'X_MPI_INFO_NULL()'
p40
S'123'
p41
tp42
a(S'MPI_Win_set_name()'
p43
S'124'
p44
tp45
a(S'MPI_Win_fence()'
p46
S'129'
p47
tp48
a(S'MPI_Win_fence()'
p49
S'130'
p50
tp51
a(S'MPI_Win_free()'
p52
S'144'
p53
tp54
a(S'MPI_Win_free()'
p55
S'145'
p56
tp57
asS'CredProv/dependencies/include/boost/graph/distributed/detail/mpi_process_group.ipp'
p58
(lp59
(S'MPI_Recv()'
p60
S'493'
p61
tp62
a(S'MPI_Get_count()'
p63
S'511'
p64
tp65
a(S'MPI_Recv()'
p66
S'517'
p67
tp68
a(S'MPI_Irecv()'
p69
S'666'
p70
tp71
a(S'X_MPI_PACKED()'
p72
S'667'
p73
tp74
a(S'MPI_Allgather()'
p75
S'838'
p76
tp77
a(S'MPI_Allgatherv()'
p78
S'857'
p79
tp80
a(S'X_MPI_BYTE()'
p81
S'860'
p82
tp83
a(S'MPI_Comm_group()'
p84
S'881'
p85
tp86
a(S'MPI_Group_incl()'
p87
S'885'
p88
tp89
a(S'MPI_Comm_create()'
p90
S'889'
p91
tp92
a(S'MPI_Group_free()'
p93
S'892'
p94
tp95
a(S'MPI_Group_free()'
p96
S'894'
p97
tp98
a(S'MPI_Comm_free()'
p99
S'899'
p100
tp101
a(S'MPI_Irecv()'
p102
S'930'
p103
tp104
a(S'MPI_Test()'
p105
S'935'
p106
tp107
a(S'MPI_Get_count()'
p108
S'968'
p109
tp110
a(S'MPI_Recv()'
p111
S'973'
p112
tp113
asS'CredProv/dependencies/include/boost/mpi/operations.hpp'
p114
(lp115
(S'MPI_Op_free()'
p116
S'293'
p117
tp118
asS'CredProv/dependencies/include/boost/mpi/communicator.hpp'
p119
(lp120
(S'MPI_Comm()'
p121
S'1366'
p122
tp123
a(S'MPI_Comm()'
p124
S'1566'
p125
tp126
a(S'MPI_Comm()'
p127
S'1589'
p128
tp129
a(S'MPI_Comm()'
p130
S'1625'
p131
tp132
a(S'MPI_Comm()'
p133
S'1648'
p134
tp135
asS'CredProv/dependencies/include/boost/mpi/datatype.hpp'
p136
(lp137
(S'X_MPI_LONG_DOUBLE_INT()'
p138
S'254'
p139
tp140
a(S'MPI_Type_contiguous()'
p141
S'323'
p142
tp143
a(S'MPI_Type_commit()'
p144
S'324'
p145
tp146
asS'CredProv/dependencies/include/boost/mpi/allocator.hpp'
p147
(lp148
(S'X_MPI_INFO_NULL()'
p149
S'141'
p150
tp151
asS'CredProv/dependencies/include/boost/graph/distributed/mpi_process_group.hpp'
p152
(lp153
(S'MPI_Bsend()'
p154
S'709'
p155
tp156
a(S'MPI_Isend()'
p157
S'715'
p158
tp159
a(S'MPI_Test()'
p160
S'721'
p161
tp162
a(S'MPI_Bsend()'
p163
S'745'
p164
tp165
a(S'MPI_Isend()'
p166
S'751'
p167
tp168
a(S'MPI_Test()'
p169
S'757'
p170
tp171
as.