ccollections
defaultdict
p0
(c__builtin__
list
p1
tp2
Rp3
S'easyrpg-player-3ds/lib/boost/mpi/operations.hpp'
p4
(lp5
(S'MPI_Op_free()'
p6
S'293'
p7
tp8
asS'easyrpg-player-3ds/lib/boost/mpi/datatype.hpp'
p9
(lp10
(S'X_MPI_LONG_DOUBLE_INT()'
p11
S'250'
p12
tp13
a(S'MPI_Type_contiguous()'
p14
S'310'
p15
tp16
a(S'MPI_Type_commit()'
p17
S'311'
p18
tp19
asS'easyrpg-player-3ds/lib/boost/graph/distributed/page_rank.hpp'
p20
(lp21
(S'MPI_Comm_rank()'
p22
S'40'
p23
tp24
a(S'MPI_Accumulate()'
p25
S'53'
p26
tp27
a(S'MPI_Win_fence()'
p28
S'60'
p29
tp30
a(S'MPI_Comm_rank()'
p31
S'90'
p32
tp33
a(S'MPI_Win_create()'
p34
S'115'
p35
tp36
a(S'X_MPI_INFO_NULL()'
p37
S'118'
p38
tp39
a(S'MPI_Win_set_name()'
p40
S'119'
p41
tp42
a(S'MPI_Win_create()'
p43
S'120'
p44
tp45
a(S'X_MPI_INFO_NULL()'
p46
S'123'
p47
tp48
a(S'MPI_Win_set_name()'
p49
S'124'
p50
tp51
a(S'MPI_Win_fence()'
p52
S'129'
p53
tp54
a(S'MPI_Win_fence()'
p55
S'130'
p56
tp57
a(S'MPI_Win_free()'
p58
S'144'
p59
tp60
a(S'MPI_Win_free()'
p61
S'145'
p62
tp63
asS'easyrpg-player-3ds/lib/boost/mpi/exception.hpp'
p64
(lp65
(S'MPI_Error_class()'
p66
S'73'
p67
tp68
asS'easyrpg-player-3ds/lib/boost/mpi/timer.hpp'
p69
(lp70
(S'MPI_Wtime()'
p71
S'71'
p72
tp73
asS'easyrpg-player-3ds/lib/boost/mpi/communicator.hpp'
p74
(lp75
(S'MPI_Comm()'
p76
S'1292'
p77
tp78
a(S'MPI_Comm()'
p79
S'1492'
p80
tp81
a(S'MPI_Comm()'
p82
S'1515'
p83
tp84
a(S'MPI_Comm()'
p85
S'1551'
p86
tp87
a(S'MPI_Comm()'
p88
S'1574'
p89
tp90
asS'easyrpg-player-3ds/lib/boost/graph/distributed/mpi_process_group.hpp'
p91
(lp92
(S'MPI_Bsend()'
p93
S'708'
p94
tp95
a(S'MPI_Isend()'
p96
S'714'
p97
tp98
a(S'MPI_Test()'
p99
S'720'
p100
tp101
a(S'MPI_Bsend()'
p102
S'744'
p103
tp104
a(S'MPI_Isend()'
p105
S'750'
p106
tp107
a(S'MPI_Test()'
p108
S'756'
p109
tp110
asS'easyrpg-player-3ds/lib/boost/mpi/allocator.hpp'
p111
(lp112
(S'X_MPI_INFO_NULL()'
p113
S'141'
p114
tp115
asS'easyrpg-player-3ds/lib/boost/graph/distributed/detail/mpi_process_group.ipp'
p116
(lp117
(S'MPI_Recv()'
p118
S'492'
p119
tp120
a(S'MPI_Get_count()'
p121
S'510'
p122
tp123
a(S'MPI_Recv()'
p124
S'516'
p125
tp126
a(S'MPI_Irecv()'
p127
S'665'
p128
tp129
a(S'X_MPI_PACKED()'
p130
S'666'
p131
tp132
a(S'MPI_Allgather()'
p133
S'837'
p134
tp135
a(S'MPI_Allgatherv()'
p136
S'856'
p137
tp138
a(S'X_MPI_BYTE()'
p139
S'859'
p140
tp141
a(S'MPI_Comm_group()'
p142
S'880'
p143
tp144
a(S'MPI_Group_incl()'
p145
S'884'
p146
tp147
a(S'MPI_Comm_create()'
p148
S'888'
p149
tp150
a(S'MPI_Group_free()'
p151
S'891'
p152
tp153
a(S'MPI_Group_free()'
p154
S'893'
p155
tp156
a(S'MPI_Comm_free()'
p157
S'898'
p158
tp159
a(S'MPI_Irecv()'
p160
S'929'
p161
tp162
a(S'MPI_Test()'
p163
S'934'
p164
tp165
a(S'MPI_Get_count()'
p166
S'967'
p167
tp168
a(S'MPI_Recv()'
p169
S'972'
p170
tp171
as.