ccollections
defaultdict
p0
(c__builtin__
list
p1
tp2
Rp3
S'OPP/sem1/lab6/main.c'
p4
(lp5
(S'MPI_Init()'
p6
S'20'
p7
tp8
a(S'MPI_Comm_rank()'
p9
S'21'
p10
tp11
a(S'MPI_Finalize()'
p12
S'87'
p13
tp14
asS'OPP/sem2/lab7/main.c'
p15
(lp16
(S'MPI_Init()'
p17
S'26'
p18
tp19
a(S'MPI_Comm_rank()'
p20
S'27'
p21
tp22
a(S'MPI_Graph_create()'
p23
S'30'
p24
tp25
a(S'MPI_Bcast()'
p26
S'40'
p27
tp28
a(S'MPI_Scatter()'
p29
S'41'
p30
tp31
a(S'MPI_Allreduce()'
p32
S'43'
p33
tp34
a(S'MPI_Bcast()'
p35
S'44'
p36
tp37
a(S'MPI_Bcast()'
p38
S'45'
p39
tp40
a(S'MPI_Scatter()'
p41
S'46'
p42
tp43
a(S'MPI_Recv()'
p44
S'47'
p45
tp46
a(S'MPI_Gather()'
p47
S'49'
p48
tp49
a(S'MPI_Graph_create()'
p50
S'54'
p51
tp52
a(S'MPI_Bcast()'
p53
S'65'
p54
tp55
a(S'MPI_Scatter()'
p56
S'66'
p57
tp58
a(S'MPI_Allreduce()'
p59
S'68'
p60
tp61
a(S'MPI_Bcast()'
p62
S'69'
p63
tp64
a(S'MPI_Bcast()'
p65
S'70'
p66
tp67
a(S'MPI_Scatter()'
p68
S'71'
p69
tp70
a(S'MPI_Recv()'
p71
S'72'
p72
tp73
a(S'MPI_Gather()'
p74
S'74'
p75
tp76
a(S'MPI_Graph_create()'
p77
S'79'
p78
tp79
a(S'MPI_Bcast()'
p80
S'89'
p81
tp82
a(S'MPI_Scatter()'
p83
S'90'
p84
tp85
a(S'MPI_Allreduce()'
p86
S'92'
p87
tp88
a(S'MPI_Bcast()'
p89
S'93'
p90
tp91
a(S'MPI_Bcast()'
p92
S'94'
p93
tp94
a(S'MPI_Scatter()'
p95
S'95'
p96
tp97
a(S'MPI_Recv()'
p98
S'96'
p99
tp100
a(S'MPI_Gather()'
p101
S'98'
p102
tp103
a(S'MPI_Graph_create()'
p104
S'107'
p105
tp106
a(S'MPI_Bcast()'
p107
S'118'
p108
tp109
a(S'MPI_Scatter()'
p110
S'119'
p111
tp112
a(S'MPI_Allreduce()'
p113
S'121'
p114
tp115
a(S'MPI_Bcast()'
p116
S'122'
p117
tp118
a(S'MPI_Bcast()'
p119
S'123'
p120
tp121
a(S'MPI_Scatter()'
p122
S'124'
p123
tp124
a(S'MPI_Send()'
p125
S'125'
p126
tp127
a(S'MPI_Send()'
p128
S'126'
p129
tp130
a(S'MPI_Send()'
p131
S'127'
p132
tp133
a(S'MPI_Gather()'
p134
S'129'
p135
tp136
a(S'MPI_Finalize()'
p137
S'131'
p138
tp139
as.