ccollections
defaultdict
p0
(c__builtin__
list
p1
tp2
Rp3
S'otclient-sdk/boost_1_63_0/boost/mpi/datatype.hpp'
p4
(lp5
(S'X_MPI_LONG_DOUBLE_INT()'
p6
S'254'
p7
tp8
a(S'MPI_Type_contiguous()'
p9
S'323'
p10
tp11
a(S'MPI_Type_commit()'
p12
S'324'
p13
tp14
asS'otclient-sdk/boost_1_63_0/boost/mpi/allocator.hpp'
p15
(lp16
(S'X_MPI_INFO_NULL()'
p17
S'141'
p18
tp19
asS'otclient-sdk/boost_1_63_0/boost/graph/distributed/page_rank.hpp'
p20
(lp21
(S'MPI_Comm_rank()'
p22
S'40'
p23
tp24
a(S'MPI_Accumulate()'
p25
S'53'
p26
tp27
a(S'MPI_Win_fence()'
p28
S'60'
p29
tp30
a(S'MPI_Comm_rank()'
p31
S'90'
p32
tp33
a(S'MPI_Win_create()'
p34
S'115'
p35
tp36
a(S'X_MPI_INFO_NULL()'
p37
S'118'
p38
tp39
a(S'MPI_Win_set_name()'
p40
S'119'
p41
tp42
a(S'MPI_Win_create()'
p43
S'120'
p44
tp45
a(S'X_MPI_INFO_NULL()'
p46
S'123'
p47
tp48
a(S'MPI_Win_set_name()'
p49
S'124'
p50
tp51
a(S'MPI_Win_fence()'
p52
S'129'
p53
tp54
a(S'MPI_Win_fence()'
p55
S'130'
p56
tp57
a(S'MPI_Win_free()'
p58
S'144'
p59
tp60
a(S'MPI_Win_free()'
p61
S'145'
p62
tp63
asS'otclient-sdk/boost_1_63_0/boost/graph/distributed/detail/mpi_process_group.ipp'
p64
(lp65
(S'MPI_Recv()'
p66
S'493'
p67
tp68
a(S'MPI_Get_count()'
p69
S'511'
p70
tp71
a(S'MPI_Recv()'
p72
S'517'
p73
tp74
a(S'MPI_Irecv()'
p75
S'666'
p76
tp77
a(S'X_MPI_PACKED()'
p78
S'667'
p79
tp80
a(S'MPI_Allgather()'
p81
S'838'
p82
tp83
a(S'MPI_Allgatherv()'
p84
S'857'
p85
tp86
a(S'X_MPI_BYTE()'
p87
S'860'
p88
tp89
a(S'MPI_Comm_group()'
p90
S'881'
p91
tp92
a(S'MPI_Group_incl()'
p93
S'885'
p94
tp95
a(S'MPI_Comm_create()'
p96
S'889'
p97
tp98
a(S'MPI_Group_free()'
p99
S'892'
p100
tp101
a(S'MPI_Group_free()'
p102
S'894'
p103
tp104
a(S'MPI_Comm_free()'
p105
S'899'
p106
tp107
a(S'MPI_Irecv()'
p108
S'930'
p109
tp110
a(S'MPI_Test()'
p111
S'935'
p112
tp113
a(S'MPI_Get_count()'
p114
S'968'
p115
tp116
a(S'MPI_Recv()'
p117
S'973'
p118
tp119
asS'otclient-sdk/boost_1_63_0/boost/mpi/operations.hpp'
p120
(lp121
(S'MPI_Op_free()'
p122
S'293'
p123
tp124
asS'otclient-sdk/boost_1_63_0/boost/mpi/communicator.hpp'
p125
(lp126
(S'MPI_Comm()'
p127
S'1366'
p128
tp129
a(S'MPI_Comm()'
p130
S'1566'
p131
tp132
a(S'MPI_Comm()'
p133
S'1589'
p134
tp135
a(S'MPI_Comm()'
p136
S'1625'
p137
tp138
a(S'MPI_Comm()'
p139
S'1648'
p140
tp141
asS'otclient-sdk/boost_1_63_0/boost/mpi/exception.hpp'
p142
(lp143
(S'MPI_Error_class()'
p144
S'73'
p145
tp146
asS'otclient-sdk/boost_1_63_0/boost/mpi/timer.hpp'
p147
(lp148
(S'MPI_Wtime()'
p149
S'71'
p150
tp151
asS'otclient-sdk/boost_1_63_0/boost/graph/distributed/mpi_process_group.hpp'
p152
(lp153
(S'MPI_Bsend()'
p154
S'709'
p155
tp156
a(S'MPI_Isend()'
p157
S'715'
p158
tp159
a(S'MPI_Test()'
p160
S'721'
p161
tp162
a(S'MPI_Bsend()'
p163
S'745'
p164
tp165
a(S'MPI_Isend()'
p166
S'751'
p167
tp168
a(S'MPI_Test()'
p169
S'757'
p170
tp171
as.