ccollections
defaultdict
p0
(c__builtin__
list
p1
tp2
Rp3
S'Android-VINS/app/src/main/cpp/include/boost-1.49/boost/mpi/operations.hpp'
p4
(lp5
(S'MPI_Op_free()'
p6
S'293'
p7
tp8
asS'Android-VINS/app/src/main/cpp/include/boost-1.49/boost/graph/distributed/detail/mpi_process_group.ipp'
p9
(lp10
(S'MPI_Recv()'
p11
S'492'
p12
tp13
a(S'MPI_Get_count()'
p14
S'510'
p15
tp16
a(S'MPI_Recv()'
p17
S'516'
p18
tp19
a(S'MPI_Irecv()'
p20
S'665'
p21
tp22
a(S'X_MPI_PACKED()'
p23
S'666'
p24
tp25
a(S'MPI_Allgather()'
p26
S'837'
p27
tp28
a(S'MPI_Allgatherv()'
p29
S'856'
p30
tp31
a(S'X_MPI_BYTE()'
p32
S'859'
p33
tp34
a(S'MPI_Comm_group()'
p35
S'880'
p36
tp37
a(S'MPI_Group_incl()'
p38
S'884'
p39
tp40
a(S'MPI_Comm_create()'
p41
S'888'
p42
tp43
a(S'MPI_Group_free()'
p44
S'891'
p45
tp46
a(S'MPI_Group_free()'
p47
S'893'
p48
tp49
a(S'MPI_Comm_free()'
p50
S'898'
p51
tp52
a(S'MPI_Irecv()'
p53
S'929'
p54
tp55
a(S'MPI_Test()'
p56
S'934'
p57
tp58
a(S'MPI_Get_count()'
p59
S'967'
p60
tp61
a(S'MPI_Recv()'
p62
S'972'
p63
tp64
asS'Android-VINS/app/src/main/cpp/include/boost-1.49/boost/mpi/exception.hpp'
p65
(lp66
(S'MPI_Error_class()'
p67
S'73'
p68
tp69
asS'Android-VINS/app/src/main/cpp/include/boost-1.49/boost/mpi/datatype.hpp'
p70
(lp71
(S'X_MPI_LONG_DOUBLE_INT()'
p72
S'250'
p73
tp74
a(S'MPI_Type_contiguous()'
p75
S'310'
p76
tp77
a(S'MPI_Type_commit()'
p78
S'311'
p79
tp80
asS'Android-VINS/app/src/main/cpp/include/opencv/opencv2/flann/hdf5.h'
p81
(lp82
(S'MPI_Comm_size()'
p83
S'175'
p84
tp85
a(S'MPI_Comm_rank()'
p86
S'176'
p87
tp88
asS'Android-VINS/app/src/main/cpp/include/boost-1.49/boost/mpi/communicator.hpp'
p89
(lp90
(S'MPI_Comm()'
p91
S'1425'
p92
tp93
a(S'MPI_Comm()'
p94
S'1448'
p95
tp96
a(S'MPI_Comm()'
p97
S'1484'
p98
tp99
a(S'MPI_Comm()'
p100
S'1507'
p101
tp102
asS'Android-VINS/app/src/main/cpp/include/boost-1.49/boost/mpi/allocator.hpp'
p103
(lp104
(S'X_MPI_INFO_NULL()'
p105
S'141'
p106
tp107
asS'Android-VINS/app/src/main/cpp/include/boost-1.49/boost/graph/distributed/page_rank.hpp'
p108
(lp109
(S'MPI_Comm_rank()'
p110
S'40'
p111
tp112
a(S'MPI_Accumulate()'
p113
S'53'
p114
tp115
a(S'MPI_Win_fence()'
p116
S'60'
p117
tp118
a(S'MPI_Comm_rank()'
p119
S'90'
p120
tp121
a(S'MPI_Win_create()'
p122
S'116'
p123
tp124
a(S'X_MPI_INFO_NULL()'
p125
S'119'
p126
tp127
a(S'MPI_Win_set_name()'
p128
S'120'
p129
tp130
a(S'MPI_Win_create()'
p131
S'121'
p132
tp133
a(S'X_MPI_INFO_NULL()'
p134
S'124'
p135
tp136
a(S'MPI_Win_set_name()'
p137
S'125'
p138
tp139
a(S'MPI_Win_fence()'
p140
S'130'
p141
tp142
a(S'MPI_Win_fence()'
p143
S'131'
p144
tp145
a(S'MPI_Win_free()'
p146
S'145'
p147
tp148
a(S'MPI_Win_free()'
p149
S'146'
p150
tp151
asS'Android-VINS/app/src/main/cpp/include/boost-1.49/boost/mpi/timer.hpp'
p152
(lp153
(S'MPI_Wtime()'
p154
S'71'
p155
tp156
asS'Android-VINS/app/src/main/cpp/include/boost-1.49/boost/graph/distributed/mpi_process_group.hpp'
p157
(lp158
(S'MPI_Bsend()'
p159
S'708'
p160
tp161
a(S'MPI_Isend()'
p162
S'714'
p163
tp164
a(S'MPI_Test()'
p165
S'720'
p166
tp167
a(S'MPI_Bsend()'
p168
S'744'
p169
tp170
a(S'MPI_Isend()'
p171
S'750'
p172
tp173
a(S'MPI_Test()'
p174
S'756'
p175
tp176
as.