ccollections
defaultdict
p0
(c__builtin__
list
p1
tp2
Rp3
S'winlibs/boost/includes/boost/mpi/communicator.hpp'
p4
(lp5
(S'MPI_Comm()'
p6
S'1425'
p7
tp8
a(S'MPI_Comm()'
p9
S'1448'
p10
tp11
a(S'MPI_Comm()'
p12
S'1484'
p13
tp14
a(S'MPI_Comm()'
p15
S'1507'
p16
tp17
asS'winlibs/boost/includes/boost/graph/distributed/mpi_process_group.hpp'
p18
(lp19
(S'MPI_Bsend()'
p20
S'708'
p21
tp22
a(S'MPI_Isend()'
p23
S'714'
p24
tp25
a(S'MPI_Test()'
p26
S'720'
p27
tp28
a(S'MPI_Bsend()'
p29
S'744'
p30
tp31
a(S'MPI_Isend()'
p32
S'750'
p33
tp34
a(S'MPI_Test()'
p35
S'756'
p36
tp37
asS'winlibs/boost/includes/boost/mpi/operations.hpp'
p38
(lp39
(S'MPI_Op_free()'
p40
S'293'
p41
tp42
asS'winlibs/boost/includes/boost/graph/distributed/page_rank.hpp'
p43
(lp44
(S'MPI_Comm_rank()'
p45
S'40'
p46
tp47
a(S'MPI_Accumulate()'
p48
S'53'
p49
tp50
a(S'MPI_Win_fence()'
p51
S'60'
p52
tp53
a(S'MPI_Comm_rank()'
p54
S'90'
p55
tp56
a(S'MPI_Win_create()'
p57
S'117'
p58
tp59
a(S'X_MPI_INFO_NULL()'
p60
S'120'
p61
tp62
a(S'MPI_Win_set_name()'
p63
S'121'
p64
tp65
a(S'MPI_Win_create()'
p66
S'122'
p67
tp68
a(S'X_MPI_INFO_NULL()'
p69
S'125'
p70
tp71
a(S'MPI_Win_set_name()'
p72
S'126'
p73
tp74
a(S'MPI_Win_fence()'
p75
S'131'
p76
tp77
a(S'MPI_Win_fence()'
p78
S'132'
p79
tp80
a(S'MPI_Win_free()'
p81
S'146'
p82
tp83
a(S'MPI_Win_free()'
p84
S'147'
p85
tp86
asS'winlibs/boost/includes/boost/mpi/timer.hpp'
p87
(lp88
(S'MPI_Wtime()'
p89
S'71'
p90
tp91
asS'winlibs/boost/includes/boost/mpi/allocator.hpp'
p92
(lp93
(S'X_MPI_INFO_NULL()'
p94
S'141'
p95
tp96
asS'winlibs/boost/includes/boost/mpi/datatype.hpp'
p97
(lp98
(S'X_MPI_LONG_DOUBLE_INT()'
p99
S'250'
p100
tp101
a(S'MPI_Type_contiguous()'
p102
S'310'
p103
tp104
a(S'MPI_Type_commit()'
p105
S'311'
p106
tp107
asS'winlibs/boost/includes/boost/mpi/exception.hpp'
p108
(lp109
(S'MPI_Error_class()'
p110
S'73'
p111
tp112
asS'winlibs/boost/includes/boost/graph/distributed/detail/mpi_process_group.ipp'
p113
(lp114
(S'MPI_Recv()'
p115
S'492'
p116
tp117
a(S'MPI_Get_count()'
p118
S'510'
p119
tp120
a(S'MPI_Recv()'
p121
S'516'
p122
tp123
a(S'MPI_Irecv()'
p124
S'665'
p125
tp126
a(S'X_MPI_PACKED()'
p127
S'666'
p128
tp129
a(S'MPI_Allgather()'
p130
S'837'
p131
tp132
a(S'MPI_Allgatherv()'
p133
S'856'
p134
tp135
a(S'X_MPI_BYTE()'
p136
S'859'
p137
tp138
a(S'MPI_Comm_group()'
p139
S'880'
p140
tp141
a(S'MPI_Group_incl()'
p142
S'884'
p143
tp144
a(S'MPI_Comm_create()'
p145
S'888'
p146
tp147
a(S'MPI_Group_free()'
p148
S'891'
p149
tp150
a(S'MPI_Group_free()'
p151
S'893'
p152
tp153
a(S'MPI_Comm_free()'
p154
S'898'
p155
tp156
a(S'MPI_Irecv()'
p157
S'929'
p158
tp159
a(S'MPI_Test()'
p160
S'934'
p161
tp162
a(S'MPI_Get_count()'
p163
S'967'
p164
tp165
a(S'MPI_Recv()'
p166
S'972'
p167
tp168
as.