ccollections
defaultdict
p0
(c__builtin__
list
p1
tp2
Rp3
S'specfem3d_fault/src/decompose_mesh/scotch_5.1.12b/src/libscotch/dorder_io.c'
p4
(lp5
(S'X_MPI_ANY_SOURCE()'
p6
S'179'
p7
tp8
asS'specfem3d_fault/src/shared/adios_manager_stubs.f90'
p9
(lp10
(S'MPI_Comm_rank()'
p11
S'15'
p12
tp13
a(S'MPI_Abort()'
p14
S'23'
p15
tp16
asS'specfem3d_fault//configure'
p17
(lp18
(S'MPI_INIT()'
p19
S'7088'
p20
tp21
a(S'MPI_FINALIZE()'
p22
S'7089'
p23
tp24
asS'specfem3d_fault/src/shared/sum_kernels.f90'
p25
(lp26
(S'MPI_INIT()'
p27
S'122'
p28
tp29
a(S'MPI_COMM_SIZE()'
p30
S'123'
p31
tp32
a(S'MPI_COMM_RANK()'
p33
S'124'
p34
tp35
a(S'mpi_barrier()'
p36
S'131'
p37
tp38
a(S'mpi_barrier()'
p39
S'178'
p40
tp41
a(S'mpi_barrier()'
p42
S'209'
p43
tp44
a(S'MPI_FINALIZE()'
p45
S'262'
p46
tp47
a(S'mpi_reduce()'
p48
S'330'
p49
tp50
a(S'mpi_reduce()'
p51
S'351'
p52
tp53
a(S'mpi_allreduce()'
p54
S'461'
p55
tp56
asS'specfem3d_fault/src/specfem3D/model_update.f90'
p57
(lp58
(S'MPI_INIT()'
p59
S'146'
p60
tp61
a(S'MPI_COMM_SIZE()'
p62
S'147'
p63
tp64
a(S'MPI_COMM_RANK()'
p65
S'148'
p66
tp67
a(S'mpi_reduce()'
p68
S'307'
p69
tp70
a(S'mpi_reduce()'
p71
S'308'
p72
tp73
a(S'mpi_reduce()'
p74
S'309'
p75
tp76
a(S'mpi_reduce()'
p77
S'310'
p78
tp79
a(S'mpi_reduce()'
p80
S'311'
p81
tp82
a(S'mpi_reduce()'
p83
S'312'
p84
tp85
a(S'mpi_reduce()'
p86
S'356'
p87
tp88
a(S'mpi_reduce()'
p89
S'357'
p90
tp91
a(S'mpi_reduce()'
p92
S'358'
p93
tp94
a(S'mpi_reduce()'
p95
S'359'
p96
tp97
a(S'mpi_reduce()'
p98
S'466'
p99
tp100
a(S'mpi_reduce()'
p101
S'467'
p102
tp103
a(S'mpi_reduce()'
p104
S'468'
p105
tp106
a(S'mpi_reduce()'
p107
S'469'
p108
tp109
a(S'mpi_reduce()'
p110
S'470'
p111
tp112
a(S'mpi_reduce()'
p113
S'471'
p114
tp115
a(S'mpi_reduce()'
p116
S'517'
p117
tp118
a(S'mpi_reduce()'
p119
S'518'
p120
tp121
a(S'mpi_reduce()'
p122
S'519'
p123
tp124
a(S'mpi_reduce()'
p125
S'520'
p126
tp127
a(S'mpi_reduce()'
p128
S'521'
p129
tp130
a(S'mpi_reduce()'
p131
S'522'
p132
tp133
a(S'mpi_bcast()'
p134
S'559'
p135
tp136
a(S'mpi_reduce()'
p137
S'574'
p138
tp139
a(S'mpi_reduce()'
p140
S'575'
p141
tp142
a(S'mpi_reduce()'
p143
S'576'
p144
tp145
a(S'mpi_reduce()'
p146
S'607'
p147
tp148
a(S'mpi_reduce()'
p149
S'608'
p150
tp151
a(S'mpi_reduce()'
p152
S'609'
p153
tp154
a(S'mpi_reduce()'
p155
S'610'
p156
tp157
a(S'mpi_reduce()'
p158
S'611'
p159
tp160
a(S'mpi_reduce()'
p161
S'612'
p162
tp163
a(S'mpi_reduce()'
p164
S'660'
p165
tp166
a(S'mpi_reduce()'
p167
S'661'
p168
tp169
a(S'mpi_reduce()'
p170
S'662'
p171
tp172
a(S'mpi_reduce()'
p173
S'663'
p174
tp175
a(S'mpi_reduce()'
p176
S'664'
p177
tp178
a(S'mpi_reduce()'
p179
S'665'
p180
tp181
a(S'mpi_reduce()'
p182
S'714'
p183
tp184
a(S'mpi_reduce()'
p185
S'715'
p186
tp187
a(S'mpi_reduce()'
p188
S'716'
p189
tp190
a(S'mpi_reduce()'
p191
S'717'
p192
tp193
a(S'mpi_reduce()'
p194
S'718'
p195
tp196
a(S'mpi_reduce()'
p197
S'719'
p198
tp199
a(S'mpi_reduce()'
p200
S'1033'
p201
tp202
a(S'mpi_reduce()'
p203
S'1034'
p204
tp205
a(S'mpi_reduce()'
p206
S'1042'
p207
tp208
a(S'mpi_reduce()'
p209
S'1043'
p210
tp211
a(S'MPI_FINALIZE()'
p212
S'1148'
p213
tp214
asS'specfem3d_fault/m4/cit_fortran.m4'
p215
(lp216
(S'MPI_INIT()'
p217
S'183'
p218
tp219
a(S'MPI_FINALIZE()'
p220
S'184'
p221
tp222
a(S'MPI_INIT()'
p223
S'197'
p224
tp225
a(S'MPI_FINALIZE()'
p226
S'198'
p227
tp228
a(S'MPI_INIT()'
p229
S'302'
p230
tp231
a(S'MPI_BARRIER()'
p232
S'303'
p233
tp234
a(S'MPI_FINALIZE()'
p235
S'304'
p236
tp237
asS'specfem3d_fault/utils/fault_tolerance/FTI-0.3.tgz'
p238
(lp239
(S'MPI_Allgather()'
p240
S'1575'
p241
tp242
a(S'MPI_Comm_group()'
p243
S'1654'
p244
tp245
a(S'MPI_Group_incl()'
p246
S'1658'
p247
tp248
a(S'MPI_Recv()'
p249
S'1664'
p250
tp251
a(S'MPI_Comm_create()'
p252
S'1671'
p253
tp254
a(S'MPI_Comm_rank()'
p255
S'1673'
p256
tp257
a(S'MPI_Comm_group()'
p258
S'1679'
p259
tp260
a(S'MPI_Group_incl()'
p261
S'1680'
p262
tp263
a(S'MPI_Comm_create()'
p264
S'1681'
p265
tp266
a(S'MPI_Group_incl()'
p267
S'1686'
p268
tp269
a(S'MPI_Send()'
p270
S'1688'
p271
tp272
a(S'MPI_Comm_create()'
p273
S'1690'
p274
tp275
a(S'MPI_Group_free()'
p276
S'1701'
p277
tp278
a(S'MPI_Group_free()'
p279
S'1702'
p280
tp281
a(S'MPI_Finalize()'
p282
S'1735'
p283
tp284
a(S'MPI_Comm_rank()'
p285
S'1778'
p286
tp287
a(S'MPI_Comm_size()'
p288
S'1779'
p289
tp290
a(S'MPI_Allgather()'
p291
S'1865'
p292
tp293
a(S'MPI_Allgather()'
p294
S'1866'
p295
tp296
a(S'MPI_Send()'
p297
S'1922'
p298
tp299
a(S'MPI_Send()'
p300
S'1933'
p301
tp302
a(S'MPI_Send()'
p303
S'1970'
p304
tp305
a(S'MPI_Barrier()'
p306
S'1972'
p307
tp308
a(S'MPI_Recv()'
p309
S'1979'
p310
tp311
a(S'MPI_Finalize()'
p312
S'2009'
p313
tp314
a(S'MPI_Recv()'
p315
S'2016'
p316
tp317
a(S'MPI_Barrier()'
p318
S'2020'
p319
tp320
a(S'MPI_Allreduce()'
p321
S'2276'
p322
tp323
a(S'MPI_Init()'
p324
S'2285'
p325
tp326
a(S'MPI_Comm_rank()'
p327
S'2296'
p328
tp329
a(S'MPI_Comm_size()'
p330
S'2297'
p331
tp332
a(S'MPI_Wtime()'
p333
S'2312'
p334
tp335
a(S'MPI_Wtime()'
p336
S'2313'
p337
tp338
a(S'MPI_Finalize()'
p339
S'2346'
p340
tp341
a(S'MPI_Wtime()'
p342
S'2560'
p343
tp344
a(S'MPI_Allgather()'
p345
S'2600'
p346
tp347
a(S'MPI_Allgather()'
p348
S'2601'
p349
tp350
a(S'MPI_Allgather()'
p351
S'2677'
p352
tp353
a(S'MPI_Allgather()'
p354
S'2683'
p355
tp356
a(S'MPI_Allgather()'
p357
S'2695'
p358
tp359
a(S'MPI_Barrier()'
p360
S'2733'
p361
tp362
a(S'MPI_Wtime()'
p363
S'2899'
p364
tp365
a(S'MPI_Wait()'
p366
S'2941'
p367
tp368
a(S'MPI_Wait()'
p369
S'2942'
p370
tp371
a(S'MPI_Isend()'
p372
S'2950'
p373
tp374
a(S'MPI_Irecv()'
p375
S'2951'
p376
tp377
a(S'MPI_Barrier()'
p378
S'2994'
p379
tp380
asS'specfem3d_fault/src/specfem3D/save_forward_arrays_adios.F90'
p381
(lp382
(S'MPI_Allreduce()'
p383
S'85'
p384
tp385
a(S'X_MPI_INTEGER()'
p386
S'86'
p387
tp388
a(S'X_MPI_COMM_WORLD()'
p389
S'191'
p390
tp391
asS'specfem3d_fault/utils/Cluster/lsf/remap_database/remap_database.f90'
p392
(lp393
(S'MPI_INIT()'
p394
S'20'
p395
tp396
a(S'MPI_COMM_SIZE()'
p397
S'23'
p398
tp399
a(S'MPI_COMM_RANK()'
p400
S'24'
p401
tp402
a(S'MPI_FINALIZE()'
p403
S'64'
p404
tp405
asS'specfem3d_fault/src/specfem3D/save_kernels_adios.F90'
p406
(lp407
(S'MPI_Allreduce()'
p408
S'93'
p409
tp410
a(S'X_MPI_INTEGER()'
p411
S'94'
p412
tp413
asS'specfem3d_fault/src/shared/parallel.f90'
p414
(lp415
(S'MPI_ABORT()'
p416
S'42'
p417
tp418
a(S'MPI_BARRIER()'
p419
S'75'
p420
tp421
a(S'MPI_BCAST()'
p422
S'95'
p423
tp424
a(S'MPI_BCAST()'
p425
S'118'
p426
tp427
a(S'MPI_BCAST()'
p428
S'138'
p429
tp430
a(S'MPI_BCAST()'
p431
S'161'
p432
tp433
a(S'MPI_GATHER()'
p434
S'183'
p435
tp436
a(S'MPI_GATHER()'
p437
S'206'
p438
tp439
a(S'MPI_GATHER()'
p440
S'232'
p441
tp442
a(S'MPI_ALLGATHER()'
p443
S'258'
p444
tp445
a(S'X_MPI_COMM_WORLD()'
p446
S'259'
p447
tp448
a(S'MPI_GATHERV()'
p449
S'284'
p450
tp451
a(S'MPI_INIT()'
p452
S'304'
p453
tp454
a(S'MPI_FINALIZE()'
p455
S'322'
p456
tp457
a(S'MPI_COMM_SIZE()'
p458
S'340'
p459
tp460
a(S'MPI_COMM_RANK()'
p461
S'358'
p462
tp463
a(S'MPI_REDUCE()'
p464
S'376'
p465
tp466
a(S'X_MPI_MIN()'
p467
S'377'
p468
tp469
a(S'MPI_REDUCE()'
p470
S'395'
p471
tp472
a(S'X_MPI_MAX()'
p473
S'396'
p474
tp475
a(S'MPI_REDUCE()'
p476
S'417'
p477
tp478
a(S'X_MPI_MAX()'
p479
S'418'
p480
tp481
a(S'MPI_REDUCE()'
p482
S'439'
p483
tp484
a(S'X_MPI_MIN()'
p485
S'440'
p486
tp487
a(S'MPI_ALLREDUCE()'
p488
S'462'
p489
tp490
a(S'X_MPI_MIN()'
p491
S'463'
p492
tp493
a(S'MPI_REDUCE()'
p494
S'507'
p495
tp496
a(S'X_MPI_MAX()'
p497
S'508'
p498
tp499
a(S'MPI_ALLREDUCE()'
p500
S'529'
p501
tp502
a(S'X_MPI_MAX()'
p503
S'530'
p504
tp505
a(S'MPI_ALLREDUCE()'
p506
S'553'
p507
tp508
a(S'X_MPI_MAX()'
p509
S'554'
p510
tp511
a(S'MPI_REDUCE()'
p512
S'576'
p513
tp514
a(S'X_MPI_MIN()'
p515
S'577'
p516
tp517
a(S'MPI_ALLREDUCE()'
p518
S'595'
p519
tp520
a(S'X_MPI_MAXLOC()'
p521
S'596'
p522
tp523
a(S'MPI_REDUCE()'
p524
S'616'
p525
tp526
a(S'X_MPI_SUM()'
p527
S'617'
p528
tp529
a(S'MPI_REDUCE()'
p530
S'638'
p531
tp532
a(S'X_MPI_SUM()'
p533
S'639'
p534
tp535
a(S'MPI_ALLREDUCE()'
p536
S'660'
p537
tp538
a(S'X_MPI_SUM()'
p539
S'661'
p540
tp541
a(S'MPI_REDUCE()'
p542
S'679'
p543
tp544
a(S'X_MPI_SUM()'
p545
S'680'
p546
tp547
a(S'MPI_ALLREDUCE()'
p548
S'698'
p549
tp550
a(S'X_MPI_SUM()'
p551
S'699'
p552
tp553
a(S'MPI_ALLREDUCE()'
p554
S'717'
p555
tp556
a(S'X_MPI_LOR()'
p557
S'718'
p558
tp559
a(S'MPI_SENDRECV()'
p560
S'746'
p561
tp562
a(S'X_MPI_COMM_WORLD()'
p563
S'748'
p564
tp565
a(S'MPI_ISEND()'
p566
S'786'
p567
tp568
a(S'X_MPI_COMM_WORLD()'
p569
S'787'
p570
tp571
a(S'MPI_IRECV()'
p572
S'810'
p573
tp574
a(S'X_MPI_COMM_WORLD()'
p575
S'811'
p576
tp577
a(S'MPI_ISEND()'
p578
S'834'
p579
tp580
a(S'X_MPI_COMM_WORLD()'
p581
S'835'
p582
tp583
a(S'MPI_IRECV()'
p584
S'857'
p585
tp586
a(S'X_MPI_COMM_WORLD()'
p587
S'858'
p588
tp589
a(S'MPI_RECV()'
p590
S'881'
p591
tp592
a(S'MPI_RECV()'
p593
S'904'
p594
tp595
a(S'MPI_SEND()'
p596
S'927'
p597
tp598
a(S'MPI_SEND()'
p599
S'947'
p600
tp601
a(S'X_MPI_COMM_WORLD()'
p602
S'948'
p603
tp604
a(S'MPI_RECV()'
p605
S'971'
p606
tp607
a(S'X_MPI_COMM_WORLD()'
p608
S'972'
p609
tp610
a(S'MPI_SEND()'
p611
S'1037'
p612
tp613
a(S'MPI_RECV()'
p614
S'1058'
p615
tp616
a(S'MPI_SEND()'
p617
S'1080'
p618
tp619
a(S'mpi_wait()'
p620
S'1100'
p621
tp622
asS'specfem3d_fault/src/shared/adios_manager.F90'
p623
(lp624
(S'MPI_Comm_rank()'
p625
S'34'
p626
tp627
asS'specfem3d_fault/src/meshfem3D/save_databases_adios.F90'
p628
(lp629
(S'MPI_Allreduce()'
p630
S'491'
p631
tp632
a(S'X_MPI_INTEGER()'
p633
S'492'
p634
tp635
a(S'X_MPI_COMM_WORLD()'
p636
S'610'
p637
tp638
asS'specfem3d_fault/utils/solver_classical_serial_Fortran_or_C_no_MPI/mesher_for_serial/meshfem3D.F90'
p639
(lp640
(S'MPI_INIT()'
p641
S'546'
p642
tp643
a(S'MPI_COMM_SIZE()'
p644
S'553'
p645
tp646
a(S'MPI_COMM_RANK()'
p647
S'554'
p648
tp649
a(S'MPI_BCAST()'
p650
S'652'
p651
tp652
a(S'MPI_BCAST()'
p653
S'654'
p654
tp655
a(S'MPI_BCAST()'
p656
S'656'
p657
tp658
a(S'MPI_BCAST()'
p659
S'658'
p660
tp661
a(S'MPI_BCAST()'
p662
S'660'
p663
tp664
a(S'MPI_BCAST()'
p665
S'661'
p666
tp667
a(S'MPI_BCAST()'
p668
S'663'
p669
tp670
a(S'MPI_BCAST()'
p671
S'664'
p672
tp673
a(S'MPI_BCAST()'
p674
S'665'
p675
tp676
a(S'MPI_BCAST()'
p677
S'667'
p678
tp679
a(S'MPI_BCAST()'
p680
S'668'
p681
tp682
a(S'MPI_BCAST()'
p683
S'669'
p684
tp685
a(S'MPI_BCAST()'
p686
S'670'
p687
tp688
a(S'MPI_BCAST()'
p689
S'671'
p690
tp691
a(S'MPI_BCAST()'
p692
S'673'
p693
tp694
a(S'MPI_BCAST()'
p695
S'675'
p696
tp697
a(S'MPI_BCAST()'
p698
S'676'
p699
tp700
a(S'MPI_BCAST()'
p701
S'677'
p702
tp703
a(S'MPI_BCAST()'
p704
S'678'
p705
tp706
a(S'MPI_BCAST()'
p707
S'679'
p708
tp709
a(S'MPI_BCAST()'
p710
S'680'
p711
tp712
a(S'MPI_BCAST()'
p713
S'681'
p714
tp715
a(S'MPI_BCAST()'
p716
S'682'
p717
tp718
a(S'MPI_BCAST()'
p719
S'683'
p720
tp721
a(S'MPI_BCAST()'
p722
S'684'
p723
tp724
a(S'MPI_BCAST()'
p725
S'685'
p726
tp727
a(S'MPI_BCAST()'
p728
S'686'
p729
tp730
a(S'MPI_BCAST()'
p731
S'688'
p732
tp733
a(S'MPI_BCAST()'
p734
S'689'
p735
tp736
a(S'MPI_BCAST()'
p737
S'690'
p738
tp739
a(S'MPI_BCAST()'
p740
S'1009'
p741
tp742
a(S'MPI_BCAST()'
p743
S'1010'
p744
tp745
a(S'MPI_BCAST()'
p746
S'1011'
p747
tp748
a(S'MPI_BCAST()'
p749
S'1012'
p750
tp751
a(S'MPI_BCAST()'
p752
S'1013'
p753
tp754
a(S'MPI_BCAST()'
p755
S'1014'
p756
tp757
a(S'MPI_BCAST()'
p758
S'1015'
p759
tp760
a(S'MPI_BCAST()'
p761
S'1026'
p762
tp763
a(S'MPI_BCAST()'
p764
S'1027'
p765
tp766
a(S'MPI_BCAST()'
p767
S'1028'
p768
tp769
a(S'MPI_BCAST()'
p770
S'1029'
p771
tp772
a(S'MPI_BCAST()'
p773
S'1030'
p774
tp775
a(S'MPI_BCAST()'
p776
S'1031'
p777
tp778
a(S'MPI_BCAST()'
p779
S'1032'
p780
tp781
a(S'MPI_BCAST()'
p782
S'1033'
p783
tp784
a(S'MPI_BCAST()'
p785
S'1034'
p786
tp787
a(S'MPI_BCAST()'
p788
S'1035'
p789
tp790
a(S'MPI_BCAST()'
p791
S'1037'
p792
tp793
a(S'MPI_BCAST()'
p794
S'1038'
p795
tp796
a(S'MPI_BCAST()'
p797
S'1039'
p798
tp799
a(S'MPI_BCAST()'
p800
S'1040'
p801
tp802
a(S'MPI_BCAST()'
p803
S'1041'
p804
tp805
a(S'MPI_BCAST()'
p806
S'1042'
p807
tp808
a(S'MPI_BCAST()'
p809
S'1043'
p810
tp811
a(S'MPI_BCAST()'
p812
S'1044'
p813
tp814
a(S'MPI_BCAST()'
p815
S'1045'
p816
tp817
a(S'MPI_BCAST()'
p818
S'1046'
p819
tp820
a(S'MPI_BCAST()'
p821
S'1047'
p822
tp823
a(S'MPI_BCAST()'
p824
S'1048'
p825
tp826
a(S'MPI_BCAST()'
p827
S'1049'
p828
tp829
a(S'MPI_BCAST()'
p830
S'1050'
p831
tp832
a(S'MPI_BCAST()'
p833
S'1051'
p834
tp835
a(S'MPI_BCAST()'
p836
S'1052'
p837
tp838
a(S'MPI_BCAST()'
p839
S'1053'
p840
tp841
a(S'MPI_BCAST()'
p842
S'1054'
p843
tp844
a(S'MPI_BCAST()'
p845
S'1055'
p846
tp847
a(S'MPI_BCAST()'
p848
S'1056'
p849
tp850
a(S'MPI_BCAST()'
p851
S'1057'
p852
tp853
a(S'MPI_BCAST()'
p854
S'1058'
p855
tp856
a(S'MPI_BCAST()'
p857
S'1059'
p858
tp859
a(S'MPI_BCAST()'
p860
S'1060'
p861
tp862
a(S'MPI_BCAST()'
p863
S'1061'
p864
tp865
a(S'MPI_BCAST()'
p866
S'1062'
p867
tp868
a(S'MPI_BCAST()'
p869
S'1063'
p870
tp871
a(S'MPI_BCAST()'
p872
S'1064'
p873
tp874
a(S'MPI_BCAST()'
p875
S'1065'
p876
tp877
a(S'MPI_BCAST()'
p878
S'1066'
p879
tp880
a(S'MPI_BCAST()'
p881
S'1067'
p882
tp883
a(S'MPI_BCAST()'
p884
S'1068'
p885
tp886
a(S'MPI_BCAST()'
p887
S'1069'
p888
tp889
a(S'MPI_BCAST()'
p890
S'1070'
p891
tp892
a(S'MPI_BCAST()'
p893
S'1071'
p894
tp895
a(S'MPI_BCAST()'
p896
S'1072'
p897
tp898
a(S'MPI_BCAST()'
p899
S'1073'
p900
tp901
a(S'MPI_BCAST()'
p902
S'1074'
p903
tp904
a(S'MPI_BCAST()'
p905
S'1075'
p906
tp907
a(S'MPI_BCAST()'
p908
S'1076'
p909
tp910
a(S'MPI_BCAST()'
p911
S'1077'
p912
tp913
a(S'MPI_BCAST()'
p914
S'1078'
p915
tp916
a(S'MPI_BCAST()'
p917
S'1079'
p918
tp919
a(S'MPI_BCAST()'
p920
S'1080'
p921
tp922
a(S'MPI_BCAST()'
p923
S'1081'
p924
tp925
a(S'MPI_BCAST()'
p926
S'1082'
p927
tp928
a(S'MPI_BCAST()'
p929
S'1083'
p930
tp931
a(S'MPI_BCAST()'
p932
S'1084'
p933
tp934
a(S'MPI_BCAST()'
p935
S'1085'
p936
tp937
a(S'MPI_BCAST()'
p938
S'1086'
p939
tp940
a(S'MPI_BCAST()'
p941
S'1087'
p942
tp943
a(S'MPI_BCAST()'
p944
S'1088'
p945
tp946
a(S'MPI_BCAST()'
p947
S'1089'
p948
tp949
a(S'MPI_BCAST()'
p950
S'1090'
p951
tp952
a(S'MPI_BCAST()'
p953
S'1098'
p954
tp955
a(S'MPI_BCAST()'
p956
S'1099'
p957
tp958
a(S'MPI_BCAST()'
p959
S'1100'
p960
tp961
a(S'MPI_BCAST()'
p962
S'1101'
p963
tp964
a(S'MPI_BCAST()'
p965
S'1102'
p966
tp967
a(S'MPI_BCAST()'
p968
S'1103'
p969
tp970
a(S'MPI_BCAST()'
p971
S'1104'
p972
tp973
a(S'MPI_BCAST()'
p974
S'1105'
p975
tp976
a(S'MPI_BCAST()'
p977
S'1106'
p978
tp979
a(S'MPI_BCAST()'
p980
S'1107'
p981
tp982
a(S'MPI_BCAST()'
p983
S'1114'
p984
tp985
a(S'MPI_BCAST()'
p986
S'1115'
p987
tp988
a(S'MPI_BCAST()'
p989
S'1116'
p990
tp991
a(S'MPI_BCAST()'
p992
S'1117'
p993
tp994
a(S'MPI_BCAST()'
p995
S'1118'
p996
tp997
a(S'MPI_BCAST()'
p998
S'1119'
p999
tp1000
a(S'MPI_BCAST()'
p1001
S'1120'
p1002
tp1003
a(S'MPI_BCAST()'
p1004
S'1121'
p1005
tp1006
a(S'MPI_BCAST()'
p1007
S'1122'
p1008
tp1009
a(S'MPI_BCAST()'
p1010
S'1123'
p1011
tp1012
a(S'MPI_BCAST()'
p1013
S'1124'
p1014
tp1015
a(S'MPI_BCAST()'
p1016
S'1125'
p1017
tp1018
a(S'MPI_BCAST()'
p1019
S'1126'
p1020
tp1021
a(S'MPI_BCAST()'
p1022
S'1127'
p1023
tp1024
a(S'MPI_BCAST()'
p1025
S'1128'
p1026
tp1027
a(S'MPI_BCAST()'
p1028
S'1129'
p1029
tp1030
a(S'MPI_BCAST()'
p1031
S'1130'
p1032
tp1033
a(S'MPI_BCAST()'
p1034
S'1131'
p1035
tp1036
a(S'MPI_BCAST()'
p1037
S'1132'
p1038
tp1039
a(S'MPI_BCAST()'
p1040
S'1133'
p1041
tp1042
a(S'MPI_BCAST()'
p1043
S'1134'
p1044
tp1045
a(S'MPI_BCAST()'
p1046
S'1135'
p1047
tp1048
a(S'MPI_BCAST()'
p1049
S'1136'
p1050
tp1051
a(S'MPI_BCAST()'
p1052
S'1137'
p1053
tp1054
a(S'MPI_BCAST()'
p1055
S'1138'
p1056
tp1057
a(S'MPI_BCAST()'
p1058
S'1139'
p1059
tp1060
a(S'MPI_BCAST()'
p1061
S'1140'
p1062
tp1063
a(S'MPI_BCAST()'
p1064
S'1141'
p1065
tp1066
a(S'MPI_BCAST()'
p1067
S'1142'
p1068
tp1069
a(S'MPI_BCAST()'
p1070
S'1143'
p1071
tp1072
a(S'MPI_BCAST()'
p1073
S'1144'
p1074
tp1075
a(S'MPI_BCAST()'
p1076
S'1145'
p1077
tp1078
a(S'MPI_BCAST()'
p1079
S'1146'
p1080
tp1081
a(S'MPI_BCAST()'
p1082
S'1147'
p1083
tp1084
a(S'MPI_BCAST()'
p1085
S'1148'
p1086
tp1087
a(S'MPI_BCAST()'
p1088
S'1149'
p1089
tp1090
a(S'MPI_BCAST()'
p1091
S'1150'
p1092
tp1093
a(S'MPI_BCAST()'
p1094
S'1151'
p1095
tp1096
a(S'MPI_BCAST()'
p1097
S'1152'
p1098
tp1099
a(S'MPI_BCAST()'
p1100
S'1153'
p1101
tp1102
a(S'MPI_BCAST()'
p1103
S'1154'
p1104
tp1105
a(S'MPI_BCAST()'
p1106
S'1155'
p1107
tp1108
a(S'MPI_BCAST()'
p1109
S'1156'
p1110
tp1111
a(S'MPI_BCAST()'
p1112
S'1157'
p1113
tp1114
a(S'MPI_BCAST()'
p1115
S'1158'
p1116
tp1117
a(S'MPI_BCAST()'
p1118
S'1159'
p1119
tp1120
a(S'MPI_BCAST()'
p1121
S'1160'
p1122
tp1123
a(S'MPI_BCAST()'
p1124
S'1161'
p1125
tp1126
a(S'MPI_BCAST()'
p1127
S'1162'
p1128
tp1129
a(S'MPI_BCAST()'
p1130
S'1163'
p1131
tp1132
a(S'MPI_BCAST()'
p1133
S'1164'
p1134
tp1135
a(S'MPI_BCAST()'
p1136
S'1165'
p1137
tp1138
a(S'MPI_BCAST()'
p1139
S'1166'
p1140
tp1141
a(S'MPI_BCAST()'
p1142
S'1167'
p1143
tp1144
a(S'MPI_BCAST()'
p1145
S'1176'
p1146
tp1147
a(S'MPI_BCAST()'
p1148
S'1177'
p1149
tp1150
a(S'MPI_BCAST()'
p1151
S'1178'
p1152
tp1153
a(S'MPI_BCAST()'
p1154
S'1179'
p1155
tp1156
a(S'MPI_BCAST()'
p1157
S'1180'
p1158
tp1159
a(S'MPI_BCAST()'
p1160
S'1181'
p1161
tp1162
a(S'MPI_BCAST()'
p1163
S'1182'
p1164
tp1165
a(S'MPI_BCAST()'
p1166
S'1183'
p1167
tp1168
a(S'MPI_BCAST()'
p1169
S'1184'
p1170
tp1171
a(S'MPI_BCAST()'
p1172
S'1186'
p1173
tp1174
a(S'MPI_BCAST()'
p1175
S'1187'
p1176
tp1177
a(S'MPI_BCAST()'
p1178
S'1188'
p1179
tp1180
a(S'MPI_BCAST()'
p1181
S'1189'
p1182
tp1183
a(S'MPI_BCAST()'
p1184
S'1191'
p1185
tp1186
a(S'MPI_BCAST()'
p1187
S'1192'
p1188
tp1189
a(S'MPI_BCAST()'
p1190
S'1193'
p1191
tp1192
a(S'MPI_BCAST()'
p1193
S'1194'
p1194
tp1195
a(S'MPI_BCAST()'
p1196
S'1195'
p1197
tp1198
a(S'MPI_BCAST()'
p1199
S'1208'
p1200
tp1201
a(S'MPI_BCAST()'
p1202
S'1209'
p1203
tp1204
a(S'MPI_BCAST()'
p1205
S'1210'
p1206
tp1207
a(S'MPI_BCAST()'
p1208
S'1219'
p1209
tp1210
a(S'MPI_BCAST()'
p1211
S'1220'
p1212
tp1213
a(S'MPI_BCAST()'
p1214
S'1221'
p1215
tp1216
a(S'MPI_BCAST()'
p1217
S'1222'
p1218
tp1219
a(S'MPI_BCAST()'
p1220
S'1223'
p1221
tp1222
a(S'MPI_BCAST()'
p1223
S'1224'
p1224
tp1225
a(S'MPI_BCAST()'
p1226
S'1239'
p1227
tp1228
a(S'MPI_BCAST()'
p1229
S'1240'
p1230
tp1231
a(S'MPI_BCAST()'
p1232
S'1241'
p1233
tp1234
a(S'MPI_BCAST()'
p1235
S'1242'
p1236
tp1237
a(S'MPI_BCAST()'
p1238
S'1243'
p1239
tp1240
a(S'MPI_BCAST()'
p1241
S'1244'
p1242
tp1243
a(S'MPI_BCAST()'
p1244
S'1254'
p1245
tp1246
a(S'MPI_BCAST()'
p1247
S'1255'
p1248
tp1249
a(S'MPI_BCAST()'
p1250
S'1268'
p1251
tp1252
a(S'MPI_BARRIER()'
p1253
S'1293'
p1254
tp1255
a(S'MPI_REDUCE()'
p1256
S'1381'
p1257
tp1258
a(S'X_MPI_COMM_WORLD()'
p1259
S'1382'
p1260
tp1261
a(S'MPI_BARRIER()'
p1262
S'1400'
p1263
tp1264
a(S'MPI_BARRIER()'
p1265
S'1539'
p1266
tp1267
a(S'MPI_FINALIZE()'
p1268
S'1542'
p1269
tp1270
asS'specfem3d_fault/m4/cit_mpi.m4'
p1271
(lp1272
(S'MPI_Init()'
p1273
S'400'
p1274
tp1275
a(S'MPI_Finalize()'
p1276
S'401'
p1277
tp1278
asS'specfem3d_fault/utils/solver_classical_serial_Fortran_or_C_no_MPI/mesher_for_serial/exit_mpi.F90'
p1279
(lp1280
(S'MPI_ABORT()'
p1281
S'71'
p1282
tp1283
a(S'MPI_ABORT()'
p1284
S'105'
p1285
tp1286
asS'specfem3d_fault/src/shared/smooth_vol_data.f90'
p1287
(lp1288
(S'MPI_INIT()'
p1289
S'146'
p1290
tp1291
a(S'MPI_COMM_SIZE()'
p1292
S'147'
p1293
tp1294
a(S'MPI_COMM_RANK()'
p1295
S'148'
p1296
tp1297
a(S'mpi_barrier()'
p1298
S'151'
p1299
tp1300
a(S'mpi_barrier()'
p1301
S'240'
p1302
tp1303
a(S'mpi_barrier()'
p1304
S'529'
p1305
tp1306
a(S'mpi_barrier()'
p1307
S'738'
p1308
tp1309
a(S'mpi_reduce()'
p1310
S'742'
p1311
tp1312
a(S'mpi_reduce()'
p1313
S'744'
p1314
tp1315
a(S'MPI_FINALIZE()'
p1316
S'753'
p1317
tp1318
asS'specfem3d_fault/utils/fault_tolerance/specfem3D_with_fault_tolerance_library_nov2011.c'
p1319
(lp1320
(S'MPI_Wtime()'
p1321
S'110'
p1322
tp1323
a(S'MPI_Init()'
p1324
S'116'
p1325
tp1326
a(S'MPI_Comm_size()'
p1327
S'121'
p1328
tp1329
a(S'MPI_Comm_rank()'
p1330
S'122'
p1331
tp1332
a(S'MPI_Abort()'
p1333
S'158'
p1334
tp1335
a(S'MPI_Abort()'
p1336
S'220'
p1337
tp1338
a(S'MPI_Abort()'
p1339
S'228'
p1340
tp1341
a(S'MPI_Abort()'
p1342
S'248'
p1343
tp1344
a(S'MPI_Abort()'
p1345
S'366'
p1346
tp1347
a(S'MPI_Abort()'
p1348
S'375'
p1349
tp1350
a(S'MPI_Abort()'
p1351
S'526'
p1352
tp1353
a(S'MPI_Abort()'
p1354
S'534'
p1355
tp1356
a(S'MPI_Abort()'
p1357
S'592'
p1358
tp1359
a(S'MPI_Bcast()'
p1360
S'608'
p1361
tp1362
a(S'MPI_Bcast()'
p1363
S'609'
p1364
tp1365
a(S'MPI_Bcast()'
p1366
S'610'
p1367
tp1368
a(S'MPI_Abort()'
p1369
S'632'
p1370
tp1371
a(S'MPI_Abort()'
p1372
S'681'
p1373
tp1374
a(S'MPI_Abort()'
p1375
S'714'
p1376
tp1377
a(S'MPI_Bcast()'
p1378
S'733'
p1379
tp1380
a(S'MPI_Bcast()'
p1381
S'734'
p1382
tp1383
a(S'MPI_Bcast()'
p1384
S'735'
p1385
tp1386
a(S'MPI_Bcast()'
p1387
S'736'
p1388
tp1389
a(S'MPI_Bcast()'
p1390
S'737'
p1391
tp1392
a(S'MPI_Barrier()'
p1393
S'813'
p1394
tp1395
a(S'MPI_Barrier()'
p1396
S'832'
p1397
tp1398
a(S'MPI_Barrier()'
p1399
S'847'
p1400
tp1401
a(S'MPI_Wtime()'
p1402
S'853'
p1403
tp1404
a(S'MPI_Reduce()'
p1405
S'876'
p1406
tp1407
a(S'MPI_Abort()'
p1408
S'893'
p1409
tp1410
a(S'MPI_Abort()'
p1411
S'906'
p1412
tp1413
a(S'MPI_Wtime()'
p1414
S'935'
p1415
tp1416
a(S'MPI_Wtime()'
p1417
S'1200'
p1418
tp1419
a(S'MPI_Wtime()'
p1420
S'1213'
p1421
tp1422
a(S'MPI_Abort()'
p1423
S'1227'
p1424
tp1425
a(S'MPI_Barrier()'
p1426
S'1262'
p1427
tp1428
a(S'MPI_Wtime()'
p1429
S'1265'
p1430
tp1431
a(S'MPI_Finalize()'
p1432
S'1278'
p1433
tp1434
a(S'MPI_Abort()'
p1435
S'1306'
p1436
tp1437
a(S'MPI_Abort()'
p1438
S'1326'
p1439
tp1440
a(S'MPI_Abort()'
p1441
S'1346'
p1442
tp1443
a(S'MPI_Abort()'
p1444
S'1366'
p1445
tp1446
a(S'MPI_Issend()'
p1447
S'1463'
p1448
tp1449
a(S'MPI_Irecv()'
p1450
S'1464'
p1451
tp1452
a(S'MPI_Issend()'
p1453
S'1482'
p1454
tp1455
a(S'MPI_Irecv()'
p1456
S'1483'
p1457
tp1458
a(S'MPI_Test()'
p1459
S'1493'
p1460
tp1461
a(S'MPI_Test()'
p1462
S'1494'
p1463
tp1464
a(S'MPI_Test()'
p1465
S'1495'
p1466
tp1467
a(S'MPI_Test()'
p1468
S'1496'
p1469
tp1470
a(S'MPI_Issend()'
p1471
S'1565'
p1472
tp1473
a(S'MPI_Irecv()'
p1474
S'1566'
p1475
tp1476
a(S'MPI_Issend()'
p1477
S'1585'
p1478
tp1479
a(S'MPI_Irecv()'
p1480
S'1586'
p1481
tp1482
a(S'MPI_Test()'
p1483
S'1596'
p1484
tp1485
a(S'MPI_Test()'
p1486
S'1597'
p1487
tp1488
a(S'MPI_Test()'
p1489
S'1598'
p1490
tp1491
a(S'MPI_Test()'
p1492
S'1599'
p1493
tp1494
a(S'MPI_Sendrecv()'
p1495
S'1662'
p1496
tp1497
a(S'MPI_Sendrecv()'
p1498
S'1689'
p1499
tp1500
a(S'MPI_Sendrecv()'
p1501
S'1720'
p1502
tp1503
a(S'MPI_Sendrecv()'
p1504
S'1747'
p1505
tp1506
a(S'MPI_Abort()'
p1507
S'1776'
p1508
tp1509
asS'specfem3d_fault/src/generate_databases/save_arrays_solver_adios.F90'
p1510
(lp1511
(S'MPI_Allreduce()'
p1512
S'198'
p1513
tp1514
a(S'X_MPI_INTEGER()'
p1515
S'199'
p1516
tp1517
a(S'X_MPI_COMM_WORLD()'
p1518
S'760'
p1519
tp1520
a(S'X_MPI_COMM_WORLD()'
p1521
S'1373'
p1522
tp1523
a(S'X_MPI_COMM_WORLD()'
p1524
S'1471'
p1525
tp1526
asS'specfem3d_fault/utils/unused_routines/ampuero_bug_Stacey_now_fixed_in_official_SVN_code/ampuero_fix_Stacey_Hughes_1987_implicit_ABC_problem_specfem3D.f90'
p1527
(lp1528
(S'MPI_INIT()'
p1529
S'292'
p1530
tp1531
a(S'MPI_COMM_SIZE()'
p1532
S'293'
p1533
tp1534
a(S'MPI_COMM_RANK()'
p1535
S'294'
p1536
tp1537
a(S'MPI_REDUCE()'
p1538
S'789'
p1539
tp1540
a(S'X_MPI_COMM_WORLD()'
p1541
S'790'
p1542
tp1543
a(S'MPI_BARRIER()'
p1544
S'821'
p1545
tp1546
a(S'MPI_BARRIER()'
p1547
S'986'
p1548
tp1549
a(S'MPI_REDUCE()'
p1550
S'1060'
p1551
tp1552
a(S'X_MPI_COMM_WORLD()'
p1553
S'1061'
p1554
tp1555
a(S'MPI_BARRIER()'
p1556
S'1847'
p1557
tp1558
a(S'MPI_FINALIZE()'
p1559
S'1850'
p1560
tp1561
asS'specfem3d_fault/src/generate_databases/save_moho_adios.F90'
p1562
(lp1563
(S'MPI_Allreduce()'
p1564
S'82'
p1565
tp1566
a(S'X_MPI_INTEGER()'
p1567
S'83'
p1568
tp1569
a(S'X_MPI_COMM_WORLD()'
p1570
S'139'
p1571
tp1572
asS'specfem3d_fault/src/cuda/check_fields_cuda.cu'
p1573
(lp1574
(S'MPI_Comm_rank()'
p1575
S'73'
p1576
tp1577
a(S'MPI_Comm_rank()'
p1578
S'110'
p1579
tp1580
a(S'MPI_Abort()'
p1581
S'124'
p1582
tp1583
a(S'MPI_Comm_rank()'
p1584
S'141'
p1585
tp1586
a(S'MPI_Abort()'
p1587
S'154'
p1588
tp1589
a(S'MPI_Comm_rank()'
p1590
S'174'
p1591
tp1592
a(S'MPI_Abort()'
p1593
S'187'
p1594
tp1595
a(S'MPI_Barrier()'
p1596
S'208'
p1597
tp1598
a(S'MPI_Comm_rank()'
p1599
S'699'
p1600
tp1601
a(S'MPI_Comm_rank()'
p1602
S'947'
p1603
tp1604
a(S'MPI_Comm_rank()'
p1605
S'1120'
p1606
tp1607
asS'specfem3d_fault/utils/Cluster/lsf/remap_database/exit_mpi.f90'
p1608
(lp1609
(S'MPI_FINALIZE()'
p1610
S'49'
p1611
tp1612
a(S'MPI_ABORT()'
p1613
S'50'
p1614
tp1615
asS'specfem3d_fault/src/cuda/save_and_compare_cpu_vs_gpu.c'
p1616
(lp1617
(S'MPI_Comm_rank()'
p1618
S'47'
p1619
tp1620
a(S'MPI_Comm_rank()'
p1621
S'95'
p1622
tp1623
asS'specfem3d_fault/utils/solver_classical_serial_Fortran_or_C_no_MPI/mesher_for_serial/create_regions_mesh.F90'
p1624
(lp1625
(S'MPI_ALLREDUCE()'
p1626
S'1522'
p1627
tp1628
a(S'MPI_ALLREDUCE()'
p1629
S'1523'
p1630
tp1631
asS'specfem3d_fault/src/cuda/noise_tomography_cuda.cu'
p1632
(lp1633
(S'MPI_Comm_rank()'
p1634
S'64'
p1635
tp1636
a(S'MPI_Comm_rank()'
p1637
S'79'
p1638
tp1639
a(S'MPI_Comm_rank()'
p1640
S'94'
p1641
tp1642
asS'specfem3d_fault/src/shared/safe_alloc_mod.f90'
p1643
(lp1644
(S'MPI_Comm_rank()'
p1645
S'121'
p1646
tp1647
a(S'MPI_Abort()'
p1648
S'130'
p1649
tp1650
a(S'MPI_Comm_rank()'
p1651
S'146'
p1652
tp1653
a(S'MPI_Abort()'
p1654
S'155'
p1655
tp1656
as.