ccollections
defaultdict
p0
(c__builtin__
list
p1
tp2
Rp3
S'ReactHyperNEAT/HyperNEAT/boost_1_57_0/boost/mpi/timer.hpp'
p4
(lp5
(S'MPI_Wtime()'
p6
S'71'
p7
tp8
asS'ReactHyperNEAT/HyperNEAT/boost_1_57_0/boost/mpi/exception.hpp'
p9
(lp10
(S'MPI_Error_class()'
p11
S'73'
p12
tp13
asS'ReactHyperNEAT/HyperNEAT/boost_1_57_0/libs/mpi/test/ring_test.cpp'
p14
(lp15
(S'MPI_Abort()'
p16
S'95'
p17
tp18
asS'ReactHyperNEAT/HyperNEAT/boost_1_57_0/boost/mpi/communicator.hpp'
p19
(lp20
(S'MPI_Comm()'
p21
S'1428'
p22
tp23
a(S'MPI_Comm()'
p24
S'1451'
p25
tp26
a(S'MPI_Comm()'
p27
S'1487'
p28
tp29
a(S'MPI_Comm()'
p30
S'1510'
p31
tp32
asS'ReactHyperNEAT/HyperNEAT/boost_1_57_0/libs/mpi/src/environment.cpp'
p33
(lp34
(S'MPI_Errhandler_set()'
p35
S'74'
p36
tp37
a(S'MPI_Errhandler_set()'
p38
S'89'
p39
tp40
a(S'MPI_Errhandler_set()'
p41
S'102'
p42
tp43
a(S'MPI_Errhandler_set()'
p44
S'118'
p45
tp46
asS'ReactHyperNEAT/HyperNEAT/boost_1_57_0/boost/mpi/datatype.hpp'
p47
(lp48
(S'X_MPI_LONG_DOUBLE_INT()'
p49
S'250'
p50
tp51
a(S'MPI_Type_contiguous()'
p52
S'310'
p53
tp54
a(S'MPI_Type_commit()'
p55
S'311'
p56
tp57
asS'ReactHyperNEAT/HyperNEAT/NE/HyperNEAT/Hypercube_NEAT/src/mpimain.cpp'
p58
(lp59
(S'MPI_Comm_size()'
p60
S'26'
p61
tp62
a(S'MPI_Comm_rank()'
p63
S'27'
p64
tp65
a(S'MPI_Comm_size()'
p66
S'39'
p67
tp68
a(S'MPI_Send()'
p69
S'45'
p70
tp71
a(S'MPI_Init()'
p72
S'282'
p73
tp74
a(S'MPI_Abort()'
p75
S'287'
p76
tp77
a(S'MPI_Comm_size()'
p78
S'291'
p79
tp80
a(S'MPI_Comm_rank()'
p81
S'292'
p82
tp83
a(S'MPI_Finalize()'
p84
S'352'
p85
tp86
asS'ReactHyperNEAT/HyperNEAT/NE/HyperNEAT/Hypercube_NEAT/src/HCUBE_MPIExperimentRun.cpp'
p87
(lp88
(S'MPI_Comm_size()'
p89
S'38'
p90
tp91
asS'ReactHyperNEAT/HyperNEAT/boost_1_57_0/libs/mpi/src/point_to_point.cpp'
p92
(lp93
(S'X_MPI_PACKED()'
p94
S'38'
p95
tp96
a(S'X_MPI_PACKED()'
p97
S'55'
p98
tp99
a(S'X_MPI_PACKED()'
p100
S'75'
p101
tp102
asS'ReactHyperNEAT/HyperNEAT/boost_1_57_0/boost/mpi/allocator.hpp'
p103
(lp104
(S'X_MPI_INFO_NULL()'
p105
S'141'
p106
tp107
asS'ReactHyperNEAT/HyperNEAT/boost_1_57_0/libs/mpi/src/request.cpp'
p108
(lp109
(S'MPI_Waitall()'
p110
S'39'
p111
tp112
a(S'MPI_Testall()'
p113
S'82'
p114
tp115
asS'ReactHyperNEAT/HyperNEAT/boost_1_57_0/boost/graph/distributed/detail/mpi_process_group.ipp'
p116
(lp117
(S'MPI_Recv()'
p118
S'492'
p119
tp120
a(S'MPI_Get_count()'
p121
S'510'
p122
tp123
a(S'MPI_Recv()'
p124
S'516'
p125
tp126
a(S'MPI_Irecv()'
p127
S'665'
p128
tp129
a(S'X_MPI_PACKED()'
p130
S'666'
p131
tp132
a(S'MPI_Allgather()'
p133
S'837'
p134
tp135
a(S'MPI_Allgatherv()'
p136
S'856'
p137
tp138
a(S'X_MPI_BYTE()'
p139
S'859'
p140
tp141
a(S'MPI_Comm_group()'
p142
S'880'
p143
tp144
a(S'MPI_Group_incl()'
p145
S'884'
p146
tp147
a(S'MPI_Comm_create()'
p148
S'888'
p149
tp150
a(S'MPI_Group_free()'
p151
S'891'
p152
tp153
a(S'MPI_Group_free()'
p154
S'893'
p155
tp156
a(S'MPI_Comm_free()'
p157
S'898'
p158
tp159
a(S'MPI_Irecv()'
p160
S'929'
p161
tp162
a(S'MPI_Test()'
p163
S'934'
p164
tp165
a(S'MPI_Get_count()'
p166
S'967'
p167
tp168
a(S'MPI_Recv()'
p169
S'972'
p170
tp171
asS'ReactHyperNEAT/HyperNEAT/boost_1_57_0/libs/mpi/doc/mpi.qbk'
p172
(lp173
(S'MPI_Init()'
p174
S'115'
p175
tp176
a(S'MPI_Comm_rank()'
p177
S'118'
p178
tp179
a(S'MPI_Send()'
p180
S'121'
p181
tp182
a(S'MPI_Recv()'
p183
S'126'
p184
tp185
a(S'MPI_Finalize()'
p186
S'131'
p187
tp188
asS'ReactHyperNEAT/HyperNEAT/boost_1_57_0/libs/mpi/src/mpi_datatype_cache.cpp'
p189
(lp190
(S'MPI_Type_free()'
p191
S'36'
p192
tp193
asS'ReactHyperNEAT/HyperNEAT/NE/HyperNEAT/Hypercube_NEAT/src/HCUBE_MPIEvaluationSet.cpp'
p194
(lp195
(S'X_MPI_EVALUATION_SET_DEBUG()'
p196
S'5'
p197
tp198
asS'ReactHyperNEAT/HyperNEAT/boost_1_57_0/libs/graph_parallel/src/mpi_process_group.cpp'
p199
(lp200
(S'MPI_Cancel()'
p201
S'141'
p202
tp203
a(S'MPI_Isend()'
p204
S'560'
p205
tp206
a(S'X_MPI_PACKED()'
p207
S'561'
p208
tp209
a(S'MPI_Test()'
p210
S'569'
p211
tp212
a(S'MPI_Get_count()'
p213
S'731'
p214
tp215
a(S'MPI_Recv()'
p216
S'738'
p217
tp218
a(S'MPI_Isend()'
p219
S'822'
p220
tp221
a(S'MPI_Test()'
p222
S'826'
p223
tp224
a(S'MPI_Testsome()'
p225
S'929'
p226
tp227
a(S'MPI_Test()'
p228
S'1036'
p229
tp230
a(S'MPI_Test()'
p231
S'1047'
p232
tp233
a(S'MPI_Buffer_detach()'
p234
S'1094'
p235
tp236
a(S'MPI_Buffer_detach()'
p237
S'1099'
p238
tp239
a(S'MPI_Buffer_attach()'
p240
S'1102'
p241
tp242
a(S'MPI_Buffer_attach()'
p243
S'1104'
p244
tp245
asS'ReactHyperNEAT/HyperNEAT/boost_1_57_0/libs/mpi/test/broadcast_test.cpp'
p246
(lp247
(S'MPI_Abort()'
p248
S'135'
p249
tp250
asS'ReactHyperNEAT/HyperNEAT/boost_1_57_0/libs/mpi/example/reduce_performance_test.cpp'
p251
(lp252
(S'MPI_Reduce()'
p253
S'94'
p254
tp255
asS'ReactHyperNEAT/HyperNEAT/boost_1_57_0/boost/graph/distributed/page_rank.hpp'
p256
(lp257
(S'MPI_Comm_rank()'
p258
S'40'
p259
tp260
a(S'MPI_Accumulate()'
p261
S'53'
p262
tp263
a(S'MPI_Win_fence()'
p264
S'60'
p265
tp266
a(S'MPI_Comm_rank()'
p267
S'90'
p268
tp269
a(S'MPI_Win_create()'
p270
S'115'
p271
tp272
a(S'X_MPI_INFO_NULL()'
p273
S'118'
p274
tp275
a(S'MPI_Win_set_name()'
p276
S'119'
p277
tp278
a(S'MPI_Win_create()'
p279
S'120'
p280
tp281
a(S'X_MPI_INFO_NULL()'
p282
S'123'
p283
tp284
a(S'MPI_Win_set_name()'
p285
S'124'
p286
tp287
a(S'MPI_Win_fence()'
p288
S'129'
p289
tp290
a(S'MPI_Win_fence()'
p291
S'130'
p292
tp293
a(S'MPI_Win_free()'
p294
S'144'
p295
tp296
a(S'MPI_Win_free()'
p297
S'145'
p298
tp299
asS'ReactHyperNEAT/HyperNEAT/boost_1_57_0/boost/mpi/operations.hpp'
p300
(lp301
(S'MPI_Op_free()'
p302
S'293'
p303
tp304
asS'ReactHyperNEAT/HyperNEAT/boost_1_57_0/libs/mpi/src/communicator.cpp'
p305
(lp306
(S'MPI_Errhandler_set()'
p307
S'46'
p308
tp309
asS'ReactHyperNEAT/HyperNEAT/boost_1_57_0/libs/mpi/src/exception.cpp'
p310
(lp311
(S'MPI_Error_string()'
p312
S'19'
p313
tp314
asS'ReactHyperNEAT/HyperNEAT/boost_1_57_0/boost/graph/distributed/mpi_process_group.hpp'
p315
(lp316
(S'MPI_Bsend()'
p317
S'708'
p318
tp319
a(S'MPI_Isend()'
p320
S'714'
p321
tp322
a(S'MPI_Test()'
p323
S'720'
p324
tp325
a(S'MPI_Bsend()'
p326
S'744'
p327
tp328
a(S'MPI_Isend()'
p329
S'750'
p330
tp331
a(S'MPI_Test()'
p332
S'756'
p333
tp334
asS'ReactHyperNEAT/HyperNEAT/boost_1_57_0/libs/mpi/test/skeleton_content_test.cpp'
p335
(lp336
(S'MPI_Abort()'
p337
S'199'
p338
tp339
asS'ReactHyperNEAT/HyperNEAT/boost_1_57_0/libs/graph_parallel/test/distributed_betweenness_centrality_test.cpp'
p340
(lp341
(S'MPI_Abort()'
p342
S'292'
p343
tp344
as.