ccollections
defaultdict
p0
(c__builtin__
list
p1
tp2
Rp3
S'android_packages_apps_OTAUpdates/jni/boost_1_57_0/libs/mpi/src/exception.cpp'
p4
(lp5
(S'MPI_Error_string()'
p6
S'19'
p7
tp8
asS'android_packages_apps_OTAUpdates/jni/boost_1_57_0/libs/graph_parallel/src/mpi_process_group.cpp'
p9
(lp10
(S'MPI_Cancel()'
p11
S'141'
p12
tp13
a(S'MPI_Isend()'
p14
S'560'
p15
tp16
a(S'X_MPI_PACKED()'
p17
S'561'
p18
tp19
a(S'MPI_Test()'
p20
S'569'
p21
tp22
a(S'MPI_Get_count()'
p23
S'731'
p24
tp25
a(S'MPI_Recv()'
p26
S'738'
p27
tp28
a(S'MPI_Isend()'
p29
S'822'
p30
tp31
a(S'MPI_Test()'
p32
S'826'
p33
tp34
a(S'MPI_Testsome()'
p35
S'929'
p36
tp37
a(S'MPI_Test()'
p38
S'1036'
p39
tp40
a(S'MPI_Test()'
p41
S'1047'
p42
tp43
a(S'MPI_Buffer_detach()'
p44
S'1094'
p45
tp46
a(S'MPI_Buffer_detach()'
p47
S'1099'
p48
tp49
a(S'MPI_Buffer_attach()'
p50
S'1102'
p51
tp52
a(S'MPI_Buffer_attach()'
p53
S'1104'
p54
tp55
asS'android_packages_apps_OTAUpdates/jni/boost_1_57_0/boost/mpi/datatype.hpp'
p56
(lp57
(S'X_MPI_LONG_DOUBLE_INT()'
p58
S'250'
p59
tp60
a(S'MPI_Type_contiguous()'
p61
S'310'
p62
tp63
a(S'MPI_Type_commit()'
p64
S'311'
p65
tp66
asS'android_packages_apps_OTAUpdates/jni/boost_1_57_0/libs/mpi/doc/mpi.qbk'
p67
(lp68
(S'MPI_Init()'
p69
S'115'
p70
tp71
a(S'MPI_Comm_rank()'
p72
S'118'
p73
tp74
a(S'MPI_Send()'
p75
S'121'
p76
tp77
a(S'MPI_Recv()'
p78
S'126'
p79
tp80
a(S'MPI_Finalize()'
p81
S'131'
p82
tp83
asS'android_packages_apps_OTAUpdates/jni/boost_1_57_0/boost/mpi/communicator.hpp'
p84
(lp85
(S'MPI_Comm()'
p86
S'1428'
p87
tp88
a(S'MPI_Comm()'
p89
S'1451'
p90
tp91
a(S'MPI_Comm()'
p92
S'1487'
p93
tp94
a(S'MPI_Comm()'
p95
S'1510'
p96
tp97
asS'android_packages_apps_OTAUpdates/jni/boost_1_57_0/boost/mpi/timer.hpp'
p98
(lp99
(S'MPI_Wtime()'
p100
S'71'
p101
tp102
asS'android_packages_apps_OTAUpdates/jni/boost_1_57_0/boost/graph/distributed/mpi_process_group.hpp'
p103
(lp104
(S'MPI_Bsend()'
p105
S'708'
p106
tp107
a(S'MPI_Isend()'
p108
S'714'
p109
tp110
a(S'MPI_Test()'
p111
S'720'
p112
tp113
a(S'MPI_Bsend()'
p114
S'744'
p115
tp116
a(S'MPI_Isend()'
p117
S'750'
p118
tp119
a(S'MPI_Test()'
p120
S'756'
p121
tp122
asS'android_packages_apps_OTAUpdates/jni/boost_1_57_0/libs/mpi/example/reduce_performance_test.cpp'
p123
(lp124
(S'MPI_Reduce()'
p125
S'94'
p126
tp127
asS'android_packages_apps_OTAUpdates/jni/boost_1_57_0/boost/mpi/allocator.hpp'
p128
(lp129
(S'X_MPI_INFO_NULL()'
p130
S'141'
p131
tp132
asS'android_packages_apps_OTAUpdates/jni/boost_1_57_0/boost/mpi/operations.hpp'
p133
(lp134
(S'MPI_Op_free()'
p135
S'293'
p136
tp137
asS'android_packages_apps_OTAUpdates/jni/boost_1_57_0/libs/mpi/test/skeleton_content_test.cpp'
p138
(lp139
(S'MPI_Abort()'
p140
S'199'
p141
tp142
asS'android_packages_apps_OTAUpdates/jni/boost_1_57_0/libs/mpi/test/ring_test.cpp'
p143
(lp144
(S'MPI_Abort()'
p145
S'95'
p146
tp147
asS'android_packages_apps_OTAUpdates/jni/boost_1_57_0/libs/mpi/src/mpi_datatype_cache.cpp'
p148
(lp149
(S'MPI_Type_free()'
p150
S'36'
p151
tp152
asS'android_packages_apps_OTAUpdates/jni/boost_1_57_0/libs/mpi/src/request.cpp'
p153
(lp154
(S'MPI_Waitall()'
p155
S'39'
p156
tp157
a(S'MPI_Testall()'
p158
S'82'
p159
tp160
asS'android_packages_apps_OTAUpdates/jni/boost_1_57_0/boost/mpi/exception.hpp'
p161
(lp162
(S'MPI_Error_class()'
p163
S'73'
p164
tp165
asS'android_packages_apps_OTAUpdates/jni/boost_1_57_0/libs/mpi/src/communicator.cpp'
p166
(lp167
(S'MPI_Errhandler_set()'
p168
S'46'
p169
tp170
asS'android_packages_apps_OTAUpdates/jni/boost_1_57_0/libs/mpi/src/point_to_point.cpp'
p171
(lp172
(S'X_MPI_PACKED()'
p173
S'38'
p174
tp175
a(S'X_MPI_PACKED()'
p176
S'55'
p177
tp178
a(S'X_MPI_PACKED()'
p179
S'75'
p180
tp181
asS'android_packages_apps_OTAUpdates/jni/boost_1_57_0/libs/mpi/test/broadcast_test.cpp'
p182
(lp183
(S'MPI_Abort()'
p184
S'135'
p185
tp186
asS'android_packages_apps_OTAUpdates/jni/boost_1_57_0/libs/mpi/src/environment.cpp'
p187
(lp188
(S'MPI_Errhandler_set()'
p189
S'74'
p190
tp191
a(S'MPI_Errhandler_set()'
p192
S'89'
p193
tp194
a(S'MPI_Errhandler_set()'
p195
S'102'
p196
tp197
a(S'MPI_Errhandler_set()'
p198
S'118'
p199
tp200
asS'android_packages_apps_OTAUpdates/jni/boost_1_57_0/libs/graph_parallel/test/distributed_betweenness_centrality_test.cpp'
p201
(lp202
(S'MPI_Abort()'
p203
S'292'
p204
tp205
asS'android_packages_apps_OTAUpdates/jni/boost_1_57_0/boost/graph/distributed/detail/mpi_process_group.ipp'
p206
(lp207
(S'MPI_Recv()'
p208
S'492'
p209
tp210
a(S'MPI_Get_count()'
p211
S'510'
p212
tp213
a(S'MPI_Recv()'
p214
S'516'
p215
tp216
a(S'MPI_Irecv()'
p217
S'665'
p218
tp219
a(S'X_MPI_PACKED()'
p220
S'666'
p221
tp222
a(S'MPI_Allgather()'
p223
S'837'
p224
tp225
a(S'MPI_Allgatherv()'
p226
S'856'
p227
tp228
a(S'X_MPI_BYTE()'
p229
S'859'
p230
tp231
a(S'MPI_Comm_group()'
p232
S'880'
p233
tp234
a(S'MPI_Group_incl()'
p235
S'884'
p236
tp237
a(S'MPI_Comm_create()'
p238
S'888'
p239
tp240
a(S'MPI_Group_free()'
p241
S'891'
p242
tp243
a(S'MPI_Group_free()'
p244
S'893'
p245
tp246
a(S'MPI_Comm_free()'
p247
S'898'
p248
tp249
a(S'MPI_Irecv()'
p250
S'929'
p251
tp252
a(S'MPI_Test()'
p253
S'934'
p254
tp255
a(S'MPI_Get_count()'
p256
S'967'
p257
tp258
a(S'MPI_Recv()'
p259
S'972'
p260
tp261
asS'android_packages_apps_OTAUpdates/jni/boost_1_57_0/boost/graph/distributed/page_rank.hpp'
p262
(lp263
(S'MPI_Comm_rank()'
p264
S'40'
p265
tp266
a(S'MPI_Accumulate()'
p267
S'53'
p268
tp269
a(S'MPI_Win_fence()'
p270
S'60'
p271
tp272
a(S'MPI_Comm_rank()'
p273
S'90'
p274
tp275
a(S'MPI_Win_create()'
p276
S'115'
p277
tp278
a(S'X_MPI_INFO_NULL()'
p279
S'118'
p280
tp281
a(S'MPI_Win_set_name()'
p282
S'119'
p283
tp284
a(S'MPI_Win_create()'
p285
S'120'
p286
tp287
a(S'X_MPI_INFO_NULL()'
p288
S'123'
p289
tp290
a(S'MPI_Win_set_name()'
p291
S'124'
p292
tp293
a(S'MPI_Win_fence()'
p294
S'129'
p295
tp296
a(S'MPI_Win_fence()'
p297
S'130'
p298
tp299
a(S'MPI_Win_free()'
p300
S'144'
p301
tp302
a(S'MPI_Win_free()'
p303
S'145'
p304
tp305
as.