ccollections
defaultdict
p0
(c__builtin__
list
p1
tp2
Rp3
S'windowsLibs/2013/boost/inc/boost/mpi/timer.hpp'
p4
(lp5
(S'MPI_Wtime()'
p6
S'71'
p7
tp8
asS'windowsLibs/2013/boost/inc/boost/graph/distributed/page_rank.hpp'
p9
(lp10
(S'MPI_Comm_rank()'
p11
S'40'
p12
tp13
a(S'MPI_Accumulate()'
p14
S'53'
p15
tp16
a(S'MPI_Win_fence()'
p17
S'60'
p18
tp19
a(S'MPI_Comm_rank()'
p20
S'90'
p21
tp22
a(S'MPI_Win_create()'
p23
S'115'
p24
tp25
a(S'X_MPI_INFO_NULL()'
p26
S'118'
p27
tp28
a(S'MPI_Win_set_name()'
p29
S'119'
p30
tp31
a(S'MPI_Win_create()'
p32
S'120'
p33
tp34
a(S'X_MPI_INFO_NULL()'
p35
S'123'
p36
tp37
a(S'MPI_Win_set_name()'
p38
S'124'
p39
tp40
a(S'MPI_Win_fence()'
p41
S'129'
p42
tp43
a(S'MPI_Win_fence()'
p44
S'130'
p45
tp46
a(S'MPI_Win_free()'
p47
S'144'
p48
tp49
a(S'MPI_Win_free()'
p50
S'145'
p51
tp52
asS'windowsLibs/2013/boost/inc/boost/mpi/allocator.hpp'
p53
(lp54
(S'X_MPI_INFO_NULL()'
p55
S'141'
p56
tp57
asS'windowsLibs/2012/boost/inc/boost/mpi/timer.hpp'
p58
(lp59
(S'MPI_Wtime()'
p60
S'71'
p61
tp62
asS'windowsLibs/2013/boost/inc/boost/graph/distributed/detail/mpi_process_group.ipp'
p63
(lp64
(S'MPI_Recv()'
p65
S'492'
p66
tp67
a(S'MPI_Get_count()'
p68
S'510'
p69
tp70
a(S'MPI_Recv()'
p71
S'516'
p72
tp73
a(S'MPI_Irecv()'
p74
S'665'
p75
tp76
a(S'X_MPI_PACKED()'
p77
S'666'
p78
tp79
a(S'MPI_Allgather()'
p80
S'837'
p81
tp82
a(S'MPI_Allgatherv()'
p83
S'856'
p84
tp85
a(S'X_MPI_BYTE()'
p86
S'859'
p87
tp88
a(S'MPI_Comm_group()'
p89
S'880'
p90
tp91
a(S'MPI_Group_incl()'
p92
S'884'
p93
tp94
a(S'MPI_Comm_create()'
p95
S'888'
p96
tp97
a(S'MPI_Group_free()'
p98
S'891'
p99
tp100
a(S'MPI_Group_free()'
p101
S'893'
p102
tp103
a(S'MPI_Comm_free()'
p104
S'898'
p105
tp106
a(S'MPI_Irecv()'
p107
S'929'
p108
tp109
a(S'MPI_Test()'
p110
S'934'
p111
tp112
a(S'MPI_Get_count()'
p113
S'967'
p114
tp115
a(S'MPI_Recv()'
p116
S'972'
p117
tp118
asS'windowsLibs/2013/boost/inc/boost/mpi/exception.hpp'
p119
(lp120
(S'MPI_Error_class()'
p121
S'73'
p122
tp123
asS'windowsLibs/2013/boost/inc/boost/graph/distributed/mpi_process_group.hpp'
p124
(lp125
(S'MPI_Bsend()'
p126
S'708'
p127
tp128
a(S'MPI_Isend()'
p129
S'714'
p130
tp131
a(S'MPI_Test()'
p132
S'720'
p133
tp134
a(S'MPI_Bsend()'
p135
S'744'
p136
tp137
a(S'MPI_Isend()'
p138
S'750'
p139
tp140
a(S'MPI_Test()'
p141
S'756'
p142
tp143
asS'windowsLibs/2012/boost/inc/boost/mpi/exception.hpp'
p144
(lp145
(S'MPI_Error_class()'
p146
S'73'
p147
tp148
asS'windowsLibs/2013/boost/inc/boost/mpi/datatype.hpp'
p149
(lp150
(S'X_MPI_LONG_DOUBLE_INT()'
p151
S'250'
p152
tp153
a(S'MPI_Type_contiguous()'
p154
S'310'
p155
tp156
a(S'MPI_Type_commit()'
p157
S'311'
p158
tp159
asS'windowsLibs/2012/boost/inc/boost/graph/distributed/mpi_process_group.hpp'
p160
(lp161
(S'MPI_Bsend()'
p162
S'708'
p163
tp164
a(S'MPI_Isend()'
p165
S'714'
p166
tp167
a(S'MPI_Test()'
p168
S'720'
p169
tp170
a(S'MPI_Bsend()'
p171
S'744'
p172
tp173
a(S'MPI_Isend()'
p174
S'750'
p175
tp176
a(S'MPI_Test()'
p177
S'756'
p178
tp179
asS'windowsLibs/2012/boost/inc/boost/mpi/datatype.hpp'
p180
(lp181
(S'X_MPI_LONG_DOUBLE_INT()'
p182
S'250'
p183
tp184
a(S'MPI_Type_contiguous()'
p185
S'310'
p186
tp187
a(S'MPI_Type_commit()'
p188
S'311'
p189
tp190
asS'windowsLibs/2012/boost/inc/boost/graph/distributed/page_rank.hpp'
p191
(lp192
(S'MPI_Comm_rank()'
p193
S'40'
p194
tp195
a(S'MPI_Accumulate()'
p196
S'53'
p197
tp198
a(S'MPI_Win_fence()'
p199
S'60'
p200
tp201
a(S'MPI_Comm_rank()'
p202
S'90'
p203
tp204
a(S'MPI_Win_create()'
p205
S'115'
p206
tp207
a(S'X_MPI_INFO_NULL()'
p208
S'118'
p209
tp210
a(S'MPI_Win_set_name()'
p211
S'119'
p212
tp213
a(S'MPI_Win_create()'
p214
S'120'
p215
tp216
a(S'X_MPI_INFO_NULL()'
p217
S'123'
p218
tp219
a(S'MPI_Win_set_name()'
p220
S'124'
p221
tp222
a(S'MPI_Win_fence()'
p223
S'129'
p224
tp225
a(S'MPI_Win_fence()'
p226
S'130'
p227
tp228
a(S'MPI_Win_free()'
p229
S'144'
p230
tp231
a(S'MPI_Win_free()'
p232
S'145'
p233
tp234
asS'windowsLibs/2012/boost/inc/boost/mpi/communicator.hpp'
p235
(lp236
(S'MPI_Comm()'
p237
S'1428'
p238
tp239
a(S'MPI_Comm()'
p240
S'1451'
p241
tp242
a(S'MPI_Comm()'
p243
S'1487'
p244
tp245
a(S'MPI_Comm()'
p246
S'1510'
p247
tp248
asS'windowsLibs/2013/boost/inc/boost/mpi/operations.hpp'
p249
(lp250
(S'MPI_Op_free()'
p251
S'293'
p252
tp253
asS'windowsLibs/2012/boost/inc/boost/mpi/operations.hpp'
p254
(lp255
(S'MPI_Op_free()'
p256
S'293'
p257
tp258
asS'windowsLibs/2012/boost/inc/boost/mpi/allocator.hpp'
p259
(lp260
(S'X_MPI_INFO_NULL()'
p261
S'141'
p262
tp263
asS'windowsLibs/2012/boost/inc/boost/graph/distributed/detail/mpi_process_group.ipp'
p264
(lp265
(S'MPI_Recv()'
p266
S'492'
p267
tp268
a(S'MPI_Get_count()'
p269
S'510'
p270
tp271
a(S'MPI_Recv()'
p272
S'516'
p273
tp274
a(S'MPI_Irecv()'
p275
S'665'
p276
tp277
a(S'X_MPI_PACKED()'
p278
S'666'
p279
tp280
a(S'MPI_Allgather()'
p281
S'837'
p282
tp283
a(S'MPI_Allgatherv()'
p284
S'856'
p285
tp286
a(S'X_MPI_BYTE()'
p287
S'859'
p288
tp289
a(S'MPI_Comm_group()'
p290
S'880'
p291
tp292
a(S'MPI_Group_incl()'
p293
S'884'
p294
tp295
a(S'MPI_Comm_create()'
p296
S'888'
p297
tp298
a(S'MPI_Group_free()'
p299
S'891'
p300
tp301
a(S'MPI_Group_free()'
p302
S'893'
p303
tp304
a(S'MPI_Comm_free()'
p305
S'898'
p306
tp307
a(S'MPI_Irecv()'
p308
S'929'
p309
tp310
a(S'MPI_Test()'
p311
S'934'
p312
tp313
a(S'MPI_Get_count()'
p314
S'967'
p315
tp316
a(S'MPI_Recv()'
p317
S'972'
p318
tp319
asS'windowsLibs/2013/boost/inc/boost/mpi/communicator.hpp'
p320
(lp321
(S'MPI_Comm()'
p322
S'1428'
p323
tp324
a(S'MPI_Comm()'
p325
S'1451'
p326
tp327
a(S'MPI_Comm()'
p328
S'1487'
p329
tp330
a(S'MPI_Comm()'
p331
S'1510'
p332
tp333
as.