ccollections
defaultdict
p0
(c__builtin__
list
p1
tp2
Rp3
S'gestoos-cinder-samples/lib/macos/cinder_0.8.6_mac/boost/boost/mpi/exception.hpp'
p4
(lp5
(S'MPI_Error_class()'
p6
S'73'
p7
tp8
asS'gestoos-cinder-samples/lib/win64/cinder_0.8.6_win/boost/boost/mpi/communicator.hpp'
p9
(lp10
(S'MPI_Comm()'
p11
S'1428'
p12
tp13
a(S'MPI_Comm()'
p14
S'1451'
p15
tp16
a(S'MPI_Comm()'
p17
S'1487'
p18
tp19
a(S'MPI_Comm()'
p20
S'1510'
p21
tp22
asS'gestoos-cinder-samples/lib/macos/cinder_0.8.6_mac/boost/boost/graph/distributed/detail/mpi_process_group.ipp'
p23
(lp24
(S'MPI_Recv()'
p25
S'492'
p26
tp27
a(S'MPI_Get_count()'
p28
S'510'
p29
tp30
a(S'MPI_Recv()'
p31
S'516'
p32
tp33
a(S'MPI_Irecv()'
p34
S'665'
p35
tp36
a(S'X_MPI_PACKED()'
p37
S'666'
p38
tp39
a(S'MPI_Allgather()'
p40
S'837'
p41
tp42
a(S'MPI_Allgatherv()'
p43
S'856'
p44
tp45
a(S'X_MPI_BYTE()'
p46
S'859'
p47
tp48
a(S'MPI_Comm_group()'
p49
S'880'
p50
tp51
a(S'MPI_Group_incl()'
p52
S'884'
p53
tp54
a(S'MPI_Comm_create()'
p55
S'888'
p56
tp57
a(S'MPI_Group_free()'
p58
S'891'
p59
tp60
a(S'MPI_Group_free()'
p61
S'893'
p62
tp63
a(S'MPI_Comm_free()'
p64
S'898'
p65
tp66
a(S'MPI_Irecv()'
p67
S'929'
p68
tp69
a(S'MPI_Test()'
p70
S'934'
p71
tp72
a(S'MPI_Get_count()'
p73
S'967'
p74
tp75
a(S'MPI_Recv()'
p76
S'972'
p77
tp78
asS'gestoos-cinder-samples/lib/win64/cinder_0.8.6_win/boost/boost/graph/distributed/mpi_process_group.hpp'
p79
(lp80
(S'MPI_Bsend()'
p81
S'708'
p82
tp83
a(S'MPI_Isend()'
p84
S'714'
p85
tp86
a(S'MPI_Test()'
p87
S'720'
p88
tp89
a(S'MPI_Bsend()'
p90
S'744'
p91
tp92
a(S'MPI_Isend()'
p93
S'750'
p94
tp95
a(S'MPI_Test()'
p96
S'756'
p97
tp98
asS'gestoos-cinder-samples/lib/macos/cinder_0.8.6_mac/boost/boost/mpi/timer.hpp'
p99
(lp100
(S'MPI_Wtime()'
p101
S'71'
p102
tp103
asS'gestoos-cinder-samples/lib/win64/cinder_0.8.6_win/boost/boost/graph/distributed/detail/mpi_process_group.ipp'
p104
(lp105
(S'MPI_Recv()'
p106
S'492'
p107
tp108
a(S'MPI_Get_count()'
p109
S'510'
p110
tp111
a(S'MPI_Recv()'
p112
S'516'
p113
tp114
a(S'MPI_Irecv()'
p115
S'665'
p116
tp117
a(S'X_MPI_PACKED()'
p118
S'666'
p119
tp120
a(S'MPI_Allgather()'
p121
S'837'
p122
tp123
a(S'MPI_Allgatherv()'
p124
S'856'
p125
tp126
a(S'X_MPI_BYTE()'
p127
S'859'
p128
tp129
a(S'MPI_Comm_group()'
p130
S'880'
p131
tp132
a(S'MPI_Group_incl()'
p133
S'884'
p134
tp135
a(S'MPI_Comm_create()'
p136
S'888'
p137
tp138
a(S'MPI_Group_free()'
p139
S'891'
p140
tp141
a(S'MPI_Group_free()'
p142
S'893'
p143
tp144
a(S'MPI_Comm_free()'
p145
S'898'
p146
tp147
a(S'MPI_Irecv()'
p148
S'929'
p149
tp150
a(S'MPI_Test()'
p151
S'934'
p152
tp153
a(S'MPI_Get_count()'
p154
S'967'
p155
tp156
a(S'MPI_Recv()'
p157
S'972'
p158
tp159
asS'gestoos-cinder-samples/lib/win64/cinder_0.8.6_win/boost/boost/mpi/allocator.hpp'
p160
(lp161
(S'X_MPI_INFO_NULL()'
p162
S'141'
p163
tp164
asS'gestoos-cinder-samples/lib/macos/cinder_0.8.6_mac/boost/boost/graph/distributed/page_rank.hpp'
p165
(lp166
(S'MPI_Comm_rank()'
p167
S'40'
p168
tp169
a(S'MPI_Accumulate()'
p170
S'53'
p171
tp172
a(S'MPI_Win_fence()'
p173
S'60'
p174
tp175
a(S'MPI_Comm_rank()'
p176
S'90'
p177
tp178
a(S'MPI_Win_create()'
p179
S'115'
p180
tp181
a(S'X_MPI_INFO_NULL()'
p182
S'118'
p183
tp184
a(S'MPI_Win_set_name()'
p185
S'119'
p186
tp187
a(S'MPI_Win_create()'
p188
S'120'
p189
tp190
a(S'X_MPI_INFO_NULL()'
p191
S'123'
p192
tp193
a(S'MPI_Win_set_name()'
p194
S'124'
p195
tp196
a(S'MPI_Win_fence()'
p197
S'129'
p198
tp199
a(S'MPI_Win_fence()'
p200
S'130'
p201
tp202
a(S'MPI_Win_free()'
p203
S'144'
p204
tp205
a(S'MPI_Win_free()'
p206
S'145'
p207
tp208
asS'gestoos-cinder-samples/lib/win64/cinder_0.8.6_win/boost/boost/mpi/datatype.hpp'
p209
(lp210
(S'X_MPI_LONG_DOUBLE_INT()'
p211
S'250'
p212
tp213
a(S'MPI_Type_contiguous()'
p214
S'310'
p215
tp216
a(S'MPI_Type_commit()'
p217
S'311'
p218
tp219
asS'gestoos-cinder-samples/lib/macos/cinder_0.8.6_mac/boost/boost/mpi/allocator.hpp'
p220
(lp221
(S'X_MPI_INFO_NULL()'
p222
S'141'
p223
tp224
asS'gestoos-cinder-samples/lib/win64/cinder_0.8.6_win/boost/boost/mpi/timer.hpp'
p225
(lp226
(S'MPI_Wtime()'
p227
S'71'
p228
tp229
asS'gestoos-cinder-samples/lib/macos/cinder_0.8.6_mac/boost/boost/mpi/communicator.hpp'
p230
(lp231
(S'MPI_Comm()'
p232
S'1428'
p233
tp234
a(S'MPI_Comm()'
p235
S'1451'
p236
tp237
a(S'MPI_Comm()'
p238
S'1487'
p239
tp240
a(S'MPI_Comm()'
p241
S'1510'
p242
tp243
asS'gestoos-cinder-samples/lib/macos/cinder_0.8.6_mac/boost/boost/mpi/operations.hpp'
p244
(lp245
(S'MPI_Op_free()'
p246
S'293'
p247
tp248
asS'gestoos-cinder-samples/lib/win64/cinder_0.8.6_win/boost/boost/mpi/exception.hpp'
p249
(lp250
(S'MPI_Error_class()'
p251
S'73'
p252
tp253
asS'gestoos-cinder-samples/lib/macos/cinder_0.8.6_mac/boost/boost/graph/distributed/mpi_process_group.hpp'
p254
(lp255
(S'MPI_Bsend()'
p256
S'708'
p257
tp258
a(S'MPI_Isend()'
p259
S'714'
p260
tp261
a(S'MPI_Test()'
p262
S'720'
p263
tp264
a(S'MPI_Bsend()'
p265
S'744'
p266
tp267
a(S'MPI_Isend()'
p268
S'750'
p269
tp270
a(S'MPI_Test()'
p271
S'756'
p272
tp273
asS'gestoos-cinder-samples/lib/macos/cinder_0.8.6_mac/boost/boost/mpi/datatype.hpp'
p274
(lp275
(S'X_MPI_LONG_DOUBLE_INT()'
p276
S'250'
p277
tp278
a(S'MPI_Type_contiguous()'
p279
S'310'
p280
tp281
a(S'MPI_Type_commit()'
p282
S'311'
p283
tp284
asS'gestoos-cinder-samples/lib/win64/cinder_0.8.6_win/boost/boost/mpi/operations.hpp'
p285
(lp286
(S'MPI_Op_free()'
p287
S'293'
p288
tp289
asS'gestoos-cinder-samples/lib/win64/cinder_0.8.6_win/boost/boost/graph/distributed/page_rank.hpp'
p290
(lp291
(S'MPI_Comm_rank()'
p292
S'40'
p293
tp294
a(S'MPI_Accumulate()'
p295
S'53'
p296
tp297
a(S'MPI_Win_fence()'
p298
S'60'
p299
tp300
a(S'MPI_Comm_rank()'
p301
S'90'
p302
tp303
a(S'MPI_Win_create()'
p304
S'115'
p305
tp306
a(S'X_MPI_INFO_NULL()'
p307
S'118'
p308
tp309
a(S'MPI_Win_set_name()'
p310
S'119'
p311
tp312
a(S'MPI_Win_create()'
p313
S'120'
p314
tp315
a(S'X_MPI_INFO_NULL()'
p316
S'123'
p317
tp318
a(S'MPI_Win_set_name()'
p319
S'124'
p320
tp321
a(S'MPI_Win_fence()'
p322
S'129'
p323
tp324
a(S'MPI_Win_fence()'
p325
S'130'
p326
tp327
a(S'MPI_Win_free()'
p328
S'144'
p329
tp330
a(S'MPI_Win_free()'
p331
S'145'
p332
tp333
as.