ccollections
defaultdict
p0
(c__builtin__
list
p1
tp2
Rp3
S'config_files/egs_config/_vim/pack/features/start/YouCompleteMe/third_party/ycmd/cpp/BoostParts/boost/mpi/operations.hpp'
p4
(lp5
(S'MPI_Op_free()'
p6
S'293'
p7
tp8
asS'config_files/egs_config/_vim/pack/features/start/YouCompleteMe/third_party/ycmd/cpp/BoostParts/boost/mpi/exception.hpp'
p9
(lp10
(S'MPI_Error_class()'
p11
S'73'
p12
tp13
asS'config_files/egs_config/_vim/pack/features/start/YouCompleteMe/third_party/ycmd/cpp/BoostParts/boost/mpi/allocator.hpp'
p14
(lp15
(S'X_MPI_INFO_NULL()'
p16
S'141'
p17
tp18
asS'config_files/egs_config/_vim/pack/features/start/YouCompleteMe/third_party/ycmd/cpp/BoostParts/boost/mpi/datatype.hpp'
p19
(lp20
(S'X_MPI_LONG_DOUBLE_INT()'
p21
S'254'
p22
tp23
a(S'MPI_Type_contiguous()'
p24
S'323'
p25
tp26
a(S'MPI_Type_commit()'
p27
S'324'
p28
tp29
asS'config_files/egs_config/_vim/pack/features/start/YouCompleteMe/third_party/ycmd/cpp/BoostParts/boost/mpi/communicator.hpp'
p30
(lp31
(S'MPI_Comm()'
p32
S'1366'
p33
tp34
a(S'MPI_Comm()'
p35
S'1566'
p36
tp37
a(S'MPI_Comm()'
p38
S'1589'
p39
tp40
a(S'MPI_Comm()'
p41
S'1625'
p42
tp43
a(S'MPI_Comm()'
p44
S'1648'
p45
tp46
asS'config_files/egs_config/_vim/pack/features/start/YouCompleteMe/third_party/ycmd/cpp/BoostParts/boost/mpi/timer.hpp'
p47
(lp48
(S'MPI_Wtime()'
p49
S'71'
p50
tp51
as.