ccollections
defaultdict
p0
(c__builtin__
list
p1
tp2
Rp3
S'AndroidFacedemo/app/src/main/cpp/include/boost/mpi/datatype.hpp'
p4
(lp5
(S'X_MPI_LONG_DOUBLE_INT()'
p6
S'254'
p7
tp8
a(S'MPI_Type_contiguous()'
p9
S'323'
p10
tp11
a(S'MPI_Type_commit()'
p12
S'324'
p13
tp14
asS'AndroidFacedemo/prebuilts/boost/include/boost/graph/distributed/detail/mpi_process_group.ipp'
p15
(lp16
(S'MPI_Recv()'
p17
S'493'
p18
tp19
a(S'MPI_Get_count()'
p20
S'511'
p21
tp22
a(S'MPI_Recv()'
p23
S'517'
p24
tp25
a(S'MPI_Irecv()'
p26
S'666'
p27
tp28
a(S'X_MPI_PACKED()'
p29
S'667'
p30
tp31
a(S'MPI_Allgather()'
p32
S'838'
p33
tp34
a(S'MPI_Allgatherv()'
p35
S'857'
p36
tp37
a(S'X_MPI_BYTE()'
p38
S'860'
p39
tp40
a(S'MPI_Comm_group()'
p41
S'881'
p42
tp43
a(S'MPI_Group_incl()'
p44
S'885'
p45
tp46
a(S'MPI_Comm_create()'
p47
S'889'
p48
tp49
a(S'MPI_Group_free()'
p50
S'892'
p51
tp52
a(S'MPI_Group_free()'
p53
S'894'
p54
tp55
a(S'MPI_Comm_free()'
p56
S'899'
p57
tp58
a(S'MPI_Irecv()'
p59
S'930'
p60
tp61
a(S'MPI_Test()'
p62
S'935'
p63
tp64
a(S'MPI_Get_count()'
p65
S'968'
p66
tp67
a(S'MPI_Recv()'
p68
S'973'
p69
tp70
asS'AndroidFacedemo/app/src/main/cpp/include/opencv2/flann/hdf5.h'
p71
(lp72
(S'MPI_Comm_size()'
p73
S'175'
p74
tp75
a(S'MPI_Comm_rank()'
p76
S'176'
p77
tp78
asS'AndroidFacedemo/prebuilts/boost/include/boost/graph/distributed/mpi_process_group.hpp'
p79
(lp80
(S'MPI_Bsend()'
p81
S'709'
p82
tp83
a(S'MPI_Isend()'
p84
S'715'
p85
tp86
a(S'MPI_Test()'
p87
S'721'
p88
tp89
a(S'MPI_Bsend()'
p90
S'745'
p91
tp92
a(S'MPI_Isend()'
p93
S'751'
p94
tp95
a(S'MPI_Test()'
p96
S'757'
p97
tp98
asS'AndroidFacedemo/prebuilts/boost/include/boost/mpi/allocator.hpp'
p99
(lp100
(S'X_MPI_INFO_NULL()'
p101
S'141'
p102
tp103
asS'AndroidFacedemo/app/src/main/cpp/include/boost/mpi/allocator.hpp'
p104
(lp105
(S'X_MPI_INFO_NULL()'
p106
S'141'
p107
tp108
asS'AndroidFacedemo/prebuilts/boost/include/boost/mpi/timer.hpp'
p109
(lp110
(S'MPI_Wtime()'
p111
S'71'
p112
tp113
asS'AndroidFacedemo/prebuilts/boost/include/boost/mpi/exception.hpp'
p114
(lp115
(S'MPI_Error_class()'
p116
S'73'
p117
tp118
asS'AndroidFacedemo/app/src/main/cpp/include/boost/graph/distributed/detail/mpi_process_group.ipp'
p119
(lp120
(S'MPI_Recv()'
p121
S'493'
p122
tp123
a(S'MPI_Get_count()'
p124
S'511'
p125
tp126
a(S'MPI_Recv()'
p127
S'517'
p128
tp129
a(S'MPI_Irecv()'
p130
S'666'
p131
tp132
a(S'X_MPI_PACKED()'
p133
S'667'
p134
tp135
a(S'MPI_Allgather()'
p136
S'838'
p137
tp138
a(S'MPI_Allgatherv()'
p139
S'857'
p140
tp141
a(S'X_MPI_BYTE()'
p142
S'860'
p143
tp144
a(S'MPI_Comm_group()'
p145
S'881'
p146
tp147
a(S'MPI_Group_incl()'
p148
S'885'
p149
tp150
a(S'MPI_Comm_create()'
p151
S'889'
p152
tp153
a(S'MPI_Group_free()'
p154
S'892'
p155
tp156
a(S'MPI_Group_free()'
p157
S'894'
p158
tp159
a(S'MPI_Comm_free()'
p160
S'899'
p161
tp162
a(S'MPI_Irecv()'
p163
S'930'
p164
tp165
a(S'MPI_Test()'
p166
S'935'
p167
tp168
a(S'MPI_Get_count()'
p169
S'968'
p170
tp171
a(S'MPI_Recv()'
p172
S'973'
p173
tp174
asS'AndroidFacedemo/app/src/main/cpp/include/boost/graph/distributed/page_rank.hpp'
p175
(lp176
(S'MPI_Comm_rank()'
p177
S'40'
p178
tp179
a(S'MPI_Accumulate()'
p180
S'53'
p181
tp182
a(S'MPI_Win_fence()'
p183
S'60'
p184
tp185
a(S'MPI_Comm_rank()'
p186
S'90'
p187
tp188
a(S'MPI_Win_create()'
p189
S'115'
p190
tp191
a(S'X_MPI_INFO_NULL()'
p192
S'118'
p193
tp194
a(S'MPI_Win_set_name()'
p195
S'119'
p196
tp197
a(S'MPI_Win_create()'
p198
S'120'
p199
tp200
a(S'X_MPI_INFO_NULL()'
p201
S'123'
p202
tp203
a(S'MPI_Win_set_name()'
p204
S'124'
p205
tp206
a(S'MPI_Win_fence()'
p207
S'129'
p208
tp209
a(S'MPI_Win_fence()'
p210
S'130'
p211
tp212
a(S'MPI_Win_free()'
p213
S'144'
p214
tp215
a(S'MPI_Win_free()'
p216
S'145'
p217
tp218
asS'AndroidFacedemo/prebuilts/boost/include/boost/graph/distributed/page_rank.hpp'
p219
(lp220
(S'MPI_Comm_rank()'
p221
S'40'
p222
tp223
a(S'MPI_Accumulate()'
p224
S'53'
p225
tp226
a(S'MPI_Win_fence()'
p227
S'60'
p228
tp229
a(S'MPI_Comm_rank()'
p230
S'90'
p231
tp232
a(S'MPI_Win_create()'
p233
S'115'
p234
tp235
a(S'X_MPI_INFO_NULL()'
p236
S'118'
p237
tp238
a(S'MPI_Win_set_name()'
p239
S'119'
p240
tp241
a(S'MPI_Win_create()'
p242
S'120'
p243
tp244
a(S'X_MPI_INFO_NULL()'
p245
S'123'
p246
tp247
a(S'MPI_Win_set_name()'
p248
S'124'
p249
tp250
a(S'MPI_Win_fence()'
p251
S'129'
p252
tp253
a(S'MPI_Win_fence()'
p254
S'130'
p255
tp256
a(S'MPI_Win_free()'
p257
S'144'
p258
tp259
a(S'MPI_Win_free()'
p260
S'145'
p261
tp262
asS'AndroidFacedemo/prebuilts/boost/include/boost/mpi/operations.hpp'
p263
(lp264
(S'MPI_Op_free()'
p265
S'293'
p266
tp267
asS'AndroidFacedemo/prebuilts/boost/include/boost/mpi/communicator.hpp'
p268
(lp269
(S'MPI_Comm()'
p270
S'1366'
p271
tp272
a(S'MPI_Comm()'
p273
S'1566'
p274
tp275
a(S'MPI_Comm()'
p276
S'1589'
p277
tp278
a(S'MPI_Comm()'
p279
S'1625'
p280
tp281
a(S'MPI_Comm()'
p282
S'1648'
p283
tp284
asS'AndroidFacedemo/app/src/main/cpp/include/boost/graph/distributed/mpi_process_group.hpp'
p285
(lp286
(S'MPI_Bsend()'
p287
S'709'
p288
tp289
a(S'MPI_Isend()'
p290
S'715'
p291
tp292
a(S'MPI_Test()'
p293
S'721'
p294
tp295
a(S'MPI_Bsend()'
p296
S'745'
p297
tp298
a(S'MPI_Isend()'
p299
S'751'
p300
tp301
a(S'MPI_Test()'
p302
S'757'
p303
tp304
asS'AndroidFacedemo/app/src/main/cpp/include/boost/mpi/exception.hpp'
p305
(lp306
(S'MPI_Error_class()'
p307
S'73'
p308
tp309
asS'AndroidFacedemo/prebuilts/opencv/sdk/native/jni/include/opencv2/flann/hdf5.h'
p310
(lp311
(S'MPI_Comm_size()'
p312
S'175'
p313
tp314
a(S'MPI_Comm_rank()'
p315
S'176'
p316
tp317
asS'AndroidFacedemo/app/src/main/cpp/include/boost/mpi/operations.hpp'
p318
(lp319
(S'MPI_Op_free()'
p320
S'293'
p321
tp322
asS'AndroidFacedemo/app/src/main/cpp/include/boost/mpi/communicator.hpp'
p323
(lp324
(S'MPI_Comm()'
p325
S'1366'
p326
tp327
a(S'MPI_Comm()'
p328
S'1566'
p329
tp330
a(S'MPI_Comm()'
p331
S'1589'
p332
tp333
a(S'MPI_Comm()'
p334
S'1625'
p335
tp336
a(S'MPI_Comm()'
p337
S'1648'
p338
tp339
asS'AndroidFacedemo/app/src/main/cpp/include/boost/mpi/timer.hpp'
p340
(lp341
(S'MPI_Wtime()'
p342
S'71'
p343
tp344
asS'AndroidFacedemo/prebuilts/boost/include/boost/mpi/datatype.hpp'
p345
(lp346
(S'X_MPI_LONG_DOUBLE_INT()'
p347
S'254'
p348
tp349
a(S'MPI_Type_contiguous()'
p350
S'323'
p351
tp352
a(S'MPI_Type_commit()'
p353
S'324'
p354
tp355
as.