ccollections
defaultdict
p0
(c__builtin__
list
p1
tp2
Rp3
S'ET/third_party/boost/include/boost/mpi/operations.hpp'
p4
(lp5
(S'MPI_Op_free()'
p6
S'293'
p7
tp8
asS'ET/third_party/boost/include/boost/graph/distributed/detail/mpi_process_group.ipp'
p9
(lp10
(S'MPI_Recv()'
p11
S'493'
p12
tp13
a(S'MPI_Get_count()'
p14
S'511'
p15
tp16
a(S'MPI_Recv()'
p17
S'517'
p18
tp19
a(S'MPI_Irecv()'
p20
S'666'
p21
tp22
a(S'X_MPI_PACKED()'
p23
S'667'
p24
tp25
a(S'MPI_Allgather()'
p26
S'838'
p27
tp28
a(S'MPI_Allgatherv()'
p29
S'857'
p30
tp31
a(S'X_MPI_BYTE()'
p32
S'860'
p33
tp34
a(S'MPI_Comm_group()'
p35
S'881'
p36
tp37
a(S'MPI_Group_incl()'
p38
S'885'
p39
tp40
a(S'MPI_Comm_create()'
p41
S'889'
p42
tp43
a(S'MPI_Group_free()'
p44
S'892'
p45
tp46
a(S'MPI_Group_free()'
p47
S'894'
p48
tp49
a(S'MPI_Comm_free()'
p50
S'899'
p51
tp52
a(S'MPI_Irecv()'
p53
S'930'
p54
tp55
a(S'MPI_Test()'
p56
S'935'
p57
tp58
a(S'MPI_Get_count()'
p59
S'968'
p60
tp61
a(S'MPI_Recv()'
p62
S'973'
p63
tp64
asS'ET/third_party/boost/include/boost/mpi/timer.hpp'
p65
(lp66
(S'MPI_Wtime()'
p67
S'71'
p68
tp69
asS'ET/third_party/boost/include/boost/graph/distributed/page_rank.hpp'
p70
(lp71
(S'MPI_Comm_rank()'
p72
S'40'
p73
tp74
a(S'MPI_Accumulate()'
p75
S'53'
p76
tp77
a(S'MPI_Win_fence()'
p78
S'60'
p79
tp80
a(S'MPI_Comm_rank()'
p81
S'90'
p82
tp83
a(S'MPI_Win_create()'
p84
S'115'
p85
tp86
a(S'X_MPI_INFO_NULL()'
p87
S'118'
p88
tp89
a(S'MPI_Win_set_name()'
p90
S'119'
p91
tp92
a(S'MPI_Win_create()'
p93
S'120'
p94
tp95
a(S'X_MPI_INFO_NULL()'
p96
S'123'
p97
tp98
a(S'MPI_Win_set_name()'
p99
S'124'
p100
tp101
a(S'MPI_Win_fence()'
p102
S'129'
p103
tp104
a(S'MPI_Win_fence()'
p105
S'130'
p106
tp107
a(S'MPI_Win_free()'
p108
S'144'
p109
tp110
a(S'MPI_Win_free()'
p111
S'145'
p112
tp113
asS'ET/third_party/boost/include/boost/mpi/datatype.hpp'
p114
(lp115
(S'X_MPI_LONG_DOUBLE_INT()'
p116
S'250'
p117
tp118
a(S'MPI_Type_contiguous()'
p119
S'310'
p120
tp121
a(S'MPI_Type_commit()'
p122
S'311'
p123
tp124
asS'ET/third_party/boost/include/boost/mpi/exception.hpp'
p125
(lp126
(S'MPI_Error_class()'
p127
S'73'
p128
tp129
asS'ET/third_party/boost/include/boost/mpi/communicator.hpp'
p130
(lp131
(S'MPI_Comm()'
p132
S'1292'
p133
tp134
a(S'MPI_Comm()'
p135
S'1492'
p136
tp137
a(S'MPI_Comm()'
p138
S'1515'
p139
tp140
a(S'MPI_Comm()'
p141
S'1551'
p142
tp143
a(S'MPI_Comm()'
p144
S'1574'
p145
tp146
asS'ET/third_party/boost/include/boost/mpi/allocator.hpp'
p147
(lp148
(S'X_MPI_INFO_NULL()'
p149
S'141'
p150
tp151
asS'ET/third_party/boost/include/boost/graph/distributed/mpi_process_group.hpp'
p152
(lp153
(S'MPI_Bsend()'
p154
S'708'
p155
tp156
a(S'MPI_Isend()'
p157
S'714'
p158
tp159
a(S'MPI_Test()'
p160
S'720'
p161
tp162
a(S'MPI_Bsend()'
p163
S'744'
p164
tp165
a(S'MPI_Isend()'
p166
S'750'
p167
tp168
a(S'MPI_Test()'
p169
S'756'
p170
tp171
as.