ccollections
defaultdict
p0
(c__builtin__
list
p1
tp2
Rp3
S'boost-compile/inc/boost/mpi/exception.hpp'
p4
(lp5
(S'MPI_Error_class()'
p6
S'73'
p7
tp8
asS'boost-compile/inc-cms/boost/graph/distributed/page_rank.hpp'
p9
(lp10
(S'MPI_Comm_rank()'
p11
S'40'
p12
tp13
a(S'MPI_Accumulate()'
p14
S'53'
p15
tp16
a(S'MPI_Win_fence()'
p17
S'60'
p18
tp19
a(S'MPI_Comm_rank()'
p20
S'90'
p21
tp22
a(S'MPI_Win_create()'
p23
S'115'
p24
tp25
a(S'X_MPI_INFO_NULL()'
p26
S'118'
p27
tp28
a(S'MPI_Win_set_name()'
p29
S'119'
p30
tp31
a(S'MPI_Win_create()'
p32
S'120'
p33
tp34
a(S'X_MPI_INFO_NULL()'
p35
S'123'
p36
tp37
a(S'MPI_Win_set_name()'
p38
S'124'
p39
tp40
a(S'MPI_Win_fence()'
p41
S'129'
p42
tp43
a(S'MPI_Win_fence()'
p44
S'130'
p45
tp46
a(S'MPI_Win_free()'
p47
S'144'
p48
tp49
a(S'MPI_Win_free()'
p50
S'145'
p51
tp52
asS'boost-compile/inc-cms/boost/mpi/operations.hpp'
p53
(lp54
(S'MPI_Op_free()'
p55
S'311'
p56
tp57
asS'boost-compile/inc-cms/boost/mpi/collectives/all_gather.hpp'
p58
(lp59
(S'MPI_Comm()'
p60
S'62'
p61
tp62
a(S'MPI_Comm()'
p63
S'73'
p64
tp65
asS'boost-compile/inc/boost/mpi/timer.hpp'
p66
(lp67
(S'MPI_Wtime()'
p68
S'71'
p69
tp70
asS'boost-compile/inc/boost/graph/distributed/detail/mpi_process_group.ipp'
p71
(lp72
(S'MPI_Recv()'
p73
S'493'
p74
tp75
a(S'MPI_Get_count()'
p76
S'511'
p77
tp78
a(S'MPI_Recv()'
p79
S'517'
p80
tp81
a(S'MPI_Irecv()'
p82
S'666'
p83
tp84
a(S'X_MPI_PACKED()'
p85
S'667'
p86
tp87
a(S'MPI_Allgather()'
p88
S'838'
p89
tp90
a(S'MPI_Allgatherv()'
p91
S'857'
p92
tp93
a(S'X_MPI_BYTE()'
p94
S'860'
p95
tp96
a(S'MPI_Comm_group()'
p97
S'881'
p98
tp99
a(S'MPI_Group_incl()'
p100
S'885'
p101
tp102
a(S'MPI_Comm_create()'
p103
S'889'
p104
tp105
a(S'MPI_Group_free()'
p106
S'892'
p107
tp108
a(S'MPI_Group_free()'
p109
S'894'
p110
tp111
a(S'MPI_Comm_free()'
p112
S'899'
p113
tp114
a(S'MPI_Irecv()'
p115
S'930'
p116
tp117
a(S'MPI_Test()'
p118
S'935'
p119
tp120
a(S'MPI_Get_count()'
p121
S'968'
p122
tp123
a(S'MPI_Recv()'
p124
S'973'
p125
tp126
asS'boost-compile/inc-cms/boost/mpi/allocator.hpp'
p127
(lp128
(S'X_MPI_INFO_NULL()'
p129
S'141'
p130
tp131
asS'boost-compile/inc-cms/boost/mpi/datatype.hpp'
p132
(lp133
(S'X_MPI_LONG_DOUBLE_INT()'
p134
S'254'
p135
tp136
a(S'MPI_Type_contiguous()'
p137
S'323'
p138
tp139
a(S'MPI_Type_commit()'
p140
S'324'
p141
tp142
asS'boost-compile/inc-cms/boost/mpi/exception.hpp'
p143
(lp144
(S'MPI_Error_class()'
p145
S'74'
p146
tp147
asS'boost-compile/inc/boost/mpi/allocator.hpp'
p148
(lp149
(S'X_MPI_INFO_NULL()'
p150
S'141'
p151
tp152
asS'boost-compile/inc/boost/mpi/operations.hpp'
p153
(lp154
(S'MPI_Op_free()'
p155
S'293'
p156
tp157
asS'boost-compile/inc-cms/boost/mpi/communicator.hpp'
p158
(lp159
(S'MPI_Comm()'
p160
S'1481'
p161
tp162
a(S'MPI_Comm()'
p163
S'1681'
p164
tp165
a(S'MPI_Comm()'
p166
S'1704'
p167
tp168
a(S'MPI_Comm()'
p169
S'1740'
p170
tp171
a(S'MPI_Comm()'
p172
S'1763'
p173
tp174
asS'boost-compile/inc-cms/boost/mpi/timer.hpp'
p175
(lp176
(S'MPI_Wtime()'
p177
S'71'
p178
tp179
asS'boost-compile/inc/boost/graph/distributed/mpi_process_group.hpp'
p180
(lp181
(S'MPI_Bsend()'
p182
S'709'
p183
tp184
a(S'MPI_Isend()'
p185
S'715'
p186
tp187
a(S'MPI_Test()'
p188
S'721'
p189
tp190
a(S'MPI_Bsend()'
p191
S'745'
p192
tp193
a(S'MPI_Isend()'
p194
S'751'
p195
tp196
a(S'MPI_Test()'
p197
S'757'
p198
tp199
asS'boost-compile/inc/boost/graph/distributed/page_rank.hpp'
p200
(lp201
(S'MPI_Comm_rank()'
p202
S'40'
p203
tp204
a(S'MPI_Accumulate()'
p205
S'53'
p206
tp207
a(S'MPI_Win_fence()'
p208
S'60'
p209
tp210
a(S'MPI_Comm_rank()'
p211
S'90'
p212
tp213
a(S'MPI_Win_create()'
p214
S'115'
p215
tp216
a(S'X_MPI_INFO_NULL()'
p217
S'118'
p218
tp219
a(S'MPI_Win_set_name()'
p220
S'119'
p221
tp222
a(S'MPI_Win_create()'
p223
S'120'
p224
tp225
a(S'X_MPI_INFO_NULL()'
p226
S'123'
p227
tp228
a(S'MPI_Win_set_name()'
p229
S'124'
p230
tp231
a(S'MPI_Win_fence()'
p232
S'129'
p233
tp234
a(S'MPI_Win_fence()'
p235
S'130'
p236
tp237
a(S'MPI_Win_free()'
p238
S'144'
p239
tp240
a(S'MPI_Win_free()'
p241
S'145'
p242
tp243
asS'boost-compile/inc-cms/boost/mpi/collectives/broadcast.hpp'
p244
(lp245
(S'X_MPI_BYTE()'
p246
S'120'
p247
tp248
a(S'X_MPI_BYTE()'
p249
S'130'
p250
tp251
asS'boost-compile/inc-cms/boost/graph/distributed/mpi_process_group.hpp'
p252
(lp253
(S'MPI_Bsend()'
p254
S'709'
p255
tp256
a(S'MPI_Isend()'
p257
S'715'
p258
tp259
a(S'MPI_Test()'
p260
S'721'
p261
tp262
a(S'MPI_Bsend()'
p263
S'745'
p264
tp265
a(S'MPI_Isend()'
p266
S'751'
p267
tp268
a(S'MPI_Test()'
p269
S'757'
p270
tp271
asS'boost-compile/inc/boost/mpi/datatype.hpp'
p272
(lp273
(S'X_MPI_LONG_DOUBLE_INT()'
p274
S'254'
p275
tp276
a(S'MPI_Type_contiguous()'
p277
S'323'
p278
tp279
a(S'MPI_Type_commit()'
p280
S'324'
p281
tp282
asS'boost-compile/inc-cms/boost/graph/distributed/detail/mpi_process_group.ipp'
p283
(lp284
(S'MPI_Recv()'
p285
S'493'
p286
tp287
a(S'MPI_Get_count()'
p288
S'511'
p289
tp290
a(S'MPI_Recv()'
p291
S'517'
p292
tp293
a(S'MPI_Irecv()'
p294
S'666'
p295
tp296
a(S'X_MPI_PACKED()'
p297
S'667'
p298
tp299
a(S'MPI_Allgather()'
p300
S'838'
p301
tp302
a(S'MPI_Allgatherv()'
p303
S'857'
p304
tp305
a(S'X_MPI_BYTE()'
p306
S'860'
p307
tp308
a(S'MPI_Comm_group()'
p309
S'881'
p310
tp311
a(S'MPI_Group_incl()'
p312
S'885'
p313
tp314
a(S'MPI_Comm_create()'
p315
S'889'
p316
tp317
a(S'MPI_Group_free()'
p318
S'892'
p319
tp320
a(S'MPI_Group_free()'
p321
S'894'
p322
tp323
a(S'MPI_Comm_free()'
p324
S'899'
p325
tp326
a(S'MPI_Irecv()'
p327
S'930'
p328
tp329
a(S'MPI_Test()'
p330
S'935'
p331
tp332
a(S'MPI_Get_count()'
p333
S'968'
p334
tp335
a(S'MPI_Recv()'
p336
S'973'
p337
tp338
asS'boost-compile/inc/boost/mpi/communicator.hpp'
p339
(lp340
(S'MPI_Comm()'
p341
S'1366'
p342
tp343
a(S'MPI_Comm()'
p344
S'1566'
p345
tp346
a(S'MPI_Comm()'
p347
S'1589'
p348
tp349
a(S'MPI_Comm()'
p350
S'1625'
p351
tp352
a(S'MPI_Comm()'
p353
S'1648'
p354
tp355
as.