ccollections
defaultdict
p0
(c__builtin__
list
p1
tp2
Rp3
S'parallel-programming//2.c'
p4
(lp5
(S'MPI_Init()'
p6
S'21'
p7
tp8
a(S'MPI_Comm_size()'
p9
S'22'
p10
tp11
a(S'MPI_Comm_rank()'
p12
S'23'
p13
tp14
a(S'MPI_Get_processor_name()'
p15
S'24'
p16
tp17
a(S'MPI_Scatter()'
p18
S'32'
p19
tp20
a(S'MPI_Scatter()'
p21
S'37'
p22
tp23
a(S'MPI_Scatter()'
p24
S'42'
p25
tp26
a(S'MPI_Scatter()'
p27
S'47'
p28
tp29
a(S'MPI_Bcast()'
p30
S'50'
p31
tp32
a(S'MPI_Scatter()'
p33
S'57'
p34
tp35
a(S'MPI_Scatter()'
p36
S'62'
p37
tp38
a(S'MPI_Scatter()'
p39
S'67'
p40
tp41
a(S'MPI_Scatter()'
p42
S'72'
p43
tp44
a(S'MPI_Bcast()'
p45
S'75'
p46
tp47
a(S'MPI_Scatter()'
p48
S'82'
p49
tp50
a(S'MPI_Scatter()'
p51
S'87'
p52
tp53
a(S'MPI_Scatter()'
p54
S'92'
p55
tp56
a(S'MPI_Scatter()'
p57
S'97'
p58
tp59
a(S'MPI_Bcast()'
p60
S'100'
p61
tp62
a(S'MPI_Scatter()'
p63
S'107'
p64
tp65
a(S'MPI_Scatter()'
p66
S'112'
p67
tp68
a(S'MPI_Scatter()'
p69
S'117'
p70
tp71
a(S'MPI_Scatter()'
p72
S'122'
p73
tp74
a(S'MPI_Bcast()'
p75
S'125'
p76
tp77
a(S'MPI_Finalize()'
p78
S'131'
p79
tp80
asS'parallel-programming//1.c'
p81
(lp82
(S'MPI_Init()'
p83
S'31'
p84
tp85
a(S'MPI_Comm_size()'
p86
S'32'
p87
tp88
a(S'MPI_Comm_rank()'
p89
S'33'
p90
tp91
a(S'MPI_Get_processor_name()'
p92
S'34'
p93
tp94
a(S'MPI_Gather()'
p95
S'44'
p96
tp97
a(S'MPI_Gather()'
p98
S'54'
p99
tp100
a(S'MPI_Gather()'
p101
S'59'
p102
tp103
a(S'MPI_Gather()'
p104
S'64'
p105
tp106
a(S'MPI_Gather()'
p107
S'69'
p108
tp109
a(S'MPI_Gather()'
p110
S'74'
p111
tp112
a(S'MPI_Gather()'
p113
S'86'
p114
tp115
a(S'MPI_Gather()'
p116
S'91'
p117
tp118
a(S'MPI_Gather()'
p119
S'96'
p120
tp121
a(S'MPI_Gather()'
p122
S'101'
p123
tp124
a(S'MPI_Gather()'
p125
S'106'
p126
tp127
a(S'MPI_Gather()'
p128
S'118'
p129
tp130
a(S'MPI_Gather()'
p131
S'123'
p132
tp133
a(S'MPI_Gather()'
p134
S'128'
p135
tp136
a(S'MPI_Gather()'
p137
S'133'
p138
tp139
a(S'MPI_Gather()'
p140
S'138'
p141
tp142
a(S'MPI_Finalize()'
p143
S'146'
p144
tp145
as.