ccollections
defaultdict
p0
(c__builtin__
list
p1
tp2
Rp3
S'mysql-5.7.23/boost/boost_1_59_0/boost/graph/distributed/detail/mpi_process_group.ipp'
p4
(lp5
(S'MPI_Recv()'
p6
S'492'
p7
tp8
a(S'MPI_Get_count()'
p9
S'510'
p10
tp11
a(S'MPI_Recv()'
p12
S'516'
p13
tp14
a(S'MPI_Irecv()'
p15
S'665'
p16
tp17
a(S'X_MPI_PACKED()'
p18
S'666'
p19
tp20
a(S'MPI_Allgather()'
p21
S'837'
p22
tp23
a(S'MPI_Allgatherv()'
p24
S'856'
p25
tp26
a(S'X_MPI_BYTE()'
p27
S'859'
p28
tp29
a(S'MPI_Comm_group()'
p30
S'880'
p31
tp32
a(S'MPI_Group_incl()'
p33
S'884'
p34
tp35
a(S'MPI_Comm_create()'
p36
S'888'
p37
tp38
a(S'MPI_Group_free()'
p39
S'891'
p40
tp41
a(S'MPI_Group_free()'
p42
S'893'
p43
tp44
a(S'MPI_Comm_free()'
p45
S'898'
p46
tp47
a(S'MPI_Irecv()'
p48
S'929'
p49
tp50
a(S'MPI_Test()'
p51
S'934'
p52
tp53
a(S'MPI_Get_count()'
p54
S'967'
p55
tp56
a(S'MPI_Recv()'
p57
S'972'
p58
tp59
asS'mysql-5.7.23/boost/boost_1_59_0/boost/mpi/allocator.hpp'
p60
(lp61
(S'X_MPI_INFO_NULL()'
p62
S'141'
p63
tp64
asS'mysql-5.7.23/boost/boost_1_59_0/boost/mpi/timer.hpp'
p65
(lp66
(S'MPI_Wtime()'
p67
S'71'
p68
tp69
asS'mysql-5.7.23/boost/boost_1_59_0/boost/mpi/datatype.hpp'
p70
(lp71
(S'X_MPI_LONG_DOUBLE_INT()'
p72
S'250'
p73
tp74
a(S'MPI_Type_contiguous()'
p75
S'310'
p76
tp77
a(S'MPI_Type_commit()'
p78
S'311'
p79
tp80
asS'mysql-5.7.23/boost/boost_1_59_0/boost/graph/distributed/mpi_process_group.hpp'
p81
(lp82
(S'MPI_Bsend()'
p83
S'708'
p84
tp85
a(S'MPI_Isend()'
p86
S'714'
p87
tp88
a(S'MPI_Test()'
p89
S'720'
p90
tp91
a(S'MPI_Bsend()'
p92
S'744'
p93
tp94
a(S'MPI_Isend()'
p95
S'750'
p96
tp97
a(S'MPI_Test()'
p98
S'756'
p99
tp100
asS'mysql-5.7.23/boost/boost_1_59_0/boost/mpi/communicator.hpp'
p101
(lp102
(S'MPI_Comm()'
p103
S'1292'
p104
tp105
a(S'MPI_Comm()'
p106
S'1492'
p107
tp108
a(S'MPI_Comm()'
p109
S'1515'
p110
tp111
a(S'MPI_Comm()'
p112
S'1551'
p113
tp114
a(S'MPI_Comm()'
p115
S'1574'
p116
tp117
asS'mysql-5.7.23/boost/boost_1_59_0/boost/mpi/exception.hpp'
p118
(lp119
(S'MPI_Error_class()'
p120
S'73'
p121
tp122
asS'mysql-5.7.23/boost/boost_1_59_0/boost/graph/distributed/page_rank.hpp'
p123
(lp124
(S'MPI_Comm_rank()'
p125
S'40'
p126
tp127
a(S'MPI_Accumulate()'
p128
S'53'
p129
tp130
a(S'MPI_Win_fence()'
p131
S'60'
p132
tp133
a(S'MPI_Comm_rank()'
p134
S'90'
p135
tp136
a(S'MPI_Win_create()'
p137
S'115'
p138
tp139
a(S'X_MPI_INFO_NULL()'
p140
S'118'
p141
tp142
a(S'MPI_Win_set_name()'
p143
S'119'
p144
tp145
a(S'MPI_Win_create()'
p146
S'120'
p147
tp148
a(S'X_MPI_INFO_NULL()'
p149
S'123'
p150
tp151
a(S'MPI_Win_set_name()'
p152
S'124'
p153
tp154
a(S'MPI_Win_fence()'
p155
S'129'
p156
tp157
a(S'MPI_Win_fence()'
p158
S'130'
p159
tp160
a(S'MPI_Win_free()'
p161
S'144'
p162
tp163
a(S'MPI_Win_free()'
p164
S'145'
p165
tp166
asS'mysql-5.7.23/boost/boost_1_59_0/boost/mpi/operations.hpp'
p167
(lp168
(S'MPI_Op_free()'
p169
S'293'
p170
tp171
as.