ccollections
defaultdict
p0
(c__builtin__
list
p1
tp2
Rp3
S'HopeFOAM/ThirdParty-0.1/ParaView-5.0.1/VTK/ThirdParty/mpi4py/vtkmpi4py/src/compat/openmpi.h'
p4
(lp5
(S'X_MPI_Init()'
p6
S'85'
p7
tp8
a(S'X_MPI_Init_thread()'
p9
S'94'
p10
tp11
a(S'X_MPI_Errhandler_free()'
p12
S'135'
p13
tp14
a(S'X_MPI_File_get_errhandler()'
p15
S'165'
p16
tp17
a(S'MPI_File_set_errhandler()'
p18
S'170'
p19
tp20
a(S'X_MPI_File_set_errhandler()'
p21
S'178'
p22
tp23
a(S'MPI_Comm_call_errhandler()'
p24
S'202'
p25
tp26
a(S'X_MPI_Cancel()'
p27
S'208'
p28
tp29
a(S'MPI_Comm_call_errhandler()'
p30
S'213'
p31
tp32
a(S'X_MPI_Request_free()'
p33
S'219'
p34
tp35
a(S'MPI_Comm_call_errhandler()'
p36
S'225'
p37
tp38
a(S'X_MPI_Win_get_errhandler()'
p39
S'231'
p40
tp41
a(S'MPI_Comm_call_errhandler()'
p42
S'237'
p43
tp44
a(S'X_MPI_Win_set_errhandler()'
p45
S'243'
p46
tp47
asS'HopeFOAM/ThirdParty-0.1/ParaView-5.0.1/VTK/Wrapping/Tcl/vtkTkAppInit.cxx'
p48
(lp49
(S'MPI_Init()'
p50
S'85'
p51
tp52
asS'HopeFOAM/ThirdParty-0.1/ParaView-5.0.1/Utilities/VisItBridge/Library/VisItLib/avt/Pipeline/AbstractFilters/avtCompactTreeFilter.C'
p53
(lp54
(S'MPI_Recv()'
p55
S'203'
p56
tp57
a(S'MPI_Recv()'
p58
S'206'
p59
tp60
a(S'MPI_Send()'
p61
S'229'
p62
tp63
a(S'MPI_Send()'
p64
S'230'
p65
tp66
asS'HopeFOAM/ThirdParty-0.1/ParaView-5.0.1/ThirdParty/CosmoHaloFinder/Timings.cxx'
p67
(lp68
(S'MPI_Comm_size()'
p69
S'130'
p70
tp71
a(S'MPI_Comm_rank()'
p72
S'131'
p73
tp74
a(S'MPI_Reduce()'
p75
S'145'
p76
tp77
a(S'MPI_Reduce()'
p78
S'147'
p79
tp80
a(S'MPI_Reduce()'
p81
S'167'
p82
tp83
a(S'MPI_Reduce()'
p84
S'169'
p85
tp86
a(S'MPI_Reduce()'
p87
S'171'
p88
tp89
a(S'MPI_Reduce()'
p90
S'173'
p91
tp92
a(S'MPI_Reduce()'
p93
S'175'
p94
tp95
a(S'MPI_Reduce()'
p96
S'177'
p97
tp98
asS'HopeFOAM/ThirdParty-0.1/ParaView-5.0.1/Utilities/VisItBridge/Library/VisItLib/avt/Pipeline/Data/avtDataObjectInformation.C'
p99
(lp100
(S'MPI_Recv()'
p101
S'173'
p102
tp103
a(S'MPI_Recv()'
p104
S'175'
p105
tp106
a(S'MPI_Send()'
p107
S'218'
p108
tp109
a(S'MPI_Send()'
p110
S'219'
p111
tp112
a(S'MPI_Sendrecv()'
p113
S'258'
p114
tp115
a(S'MPI_Sendrecv()'
p116
S'265'
p117
tp118
a(S'MPI_Comm_size()'
p119
S'337'
p120
tp121
a(S'MPI_Comm_rank()'
p122
S'338'
p123
tp124
asS'HopeFOAM/ThirdParty-0.1/ParaView-5.0.1/Examples/Catalyst/CxxPVSMPipelineExample/FEDriver.cxx'
p125
(lp126
(S'MPI_Init()'
p127
S'29'
p128
tp129
a(S'MPI_Finalize()'
p130
S'71'
p131
tp132
asS'HopeFOAM/ThirdParty-0.1/ParaView-5.0.1/CoProcessing/Catalyst/Testing/Cxx/SubController.cxx'
p133
(lp134
(S'MPI_Init()'
p135
S'22'
p136
tp137
a(S'MPI_Comm_rank()'
p138
S'24'
p139
tp140
a(S'MPI_Comm_size()'
p141
S'25'
p142
tp143
a(S'MPI_Comm_group()'
p144
S'28'
p145
tp146
a(S'MPI_Group_incl()'
p147
S'38'
p148
tp149
a(S'MPI_Comm_create()'
p150
S'40'
p151
tp152
a(S'MPI_Allreduce()'
p153
S'56'
p154
tp155
a(S'MPI_Finalize()'
p156
S'65'
p157
tp158
asS'HopeFOAM/ThirdParty-0.1/ParaView-5.0.1/VTK/Examples/ParallelProcessing/Generic/Cxx/ParallelIso.cxx'
p159
(lp160
(S'MPI_Init()'
p161
S'238'
p162
tp163
asS'HopeFOAM/ThirdParty-0.1/ParaView-5.0.1/VTK/Examples/Infovis/Cxx/ParallelBFS.cxx'
p164
(lp165
(S'MPI_Init()'
p166
S'36'
p167
tp168
asS'HopeFOAM/ThirdParty-0.1/ParaView-5.0.1/VTK/IO/Xdmf3/Testing/Cxx/TestXdmf3Parallel.cxx'
p169
(lp170
(S'MPI_Init()'
p171
S'87'
p172
tp173
asS'HopeFOAM/ThirdParty-0.1/ParaView-5.0.1/Plugins/MantaView/VTK/Testing/Cxx/MantaBenchmark.cxx'
p174
(lp175
(S'MPI_Init()'
p176
S'641'
p177
tp178
asS'HopeFOAM/ThirdParty-0.1/ParaView-5.0.1/VTK/Wrapping/Python/vtkPythonAppInit.cxx'
p179
(lp180
(S'MPI_Init()'
p181
S'51'
p182
tp183
asS'HopeFOAM/ThirdParty-0.1/ParaView-5.0.1/ThirdParty/CosmoHaloFinder/Message.cxx'
p184
(lp185
(S'MPI_Isend()'
p186
S'216'
p187
tp188
a(S'MPI_Wait()'
p189
S'224'
p190
tp191
a(S'MPI_Recv()'
p192
S'247'
p193
tp194
asS'HopeFOAM/ThirdParty-0.1/ParaView-5.0.1/Utilities/VisItBridge/databases/GTC/avtGTCFileFormat.C'
p195
(lp196
(S'MPI_Allgather()'
p197
S'682'
p198
tp199
a(S'MPI_Isend()'
p200
S'737'
p201
tp202
a(S'MPI_Irecv()'
p203
S'762'
p204
tp205
a(S'MPI_Waitsome()'
p206
S'783'
p207
tp208
asS'HopeFOAM/ThirdParty-0.1/ParaView-5.0.1/Examples/Catalyst/MPISubCommunicatorExample/FEDataStructures.cxx'
p209
(lp210
(S'MPI_Comm_rank()'
p211
S'18'
p212
tp213
a(S'MPI_Comm_size()'
p214
S'19'
p215
tp216
asS'HopeFOAM/ThirdParty-0.1/ParaView-5.0.1/ParaViewCore/VTKExtensions/CosmoTools/vtkPGenericIOReader.cxx'
p217
(lp218
(S'MPI_Bcast()'
p219
S'883'
p220
tp221
a(S'MPI_Bcast()'
p222
S'884'
p223
tp224
a(S'MPI_Bcast()'
p225
S'890'
p226
tp227
a(S'MPI_Bcast()'
p228
S'892'
p229
tp230
a(S'MPI_Barrier()'
p231
S'966'
p232
tp233
a(S'MPI_Barrier()'
p234
S'970'
p235
tp236
asS'HopeFOAM/ThirdParty-0.1/ParaView-5.0.1/Utilities/VisItBridge/databases/paraDIS/parallelParaDIS.C'
p237
(lp238
(S'MPI_Comm_rank()'
p239
S'237'
p240
tp241
a(S'MPI_Comm_size()'
p242
S'238'
p243
tp244
asS'HopeFOAM/ThirdParty-0.1/ParaView-5.0.1/VTK/Infovis/Parallel/Testing/Cxx/TestPBGLEdgesPedigrees.cxx'
p245
(lp246
(S'MPI_Init()'
p247
S'146'
p248
tp249
a(S'MPI_Finalize()'
p250
S'148'
p251
tp252
asS'HopeFOAM/ThirdParty-0.1/ParaView-5.0.1/VTK/Rendering/Parallel/Testing/Cxx/TestPCompositeZPass.cxx'
p253
(lp254
(S'MPI_Init()'
p255
S'484'
p256
tp257
asS'HopeFOAM/ThirdParty-0.1/ParaView-5.0.1/VTK/Parallel/MPI/Testing/Cxx/TestProcess.cxx'
p258
(lp259
(S'MPI_Init()'
p260
S'98'
p261
tp262
asS'HopeFOAM/ThirdParty-0.1/ParaView-5.0.1/VTK/ThirdParty/hdf5/vtkhdf5/src/H5FDmpi.c'
p263
(lp264
(S'MPI_Comm_free()'
p265
S'289'
p266
tp267
a(S'MPI_Info_free()'
p268
S'291'
p269
tp270
a(S'MPI_Comm_free()'
p271
S'329'
p272
tp273
a(S'MPI_Info_free()'
p274
S'331'
p275
tp276
asS'HopeFOAM/ThirdParty-0.1/ParaView-5.0.1/ParaViewCore/VTKExtensions/CosmoTools/Testing/Cxx/TestHaloFinder.cxx'
p277
(lp278
(S'MPI_Init()'
p279
S'57'
p280
tp281
asS'HopeFOAM/ThirdParty-0.1/ParaView-5.0.1/ThirdParty/CosmoHaloFinder/dims.cxx'
p282
(lp283
(S'MPI_Dims_create()'
p284
S'37'
p285
tp286
asS'HopeFOAM/ThirdParty-0.1/ParaView-5.0.1/ParaViewCore/VTKExtensions/CosmoTools/Testing/Cxx/TestSubhaloFinder.cxx'
p287
(lp288
(S'MPI_Init()'
p289
S'135'
p290
tp291
asS'HopeFOAM/ThirdParty-0.1/ParaView-5.0.1/Utilities/VisItBridge/databases/paraDIS/avtparaDIS_tecplotFileFormat.C'
p292
(lp293
(S'MPI_Comm_rank()'
p294
S'89'
p295
tp296
a(S'MPI_Comm_size()'
p297
S'90'
p298
tp299
asS'HopeFOAM/ThirdParty-0.1/ParaView-5.0.1/Examples/Catalyst/FortranPoissonSolver/SparseMatrix.F90'
p300
(lp301
(S'mpi_comm_size()'
p302
S'162'
p303
tp304
a(S'mpi_allreduce()'
p305
S'172'
p306
tp307
asS'HopeFOAM/ThirdParty-0.1/ParaView-5.0.1/VTK/Rendering/ParallelLIC/vtkPPainterCommunicator.cxx'
p308
(lp309
(S'MPI_Comm_free()'
p310
S'76'
p311
tp312
a(S'MPI_Comm_dup()'
p313
S'106'
p314
tp315
a(S'MPI_Comm_rank()'
p316
S'177'
p317
tp318
a(S'MPI_Comm_size()'
p319
S'189'
p320
tp321
a(S'MPI_Comm_rank()'
p322
S'201'
p323
tp324
a(S'MPI_Comm_size()'
p325
S'213'
p326
tp327
a(S'MPI_Initialized()'
p328
S'248'
p329
tp330
a(S'MPI_Finalized()'
p331
S'256'
p332
tp333
a(S'MPI_Comm_size()'
p334
S'285'
p335
tp336
a(S'MPI_Allgather()'
p337
S'288'
p338
tp339
a(S'X_MPI_INT()'
p340
S'291'
p341
tp342
a(S'X_MPI_INT()'
p343
S'294'
p344
tp345
a(S'MPI_Comm_group()'
p346
S'327'
p347
tp348
a(S'MPI_Group_incl()'
p349
S'330'
p350
tp351
a(S'MPI_Comm_create()'
p352
S'337'
p353
tp354
a(S'MPI_Group_free()'
p355
S'338'
p356
tp357
asS'HopeFOAM/ThirdParty-0.1/ParaView-5.0.1/VTK/Filters/Parallel/Testing/Cxx/ParallelResampling.cxx'
p358
(lp359
(S'MPI_Init()'
p360
S'148'
p361
tp362
asS'HopeFOAM/ThirdParty-0.1/ParaView-5.0.1/VTK/Filters/Parallel/Testing/Cxx/TransmitImageData.cxx'
p363
(lp364
(S'MPI_Init()'
p365
S'238'
p366
tp367
asS'HopeFOAM/ThirdParty-0.1/ParaView-5.0.1/VTK/Rendering/ParallelLIC/vtkPPixelTransfer.h'
p368
(lp369
(S'MPI_Recv()'
p370
S'422'
p371
tp372
a(S'MPI_Irecv()'
p373
S'434'
p374
tp375
a(S'MPI_Type_free()'
p376
S'448'
p377
tp378
a(S'MPI_Ssend()'
p379
S'478'
p380
tp381
a(S'MPI_Isend()'
p382
S'489'
p383
tp384
a(S'MPI_Request_free()'
p385
S'501'
p386
tp387
a(S'MPI_Type_free()'
p388
S'509'
p389
tp390
asS'HopeFOAM/ThirdParty-0.1/ParaView-5.0.1/ThirdParty/CosmoHaloFinder/ParticleExchange.cxx'
p391
(lp392
(S'MPI_Allreduce()'
p393
S'504'
p394
tp395
a(S'MPI_Allreduce()'
p396
S'507'
p397
tp398
a(S'MPI_Allreduce()'
p399
S'588'
p400
tp401
a(S'MPI_Barrier()'
p402
S'609'
p403
tp404
a(S'MPI_Barrier()'
p405
S'718'
p406
tp407
asS'HopeFOAM/ThirdParty-0.1/ParaView-5.0.1/VTK/ThirdParty/netcdf/vtknetcdf/libsrc4/nc4internal.h'
p408
(lp409
(S'X_MPI_Info()'
p410
S'28'
p411
tp412
a(S'X_MPI_Comm()'
p413
S'29'
p414
tp415
asS'HopeFOAM/ThirdParty-0.1/ParaView-5.0.1/Examples/Catalyst/CxxMultiPieceExample/FEDataStructures.cxx'
p416
(lp417
(S'MPI_Comm_rank()'
p418
S'25'
p419
tp420
a(S'MPI_Comm_size()'
p421
S'26'
p422
tp423
asS'HopeFOAM/ThirdParty-0.1/ParaView-5.0.1/VTK/Rendering/ParallelLIC/vtkPSurfaceLICMapper.cxx'
p424
(lp425
(S'MPI_Allreduce()'
p426
S'55'
p427
tp428
a(S'X_MPI_IN_PLACE()'
p429
S'56'
p430
tp431
a(S'X_MPI_INT()'
p432
S'59'
p433
tp434
a(S'X_MPI_MAX()'
p435
S'60'
p436
tp437
a(S'MPI_Allreduce()'
p438
S'86'
p439
tp440
a(S'X_MPI_IN_PLACE()'
p441
S'87'
p442
tp443
a(S'X_MPI_FLOAT()'
p444
S'90'
p445
tp446
a(S'X_MPI_MIN()'
p447
S'91'
p448
tp449
a(S'MPI_Allreduce()'
p450
S'94'
p451
tp452
a(S'X_MPI_IN_PLACE()'
p453
S'95'
p454
tp455
a(S'X_MPI_FLOAT()'
p456
S'98'
p457
tp458
a(S'X_MPI_MAX()'
p459
S'99'
p460
tp461
asS'HopeFOAM/ThirdParty-0.1/ParaView-5.0.1/ParaViewCore/ClientServerCore/Core/vtkProcessModule.cxx'
p462
(lp463
(S'MPI_Initialized()'
p464
S'139'
p465
tp466
a(S'MPI_Init()'
p467
S'151'
p468
tp469
a(S'MPI_Barrier()'
p470
S'308'
p471
tp472
a(S'MPI_Finalize()'
p473
S'309'
p474
tp475
asS'HopeFOAM/ThirdParty-0.1/ParaView-5.0.1/Examples/Catalyst/CxxParticlePathExample/FEDataStructures.cxx'
p476
(lp477
(S'MPI_Comm_rank()'
p478
S'18'
p479
tp480
a(S'MPI_Comm_size()'
p481
S'19'
p482
tp483
asS'HopeFOAM/ThirdParty-0.1/ParaView-5.0.1/Examples/Catalyst/CxxImageDataExample/FEDataStructures.cxx'
p484
(lp485
(S'MPI_Comm_rank()'
p486
S'25'
p487
tp488
a(S'MPI_Comm_size()'
p489
S'26'
p490
tp491
asS'HopeFOAM/ThirdParty-0.1/ParaView-5.0.1/Utilities/VisItBridge/databases/DDCMD/avtDDCMDFileFormat.C'
p492
(lp493
(S'MPI_Alltoall()'
p494
S'859'
p495
tp496
a(S'MPI_Alltoallv()'
p497
S'890'
p498
tp499
asS'HopeFOAM/ThirdParty-0.1/ParaView-5.0.1/Utilities/VisItBridge/Library/VisItLib/avt/Database/Ghost/avtNekDomainBoundaries.C'
p500
(lp501
(S'MPI_Comm_rank()'
p502
S'441'
p503
tp504
a(S'MPI_Comm_size()'
p505
S'442'
p506
tp507
a(S'MPI_Allreduce()'
p508
S'451'
p509
tp510
a(S'MPI_Allreduce()'
p511
S'452'
p512
tp513
a(S'MPI_Alltoall()'
p514
S'512'
p515
tp516
a(S'MPI_Alltoallv()'
p517
S'539'
p518
tp519
a(S'MPI_Gather()'
p520
S'563'
p521
tp522
a(S'MPI_Recv()'
p523
S'591'
p524
tp525
a(S'X_MPI_INT()'
p526
S'592'
p527
tp528
a(S'MPI_Send()'
p529
S'614'
p530
tp531
a(S'X_MPI_INT()'
p532
S'615'
p533
tp534
a(S'MPI_Bcast()'
p535
S'623'
p536
tp537
a(S'MPI_Allreduce()'
p538
S'632'
p539
tp540
a(S'MPI_Allgather()'
p541
S'730'
p542
tp543
asS'HopeFOAM/ThirdParty-0.1/ParaView-5.0.1/ThirdParty/CosmoHaloFinder/InitialExchange.cxx'
p544
(lp545
(S'MPI_Allreduce()'
p546
S'546'
p547
tp548
a(S'MPI_Allreduce()'
p549
S'652'
p550
tp551
a(S'MPI_Barrier()'
p552
S'670'
p553
tp554
a(S'MPI_Barrier()'
p555
S'739'
p556
tp557
asS'HopeFOAM/ThirdParty-0.1/ParaView-5.0.1/VTK/Infovis/Parallel/Testing/Cxx/PBGLRandomGraph.cxx'
p558
(lp559
(S'MPI_Abort()'
p560
S'63'
p561
tp562
a(S'MPI_Alltoall()'
p563
S'159'
p564
tp565
a(S'MPI_Alltoallv()'
p566
S'174'
p567
tp568
a(S'MPI_Barrier()'
p569
S'270'
p570
tp571
a(S'MPI_Barrier()'
p572
S'374'
p573
tp574
a(S'MPI_Barrier()'
p575
S'553'
p576
tp577
a(S'MPI_Barrier()'
p578
S'586'
p579
tp580
a(S'MPI_Barrier()'
p581
S'647'
p582
tp583
a(S'MPI_Barrier()'
p584
S'686'
p585
tp586
a(S'MPI_Barrier()'
p587
S'746'
p588
tp589
a(S'MPI_Barrier()'
p590
S'848'
p591
tp592
a(S'MPI_Barrier()'
p593
S'925'
p594
tp595
a(S'MPI_Barrier()'
p596
S'992'
p597
tp598
a(S'MPI_Barrier()'
p599
S'1046'
p600
tp601
a(S'MPI_Barrier()'
p602
S'1187'
p603
tp604
a(S'MPI_Barrier()'
p605
S'1264'
p606
tp607
a(S'MPI_Barrier()'
p608
S'1331'
p609
tp610
a(S'MPI_Barrier()'
p611
S'1385'
p612
tp613
a(S'MPI_Init()'
p614
S'1397'
p615
tp616
a(S'MPI_Finalize()'
p617
S'1402'
p618
tp619
asS'HopeFOAM/ThirdParty-0.1/ParaView-5.0.1/VTK/ThirdParty/hdf5/vtkhdf5/src/H5FDmpio.c'
p620
(lp621
(S'MPI_Comm_free()'
p622
S'443'
p623
tp624
a(S'MPI_Info_get()'
p625
S'1049'
p626
tp627
a(S'MPI_File_close()'
p628
S'1124'
p629
tp630
a(S'MPI_Comm_free()'
p631
S'1126'
p632
tp633
a(S'MPI_Info_free()'
p634
S'1128'
p635
tp636
asS'HopeFOAM/ThirdParty-0.1/ParaView-5.0.1/Examples/Catalyst/CFullExample/FEDriver.c'
p637
(lp638
(S'MPI_Init()'
p639
S'26'
p640
tp641
a(S'MPI_Finalize()'
p642
S'58'
p643
tp644
asS'HopeFOAM/ThirdParty-0.1/ParaView-5.0.1/VTK/Filters/ParallelStatistics/Testing/Cxx/TestRandomPContingencyStatisticsMPI.cxx'
p645
(lp646
(S'MPI_Comm_get_attr()'
p647
S'394'
p648
tp649
a(S'X_MPI_IO()'
p650
S'395'
p651
tp652
asS'HopeFOAM/ThirdParty-0.1/ParaView-5.0.1/VTK/Parallel/MPI/vtkMPIEventLog.cxx'
p653
(lp654
(S'MPI_Bcast()'
p655
S'68'
p656
tp657
a(S'MPI_Bcast()'
p658
S'69'
p659
tp660
asS'HopeFOAM/ThirdParty-0.1/ParaView-5.0.1/VTK/IO/ADIOS/ADIOSWriter.cxx'
p661
(lp662
(S'MPI_Initialized()'
p663
S'87'
p664
tp665
a(S'MPI_Comm_size()'
p666
S'95'
p667
tp668
a(S'MPI_Comm_rank()'
p669
S'96'
p670
tp671
a(S'MPI_Barrier()'
p672
S'111'
p673
tp674
asS'HopeFOAM/ThirdParty-0.1/ParaView-5.0.1/Utilities/VisItBridge/Library/VisItLib/avt/Pipeline/Data/avtFacelist.C'
p675
(lp676
(S'MPI_Allreduce()'
p677
S'572'
p678
tp679
asS'HopeFOAM/ThirdParty-0.1/ParaView-5.0.1/VTK/ThirdParty/xdmf3/vtkxdmf3/core/dsm/XdmfHDF5ControllerDSM.cpp'
p680
(lp681
(S'MPI_Comm_size()'
p682
S'273'
p683
tp684
a(S'MPI_Comm_rank()'
p685
S'274'
p686
tp687
a(S'MPI_Comm_group()'
p688
S'301'
p689
tp690
a(S'MPI_Group_incl()'
p691
S'302'
p692
tp693
a(S'MPI_Comm_create()'
p694
S'303'
p695
tp696
a(S'MPI_Comm_group()'
p697
S'304'
p698
tp699
a(S'MPI_Group_excl()'
p700
S'305'
p701
tp702
a(S'MPI_Comm_create()'
p703
S'306'
p704
tp705
a(S'MPI_Barrier()'
p706
S'342'
p707
tp708
a(S'MPI_Comm_dup()'
p709
S'416'
p710
tp711
a(S'MPI_Comm_free()'
p712
S'463'
p713
tp714
a(S'MPI_Comm_dup()'
p715
S'470'
p716
tp717
asS'HopeFOAM/ThirdParty-0.1/ParaView-5.0.1/VTK/ThirdParty/mpi4py/vtkmpi4py/src/config/mpich2.h'
p718
(lp719
(S'X_MPI_UNWEIGHTED()'
p720
S'53'
p721
tp722
asS'HopeFOAM/ThirdParty-0.1/ParaView-5.0.1/Utilities/VisItBridge/databases/Silo/avtSiloFileFormat.C'
p723
(lp724
(S'MPI_Bcast()'
p725
S'4540'
p726
tp727
a(S'MPI_Comm_rank()'
p728
S'4879'
p729
tp730
a(S'MPI_Bcast()'
p731
S'4889'
p732
tp733
a(S'MPI_Bcast()'
p734
S'4894'
p735
tp736
a(S'MPI_Bcast()'
p737
S'4905'
p738
tp739
a(S'MPI_Bcast()'
p740
S'4906'
p741
tp742
a(S'MPI_Bcast()'
p743
S'4907'
p744
tp745
a(S'MPI_Bcast()'
p746
S'4912'
p747
tp748
a(S'MPI_Bcast()'
p749
S'4916'
p750
tp751
a(S'MPI_Bcast()'
p752
S'4923'
p753
tp754
asS'HopeFOAM/ThirdParty-0.1/ParaView-5.0.1/VTK/Rendering/Parallel/vtkCompositer.cxx'
p755
(lp756
(S'MPI_Free_mem()'
p757
S'87'
p758
tp759
a(S'MPI_Alloc_mem()'
p760
S'90'
p761
tp762
a(S'MPI_Free_mem()'
p763
S'115'
p764
tp765
a(S'MPI_Alloc_mem()'
p766
S'118'
p767
tp768
a(S'MPI_Free_mem()'
p769
S'137'
p770
tp771
asS'HopeFOAM/ThirdParty-0.1/ParaView-5.0.1/Utilities/VisItBridge/databases/Nek5000/avtNek5000FileFormat.C'
p772
(lp773
(S'MPI_Comm_rank()'
p774
S'905'
p775
tp776
a(S'MPI_Comm_size()'
p777
S'906'
p778
tp779
a(S'MPI_Allreduce()'
p780
S'979'
p781
tp782
a(S'X_MPI_INT()'
p783
S'980'
p784
tp785
a(S'MPI_Allreduce()'
p786
S'1012'
p787
tp788
a(S'X_MPI_INT()'
p789
S'1013'
p790
tp791
a(S'MPI_Comm_rank()'
p792
S'2748'
p793
tp794
a(S'MPI_Comm_size()'
p795
S'2749'
p796
tp797
a(S'MPI_Allreduce()'
p798
S'2826'
p799
tp800
a(S'X_MPI_INT()'
p801
S'2827'
p802
tp803
a(S'MPI_Allreduce()'
p804
S'2839'
p805
tp806
a(S'X_MPI_FLOAT()'
p807
S'2840'
p808
tp809
a(S'MPI_Comm_rank()'
p810
S'2987'
p811
tp812
a(S'MPI_Comm_size()'
p813
S'2988'
p814
tp815
a(S'MPI_Allreduce()'
p816
S'3076'
p817
tp818
a(S'X_MPI_INT()'
p819
S'3077'
p820
tp821
a(S'MPI_Allreduce()'
p822
S'3089'
p823
tp824
a(S'X_MPI_FLOAT()'
p825
S'3090'
p826
tp827
asS'HopeFOAM/ThirdParty-0.1/ParaView-5.0.1/VTK/ThirdParty/mpi4py/vtkmpi4py/src/compat/mpich1.h'
p828
(lp829
(S'X_MPI_Init()'
p830
S'36'
p831
tp832
a(S'X_MPI_Init_thread()'
p833
S'45'
p834
tp835
a(S'X_MPI_SIGNED_CHAR()'
p836
S'50'
p837
tp838
a(S'X_MPI_Status_set_elements()'
p839
S'62'
p840
tp841
a(S'X_MPI_Sendrecv()'
p842
S'86'
p843
tp844
a(S'MPI_File_get_errhandler()'
p845
S'112'
p846
tp847
a(S'MPI_File_get_errhandler()'
p848
S'129'
p849
tp850
a(S'MPI_File_set_errhandler()'
p851
S'131'
p852
tp853
a(S'X_MPI_File_get_errhandler()'
p854
S'148'
p855
tp856
a(S'X_MPI_File_set_errhandler()'
p857
S'151'
p858
tp859
a(S'X_MPI_ERR_KEYVAL()'
p860
S'158'
p861
tp862
a(S'X_MPI_MAX_OBJECT_NAME()'
p863
S'161'
p864
tp865
asS'HopeFOAM/ThirdParty-0.1/ParaView-5.0.1/VTK/ThirdParty/mpi4py/vtkmpi4py/src/missing.h'
p866
(lp867
(S'X_MPI_Aint()'
p868
S'23'
p869
tp870
a(S'X_MPI_Offset()'
p871
S'29'
p872
tp873
a(S'X_MPI_Status()'
p874
S'39'
p875
tp876
a(S'X_MPI_Datatype()'
p877
S'45'
p878
tp879
a(S'X_MPI_Request()'
p880
S'51'
p881
tp882
a(S'X_MPI_Op()'
p883
S'57'
p884
tp885
a(S'X_MPI_Group()'
p886
S'63'
p887
tp888
a(S'X_MPI_Info()'
p889
S'69'
p890
tp891
a(S'X_MPI_Comm()'
p892
S'75'
p893
tp894
a(S'X_MPI_Win()'
p895
S'81'
p896
tp897
a(S'X_MPI_File()'
p898
S'87'
p899
tp900
a(S'X_MPI_Errhandler()'
p901
S'93'
p902
tp903
a(S'X_MPI_UNDEFINED()'
p904
S'98'
p905
tp906
a(S'X_MPI_ANY_SOURCE()'
p907
S'103'
p908
tp909
a(S'X_MPI_ANY_TAG()'
p910
S'108'
p911
tp912
a(S'X_MPI_PROC_NULL()'
p913
S'113'
p914
tp915
a(S'X_MPI_ROOT()'
p916
S'118'
p917
tp918
a(S'X_MPI_IDENT()'
p919
S'123'
p920
tp921
a(S'X_MPI_CONGRUENT()'
p922
S'128'
p923
tp924
a(S'X_MPI_SIMILAR()'
p925
S'133'
p926
tp927
a(S'X_MPI_UNEQUAL()'
p928
S'138'
p929
tp930
a(S'X_MPI_BOTTOM()'
p931
S'143'
p932
tp933
a(S'X_MPI_IN_PLACE()'
p934
S'148'
p935
tp936
a(S'X_MPI_KEYVAL_INVALID()'
p937
S'153'
p938
tp939
a(S'X_MPI_MAX_OBJECT_NAME()'
p940
S'158'
p941
tp942
a(S'X_MPI_DATATYPE_NULL()'
p943
S'163'
p944
tp945
a(S'X_MPI_UB()'
p946
S'168'
p947
tp948
a(S'X_MPI_LB()'
p949
S'173'
p950
tp951
a(S'X_MPI_PACKED()'
p952
S'178'
p953
tp954
a(S'X_MPI_BYTE()'
p955
S'183'
p956
tp957
a(S'X_MPI_AINT()'
p958
S'188'
p959
tp960
a(S'X_MPI_OFFSET()'
p961
S'193'
p962
tp963
a(S'X_MPI_CHAR()'
p964
S'198'
p965
tp966
a(S'X_MPI_WCHAR()'
p967
S'203'
p968
tp969
a(S'X_MPI_SIGNED_CHAR()'
p970
S'208'
p971
tp972
a(S'X_MPI_SHORT()'
p973
S'213'
p974
tp975
a(S'X_MPI_INT()'
p976
S'218'
p977
tp978
a(S'X_MPI_LONG()'
p979
S'223'
p980
tp981
a(S'X_MPI_LONG_LONG()'
p982
S'228'
p983
tp984
a(S'X_MPI_LONG_LONG_INT()'
p985
S'233'
p986
tp987
a(S'X_MPI_UNSIGNED_CHAR()'
p988
S'238'
p989
tp990
a(S'X_MPI_UNSIGNED_SHORT()'
p991
S'243'
p992
tp993
a(S'X_MPI_UNSIGNED()'
p994
S'248'
p995
tp996
a(S'X_MPI_UNSIGNED_LONG()'
p997
S'253'
p998
tp999
a(S'X_MPI_UNSIGNED_LONG_LONG()'
p1000
S'258'
p1001
tp1002
a(S'X_MPI_FLOAT()'
p1003
S'263'
p1004
tp1005
a(S'X_MPI_DOUBLE()'
p1006
S'268'
p1007
tp1008
a(S'X_MPI_LONG_DOUBLE()'
p1009
S'273'
p1010
tp1011
a(S'X_MPI_C_BOOL()'
p1012
S'278'
p1013
tp1014
a(S'X_MPI_C_COMPLEX()'
p1015
S'323'
p1016
tp1017
a(S'X_MPI_C_FLOAT_COMPLEX()'
p1018
S'328'
p1019
tp1020
a(S'X_MPI_C_DOUBLE_COMPLEX()'
p1021
S'333'
p1022
tp1023
a(S'X_MPI_C_LONG_DOUBLE_COMPLEX()'
p1024
S'338'
p1025
tp1026
a(S'X_MPI_SHORT_INT()'
p1027
S'343'
p1028
tp1029
a(S'X_MPI_LONG_INT()'
p1030
S'353'
p1031
tp1032
a(S'X_MPI_FLOAT_INT()'
p1033
S'358'
p1034
tp1035
a(S'X_MPI_DOUBLE_INT()'
p1036
S'363'
p1037
tp1038
a(S'X_MPI_LONG_DOUBLE_INT()'
p1039
S'368'
p1040
tp1041
a(S'X_MPI_CHARACTER()'
p1042
S'373'
p1043
tp1044
a(S'X_MPI_LOGICAL()'
p1045
S'378'
p1046
tp1047
a(S'X_MPI_INTEGER()'
p1048
S'383'
p1049
tp1050
a(S'X_MPI_REAL()'
p1051
S'388'
p1052
tp1053
a(S'X_MPI_DOUBLE_PRECISION()'
p1054
S'393'
p1055
tp1056
a(S'X_MPI_COMPLEX()'
p1057
S'398'
p1058
tp1059
a(S'X_MPI_DOUBLE_COMPLEX()'
p1060
S'403'
p1061
tp1062
a(S'X_MPI_ORDER_C()'
p1063
S'538'
p1064
tp1065
a(S'X_MPI_ORDER_FORTRAN()'
p1066
S'543'
p1067
tp1068
a(S'X_MPI_DISTRIBUTE_NONE()'
p1069
S'553'
p1070
tp1071
a(S'X_MPI_DISTRIBUTE_BLOCK()'
p1072
S'558'
p1073
tp1074
a(S'X_MPI_DISTRIBUTE_CYCLIC()'
p1075
S'563'
p1076
tp1077
a(S'X_MPI_DISTRIBUTE_DFLT_DARG()'
p1078
S'568'
p1079
tp1080
a(S'X_MPI_Get_address()'
p1081
S'598'
p1082
tp1083
a(S'X_MPI_Type_create_hvector()'
p1084
S'603'
p1085
tp1086
a(S'X_MPI_Type_create_hindexed()'
p1087
S'608'
p1088
tp1089
a(S'X_MPI_Type_create_struct()'
p1090
S'613'
p1091
tp1092
a(S'X_MPI_TYPECLASS_INTEGER()'
p1093
S'648'
p1094
tp1095
a(S'X_MPI_TYPECLASS_REAL()'
p1096
S'653'
p1097
tp1098
a(S'X_MPI_TYPECLASS_COMPLEX()'
p1099
S'658'
p1100
tp1101
a(S'X_MPI_COMBINER_NAMED()'
p1102
S'708'
p1103
tp1104
a(S'X_MPI_COMBINER_DUP()'
p1105
S'713'
p1106
tp1107
a(S'X_MPI_COMBINER_CONTIGUOUS()'
p1108
S'718'
p1109
tp1110
a(S'X_MPI_COMBINER_VECTOR()'
p1111
S'723'
p1112
tp1113
a(S'X_MPI_COMBINER_HVECTOR_INTEGER()'
p1114
S'728'
p1115
tp1116
a(S'X_MPI_COMBINER_HVECTOR()'
p1117
S'733'
p1118
tp1119
a(S'X_MPI_COMBINER_INDEXED()'
p1120
S'738'
p1121
tp1122
a(S'X_MPI_COMBINER_HINDEXED_INTEGER()'
p1123
S'743'
p1124
tp1125
a(S'X_MPI_COMBINER_HINDEXED()'
p1126
S'748'
p1127
tp1128
a(S'X_MPI_COMBINER_INDEXED_BLOCK()'
p1129
S'753'
p1130
tp1131
a(S'X_MPI_COMBINER_STRUCT_INTEGER()'
p1132
S'758'
p1133
tp1134
a(S'X_MPI_COMBINER_STRUCT()'
p1135
S'763'
p1136
tp1137
a(S'X_MPI_COMBINER_SUBARRAY()'
p1138
S'768'
p1139
tp1140
a(S'X_MPI_COMBINER_DARRAY()'
p1141
S'773'
p1142
tp1143
a(S'X_MPI_COMBINER_RESIZED()'
p1144
S'793'
p1145
tp1146
a(S'X_MPI_Type_copy_attr_function()'
p1147
S'834'
p1148
tp1149
a(S'X_MPI_Type_delete_attr_function()'
p1150
S'840'
p1151
tp1152
a(S'X_MPI_TYPE_NULL_COPY_FN()'
p1153
S'845'
p1154
tp1155
a(S'X_MPI_TYPE_DUP_FN()'
p1156
S'850'
p1157
tp1158
a(S'X_MPI_TYPE_NULL_DELETE_FN()'
p1159
S'855'
p1160
tp1161
a(S'X_MPI_STATUS_IGNORE()'
p1162
S'870'
p1163
tp1164
a(S'X_MPI_STATUSES_IGNORE()'
p1165
S'875'
p1166
tp1167
a(S'X_MPI_REQUEST_NULL()'
p1168
S'905'
p1169
tp1170
a(S'X_MPI_Grequest_cancel_function()'
p1171
S'976'
p1172
tp1173
a(S'X_MPI_Grequest_free_function()'
p1174
S'982'
p1175
tp1176
a(S'X_MPI_Grequest_query_function()'
p1177
S'988'
p1178
tp1179
a(S'X_MPI_OP_NULL()'
p1180
S'1003'
p1181
tp1182
a(S'X_MPI_MAX()'
p1183
S'1008'
p1184
tp1185
a(S'X_MPI_MIN()'
p1186
S'1013'
p1187
tp1188
a(S'X_MPI_SUM()'
p1189
S'1018'
p1190
tp1191
a(S'X_MPI_PROD()'
p1192
S'1023'
p1193
tp1194
a(S'X_MPI_LAND()'
p1195
S'1028'
p1196
tp1197
a(S'X_MPI_BAND()'
p1198
S'1033'
p1199
tp1200
a(S'X_MPI_LOR()'
p1201
S'1038'
p1202
tp1203
a(S'X_MPI_BOR()'
p1204
S'1043'
p1205
tp1206
a(S'X_MPI_LXOR()'
p1207
S'1048'
p1208
tp1209
a(S'X_MPI_BXOR()'
p1210
S'1053'
p1211
tp1212
a(S'X_MPI_MAXLOC()'
p1213
S'1058'
p1214
tp1215
a(S'X_MPI_MINLOC()'
p1216
S'1063'
p1217
tp1218
a(S'X_MPI_REPLACE()'
p1219
S'1068'
p1220
tp1221
a(S'X_MPI_User_function()'
p1222
S'1079'
p1223
tp1224
a(S'X_MPI_INFO_NULL()'
p1225
S'1094'
p1226
tp1227
a(S'X_MPI_MAX_INFO_KEY()'
p1228
S'1114'
p1229
tp1230
a(S'X_MPI_MAX_INFO_VAL()'
p1231
S'1119'
p1232
tp1233
a(S'X_MPI_GROUP_NULL()'
p1234
S'1154'
p1235
tp1236
a(S'X_MPI_GROUP_EMPTY()'
p1237
S'1159'
p1238
tp1239
a(S'X_MPI_COMM_NULL()'
p1240
S'1224'
p1241
tp1242
a(S'X_MPI_COMM_SELF()'
p1243
S'1229'
p1244
tp1245
a(S'X_MPI_COMM_WORLD()'
p1246
S'1234'
p1247
tp1248
a(S'X_MPI_BSEND_OVERHEAD()'
p1249
S'1299'
p1250
tp1251
a(S'X_MPI_CART()'
p1252
S'1494'
p1253
tp1254
a(S'X_MPI_GRAPH()'
p1255
S'1544'
p1256
tp1257
a(S'X_MPI_DIST_GRAPH()'
p1258
S'1579'
p1259
tp1260
a(S'X_MPI_UNWEIGHTED()'
p1261
S'1584'
p1262
tp1263
a(S'X_MPI_MAX_PORT_NAME()'
p1264
S'1629'
p1265
tp1266
a(S'X_MPI_ARGV_NULL()'
p1267
S'1679'
p1268
tp1269
a(S'X_MPI_ARGVS_NULL()'
p1270
S'1684'
p1271
tp1272
a(S'X_MPI_ERRCODES_IGNORE()'
p1273
S'1689'
p1274
tp1275
a(S'X_MPI_Handler_function()'
p1276
S'1720'
p1277
tp1278
a(S'X_MPI_TAG_UB()'
p1279
S'1730'
p1280
tp1281
a(S'X_MPI_HOST()'
p1282
S'1735'
p1283
tp1284
a(S'X_MPI_IO()'
p1285
S'1740'
p1286
tp1287
a(S'X_MPI_WTIME_IS_GLOBAL()'
p1288
S'1745'
p1289
tp1290
a(S'X_MPI_Copy_function()'
p1291
S'1766'
p1292
tp1293
a(S'X_MPI_Delete_function()'
p1294
S'1772'
p1295
tp1296
a(S'X_MPI_DUP_FN()'
p1297
S'1777'
p1298
tp1299
a(S'X_MPI_NULL_COPY_FN()'
p1300
S'1782'
p1301
tp1302
a(S'X_MPI_NULL_DELETE_FN()'
p1303
S'1787'
p1304
tp1305
a(S'X_MPI_Comm_get_errhandler()'
p1306
S'1802'
p1307
tp1308
a(S'X_MPI_Comm_set_errhandler()'
p1309
S'1807'
p1310
tp1311
a(S'X_MPI_Comm_errhandler_fn()'
p1312
S'1812'
p1313
tp1314
a(S'X_MPI_Comm_errhandler_function()'
p1315
S'1817'
p1316
tp1317
a(S'X_MPI_Comm_create_errhandler()'
p1318
S'1822'
p1319
tp1320
a(S'X_MPI_UNIVERSE_SIZE()'
p1321
S'1842'
p1322
tp1323
a(S'X_MPI_APPNUM()'
p1324
S'1847'
p1325
tp1326
a(S'X_MPI_LASTUSEDCODE()'
p1327
S'1852'
p1328
tp1329
a(S'X_MPI_Comm_get_attr()'
p1330
S'1857'
p1331
tp1332
a(S'X_MPI_Comm_set_attr()'
p1333
S'1862'
p1334
tp1335
a(S'X_MPI_Comm_delete_attr()'
p1336
S'1867'
p1337
tp1338
a(S'X_MPI_Comm_copy_attr_function()'
p1339
S'1872'
p1340
tp1341
a(S'X_MPI_Comm_delete_attr_function()'
p1342
S'1877'
p1343
tp1344
a(S'X_MPI_COMM_DUP_FN()'
p1345
S'1882'
p1346
tp1347
a(S'X_MPI_COMM_NULL_COPY_FN()'
p1348
S'1887'
p1349
tp1350
a(S'X_MPI_COMM_NULL_DELETE_FN()'
p1351
S'1892'
p1352
tp1353
a(S'X_MPI_Comm_create_keyval()'
p1354
S'1897'
p1355
tp1356
a(S'X_MPI_Comm_free_keyval()'
p1357
S'1902'
p1358
tp1359
a(S'X_MPI_WIN_NULL()'
p1360
S'1907'
p1361
tp1362
a(S'X_MPI_MODE_NOCHECK()'
p1363
S'1942'
p1364
tp1365
a(S'X_MPI_MODE_NOSTORE()'
p1366
S'1947'
p1367
tp1368
a(S'X_MPI_MODE_NOPUT()'
p1369
S'1952'
p1370
tp1371
a(S'X_MPI_MODE_NOPRECEDE()'
p1372
S'1957'
p1373
tp1374
a(S'X_MPI_MODE_NOSUCCEED()'
p1375
S'1962'
p1376
tp1377
a(S'X_MPI_LOCK_EXCLUSIVE()'
p1378
S'1997'
p1379
tp1380
a(S'X_MPI_LOCK_SHARED()'
p1381
S'2002'
p1382
tp1383
a(S'X_MPI_Win_errhandler_fn()'
p1384
S'2028'
p1385
tp1386
a(S'X_MPI_Win_errhandler_function()'
p1387
S'2033'
p1388
tp1389
a(S'X_MPI_WIN_BASE()'
p1390
S'2058'
p1391
tp1392
a(S'X_MPI_WIN_SIZE()'
p1393
S'2063'
p1394
tp1395
a(S'X_MPI_WIN_DISP_UNIT()'
p1396
S'2068'
p1397
tp1398
a(S'X_MPI_Win_copy_attr_function()'
p1399
S'2089'
p1400
tp1401
a(S'X_MPI_Win_delete_attr_function()'
p1402
S'2095'
p1403
tp1404
a(S'X_MPI_WIN_DUP_FN()'
p1405
S'2100'
p1406
tp1407
a(S'X_MPI_WIN_NULL_COPY_FN()'
p1408
S'2105'
p1409
tp1410
a(S'X_MPI_WIN_NULL_DELETE_FN()'
p1411
S'2110'
p1412
tp1413
a(S'X_MPI_FILE_NULL()'
p1414
S'2125'
p1415
tp1416
a(S'X_MPI_MODE_RDONLY()'
p1417
S'2130'
p1418
tp1419
a(S'X_MPI_MODE_RDWR()'
p1420
S'2135'
p1421
tp1422
a(S'X_MPI_MODE_WRONLY()'
p1423
S'2140'
p1424
tp1425
a(S'X_MPI_MODE_CREATE()'
p1426
S'2145'
p1427
tp1428
a(S'X_MPI_MODE_EXCL()'
p1429
S'2150'
p1430
tp1431
a(S'X_MPI_MODE_DELETE_ON_CLOSE()'
p1432
S'2155'
p1433
tp1434
a(S'X_MPI_MODE_UNIQUE_OPEN()'
p1435
S'2160'
p1436
tp1437
a(S'X_MPI_MODE_APPEND()'
p1438
S'2165'
p1439
tp1440
a(S'X_MPI_MODE_SEQUENTIAL()'
p1441
S'2170'
p1442
tp1443
a(S'X_MPI_MAX_DATAREP_STRING()'
p1444
S'2225'
p1445
tp1446
a(S'X_MPI_SEEK_SET()'
p1447
S'2270'
p1448
tp1449
a(S'X_MPI_SEEK_CUR()'
p1450
S'2275'
p1451
tp1452
a(S'X_MPI_SEEK_END()'
p1453
S'2280'
p1454
tp1455
a(S'X_MPI_DISPLACEMENT_CURRENT()'
p1456
S'2285'
p1457
tp1458
a(S'X_MPI_File_errhandler_fn()'
p1459
S'2466'
p1460
tp1461
a(S'X_MPI_File_errhandler_function()'
p1462
S'2471'
p1463
tp1464
a(S'X_MPI_Datarep_conversion_function()'
p1465
S'2487'
p1466
tp1467
a(S'X_MPI_Datarep_extent_function()'
p1468
S'2493'
p1469
tp1470
a(S'X_MPI_ERRHANDLER_NULL()'
p1471
S'2503'
p1472
tp1473
a(S'X_MPI_ERRORS_RETURN()'
p1474
S'2508'
p1475
tp1476
a(S'X_MPI_ERRORS_ARE_FATAL()'
p1477
S'2513'
p1478
tp1479
a(S'X_MPI_MAX_ERROR_STRING()'
p1480
S'2523'
p1481
tp1482
a(S'X_MPI_SUCCESS()'
p1483
S'2553'
p1484
tp1485
a(S'X_MPI_ERR_LASTCODE()'
p1486
S'2558'
p1487
tp1488
a(S'X_MPI_ERR_COMM()'
p1489
S'2563'
p1490
tp1491
a(S'X_MPI_ERR_GROUP()'
p1492
S'2568'
p1493
tp1494
a(S'X_MPI_ERR_TYPE()'
p1495
S'2573'
p1496
tp1497
a(S'X_MPI_ERR_REQUEST()'
p1498
S'2578'
p1499
tp1500
a(S'X_MPI_ERR_OP()'
p1501
S'2583'
p1502
tp1503
a(S'X_MPI_ERR_BUFFER()'
p1504
S'2588'
p1505
tp1506
a(S'X_MPI_ERR_COUNT()'
p1507
S'2593'
p1508
tp1509
a(S'X_MPI_ERR_TAG()'
p1510
S'2598'
p1511
tp1512
a(S'X_MPI_ERR_RANK()'
p1513
S'2603'
p1514
tp1515
a(S'X_MPI_ERR_ROOT()'
p1516
S'2608'
p1517
tp1518
a(S'X_MPI_ERR_TRUNCATE()'
p1519
S'2613'
p1520
tp1521
a(S'X_MPI_ERR_IN_STATUS()'
p1522
S'2618'
p1523
tp1524
a(S'X_MPI_ERR_PENDING()'
p1525
S'2623'
p1526
tp1527
a(S'X_MPI_ERR_TOPOLOGY()'
p1528
S'2628'
p1529
tp1530
a(S'X_MPI_ERR_DIMS()'
p1531
S'2633'
p1532
tp1533
a(S'X_MPI_ERR_ARG()'
p1534
S'2638'
p1535
tp1536
a(S'X_MPI_ERR_OTHER()'
p1537
S'2643'
p1538
tp1539
a(S'X_MPI_ERR_UNKNOWN()'
p1540
S'2648'
p1541
tp1542
a(S'X_MPI_ERR_INTERN()'
p1543
S'2653'
p1544
tp1545
a(S'X_MPI_ERR_KEYVAL()'
p1546
S'2658'
p1547
tp1548
a(S'X_MPI_ERR_NO_MEM()'
p1549
S'2663'
p1550
tp1551
a(S'X_MPI_ERR_INFO()'
p1552
S'2668'
p1553
tp1554
a(S'X_MPI_ERR_INFO_KEY()'
p1555
S'2673'
p1556
tp1557
a(S'X_MPI_ERR_INFO_VALUE()'
p1558
S'2678'
p1559
tp1560
a(S'X_MPI_ERR_INFO_NOKEY()'
p1561
S'2683'
p1562
tp1563
a(S'X_MPI_ERR_SPAWN()'
p1564
S'2688'
p1565
tp1566
a(S'X_MPI_ERR_PORT()'
p1567
S'2693'
p1568
tp1569
a(S'X_MPI_ERR_SERVICE()'
p1570
S'2698'
p1571
tp1572
a(S'X_MPI_ERR_NAME()'
p1573
S'2703'
p1574
tp1575
a(S'X_MPI_ERR_FILE()'
p1576
S'2708'
p1577
tp1578
a(S'X_MPI_ERR_NOT_SAME()'
p1579
S'2713'
p1580
tp1581
a(S'X_MPI_ERR_BAD_FILE()'
p1582
S'2718'
p1583
tp1584
a(S'X_MPI_ERR_NO_SUCH_FILE()'
p1585
S'2723'
p1586
tp1587
a(S'X_MPI_ERR_FILE_EXISTS()'
p1588
S'2728'
p1589
tp1590
a(S'X_MPI_ERR_FILE_IN_USE()'
p1591
S'2733'
p1592
tp1593
a(S'X_MPI_ERR_AMODE()'
p1594
S'2738'
p1595
tp1596
a(S'X_MPI_ERR_ACCESS()'
p1597
S'2743'
p1598
tp1599
a(S'X_MPI_ERR_READ_ONLY()'
p1600
S'2748'
p1601
tp1602
a(S'X_MPI_ERR_NO_SPACE()'
p1603
S'2753'
p1604
tp1605
a(S'X_MPI_ERR_QUOTA()'
p1606
S'2758'
p1607
tp1608
a(S'X_MPI_ERR_UNSUPPORTED_DATAREP()'
p1609
S'2763'
p1610
tp1611
a(S'X_MPI_ERR_UNSUPPORTED_OPERATION()'
p1612
S'2768'
p1613
tp1614
a(S'X_MPI_ERR_CONVERSION()'
p1615
S'2773'
p1616
tp1617
a(S'X_MPI_ERR_DUP_DATAREP()'
p1618
S'2778'
p1619
tp1620
a(S'X_MPI_ERR_IO()'
p1621
S'2783'
p1622
tp1623
a(S'X_MPI_ERR_WIN()'
p1624
S'2788'
p1625
tp1626
a(S'X_MPI_ERR_BASE()'
p1627
S'2793'
p1628
tp1629
a(S'X_MPI_ERR_SIZE()'
p1630
S'2798'
p1631
tp1632
a(S'X_MPI_ERR_DISP()'
p1633
S'2803'
p1634
tp1635
a(S'X_MPI_ERR_ASSERT()'
p1636
S'2808'
p1637
tp1638
a(S'X_MPI_ERR_LOCKTYPE()'
p1639
S'2813'
p1640
tp1641
a(S'X_MPI_ERR_RMA_CONFLICT()'
p1642
S'2818'
p1643
tp1644
a(S'X_MPI_ERR_RMA_SYNC()'
p1645
S'2823'
p1646
tp1647
a(S'X_MPI_THREAD_SINGLE()'
p1648
S'2858'
p1649
tp1650
a(S'X_MPI_THREAD_FUNNELED()'
p1651
S'2863'
p1652
tp1653
a(S'X_MPI_THREAD_SERIALIZED()'
p1654
S'2868'
p1655
tp1656
a(S'X_MPI_THREAD_MULTIPLE()'
p1657
S'2873'
p1658
tp1659
a(S'X_MPI_VERSION()'
p1660
S'2893'
p1661
tp1662
a(S'X_MPI_SUBVERSION()'
p1663
S'2898'
p1664
tp1665
a(S'X_MPI_MAX_PROCESSOR_NAME()'
p1666
S'2908'
p1667
tp1668
a(S'X_MPI_Fint()'
p1669
S'2934'
p1670
tp1671
a(S'X_MPI_F_STATUS_IGNORE()'
p1672
S'2939'
p1673
tp1674
a(S'X_MPI_F_STATUSES_IGNORE()'
p1675
S'2944'
p1676
tp1677
asS'HopeFOAM/ThirdParty-0.1/ParaView-5.0.1/VTK/ThirdParty/hdf5/vtkhdf5/src/H5.c'
p1678
(lp1679
(S'MPI_Initialized()'
p1680
S'140'
p1681
tp1682
a(S'MPI_Initialized()'
p1683
S'317'
p1684
tp1685
asS'HopeFOAM/ThirdParty-0.1/ParaView-5.0.1/VTK/Filters/ParallelStatistics/Testing/Cxx/TestRandomPOrderStatisticsMPI.cxx'
p1686
(lp1687
(S'MPI_Comm_get_attr()'
p1688
S'455'
p1689
tp1690
a(S'X_MPI_IO()'
p1691
S'456'
p1692
tp1693
asS'HopeFOAM/ThirdParty-0.1/ParaView-5.0.1/VTK/IO/MPIParallel/vtkMPIMultiBlockPLOT3DReader.cxx'
p1694
(lp1695
(S'X_MPI_ORDER_FORTRAN()'
p1696
S'93'
p1697
tp1698
a(S'MPI_Type_commit()'
p1699
S'99'
p1700
tp1701
a(S'X_MPI_MAX()'
p1702
S'113'
p1703
tp1704
a(S'MPI_Type_free()'
p1705
S'162'
p1706
tp1707
a(S'MPI_Type_free()'
p1708
S'169'
p1709
tp1710
a(S'X_MPI_INFO_NULL()'
p1711
S'220'
p1712
tp1713
asS'HopeFOAM/ThirdParty-0.1/ParaView-5.0.1/VTK/Filters/ParallelStatistics/Testing/Cxx/TestRandomPMomentStatisticsMPI.cxx'
p1714
(lp1715
(S'MPI_Comm_get_attr()'
p1716
S'886'
p1717
tp1718
a(S'X_MPI_IO()'
p1719
S'887'
p1720
tp1721
asS'HopeFOAM/ThirdParty-0.1/ParaView-5.0.1/Examples/Catalyst/CFullExample2/FEDriver.c'
p1722
(lp1723
(S'MPI_Init()'
p1724
S'31'
p1725
tp1726
a(S'MPI_Finalize()'
p1727
S'44'
p1728
tp1729
a(S'MPI_Finalize()'
p1730
S'79'
p1731
tp1732
asS'HopeFOAM/ThirdParty-0.1/ParaView-5.0.1/Examples/Catalyst/CxxFullExample/FEDriver.cxx'
p1733
(lp1734
(S'MPI_Init()'
p1735
S'23'
p1736
tp1737
a(S'MPI_Finalize()'
p1738
S'48'
p1739
tp1740
asS'HopeFOAM/ThirdParty-0.1/ParaView-5.0.1/VTK/IO/MPIImage/vtkPNrrdReader.cxx'
p1741
(lp1742
(S'MPI_Error_string()'
p1743
S'81'
p1744
tp1745
a(S'X_MPI_ORDER_FORTRAN()'
p1746
S'265'
p1747
tp1748
a(S'MPI_File_open()'
p1749
S'292'
p1750
tp1751
a(S'X_MPI_INFO_NULL()'
p1752
S'294'
p1753
tp1754
a(S'X_MPI_BYTE()'
p1755
S'319'
p1756
tp1757
asS'HopeFOAM/ThirdParty-0.1/ParaView-5.0.1/VTK/Filters/Parallel/Testing/Cxx/TransmitImageDataRenderPass.cxx'
p1758
(lp1759
(S'MPI_Init()'
p1760
S'259'
p1761
tp1762
asS'HopeFOAM/ThirdParty-0.1/ParaView-5.0.1/Utilities/VisItBridge/Library/VisItLib/avt/Database/Ghost/avtStructuredDomainBoundaries.C'
p1763
(lp1764
(S'MPI_Comm_rank()'
p1765
S'121'
p1766
tp1767
a(S'MPI_Allreduce()'
p1768
S'133'
p1769
tp1770
a(S'X_MPI_MAX()'
p1771
S'134'
p1772
tp1773
a(S'MPI_Comm_rank()'
p1774
S'540'
p1775
tp1776
a(S'MPI_Comm_size()'
p1777
S'543'
p1778
tp1779
a(S'MPI_Alltoallv()'
p1780
S'623'
p1781
tp1782
a(S'MPI_Barrier()'
p1783
S'657'
p1784
tp1785
a(S'MPI_Comm_rank()'
p1786
S'733'
p1787
tp1788
a(S'MPI_Send()'
p1789
S'752'
p1790
tp1791
a(S'MPI_Recv()'
p1792
S'757'
p1793
tp1794
a(S'MPI_Send()'
p1795
S'786'
p1796
tp1797
a(S'MPI_Send()'
p1798
S'789'
p1799
tp1800
a(S'MPI_Send()'
p1801
S'792'
p1802
tp1803
a(S'MPI_Recv()'
p1804
S'800'
p1805
tp1806
a(S'MPI_Recv()'
p1807
S'806'
p1808
tp1809
a(S'MPI_Recv()'
p1810
S'812'
p1811
tp1812
a(S'MPI_Barrier()'
p1813
S'820'
p1814
tp1815
a(S'MPI_Allreduce()'
p1816
S'1641'
p1817
tp1818
a(S'MPI_Comm_rank()'
p1819
S'2532'
p1820
tp1821
a(S'MPI_Allreduce()'
p1822
S'2541'
p1823
tp1824
a(S'MPI_Bcast()'
p1825
S'2551'
p1826
tp1827
asS'HopeFOAM/ThirdParty-0.1/ParaView-5.0.1/VTK/Accelerators/Piston/Testing/Cxx/TestDMPFiltering.cxx'
p1828
(lp1829
(S'MPI_Init()'
p1830
S'235'
p1831
tp1832
asS'HopeFOAM/ThirdParty-0.1/ParaView-5.0.1/VTK/Rendering/Parallel/Testing/Cxx/TestDistributedDataCompositeZPass.cxx'
p1833
(lp1834
(S'MPI_Init()'
p1835
S'483'
p1836
tp1837
asS'HopeFOAM/ThirdParty-0.1/ParaView-5.0.1/VTK/IO/MPIParallel/vtkPWindBladeReader.cxx'
p1838
(lp1839
(S'MPI_Error_string()'
p1840
S'45'
p1841
tp1842
asS'HopeFOAM/ThirdParty-0.1/ParaView-5.0.1/ThirdParty/CosmoHaloFinder/SimpleTimings.cxx'
p1843
(lp1844
(S'MPI_Allreduce()'
p1845
S'67'
p1846
tp1847
a(S'MPI_Allreduce()'
p1848
S'68'
p1849
tp1850
a(S'MPI_Allreduce()'
p1851
S'69'
p1852
tp1853
a(S'MPI_Barrier()'
p1854
S'83'
p1855
tp1856
a(S'MPI_Allreduce()'
p1857
S'96'
p1858
tp1859
a(S'MPI_Allreduce()'
p1860
S'97'
p1861
tp1862
a(S'MPI_Allreduce()'
p1863
S'98'
p1864
tp1865
a(S'MPI_Barrier()'
p1866
S'114'
p1867
tp1868
a(S'MPI_Barrier()'
p1869
S'117'
p1870
tp1871
asS'HopeFOAM/ThirdParty-0.1/ParaView-5.0.1/VTK/IO/ParallelNetCDF/vtkPNetCDFPOPReader.cxx'
p1872
(lp1873
(S'MPI_Irecv()'
p1874
S'447'
p1875
tp1876
a(S'MPI_Waitall()'
p1877
S'464'
p1878
tp1879
a(S'MPI_Waitall()'
p1880
S'476'
p1881
tp1882
a(S'MPI_Type_create_subarray()'
p1883
S'608'
p1884
tp1885
a(S'MPI_Type_commit()'
p1886
S'609'
p1887
tp1888
a(S'MPI_Isend()'
p1889
S'614'
p1890
tp1891
a(S'MPI_Type_free()'
p1892
S'616'
p1893
tp1894
a(S'MPI_Testany()'
p1895
S'632'
p1896
tp1897
asS'HopeFOAM/ThirdParty-0.1/ParaView-5.0.1/Utilities/VisItBridge/Library/VisItLib/avt/Pipeline/Data/avtIntervalTree.C'
p1898
(lp1899
(S'MPI_Allreduce()'
p1900
S'404'
p1901
tp1902
asS'HopeFOAM/ThirdParty-0.1/ParaView-5.0.1/VTK/ThirdParty/xdmf3/vtkxdmf3/core/dsm/XdmfDSMDriver.cpp'
p1903
(lp1904
(S'MPI_Comm_free()'
p1905
S'434'
p1906
tp1907
a(S'MPI_Comm_free()'
p1908
S'476'
p1909
tp1910
a(S'MPI_Comm_free()'
p1911
S'515'
p1912
tp1913
a(S'MPI_Comm_free()'
p1914
S'541'
p1915
tp1916
a(S'X_MPI_UNSIGNED_CHAR()'
p1917
S'625'
p1918
tp1919
a(S'X_MPI_UNSIGNED_CHAR()'
p1920
S'631'
p1921
tp1922
a(S'X_MPI_UNSIGNED_CHAR()'
p1923
S'634'
p1924
tp1925
a(S'MPI_Comm_free()'
p1926
S'667'
p1927
tp1928
a(S'X_MPI_UNSIGNED_CHAR()'
p1929
S'701'
p1930
tp1931
a(S'X_MPI_UNSIGNED_CHAR()'
p1932
S'807'
p1933
tp1934
a(S'MPI_Comm_dup()'
p1935
S'1053'
p1936
tp1937
asS'HopeFOAM/ThirdParty-0.1/ParaView-5.0.1/Examples/Catalyst/Fortran90FullExample/FEDriver.f90'
p1938
(lp1939
(S'mpi_init()'
p1940
S'16'
p1941
tp1942
a(S'mpi_comm_size()'
p1943
S'17'
p1944
tp1945
a(S'mpi_comm_rank()'
p1946
S'18'
p1947
tp1948
a(S'mpi_finalize()'
p1949
S'54'
p1950
tp1951
asS'HopeFOAM/ThirdParty-0.1/ParaView-5.0.1/VTK/ThirdParty/netcdf/vtknetcdf/include/ncdispatch.h'
p1952
(lp1953
(S'X_MPI_Comm()'
p1954
S'160'
p1955
tp1956
a(S'X_MPI_Info()'
p1957
S'161'
p1958
tp1959
a(S'X_MPI_COMM_WORLD()'
p1960
S'162'
p1961
tp1962
a(S'X_MPI_INFO_NULL()'
p1963
S'164'
p1964
tp1965
asS'HopeFOAM/ThirdParty-0.1/ParaView-5.0.1/VTK/Infovis/Parallel/Testing/Cxx/TestPBGLPipeline.cxx'
p1966
(lp1967
(S'MPI_Init()'
p1968
S'99'
p1969
tp1970
a(S'MPI_Finalize()'
p1971
S'172'
p1972
tp1973
a(S'MPI_Finalize()'
p1974
S'178'
p1975
tp1976
a(S'MPI_Finalize()'
p1977
S'194'
p1978
tp1979
a(S'MPI_Finalize()'
p1980
S'328'
p1981
tp1982
asS'HopeFOAM/ThirdParty-0.1/ParaView-5.0.1/Examples/Catalyst/CxxMappedDataArrayExample/FEDriver.cxx'
p1983
(lp1984
(S'MPI_Init()'
p1985
S'23'
p1986
tp1987
a(S'MPI_Finalize()'
p1988
S'48'
p1989
tp1990
asS'HopeFOAM/ThirdParty-0.1/ParaView-5.0.1/ThirdParty/IceT/vtkicet/tests/test_mpi.h'
p1991
(lp1992
(S'MPI_Init()'
p1993
S'22'
p1994
tp1995
a(S'MPI_Finalize()'
p1996
S'32'
p1997
tp1998
asS'HopeFOAM/ThirdParty-0.1/ParaView-5.0.1/VTK/ThirdParty/xdmf2/vtkxdmf2/libsrc/XdmfHDF.cxx'
p1999
(lp2000
(S'MPI_Initialized()'
p2001
S'58'
p2002
tp2003
a(S'MPI_Comm_size()'
p2004
S'61'
p2005
tp2006
asS'HopeFOAM/ThirdParty-0.1/ParaView-5.0.1/Examples/Catalyst/CxxFullExample/FEDataStructures.cxx'
p2007
(lp2008
(S'MPI_Comm_rank()'
p2009
S'18'
p2010
tp2011
a(S'MPI_Comm_size()'
p2012
S'19'
p2013
tp2014
asS'HopeFOAM/ThirdParty-0.1/ParaView-5.0.1/VTK/ThirdParty/hdf5/vtkhdf5/src/H5AC.c'
p2015
(lp2016
(S'MPI_Bcast()'
p2017
S'2657'
p2018
tp2019
a(S'MPI_Bcast()'
p2020
S'2766'
p2021
tp2022
asS'HopeFOAM/ThirdParty-0.1/ParaView-5.0.1/VTK/ThirdParty/xdmf3/vtkxdmf3/core/dsm/XdmfDSMBuffer.cpp'
p2023
(lp2024
(S'MPI_Bcast()'
p2025
S'143'
p2026
tp2027
a(S'MPI_Iprobe()'
p2028
S'480'
p2029
tp2030
a(S'MPI_Recv()'
p2031
S'575'
p2032
tp2033
a(S'X_MPI_UNSIGNED_CHAR()'
p2034
S'577'
p2035
tp2036
a(S'MPI_Recv()'
p2037
S'584'
p2038
tp2039
a(S'X_MPI_UNSIGNED_CHAR()'
p2040
S'586'
p2041
tp2042
a(S'MPI_Recv()'
p2043
S'594'
p2044
tp2045
a(S'X_MPI_UNSIGNED_CHAR()'
p2046
S'596'
p2047
tp2048
a(S'MPI_Recv()'
p2049
S'621'
p2050
tp2051
a(S'X_MPI_UNSIGNED_CHAR()'
p2052
S'623'
p2053
tp2054
a(S'MPI_Recv()'
p2055
S'630'
p2056
tp2057
a(S'X_MPI_UNSIGNED_CHAR()'
p2058
S'632'
p2059
tp2060
a(S'MPI_Recv()'
p2061
S'641'
p2062
tp2063
a(S'X_MPI_UNSIGNED_CHAR()'
p2064
S'643'
p2065
tp2066
a(S'MPI_Recv()'
p2067
S'667'
p2068
tp2069
a(S'X_MPI_UNSIGNED_CHAR()'
p2070
S'669'
p2071
tp2072
a(S'MPI_Recv()'
p2073
S'676'
p2074
tp2075
a(S'X_MPI_UNSIGNED_CHAR()'
p2076
S'678'
p2077
tp2078
a(S'MPI_Recv()'
p2079
S'686'
p2080
tp2081
a(S'X_MPI_UNSIGNED_CHAR()'
p2082
S'688'
p2083
tp2084
a(S'MPI_Allgather()'
p2085
S'715'
p2086
tp2087
a(S'MPI_Bcast()'
p2088
S'724'
p2089
tp2090
a(S'X_MPI_UNSIGNED_CHAR()'
p2091
S'726'
p2092
tp2093
a(S'MPI_Send()'
p2094
S'760'
p2095
tp2096
a(S'X_MPI_UNSIGNED_CHAR()'
p2097
S'762'
p2098
tp2099
a(S'MPI_Send()'
p2100
S'768'
p2101
tp2102
a(S'X_MPI_UNSIGNED_CHAR()'
p2103
S'770'
p2104
tp2105
a(S'MPI_Send()'
p2106
S'777'
p2107
tp2108
a(S'X_MPI_UNSIGNED_CHAR()'
p2109
S'779'
p2110
tp2111
a(S'MPI_Send()'
p2112
S'802'
p2113
tp2114
a(S'X_MPI_UNSIGNED_CHAR()'
p2115
S'804'
p2116
tp2117
a(S'MPI_Comm_rank()'
p2118
S'811'
p2119
tp2120
a(S'MPI_Send()'
p2121
S'813'
p2122
tp2123
a(S'X_MPI_UNSIGNED_CHAR()'
p2124
S'815'
p2125
tp2126
a(S'MPI_Send()'
p2127
S'823'
p2128
tp2129
a(S'X_MPI_UNSIGNED_CHAR()'
p2130
S'825'
p2131
tp2132
a(S'MPI_Send()'
p2133
S'840'
p2134
tp2135
a(S'X_MPI_UNSIGNED_CHAR()'
p2136
S'842'
p2137
tp2138
a(S'MPI_Send()'
p2139
S'848'
p2140
tp2141
a(S'X_MPI_UNSIGNED_CHAR()'
p2142
S'850'
p2143
tp2144
a(S'MPI_Send()'
p2145
S'857'
p2146
tp2147
a(S'MPI_Allgather()'
p2148
S'906'
p2149
tp2150
a(S'X_MPI_INT()'
p2151
S'908'
p2152
tp2153
a(S'X_MPI_INT()'
p2154
S'911'
p2155
tp2156
a(S'MPI_Bcast()'
p2157
S'922'
p2158
tp2159
a(S'X_MPI_UNSIGNED_CHAR()'
p2160
S'924'
p2161
tp2162
asS'HopeFOAM/ThirdParty-0.1/ParaView-5.0.1/VTK/IO/MPIImage/Testing/Cxx/ParallelIso.cxx'
p2163
(lp2164
(S'MPI_Init()'
p2165
S'243'
p2166
tp2167
asS'HopeFOAM/ThirdParty-0.1/ParaView-5.0.1/VTK/Filters/ParallelStatistics/Testing/Cxx/TestRealDataPDescriptiveStatisticsMPI.cxx'
p2168
(lp2169
(S'MPI_Comm_get_attr()'
p2170
S'416'
p2171
tp2172
a(S'X_MPI_IO()'
p2173
S'417'
p2174
tp2175
asS'HopeFOAM/ThirdParty-0.1/ParaView-5.0.1/Examples/Catalyst/CxxMappedDataArrayExample/FEDataStructures.cxx'
p2176
(lp2177
(S'MPI_Comm_rank()'
p2178
S'18'
p2179
tp2180
a(S'MPI_Comm_size()'
p2181
S'19'
p2182
tp2183
asS'HopeFOAM/ThirdParty-0.1/ParaView-5.0.1/ThirdParty/CosmoHaloFinder/ParticleDistribute.cxx'
p2184
(lp2185
(S'MPI_Type_struct()'
p2186
S'241'
p2187
tp2188
a(S'MPI_Type_commit()'
p2189
S'242'
p2190
tp2191
a(S'MPI_Alltoall()'
p2192
S'362'
p2193
tp2194
a(S'MPI_Alltoallv()'
p2195
S'390'
p2196
tp2197
a(S'MPI_Irecv()'
p2198
S'401'
p2199
tp2200
a(S'MPI_Barrier()'
p2201
S'405'
p2202
tp2203
a(S'MPI_Isend()'
p2204
S'412'
p2205
tp2206
a(S'MPI_Waitall()'
p2207
S'417'
p2208
tp2209
a(S'MPI_Allreduce()'
p2210
S'473'
p2211
tp2212
a(S'MPI_Type_free()'
p2213
S'486'
p2214
tp2215
a(S'MPI_Type_struct()'
p2216
S'543'
p2217
tp2218
a(S'MPI_Type_commit()'
p2219
S'544'
p2220
tp2221
a(S'MPI_Cart_rank()'
p2222
S'580'
p2223
tp2224
a(S'MPI_Alltoall()'
p2225
S'630'
p2226
tp2227
a(S'MPI_Alltoallv()'
p2228
S'657'
p2229
tp2230
a(S'MPI_Irecv()'
p2231
S'668'
p2232
tp2233
a(S'MPI_Barrier()'
p2234
S'672'
p2235
tp2236
a(S'MPI_Isend()'
p2237
S'679'
p2238
tp2239
a(S'MPI_Waitall()'
p2240
S'684'
p2241
tp2242
a(S'MPI_Allreduce()'
p2243
S'725'
p2244
tp2245
a(S'MPI_Type_free()'
p2246
S'734'
p2247
tp2248
a(S'MPI_Allreduce()'
p2249
S'935'
p2250
tp2251
a(S'MPI_Allreduce()'
p2252
S'1195'
p2253
tp2254
a(S'MPI_Allreduce()'
p2255
S'1204'
p2256
tp2257
a(S'MPI_Allreduce()'
p2258
S'1213'
p2259
tp2260
a(S'MPI_Barrier()'
p2261
S'1268'
p2262
tp2263
a(S'MPI_Barrier()'
p2264
S'1277'
p2265
tp2266
a(S'MPI_Cart_rank()'
p2267
S'1599'
p2268
tp2269
a(S'MPI_Cart_rank()'
p2270
S'1766'
p2271
tp2272
asS'HopeFOAM/ThirdParty-0.1/ParaView-5.0.1/VTK/Infovis/Parallel/vtkPBGLRMATGraphSource.cxx'
p2273
(lp2274
(S'MPI_Comm_rank()'
p2275
S'58'
p2276
tp2277
a(S'MPI_Comm_rank()'
p2278
S'184'
p2279
tp2280
a(S'MPI_Comm_size()'
p2281
S'185'
p2282
tp2283
asS'HopeFOAM/ThirdParty-0.1/ParaView-5.0.1/VTK/ThirdParty/xdmf3/vtkxdmf3/core/dsm/XdmfDSMCommMPI.cpp'
p2284
(lp2285
(S'MPI_Comm_free()'
p2286
S'80'
p2287
tp2288
a(S'MPI_Comm_free()'
p2289
S'86'
p2290
tp2291
a(S'MPI_Allgather()'
p2292
S'107'
p2293
tp2294
a(S'MPI_Comm_accept()'
p2295
S'114'
p2296
tp2297
a(S'MPI_Intercomm_merge()'
p2298
S'121'
p2299
tp2300
a(S'MPI_Comm_rank()'
p2301
S'126'
p2302
tp2303
a(S'MPI_Comm_size()'
p2304
S'127'
p2305
tp2306
a(S'MPI_Allgather()'
p2307
S'139'
p2308
tp2309
a(S'MPI_Comm_accept()'
p2310
S'146'
p2311
tp2312
a(S'MPI_Intercomm_merge()'
p2313
S'153'
p2314
tp2315
a(S'MPI_Comm_rank()'
p2316
S'158'
p2317
tp2318
a(S'MPI_Comm_size()'
p2319
S'159'
p2320
tp2321
a(S'MPI_Bcast()'
p2322
S'163'
p2323
tp2324
a(S'MPI_Close_port()'
p2325
S'172'
p2326
tp2327
a(S'MPI_Errhandler_set()'
p2328
S'187'
p2329
tp2330
a(S'MPI_Comm_connect()'
p2331
S'188'
p2332
tp2333
a(S'MPI_Errhandler_set()'
p2334
S'189'
p2335
tp2336
a(S'MPI_Intercomm_merge()'
p2337
S'195'
p2338
tp2339
a(S'MPI_Comm_rank()'
p2340
S'200'
p2341
tp2342
a(S'MPI_Comm_size()'
p2343
S'201'
p2344
tp2345
a(S'MPI_Errhandler_set()'
p2346
S'206'
p2347
tp2348
a(S'MPI_Comm_connect()'
p2349
S'207'
p2350
tp2351
a(S'MPI_Errhandler_set()'
p2352
S'208'
p2353
tp2354
a(S'MPI_Intercomm_merge()'
p2355
S'214'
p2356
tp2357
a(S'MPI_Comm_rank()'
p2358
S'219'
p2359
tp2360
a(S'MPI_Comm_size()'
p2361
S'220'
p2362
tp2363
a(S'MPI_Bcast()'
p2364
S'224'
p2365
tp2366
a(S'MPI_Comm_free()'
p2367
S'234'
p2368
tp2369
a(S'MPI_Comm_free()'
p2370
S'250'
p2371
tp2372
a(S'MPI_Comm_dup()'
p2373
S'257'
p2374
tp2375
a(S'MPI_Comm_size()'
p2376
S'262'
p2377
tp2378
a(S'MPI_Comm_rank()'
p2379
S'263'
p2380
tp2381
a(S'MPI_Comm_free()'
p2382
S'276'
p2383
tp2384
a(S'MPI_Comm_dup()'
p2385
S'283'
p2386
tp2387
a(S'MPI_Comm_rank()'
p2388
S'288'
p2389
tp2390
a(S'MPI_Comm_size()'
p2391
S'289'
p2392
tp2393
a(S'MPI_Open_port()'
p2394
S'372'
p2395
tp2396
a(S'MPI_Bcast()'
p2397
S'388'
p2398
tp2399
asS'HopeFOAM/ThirdParty-0.1/ParaView-5.0.1/VTK/Filters/Parallel/Testing/Cxx/TransmitRectilinearGrid.cxx'
p2400
(lp2401
(S'MPI_Init()'
p2402
S'239'
p2403
tp2404
asS'HopeFOAM/ThirdParty-0.1/ParaView-5.0.1/Utilities/VisItBridge/Library/VisItLib/avt/Database/Ghost/avtIsenburgSGG.C'
p2405
(lp2406
(S'MPI_Comm_rank()'
p2407
S'509'
p2408
tp2409
a(S'MPI_Comm_size()'
p2410
S'510'
p2411
tp2412
a(S'MPI_Irecv()'
p2413
S'820'
p2414
tp2415
a(S'X_MPI_BYTE()'
p2416
S'822'
p2417
tp2418
a(S'X_MPI_COMM_WORLD()'
p2419
S'825'
p2420
tp2421
a(S'MPI_Testany()'
p2422
S'921'
p2423
tp2424
a(S'MPI_Isend()'
p2425
S'1186'
p2426
tp2427
a(S'X_MPI_BYTE()'
p2428
S'1188'
p2429
tp2430
a(S'X_MPI_COMM_WORLD()'
p2431
S'1191'
p2432
tp2433
a(S'MPI_Waitany()'
p2434
S'1337'
p2435
tp2436
a(S'MPI_Waitany()'
p2437
S'1696'
p2438
tp2439
a(S'MPI_Testany()'
p2440
S'1701'
p2441
tp2442
a(S'MPI_Get_count()'
p2443
S'1782'
p2444
tp2445
a(S'MPI_Irecv()'
p2446
S'1801'
p2447
tp2448
a(S'X_MPI_BYTE()'
p2449
S'1803'
p2450
tp2451
a(S'X_MPI_COMM_WORLD()'
p2452
S'1806'
p2453
tp2454
asS'HopeFOAM/ThirdParty-0.1/ParaView-5.0.1/VTK/Infovis/Parallel/Testing/Cxx/TestPBGLAlgorithms.cxx'
p2455
(lp2456
(S'MPI_Init()'
p2457
S'323'
p2458
tp2459
a(S'MPI_Finalize()'
p2460
S'326'
p2461
tp2462
asS'HopeFOAM/ThirdParty-0.1/ParaView-5.0.1/ThirdParty/CosmoHaloFinder/dims-local-init.cxx'
p2463
(lp2464
(S'MPI_Comm_size()'
p2465
S'20'
p2466
tp2467
asS'HopeFOAM/ThirdParty-0.1/ParaView-5.0.1/Examples/Catalyst/FortranPoissonSolver/FEDriver.F90'
p2468
(lp2469
(S'mpi_init()'
p2470
S'16'
p2471
tp2472
a(S'mpi_comm_size()'
p2473
S'17'
p2474
tp2475
a(S'mpi_comm_rank()'
p2476
S'18'
p2477
tp2478
a(S'mpi_finalize()'
p2479
S'50'
p2480
tp2481
asS'HopeFOAM/ThirdParty-0.1/ParaView-5.0.1/VTK/Accelerators/Piston/Testing/Cxx/TestCompositeRender.cxx'
p2482
(lp2483
(S'MPI_Init()'
p2484
S'224'
p2485
tp2486
asS'HopeFOAM/ThirdParty-0.1/ParaView-5.0.1/Examples/Catalyst/CxxMultiPieceExample/FEDriver.cxx'
p2487
(lp2488
(S'MPI_Init()'
p2489
S'26'
p2490
tp2491
a(S'MPI_Finalize()'
p2492
S'51'
p2493
tp2494
asS'HopeFOAM/ThirdParty-0.1/ParaView-5.0.1/ThirdParty/CosmoHaloFinder/FOFDistribute.cxx'
p2495
(lp2496
(S'MPI_Type_struct()'
p2497
S'199'
p2498
tp2499
a(S'MPI_Type_commit()'
p2500
S'200'
p2501
tp2502
a(S'MPI_Cart_rank()'
p2503
S'294'
p2504
tp2505
a(S'MPI_Alltoall()'
p2506
S'359'
p2507
tp2508
a(S'MPI_Alltoallv()'
p2509
S'386'
p2510
tp2511
a(S'MPI_Irecv()'
p2512
S'397'
p2513
tp2514
a(S'MPI_Barrier()'
p2515
S'401'
p2516
tp2517
a(S'MPI_Isend()'
p2518
S'408'
p2519
tp2520
a(S'MPI_Waitall()'
p2521
S'413'
p2522
tp2523
a(S'MPI_Allreduce()'
p2524
S'467'
p2525
tp2526
a(S'MPI_Type_free()'
p2527
S'476'
p2528
tp2529
asS'HopeFOAM/ThirdParty-0.1/ParaView-5.0.1/Examples/Catalyst/CFullExample2/FEDataStructures.c'
p2530
(lp2531
(S'MPI_Comm_rank()'
p2532
S'20'
p2533
tp2534
a(S'MPI_Comm_size()'
p2535
S'21'
p2536
tp2537
asS'HopeFOAM/ThirdParty-0.1/ParaView-5.0.1/VTK/Rendering/Parallel/Testing/Cxx/TestParallelRendering.cxx'
p2538
(lp2539
(S'MPI_Init()'
p2540
S'164'
p2541
tp2542
asS'HopeFOAM/ThirdParty-0.1/ParaView-5.0.1/ThirdParty/IceT/vtkicet/src/communication/mpi.c'
p2543
(lp2544
(S'MPI_Error_string()'
p2545
S'186'
p2546
tp2547
a(S'MPI_Comm_dup()'
p2548
S'236'
p2549
tp2550
a(S'MPI_Errhandler_create()'
p2551
S'240'
p2552
tp2553
a(S'MPI_Errhandler_set()'
p2554
S'241'
p2555
tp2556
a(S'MPI_Errhandler_free()'
p2557
S'242'
p2558
tp2559
a(S'MPI_Comm_create_errhandler()'
p2560
S'244'
p2561
tp2562
a(S'MPI_Comm_set_errhandler()'
p2563
S'245'
p2564
tp2565
a(S'MPI_Errhandler_free()'
p2566
S'246'
p2567
tp2568
a(S'X_MPI_COMM()'
p2569
S'261'
p2570
tp2571
a(S'MPI_Comm_group()'
p2572
S'281'
p2573
tp2574
a(S'MPI_Group_incl()'
p2575
S'282'
p2576
tp2577
a(S'MPI_Comm_create()'
p2578
S'283'
p2579
tp2580
a(S'MPI_Comm_free()'
p2581
S'288'
p2582
tp2583
a(S'MPI_Group_free()'
p2584
S'291'
p2585
tp2586
a(S'MPI_Group_free()'
p2587
S'292'
p2588
tp2589
a(S'MPI_Comm_free()'
p2590
S'299'
p2591
tp2592
a(S'MPI_Barrier()'
p2593
S'306'
p2594
tp2595
a(S'MPI_Send()'
p2596
S'333'
p2597
tp2598
a(S'MPI_Recv()'
p2599
S'345'
p2600
tp2601
a(S'MPI_Sendrecv()'
p2602
S'365'
p2603
tp2604
a(S'MPI_Comm_rank()'
p2605
S'385'
p2606
tp2607
a(S'MPI_Gather()'
p2608
S'394'
p2609
tp2610
a(S'MPI_Comm_rank()'
p2611
S'416'
p2612
tp2613
a(S'MPI_Gatherv()'
p2614
S'426'
p2615
tp2616
a(S'MPI_Comm_rank()'
p2617
S'445'
p2618
tp2619
a(S'MPI_Allgather()'
p2620
S'454'
p2621
tp2622
a(S'MPI_Alltoall()'
p2623
S'468'
p2624
tp2625
a(S'MPI_Isend()'
p2626
S'485'
p2627
tp2628
a(S'MPI_Irecv()'
p2629
S'506'
p2630
tp2631
a(S'MPI_Wait()'
p2632
S'525'
p2633
tp2634
a(S'MPI_Waitany()'
p2635
S'552'
p2636
tp2637
a(S'MPI_Comm_size()'
p2638
S'566'
p2639
tp2640
a(S'MPI_Comm_rank()'
p2641
S'573'
p2642
tp2643
asS'HopeFOAM/ThirdParty-0.1/ParaView-5.0.1/VTK/ThirdParty/hdf5/vtkhdf5/src/H5Eint.c'
p2644
(lp2645
(S'MPI_Initialized()'
p2646
S'277'
p2647
tp2648
a(S'MPI_Comm_rank()'
p2649
S'279'
p2650
tp2651
a(S'MPI_Initialized()'
p2652
S'407'
p2653
tp2654
a(S'MPI_Comm_rank()'
p2655
S'409'
p2656
tp2657
asS'HopeFOAM/ThirdParty-0.1/ParaView-5.0.1/ParaViewCore/VTKExtensions/Testing/TestIceTShadowMapPass.cxx'
p2658
(lp2659
(S'MPI_Init()'
p2660
S'552'
p2661
tp2662
asS'HopeFOAM/ThirdParty-0.1/ParaView-5.0.1/VTK/IO/MPIImage/vtkMPIImageReader.cxx'
p2663
(lp2664
(S'MPI_Error_string()'
p2665
S'66'
p2666
tp2667
a(S'X_MPI_ORDER_FORTRAN()'
p2668
S'253'
p2669
tp2670
a(S'MPI_File_open()'
p2671
S'279'
p2672
tp2673
a(S'X_MPI_INFO_NULL()'
p2674
S'281'
p2675
tp2676
a(S'X_MPI_BYTE()'
p2677
S'306'
p2678
tp2679
asS'HopeFOAM/ThirdParty-0.1/ParaView-5.0.1/VTK/Infovis/Parallel/Testing/Cxx/TestPBGLGraphSQLReaderFile.cxx'
p2680
(lp2681
(S'MPI_Init()'
p2682
S'478'
p2683
tp2684
a(S'MPI_Finalize()'
p2685
S'481'
p2686
tp2687
asS'HopeFOAM/ThirdParty-0.1/ParaView-5.0.1/VTK/Parallel/MPI/vtkMPIController.cxx'
p2688
(lp2689
(S'MPI_Init()'
p2690
S'154'
p2691
tp2692
a(S'MPI_Get_processor_name()'
p2693
S'159'
p2694
tp2695
a(S'MPI_Finalize()'
p2696
S'199'
p2697
tp2698
a(S'MPI_Error_string()'
p2699
S'309'
p2700
tp2701
asS'HopeFOAM/ThirdParty-0.1/ParaView-5.0.1/VTK/Filters/Parallel/Testing/Cxx/TransmitStructuredGrid.cxx'
p2702
(lp2703
(S'MPI_Init()'
p2704
S'238'
p2705
tp2706
asS'HopeFOAM/ThirdParty-0.1/ParaView-5.0.1/Examples/Catalyst/CxxPVSMPipelineExample/FEDataStructures.cxx'
p2707
(lp2708
(S'MPI_Comm_rank()'
p2709
S'18'
p2710
tp2711
a(S'MPI_Comm_size()'
p2712
S'19'
p2713
tp2714
asS'HopeFOAM/ThirdParty-0.1/ParaView-5.0.1/VTK/Parallel/MPI/Testing/Cxx/TestPProbe.cxx'
p2715
(lp2716
(S'MPI_Init()'
p2717
S'43'
p2718
tp2719
asS'HopeFOAM/ThirdParty-0.1/ParaView-5.0.1/Examples/Catalyst/CFullExample/FEDataStructures.c'
p2720
(lp2721
(S'MPI_Comm_rank()'
p2722
S'20'
p2723
tp2724
a(S'MPI_Comm_size()'
p2725
S'21'
p2726
tp2727
asS'HopeFOAM/ThirdParty-0.1/ParaView-5.0.1/VTK/Infovis/Parallel/vtkPBGLRandomGraphSource.cxx'
p2728
(lp2729
(S'MPI_Comm_rank()'
p2730
S'53'
p2731
tp2732
a(S'MPI_Comm_rank()'
p2733
S'122'
p2734
tp2735
a(S'MPI_Comm_size()'
p2736
S'123'
p2737
tp2738
asS'HopeFOAM/ThirdParty-0.1/ParaView-5.0.1/Examples/Catalyst/FortranPoissonSolver/FEFortranAdaptor.F90'
p2739
(lp2740
(S'mpi_comm_size()'
p2741
S'64'
p2742
tp2743
a(S'mpi_comm_rank()'
p2744
S'65'
p2745
tp2746
asS'HopeFOAM/ThirdParty-0.1/ParaView-5.0.1/Utilities/VisItBridge/Library/VisItLib/avt/Pipeline/Data/avtImagePartition.C'
p2747
(lp2748
(S'MPI_Comm_size()'
p2749
S'114'
p2750
tp2751
a(S'MPI_Comm_rank()'
p2752
S'124'
p2753
tp2754
a(S'MPI_Allgather()'
p2755
S'511'
p2756
tp2757
a(S'X_MPI_INT()'
p2758
S'512'
p2759
tp2760
asS'HopeFOAM/HopeFOAM-0.1/src/Pstream/mpi/UPstream.C'
p2761
(lp2762
(S'X_MPI_SCALAR()'
p2763
S'40'
p2764
tp2765
a(S'X_MPI_SCALAR()'
p2766
S'42'
p2767
tp2768
a(S'MPI_Init()'
p2769
S'64'
p2770
tp2771
a(S'MPI_Comm_size()'
p2772
S'67'
p2773
tp2774
a(S'MPI_Comm_rank()'
p2775
S'69'
p2776
tp2777
a(S'MPI_Buffer_attach()'
p2778
S'98'
p2779
tp2780
a(S'MPI_Buffer_detach()'
p2781
S'131'
p2782
tp2783
a(S'MPI_Finalize()'
p2784
S'159'
p2785
tp2786
a(S'MPI_Abort()'
p2787
S'164'
p2788
tp2789
a(S'MPI_Abort()'
p2790
S'171'
p2791
tp2792
a(S'X_MPI_SCALAR()'
p2793
S'274'
p2794
tp2795
a(S'X_MPI_SUM()'
p2796
S'275'
p2797
tp2798
a(S'X_MPI_BYTE()'
p2799
S'331'
p2800
tp2801
a(S'X_MPI_BYTE()'
p2802
S'334'
p2803
tp2804
a(S'MPI_Comm_group()'
p2805
S'382'
p2806
tp2807
a(S'MPI_Comm_size()'
p2808
S'391'
p2809
tp2810
a(S'MPI_Comm_free()'
p2811
S'454'
p2812
tp2813
a(S'MPI_Group_free()'
p2814
S'459'
p2815
tp2816
asS'HopeFOAM/ThirdParty-0.1/ParaView-5.0.1/ThirdParty/CosmoHaloFinder/GridExchange.cxx'
p2817
(lp2818
(S'MPI_Isend()'
p2819
S'587'
p2820
tp2821
a(S'MPI_Isend()'
p2822
S'590'
p2823
tp2824
a(S'MPI_Recv()'
p2825
S'597'
p2826
tp2827
a(S'MPI_Recv()'
p2828
S'600'
p2829
tp2830
a(S'MPI_Wait()'
p2831
S'604'
p2832
tp2833
a(S'MPI_Barrier()'
p2834
S'605'
p2835
tp2836
asS'HopeFOAM/ThirdParty-0.1/ParaView-5.0.1/VTK/ThirdParty/hdf5/vtkhdf5/src/H5Eprivate.h'
p2837
(lp2838
(S'MPI_Error_string()'
p2839
S'139'
p2840
tp2841
asS'HopeFOAM/ThirdParty-0.1/ParaView-5.0.1/Examples/Catalyst/CxxParticlePathExample/FEDriver.cxx'
p2842
(lp2843
(S'MPI_Init()'
p2844
S'32'
p2845
tp2846
a(S'MPI_Finalize()'
p2847
S'78'
p2848
tp2849
asS'HopeFOAM/ThirdParty-0.1/ParaView-5.0.1/VTK/Infovis/Parallel/Testing/Cxx/TestPBGLGraphSQLReader.cxx'
p2850
(lp2851
(S'MPI_Abort()'
p2852
S'54'
p2853
tp2854
a(S'MPI_Init()'
p2855
S'150'
p2856
tp2857
a(S'MPI_Finalize()'
p2858
S'153'
p2859
tp2860
asS'HopeFOAM/ThirdParty-0.1/ParaView-5.0.1/VTK/ThirdParty/mpi4py/vtkmpi4py/src/fallback.h'
p2861
(lp2862
(S'X_MPI_VERSION()'
p2863
S'34'
p2864
tp2865
a(S'X_MPI_SUBVERSION()'
p2866
S'40'
p2867
tp2868
a(S'X_MPI_Get_version()'
p2869
S'54'
p2870
tp2871
a(S'MPI_Init()'
p2872
S'67'
p2873
tp2874
a(S'X_MPI_Init_thread()'
p2875
S'73'
p2876
tp2877
a(S'X_MPI_Query_thread()'
p2878
S'84'
p2879
tp2880
a(S'X_MPI_Is_thread_main()'
p2881
S'95'
p2882
tp2883
a(S'X_MPI_STATUS_IGNORE()'
p2884
S'105'
p2885
tp2886
a(S'X_MPI_STATUSES_IGNORE()'
p2887
S'118'
p2888
tp2889
a(S'X_MPI_LONG_LONG()'
p2890
S'127'
p2891
tp2892
a(S'MPI_Type_lb()'
p2893
S'135'
p2894
tp2895
a(S'MPI_Type_extent()'
p2896
S'137'
p2897
tp2898
a(S'X_MPI_Type_get_extent()'
p2899
S'142'
p2900
tp2901
a(S'MPI_Type_contiguous()'
p2902
S'149'
p2903
tp2904
a(S'MPI_Type_commit()'
p2905
S'151'
p2906
tp2907
a(S'X_MPI_Type_dup()'
p2908
S'156'
p2909
tp2910
a(S'MPI_Type_indexed()'
p2911
S'173'
p2912
tp2913
a(S'X_MPI_Type_create_indexed_block()'
p2914
S'178'
p2915
tp2916
a(S'MPI_Type_extent()'
p2917
S'221'
p2918
tp2919
a(S'MPI_Type_contiguous()'
p2920
S'225'
p2921
tp2922
a(S'MPI_Type_vector()'
p2923
S'229'
p2924
tp2925
a(S'MPI_Type_hvector()'
p2926
S'234'
p2927
tp2928
a(S'MPI_Type_free()'
p2929
S'236'
p2930
tp2931
a(S'MPI_Type_contiguous()'
p2932
S'250'
p2933
tp2934
a(S'MPI_Type_vector()'
p2935
S'253'
p2936
tp2937
a(S'MPI_Type_hvector()'
p2938
S'259'
p2939
tp2940
a(S'MPI_Type_free()'
p2941
S'261'
p2942
tp2943
a(S'MPI_Type_struct()'
p2944
S'283'
p2945
tp2946
a(S'MPI_Type_free()'
p2947
S'285'
p2948
tp2949
a(S'X_MPI_Type_create_subarray()'
p2950
S'293'
p2951
tp2952
a(S'MPI_Type_contiguous()'
p2953
S'340'
p2954
tp2955
a(S'MPI_Type_hvector()'
p2956
S'344'
p2957
tp2958
a(S'MPI_Type_contiguous()'
p2959
S'349'
p2960
tp2961
a(S'MPI_Type_hvector()'
p2962
S'353'
p2963
tp2964
a(S'MPI_Type_hvector()'
p2965
S'411'
p2966
tp2967
a(S'MPI_Type_struct()'
p2968
S'422'
p2969
tp2970
a(S'MPI_Type_free()'
p2971
S'424'
p2972
tp2973
a(S'MPI_Type_struct()'
p2974
S'439'
p2975
tp2976
a(S'MPI_Type_free()'
p2977
S'441'
p2978
tp2979
a(S'MPI_Type_extent()'
p2980
S'477'
p2981
tp2982
a(S'MPI_Type_free()'
p2983
S'541'
p2984
tp2985
a(S'MPI_Type_free()'
p2986
S'577'
p2987
tp2988
a(S'MPI_Type_struct()'
p2989
S'599'
p2990
tp2991
a(S'MPI_Type_free()'
p2992
S'601'
p2993
tp2994
a(S'X_MPI_Type_create_darray()'
p2995
S'614'
p2996
tp2997
a(S'MPI_Status_set_elements()'
p2998
S'640'
p2999
tp3000
a(S'MPI_Status_set_cancelled()'
p3001
S'643'
p3002
tp3003
a(S'X_MPI_Request_get_status()'
p3004
S'649'
p3005
tp3006
a(S'MPI_Comm_size()'
p3007
S'662'
p3008
tp3009
a(S'MPI_Reduce_scatter()'
p3010
S'667'
p3011
tp3012
a(S'X_MPI_Reduce_scatter_block()'
p3013
S'675'
p3014
tp3015
a(S'X_MPI_Alloc_mem()'
p3016
S'698'
p3017
tp3018
a(S'X_MPI_Free_mem()'
p3019
S'707'
p3020
tp3021
asS'HopeFOAM/ThirdParty-0.1/ParaView-5.0.1/ParaViewCore/VTKExtensions/CosmoTools/Testing/Cxx/TestHaloFinderSummaryInfo.cxx'
p3022
(lp3023
(S'MPI_Init()'
p3024
S'85'
p3025
tp3026
asS'HopeFOAM/ThirdParty-0.1/ParaView-5.0.1/VTK/IO/ADIOS/ADIOSReader.cxx'
p3027
(lp3028
(S'MPI_Initialized()'
p3029
S'41'
p3030
tp3031
a(S'MPI_Comm_size()'
p3032
S'49'
p3033
tp3034
a(S'MPI_Comm_rank()'
p3035
S'50'
p3036
tp3037
a(S'MPI_Barrier()'
p3038
S'60'
p3039
tp3040
asS'HopeFOAM/ThirdParty-0.1/ParaView-5.0.1/VTK/Rendering/ParallelLIC/vtkPSurfaceLICPainter.cxx'
p3041
(lp3042
(S'MPI_Allreduce()'
p3043
S'55'
p3044
tp3045
a(S'X_MPI_IN_PLACE()'
p3046
S'56'
p3047
tp3048
a(S'X_MPI_INT()'
p3049
S'59'
p3050
tp3051
a(S'X_MPI_MAX()'
p3052
S'60'
p3053
tp3054
a(S'MPI_Allreduce()'
p3055
S'86'
p3056
tp3057
a(S'X_MPI_IN_PLACE()'
p3058
S'87'
p3059
tp3060
a(S'X_MPI_FLOAT()'
p3061
S'90'
p3062
tp3063
a(S'X_MPI_MIN()'
p3064
S'91'
p3065
tp3066
a(S'MPI_Allreduce()'
p3067
S'94'
p3068
tp3069
a(S'X_MPI_IN_PLACE()'
p3070
S'95'
p3071
tp3072
a(S'X_MPI_FLOAT()'
p3073
S'98'
p3074
tp3075
a(S'X_MPI_MAX()'
p3076
S'99'
p3077
tp3078
asS'HopeFOAM/ThirdParty-0.1/ParaView-5.0.1/Examples/Catalyst/CxxVTKPipelineExample/FEDriver.cxx'
p3079
(lp3080
(S'MPI_Init()'
p3081
S'31'
p3082
tp3083
a(S'MPI_Finalize()'
p3084
S'73'
p3085
tp3086
asS'HopeFOAM/ThirdParty-0.1/ParaView-5.0.1/Utilities/VisItBridge/Library/VisItLib/avt/Database/Database/avtGenericDatabase.C'
p3087
(lp3088
(S'MPI_Allreduce()'
p3089
S'660'
p3090
tp3091
a(S'MPI_Allreduce()'
p3092
S'5544'
p3093
tp3094
a(S'MPI_Allreduce()'
p3095
S'5559'
p3096
tp3097
a(S'MPI_Allreduce()'
p3098
S'5583'
p3099
tp3100
a(S'MPI_Allreduce()'
p3101
S'6011'
p3102
tp3103
a(S'MPI_Allreduce()'
p3104
S'6012'
p3105
tp3106
a(S'MPI_Allreduce()'
p3107
S'6013'
p3108
tp3109
a(S'MPI_Allreduce()'
p3110
S'6015'
p3111
tp3112
a(S'MPI_Alltoall()'
p3113
S'6815'
p3114
tp3115
a(S'MPI_Alltoallv()'
p3116
S'6850'
p3117
tp3118
a(S'MPI_Alltoall()'
p3119
S'6985'
p3120
tp3121
a(S'MPI_Alltoallv()'
p3122
S'7050'
p3123
tp3124
a(S'MPI_Alltoall()'
p3125
S'7284'
p3126
tp3127
a(S'MPI_Alltoallv()'
p3128
S'7313'
p3129
tp3130
a(S'MPI_Alltoallv()'
p3131
S'7354'
p3132
tp3133
a(S'MPI_Allreduce()'
p3134
S'7531'
p3135
tp3136
asS'HopeFOAM/ThirdParty-0.1/ParaView-5.0.1/VTK/Rendering/ParallelLIC/vtkParallelTimer.cxx'
p3137
(lp3138
(S'MPI_Initialized()'
p3139
S'285'
p3140
tp3141
a(S'MPI_Comm_rank()'
p3142
S'291'
p3143
tp3144
a(S'MPI_Comm_size()'
p3145
S'293'
p3146
tp3147
a(S'MPI_Gather()'
p3148
S'306'
p3149
tp3150
a(S'X_MPI_INT()'
p3151
S'309'
p3152
tp3153
a(S'X_MPI_INT()'
p3154
S'312'
p3155
tp3156
a(S'MPI_Gatherv()'
p3157
S'326'
p3158
tp3159
a(S'X_MPI_CHAR()'
p3160
S'329'
p3161
tp3162
a(S'X_MPI_CHAR()'
p3163
S'333'
p3164
tp3165
a(S'MPI_Initialized()'
p3166
S'400'
p3167
tp3168
a(S'MPI_Comm_rank()'
p3169
S'403'
p3170
tp3171
a(S'MPI_Barrier()'
p3172
S'594'
p3173
tp3174
a(S'MPI_Barrier()'
p3175
S'612'
p3176
tp3177
asS'HopeFOAM/ThirdParty-0.1/ParaView-5.0.1/VTK/Parallel/MPI/Testing/Cxx/MPIController.cxx'
p3178
(lp3179
(S'MPI_Init()'
p3180
S'156'
p3181
tp3182
asS'HopeFOAM/ThirdParty-0.1/ParaView-5.0.1/VTK/Rendering/ParallelLIC/vtkMPIPixelView.h'
p3183
(lp3184
(S'MPI_Initialized()'
p3185
S'36'
p3186
tp3187
a(S'MPI_Type_free()'
p3188
S'75'
p3189
tp3190
a(S'X_MPI_ORDER_FORTRAN()'
p3191
S'86'
p3192
tp3193
a(S'MPI_Type_free()'
p3194
S'91'
p3195
tp3196
a(S'MPI_Type_free()'
p3197
S'98'
p3198
tp3199
a(S'MPI_Type_free()'
p3200
S'102'
p3201
tp3202
asS'HopeFOAM/ThirdParty-0.1/ParaView-5.0.1/VTK/Rendering/ParallelLIC/vtkPSurfaceLICComposite.cxx'
p3203
(lp3204
(S'MPI_Op_create()'
p3205
S'200'
p3206
tp3207
a(S'MPI_Op_free()'
p3208
S'211'
p3209
tp3210
a(S'MPI_Type_free()'
p3211
S'221'
p3212
tp3213
a(S'MPI_Error_string()'
p3214
S'301'
p3215
tp3216
a(S'MPI_Allgather()'
p3217
S'448'
p3218
tp3219
a(S'X_MPI_INT()'
p3220
S'451'
p3221
tp3222
a(S'X_MPI_INT()'
p3223
S'454'
p3224
tp3225
a(S'MPI_Allgatherv()'
p3226
S'471'
p3227
tp3228
a(S'X_MPI_INT()'
p3229
S'474'
p3230
tp3231
a(S'X_MPI_INT()'
p3232
S'478'
p3233
tp3234
a(S'MPI_Allreduce()'
p3235
S'547'
p3236
tp3237
a(S'X_MPI_IN_PLACE()'
p3238
S'548'
p3239
tp3240
a(S'X_MPI_FLOAT()'
p3241
S'551'
p3242
tp3243
a(S'X_MPI_MAX()'
p3244
S'552'
p3245
tp3246
a(S'MPI_Allreduce()'
p3247
S'843'
p3248
tp3249
a(S'X_MPI_IN_PLACE()'
p3250
S'844'
p3251
tp3252
a(S'X_MPI_INT()'
p3253
S'847'
p3254
tp3255
a(S'MPI_Waitany()'
p3256
S'1513'
p3257
tp3258
a(S'MPI_Waitall()'
p3259
S'1592'
p3260
tp3261
a(S'MPI_Waitall()'
p3262
S'1808'
p3263
tp3264
a(S'MPI_Waitall()'
p3265
S'1853'
p3266
tp3267
a(S'MPI_Recv()'
p3268
S'1880'
p3269
tp3270
a(S'MPI_Send()'
p3271
S'1920'
p3272
tp3273
asS'HopeFOAM/ThirdParty-0.1/ParaView-5.0.1/VTK/Parallel/MPI/vtkMPICommunicator.cxx'
p3274
(lp3275
(S'MPI_Barrier()'
p3276
S'40'
p3277
tp3278
a(S'MPI_Error_string()'
p3279
S'68'
p3280
tp3281
a(S'MPI_Abort()'
p3282
S'73'
p3283
tp3284
a(S'X_MPI_LONG_LONG()'
p3285
S'85'
p3286
tp3287
a(S'X_MPI_UNSIGNED_LONG_LONG()'
p3288
S'91'
p3289
tp3290
a(S'X_MPI_UNSIGNED_LONG_LONG()'
p3291
S'95'
p3292
tp3293
a(S'MPI_Ssend()'
p3294
S'219'
p3295
tp3296
a(S'MPI_Send()'
p3297
S'224'
p3298
tp3299
a(S'MPI_Recv()'
p3300
S'261'
p3301
tp3302
a(S'MPI_Recv()'
p3303
S'268'
p3304
tp3305
a(S'MPI_Iprobe()'
p3306
S'339'
p3307
tp3308
a(S'MPI_Comm_create_errhandler()'
p3309
S'385'
p3310
tp3311
a(S'MPI_Comm_set_errhandler()'
p3312
S'386'
p3313
tp3314
a(S'MPI_Errhandler_create()'
p3315
S'388'
p3316
tp3317
a(S'MPI_Errhandler_set()'
p3318
S'389'
p3319
tp3320
a(S'MPI_Errhandler_free()'
p3321
S'391'
p3322
tp3323
a(S'MPI_Comm_free()'
p3324
S'467'
p3325
tp3326
a(S'MPI_Group_free()'
p3327
S'528'
p3328
tp3329
a(S'MPI_Group_free()'
p3330
S'542'
p3331
tp3332
a(S'MPI_Group_free()'
p3333
S'543'
p3334
tp3335
a(S'MPI_Group_free()'
p3336
S'553'
p3337
tp3338
a(S'MPI_Group_free()'
p3339
S'561'
p3340
tp3341
a(S'MPI_Group_free()'
p3342
S'572'
p3343
tp3344
a(S'MPI_Comm_free()'
p3345
S'663'
p3346
tp3347
a(S'MPI_Alloc_mem()'
p3348
S'749'
p3349
tp3350
a(S'MPI_Free_mem()'
p3351
S'760'
p3352
tp3353
a(S'MPI_Test()'
p3354
S'1103'
p3355
tp3356
a(S'MPI_Wait()'
p3357
S'1123'
p3358
tp3359
a(S'MPI_Cancel()'
p3360
S'1136'
p3361
tp3362
a(S'MPI_Request_free()'
p3363
S'1145'
p3364
tp3365
a(S'MPI_Comm_size()'
p3366
S'1180'
p3367
tp3368
a(S'MPI_Comm_rank()'
p3369
S'1203'
p3370
tp3371
a(S'MPI_Comm_size()'
p3372
S'1207'
p3373
tp3374
a(S'MPI_Comm_rank()'
p3375
S'1279'
p3376
tp3377
a(S'MPI_Comm_size()'
p3378
S'1283'
p3379
tp3380
a(S'MPI_Comm_size()'
p3381
S'1333'
p3382
tp3383
a(S'MPI_Comm_size()'
p3384
S'1355'
p3385
tp3386
a(S'MPI_Op_create()'
p3387
S'1443'
p3388
tp3389
a(S'MPI_Op_free()'
p3390
S'1455'
p3391
tp3392
a(S'MPI_Op_create()'
p3393
S'1500'
p3394
tp3395
a(S'MPI_Op_free()'
p3396
S'1513'
p3397
tp3398
a(S'MPI_Waitsome()'
p3399
S'1574'
p3400
tp3401
a(S'MPI_Testsome()'
p3402
S'1638'
p3403
tp3404
a(S'X_MPI_INT()'
p3405
S'1649'
p3406
tp3407
a(S'X_MPI_INT()'
p3408
S'1659'
p3409
tp3410
a(S'X_MPI_UNSIGNED_LONG()'
p3411
S'1669'
p3412
tp3413
a(S'X_MPI_CHAR()'
p3414
S'1679'
p3415
tp3416
a(S'X_MPI_FLOAT()'
p3417
S'1689'
p3418
tp3419
a(S'X_MPI_DOUBLE()'
p3420
S'1699'
p3421
tp3422
asS'HopeFOAM/ThirdParty-0.1/scotch_6.0.3/src/libscotch/dorder_io.c'
p3423
(lp3424
(S'X_MPI_ANY_SOURCE()'
p3425
S'179'
p3426
tp3427
asS'HopeFOAM/ThirdParty-0.1/ParaView-5.0.1/Utilities/VisItBridge/Library/VisItLib/avt/Pipeline/Data/avtHistogramSpecification.C'
p3428
(lp3429
(S'MPI_Type_get_extent()'
p3430
S'730'
p3431
tp3432
a(S'MPI_Type_get_extent()'
p3433
S'735'
p3434
tp3435
a(S'MPI_Type_get_extent()'
p3436
S'742'
p3437
tp3438
a(S'MPI_Type_extent()'
p3439
S'747'
p3440
tp3441
a(S'MPI_Type_extent()'
p3442
S'752'
p3443
tp3444
a(S'MPI_Recv()'
p3445
S'769'
p3446
tp3447
a(S'X_MPI_ANY_SOURCE()'
p3448
S'770'
p3449
tp3450
a(S'MPI_Recv()'
p3451
S'777'
p3452
tp3453
a(S'X_MPI_ANY_SOURCE()'
p3454
S'778'
p3455
tp3456
a(S'MPI_Recv()'
p3457
S'780'
p3458
tp3459
a(S'X_MPI_ANY_SOURCE()'
p3460
S'781'
p3461
tp3462
a(S'MPI_Recv()'
p3463
S'786'
p3464
tp3465
a(S'X_MPI_ANY_SOURCE()'
p3466
S'787'
p3467
tp3468
a(S'MPI_Recv()'
p3469
S'788'
p3470
tp3471
a(S'X_MPI_ANY_SOURCE()'
p3472
S'789'
p3473
tp3474
a(S'MPI_Recv()'
p3475
S'794'
p3476
tp3477
a(S'X_MPI_ANY_SOURCE()'
p3478
S'795'
p3479
tp3480
a(S'MPI_Recv()'
p3481
S'796'
p3482
tp3483
a(S'X_MPI_ANY_SOURCE()'
p3484
S'797'
p3485
tp3486
a(S'MPI_Recv()'
p3487
S'802'
p3488
tp3489
a(S'X_MPI_ANY_SOURCE()'
p3490
S'803'
p3491
tp3492
a(S'MPI_Recv()'
p3493
S'808'
p3494
tp3495
a(S'X_MPI_ANY_SOURCE()'
p3496
S'809'
p3497
tp3498
a(S'MPI_Recv()'
p3499
S'814'
p3500
tp3501
a(S'X_MPI_ANY_SOURCE()'
p3502
S'815'
p3503
tp3504
a(S'MPI_Recv()'
p3505
S'823'
p3506
tp3507
a(S'X_MPI_ANY_SOURCE()'
p3508
S'824'
p3509
tp3510
a(S'MPI_Recv()'
p3511
S'829'
p3512
tp3513
a(S'X_MPI_ANY_SOURCE()'
p3514
S'830'
p3515
tp3516
a(S'MPI_Recv()'
p3517
S'839'
p3518
tp3519
a(S'X_MPI_ANY_SOURCE()'
p3520
S'840'
p3521
tp3522
a(S'MPI_Recv()'
p3523
S'849'
p3524
tp3525
a(S'X_MPI_ANY_SOURCE()'
p3526
S'850'
p3527
tp3528
a(S'MPI_Recv()'
p3529
S'856'
p3530
tp3531
a(S'X_MPI_ANY_SOURCE()'
p3532
S'857'
p3533
tp3534
a(S'MPI_Send()'
p3535
S'874'
p3536
tp3537
a(S'MPI_Send()'
p3538
S'880'
p3539
tp3540
a(S'MPI_Send()'
p3541
S'882'
p3542
tp3543
a(S'MPI_Send()'
p3544
S'887'
p3545
tp3546
a(S'MPI_Send()'
p3547
S'888'
p3548
tp3549
a(S'MPI_Send()'
p3550
S'893'
p3551
tp3552
a(S'MPI_Send()'
p3553
S'894'
p3554
tp3555
a(S'MPI_Send()'
p3556
S'898'
p3557
tp3558
a(S'MPI_Send()'
p3559
S'900'
p3560
tp3561
a(S'MPI_Send()'
p3562
S'903'
p3563
tp3564
a(S'MPI_Send()'
p3565
S'908'
p3566
tp3567
a(S'MPI_Send()'
p3568
S'913'
p3569
tp3570
a(S'MPI_Send()'
p3571
S'916'
p3572
tp3573
a(S'MPI_Send()'
p3574
S'923'
p3575
tp3576
a(S'MPI_Send()'
p3577
S'930'
p3578
tp3579
asS'HopeFOAM/ThirdParty-0.1/ParaView-5.0.1/ThirdParty/CosmoHaloFinder/Partition.cxx'
p3580
(lp3581
(S'MPI_Comm_rank()'
p3582
S'95'
p3583
tp3584
a(S'MPI_Comm_size()'
p3585
S'96'
p3586
tp3587
a(S'MPI_Cart_create()'
p3588
S'120'
p3589
tp3590
a(S'MPI_Comm_rank()'
p3591
S'124'
p3592
tp3593
a(S'MPI_Cart_coords()'
p3594
S'127'
p3595
tp3596
a(S'MPI_Cart_rank()'
p3597
S'200'
p3598
tp3599
asS'HopeFOAM/ThirdParty-0.1/ParaView-5.0.1/VTK/ThirdParty/xdmf3/vtkxdmf3/core/dsm/XdmfHDF5WriterDSM.cpp'
p3600
(lp3601
(S'MPI_Comm_size()'
p3602
S'172'
p3603
tp3604
a(S'MPI_Comm_rank()'
p3605
S'173'
p3606
tp3607
a(S'MPI_Comm_group()'
p3608
S'200'
p3609
tp3610
a(S'MPI_Group_incl()'
p3611
S'201'
p3612
tp3613
a(S'MPI_Comm_create()'
p3614
S'202'
p3615
tp3616
a(S'MPI_Comm_group()'
p3617
S'203'
p3618
tp3619
a(S'MPI_Group_excl()'
p3620
S'204'
p3621
tp3622
a(S'MPI_Comm_create()'
p3623
S'205'
p3624
tp3625
a(S'MPI_Barrier()'
p3626
S'215'
p3627
tp3628
a(S'MPI_Barrier()'
p3629
S'243'
p3630
tp3631
a(S'MPI_Comm_dup()'
p3632
S'360'
p3633
tp3634
a(S'MPI_Comm_free()'
p3635
S'409'
p3636
tp3637
a(S'MPI_Comm_dup()'
p3638
S'416'
p3639
tp3640
asS'HopeFOAM/ThirdParty-0.1/ParaView-5.0.1/VTK/ThirdParty/VPIC/GridExchange.cxx'
p3641
(lp3642
(S'MPI_Barrier()'
p3643
S'612'
p3644
tp3645
a(S'MPI_Isend()'
p3646
S'673'
p3647
tp3648
a(S'MPI_Recv()'
p3649
S'678'
p3650
tp3651
a(S'MPI_Barrier()'
p3652
S'681'
p3653
tp3654
asS'HopeFOAM/ThirdParty-0.1/ParaView-5.0.1/VTK/Infovis/Parallel/Testing/Cxx/TestPBGLCollapseGraph.cxx'
p3655
(lp3656
(S'MPI_Abort()'
p3657
S'54'
p3658
tp3659
a(S'MPI_Init()'
p3660
S'159'
p3661
tp3662
a(S'MPI_Finalize()'
p3663
S'161'
p3664
tp3665
asS'HopeFOAM/ThirdParty-0.1/ParaView-5.0.1/Examples/Catalyst/CxxMultiPieceExample/FEAdaptor.cxx'
p3666
(lp3667
(S'MPI_Comm_rank()'
p3668
S'43'
p3669
tp3670
a(S'MPI_Comm_size()'
p3671
S'44'
p3672
tp3673
a(S'MPI_Comm_rank()'
p3674
S'55'
p3675
tp3676
asS'HopeFOAM/ThirdParty-0.1/ParaView-5.0.1/VTK/ThirdParty/mpi4py/vtkmpi4py/src/compat/lammpi.h'
p3677
(lp3678
(S'X_MPI_Info_free()'
p3679
S'13'
p3680
tp3681
a(S'MPI_Cancel()'
p3682
S'20'
p3683
tp3684
a(S'X_MPI_Cancel()'
p3685
S'28'
p3686
tp3687
a(S'X_MPI_Comm_disconnect()'
p3688
S'39'
p3689
tp3690
a(S'X_MPI_Errhandler_free()'
p3691
S'72'
p3692
tp3693
a(S'MPI_Errhandler_get()'
p3694
S'83'
p3695
tp3696
a(S'X_MPI_Errhandler_get()'
p3697
S'88'
p3698
tp3699
a(S'X_MPI_Comm_get_errhandler()'
p3700
S'90'
p3701
tp3702
a(S'MPI_Errhandler_get()'
p3703
S'100'
p3704
tp3705
a(S'MPI_Errhandler_set()'
p3706
S'108'
p3707
tp3708
a(S'MPI_Errhandler_free()'
p3709
S'116'
p3710
tp3711
a(S'X_MPI_Errhandler_set()'
p3712
S'123'
p3713
tp3714
a(S'X_MPI_Comm_set_errhandler()'
p3715
S'125'
p3716
tp3717
a(S'MPI_Win_get_errhandler()'
p3718
S'136'
p3719
tp3720
a(S'X_MPI_Win_get_errhandler()'
p3721
S'146'
p3722
tp3723
a(S'MPI_Win_get_errhandler()'
p3724
S'156'
p3725
tp3726
a(S'MPI_Win_set_errhandler()'
p3727
S'164'
p3728
tp3729
a(S'MPI_Errhandler_free()'
p3730
S'172'
p3731
tp3732
a(S'X_MPI_Win_set_errhandler()'
p3733
S'179'
p3734
tp3735
a(S'MPI_Win_create()'
p3736
S'187'
p3737
tp3738
a(S'MPI_Win_get_errhandler()'
p3739
S'189'
p3740
tp3741
a(S'X_MPI_Win_create()'
p3742
S'194'
p3743
tp3744
a(S'MPI_Win_get_errhandler()'
p3745
S'202'
p3746
tp3747
a(S'MPI_Errhandler_free()'
p3748
S'206'
p3749
tp3750
a(S'MPI_Win_free()'
p3751
S'210'
p3752
tp3753
a(S'MPI_Errhandler_free()'
p3754
S'212'
p3755
tp3756
a(S'X_MPI_Win_free()'
p3757
S'219'
p3758
tp3759
a(S'X_MPI_File_get_errhandler()'
p3760
S'304'
p3761
tp3762
a(S'X_MPI_File_set_errhandler()'
p3763
S'341'
p3764
tp3765
asS'HopeFOAM/ThirdParty-0.1/ParaView-5.0.1/VTK/ThirdParty/xdmf2/vtkxdmf2/libsrc/test/XdmfHDFMPI.cxx'
p3766
(lp3767
(S'MPI_Comm_size()'
p3768
S'84'
p3769
tp3770
a(S'MPI_Comm_rank()'
p3771
S'85'
p3772
tp3773
a(S'MPI_Send()'
p3774
S'142'
p3775
tp3776
a(S'X_MPI_BYTE()'
p3777
S'145'
p3778
tp3779
a(S'MPI_Recv()'
p3780
S'155'
p3781
tp3782
a(S'X_MPI_BYTE()'
p3783
S'158'
p3784
tp3785
a(S'X_MPI_ANY_SOURCE()'
p3786
S'159'
p3787
tp3788
a(S'X_MPI_COMM_WORLD()'
p3789
S'161'
p3790
tp3791
a(S'MPI_Init()'
p3792
S'198'
p3793
tp3794
a(S'MPI_Comm_rank()'
p3795
S'201'
p3796
tp3797
a(S'MPI_Finalize()'
p3798
S'248'
p3799
tp3800
asS'HopeFOAM/ThirdParty-0.1/ParaView-5.0.1/Plugins/H5PartReader/H5Part/src/H5Part.c'
p3801
(lp3802
(S'MPI_Info_create()'
p3803
S'166'
p3804
tp3805
a(S'MPI_Info_set()'
p3806
S'167'
p3807
tp3808
a(S'MPI_Info_free()'
p3809
S'218'
p3810
tp3811
asS'HopeFOAM/ThirdParty-0.1/ParaView-5.0.1/VTK/Parallel/MPI/Testing/Cxx/TestDistributedDataShadowMapPass.cxx'
p3812
(lp3813
(S'MPI_Init()'
p3814
S'483'
p3815
tp3816
asS'HopeFOAM/ThirdParty-0.1/ParaView-5.0.1/VTK/ThirdParty/xdmf2/vtkxdmf2/libsrc/XdmfDsmCommMpi.cxx'
p3817
(lp3818
(S'MPI_Comm_dup()'
p3819
S'42'
p3820
tp3821
a(S'MPI_Iprobe()'
p3822
S'64'
p3823
tp3824
a(S'MPI_Recv()'
p3825
S'85'
p3826
tp3827
a(S'MPI_Get_count()'
p3828
S'91'
p3829
tp3830
a(S'MPI_Send()'
p3831
S'119'
p3832
tp3833
a(S'MPI_Barrier()'
p3834
S'131'
p3835
tp3836
asS'HopeFOAM/ThirdParty-0.1/ParaView-5.0.1/VTK/ThirdParty/mpi4py/vtkmpi4py/src/compat/sicortex.h'
p3837
(lp3838
(S'X_MPI_Init()'
p3839
S'18'
p3840
tp3841
a(S'X_MPI_Init_thread()'
p3842
S'27'
p3843
tp3844
asS'HopeFOAM/ThirdParty-0.1/ParaView-5.0.1/Utilities/VisItBridge/Library/VisItLib/avt/IVP/avtParICAlgorithm.C'
p3845
(lp3846
(S'MPI_Cancel()'
p3847
S'246'
p3848
tp3849
a(S'MPI_Irecv()'
p3850
S'281'
p3851
tp3852
a(S'MPI_Irecv()'
p3853
S'283'
p3854
tp3855
a(S'MPI_Testsome()'
p3856
S'335'
p3857
tp3858
a(S'MPI_Isend()'
p3859
S'463'
p3860
tp3861
a(S'MPI_Waitsome()'
p3862
S'512'
p3863
tp3864
a(S'MPI_Testsome()'
p3865
S'514'
p3866
tp3867
a(S'MPI_Allreduce()'
p3868
S'1233'
p3869
tp3870
a(S'MPI_Allreduce()'
p3871
S'1468'
p3872
tp3873
a(S'MPI_Allreduce()'
p3874
S'1471'
p3875
tp3876
asS'HopeFOAM/ThirdParty-0.1/ParaView-5.0.1/VTK/ThirdParty/mpi4py/vtkmpi4py/src/MPI/atimport.pxi'
p3877
(lp3878
(S'MPI_Finalized()'
p3879
S'154'
p3880
tp3881
a(S'MPI_Finalize()'
p3882
S'181'
p3883
tp3884
asS'HopeFOAM/ThirdParty-0.1/ParaView-5.0.1/Examples/Catalyst/CxxVTKPipelineExample/FEDataStructures.cxx'
p3885
(lp3886
(S'MPI_Comm_rank()'
p3887
S'18'
p3888
tp3889
a(S'MPI_Comm_size()'
p3890
S'19'
p3891
tp3892
asS'HopeFOAM/ThirdParty-0.1/ParaView-5.0.1/Utilities/VisItBridge/Library/VisItLib/avt/Pipeline/Pipeline/avtParallel.C'
p3893
(lp3894
(S'MPI_Finalize()'
p3895
S'112'
p3896
tp3897
a(S'MPI_Initialized()'
p3898
S'153'
p3899
tp3900
a(S'MPI_Attr_get()'
p3901
S'185'
p3902
tp3903
a(S'MPI_Op_create()'
p3904
S'429'
p3905
tp3906
a(S'MPI_Allreduce()'
p3907
S'435'
p3908
tp3909
a(S'MPI_Allreduce()'
p3910
S'447'
p3911
tp3912
a(S'MPI_Allreduce()'
p3913
S'469'
p3914
tp3915
a(S'MPI_Allreduce()'
p3916
S'507'
p3917
tp3918
a(S'MPI_Allreduce()'
p3919
S'536'
p3920
tp3921
a(S'MPI_Allreduce()'
p3922
S'571'
p3923
tp3924
a(S'MPI_Allreduce()'
p3925
S'600'
p3926
tp3927
a(S'MPI_Reduce()'
p3928
S'643'
p3929
tp3930
a(S'MPI_Comm_rank()'
p3931
S'645'
p3932
tp3933
a(S'MPI_Reduce()'
p3934
S'669'
p3935
tp3936
a(S'MPI_Comm_rank()'
p3937
S'671'
p3938
tp3939
a(S'MPI_Reduce()'
p3940
S'721'
p3941
tp3942
a(S'MPI_Comm_rank()'
p3943
S'723'
p3944
tp3945
a(S'MPI_Barrier()'
p3946
S'762'
p3947
tp3948
a(S'MPI_Allreduce()'
p3949
S'791'
p3950
tp3951
a(S'MPI_Type_get_extent()'
p3952
S'843'
p3953
tp3954
a(S'MPI_Type_get_extent()'
p3955
S'848'
p3956
tp3957
a(S'MPI_Type_get_extent()'
p3958
S'855'
p3959
tp3960
a(S'MPI_Type_extent()'
p3961
S'860'
p3962
tp3963
a(S'MPI_Type_extent()'
p3964
S'865'
p3965
tp3966
a(S'MPI_Allreduce()'
p3967
S'872'
p3968
tp3969
a(S'MPI_Allreduce()'
p3970
S'882'
p3971
tp3972
a(S'MPI_Allreduce()'
p3973
S'922'
p3974
tp3975
a(S'MPI_Reduce()'
p3976
S'949'
p3977
tp3978
a(S'MPI_Allreduce()'
p3979
S'982'
p3980
tp3981
a(S'MPI_Reduce()'
p3982
S'1008'
p3983
tp3984
a(S'MPI_Allreduce()'
p3985
S'1039'
p3986
tp3987
a(S'MPI_Allreduce()'
p3988
S'1069'
p3989
tp3990
a(S'MPI_Allreduce()'
p3991
S'1103'
p3992
tp3993
a(S'MPI_Allreduce()'
p3994
S'1135'
p3995
tp3996
a(S'MPI_Allreduce()'
p3997
S'1170'
p3998
tp3999
a(S'MPI_Allreduce()'
p4000
S'1201'
p4001
tp4002
a(S'MPI_Allreduce()'
p4003
S'1228'
p4004
tp4005
a(S'MPI_Allreduce()'
p4006
S'1257'
p4007
tp4008
a(S'MPI_Comm_rank()'
p4009
S'1305'
p4010
tp4011
a(S'MPI_Allreduce()'
p4012
S'1309'
p4013
tp4014
a(S'MPI_Comm_rank()'
p4015
S'1351'
p4016
tp4017
a(S'MPI_Allreduce()'
p4018
S'1355'
p4019
tp4020
a(S'MPI_Bcast()'
p4021
S'1383'
p4022
tp4023
a(S'MPI_Bcast()'
p4024
S'1403'
p4025
tp4026
a(S'MPI_Bcast()'
p4027
S'1431'
p4028
tp4029
a(S'MPI_Bcast()'
p4030
S'1462'
p4031
tp4032
a(S'MPI_Bcast()'
p4033
S'1473'
p4034
tp4035
a(S'MPI_Bcast()'
p4036
S'1518'
p4037
tp4038
a(S'MPI_Bcast()'
p4039
S'1536'
p4040
tp4041
a(S'MPI_Bcast()'
p4042
S'1565'
p4043
tp4044
a(S'MPI_Bcast()'
p4045
S'1593'
p4046
tp4047
a(S'MPI_Bcast()'
p4048
S'1625'
p4049
tp4050
a(S'MPI_Bcast()'
p4051
S'1637'
p4052
tp4053
a(S'MPI_Bcast()'
p4054
S'1665'
p4055
tp4056
a(S'MPI_Bcast()'
p4057
S'1671'
p4058
tp4059
a(S'MPI_Bcast()'
p4060
S'1675'
p4061
tp4062
a(S'MPI_Bcast()'
p4063
S'1716'
p4064
tp4065
a(S'MPI_Bcast()'
p4066
S'1729'
p4067
tp4068
a(S'MPI_Bcast()'
p4069
S'1746'
p4070
tp4071
a(S'MPI_Bcast()'
p4072
S'1799'
p4073
tp4074
a(S'MPI_Comm_rank()'
p4075
S'1841'
p4076
tp4077
a(S'MPI_Allreduce()'
p4078
S'1850'
p4079
tp4080
a(S'MPI_Send()'
p4081
S'1861'
p4082
tp4083
a(S'MPI_Send()'
p4084
S'1863'
p4085
tp4086
a(S'MPI_Recv()'
p4087
S'1873'
p4088
tp4089
a(S'MPI_Recv()'
p4090
S'1877'
p4091
tp4092
a(S'MPI_Gather()'
p4093
S'1929'
p4094
tp4095
a(S'MPI_Gatherv()'
p4096
S'1955'
p4097
tp4098
a(S'MPI_Comm_rank()'
p4099
S'2090'
p4100
tp4101
a(S'MPI_Comm_size()'
p4102
S'2091'
p4103
tp4104
a(S'MPI_Recv()'
p4105
S'2102'
p4106
tp4107
a(S'MPI_Recv()'
p4108
S'2106'
p4109
tp4110
a(S'MPI_Recv()'
p4111
S'2109'
p4112
tp4113
a(S'MPI_Send()'
p4114
S'2119'
p4115
tp4116
a(S'MPI_Send()'
p4117
S'2129'
p4118
tp4119
a(S'MPI_Send()'
p4120
S'2130'
p4121
tp4122
a(S'MPI_Comm_rank()'
p4123
S'2163'
p4124
tp4125
a(S'MPI_Comm_size()'
p4126
S'2164'
p4127
tp4128
a(S'MPI_Recv()'
p4129
S'2174'
p4130
tp4131
a(S'MPI_Recv()'
p4132
S'2178'
p4133
tp4134
a(S'MPI_Send()'
p4135
S'2186'
p4136
tp4137
a(S'MPI_Send()'
p4138
S'2189'
p4139
tp4140
a(S'MPI_Allreduce()'
p4141
S'2224'
p4142
tp4143
a(S'MPI_Comm_rank()'
p4144
S'2262'
p4145
tp4146
a(S'MPI_Comm_size()'
p4147
S'2263'
p4148
tp4149
a(S'MPI_Recv()'
p4150
S'2273'
p4151
tp4152
a(S'MPI_Recv()'
p4153
S'2277'
p4154
tp4155
a(S'MPI_Send()'
p4156
S'2286'
p4157
tp4158
a(S'MPI_Send()'
p4159
S'2289'
p4160
tp4161
a(S'MPI_Waitall()'
p4162
S'2315'
p4163
tp4164
a(S'MPI_Waitsome()'
p4165
S'2343'
p4166
tp4167
a(S'MPI_Testsome()'
p4168
S'2373'
p4169
tp4170
a(S'MPI_Cancel()'
p4171
S'2400'
p4172
tp4173
a(S'MPI_File_open()'
p4174
S'2438'
p4175
tp4176
a(S'MPI_File_get_size()'
p4177
S'2439'
p4178
tp4179
a(S'MPI_File_seek()'
p4180
S'2440'
p4181
tp4182
a(S'MPI_File_read()'
p4183
S'2441'
p4184
tp4185
asS'HopeFOAM/ThirdParty-0.1/ParaView-5.0.1/Examples/Catalyst/CxxImageDataExample/FEDriver.cxx'
p4186
(lp4187
(S'MPI_Init()'
p4188
S'23'
p4189
tp4190
a(S'MPI_Finalize()'
p4191
S'48'
p4192
tp4193
asS'HopeFOAM/ThirdParty-0.1/ParaView-5.0.1/ParaViewCore/ClientServerCore/Default/Testing/Cxx/TestSystemCaps.cxx'
p4194
(lp4195
(S'MPI_Get_library_version()'
p4196
S'62'
p4197
tp4198
asS'HopeFOAM/ThirdParty-0.1/ParaView-5.0.1/VTK/Rendering/Parallel/Testing/Cxx/TestPShadowMapPass.cxx'
p4199
(lp4200
(S'MPI_Init()'
p4201
S'471'
p4202
tp4203
asS'HopeFOAM/HopeFOAM-0.1/src/Pstream/mpi/UOPwrite.C'
p4204
(lp4205
(S'X_MPI_BYTE()'
p4206
S'77'
p4207
tp4208
a(S'X_MPI_BYTE()'
p4209
S'97'
p4210
tp4211
a(S'X_MPI_BYTE()'
p4212
S'119'
p4213
tp4214
asS'HopeFOAM/ThirdParty-0.1/ParaView-5.0.1/VTK/ThirdParty/xdmf3/vtkxdmf3/core/dsm/XdmfDSMManager.cpp'
p4215
(lp4216
(S'MPI_Comm_size()'
p4217
S'121'
p4218
tp4219
a(S'MPI_Comm_rank()'
p4220
S'122'
p4221
tp4222
a(S'MPI_Comm_size()'
p4223
S'307'
p4224
tp4225
a(S'MPI_Comm_rank()'
p4226
S'308'
p4227
tp4228
asS'HopeFOAM/ThirdParty-0.1/ParaView-5.0.1/ParaViewCore/VTKExtensions/Testing/TestIceTCompositePass.cxx'
p4229
(lp4230
(S'MPI_Init()'
p4231
S'507'
p4232
tp4233
asS'HopeFOAM/HopeFOAM-0.1/src/Pstream/mpi/UIPread.C'
p4234
(lp4235
(S'MPI_Get_count()'
p4236
S'93'
p4237
tp4238
a(S'MPI_Get_count()'
p4239
S'190'
p4240
tp4241
a(S'X_MPI_BYTE()'
p4242
S'264'
p4243
tp4244
a(S'MPI_Get_count()'
p4245
S'283'
p4246
tp4247
a(S'X_MPI_BYTE()'
p4248
S'314'
p4249
tp4250
asS'HopeFOAM/ThirdParty-0.1/ParaView-5.0.1/VTK/Rendering/ParallelLIC/vtkPLineIntegralConvolution2D.cxx'
p4251
(lp4252
(S'MPI_Allreduce()'
p4253
S'61'
p4254
tp4255
a(S'X_MPI_IN_PLACE()'
p4256
S'62'
p4257
tp4258
a(S'X_MPI_FLOAT()'
p4259
S'65'
p4260
tp4261
a(S'X_MPI_MIN()'
p4262
S'66'
p4263
tp4264
a(S'MPI_Allreduce()'
p4265
S'69'
p4266
tp4267
a(S'X_MPI_IN_PLACE()'
p4268
S'70'
p4269
tp4270
a(S'X_MPI_FLOAT()'
p4271
S'73'
p4272
tp4273
a(S'X_MPI_MAX()'
p4274
S'74'
p4275
tp4276
asS'HopeFOAM/ThirdParty-0.1/ParaView-5.0.1/VTK/Rendering/Parallel/Testing/Cxx/TestSimplePCompositeZPass.cxx'
p4277
(lp4278
(S'MPI_Init()'
p4279
S'458'
p4280
tp4281
asS'HopeFOAM/ThirdParty-0.1/ParaView-5.0.1/VTK/ThirdParty/hdf5/vtkhdf5/src/H5Smpio.c'
p4282
(lp4283
(S'MPI_Type_free()'
p4284
S'190'
p4285
tp4286
a(S'MPI_Type_vector()'
p4287
S'660'
p4288
tp4289
a(S'MPI_Type_free()'
p4290
S'666'
p4291
tp4292
a(S'MPI_Type_struct()'
p4293
S'702'
p4294
tp4295
a(S'MPI_Type_free()'
p4296
S'708'
p4297
tp4298
a(S'MPI_Type_free()'
p4299
S'941'
p4300
tp4301
asS'HopeFOAM/ThirdParty-0.1/ParaView-5.0.1/ParaViewCore/VTKExtensions/Testing/TestSimpleIceTCompositePass.cxx'
p4302
(lp4303
(S'MPI_Init()'
p4304
S'41'
p4305
tp4306
asS'HopeFOAM/ThirdParty-0.1/ParaView-5.0.1/VTK/ThirdParty/mpi4py/vtkmpi4py/src/compat/hpmpi.h'
p4307
(lp4308
(S'X_MPI_Init()'
p4309
S'63'
p4310
tp4311
a(S'X_MPI_Init_thread()'
p4312
S'72'
p4313
tp4314
asS'HopeFOAM/ThirdParty-0.1/ParaView-5.0.1/ParaViewCore/VTKExtensions/CosmoTools/Testing/Cxx/TestHaloFinderSubhaloFinding.cxx'
p4315
(lp4316
(S'MPI_Init()'
p4317
S'110'
p4318
tp4319
asS'HopeFOAM/ThirdParty-0.1/ParaView-5.0.1/ThirdParty/CosmoHaloFinder/CosmoToolsDefinitions.h'
p4320
(lp4321
(S'X_MPI_POSVEL_T()'
p4322
S'27'
p4323
tp4324
a(S'X_MPI_POSVEL_T()'
p4325
S'35'
p4326
tp4327
a(S'X_MPI_POTENTIAL_T()'
p4328
S'48'
p4329
tp4330
a(S'X_MPI_POTENTIAL_T()'
p4331
S'56'
p4332
tp4333
a(S'X_MPI_GRID_T()'
p4334
S'66'
p4335
tp4336
a(S'X_MPI_GRID_T()'
p4337
S'74'
p4338
tp4339
a(S'X_MPI_ID_T()'
p4340
S'87'
p4341
tp4342
a(S'X_MPI_ID_T()'
p4343
S'99'
p4344
tp4345
a(S'X_MPI_STATUS_T()'
p4346
S'111'
p4347
tp4348
a(S'X_MPI_MASK_T()'
p4349
S'118'
p4350
tp4351
a(S'X_MPI_REAL_T()'
p4352
S'126'
p4353
tp4354
a(S'X_MPI_REAL_T()'
p4355
S'134'
p4356
tp4357
a(S'X_MPI_INTEGER_T()'
p4358
S'145'
p4359
tp4360
a(S'X_MPI_INTEGER_T()'
p4361
S'153'
p4362
tp4363
asS'HopeFOAM/ThirdParty-0.1/ParaView-5.0.1/VTK/Filters/ParallelStatistics/Testing/Cxx/TestRandomPKMeansStatisticsMPI.cxx'
p4364
(lp4365
(S'MPI_Comm_get_attr()'
p4366
S'271'
p4367
tp4368
a(S'X_MPI_IO()'
p4369
S'272'
p4370
tp4371
asS'HopeFOAM/ThirdParty-0.1/ParaView-5.0.1/Utilities/VisItBridge/Library/VisItLib/avt/Database/Ghost/avtUnstructuredDomainBoundaries.C'
p4372
(lp4373
(S'MPI_Comm_rank()'
p4374
S'1116'
p4375
tp4376
a(S'MPI_Allreduce()'
p4377
S'1125'
p4378
tp4379
a(S'MPI_Bcast()'
p4380
S'1135'
p4381
tp4382
a(S'MPI_Comm_rank()'
p4383
S'1464'
p4384
tp4385
a(S'MPI_Allreduce()'
p4386
S'1474'
p4387
tp4388
a(S'X_MPI_MAX()'
p4389
S'1475'
p4390
tp4391
a(S'MPI_Comm_rank()'
p4392
S'1542'
p4393
tp4394
a(S'MPI_Recv()'
p4395
S'1662'
p4396
tp4397
a(S'MPI_Recv()'
p4398
S'1673'
p4399
tp4400
a(S'MPI_Recv()'
p4401
S'1677'
p4402
tp4403
a(S'MPI_Recv()'
p4404
S'1682'
p4405
tp4406
a(S'MPI_Recv()'
p4407
S'1692'
p4408
tp4409
a(S'MPI_Recv()'
p4410
S'1696'
p4411
tp4412
a(S'MPI_Recv()'
p4413
S'1711'
p4414
tp4415
a(S'MPI_Send()'
p4416
S'1738'
p4417
tp4418
a(S'MPI_Send()'
p4419
S'1771'
p4420
tp4421
a(S'MPI_Send()'
p4422
S'1774'
p4423
tp4424
a(S'MPI_Send()'
p4425
S'1778'
p4426
tp4427
a(S'MPI_Send()'
p4428
S'1783'
p4429
tp4430
a(S'MPI_Send()'
p4431
S'1807'
p4432
tp4433
a(S'MPI_Send()'
p4434
S'1811'
p4435
tp4436
a(S'MPI_Send()'
p4437
S'1815'
p4438
tp4439
a(S'MPI_Barrier()'
p4440
S'1831'
p4441
tp4442
a(S'MPI_Comm_rank()'
p4443
S'1879'
p4444
tp4445
a(S'MPI_Recv()'
p4446
S'1993'
p4447
tp4448
a(S'MPI_Recv()'
p4449
S'2002'
p4450
tp4451
a(S'MPI_Send()'
p4452
S'2018'
p4453
tp4454
a(S'MPI_Send()'
p4455
S'2066'
p4456
tp4457
a(S'MPI_Send()'
p4458
S'2092'
p4459
tp4460
a(S'MPI_Barrier()'
p4461
S'2102'
p4462
tp4463
a(S'MPI_Comm_rank()'
p4464
S'2155'
p4465
tp4466
a(S'MPI_Recv()'
p4467
S'2293'
p4468
tp4469
a(S'MPI_Recv()'
p4470
S'2307'
p4471
tp4472
a(S'MPI_Recv()'
p4473
S'2311'
p4474
tp4475
a(S'MPI_Recv()'
p4476
S'2315'
p4477
tp4478
a(S'MPI_Send()'
p4479
S'2331'
p4480
tp4481
a(S'MPI_Send()'
p4482
S'2376'
p4483
tp4484
a(S'MPI_Send()'
p4485
S'2418'
p4486
tp4487
a(S'MPI_Send()'
p4488
S'2421'
p4489
tp4490
a(S'MPI_Send()'
p4491
S'2424'
p4492
tp4493
a(S'MPI_Barrier()'
p4494
S'2436'
p4495
tp4496
a(S'MPI_Comm_rank()'
p4497
S'2491'
p4498
tp4499
a(S'MPI_Recv()'
p4500
S'2567'
p4501
tp4502
a(S'MPI_Recv()'
p4503
S'2577'
p4504
tp4505
a(S'MPI_Send()'
p4506
S'2592'
p4507
tp4508
a(S'MPI_Send()'
p4509
S'2601'
p4510
tp4511
a(S'MPI_Send()'
p4512
S'2630'
p4513
tp4514
a(S'MPI_Barrier()'
p4515
S'2640'
p4516
tp4517
asS'HopeFOAM/ThirdParty-0.1/ParaView-5.0.1/ThirdParty/CosmoHaloFinder/CosmoHaloFinderP.cxx'
p4518
(lp4519
(S'MPI_Barrier()'
p4520
S'300'
p4521
tp4522
a(S'MPI_Barrier()'
p4523
S'307'
p4524
tp4525
a(S'MPI_Allreduce()'
p4526
S'557'
p4527
tp4528
a(S'MPI_Allreduce()'
p4529
S'565'
p4530
tp4531
a(S'MPI_Allreduce()'
p4532
S'574'
p4533
tp4534
asS'HopeFOAM/ThirdParty-0.1/ParaView-5.0.1/Examples/Catalyst/MPISubCommunicatorExample/FEDriver.cxx'
p4535
(lp4536
(S'MPI_Init()'
p4537
S'31'
p4538
tp4539
a(S'MPI_Comm_rank()'
p4540
S'33'
p4541
tp4542
a(S'MPI_Comm_size()'
p4543
S'34'
p4544
tp4545
a(S'MPI_Comm_group()'
p4546
S'37'
p4547
tp4548
a(S'MPI_Group_incl()'
p4549
S'47'
p4550
tp4551
a(S'MPI_Comm_create()'
p4552
S'49'
p4553
tp4554
a(S'MPI_Comm_rank()'
p4555
S'54'
p4556
tp4557
a(S'MPI_Finalize()'
p4558
S'65'
p4559
tp4560
asS'HopeFOAM/ThirdParty-0.1/ParaView-5.0.1/VTK/Infovis/Parallel/Testing/Cxx/TestPBGLPedigrees.cxx'
p4561
(lp4562
(S'MPI_Init()'
p4563
S'879'
p4564
tp4565
a(S'MPI_Finalize()'
p4566
S'886'
p4567
tp4568
asS'HopeFOAM/ThirdParty-0.1/ParaView-5.0.1/VTK/Infovis/Parallel/Testing/Cxx/PBGLNamedVertexGraph.cxx'
p4569
(lp4570
(S'MPI_Abort()'
p4571
S'50'
p4572
tp4573
a(S'MPI_Init()'
p4574
S'232'
p4575
tp4576
a(S'MPI_Finalize()'
p4577
S'236'
p4578
tp4579
asS'HopeFOAM/ThirdParty-0.1/ParaView-5.0.1/CoProcessing/PythonCatalyst/Testing/Cxx/PythonScriptCoProcessingExample.cxx'
p4580
(lp4581
(S'MPI_Init()'
p4582
S'35'
p4583
tp4584
a(S'MPI_Finalize()'
p4585
S'58'
p4586
tp4587
asS'HopeFOAM/ThirdParty-0.1/ParaView-5.0.1/VTK/Parallel/MPI/Testing/Cxx/GenericCommunicator.cxx'
p4588
(lp4589
(S'MPI_Init()'
p4590
S'303'
p4591
tp4592
asS'HopeFOAM/ThirdParty-0.1/ParaView-5.0.1/VTK/ThirdParty/mpi4py/vtkmpi4py/src/mpi4py.MPI.c'
p4593
(lp4594
(S'MPI_Initialized()'
p4595
S'3962'
p4596
tp4597
a(S'MPI_Finalized()'
p4598
S'3980'
p4599
tp4600
a(S'MPI_Init_thread()'
p4601
S'4100'
p4602
tp4603
a(S'MPI_Init()'
p4604
S'4149'
p4605
tp4606
a(S'MPI_Initialized()'
p4607
S'4308'
p4608
tp4609
a(S'MPI_Finalized()'
p4610
S'4346'
p4611
tp4612
a(S'MPI_Finalize()'
p4613
S'4565'
p4614
tp4615
a(S'MPI_Type_free()'
p4616
S'9741'
p4617
tp4618
a(S'MPI_Type_get_envelope()'
p4619
S'9812'
p4620
tp4621
a(S'MPI_Status_set_elements()'
p4622
S'10618'
p4623
tp4624
a(S'MPI_Status_set_cancelled()'
p4625
S'10627'
p4626
tp4627
a(S'MPI_Status_set_cancelled()'
p4628
S'10710'
p4629
tp4630
a(S'MPI_Request_free()'
p4631
S'11894'
p4632
tp4633
a(S'MPI_Abort()'
p4634
S'13210'
p4635
tp4636
a(S'MPI_Abort()'
p4637
S'13267'
p4638
tp4639
a(S'MPI_Abort()'
p4640
S'13281'
p4641
tp4642
a(S'MPI_Type_get_extent()'
p4643
S'13303'
p4644
tp4645
a(S'MPI_Op_free()'
p4646
S'14642'
p4647
tp4648
a(S'MPI_Info_free()'
p4649
S'14782'
p4650
tp4651
a(S'MPI_Group_free()'
p4652
S'14982'
p4653
tp4654
a(S'MPI_Comm_free()'
p4655
S'16565'
p4656
tp4657
a(S'MPI_Win_create_keyval()'
p4658
S'16718'
p4659
tp4660
a(S'MPI_Win_set_attr()'
p4661
S'16744'
p4662
tp4663
a(S'MPI_Win_free()'
p4664
S'17924'
p4665
tp4666
a(S'MPI_File_close()'
p4667
S'18064'
p4668
tp4669
a(S'MPI_Errhandler_free()'
p4670
S'18204'
p4671
tp4672
as.