ccollections
defaultdict
p0
(c__builtin__
list
p1
tp2
Rp3
S'Specfem2D/src/specfem2D/write_wavefield_dumps.F90'
p4
(lp5
(S'X_MPI_DOUBLE_PRECISION()'
p6
S'161'
p7
tp8
a(S'X_MPI_LOGICAL()'
p9
S'166'
p10
tp11
a(S'X_MPI_DOUBLE_PRECISION()'
p12
S'183'
p13
tp14
a(S'X_MPI_LOGICAL()'
p15
S'185'
p16
tp17
a(S'X_MPI_DOUBLE_PRECISION()'
p18
S'269'
p19
tp20
a(S'X_MPI_DOUBLE_PRECISION()'
p21
S'280'
p22
tp23
asS'Specfem2D/m4/cit_fortran.m4'
p24
(lp25
(S'MPI_INIT()'
p26
S'183'
p27
tp28
a(S'MPI_FINALIZE()'
p29
S'184'
p30
tp31
a(S'MPI_INIT()'
p32
S'197'
p33
tp34
a(S'MPI_FINALIZE()'
p35
S'198'
p36
tp37
a(S'MPI_INIT()'
p38
S'302'
p39
tp40
a(S'MPI_BARRIER()'
p41
S'303'
p42
tp43
a(S'MPI_FINALIZE()'
p44
S'304'
p45
tp46
asS'Specfem2D/src/tomography/postprocess_sensitivity_kernels/smooth_sem.F90'
p47
(lp48
(S'MPI_REDUCE()'
p49
S'438'
p50
tp51
a(S'MPI_REDUCE()'
p52
S'442'
p53
tp54
a(S'MPI_REDUCE()'
p55
S'446'
p56
tp57
a(S'MPI_REDUCE()'
p58
S'450'
p59
tp60
asS'Specfem2D/src/meshfem2D/scotch_5.1.12b/src/libscotch/dorder_io.c'
p61
(lp62
(S'X_MPI_ANY_SOURCE()'
p63
S'179'
p64
tp65
asS'Specfem2D/src/cuda/check_fields_cuda.cu'
p66
(lp67
(S'MPI_Comm_rank()'
p68
S'68'
p69
tp70
a(S'MPI_Comm_rank()'
p71
S'105'
p72
tp73
a(S'MPI_Abort()'
p74
S'119'
p75
tp76
a(S'MPI_Comm_rank()'
p77
S'136'
p78
tp79
a(S'MPI_Abort()'
p80
S'149'
p81
tp82
a(S'MPI_Comm_rank()'
p83
S'169'
p84
tp85
a(S'MPI_Abort()'
p86
S'182'
p87
tp88
a(S'MPI_Barrier()'
p89
S'207'
p90
tp91
a(S'MPI_Comm_rank()'
p92
S'795'
p93
tp94
a(S'MPI_Comm_rank()'
p95
S'1043'
p96
tp97
a(S'MPI_Comm_rank()'
p98
S'1216'
p99
tp100
asS'Specfem2D/src/specfem2D/prepare_timerun.F90'
p101
(lp102
(S'mpi_allreduce()'
p103
S'645'
p104
tp105
asS'Specfem2D/utils/GPU_tools/check_cuda_device.cu'
p106
(lp107
(S'MPI_Abort()'
p108
S'64'
p109
tp110
a(S'MPI_Abort()'
p111
S'95'
p112
tp113
a(S'MPI_Barrier()'
p114
S'172'
p115
tp116
a(S'MPI_Barrier()'
p117
S'239'
p118
tp119
a(S'MPI_Comm_size()'
p120
S'242'
p121
tp122
a(S'MPI_Barrier()'
p123
S'291'
p124
tp125
a(S'MPI_Barrier()'
p126
S'336'
p127
tp128
a(S'MPI_Init()'
p129
S'349'
p130
tp131
a(S'MPI_Abort()'
p132
S'352'
p133
tp134
a(S'MPI_Comm_size()'
p135
S'354'
p136
tp137
a(S'MPI_Comm_rank()'
p138
S'355'
p139
tp140
a(S'MPI_Barrier()'
p141
S'357'
p142
tp143
a(S'MPI_Finalize()'
p144
S'377'
p145
tp146
asS'Specfem2D/src/shared/parallel.F90'
p147
(lp148
(S'MPI_INIT()'
p149
S'97'
p150
tp151
a(S'MPI_COMM_SIZE()'
p152
S'101'
p153
tp154
a(S'MPI_COMM_RANK()'
p155
S'105'
p156
tp157
a(S'MPI_BARRIER()'
p158
S'157'
p159
tp160
a(S'MPI_FINALIZE()'
p161
S'160'
p162
tp163
a(S'MPI_COMM_RANK()'
p164
S'191'
p165
tp166
a(S'MPI_ABORT()'
p167
S'216'
p168
tp169
a(S'MPI_BARRIER()'
p170
S'241'
p171
tp172
a(S'MPI_WAIT()'
p173
S'271'
p174
tp175
a(S'MPI_BCAST()'
p176
S'305'
p177
tp178
a(S'MPI_BCAST()'
p179
S'334'
p180
tp181
a(S'MPI_BCAST()'
p182
S'363'
p183
tp184
a(S'MPI_BCAST()'
p185
S'393'
p186
tp187
a(S'MPI_BCAST()'
p188
S'425'
p189
tp190
a(S'MPI_BCAST()'
p191
S'458'
p192
tp193
a(S'MPI_BCAST()'
p194
S'497'
p195
tp196
a(S'MPI_BCAST()'
p197
S'537'
p198
tp199
a(S'MPI_BCAST()'
p200
S'572'
p201
tp202
a(S'MPI_BCAST()'
p203
S'608'
p204
tp205
a(S'MPI_REDUCE()'
p206
S'638'
p207
tp208
a(S'MPI_REDUCE()'
p209
S'664'
p210
tp211
a(S'MPI_ALLREDUCE()'
p212
S'689'
p213
tp214
a(S'MPI_REDUCE()'
p215
S'719'
p216
tp217
a(S'MPI_ALLREDUCE()'
p218
S'744'
p219
tp220
a(S'MPI_ALLREDUCE()'
p221
S'770'
p222
tp223
a(S'MPI_ALLREDUCE()'
p224
S'795'
p225
tp226
a(S'MPI_REDUCE()'
p227
S'823'
p228
tp229
a(S'MPI_ALLREDUCE()'
p230
S'849'
p231
tp232
a(S'MPI_REDUCE()'
p233
S'880'
p234
tp235
a(S'MPI_REDUCE()'
p236
S'906'
p237
tp238
a(S'MPI_REDUCE()'
p239
S'933'
p240
tp241
a(S'MPI_ALLREDUCE()'
p242
S'961'
p243
tp244
a(S'MPI_ISEND()'
p245
S'1002'
p246
tp247
a(S'MPI_IRECV()'
p248
S'1046'
p249
tp250
a(S'MPI_SEND()'
p251
S'1079'
p252
tp253
a(S'MPI_SEND()'
p254
S'1104'
p255
tp256
a(S'MPI_RECV()'
p257
S'1128'
p258
tp259
a(S'MPI_RECV()'
p260
S'1153'
p261
tp262
a(S'MPI_SEND()'
p263
S'1181'
p264
tp265
a(S'MPI_SEND()'
p266
S'1208'
p267
tp268
a(S'MPI_RECV()'
p269
S'1234'
p270
tp271
a(S'MPI_RECV()'
p272
S'1260'
p273
tp274
a(S'MPI_GATHER()'
p275
S'1290'
p276
tp277
a(S'MPI_GATHER()'
p278
S'1318'
p279
tp280
a(S'MPI_GATHER()'
p281
S'1346'
p282
tp283
a(S'MPI_ALLGATHER()'
p284
S'1374'
p285
tp286
a(S'MPI_COMM_SIZE()'
p287
S'1405'
p288
tp289
a(S'MPI_COMM_RANK()'
p290
S'1434'
p291
tp292
a(S'MPI_COMM_DUP()'
p293
S'1462'
p294
tp295
a(S'MPI_COMM_SIZE()'
p296
S'1517'
p297
tp298
a(S'MPI_COMM_RANK()'
p299
S'1518'
p300
tp301
a(S'MPI_COMM_SPLIT()'
p302
S'1550'
p303
tp304
a(S'MPI_COMM_RANK()'
p305
S'1562'
p306
tp307
a(S'MPI_COMM_SPLIT()'
p308
S'1569'
p309
tp310
a(S'MPI_COMM_RANK()'
p311
S'1573'
p312
tp313
a(S'MPI_COMM_FREE()'
p314
S'1607'
p315
tp316
asS'Specfem2D/m4/cit_mpi.m4'
p317
(lp318
(S'MPI_Init()'
p319
S'400'
p320
tp321
a(S'MPI_Finalize()'
p322
S'401'
p323
tp324
as.