ccollections
defaultdict
p0
(c__builtin__
list
p1
tp2
Rp3
S'Cuda-Game-Engine/.git/logs/refs/heads/master'
p4
(lp5
(S'MPI_Bsend()'
p6
S'708'
p7
tp8
a(S'MPI_Isend()'
p9
S'714'
p10
tp11
a(S'MPI_Test()'
p12
S'720'
p13
tp14
a(S'MPI_Bsend()'
p15
S'744'
p16
tp17
a(S'MPI_Isend()'
p18
S'750'
p19
tp20
a(S'MPI_Test()'
p21
S'756'
p22
tp23
a(S'MPI_Comm_rank()'
p24
S'40'
p25
tp26
a(S'MPI_Accumulate()'
p27
S'53'
p28
tp29
a(S'MPI_Win_fence()'
p30
S'60'
p31
tp32
a(S'MPI_Comm_rank()'
p33
S'90'
p34
tp35
a(S'MPI_Win_create()'
p36
S'117'
p37
tp38
a(S'X_MPI_INFO_NULL()'
p39
S'120'
p40
tp41
a(S'MPI_Win_set_name()'
p42
S'121'
p43
tp44
a(S'MPI_Win_create()'
p45
S'122'
p46
tp47
a(S'X_MPI_INFO_NULL()'
p48
S'125'
p49
tp50
a(S'MPI_Win_set_name()'
p51
S'126'
p52
tp53
a(S'MPI_Win_fence()'
p54
S'131'
p55
tp56
a(S'MPI_Win_fence()'
p57
S'132'
p58
tp59
a(S'MPI_Win_free()'
p60
S'146'
p61
tp62
a(S'MPI_Win_free()'
p63
S'147'
p64
tp65
a(S'MPI_Recv()'
p66
S'492'
p67
tp68
a(S'MPI_Get_count()'
p69
S'510'
p70
tp71
a(S'MPI_Recv()'
p72
S'516'
p73
tp74
a(S'MPI_Irecv()'
p75
S'665'
p76
tp77
a(S'X_MPI_PACKED()'
p78
S'666'
p79
tp80
a(S'MPI_Allgather()'
p81
S'837'
p82
tp83
a(S'MPI_Allgatherv()'
p84
S'856'
p85
tp86
a(S'X_MPI_BYTE()'
p87
S'859'
p88
tp89
a(S'MPI_Comm_group()'
p90
S'880'
p91
tp92
a(S'MPI_Group_incl()'
p93
S'884'
p94
tp95
a(S'MPI_Comm_create()'
p96
S'888'
p97
tp98
a(S'MPI_Group_free()'
p99
S'891'
p100
tp101
a(S'MPI_Group_free()'
p102
S'893'
p103
tp104
a(S'MPI_Comm_free()'
p105
S'898'
p106
tp107
a(S'MPI_Irecv()'
p108
S'929'
p109
tp110
a(S'MPI_Test()'
p111
S'934'
p112
tp113
a(S'MPI_Get_count()'
p114
S'967'
p115
tp116
a(S'MPI_Recv()'
p117
S'972'
p118
tp119
a(S'X_MPI_INFO_NULL()'
p120
S'141'
p121
tp122
a(S'MPI_Comm()'
p123
S'1425'
p124
tp125
a(S'MPI_Comm()'
p126
S'1448'
p127
tp128
a(S'MPI_Comm()'
p129
S'1484'
p130
tp131
a(S'MPI_Comm()'
p132
S'1507'
p133
tp134
a(S'X_MPI_LONG_DOUBLE_INT()'
p135
S'250'
p136
tp137
a(S'MPI_Type_contiguous()'
p138
S'310'
p139
tp140
a(S'MPI_Type_commit()'
p141
S'311'
p142
tp143
a(S'MPI_Error_class()'
p144
S'73'
p145
tp146
a(S'MPI_Op_free()'
p147
S'293'
p148
tp149
a(S'MPI_Wtime()'
p150
S'71'
p151
tp152
as.