ccollections
defaultdict
p0
(c__builtin__
list
p1
tp2
Rp3
S'boost/libs/mpi/src/point_to_point.cpp'
p4
(lp5
(S'X_MPI_PACKED()'
p6
S'38'
p7
tp8
a(S'X_MPI_PACKED()'
p9
S'55'
p10
tp11
a(S'X_MPI_PACKED()'
p12
S'75'
p13
tp14
asS'boost/boost/mpi/datatype.hpp'
p15
(lp16
(S'X_MPI_LONG_DOUBLE_INT()'
p17
S'254'
p18
tp19
a(S'MPI_Type_contiguous()'
p20
S'323'
p21
tp22
a(S'MPI_Type_commit()'
p23
S'324'
p24
tp25
asS'boost/libs/mpi/src/communicator.cpp'
p26
(lp27
(S'MPI_Comm_set_errhandler()'
p28
S'46'
p29
tp30
asS'boost/libs/mpi/src/environment.cpp'
p31
(lp32
(S'MPI_Comm_set_errhandler()'
p33
S'75'
p34
tp35
a(S'MPI_Errhandler_set()'
p36
S'77'
p37
tp38
a(S'MPI_Comm_set_errhandler()'
p39
S'94'
p40
tp41
a(S'MPI_Errhandler_set()'
p42
S'96'
p43
tp44
a(S'MPI_Comm_set_errhandler()'
p45
S'111'
p46
tp47
a(S'MPI_Errhandler_set()'
p48
S'113'
p49
tp50
a(S'MPI_Comm_set_errhandler()'
p51
S'131'
p52
tp53
a(S'MPI_Errhandler_set()'
p54
S'133'
p55
tp56
asS'boost/boost/graph/distributed/mpi_process_group.hpp'
p57
(lp58
(S'MPI_Bsend()'
p59
S'709'
p60
tp61
a(S'MPI_Isend()'
p62
S'715'
p63
tp64
a(S'MPI_Test()'
p65
S'721'
p66
tp67
a(S'MPI_Bsend()'
p68
S'745'
p69
tp70
a(S'MPI_Isend()'
p71
S'751'
p72
tp73
a(S'MPI_Test()'
p74
S'757'
p75
tp76
asS'boost/libs/mpi/test/broadcast_test.cpp'
p77
(lp78
(S'MPI_Abort()'
p79
S'144'
p80
tp81
asS'boost/libs/graph_parallel/test/distributed_betweenness_centrality_test.cpp'
p82
(lp83
(S'MPI_Abort()'
p84
S'292'
p85
tp86
asS'boost/libs/mpi/test/skeleton_content_test.cpp'
p87
(lp88
(S'MPI_Abort()'
p89
S'195'
p90
tp91
asS'boost/boost/graph/distributed/page_rank.hpp'
p92
(lp93
(S'MPI_Comm_rank()'
p94
S'40'
p95
tp96
a(S'MPI_Accumulate()'
p97
S'53'
p98
tp99
a(S'MPI_Win_fence()'
p100
S'60'
p101
tp102
a(S'MPI_Comm_rank()'
p103
S'90'
p104
tp105
a(S'MPI_Win_create()'
p106
S'115'
p107
tp108
a(S'X_MPI_INFO_NULL()'
p109
S'118'
p110
tp111
a(S'MPI_Win_set_name()'
p112
S'119'
p113
tp114
a(S'MPI_Win_create()'
p115
S'120'
p116
tp117
a(S'X_MPI_INFO_NULL()'
p118
S'123'
p119
tp120
a(S'MPI_Win_set_name()'
p121
S'124'
p122
tp123
a(S'MPI_Win_fence()'
p124
S'129'
p125
tp126
a(S'MPI_Win_fence()'
p127
S'130'
p128
tp129
a(S'MPI_Win_free()'
p130
S'144'
p131
tp132
a(S'MPI_Win_free()'
p133
S'145'
p134
tp135
asS'boost/boost/graph/distributed/detail/mpi_process_group.ipp'
p136
(lp137
(S'MPI_Recv()'
p138
S'493'
p139
tp140
a(S'MPI_Get_count()'
p141
S'511'
p142
tp143
a(S'MPI_Recv()'
p144
S'517'
p145
tp146
a(S'MPI_Irecv()'
p147
S'666'
p148
tp149
a(S'X_MPI_PACKED()'
p150
S'667'
p151
tp152
a(S'MPI_Allgather()'
p153
S'838'
p154
tp155
a(S'MPI_Allgatherv()'
p156
S'857'
p157
tp158
a(S'X_MPI_BYTE()'
p159
S'860'
p160
tp161
a(S'MPI_Comm_group()'
p162
S'881'
p163
tp164
a(S'MPI_Group_incl()'
p165
S'885'
p166
tp167
a(S'MPI_Comm_create()'
p168
S'889'
p169
tp170
a(S'MPI_Group_free()'
p171
S'892'
p172
tp173
a(S'MPI_Group_free()'
p174
S'894'
p175
tp176
a(S'MPI_Comm_free()'
p177
S'899'
p178
tp179
a(S'MPI_Irecv()'
p180
S'930'
p181
tp182
a(S'MPI_Test()'
p183
S'935'
p184
tp185
a(S'MPI_Get_count()'
p186
S'968'
p187
tp188
a(S'MPI_Recv()'
p189
S'973'
p190
tp191
asS'boost/boost/mpi/communicator.hpp'
p192
(lp193
(S'MPI_Comm()'
p194
S'1366'
p195
tp196
a(S'MPI_Comm()'
p197
S'1566'
p198
tp199
a(S'MPI_Comm()'
p200
S'1589'
p201
tp202
a(S'MPI_Comm()'
p203
S'1625'
p204
tp205
a(S'MPI_Comm()'
p206
S'1648'
p207
tp208
asS'boost/libs/mpi/src/exception.cpp'
p209
(lp210
(S'MPI_Error_string()'
p211
S'19'
p212
tp213
asS'boost/libs/mpi/test/sendrecv_vector.cpp'
p214
(lp215
(S'MPI_Type_create_struct()'
p216
S'46'
p217
tp218
a(S'MPI_Type_commit()'
p219
S'53'
p220
tp221
asS'boost/boost/mpi/timer.hpp'
p222
(lp223
(S'MPI_Wtime()'
p224
S'71'
p225
tp226
asS'boost/libs/graph_parallel/src/mpi_process_group.cpp'
p227
(lp228
(S'MPI_Cancel()'
p229
S'142'
p230
tp231
a(S'MPI_Isend()'
p232
S'561'
p233
tp234
a(S'X_MPI_PACKED()'
p235
S'562'
p236
tp237
a(S'MPI_Test()'
p238
S'570'
p239
tp240
a(S'MPI_Get_count()'
p241
S'732'
p242
tp243
a(S'MPI_Recv()'
p244
S'739'
p245
tp246
a(S'MPI_Isend()'
p247
S'823'
p248
tp249
a(S'MPI_Test()'
p250
S'827'
p251
tp252
a(S'MPI_Testsome()'
p253
S'930'
p254
tp255
a(S'MPI_Test()'
p256
S'1037'
p257
tp258
a(S'MPI_Test()'
p259
S'1048'
p260
tp261
a(S'MPI_Buffer_detach()'
p262
S'1095'
p263
tp264
a(S'MPI_Buffer_detach()'
p265
S'1100'
p266
tp267
a(S'MPI_Buffer_attach()'
p268
S'1103'
p269
tp270
a(S'MPI_Buffer_attach()'
p271
S'1105'
p272
tp273
asS'boost/libs/mpi/example/reduce_performance_test.cpp'
p274
(lp275
(S'MPI_Reduce()'
p276
S'94'
p277
tp278
asS'boost/boost/mpi/allocator.hpp'
p279
(lp280
(S'X_MPI_INFO_NULL()'
p281
S'141'
p282
tp283
asS'boost/boost/mpi/operations.hpp'
p284
(lp285
(S'MPI_Op_free()'
p286
S'293'
p287
tp288
asS'boost/libs/mpi/test/ring_test.cpp'
p289
(lp290
(S'MPI_Abort()'
p291
S'95'
p292
tp293
asS'boost/libs/mpi/doc/mpi.qbk'
p294
(lp295
(S'MPI_Init()'
p296
S'115'
p297
tp298
a(S'MPI_Comm_rank()'
p299
S'118'
p300
tp301
a(S'MPI_Send()'
p302
S'121'
p303
tp304
a(S'MPI_Recv()'
p305
S'126'
p306
tp307
a(S'MPI_Finalize()'
p308
S'131'
p309
tp310
asS'boost/libs/mpi/src/mpi_datatype_cache.cpp'
p311
(lp312
(S'MPI_Type_free()'
p313
S'36'
p314
tp315
asS'boost/libs/mpi/src/request.cpp'
p316
(lp317
(S'MPI_Waitall()'
p318
S'39'
p319
tp320
a(S'MPI_Testall()'
p321
S'82'
p322
tp323
asS'boost/boost/mpi/exception.hpp'
p324
(lp325
(S'MPI_Error_class()'
p326
S'73'
p327
tp328
as.