ccollections
defaultdict
p0
(c__builtin__
list
p1
tp2
Rp3
S'mpc-primitives/crislib/libscapi/lib/boost_1_64_0/boost/mpi/datatype.hpp'
p4
(lp5
(S'X_MPI_LONG_DOUBLE_INT()'
p6
S'254'
p7
tp8
a(S'MPI_Type_contiguous()'
p9
S'323'
p10
tp11
a(S'MPI_Type_commit()'
p12
S'324'
p13
tp14
asS'mpc-primitives/crislib/libscapi/lib/boost_1_64_0/libs/mpi/example/reduce_performance_test.cpp'
p15
(lp16
(S'MPI_Reduce()'
p17
S'94'
p18
tp19
asS'mpc-primitives/crislib/libscapi/lib/boost_1_64_0/boost/mpi/communicator.hpp'
p20
(lp21
(S'MPI_Comm()'
p22
S'1366'
p23
tp24
a(S'MPI_Comm()'
p25
S'1566'
p26
tp27
a(S'MPI_Comm()'
p28
S'1589'
p29
tp30
a(S'MPI_Comm()'
p31
S'1625'
p32
tp33
a(S'MPI_Comm()'
p34
S'1648'
p35
tp36
asS'mpc-primitives/crislib/libscapi/lib/boost_1_64_0/libs/mpi/src/mpi_datatype_cache.cpp'
p37
(lp38
(S'MPI_Type_free()'
p39
S'36'
p40
tp41
asS'mpc-primitives/crislib/libscapi/lib/boost_1_64_0/boost/graph/distributed/detail/mpi_process_group.ipp'
p42
(lp43
(S'MPI_Recv()'
p44
S'493'
p45
tp46
a(S'MPI_Get_count()'
p47
S'511'
p48
tp49
a(S'MPI_Recv()'
p50
S'517'
p51
tp52
a(S'MPI_Irecv()'
p53
S'666'
p54
tp55
a(S'X_MPI_PACKED()'
p56
S'667'
p57
tp58
a(S'MPI_Allgather()'
p59
S'838'
p60
tp61
a(S'MPI_Allgatherv()'
p62
S'857'
p63
tp64
a(S'X_MPI_BYTE()'
p65
S'860'
p66
tp67
a(S'MPI_Comm_group()'
p68
S'881'
p69
tp70
a(S'MPI_Group_incl()'
p71
S'885'
p72
tp73
a(S'MPI_Comm_create()'
p74
S'889'
p75
tp76
a(S'MPI_Group_free()'
p77
S'892'
p78
tp79
a(S'MPI_Group_free()'
p80
S'894'
p81
tp82
a(S'MPI_Comm_free()'
p83
S'899'
p84
tp85
a(S'MPI_Irecv()'
p86
S'930'
p87
tp88
a(S'MPI_Test()'
p89
S'935'
p90
tp91
a(S'MPI_Get_count()'
p92
S'968'
p93
tp94
a(S'MPI_Recv()'
p95
S'973'
p96
tp97
asS'mpc-primitives/crislib/libscapi/lib/boost_1_64_0/libs/mpi/src/request.cpp'
p98
(lp99
(S'MPI_Waitall()'
p100
S'39'
p101
tp102
a(S'MPI_Testall()'
p103
S'82'
p104
tp105
asS'mpc-primitives/crislib/libscapi/lib/boost_1_64_0/boost/mpi/exception.hpp'
p106
(lp107
(S'MPI_Error_class()'
p108
S'73'
p109
tp110
asS'mpc-primitives/crislib/libscapi/lib/boost_1_64_0/libs/graph_parallel/test/distributed_betweenness_centrality_test.cpp'
p111
(lp112
(S'MPI_Abort()'
p113
S'292'
p114
tp115
asS'mpc-primitives/crislib/libscapi/lib/boost_1_64_0/libs/mpi/test/sendrecv_vector.cpp'
p116
(lp117
(S'MPI_Type_create_struct()'
p118
S'46'
p119
tp120
a(S'MPI_Type_commit()'
p121
S'53'
p122
tp123
asS'mpc-primitives/crislib/libscapi/lib/boost_1_64_0/libs/mpi/test/broadcast_test.cpp'
p124
(lp125
(S'MPI_Abort()'
p126
S'144'
p127
tp128
asS'mpc-primitives/crislib/libscapi/lib/boost_1_64_0/libs/mpi/src/environment.cpp'
p129
(lp130
(S'MPI_Comm_set_errhandler()'
p131
S'75'
p132
tp133
a(S'MPI_Errhandler_set()'
p134
S'77'
p135
tp136
a(S'MPI_Comm_set_errhandler()'
p137
S'94'
p138
tp139
a(S'MPI_Errhandler_set()'
p140
S'96'
p141
tp142
a(S'MPI_Comm_set_errhandler()'
p143
S'111'
p144
tp145
a(S'MPI_Errhandler_set()'
p146
S'113'
p147
tp148
a(S'MPI_Comm_set_errhandler()'
p149
S'131'
p150
tp151
a(S'MPI_Errhandler_set()'
p152
S'133'
p153
tp154
asS'mpc-primitives/crislib/libscapi/lib/boost_1_64_0/libs/mpi/src/point_to_point.cpp'
p155
(lp156
(S'X_MPI_PACKED()'
p157
S'38'
p158
tp159
a(S'X_MPI_PACKED()'
p160
S'55'
p161
tp162
a(S'X_MPI_PACKED()'
p163
S'75'
p164
tp165
asS'mpc-primitives/crislib/libscapi/lib/boost_1_64_0/libs/mpi/test/ring_test.cpp'
p166
(lp167
(S'MPI_Abort()'
p168
S'95'
p169
tp170
asS'mpc-primitives/crislib/libscapi/lib/boost_1_64_0/boost/mpi/timer.hpp'
p171
(lp172
(S'MPI_Wtime()'
p173
S'71'
p174
tp175
asS'mpc-primitives/crislib/libscapi/lib/boost_1_64_0/boost/mpi/allocator.hpp'
p176
(lp177
(S'X_MPI_INFO_NULL()'
p178
S'141'
p179
tp180
asS'mpc-primitives/crislib/libscapi/lib/boost_1_64_0/libs/mpi/test/skeleton_content_test.cpp'
p181
(lp182
(S'MPI_Abort()'
p183
S'195'
p184
tp185
asS'mpc-primitives/crislib/libscapi/lib/boost_1_64_0/boost/graph/distributed/page_rank.hpp'
p186
(lp187
(S'MPI_Comm_rank()'
p188
S'40'
p189
tp190
a(S'MPI_Accumulate()'
p191
S'53'
p192
tp193
a(S'MPI_Win_fence()'
p194
S'60'
p195
tp196
a(S'MPI_Comm_rank()'
p197
S'90'
p198
tp199
a(S'MPI_Win_create()'
p200
S'115'
p201
tp202
a(S'X_MPI_INFO_NULL()'
p203
S'118'
p204
tp205
a(S'MPI_Win_set_name()'
p206
S'119'
p207
tp208
a(S'MPI_Win_create()'
p209
S'120'
p210
tp211
a(S'X_MPI_INFO_NULL()'
p212
S'123'
p213
tp214
a(S'MPI_Win_set_name()'
p215
S'124'
p216
tp217
a(S'MPI_Win_fence()'
p218
S'129'
p219
tp220
a(S'MPI_Win_fence()'
p221
S'130'
p222
tp223
a(S'MPI_Win_free()'
p224
S'144'
p225
tp226
a(S'MPI_Win_free()'
p227
S'145'
p228
tp229
asS'mpc-primitives/crislib/libscapi/lib/boost_1_64_0/libs/mpi/doc/mpi.qbk'
p230
(lp231
(S'MPI_Init()'
p232
S'115'
p233
tp234
a(S'MPI_Comm_rank()'
p235
S'118'
p236
tp237
a(S'MPI_Send()'
p238
S'121'
p239
tp240
a(S'MPI_Recv()'
p241
S'126'
p242
tp243
a(S'MPI_Finalize()'
p244
S'131'
p245
tp246
asS'mpc-primitives/crislib/libscapi/lib/boost_1_64_0/libs/graph_parallel/src/mpi_process_group.cpp'
p247
(lp248
(S'MPI_Cancel()'
p249
S'142'
p250
tp251
a(S'MPI_Isend()'
p252
S'561'
p253
tp254
a(S'X_MPI_PACKED()'
p255
S'562'
p256
tp257
a(S'MPI_Test()'
p258
S'570'
p259
tp260
a(S'MPI_Get_count()'
p261
S'732'
p262
tp263
a(S'MPI_Recv()'
p264
S'739'
p265
tp266
a(S'MPI_Isend()'
p267
S'823'
p268
tp269
a(S'MPI_Test()'
p270
S'827'
p271
tp272
a(S'MPI_Testsome()'
p273
S'930'
p274
tp275
a(S'MPI_Test()'
p276
S'1037'
p277
tp278
a(S'MPI_Test()'
p279
S'1048'
p280
tp281
a(S'MPI_Buffer_detach()'
p282
S'1095'
p283
tp284
a(S'MPI_Buffer_detach()'
p285
S'1100'
p286
tp287
a(S'MPI_Buffer_attach()'
p288
S'1103'
p289
tp290
a(S'MPI_Buffer_attach()'
p291
S'1105'
p292
tp293
asS'mpc-primitives/crislib/libscapi/lib/boost_1_64_0/libs/mpi/src/exception.cpp'
p294
(lp295
(S'MPI_Error_string()'
p296
S'19'
p297
tp298
asS'mpc-primitives/crislib/libscapi/lib/boost_1_64_0/libs/mpi/src/communicator.cpp'
p299
(lp300
(S'MPI_Comm_set_errhandler()'
p301
S'46'
p302
tp303
asS'mpc-primitives/crislib/libscapi/lib/boost_1_64_0/boost/graph/distributed/mpi_process_group.hpp'
p304
(lp305
(S'MPI_Bsend()'
p306
S'709'
p307
tp308
a(S'MPI_Isend()'
p309
S'715'
p310
tp311
a(S'MPI_Test()'
p312
S'721'
p313
tp314
a(S'MPI_Bsend()'
p315
S'745'
p316
tp317
a(S'MPI_Isend()'
p318
S'751'
p319
tp320
a(S'MPI_Test()'
p321
S'757'
p322
tp323
asS'mpc-primitives/crislib/libscapi/lib/boost_1_64_0/boost/mpi/operations.hpp'
p324
(lp325
(S'MPI_Op_free()'
p326
S'293'
p327
tp328
as.