ccollections
defaultdict
p0
(c__builtin__
list
p1
tp2
Rp3
S'Final-Year-Project-Server/packages/boost.1.66.0.0/lib/native/include/boost/graph/distributed/page_rank.hpp'
p4
(lp5
(S'MPI_Comm_rank()'
p6
S'40'
p7
tp8
a(S'MPI_Accumulate()'
p9
S'53'
p10
tp11
a(S'MPI_Win_fence()'
p12
S'60'
p13
tp14
a(S'MPI_Comm_rank()'
p15
S'90'
p16
tp17
a(S'MPI_Win_create()'
p18
S'115'
p19
tp20
a(S'X_MPI_INFO_NULL()'
p21
S'118'
p22
tp23
a(S'MPI_Win_set_name()'
p24
S'119'
p25
tp26
a(S'MPI_Win_create()'
p27
S'120'
p28
tp29
a(S'X_MPI_INFO_NULL()'
p30
S'123'
p31
tp32
a(S'MPI_Win_set_name()'
p33
S'124'
p34
tp35
a(S'MPI_Win_fence()'
p36
S'129'
p37
tp38
a(S'MPI_Win_fence()'
p39
S'130'
p40
tp41
a(S'MPI_Win_free()'
p42
S'144'
p43
tp44
a(S'MPI_Win_free()'
p45
S'145'
p46
tp47
asS'Final-Year-Project-Server/packages/boost.1.66.0.0/lib/native/include/boost/mpi/operations.hpp'
p48
(lp49
(S'MPI_Op_free()'
p50
S'293'
p51
tp52
asS'Final-Year-Project-Server/packages/boost.1.66.0.0/lib/native/include/boost/mpi/exception.hpp'
p53
(lp54
(S'MPI_Error_class()'
p55
S'73'
p56
tp57
asS'Final-Year-Project-Server/packages/boost.1.66.0.0/lib/native/include/boost/mpi/datatype.hpp'
p58
(lp59
(S'X_MPI_LONG_DOUBLE_INT()'
p60
S'254'
p61
tp62
a(S'MPI_Type_contiguous()'
p63
S'323'
p64
tp65
a(S'MPI_Type_commit()'
p66
S'324'
p67
tp68
asS'Final-Year-Project-Server/packages/boost.1.66.0.0/lib/native/include/boost/mpi/communicator.hpp'
p69
(lp70
(S'MPI_Comm()'
p71
S'1366'
p72
tp73
a(S'MPI_Comm()'
p74
S'1566'
p75
tp76
a(S'MPI_Comm()'
p77
S'1589'
p78
tp79
a(S'MPI_Comm()'
p80
S'1625'
p81
tp82
a(S'MPI_Comm()'
p83
S'1648'
p84
tp85
asS'Final-Year-Project-Server/packages/boost.1.66.0.0/lib/native/include/boost/mpi/allocator.hpp'
p86
(lp87
(S'X_MPI_INFO_NULL()'
p88
S'141'
p89
tp90
asS'Final-Year-Project-Server/packages/boost.1.66.0.0/lib/native/include/boost/graph/distributed/detail/mpi_process_group.ipp'
p91
(lp92
(S'MPI_Recv()'
p93
S'493'
p94
tp95
a(S'MPI_Get_count()'
p96
S'511'
p97
tp98
a(S'MPI_Recv()'
p99
S'517'
p100
tp101
a(S'MPI_Irecv()'
p102
S'666'
p103
tp104
a(S'X_MPI_PACKED()'
p105
S'667'
p106
tp107
a(S'MPI_Allgather()'
p108
S'838'
p109
tp110
a(S'MPI_Allgatherv()'
p111
S'857'
p112
tp113
a(S'X_MPI_BYTE()'
p114
S'860'
p115
tp116
a(S'MPI_Comm_group()'
p117
S'881'
p118
tp119
a(S'MPI_Group_incl()'
p120
S'885'
p121
tp122
a(S'MPI_Comm_create()'
p123
S'889'
p124
tp125
a(S'MPI_Group_free()'
p126
S'892'
p127
tp128
a(S'MPI_Group_free()'
p129
S'894'
p130
tp131
a(S'MPI_Comm_free()'
p132
S'899'
p133
tp134
a(S'MPI_Irecv()'
p135
S'930'
p136
tp137
a(S'MPI_Test()'
p138
S'935'
p139
tp140
a(S'MPI_Get_count()'
p141
S'968'
p142
tp143
a(S'MPI_Recv()'
p144
S'973'
p145
tp146
asS'Final-Year-Project-Server/packages/boost.1.66.0.0/lib/native/include/boost/mpi/timer.hpp'
p147
(lp148
(S'MPI_Wtime()'
p149
S'71'
p150
tp151
asS'Final-Year-Project-Server/packages/boost.1.66.0.0/lib/native/include/boost/graph/distributed/mpi_process_group.hpp'
p152
(lp153
(S'MPI_Bsend()'
p154
S'709'
p155
tp156
a(S'MPI_Isend()'
p157
S'715'
p158
tp159
a(S'MPI_Test()'
p160
S'721'
p161
tp162
a(S'MPI_Bsend()'
p163
S'745'
p164
tp165
a(S'MPI_Isend()'
p166
S'751'
p167
tp168
a(S'MPI_Test()'
p169
S'757'
p170
tp171
as.