ccollections
defaultdict
p0
(c__builtin__
list
p1
tp2
Rp3
S'NCTU_CASE/HW3/inverse_kinematics_source_code/boost_1_59_0/libs/mpi/example/reduce_performance_test.cpp'
p4
(lp5
(S'MPI_Reduce()'
p6
S'94'
p7
tp8
asS'NCTU_CASE/HW2/forward_kinematics_source_code/boost_1_59_0/boost/mpi/communicator.hpp'
p9
(lp10
(S'MPI_Comm()'
p11
S'1292'
p12
tp13
a(S'MPI_Comm()'
p14
S'1492'
p15
tp16
a(S'MPI_Comm()'
p17
S'1515'
p18
tp19
a(S'MPI_Comm()'
p20
S'1551'
p21
tp22
a(S'MPI_Comm()'
p23
S'1574'
p24
tp25
asS'NCTU_CASE/HW3/inverse_kinematics_source_code/boost_1_59_0/libs/mpi/src/exception.cpp'
p26
(lp27
(S'MPI_Error_string()'
p28
S'19'
p29
tp30
asS'NCTU_CASE/HW2/forward_kinematics_source_code/boost_1_59_0/libs/mpi/src/communicator.cpp'
p31
(lp32
(S'MPI_Comm_set_errhandler()'
p33
S'46'
p34
tp35
asS'NCTU_CASE/HW3/inverse_kinematics_source_code/boost_1_59_0/libs/mpi/test/skeleton_content_test.cpp'
p36
(lp37
(S'MPI_Abort()'
p38
S'195'
p39
tp40
asS'NCTU_CASE/HW2/forward_kinematics_source_code/boost_1_59_0/libs/mpi/src/environment.cpp'
p41
(lp42
(S'MPI_Errhandler_set()'
p43
S'74'
p44
tp45
a(S'MPI_Errhandler_set()'
p46
S'89'
p47
tp48
a(S'MPI_Errhandler_set()'
p49
S'102'
p50
tp51
a(S'MPI_Errhandler_set()'
p52
S'118'
p53
tp54
asS'NCTU_CASE/HW3/inverse_kinematics_source_code/boost_1_59_0/libs/mpi/src/communicator.cpp'
p55
(lp56
(S'MPI_Comm_set_errhandler()'
p57
S'46'
p58
tp59
asS'NCTU_CASE/HW2/forward_kinematics_source_code/boost_1_59_0/libs/mpi/src/exception.cpp'
p60
(lp61
(S'MPI_Error_string()'
p62
S'19'
p63
tp64
asS'NCTU_CASE/HW2/forward_kinematics_source_code/boost_1_59_0/libs/mpi/example/reduce_performance_test.cpp'
p65
(lp66
(S'MPI_Reduce()'
p67
S'94'
p68
tp69
asS'NCTU_CASE/HW3/inverse_kinematics_source_code/boost_1_59_0/libs/mpi/doc/mpi.qbk'
p70
(lp71
(S'MPI_Init()'
p72
S'115'
p73
tp74
a(S'MPI_Comm_rank()'
p75
S'118'
p76
tp77
a(S'MPI_Send()'
p78
S'121'
p79
tp80
a(S'MPI_Recv()'
p81
S'126'
p82
tp83
a(S'MPI_Finalize()'
p84
S'131'
p85
tp86
asS'NCTU_CASE/HW2/forward_kinematics_source_code/boost_1_59_0/boost/graph/distributed/page_rank.hpp'
p87
(lp88
(S'MPI_Comm_rank()'
p89
S'40'
p90
tp91
a(S'MPI_Accumulate()'
p92
S'53'
p93
tp94
a(S'MPI_Win_fence()'
p95
S'60'
p96
tp97
a(S'MPI_Comm_rank()'
p98
S'90'
p99
tp100
a(S'MPI_Win_create()'
p101
S'115'
p102
tp103
a(S'X_MPI_INFO_NULL()'
p104
S'118'
p105
tp106
a(S'MPI_Win_set_name()'
p107
S'119'
p108
tp109
a(S'MPI_Win_create()'
p110
S'120'
p111
tp112
a(S'X_MPI_INFO_NULL()'
p113
S'123'
p114
tp115
a(S'MPI_Win_set_name()'
p116
S'124'
p117
tp118
a(S'MPI_Win_fence()'
p119
S'129'
p120
tp121
a(S'MPI_Win_fence()'
p122
S'130'
p123
tp124
a(S'MPI_Win_free()'
p125
S'144'
p126
tp127
a(S'MPI_Win_free()'
p128
S'145'
p129
tp130
asS'NCTU_CASE/HW2/forward_kinematics_source_code/boost_1_59_0/libs/mpi/doc/mpi.qbk'
p131
(lp132
(S'MPI_Init()'
p133
S'115'
p134
tp135
a(S'MPI_Comm_rank()'
p136
S'118'
p137
tp138
a(S'MPI_Send()'
p139
S'121'
p140
tp141
a(S'MPI_Recv()'
p142
S'126'
p143
tp144
a(S'MPI_Finalize()'
p145
S'131'
p146
tp147
asS'NCTU_CASE/HW2/forward_kinematics_source_code/boost_1_59_0/libs/mpi/src/point_to_point.cpp'
p148
(lp149
(S'X_MPI_PACKED()'
p150
S'38'
p151
tp152
a(S'X_MPI_PACKED()'
p153
S'55'
p154
tp155
a(S'X_MPI_PACKED()'
p156
S'75'
p157
tp158
asS'NCTU_CASE/HW2/forward_kinematics_source_code/boost_1_59_0/libs/graph_parallel/src/mpi_process_group.cpp'
p159
(lp160
(S'MPI_Cancel()'
p161
S'141'
p162
tp163
a(S'MPI_Isend()'
p164
S'560'
p165
tp166
a(S'X_MPI_PACKED()'
p167
S'561'
p168
tp169
a(S'MPI_Test()'
p170
S'569'
p171
tp172
a(S'MPI_Get_count()'
p173
S'731'
p174
tp175
a(S'MPI_Recv()'
p176
S'738'
p177
tp178
a(S'MPI_Isend()'
p179
S'822'
p180
tp181
a(S'MPI_Test()'
p182
S'826'
p183
tp184
a(S'MPI_Testsome()'
p185
S'929'
p186
tp187
a(S'MPI_Test()'
p188
S'1036'
p189
tp190
a(S'MPI_Test()'
p191
S'1047'
p192
tp193
a(S'MPI_Buffer_detach()'
p194
S'1094'
p195
tp196
a(S'MPI_Buffer_detach()'
p197
S'1099'
p198
tp199
a(S'MPI_Buffer_attach()'
p200
S'1102'
p201
tp202
a(S'MPI_Buffer_attach()'
p203
S'1104'
p204
tp205
asS'NCTU_CASE/HW2/forward_kinematics_source_code/boost_1_59_0/libs/mpi/src/mpi_datatype_cache.cpp'
p206
(lp207
(S'MPI_Type_free()'
p208
S'36'
p209
tp210
asS'NCTU_CASE/HW2/forward_kinematics_source_code/boost_1_59_0/boost/mpi/allocator.hpp'
p211
(lp212
(S'X_MPI_INFO_NULL()'
p213
S'141'
p214
tp215
asS'NCTU_CASE/HW2/forward_kinematics_source_code/boost_1_59_0/boost/mpi/operations.hpp'
p216
(lp217
(S'MPI_Op_free()'
p218
S'293'
p219
tp220
asS'NCTU_CASE/HW3/inverse_kinematics_source_code/boost_1_59_0/boost/mpi/communicator.hpp'
p221
(lp222
(S'MPI_Comm()'
p223
S'1292'
p224
tp225
a(S'MPI_Comm()'
p226
S'1492'
p227
tp228
a(S'MPI_Comm()'
p229
S'1515'
p230
tp231
a(S'MPI_Comm()'
p232
S'1551'
p233
tp234
a(S'MPI_Comm()'
p235
S'1574'
p236
tp237
asS'NCTU_CASE/HW3/inverse_kinematics_source_code/boost_1_59_0/boost/mpi/allocator.hpp'
p238
(lp239
(S'X_MPI_INFO_NULL()'
p240
S'141'
p241
tp242
asS'NCTU_CASE/HW3/inverse_kinematics_source_code/boost_1_59_0/libs/mpi/test/broadcast_test.cpp'
p243
(lp244
(S'MPI_Abort()'
p245
S'144'
p246
tp247
asS'NCTU_CASE/HW3/inverse_kinematics_source_code/boost_1_59_0/boost/graph/distributed/mpi_process_group.hpp'
p248
(lp249
(S'MPI_Bsend()'
p250
S'708'
p251
tp252
a(S'MPI_Isend()'
p253
S'714'
p254
tp255
a(S'MPI_Test()'
p256
S'720'
p257
tp258
a(S'MPI_Bsend()'
p259
S'744'
p260
tp261
a(S'MPI_Isend()'
p262
S'750'
p263
tp264
a(S'MPI_Test()'
p265
S'756'
p266
tp267
asS'NCTU_CASE/HW2/forward_kinematics_source_code/boost_1_59_0/boost/mpi/datatype.hpp'
p268
(lp269
(S'X_MPI_LONG_DOUBLE_INT()'
p270
S'250'
p271
tp272
a(S'MPI_Type_contiguous()'
p273
S'310'
p274
tp275
a(S'MPI_Type_commit()'
p276
S'311'
p277
tp278
asS'NCTU_CASE/HW3/inverse_kinematics_source_code/boost_1_59_0/boost/mpi/timer.hpp'
p279
(lp280
(S'MPI_Wtime()'
p281
S'71'
p282
tp283
asS'NCTU_CASE/HW3/inverse_kinematics_source_code/boost_1_59_0/libs/mpi/src/mpi_datatype_cache.cpp'
p284
(lp285
(S'MPI_Type_free()'
p286
S'36'
p287
tp288
asS'NCTU_CASE/HW3/inverse_kinematics_source_code/boost_1_59_0/libs/mpi/src/request.cpp'
p289
(lp290
(S'MPI_Waitall()'
p291
S'39'
p292
tp293
a(S'MPI_Testall()'
p294
S'82'
p295
tp296
asS'NCTU_CASE/HW2/forward_kinematics_source_code/boost_1_59_0/libs/mpi/test/broadcast_test.cpp'
p297
(lp298
(S'MPI_Abort()'
p299
S'144'
p300
tp301
asS'NCTU_CASE/HW2/forward_kinematics_source_code/boost_1_59_0/libs/mpi/src/request.cpp'
p302
(lp303
(S'MPI_Waitall()'
p304
S'39'
p305
tp306
a(S'MPI_Testall()'
p307
S'82'
p308
tp309
asS'NCTU_CASE/HW3/inverse_kinematics_source_code/boost_1_59_0/boost/mpi/datatype.hpp'
p310
(lp311
(S'X_MPI_LONG_DOUBLE_INT()'
p312
S'250'
p313
tp314
a(S'MPI_Type_contiguous()'
p315
S'310'
p316
tp317
a(S'MPI_Type_commit()'
p318
S'311'
p319
tp320
asS'NCTU_CASE/HW2/forward_kinematics_source_code/boost_1_59_0/libs/mpi/test/ring_test.cpp'
p321
(lp322
(S'MPI_Abort()'
p323
S'95'
p324
tp325
asS'NCTU_CASE/HW3/inverse_kinematics_source_code/boost_1_59_0/boost/graph/distributed/detail/mpi_process_group.ipp'
p326
(lp327
(S'MPI_Recv()'
p328
S'492'
p329
tp330
a(S'MPI_Get_count()'
p331
S'510'
p332
tp333
a(S'MPI_Recv()'
p334
S'516'
p335
tp336
a(S'MPI_Irecv()'
p337
S'665'
p338
tp339
a(S'X_MPI_PACKED()'
p340
S'666'
p341
tp342
a(S'MPI_Allgather()'
p343
S'837'
p344
tp345
a(S'MPI_Allgatherv()'
p346
S'856'
p347
tp348
a(S'X_MPI_BYTE()'
p349
S'859'
p350
tp351
a(S'MPI_Comm_group()'
p352
S'880'
p353
tp354
a(S'MPI_Group_incl()'
p355
S'884'
p356
tp357
a(S'MPI_Comm_create()'
p358
S'888'
p359
tp360
a(S'MPI_Group_free()'
p361
S'891'
p362
tp363
a(S'MPI_Group_free()'
p364
S'893'
p365
tp366
a(S'MPI_Comm_free()'
p367
S'898'
p368
tp369
a(S'MPI_Irecv()'
p370
S'929'
p371
tp372
a(S'MPI_Test()'
p373
S'934'
p374
tp375
a(S'MPI_Get_count()'
p376
S'967'
p377
tp378
a(S'MPI_Recv()'
p379
S'972'
p380
tp381
asS'NCTU_CASE/HW2/forward_kinematics_source_code/boost_1_59_0/boost/graph/distributed/detail/mpi_process_group.ipp'
p382
(lp383
(S'MPI_Recv()'
p384
S'492'
p385
tp386
a(S'MPI_Get_count()'
p387
S'510'
p388
tp389
a(S'MPI_Recv()'
p390
S'516'
p391
tp392
a(S'MPI_Irecv()'
p393
S'665'
p394
tp395
a(S'X_MPI_PACKED()'
p396
S'666'
p397
tp398
a(S'MPI_Allgather()'
p399
S'837'
p400
tp401
a(S'MPI_Allgatherv()'
p402
S'856'
p403
tp404
a(S'X_MPI_BYTE()'
p405
S'859'
p406
tp407
a(S'MPI_Comm_group()'
p408
S'880'
p409
tp410
a(S'MPI_Group_incl()'
p411
S'884'
p412
tp413
a(S'MPI_Comm_create()'
p414
S'888'
p415
tp416
a(S'MPI_Group_free()'
p417
S'891'
p418
tp419
a(S'MPI_Group_free()'
p420
S'893'
p421
tp422
a(S'MPI_Comm_free()'
p423
S'898'
p424
tp425
a(S'MPI_Irecv()'
p426
S'929'
p427
tp428
a(S'MPI_Test()'
p429
S'934'
p430
tp431
a(S'MPI_Get_count()'
p432
S'967'
p433
tp434
a(S'MPI_Recv()'
p435
S'972'
p436
tp437
asS'NCTU_CASE/HW2/forward_kinematics_source_code/boost_1_59_0/boost/mpi/timer.hpp'
p438
(lp439
(S'MPI_Wtime()'
p440
S'71'
p441
tp442
asS'NCTU_CASE/HW2/forward_kinematics_source_code/boost_1_59_0/libs/mpi/test/skeleton_content_test.cpp'
p443
(lp444
(S'MPI_Abort()'
p445
S'195'
p446
tp447
asS'NCTU_CASE/HW2/forward_kinematics_source_code/boost_1_59_0/boost/mpi/exception.hpp'
p448
(lp449
(S'MPI_Error_class()'
p450
S'73'
p451
tp452
asS'NCTU_CASE/HW3/inverse_kinematics_source_code/boost_1_59_0/libs/graph_parallel/test/distributed_betweenness_centrality_test.cpp'
p453
(lp454
(S'MPI_Abort()'
p455
S'292'
p456
tp457
asS'NCTU_CASE/HW3/inverse_kinematics_source_code/boost_1_59_0/libs/mpi/src/environment.cpp'
p458
(lp459
(S'MPI_Errhandler_set()'
p460
S'74'
p461
tp462
a(S'MPI_Errhandler_set()'
p463
S'89'
p464
tp465
a(S'MPI_Errhandler_set()'
p466
S'102'
p467
tp468
a(S'MPI_Errhandler_set()'
p469
S'118'
p470
tp471
asS'NCTU_CASE/HW3/inverse_kinematics_source_code/boost_1_59_0/libs/mpi/test/ring_test.cpp'
p472
(lp473
(S'MPI_Abort()'
p474
S'95'
p475
tp476
asS'NCTU_CASE/HW2/forward_kinematics_source_code/boost_1_59_0/boost/graph/distributed/mpi_process_group.hpp'
p477
(lp478
(S'MPI_Bsend()'
p479
S'708'
p480
tp481
a(S'MPI_Isend()'
p482
S'714'
p483
tp484
a(S'MPI_Test()'
p485
S'720'
p486
tp487
a(S'MPI_Bsend()'
p488
S'744'
p489
tp490
a(S'MPI_Isend()'
p491
S'750'
p492
tp493
a(S'MPI_Test()'
p494
S'756'
p495
tp496
asS'NCTU_CASE/HW3/inverse_kinematics_source_code/boost_1_59_0/boost/graph/distributed/page_rank.hpp'
p497
(lp498
(S'MPI_Comm_rank()'
p499
S'40'
p500
tp501
a(S'MPI_Accumulate()'
p502
S'53'
p503
tp504
a(S'MPI_Win_fence()'
p505
S'60'
p506
tp507
a(S'MPI_Comm_rank()'
p508
S'90'
p509
tp510
a(S'MPI_Win_create()'
p511
S'115'
p512
tp513
a(S'X_MPI_INFO_NULL()'
p514
S'118'
p515
tp516
a(S'MPI_Win_set_name()'
p517
S'119'
p518
tp519
a(S'MPI_Win_create()'
p520
S'120'
p521
tp522
a(S'X_MPI_INFO_NULL()'
p523
S'123'
p524
tp525
a(S'MPI_Win_set_name()'
p526
S'124'
p527
tp528
a(S'MPI_Win_fence()'
p529
S'129'
p530
tp531
a(S'MPI_Win_fence()'
p532
S'130'
p533
tp534
a(S'MPI_Win_free()'
p535
S'144'
p536
tp537
a(S'MPI_Win_free()'
p538
S'145'
p539
tp540
asS'NCTU_CASE/HW3/inverse_kinematics_source_code/boost_1_59_0/libs/mpi/src/point_to_point.cpp'
p541
(lp542
(S'X_MPI_PACKED()'
p543
S'38'
p544
tp545
a(S'X_MPI_PACKED()'
p546
S'55'
p547
tp548
a(S'X_MPI_PACKED()'
p549
S'75'
p550
tp551
asS'NCTU_CASE/HW3/inverse_kinematics_source_code/boost_1_59_0/boost/mpi/operations.hpp'
p552
(lp553
(S'MPI_Op_free()'
p554
S'293'
p555
tp556
asS'NCTU_CASE/HW3/inverse_kinematics_source_code/boost_1_59_0/boost/mpi/exception.hpp'
p557
(lp558
(S'MPI_Error_class()'
p559
S'73'
p560
tp561
asS'NCTU_CASE/HW3/inverse_kinematics_source_code/boost_1_59_0/libs/graph_parallel/src/mpi_process_group.cpp'
p562
(lp563
(S'MPI_Cancel()'
p564
S'141'
p565
tp566
a(S'MPI_Isend()'
p567
S'560'
p568
tp569
a(S'X_MPI_PACKED()'
p570
S'561'
p571
tp572
a(S'MPI_Test()'
p573
S'569'
p574
tp575
a(S'MPI_Get_count()'
p576
S'731'
p577
tp578
a(S'MPI_Recv()'
p579
S'738'
p580
tp581
a(S'MPI_Isend()'
p582
S'822'
p583
tp584
a(S'MPI_Test()'
p585
S'826'
p586
tp587
a(S'MPI_Testsome()'
p588
S'929'
p589
tp590
a(S'MPI_Test()'
p591
S'1036'
p592
tp593
a(S'MPI_Test()'
p594
S'1047'
p595
tp596
a(S'MPI_Buffer_detach()'
p597
S'1094'
p598
tp599
a(S'MPI_Buffer_detach()'
p600
S'1099'
p601
tp602
a(S'MPI_Buffer_attach()'
p603
S'1102'
p604
tp605
a(S'MPI_Buffer_attach()'
p606
S'1104'
p607
tp608
asS'NCTU_CASE/HW2/forward_kinematics_source_code/boost_1_59_0/libs/graph_parallel/test/distributed_betweenness_centrality_test.cpp'
p609
(lp610
(S'MPI_Abort()'
p611
S'292'
p612
tp613
as.