ccollections
defaultdict
p0
(c__builtin__
list
p1
tp2
Rp3
S'trentino-sca/cpp/3rdparty/x86_cygwin/boost_1_47/include/boost/mpi/communicator.hpp'
p4
(lp5
(S'MPI_Comm()'
p6
S'1425'
p7
tp8
a(S'MPI_Comm()'
p9
S'1448'
p10
tp11
a(S'MPI_Comm()'
p12
S'1484'
p13
tp14
a(S'MPI_Comm()'
p15
S'1507'
p16
tp17
asS'trentino-sca/cpp/3rdparty/x86_cygwin/boost_1_47/include/boost/graph/distributed/mpi_process_group.hpp'
p18
(lp19
(S'MPI_Bsend()'
p20
S'708'
p21
tp22
a(S'MPI_Isend()'
p23
S'714'
p24
tp25
a(S'MPI_Test()'
p26
S'720'
p27
tp28
a(S'MPI_Bsend()'
p29
S'744'
p30
tp31
a(S'MPI_Isend()'
p32
S'750'
p33
tp34
a(S'MPI_Test()'
p35
S'756'
p36
tp37
asS'trentino-sca/cpp/3rdparty/x86_cygwin/boost_1_47/include/boost/graph/distributed/detail/mpi_process_group.ipp'
p38
(lp39
(S'MPI_Recv()'
p40
S'492'
p41
tp42
a(S'MPI_Get_count()'
p43
S'510'
p44
tp45
a(S'MPI_Recv()'
p46
S'516'
p47
tp48
a(S'MPI_Irecv()'
p49
S'665'
p50
tp51
a(S'X_MPI_PACKED()'
p52
S'666'
p53
tp54
a(S'MPI_Allgather()'
p55
S'837'
p56
tp57
a(S'MPI_Allgatherv()'
p58
S'856'
p59
tp60
a(S'X_MPI_BYTE()'
p61
S'859'
p62
tp63
a(S'MPI_Comm_group()'
p64
S'880'
p65
tp66
a(S'MPI_Group_incl()'
p67
S'884'
p68
tp69
a(S'MPI_Comm_create()'
p70
S'888'
p71
tp72
a(S'MPI_Group_free()'
p73
S'891'
p74
tp75
a(S'MPI_Group_free()'
p76
S'893'
p77
tp78
a(S'MPI_Comm_free()'
p79
S'898'
p80
tp81
a(S'MPI_Irecv()'
p82
S'929'
p83
tp84
a(S'MPI_Test()'
p85
S'934'
p86
tp87
a(S'MPI_Get_count()'
p88
S'967'
p89
tp90
a(S'MPI_Recv()'
p91
S'972'
p92
tp93
asS'trentino-sca/cpp/3rdparty/x86_cygwin/boost_1_47/include/boost/mpi/allocator.hpp'
p94
(lp95
(S'X_MPI_INFO_NULL()'
p96
S'141'
p97
tp98
asS'trentino-sca/cpp/3rdparty/x86_cygwin/boost_1_47/include/boost/mpi/datatype.hpp'
p99
(lp100
(S'X_MPI_LONG_DOUBLE_INT()'
p101
S'250'
p102
tp103
a(S'MPI_Type_contiguous()'
p104
S'310'
p105
tp106
a(S'MPI_Type_commit()'
p107
S'311'
p108
tp109
asS'trentino-sca/cpp/3rdparty/x86_cygwin/boost_1_47/include/boost/mpi/exception.hpp'
p110
(lp111
(S'MPI_Error_class()'
p112
S'73'
p113
tp114
asS'trentino-sca/cpp/3rdparty/x86_cygwin/boost_1_47/include/boost/mpi/operations.hpp'
p115
(lp116
(S'MPI_Op_free()'
p117
S'293'
p118
tp119
asS'trentino-sca/cpp/3rdparty/x86_cygwin/boost_1_47/include/boost/mpi/timer.hpp'
p120
(lp121
(S'MPI_Wtime()'
p122
S'71'
p123
tp124
asS'trentino-sca/cpp/3rdparty/x86_cygwin/boost_1_47/include/boost/graph/distributed/page_rank.hpp'
p125
(lp126
(S'MPI_Comm_rank()'
p127
S'40'
p128
tp129
a(S'MPI_Accumulate()'
p130
S'53'
p131
tp132
a(S'MPI_Win_fence()'
p133
S'60'
p134
tp135
a(S'MPI_Comm_rank()'
p136
S'90'
p137
tp138
a(S'MPI_Win_create()'
p139
S'116'
p140
tp141
a(S'X_MPI_INFO_NULL()'
p142
S'119'
p143
tp144
a(S'MPI_Win_set_name()'
p145
S'120'
p146
tp147
a(S'MPI_Win_create()'
p148
S'121'
p149
tp150
a(S'X_MPI_INFO_NULL()'
p151
S'124'
p152
tp153
a(S'MPI_Win_set_name()'
p154
S'125'
p155
tp156
a(S'MPI_Win_fence()'
p157
S'130'
p158
tp159
a(S'MPI_Win_fence()'
p160
S'131'
p161
tp162
a(S'MPI_Win_free()'
p163
S'145'
p164
tp165
a(S'MPI_Win_free()'
p166
S'146'
p167
tp168
as.