ccollections
defaultdict
p0
(c__builtin__
list
p1
tp2
Rp3
S'mysql-5.7.18/boost/boost_1_59_0/boost/mpi/timer.hpp'
p4
(lp5
(S'MPI_Wtime()'
p6
S'71'
p7
tp8
asS'mysql-5.7.18/boost/boost_1_59_0/boost/graph/distributed/page_rank.hpp'
p9
(lp10
(S'MPI_Comm_rank()'
p11
S'40'
p12
tp13
a(S'MPI_Accumulate()'
p14
S'53'
p15
tp16
a(S'MPI_Win_fence()'
p17
S'60'
p18
tp19
a(S'MPI_Comm_rank()'
p20
S'90'
p21
tp22
a(S'MPI_Win_create()'
p23
S'115'
p24
tp25
a(S'X_MPI_INFO_NULL()'
p26
S'118'
p27
tp28
a(S'MPI_Win_set_name()'
p29
S'119'
p30
tp31
a(S'MPI_Win_create()'
p32
S'120'
p33
tp34
a(S'X_MPI_INFO_NULL()'
p35
S'123'
p36
tp37
a(S'MPI_Win_set_name()'
p38
S'124'
p39
tp40
a(S'MPI_Win_fence()'
p41
S'129'
p42
tp43
a(S'MPI_Win_fence()'
p44
S'130'
p45
tp46
a(S'MPI_Win_free()'
p47
S'144'
p48
tp49
a(S'MPI_Win_free()'
p50
S'145'
p51
tp52
asS'mysql-5.7.18/boost/boost_1_59_0/boost/mpi/exception.hpp'
p53
(lp54
(S'MPI_Error_class()'
p55
S'73'
p56
tp57
asS'mysql-5.7.18/boost/boost_1_59_0/boost/graph/distributed/detail/mpi_process_group.ipp'
p58
(lp59
(S'MPI_Recv()'
p60
S'492'
p61
tp62
a(S'MPI_Get_count()'
p63
S'510'
p64
tp65
a(S'MPI_Recv()'
p66
S'516'
p67
tp68
a(S'MPI_Irecv()'
p69
S'665'
p70
tp71
a(S'X_MPI_PACKED()'
p72
S'666'
p73
tp74
a(S'MPI_Allgather()'
p75
S'837'
p76
tp77
a(S'MPI_Allgatherv()'
p78
S'856'
p79
tp80
a(S'X_MPI_BYTE()'
p81
S'859'
p82
tp83
a(S'MPI_Comm_group()'
p84
S'880'
p85
tp86
a(S'MPI_Group_incl()'
p87
S'884'
p88
tp89
a(S'MPI_Comm_create()'
p90
S'888'
p91
tp92
a(S'MPI_Group_free()'
p93
S'891'
p94
tp95
a(S'MPI_Group_free()'
p96
S'893'
p97
tp98
a(S'MPI_Comm_free()'
p99
S'898'
p100
tp101
a(S'MPI_Irecv()'
p102
S'929'
p103
tp104
a(S'MPI_Test()'
p105
S'934'
p106
tp107
a(S'MPI_Get_count()'
p108
S'967'
p109
tp110
a(S'MPI_Recv()'
p111
S'972'
p112
tp113
asS'mysql-5.7.18/boost/boost_1_59_0/boost/graph/distributed/mpi_process_group.hpp'
p114
(lp115
(S'MPI_Bsend()'
p116
S'708'
p117
tp118
a(S'MPI_Isend()'
p119
S'714'
p120
tp121
a(S'MPI_Test()'
p122
S'720'
p123
tp124
a(S'MPI_Bsend()'
p125
S'744'
p126
tp127
a(S'MPI_Isend()'
p128
S'750'
p129
tp130
a(S'MPI_Test()'
p131
S'756'
p132
tp133
asS'mysql-5.7.18/boost/boost_1_59_0/boost/mpi/operations.hpp'
p134
(lp135
(S'MPI_Op_free()'
p136
S'293'
p137
tp138
asS'mysql-5.7.18/boost/boost_1_59_0/boost/mpi/communicator.hpp'
p139
(lp140
(S'MPI_Comm()'
p141
S'1292'
p142
tp143
a(S'MPI_Comm()'
p144
S'1492'
p145
tp146
a(S'MPI_Comm()'
p147
S'1515'
p148
tp149
a(S'MPI_Comm()'
p150
S'1551'
p151
tp152
a(S'MPI_Comm()'
p153
S'1574'
p154
tp155
asS'mysql-5.7.18/boost/boost_1_59_0/boost/mpi/allocator.hpp'
p156
(lp157
(S'X_MPI_INFO_NULL()'
p158
S'141'
p159
tp160
asS'mysql-5.7.18/boost/boost_1_59_0/boost/mpi/datatype.hpp'
p161
(lp162
(S'X_MPI_LONG_DOUBLE_INT()'
p163
S'250'
p164
tp165
a(S'MPI_Type_contiguous()'
p166
S'310'
p167
tp168
a(S'MPI_Type_commit()'
p169
S'311'
p170
tp171
as.