ccollections
defaultdict
p0
(c__builtin__
list
p1
tp2
Rp3
S'live_plugin/ios/Classes/RtmpLivePushSDK/boost/boost/mpi/operations.hpp'
p4
(lp5
(S'MPI_Op_free()'
p6
S'293'
p7
tp8
asS'live_plugin/ios/Classes/RtmpLivePushSDK/boost/boost/graph/distributed/page_rank.hpp'
p9
(lp10
(S'MPI_Comm_rank()'
p11
S'40'
p12
tp13
a(S'MPI_Accumulate()'
p14
S'53'
p15
tp16
a(S'MPI_Win_fence()'
p17
S'60'
p18
tp19
a(S'MPI_Comm_rank()'
p20
S'90'
p21
tp22
a(S'MPI_Win_create()'
p23
S'117'
p24
tp25
a(S'X_MPI_INFO_NULL()'
p26
S'120'
p27
tp28
a(S'MPI_Win_set_name()'
p29
S'121'
p30
tp31
a(S'MPI_Win_create()'
p32
S'122'
p33
tp34
a(S'X_MPI_INFO_NULL()'
p35
S'125'
p36
tp37
a(S'MPI_Win_set_name()'
p38
S'126'
p39
tp40
a(S'MPI_Win_fence()'
p41
S'131'
p42
tp43
a(S'MPI_Win_fence()'
p44
S'132'
p45
tp46
a(S'MPI_Win_free()'
p47
S'146'
p48
tp49
a(S'MPI_Win_free()'
p50
S'147'
p51
tp52
asS'live_plugin/ios/Classes/RtmpLivePushSDK/boost/boost/mpi/exception.hpp'
p53
(lp54
(S'MPI_Error_class()'
p55
S'73'
p56
tp57
asS'live_plugin/back/RtmpLivePushSDK/boost/boost/mpi/communicator.hpp'
p58
(lp59
(S'MPI_Comm()'
p60
S'1425'
p61
tp62
a(S'MPI_Comm()'
p63
S'1448'
p64
tp65
a(S'MPI_Comm()'
p66
S'1484'
p67
tp68
a(S'MPI_Comm()'
p69
S'1507'
p70
tp71
asS'live_plugin/ios/Classes/RtmpLivePushSDK/boost/boost/mpi/communicator.hpp'
p72
(lp73
(S'MPI_Comm()'
p74
S'1425'
p75
tp76
a(S'MPI_Comm()'
p77
S'1448'
p78
tp79
a(S'MPI_Comm()'
p80
S'1484'
p81
tp82
a(S'MPI_Comm()'
p83
S'1507'
p84
tp85
asS'live_plugin/back/RtmpLivePushSDK/boost/boost/graph/distributed/mpi_process_group.hpp'
p86
(lp87
(S'MPI_Bsend()'
p88
S'708'
p89
tp90
a(S'MPI_Isend()'
p91
S'714'
p92
tp93
a(S'MPI_Test()'
p94
S'720'
p95
tp96
a(S'MPI_Bsend()'
p97
S'744'
p98
tp99
a(S'MPI_Isend()'
p100
S'750'
p101
tp102
a(S'MPI_Test()'
p103
S'756'
p104
tp105
asS'live_plugin/back/RtmpLivePushSDK/boost/boost/mpi/operations.hpp'
p106
(lp107
(S'MPI_Op_free()'
p108
S'293'
p109
tp110
asS'live_plugin/ios/Classes/RtmpLivePushSDK/boost/boost/mpi/datatype.hpp'
p111
(lp112
(S'X_MPI_LONG_DOUBLE_INT()'
p113
S'250'
p114
tp115
a(S'MPI_Type_contiguous()'
p116
S'310'
p117
tp118
a(S'MPI_Type_commit()'
p119
S'311'
p120
tp121
asS'live_plugin/ios/Classes/RtmpLivePushSDK/boost/boost/graph/distributed/mpi_process_group.hpp'
p122
(lp123
(S'MPI_Bsend()'
p124
S'708'
p125
tp126
a(S'MPI_Isend()'
p127
S'714'
p128
tp129
a(S'MPI_Test()'
p130
S'720'
p131
tp132
a(S'MPI_Bsend()'
p133
S'744'
p134
tp135
a(S'MPI_Isend()'
p136
S'750'
p137
tp138
a(S'MPI_Test()'
p139
S'756'
p140
tp141
asS'live_plugin/ios/Classes/RtmpLivePushSDK/boost/boost/mpi/allocator.hpp'
p142
(lp143
(S'X_MPI_INFO_NULL()'
p144
S'141'
p145
tp146
asS'live_plugin/back/RtmpLivePushSDK/boost/boost/graph/distributed/page_rank.hpp'
p147
(lp148
(S'MPI_Comm_rank()'
p149
S'40'
p150
tp151
a(S'MPI_Accumulate()'
p152
S'53'
p153
tp154
a(S'MPI_Win_fence()'
p155
S'60'
p156
tp157
a(S'MPI_Comm_rank()'
p158
S'90'
p159
tp160
a(S'MPI_Win_create()'
p161
S'117'
p162
tp163
a(S'X_MPI_INFO_NULL()'
p164
S'120'
p165
tp166
a(S'MPI_Win_set_name()'
p167
S'121'
p168
tp169
a(S'MPI_Win_create()'
p170
S'122'
p171
tp172
a(S'X_MPI_INFO_NULL()'
p173
S'125'
p174
tp175
a(S'MPI_Win_set_name()'
p176
S'126'
p177
tp178
a(S'MPI_Win_fence()'
p179
S'131'
p180
tp181
a(S'MPI_Win_fence()'
p182
S'132'
p183
tp184
a(S'MPI_Win_free()'
p185
S'146'
p186
tp187
a(S'MPI_Win_free()'
p188
S'147'
p189
tp190
asS'live_plugin/back/RtmpLivePushSDK/boost/boost/mpi/timer.hpp'
p191
(lp192
(S'MPI_Wtime()'
p193
S'71'
p194
tp195
asS'live_plugin/back/RtmpLivePushSDK/boost/boost/mpi/exception.hpp'
p196
(lp197
(S'MPI_Error_class()'
p198
S'73'
p199
tp200
asS'live_plugin/back/RtmpLivePushSDK/boost/boost/mpi/datatype.hpp'
p201
(lp202
(S'X_MPI_LONG_DOUBLE_INT()'
p203
S'250'
p204
tp205
a(S'MPI_Type_contiguous()'
p206
S'310'
p207
tp208
a(S'MPI_Type_commit()'
p209
S'311'
p210
tp211
asS'live_plugin/back/RtmpLivePushSDK/boost/boost/mpi/allocator.hpp'
p212
(lp213
(S'X_MPI_INFO_NULL()'
p214
S'141'
p215
tp216
asS'live_plugin/ios/Classes/RtmpLivePushSDK/boost/boost/mpi/timer.hpp'
p217
(lp218
(S'MPI_Wtime()'
p219
S'71'
p220
tp221
as.