ccollections
defaultdict
p0
(c__builtin__
list
p1
tp2
Rp3
S'Example_React_Node_Full_Application/offerbrite/third-party/boost_1_63_0/boost/mpi/communicator.hpp'
p4
(lp5
(S'MPI_Comm()'
p6
S'1366'
p7
tp8
a(S'MPI_Comm()'
p9
S'1566'
p10
tp11
a(S'MPI_Comm()'
p12
S'1589'
p13
tp14
a(S'MPI_Comm()'
p15
S'1625'
p16
tp17
a(S'MPI_Comm()'
p18
S'1648'
p19
tp20
asS'Example_React_Node_Full_Application/offerbrite/third-party/boost_1_63_0/boost/mpi/operations.hpp'
p21
(lp22
(S'MPI_Op_free()'
p23
S'293'
p24
tp25
asS'Example_React_Node_Full_Application/offerbrite/third-party/boost_1_63_0/boost/graph/distributed/mpi_process_group.hpp'
p26
(lp27
(S'MPI_Bsend()'
p28
S'709'
p29
tp30
a(S'MPI_Isend()'
p31
S'715'
p32
tp33
a(S'MPI_Test()'
p34
S'721'
p35
tp36
a(S'MPI_Bsend()'
p37
S'745'
p38
tp39
a(S'MPI_Isend()'
p40
S'751'
p41
tp42
a(S'MPI_Test()'
p43
S'757'
p44
tp45
asS'Example_React_Node_Full_Application/offerbrite/third-party/boost_1_63_0/boost/mpi/timer.hpp'
p46
(lp47
(S'MPI_Wtime()'
p48
S'71'
p49
tp50
asS'Example_React_Node_Full_Application/offerbrite/third-party/boost_1_63_0/boost/graph/distributed/detail/mpi_process_group.ipp'
p51
(lp52
(S'MPI_Recv()'
p53
S'493'
p54
tp55
a(S'MPI_Get_count()'
p56
S'511'
p57
tp58
a(S'MPI_Recv()'
p59
S'517'
p60
tp61
a(S'MPI_Irecv()'
p62
S'666'
p63
tp64
a(S'X_MPI_PACKED()'
p65
S'667'
p66
tp67
a(S'MPI_Allgather()'
p68
S'838'
p69
tp70
a(S'MPI_Allgatherv()'
p71
S'857'
p72
tp73
a(S'X_MPI_BYTE()'
p74
S'860'
p75
tp76
a(S'MPI_Comm_group()'
p77
S'881'
p78
tp79
a(S'MPI_Group_incl()'
p80
S'885'
p81
tp82
a(S'MPI_Comm_create()'
p83
S'889'
p84
tp85
a(S'MPI_Group_free()'
p86
S'892'
p87
tp88
a(S'MPI_Group_free()'
p89
S'894'
p90
tp91
a(S'MPI_Comm_free()'
p92
S'899'
p93
tp94
a(S'MPI_Irecv()'
p95
S'930'
p96
tp97
a(S'MPI_Test()'
p98
S'935'
p99
tp100
a(S'MPI_Get_count()'
p101
S'968'
p102
tp103
a(S'MPI_Recv()'
p104
S'973'
p105
tp106
asS'Example_React_Node_Full_Application/offerbrite/third-party/boost_1_63_0/boost/mpi/allocator.hpp'
p107
(lp108
(S'X_MPI_INFO_NULL()'
p109
S'141'
p110
tp111
asS'Example_React_Node_Full_Application/offerbrite/third-party/boost_1_63_0/boost/graph/distributed/page_rank.hpp'
p112
(lp113
(S'MPI_Comm_rank()'
p114
S'40'
p115
tp116
a(S'MPI_Accumulate()'
p117
S'53'
p118
tp119
a(S'MPI_Win_fence()'
p120
S'60'
p121
tp122
a(S'MPI_Comm_rank()'
p123
S'90'
p124
tp125
a(S'MPI_Win_create()'
p126
S'115'
p127
tp128
a(S'X_MPI_INFO_NULL()'
p129
S'118'
p130
tp131
a(S'MPI_Win_set_name()'
p132
S'119'
p133
tp134
a(S'MPI_Win_create()'
p135
S'120'
p136
tp137
a(S'X_MPI_INFO_NULL()'
p138
S'123'
p139
tp140
a(S'MPI_Win_set_name()'
p141
S'124'
p142
tp143
a(S'MPI_Win_fence()'
p144
S'129'
p145
tp146
a(S'MPI_Win_fence()'
p147
S'130'
p148
tp149
a(S'MPI_Win_free()'
p150
S'144'
p151
tp152
a(S'MPI_Win_free()'
p153
S'145'
p154
tp155
asS'Example_React_Node_Full_Application/offerbrite/third-party/boost_1_63_0/boost/mpi/datatype.hpp'
p156
(lp157
(S'X_MPI_LONG_DOUBLE_INT()'
p158
S'254'
p159
tp160
a(S'MPI_Type_contiguous()'
p161
S'323'
p162
tp163
a(S'MPI_Type_commit()'
p164
S'324'
p165
tp166
asS'Example_React_Node_Full_Application/offerbrite/third-party/boost_1_63_0/boost/mpi/exception.hpp'
p167
(lp168
(S'MPI_Error_class()'
p169
S'73'
p170
tp171
as.